ARM GAS  /var/folders/t8/16hdwfmd2fg_d3q6dgx6bpmw0000gn/T//cc7frsgN.s 			page 1


   1              		.cpu cortex-m0plus
   2              		.eabi_attribute 20, 1
   3              		.eabi_attribute 21, 1
   4              		.eabi_attribute 23, 3
   5              		.eabi_attribute 24, 1
   6              		.eabi_attribute 25, 1
   7              		.eabi_attribute 26, 1
   8              		.eabi_attribute 30, 2
   9              		.eabi_attribute 34, 0
  10              		.eabi_attribute 18, 4
  11              		.file	"action_tapping.c"
  12              		.text
  13              	.Ltext0:
  14              		.cfi_sections	.debug_frame
  15              		.section	.text.debug_waiting_buffer,"ax",%progbits
  16              		.align	1
  17              		.p2align 4,,15
  18              		.syntax unified
  19              		.code	16
  20              		.thumb_func
  21              		.fpu softvfp
  22              		.type	debug_waiting_buffer, %function
  23              	debug_waiting_buffer:
  24              	.LFB10:
  25              		.file 1 "../../tmk_core/common/action_tapping.c"
  26              		.loc 1 359 0
  27              		.cfi_startproc
  28              		@ args = 0, pretend = 0, frame = 0
  29              		@ frame_needed = 0, uses_anonymous_args = 0
  30 0000 F8B5     		push	{r3, r4, r5, r6, r7, lr}
  31              		.cfi_def_cfa_offset 24
  32              		.cfi_offset 3, -24
  33              		.cfi_offset 4, -20
  34              		.cfi_offset 5, -16
  35              		.cfi_offset 6, -12
  36              		.cfi_offset 7, -8
  37              		.cfi_offset 14, -4
  38              	.LBB75:
  39              		.loc 1 361 0
  40 0002 0A4B     		ldr	r3, .L6
  41 0004 0A4E     		ldr	r6, .L6+4
  42 0006 1C78     		ldrb	r4, [r3]
  43              	.LVL0:
  44 0008 3378     		ldrb	r3, [r6]
  45 000a A342     		cmp	r3, r4
  46 000c 0CD0     		beq	.L1
  47 000e 0727     		movs	r7, #7
  48 0010 084D     		ldr	r5, .L6+8
  49              	.L3:
  50              		.loc 1 362 0 discriminator 3
  51 0012 E300     		lsls	r3, r4, #3
  52 0014 E858     		ldr	r0, [r5, r3]
  53 0016 EB18     		adds	r3, r5, r3
  54 0018 5968     		ldr	r1, [r3, #4]
  55 001a FFF7FEFF 		bl	debug_record
  56              	.LVL1:
  57              		.loc 1 361 0 discriminator 3
ARM GAS  /var/folders/t8/16hdwfmd2fg_d3q6dgx6bpmw0000gn/T//cc7frsgN.s 			page 2


  58 001e 3378     		ldrb	r3, [r6]
  59 0020 0134     		adds	r4, r4, #1
  60              	.LVL2:
  61 0022 3C40     		ands	r4, r7
  62              	.LVL3:
  63 0024 A342     		cmp	r3, r4
  64 0026 F4D1     		bne	.L3
  65              	.L1:
  66              	.LBE75:
  67              		.loc 1 365 0
  68              		@ sp needed
  69              	.LVL4:
  70 0028 F8BD     		pop	{r3, r4, r5, r6, r7, pc}
  71              	.L7:
  72 002a C046     		.align	2
  73              	.L6:
  74 002c 00000000 		.word	.LANCHOR0
  75 0030 00000000 		.word	.LANCHOR1
  76 0034 00000000 		.word	.LANCHOR2
  77              		.cfi_endproc
  78              	.LFE10:
  79              		.size	debug_waiting_buffer, .-debug_waiting_buffer
  80              		.section	.text.waiting_buffer_scan_tap.part.3,"ax",%progbits
  81              		.align	1
  82              		.p2align 4,,15
  83              		.syntax unified
  84              		.code	16
  85              		.thumb_func
  86              		.fpu softvfp
  87              		.type	waiting_buffer_scan_tap.part.3, %function
  88              	waiting_buffer_scan_tap.part.3:
  89              	.LFB14:
  90              		.loc 1 327 0
  91              		.cfi_startproc
  92              		@ args = 0, pretend = 0, frame = 24
  93              		@ frame_needed = 0, uses_anonymous_args = 0
  94 0000 F0B5     		push	{r4, r5, r6, r7, lr}
  95              		.cfi_def_cfa_offset 20
  96              		.cfi_offset 4, -20
  97              		.cfi_offset 5, -16
  98              		.cfi_offset 6, -12
  99              		.cfi_offset 7, -8
 100              		.cfi_offset 14, -4
 101 0002 DE46     		mov	lr, fp
 102 0004 5746     		mov	r7, r10
 103 0006 4E46     		mov	r6, r9
 104 0008 4546     		mov	r5, r8
 105 000a E0B5     		push	{r5, r6, r7, lr}
 106              		.cfi_def_cfa_offset 36
 107              		.cfi_offset 8, -36
 108              		.cfi_offset 9, -32
 109              		.cfi_offset 10, -28
 110              		.cfi_offset 11, -24
 111              	.LBB76:
 112              		.loc 1 334 0
 113 000c 394B     		ldr	r3, .L26
 114 000e 3A4A     		ldr	r2, .L26+4
ARM GAS  /var/folders/t8/16hdwfmd2fg_d3q6dgx6bpmw0000gn/T//cc7frsgN.s 			page 3


 115 0010 1B78     		ldrb	r3, [r3]
 116              	.LVL5:
 117 0012 1178     		ldrb	r1, [r2]
 118              	.LBE76:
 119              		.loc 1 327 0
 120 0014 87B0     		sub	sp, sp, #28
 121              		.cfi_def_cfa_offset 64
 122              	.LBB81:
 123              		.loc 1 334 0
 124 0016 8B42     		cmp	r3, r1
 125 0018 56D0     		beq	.L8
 126 001a 384A     		ldr	r2, .L26+8
 127              	.LBB77:
 128              	.LBB78:
 129              		.file 2 "../../tmk_core/common/keyboard.h"
 130              		.loc 2 49 0
 131 001c 384C     		ldr	r4, .L26+12
 132 001e 9088     		ldrh	r0, [r2, #4]
 133 0020 5678     		ldrb	r6, [r2, #1]
 134 0022 9346     		mov	fp, r2
 135 0024 1278     		ldrb	r2, [r2]
 136 0026 A046     		mov	r8, r4
 137              	.LBE78:
 138              	.LBE77:
 139              		.loc 1 337 0
 140 0028 241A     		subs	r4, r4, r0
 141 002a 9446     		mov	ip, r2
 142 002c 0394     		str	r4, [sp, #12]
 143 002e 05AA     		add	r2, sp, #20
 144              		.loc 1 334 0
 145 0030 0296     		str	r6, [sp, #8]
 146 0032 0190     		str	r0, [sp, #4]
 147 0034 04E0     		b	.L15
 148              	.L10:
 149 0036 0720     		movs	r0, #7
 150 0038 0133     		adds	r3, r3, #1
 151              	.LVL6:
 152 003a 0340     		ands	r3, r0
 153              	.LVL7:
 154 003c 8B42     		cmp	r3, r1
 155 003e 43D0     		beq	.L8
 156              	.L15:
 157              	.LBB80:
 158              	.LBB79:
 159              		.loc 2 49 0
 160 0040 0198     		ldr	r0, [sp, #4]
 161 0042 0028     		cmp	r0, #0
 162 0044 F7D0     		beq	.L10
 163 0046 6846     		mov	r0, sp
 164 0048 6446     		mov	r4, ip
 165 004a 007A     		ldrb	r0, [r0, #8]
 166 004c 1470     		strb	r4, [r2]
 167 004e 5070     		strb	r0, [r2, #1]
 168 0050 1488     		ldrh	r4, [r2]
 169 0052 4445     		cmp	r4, r8
 170 0054 EFD0     		beq	.L10
 171              	.LBE79:
ARM GAS  /var/folders/t8/16hdwfmd2fg_d3q6dgx6bpmw0000gn/T//cc7frsgN.s 			page 4


 172              	.LBE80:
 173              		.loc 1 335 0
 174 0056 2B48     		ldr	r0, .L26+16
 175 0058 DC00     		lsls	r4, r3, #3
 176 005a 0619     		adds	r6, r0, r4
 177 005c B146     		mov	r9, r6
 178 005e 0298     		ldr	r0, [sp, #8]
 179 0060 7678     		ldrb	r6, [r6, #1]
 180 0062 8642     		cmp	r6, r0
 181 0064 E7D1     		bne	.L10
 182 0066 2748     		ldr	r0, .L26+16
 183 0068 065D     		ldrb	r6, [r0, r4]
 184 006a 6645     		cmp	r6, ip
 185 006c E3D1     		bne	.L10
 186 006e 4E46     		mov	r6, r9
 187 0070 B678     		ldrb	r6, [r6, #2]
 188 0072 3000     		movs	r0, r6
 189 0074 371E     		subs	r7, r6, #0
 190 0076 DED1     		bne	.L10
 191              		.loc 1 337 0
 192 0078 4E46     		mov	r6, r9
 193 007a B688     		ldrh	r6, [r6, #4]
 194 007c 019D     		ldr	r5, [sp, #4]
 195 007e B246     		mov	r10, r6
 196 0080 AA45     		cmp	r10, r5
 197 0082 28D2     		bcs	.L25
 198 0084 0398     		ldr	r0, [sp, #12]
 199 0086 3E00     		movs	r6, r7
 200 0088 8146     		mov	r9, r0
 201 008a CA44     		add	r10, r10, r9
 202 008c 5046     		mov	r0, r10
 203 008e C725     		movs	r5, #199
 204 0090 5746     		mov	r7, r10
 205 0092 C00F     		lsrs	r0, r0, #31
 206 0094 BD42     		cmp	r5, r7
 207 0096 4641     		adcs	r6, r6, r0
 208 0098 F0B2     		uxtb	r0, r6
 209 009a 8146     		mov	r9, r0
 210              	.L13:
 211              		.loc 1 336 0
 212 009c 4E46     		mov	r6, r9
 213 009e 002E     		cmp	r6, #0
 214 00a0 C9D0     		beq	.L10
 215              		.loc 1 338 0
 216 00a2 5B46     		mov	r3, fp
 217              	.LVL8:
 218 00a4 9A79     		ldrb	r2, [r3, #6]
 219 00a6 0F23     		movs	r3, #15
 220 00a8 1021     		movs	r1, #16
 221 00aa 5846     		mov	r0, fp
 222 00ac 1A40     		ands	r2, r3
 223 00ae 0A43     		orrs	r2, r1
 224 00b0 8271     		strb	r2, [r0, #6]
 225              		.loc 1 339 0
 226 00b2 144A     		ldr	r2, .L26+16
 227 00b4 9446     		mov	ip, r2
 228 00b6 6444     		add	r4, r4, ip
ARM GAS  /var/folders/t8/16hdwfmd2fg_d3q6dgx6bpmw0000gn/T//cc7frsgN.s 			page 5


 229 00b8 A279     		ldrb	r2, [r4, #6]
 230 00ba 1340     		ands	r3, r2
 231 00bc 0B43     		orrs	r3, r1
 232 00be A371     		strb	r3, [r4, #6]
 233              		.loc 1 340 0
 234 00c0 FFF7FEFF 		bl	process_action
 235              	.LVL9:
 236              		.loc 1 343 0
 237 00c4 FFF7FEFF 		bl	debug_waiting_buffer
 238              	.LVL10:
 239              	.L8:
 240              	.LBE81:
 241              		.loc 1 347 0
 242 00c8 07B0     		add	sp, sp, #28
 243              		@ sp needed
 244 00ca 3CBC     		pop	{r2, r3, r4, r5}
 245 00cc 9046     		mov	r8, r2
 246 00ce 9946     		mov	r9, r3
 247 00d0 A246     		mov	r10, r4
 248 00d2 AB46     		mov	fp, r5
 249 00d4 F0BD     		pop	{r4, r5, r6, r7, pc}
 250              	.LVL11:
 251              	.L25:
 252              	.LBB82:
 253              		.loc 1 337 0
 254 00d6 5646     		mov	r6, r10
 255 00d8 761B     		subs	r6, r6, r5
 256 00da B246     		mov	r10, r6
 257 00dc F60F     		lsrs	r6, r6, #31
 258 00de B146     		mov	r9, r6
 259 00e0 C725     		movs	r5, #199
 260 00e2 0600     		movs	r6, r0
 261 00e4 4F46     		mov	r7, r9
 262 00e6 5046     		mov	r0, r10
 263 00e8 8542     		cmp	r5, r0
 264 00ea 7E41     		adcs	r6, r6, r7
 265 00ec F0B2     		uxtb	r0, r6
 266 00ee 8146     		mov	r9, r0
 267 00f0 D4E7     		b	.L13
 268              	.L27:
 269 00f2 C046     		.align	2
 270              	.L26:
 271 00f4 00000000 		.word	.LANCHOR0
 272 00f8 00000000 		.word	.LANCHOR1
 273 00fc 00000000 		.word	.LANCHOR3
 274 0100 FFFF0000 		.word	65535
 275 0104 00000000 		.word	.LANCHOR2
 276              	.LBE82:
 277              		.cfi_endproc
 278              	.LFE14:
 279              		.size	waiting_buffer_scan_tap.part.3, .-waiting_buffer_scan_tap.part.3
 280              		.section	.text.process_tapping,"ax",%progbits
 281              		.align	1
 282              		.p2align 4,,15
 283              		.syntax unified
 284              		.code	16
 285              		.thumb_func
ARM GAS  /var/folders/t8/16hdwfmd2fg_d3q6dgx6bpmw0000gn/T//cc7frsgN.s 			page 6


 286              		.fpu softvfp
 287              		.type	process_tapping, %function
 288              	process_tapping:
 289              	.LFB4:
 290              		.loc 1 79 0
 291              		.cfi_startproc
 292              		@ args = 0, pretend = 0, frame = 64
 293              		@ frame_needed = 0, uses_anonymous_args = 0
 294              	.LVL12:
 295 0000 F0B5     		push	{r4, r5, r6, r7, lr}
 296              		.cfi_def_cfa_offset 20
 297              		.cfi_offset 4, -20
 298              		.cfi_offset 5, -16
 299              		.cfi_offset 6, -12
 300              		.cfi_offset 7, -8
 301              		.cfi_offset 14, -4
 302 0002 4546     		mov	r5, r8
 303 0004 DE46     		mov	lr, fp
 304 0006 5746     		mov	r7, r10
 305 0008 4E46     		mov	r6, r9
 306 000a 0400     		movs	r4, r0
 307 000c E0B5     		push	{r5, r6, r7, lr}
 308              		.cfi_def_cfa_offset 36
 309              		.cfi_offset 8, -36
 310              		.cfi_offset 9, -32
 311              		.cfi_offset 10, -28
 312              		.cfi_offset 11, -24
 313 000e 91B0     		sub	sp, sp, #68
 314              		.cfi_def_cfa_offset 104
 315              		.loc 1 80 0
 316 0010 0100     		movs	r1, r0
 317 0012 0622     		movs	r2, #6
 318 0014 0AA8     		add	r0, sp, #40
 319              	.LVL13:
 320 0016 FFF7FEFF 		bl	memcpy
 321              	.LVL14:
 322 001a A188     		ldrh	r1, [r4, #4]
 323 001c C94D     		ldr	r5, .L176
 324 001e 2378     		ldrb	r3, [r4]
 325 0020 8846     		mov	r8, r1
 326 0022 AE88     		ldrh	r6, [r5, #4]
 327 0024 2988     		ldrh	r1, [r5]
 328 0026 02A8     		add	r0, sp, #8
 329 0028 0093     		str	r3, [sp]
 330              	.LVL15:
 331 002a A778     		ldrb	r7, [r4, #2]
 332 002c 6378     		ldrb	r3, [r4, #1]
 333              	.LVL16:
 334 002e 8180     		strh	r1, [r0, #4]
 335              	.LBB83:
 336              	.LBB84:
 337              		.loc 2 49 0
 338 0030 002E     		cmp	r6, #0
 339 0032 59D0     		beq	.L29
 340 0034 6878     		ldrb	r0, [r5, #1]
 341 0036 2A78     		ldrb	r2, [r5]
 342 0038 8446     		mov	ip, r0
ARM GAS  /var/folders/t8/16hdwfmd2fg_d3q6dgx6bpmw0000gn/T//cc7frsgN.s 			page 7


 343 003a 88B2     		uxth	r0, r1
 344 003c 8146     		mov	r9, r0
 345 003e C248     		ldr	r0, .L176+4
 346 0040 0192     		str	r2, [sp, #4]
 347 0042 8246     		mov	r10, r0
 348 0044 8145     		cmp	r9, r0
 349 0046 43D0     		beq	.L165
 350              	.LBE84:
 351              	.LBE83:
 352              		.loc 1 83 0
 353 0048 A878     		ldrb	r0, [r5, #2]
 354 004a 8146     		mov	r9, r0
 355 004c 0028     		cmp	r0, #0
 356 004e 00D1     		bne	.LCB325
 357 0050 79E0     		b	.L166	@long jump
 358              	.LCB325:
 359              		.loc 1 84 0
 360 0052 B045     		cmp	r8, r6
 361 0054 00D3     		bcc	.LCB327
 362 0056 C4E0     		b	.L167	@long jump
 363              	.LCB327:
 364              		.loc 1 84 0 is_stmt 0 discriminator 2
 365 0058 5246     		mov	r2, r10
 366 005a 901B     		subs	r0, r2, r6
 367 005c C722     		movs	r2, #199
 368 005e 9246     		mov	r10, r2
 369 0060 0022     		movs	r2, #0
 370 0062 5146     		mov	r1, r10
 371 0064 4044     		add	r0, r0, r8
 372 0066 C60F     		lsrs	r6, r0, #31
 373 0068 8142     		cmp	r1, r0
 374 006a 5641     		adcs	r6, r6, r2
 375 006c F6B2     		uxtb	r6, r6
 376              	.L33:
 377 006e A879     		ldrb	r0, [r5, #6]
 378 0070 8246     		mov	r10, r0
 379 0072 0F20     		movs	r0, #15
 380 0074 8346     		mov	fp, r0
 381 0076 5046     		mov	r0, r10
 382 0078 5946     		mov	r1, fp
 383 007a 8843     		bics	r0, r1
 384              		.loc 1 84 0 discriminator 4
 385 007c 002E     		cmp	r6, #0
 386 007e 00D1     		bne	.LCB349
 387 0080 EEE0     		b	.L34	@long jump
 388              	.LCB349:
 389              		.loc 1 85 0 is_stmt 1
 390 0082 0028     		cmp	r0, #0
 391 0084 00D0     		beq	.LCB351
 392 0086 2AE1     		b	.L35	@long jump
 393              	.LCB351:
 394              	.LBB85:
 395              	.LBB86:
 396              		.loc 2 49 0
 397 0088 6A46     		mov	r2, sp
 398 008a 1279     		ldrb	r2, [r2, #4]
 399 008c 04A8     		add	r0, sp, #16
ARM GAS  /var/folders/t8/16hdwfmd2fg_d3q6dgx6bpmw0000gn/T//cc7frsgN.s 			page 8


 400 008e 0270     		strb	r2, [r0]
 401 0090 6246     		mov	r2, ip
 402 0092 4270     		strb	r2, [r0, #1]
 403 0094 0088     		ldrh	r0, [r0]
 404 0096 AC49     		ldr	r1, .L176+4
 405 0098 8842     		cmp	r0, r1
 406 009a 00D1     		bne	.LCB363
 407 009c ACE0     		b	.L36	@long jump
 408              	.LCB363:
 409              	.LBE86:
 410              	.LBE85:
 411              		.loc 1 86 0
 412 009e 2020     		movs	r0, #32
 413 00a0 02AA     		add	r2, sp, #8
 414 00a2 1218     		adds	r2, r2, r0
 415 00a4 6846     		mov	r0, sp
 416 00a6 0078     		ldrb	r0, [r0]
 417 00a8 2988     		ldrh	r1, [r5]
 418 00aa 1070     		strb	r0, [r2]
 419 00ac 2120     		movs	r0, #33
 420 00ae 02AA     		add	r2, sp, #8
 421 00b0 1218     		adds	r2, r2, r0
 422 00b2 1370     		strb	r3, [r2]
 423 00b4 02AA     		add	r2, sp, #8
 424 00b6 108C     		ldrh	r0, [r2, #32]
 425 00b8 8842     		cmp	r0, r1
 426 00ba 00D0     		beq	.LCB382
 427 00bc 9CE0     		b	.L36	@long jump
 428              	.LCB382:
 429              		.loc 1 86 0 is_stmt 0 discriminator 2
 430 00be 002F     		cmp	r7, #0
 431 00c0 00D1     		bne	.LCB384
 432 00c2 F5E1     		b	.L168	@long jump
 433              	.LCB384:
 434              	.LVL17:
 435              	.L38:
 436              		.loc 1 139 0 is_stmt 1
 437 00c4 0122     		movs	r2, #1
 438 00c6 AB79     		ldrb	r3, [r5, #6]
 439              	.LVL18:
 440 00c8 1343     		orrs	r3, r2
 441 00ca AB71     		strb	r3, [r5, #6]
 442              	.LVL19:
 443              	.L158:
 444              		.loc 1 142 0
 445 00cc 0026     		movs	r6, #0
 446 00ce 11E0     		b	.L141
 447              	.LVL20:
 448              	.L165:
 449              	.LBB87:
 450              	.LBB88:
 451              		.loc 2 49 0
 452 00d0 6A46     		mov	r2, sp
 453 00d2 6146     		mov	r1, ip
 454 00d4 1279     		ldrb	r2, [r2, #4]
 455 00d6 08A8     		add	r0, sp, #32
 456 00d8 0270     		strb	r2, [r0]
ARM GAS  /var/folders/t8/16hdwfmd2fg_d3q6dgx6bpmw0000gn/T//cc7frsgN.s 			page 9


 457 00da 4170     		strb	r1, [r0, #1]
 458 00dc 0088     		ldrh	r0, [r0]
 459 00de 4845     		cmp	r0, r9
 460 00e0 02D0     		beq	.L29
 461              	.LBE88:
 462              	.LBE87:
 463              		.loc 1 226 0
 464 00e2 A878     		ldrb	r0, [r5, #2]
 465 00e4 0028     		cmp	r0, #0
 466 00e6 37D0     		beq	.L81
 467              	.L29:
 468              		.loc 1 275 0
 469 00e8 002F     		cmp	r7, #0
 470 00ea 0BD1     		bne	.L169
 471              	.LVL21:
 472              	.L69:
 473              		.loc 1 177 0
 474 00ec 2000     		movs	r0, r4
 475 00ee FFF7FEFF 		bl	process_action
 476              	.LVL22:
 477              		.loc 1 178 0
 478 00f2 0126     		movs	r6, #1
 479              	.LVL23:
 480              	.L141:
 481              		.loc 1 286 0
 482 00f4 3000     		movs	r0, r6
 483 00f6 11B0     		add	sp, sp, #68
 484              		@ sp needed
 485              	.LVL24:
 486 00f8 3CBC     		pop	{r2, r3, r4, r5}
 487 00fa 9046     		mov	r8, r2
 488 00fc 9946     		mov	r9, r3
 489 00fe A246     		mov	r10, r4
 490 0100 AB46     		mov	fp, r5
 491 0102 F0BD     		pop	{r4, r5, r6, r7, pc}
 492              	.LVL25:
 493              	.L169:
 494              		.loc 1 275 0 discriminator 1
 495 0104 6A46     		mov	r2, sp
 496 0106 2020     		movs	r0, #32
 497 0108 1278     		ldrb	r2, [r2]
 498 010a 02A9     		add	r1, sp, #8
 499 010c 0918     		adds	r1, r1, r0
 500 010e 0A70     		strb	r2, [r1]
 501 0110 2121     		movs	r1, #33
 502 0112 02AA     		add	r2, sp, #8
 503 0114 5218     		adds	r2, r2, r1
 504 0116 1370     		strb	r3, [r2]
 505 0118 0A98     		ldr	r0, [sp, #40]
 506 011a FFF7FEFF 		bl	is_tap_key
 507              	.LVL26:
 508 011e 0028     		cmp	r0, #0
 509 0120 E4D0     		beq	.L69
 510              	.LVL27:
 511              	.L154:
 512              		.loc 1 277 0
 513 0122 0822     		movs	r2, #8
ARM GAS  /var/folders/t8/16hdwfmd2fg_d3q6dgx6bpmw0000gn/T//cc7frsgN.s 			page 10


 514 0124 2100     		movs	r1, r4
 515 0126 2800     		movs	r0, r5
 516 0128 FFF7FEFF 		bl	memcpy
 517              	.LVL28:
 518              	.LBB90:
 519              	.LBB91:
 520              		.loc 1 330 0
 521 012c 0F22     		movs	r2, #15
 522 012e AB79     		ldrb	r3, [r5, #6]
 523 0130 9343     		bics	r3, r2
 524 0132 03D1     		bne	.L58
 525              	.LBE91:
 526              	.LBE90:
 527              	.LBB92:
 528              	.LBB93:
 529              		.loc 1 332 0
 530 0134 AB78     		ldrb	r3, [r5, #2]
 531 0136 002B     		cmp	r3, #0
 532 0138 00D0     		beq	.LCB509
 533 013a 2BE1     		b	.L170	@long jump
 534              	.LCB509:
 535              	.L58:
 536              	.LBE93:
 537              	.LBE92:
 538              	.LBB95:
 539              	.LBB96:
 540              		.loc 1 355 0
 541 013c 03CD     		ldmia	r5!, {r0, r1}
 542 013e FFF7FEFF 		bl	debug_record
 543              	.LVL29:
 544              	.LBE96:
 545              	.LBE95:
 546              		.loc 1 171 0
 547 0142 0126     		movs	r6, #1
 548 0144 D6E7     		b	.L141
 549              	.LVL30:
 550              	.L166:
 551              	.LBB97:
 552              	.LBB89:
 553              		.loc 2 49 0
 554 0146 6A46     		mov	r2, sp
 555 0148 6146     		mov	r1, ip
 556 014a 1279     		ldrb	r2, [r2, #4]
 557 014c 08A8     		add	r0, sp, #32
 558 014e 0270     		strb	r2, [r0]
 559 0150 4170     		strb	r1, [r0, #1]
 560 0152 0088     		ldrh	r0, [r0]
 561 0154 5045     		cmp	r0, r10
 562 0156 C7D0     		beq	.L29
 563              	.L81:
 564              	.LBE89:
 565              	.LBE97:
 566              		.loc 1 227 0
 567 0158 4246     		mov	r2, r8
 568 015a 901B     		subs	r0, r2, r6
 569 015c B045     		cmp	r8, r6
 570 015e 02D2     		bcs	.L155
ARM GAS  /var/folders/t8/16hdwfmd2fg_d3q6dgx6bpmw0000gn/T//cc7frsgN.s 			page 11


 571              		.loc 1 227 0 is_stmt 0 discriminator 2
 572 0160 794A     		ldr	r2, .L176+4
 573 0162 9146     		mov	r9, r2
 574 0164 4844     		add	r0, r0, r9
 575              	.L155:
 576 0166 C722     		movs	r2, #199
 577 0168 9146     		mov	r9, r2
 578 016a 0022     		movs	r2, #0
 579 016c 4946     		mov	r1, r9
 580 016e C60F     		lsrs	r6, r0, #31
 581 0170 8142     		cmp	r1, r0
 582 0172 5641     		adcs	r6, r6, r2
 583 0174 F6B2     		uxtb	r6, r6
 584 0176 002E     		cmp	r6, #0
 585 0178 00D1     		bne	.LCB561
 586 017a EDE0     		b	.L68	@long jump
 587              	.LCB561:
 588              		.loc 1 228 0 is_stmt 1
 589 017c 3E1E     		subs	r6, r7, #0
 590 017e B5D0     		beq	.L69
 591              	.LBB98:
 592              	.LBB99:
 593              		.loc 2 49 0
 594 0180 6A46     		mov	r2, sp
 595 0182 1279     		ldrb	r2, [r2, #4]
 596 0184 09A8     		add	r0, sp, #36
 597 0186 0270     		strb	r2, [r0]
 598 0188 6246     		mov	r2, ip
 599 018a 4270     		strb	r2, [r0, #1]
 600 018c 0088     		ldrh	r0, [r0]
 601 018e 6E49     		ldr	r1, .L176+4
 602 0190 8842     		cmp	r0, r1
 603 0192 0FD0     		beq	.L70
 604              	.LBE99:
 605              	.LBE98:
 606              		.loc 1 229 0
 607 0194 2020     		movs	r0, #32
 608 0196 02AA     		add	r2, sp, #8
 609 0198 1218     		adds	r2, r2, r0
 610 019a 6846     		mov	r0, sp
 611 019c 0078     		ldrb	r0, [r0]
 612 019e 2988     		ldrh	r1, [r5]
 613 01a0 1070     		strb	r0, [r2]
 614 01a2 2120     		movs	r0, #33
 615 01a4 02AA     		add	r2, sp, #8
 616 01a6 1218     		adds	r2, r2, r0
 617 01a8 1370     		strb	r3, [r2]
 618 01aa 02AA     		add	r2, sp, #8
 619 01ac 108C     		ldrh	r0, [r2, #32]
 620 01ae 8842     		cmp	r0, r1
 621 01b0 00D1     		bne	.LCB595
 622 01b2 F7E0     		b	.L171	@long jump
 623              	.LCB595:
 624              	.LVL31:
 625              	.L70:
 626              		.loc 1 244 0
 627 01b4 2021     		movs	r1, #32
ARM GAS  /var/folders/t8/16hdwfmd2fg_d3q6dgx6bpmw0000gn/T//cc7frsgN.s 			page 12


 628 01b6 02AA     		add	r2, sp, #8
 629 01b8 5218     		adds	r2, r2, r1
 630 01ba 6946     		mov	r1, sp
 631 01bc 0978     		ldrb	r1, [r1]
 632 01be 1170     		strb	r1, [r2]
 633 01c0 2121     		movs	r1, #33
 634 01c2 02AA     		add	r2, sp, #8
 635 01c4 5218     		adds	r2, r2, r1
 636 01c6 1370     		strb	r3, [r2]
 637 01c8 0A98     		ldr	r0, [sp, #40]
 638 01ca FFF7FEFF 		bl	is_tap_key
 639              	.LVL32:
 640 01ce 0028     		cmp	r0, #0
 641 01d0 A7D1     		bne	.L154
 642              		.loc 1 254 0
 643 01d2 0122     		movs	r2, #1
 644 01d4 AB79     		ldrb	r3, [r5, #6]
 645 01d6 1343     		orrs	r3, r2
 646 01d8 AB71     		strb	r3, [r5, #6]
 647              	.LVL33:
 648              	.L156:
 649              		.loc 1 255 0
 650 01da 2000     		movs	r0, r4
 651 01dc FFF7FEFF 		bl	process_action
 652              	.LVL34:
 653              		.loc 1 256 0
 654 01e0 88E7     		b	.L141
 655              	.LVL35:
 656              	.L167:
 657              		.loc 1 84 0 discriminator 1
 658 01e2 4146     		mov	r1, r8
 659 01e4 881B     		subs	r0, r1, r6
 660 01e6 C721     		movs	r1, #199
 661 01e8 8A46     		mov	r10, r1
 662 01ea 0021     		movs	r1, #0
 663 01ec 5246     		mov	r2, r10
 664 01ee C60F     		lsrs	r6, r0, #31
 665 01f0 8242     		cmp	r2, r0
 666 01f2 4E41     		adcs	r6, r6, r1
 667 01f4 F6B2     		uxtb	r6, r6
 668 01f6 3AE7     		b	.L33
 669              	.LVL36:
 670              	.L36:
 671              	.LBB100:
 672              	.LBB101:
 673              	.LBB102:
 674              	.LBB103:
 675              		.loc 2 49 0
 676 01f8 4246     		mov	r2, r8
 677 01fa 002A     		cmp	r2, #0
 678 01fc 00D1     		bne	.LCB662
 679 01fe CCE0     		b	.L40	@long jump
 680              	.LCB662:
 681 0200 6A46     		mov	r2, sp
 682 0202 1278     		ldrb	r2, [r2]
 683 0204 05A9     		add	r1, sp, #20
 684 0206 0A70     		strb	r2, [r1]
ARM GAS  /var/folders/t8/16hdwfmd2fg_d3q6dgx6bpmw0000gn/T//cc7frsgN.s 			page 13


 685 0208 4B70     		strb	r3, [r1, #1]
 686 020a 0888     		ldrh	r0, [r1]
 687 020c 4E49     		ldr	r1, .L176+4
 688 020e 8842     		cmp	r0, r1
 689 0210 00D1     		bne	.LCB671
 690 0212 C2E0     		b	.L40	@long jump
 691              	.LCB671:
 692              	.LBE103:
 693              	.LBE102:
 694              		.loc 2 51 0
 695 0214 002F     		cmp	r7, #0
 696 0216 00D0     		beq	.LCB675
 697 0218 54E7     		b	.L38	@long jump
 698              	.LCB675:
 699              	.LBE101:
 700              	.LBE100:
 701              	.LBB104:
 702              	.LBB105:
 703              		.loc 1 318 0 discriminator 1
 704 021a 4C49     		ldr	r1, .L176+8
 705 021c 4C48     		ldr	r0, .L176+12
 706 021e 0978     		ldrb	r1, [r1]
 707              	.LVL37:
 708 0220 0278     		ldrb	r2, [r0]
 709 0222 9046     		mov	r8, r2
 710              	.LVL38:
 711 0224 9142     		cmp	r1, r2
 712 0226 00D1     		bne	.LCB688
 713 0228 FBE0     		b	.L42	@long jump
 714              	.LCB688:
 715 022a 4A4A     		ldr	r2, .L176+16
 716 022c 9446     		mov	ip, r2
 717              		.loc 1 318 0 is_stmt 0
 718 022e 0722     		movs	r2, #7
 719 0230 9146     		mov	r9, r2
 720 0232 05E0     		b	.L44
 721              	.LVL39:
 722              	.L43:
 723 0234 4846     		mov	r0, r9
 724 0236 0131     		adds	r1, r1, #1
 725              	.LVL40:
 726 0238 0140     		ands	r1, r0
 727              	.LVL41:
 728 023a 4145     		cmp	r1, r8
 729 023c 00D1     		bne	.LCB706
 730 023e F0E0     		b	.L42	@long jump
 731              	.LCB706:
 732              	.L44:
 733              		.loc 1 319 0 is_stmt 1
 734 0240 6546     		mov	r5, ip
 735 0242 C800     		lsls	r0, r1, #3
 736 0244 2D18     		adds	r5, r5, r0
 737 0246 6F78     		ldrb	r7, [r5, #1]
 738 0248 9F42     		cmp	r7, r3
 739 024a F3D1     		bne	.L43
 740 024c 6246     		mov	r2, ip
 741 024e 105C     		ldrb	r0, [r2, r0]
ARM GAS  /var/folders/t8/16hdwfmd2fg_d3q6dgx6bpmw0000gn/T//cc7frsgN.s 			page 14


 742 0250 009A     		ldr	r2, [sp]
 743 0252 9042     		cmp	r0, r2
 744 0254 EED1     		bne	.L43
 745 0256 A878     		ldrb	r0, [r5, #2]
 746 0258 0028     		cmp	r0, #0
 747 025a EBD0     		beq	.L43
 748              	.LBE105:
 749              	.LBE104:
 750              		.loc 1 142 0
 751 025c 0026     		movs	r6, #0
 752 025e 49E7     		b	.L141
 753              	.LVL42:
 754              	.L34:
 755              		.loc 1 184 0
 756 0260 0028     		cmp	r0, #0
 757 0262 00D1     		bne	.LCB738
 758 0264 C5E0     		b	.L172	@long jump
 759              	.LCB738:
 760              	.LBB106:
 761              	.LBB107:
 762              		.loc 2 49 0
 763 0266 6A46     		mov	r2, sp
 764 0268 1279     		ldrb	r2, [r2, #4]
 765 026a 07A8     		add	r0, sp, #28
 766 026c 0270     		strb	r2, [r0]
 767 026e 6246     		mov	r2, ip
 768 0270 4270     		strb	r2, [r0, #1]
 769 0272 0088     		ldrh	r0, [r0]
 770 0274 3449     		ldr	r1, .L176+4
 771 0276 8842     		cmp	r0, r1
 772 0278 0FD0     		beq	.L61
 773              	.LBE107:
 774              	.LBE106:
 775              		.loc 1 192 0
 776 027a 2020     		movs	r0, #32
 777 027c 02AA     		add	r2, sp, #8
 778 027e 1218     		adds	r2, r2, r0
 779 0280 6846     		mov	r0, sp
 780 0282 0078     		ldrb	r0, [r0]
 781 0284 2988     		ldrh	r1, [r5]
 782 0286 1070     		strb	r0, [r2]
 783 0288 2120     		movs	r0, #33
 784 028a 02AA     		add	r2, sp, #8
 785 028c 1218     		adds	r2, r2, r0
 786 028e 1370     		strb	r3, [r2]
 787 0290 02AA     		add	r2, sp, #8
 788 0292 108C     		ldrh	r0, [r2, #32]
 789 0294 8842     		cmp	r0, r1
 790 0296 00D1     		bne	.LCB769
 791 0298 A2E0     		b	.L173	@long jump
 792              	.LCB769:
 793              	.LVL43:
 794              	.L61:
 795              		.loc 1 199 0
 796 029a 2021     		movs	r1, #32
 797 029c 02AA     		add	r2, sp, #8
 798 029e 5218     		adds	r2, r2, r1
ARM GAS  /var/folders/t8/16hdwfmd2fg_d3q6dgx6bpmw0000gn/T//cc7frsgN.s 			page 15


 799 02a0 6946     		mov	r1, sp
 800 02a2 0978     		ldrb	r1, [r1]
 801 02a4 1170     		strb	r1, [r2]
 802 02a6 2121     		movs	r1, #33
 803 02a8 02AA     		add	r2, sp, #8
 804 02aa 5218     		adds	r2, r2, r1
 805 02ac 1370     		strb	r3, [r2]
 806 02ae 0A98     		ldr	r0, [sp, #40]
 807 02b0 FFF7FEFF 		bl	is_tap_key
 808              	.LVL44:
 809 02b4 0028     		cmp	r0, #0
 810 02b6 00D1     		bne	.LCB791
 811 02b8 18E7     		b	.L69	@long jump
 812              	.LCB791:
 813              		.loc 1 199 0 is_stmt 0 discriminator 1
 814 02ba 002F     		cmp	r7, #0
 815 02bc 00D1     		bne	.LCB793
 816 02be 15E7     		b	.L69	@long jump
 817              	.LCB793:
 818              	.LVL45:
 819              	.L84:
 820              		.loc 1 200 0 is_stmt 1
 821 02c0 AB79     		ldrb	r3, [r5, #6]
 822 02c2 1F2B     		cmp	r3, #31
 823 02c4 00D8     		bhi	.LCB802
 824 02c6 2CE7     		b	.L154	@long jump
 825              	.LCB802:
 826              		.loc 1 203 0
 827 02c8 0EA8     		add	r0, sp, #56
 828              	.L161:
 829 02ca 2A88     		ldrh	r2, [r5]
 830 02cc 8371     		strb	r3, [r0, #6]
 831 02ce 0280     		strh	r2, [r0]
 832 02d0 0022     		movs	r2, #0
 833 02d2 8270     		strb	r2, [r0, #2]
 834 02d4 4246     		mov	r2, r8
 835 02d6 8280     		strh	r2, [r0, #4]
 836 02d8 FFF7FEFF 		bl	process_action
 837              	.LVL46:
 838 02dc 21E7     		b	.L154
 839              	.LVL47:
 840              	.L35:
 841              	.LBB108:
 842              	.LBB109:
 843              		.loc 2 49 0
 844 02de 6A46     		mov	r2, sp
 845 02e0 1279     		ldrb	r2, [r2, #4]
 846 02e2 06A8     		add	r0, sp, #24
 847 02e4 0270     		strb	r2, [r0]
 848 02e6 6246     		mov	r2, ip
 849 02e8 4270     		strb	r2, [r0, #1]
 850 02ea 0088     		ldrh	r0, [r0]
 851 02ec 1649     		ldr	r1, .L176+4
 852 02ee 8842     		cmp	r0, r1
 853 02f0 0FD0     		beq	.L52
 854              	.LBE109:
 855              	.LBE108:
ARM GAS  /var/folders/t8/16hdwfmd2fg_d3q6dgx6bpmw0000gn/T//cc7frsgN.s 			page 16


 856              		.loc 1 147 0
 857 02f2 2020     		movs	r0, #32
 858 02f4 02AA     		add	r2, sp, #8
 859 02f6 1218     		adds	r2, r2, r0
 860 02f8 6846     		mov	r0, sp
 861 02fa 0078     		ldrb	r0, [r0]
 862 02fc 2988     		ldrh	r1, [r5]
 863 02fe 1070     		strb	r0, [r2]
 864 0300 2120     		movs	r0, #33
 865 0302 02AA     		add	r2, sp, #8
 866 0304 1218     		adds	r2, r2, r0
 867 0306 1370     		strb	r3, [r2]
 868 0308 02AA     		add	r2, sp, #8
 869 030a 108C     		ldrh	r0, [r2, #32]
 870 030c 8842     		cmp	r0, r1
 871 030e 00D1     		bne	.LCB853
 872 0310 B1E0     		b	.L174	@long jump
 873              	.LCB853:
 874              	.LVL48:
 875              	.L52:
 876              		.loc 1 155 0
 877 0312 2021     		movs	r1, #32
 878 0314 02AA     		add	r2, sp, #8
 879 0316 5218     		adds	r2, r2, r1
 880 0318 6946     		mov	r1, sp
 881 031a 0978     		ldrb	r1, [r1]
 882 031c 1170     		strb	r1, [r2]
 883 031e 2121     		movs	r1, #33
 884 0320 02AA     		add	r2, sp, #8
 885 0322 5218     		adds	r2, r2, r1
 886 0324 1370     		strb	r3, [r2]
 887 0326 0A98     		ldr	r0, [sp, #40]
 888 0328 FFF7FEFF 		bl	is_tap_key
 889              	.LVL49:
 890 032c 0028     		cmp	r0, #0
 891 032e 00D1     		bne	.LCB875
 892 0330 DCE6     		b	.L69	@long jump
 893              	.LCB875:
 894              		.loc 1 155 0 is_stmt 0 discriminator 1
 895 0332 002F     		cmp	r7, #0
 896 0334 00D1     		bne	.LCB877
 897 0336 D9E6     		b	.L69	@long jump
 898              	.LCB877:
 899              	.LVL50:
 900              	.L83:
 901              		.loc 1 156 0 is_stmt 1
 902 0338 AB79     		ldrb	r3, [r5, #6]
 903              		.loc 1 159 0
 904 033a 0CA8     		add	r0, sp, #48
 905              		.loc 1 156 0
 906 033c 1F2B     		cmp	r3, #31
 907 033e 00D8     		bhi	.LCB887
 908 0340 EFE6     		b	.L154	@long jump
 909              	.LCB887:
 910 0342 C2E7     		b	.L161
 911              	.L177:
 912              		.align	2
ARM GAS  /var/folders/t8/16hdwfmd2fg_d3q6dgx6bpmw0000gn/T//cc7frsgN.s 			page 17


 913              	.L176:
 914 0344 00000000 		.word	.LANCHOR3
 915 0348 FFFF0000 		.word	65535
 916 034c 00000000 		.word	.LANCHOR0
 917 0350 00000000 		.word	.LANCHOR1
 918 0354 00000000 		.word	.LANCHOR2
 919              	.LVL51:
 920              	.L68:
 921              		.loc 1 267 0
 922 0358 2221     		movs	r1, #34
 923 035a 02AA     		add	r2, sp, #8
 924 035c 5218     		adds	r2, r2, r1
 925 035e 4146     		mov	r1, r8
 926 0360 1770     		strb	r7, [r2]
 927 0362 02AA     		add	r2, sp, #8
 928 0364 9184     		strh	r1, [r2, #36]
 929 0366 2021     		movs	r1, #32
 930 0368 5218     		adds	r2, r2, r1
 931 036a 6946     		mov	r1, sp
 932 036c 0978     		ldrb	r1, [r1]
 933 036e 1170     		strb	r1, [r2]
 934 0370 2121     		movs	r1, #33
 935 0372 02AA     		add	r2, sp, #8
 936 0374 5218     		adds	r2, r2, r1
 937 0376 1370     		strb	r3, [r2]
 938 0378 0A98     		ldr	r0, [sp, #40]
 939 037a 0B99     		ldr	r1, [sp, #44]
 940 037c FFF7FEFF 		bl	debug_event
 941              	.LVL52:
 942              	.L157:
 943              		.loc 1 268 0
 944 0380 0822     		movs	r2, #8
 945 0382 0021     		movs	r1, #0
 946 0384 2800     		movs	r0, r5
 947 0386 FFF7FEFF 		bl	memset
 948              	.LVL53:
 949              	.LBB110:
 950              	.LBB111:
 951              		.loc 1 355 0
 952 038a 0020     		movs	r0, #0
 953 038c 0021     		movs	r1, #0
 954 038e FFF7FEFF 		bl	debug_record
 955              	.LVL54:
 956              	.LBE111:
 957              	.LBE110:
 958              		.loc 1 270 0
 959 0392 AFE6     		b	.L141
 960              	.LVL55:
 961              	.L170:
 962              	.LBB112:
 963              	.LBB94:
 964 0394 FFF7FEFF 		bl	waiting_buffer_scan_tap.part.3
 965              	.LVL56:
 966 0398 D0E6     		b	.L58
 967              	.LVL57:
 968              	.L40:
 969              	.LBE94:
ARM GAS  /var/folders/t8/16hdwfmd2fg_d3q6dgx6bpmw0000gn/T//cc7frsgN.s 			page 18


 970              	.LBE112:
 971              		.loc 1 138 0
 972 039a 002F     		cmp	r7, #0
 973 039c 00D0     		beq	.LCB978
 974 039e 91E6     		b	.L38	@long jump
 975              	.LCB978:
 976              		.loc 1 142 0
 977 03a0 0026     		movs	r6, #0
 978 03a2 A7E6     		b	.L141
 979              	.L171:
 980              		.loc 1 230 0
 981 03a4 AB79     		ldrb	r3, [r5, #6]
 982              	.LVL58:
 983 03a6 DA07     		lsls	r2, r3, #31
 984 03a8 5FD4     		bmi	.L72
 985              		.loc 1 230 0 is_stmt 0 discriminator 1
 986 03aa 0F22     		movs	r2, #15
 987 03ac 1900     		movs	r1, r3
 988 03ae 9143     		bics	r1, r2
 989 03b0 5BD0     		beq	.L72
 990              		.loc 1 233 0 is_stmt 1
 991 03b2 1900     		movs	r1, r3
 992              		.loc 1 232 0
 993 03b4 A371     		strb	r3, [r4, #6]
 994              		.loc 1 233 0
 995 03b6 9143     		bics	r1, r2
 996 03b8 F029     		cmp	r1, #240
 997 03ba 05D0     		beq	.L73
 998              		.loc 1 233 0 is_stmt 0 discriminator 1
 999 03bc 1909     		lsrs	r1, r3, #4
 1000 03be 0131     		adds	r1, r1, #1
 1001 03c0 0901     		lsls	r1, r1, #4
 1002 03c2 1340     		ands	r3, r2
 1003 03c4 0B43     		orrs	r3, r1
 1004              	.LVL59:
 1005              	.L159:
 1006 03c6 A371     		strb	r3, [r4, #6]
 1007              	.LVL60:
 1008              	.L73:
 1009              		.loc 1 235 0 is_stmt 1
 1010 03c8 2000     		movs	r0, r4
 1011 03ca FFF7FEFF 		bl	process_action
 1012              	.LVL61:
 1013              		.loc 1 236 0
 1014 03ce 2100     		movs	r1, r4
 1015 03d0 0822     		movs	r2, #8
 1016 03d2 2800     		movs	r0, r5
 1017 03d4 FFF7FEFF 		bl	memcpy
 1018              	.LVL62:
 1019              	.LBB113:
 1020              	.LBB114:
 1021              		.loc 1 355 0
 1022 03d8 03CD     		ldmia	r5!, {r0, r1}
 1023 03da FFF7FEFF 		bl	debug_record
 1024              	.LVL63:
 1025              	.LBE114:
 1026              	.LBE113:
ARM GAS  /var/folders/t8/16hdwfmd2fg_d3q6dgx6bpmw0000gn/T//cc7frsgN.s 			page 19


 1027              		.loc 1 238 0
 1028 03de 89E6     		b	.L141
 1029              	.LVL64:
 1030              	.L173:
 1031              		.loc 1 192 0 discriminator 2
 1032 03e0 002F     		cmp	r7, #0
 1033 03e2 52D0     		beq	.L175
 1034              		.loc 1 199 0
 1035 03e4 0A98     		ldr	r0, [sp, #40]
 1036 03e6 FFF7FEFF 		bl	is_tap_key
 1037              	.LVL65:
 1038 03ea 0028     		cmp	r0, #0
 1039 03ec 00D0     		beq	.LCB1058
 1040 03ee 67E7     		b	.L84	@long jump
 1041              	.LCB1058:
 1042 03f0 7CE6     		b	.L69
 1043              	.LVL66:
 1044              	.L172:
 1045              		.loc 1 186 0
 1046 03f2 2221     		movs	r1, #34
 1047 03f4 02AA     		add	r2, sp, #8
 1048 03f6 5218     		adds	r2, r2, r1
 1049 03f8 4146     		mov	r1, r8
 1050 03fa 1770     		strb	r7, [r2]
 1051 03fc 02AA     		add	r2, sp, #8
 1052 03fe 9184     		strh	r1, [r2, #36]
 1053 0400 2021     		movs	r1, #32
 1054 0402 5218     		adds	r2, r2, r1
 1055 0404 6946     		mov	r1, sp
 1056 0406 0978     		ldrb	r1, [r1]
 1057 0408 1170     		strb	r1, [r2]
 1058 040a 2121     		movs	r1, #33
 1059 040c 02AA     		add	r2, sp, #8
 1060 040e 5218     		adds	r2, r2, r1
 1061 0410 1370     		strb	r3, [r2]
 1062 0412 0A98     		ldr	r0, [sp, #40]
 1063 0414 0B99     		ldr	r1, [sp, #44]
 1064 0416 FFF7FEFF 		bl	debug_event
 1065              	.LVL67:
 1066              		.loc 1 187 0
 1067 041a 2800     		movs	r0, r5
 1068 041c FFF7FEFF 		bl	process_action
 1069              	.LVL68:
 1070 0420 AEE7     		b	.L157
 1071              	.LVL69:
 1072              	.L42:
 1073              	.LBB115:
 1074              		.loc 1 118 0
 1075 0422 2021     		movs	r1, #32
 1076 0424 02AA     		add	r2, sp, #8
 1077 0426 5218     		adds	r2, r2, r1
 1078 0428 6946     		mov	r1, sp
 1079 042a 0978     		ldrb	r1, [r1]
 1080 042c 1170     		strb	r1, [r2]
 1081 042e 2121     		movs	r1, #33
 1082 0430 02AA     		add	r2, sp, #8
 1083 0432 5218     		adds	r2, r2, r1
ARM GAS  /var/folders/t8/16hdwfmd2fg_d3q6dgx6bpmw0000gn/T//cc7frsgN.s 			page 20


 1084 0434 1370     		strb	r3, [r2]
 1085 0436 0A98     		ldr	r0, [sp, #40]
 1086 0438 FFF7FEFF 		bl	layer_switch_get_action
 1087              	.LVL70:
 1088 043c C2B2     		uxtb	r2, r0
 1089              	.LVL71:
 1090              		.loc 1 119 0
 1091 043e 0004     		lsls	r0, r0, #16
 1092              	.LVL72:
 1093 0440 030F     		lsrs	r3, r0, #28
 1094 0442 012B     		cmp	r3, #1
 1095 0444 2DD9     		bls	.L45
 1096 0446 032B     		cmp	r3, #3
 1097 0448 00D9     		bls	.LCB1134
 1098 044a C6E6     		b	.L156	@long jump
 1099              	.LCB1134:
 1100              		.loc 1 127 0
 1101 044c 0F23     		movs	r3, #15
 1102 044e 000E     		lsrs	r0, r0, #24
 1103 0450 0342     		tst	r3, r0
 1104 0452 03D0     		beq	.L50
 1105              		.loc 1 127 0 is_stmt 0 discriminator 1
 1106 0454 A179     		ldrb	r1, [r4, #6]
 1107 0456 9943     		bics	r1, r3
 1108 0458 00D1     		bne	.LCB1145
 1109 045a 37E6     		b	.L158	@long jump
 1110              	.LCB1145:
 1111              	.L50:
 1112              		.loc 1 128 0 is_stmt 1
 1113 045c 2032     		adds	r2, r2, #32
 1114              	.LVL73:
 1115 045e D2B2     		uxtb	r2, r2
 1116              	.LVL74:
 1117 0460 072A     		cmp	r2, #7
 1118 0462 00D9     		bls	.LCB1153
 1119 0464 B9E6     		b	.L156	@long jump
 1120              	.LCB1153:
 1121              	.LBE115:
 1122              		.loc 1 142 0
 1123 0466 0026     		movs	r6, #0
 1124 0468 44E6     		b	.L141
 1125              	.LVL75:
 1126              	.L72:
 1127              		.loc 1 241 0
 1128 046a 0822     		movs	r2, #8
 1129 046c 2100     		movs	r1, r4
 1130 046e 2800     		movs	r0, r5
 1131 0470 FFF7FEFF 		bl	memcpy
 1132              	.LVL76:
 1133              		.loc 1 242 0
 1134 0474 3EE6     		b	.L141
 1135              	.LVL77:
 1136              	.L174:
 1137              		.loc 1 149 0 discriminator 2
 1138 0476 5346     		mov	r3, r10
 1139              	.LVL78:
 1140              		.loc 1 147 0 discriminator 2
ARM GAS  /var/folders/t8/16hdwfmd2fg_d3q6dgx6bpmw0000gn/T//cc7frsgN.s 			page 21


 1141 0478 002F     		cmp	r7, #0
 1142 047a A4D0     		beq	.L159
 1143              		.loc 1 155 0
 1144 047c 0A98     		ldr	r0, [sp, #40]
 1145 047e FFF7FEFF 		bl	is_tap_key
 1146              	.LVL79:
 1147 0482 0028     		cmp	r0, #0
 1148 0484 00D0     		beq	.LCB1194
 1149 0486 57E7     		b	.L83	@long jump
 1150              	.LCB1194:
 1151 0488 30E6     		b	.L69
 1152              	.LVL80:
 1153              	.L175:
 1154              		.loc 1 194 0
 1155 048a 5346     		mov	r3, r10
 1156              	.LVL81:
 1157              		.loc 1 195 0
 1158 048c 2000     		movs	r0, r4
 1159              		.loc 1 194 0
 1160 048e A371     		strb	r3, [r4, #6]
 1161              		.loc 1 195 0
 1162 0490 FFF7FEFF 		bl	process_action
 1163              	.LVL82:
 1164              		.loc 1 196 0
 1165 0494 0822     		movs	r2, #8
 1166 0496 0021     		movs	r1, #0
 1167 0498 2800     		movs	r0, r5
 1168 049a FFF7FEFF 		bl	memset
 1169              	.LVL83:
 1170              		.loc 1 197 0
 1171 049e 4E46     		mov	r6, r9
 1172 04a0 28E6     		b	.L141
 1173              	.LVL84:
 1174              	.L45:
 1175              	.LBB116:
 1176              		.loc 1 122 0
 1177 04a2 0001     		lsls	r0, r0, #4
 1178 04a4 000F     		lsrs	r0, r0, #28
 1179 04a6 D9D0     		beq	.L50
 1180              		.loc 1 122 0 is_stmt 0 discriminator 1
 1181 04a8 002A     		cmp	r2, #0
 1182 04aa D7D1     		bne	.L50
 1183              	.LBE116:
 1184              		.loc 1 142 0 is_stmt 1
 1185 04ac 0026     		movs	r6, #0
 1186 04ae 21E6     		b	.L141
 1187              	.LVL85:
 1188              	.L168:
 1189              		.loc 1 89 0
 1190 04b0 5246     		mov	r2, r10
 1191 04b2 5B46     		mov	r3, fp
 1192              	.LVL86:
 1193 04b4 1340     		ands	r3, r2
 1194 04b6 1022     		movs	r2, #16
 1195 04b8 1343     		orrs	r3, r2
 1196 04ba AB71     		strb	r3, [r5, #6]
 1197              	.LVL87:
ARM GAS  /var/folders/t8/16hdwfmd2fg_d3q6dgx6bpmw0000gn/T//cc7frsgN.s 			page 22


 1198              	.LBB117:
 1199              	.LBB118:
 1200              		.loc 1 355 0
 1201 04bc 2868     		ldr	r0, [r5]
 1202 04be 6968     		ldr	r1, [r5, #4]
 1203 04c0 FFF7FEFF 		bl	debug_record
 1204              	.LVL88:
 1205              	.LBE118:
 1206              	.LBE117:
 1207              		.loc 1 91 0
 1208 04c4 2800     		movs	r0, r5
 1209 04c6 FFF7FEFF 		bl	process_action
 1210              	.LVL89:
 1211              		.loc 1 94 0
 1212 04ca AB79     		ldrb	r3, [r5, #6]
 1213              		.loc 1 96 0
 1214 04cc 0026     		movs	r6, #0
 1215              		.loc 1 94 0
 1216 04ce A371     		strb	r3, [r4, #6]
 1217              		.loc 1 96 0
 1218 04d0 10E6     		b	.L141
 1219              		.cfi_endproc
 1220              	.LFE4:
 1221              		.size	process_tapping, .-process_tapping
 1222 04d2 C046     		.section	.text.action_tapping_process,"ax",%progbits
 1223              		.align	1
 1224              		.p2align 4,,15
 1225              		.global	action_tapping_process
 1226              		.syntax unified
 1227              		.code	16
 1228              		.thumb_func
 1229              		.fpu softvfp
 1230              		.type	action_tapping_process, %function
 1231              	action_tapping_process:
 1232              	.LFB3:
 1233              		.loc 1 39 0
 1234              		.cfi_startproc
 1235              		@ args = 0, pretend = 0, frame = 24
 1236              		@ frame_needed = 0, uses_anonymous_args = 0
 1237 0000 F0B5     		push	{r4, r5, r6, r7, lr}
 1238              		.cfi_def_cfa_offset 20
 1239              		.cfi_offset 4, -20
 1240              		.cfi_offset 5, -16
 1241              		.cfi_offset 6, -12
 1242              		.cfi_offset 7, -8
 1243              		.cfi_offset 14, -4
 1244 0002 87B0     		sub	sp, sp, #28
 1245              		.cfi_def_cfa_offset 48
 1246              		.loc 1 39 0
 1247 0004 6C46     		mov	r4, sp
 1248 0006 0090     		str	r0, [sp]
 1249              		.loc 1 40 0
 1250 0008 2000     		movs	r0, r4
 1251              		.loc 1 39 0
 1252 000a 6160     		str	r1, [r4, #4]
 1253              		.loc 1 40 0
 1254 000c FFF7FEFF 		bl	process_tapping
ARM GAS  /var/folders/t8/16hdwfmd2fg_d3q6dgx6bpmw0000gn/T//cc7frsgN.s 			page 23


 1255              	.LVL90:
 1256 0010 051E     		subs	r5, r0, #0
 1257 0012 2BD0     		beq	.L179
 1258 0014 2288     		ldrh	r2, [r4]
 1259 0016 A388     		ldrh	r3, [r4, #4]
 1260 0018 2281     		strh	r2, [r4, #8]
 1261              	.LBB127:
 1262              	.LBB128:
 1263              		.loc 2 49 0
 1264 001a 002B     		cmp	r3, #0
 1265 001c 1ED1     		bne	.L180
 1266              	.L201:
 1267 001e 2A4E     		ldr	r6, .L204
 1268 0020 2A4C     		ldr	r4, .L204+4
 1269 0022 3378     		ldrb	r3, [r6]
 1270 0024 2078     		ldrb	r0, [r4]
 1271              	.L181:
 1272              	.LBE128:
 1273              	.LBE127:
 1274              		.loc 1 58 0 discriminator 1
 1275 0026 8342     		cmp	r3, r0
 1276 0028 16D0     		beq	.L178
 1277 002a 294D     		ldr	r5, .L204+8
 1278              		.loc 1 58 0 is_stmt 0
 1279 002c 0727     		movs	r7, #7
 1280 002e 0DE0     		b	.L187
 1281              	.L202:
 1282              		.loc 1 61 0 is_stmt 1
 1283 0030 2378     		ldrb	r3, [r4]
 1284 0032 DB00     		lsls	r3, r3, #3
 1285 0034 E858     		ldr	r0, [r5, r3]
 1286 0036 EB18     		adds	r3, r5, r3
 1287 0038 5968     		ldr	r1, [r3, #4]
 1288 003a FFF7FEFF 		bl	debug_record
 1289              	.LVL91:
 1290              		.loc 1 58 0
 1291 003e 2078     		ldrb	r0, [r4]
 1292 0040 3378     		ldrb	r3, [r6]
 1293 0042 0130     		adds	r0, r0, #1
 1294 0044 3840     		ands	r0, r7
 1295 0046 2070     		strb	r0, [r4]
 1296 0048 8342     		cmp	r3, r0
 1297 004a 05D0     		beq	.L178
 1298              	.L187:
 1299              		.loc 1 59 0
 1300 004c C000     		lsls	r0, r0, #3
 1301 004e 2818     		adds	r0, r5, r0
 1302 0050 FFF7FEFF 		bl	process_tapping
 1303              	.LVL92:
 1304 0054 0028     		cmp	r0, #0
 1305 0056 EBD1     		bne	.L202
 1306              	.L178:
 1307              		.loc 1 69 0
 1308 0058 07B0     		add	sp, sp, #28
 1309              		@ sp needed
 1310 005a F0BD     		pop	{r4, r5, r6, r7, pc}
 1311              	.L180:
ARM GAS  /var/folders/t8/16hdwfmd2fg_d3q6dgx6bpmw0000gn/T//cc7frsgN.s 			page 24


 1312              	.LBB130:
 1313              	.LBB129:
 1314              		.loc 2 49 0
 1315 005c 2289     		ldrh	r2, [r4, #8]
 1316 005e 1D4B     		ldr	r3, .L204+12
 1317 0060 9A42     		cmp	r2, r3
 1318 0062 DCD0     		beq	.L201
 1319              	.LBE129:
 1320              	.LBE130:
 1321              		.loc 1 42 0
 1322 0064 03CC     		ldmia	r4!, {r0, r1}
 1323 0066 FFF7FEFF 		bl	debug_record
 1324              	.LVL93:
 1325 006a D8E7     		b	.L201
 1326              	.L179:
 1327 006c 04AA     		add	r2, sp, #16
 1328 006e 2100     		movs	r1, r4
 1329 0070 1300     		movs	r3, r2
 1330 0072 41C9     		ldmia	r1!, {r0, r6}
 1331 0074 41C3     		stmia	r3!, {r0, r6}
 1332 0076 1388     		ldrh	r3, [r2]
 1333 0078 A188     		ldrh	r1, [r4, #4]
 1334              	.LVL94:
 1335 007a A381     		strh	r3, [r4, #12]
 1336 007c 124E     		ldr	r6, .L204
 1337 007e 134C     		ldr	r4, .L204+4
 1338 0080 3378     		ldrb	r3, [r6]
 1339 0082 2078     		ldrb	r0, [r4]
 1340              	.LBB131:
 1341              	.LBB132:
 1342              	.LBB133:
 1343              	.LBB134:
 1344              		.loc 2 49 0
 1345 0084 0029     		cmp	r1, #0
 1346 0086 CED0     		beq	.L181
 1347 0088 6946     		mov	r1, sp
 1348              	.LVL95:
 1349 008a 8F89     		ldrh	r7, [r1, #12]
 1350 008c 1149     		ldr	r1, .L204+12
 1351              	.LVL96:
 1352 008e 8F42     		cmp	r7, r1
 1353 0090 C9D0     		beq	.L181
 1354              	.LBE134:
 1355              	.LBE133:
 1356              		.loc 1 298 0
 1357 0092 0721     		movs	r1, #7
 1358 0094 5F1C     		adds	r7, r3, #1
 1359 0096 3940     		ands	r1, r7
 1360 0098 8142     		cmp	r1, r0
 1361 009a 0AD0     		beq	.L203
 1362              		.loc 1 303 0
 1363 009c 0C4D     		ldr	r5, .L204+8
 1364 009e DB00     		lsls	r3, r3, #3
 1365 00a0 ED18     		adds	r5, r5, r3
 1366 00a2 09CA     		ldmia	r2!, {r0, r3}
 1367 00a4 09C5     		stmia	r5!, {r0, r3}
 1368              		.loc 1 304 0
ARM GAS  /var/folders/t8/16hdwfmd2fg_d3q6dgx6bpmw0000gn/T//cc7frsgN.s 			page 25


 1369 00a6 3170     		strb	r1, [r6]
 1370              		.loc 1 306 0
 1371 00a8 FFF7FEFF 		bl	debug_waiting_buffer
 1372              	.LVL97:
 1373 00ac 3378     		ldrb	r3, [r6]
 1374 00ae 2078     		ldrb	r0, [r4]
 1375 00b0 B9E7     		b	.L181
 1376              	.LVL98:
 1377              	.L203:
 1378              	.LBE132:
 1379              	.LBE131:
 1380              		.loc 1 48 0
 1381 00b2 FFF7FEFF 		bl	clear_keyboard
 1382              	.LVL99:
 1383              		.loc 1 50 0
 1384 00b6 0822     		movs	r2, #8
 1385 00b8 0021     		movs	r1, #0
 1386 00ba 0748     		ldr	r0, .L204+16
 1387              	.LBB135:
 1388              	.LBB136:
 1389              		.loc 1 312 0
 1390 00bc 3570     		strb	r5, [r6]
 1391              		.loc 1 313 0
 1392 00be 2570     		strb	r5, [r4]
 1393              	.LBE136:
 1394              	.LBE135:
 1395              		.loc 1 50 0
 1396 00c0 FFF7FEFF 		bl	memset
 1397              	.LVL100:
 1398 00c4 C8E7     		b	.L178
 1399              	.L205:
 1400 00c6 C046     		.align	2
 1401              	.L204:
 1402 00c8 00000000 		.word	.LANCHOR1
 1403 00cc 00000000 		.word	.LANCHOR0
 1404 00d0 00000000 		.word	.LANCHOR2
 1405 00d4 FFFF0000 		.word	65535
 1406 00d8 00000000 		.word	.LANCHOR3
 1407              		.cfi_endproc
 1408              	.LFE3:
 1409              		.size	action_tapping_process, .-action_tapping_process
 1410              		.section	.bss.tapping_key,"aw",%nobits
 1411              		.align	2
 1412              		.set	.LANCHOR3,. + 0
 1413              		.type	tapping_key, %object
 1414              		.size	tapping_key, 8
 1415              	tapping_key:
 1416 0000 00000000 		.space	8
 1416      00000000 
 1417              		.section	.bss.waiting_buffer,"aw",%nobits
 1418              		.align	2
 1419              		.set	.LANCHOR2,. + 0
 1420              		.type	waiting_buffer, %object
 1421              		.size	waiting_buffer, 64
 1422              	waiting_buffer:
 1423 0000 00000000 		.space	64
 1423      00000000 
ARM GAS  /var/folders/t8/16hdwfmd2fg_d3q6dgx6bpmw0000gn/T//cc7frsgN.s 			page 26


 1423      00000000 
 1423      00000000 
 1423      00000000 
 1424              		.section	.bss.waiting_buffer_head,"aw",%nobits
 1425              		.set	.LANCHOR1,. + 0
 1426              		.type	waiting_buffer_head, %object
 1427              		.size	waiting_buffer_head, 1
 1428              	waiting_buffer_head:
 1429 0000 00       		.space	1
 1430              		.section	.bss.waiting_buffer_tail,"aw",%nobits
 1431              		.set	.LANCHOR0,. + 0
 1432              		.type	waiting_buffer_tail, %object
 1433              		.size	waiting_buffer_tail, 1
 1434              	waiting_buffer_tail:
 1435 0000 00       		.space	1
 1436              		.text
 1437              	.Letext0:
 1438              		.file 3 "/usr/local/Caskroom/gcc-arm-embedded/7-2017-q4-major/gcc-arm-none-eabi-7-2017-q4-major/ar
 1439              		.file 4 "/usr/local/Caskroom/gcc-arm-embedded/7-2017-q4-major/gcc-arm-none-eabi-7-2017-q4-major/ar
 1440              		.file 5 "../../tmk_core/common/keycode.h"
 1441              		.file 6 "../../tmk_core/common/action_code.h"
 1442              		.file 7 "../../tmk_core/common/action.h"
 1443              		.file 8 "../../tmk_core/common/action_layer.h"
 1444              		.file 9 "../../tmk_core/common/timer.h"
 1445              		.file 10 "../../tmk_core/common/debug.h"
 1446              		.file 11 "<built-in>"