ARM GAS  /var/folders/t8/16hdwfmd2fg_d3q6dgx6bpmw0000gn/T//ccPcbImP.s 			page 1


   1              		.cpu cortex-m0plus
   2              		.eabi_attribute 20, 1
   3              		.eabi_attribute 21, 1
   4              		.eabi_attribute 23, 3
   5              		.eabi_attribute 24, 1
   6              		.eabi_attribute 25, 1
   7              		.eabi_attribute 26, 1
   8              		.eabi_attribute 30, 2
   9              		.eabi_attribute 34, 0
  10              		.eabi_attribute 18, 4
  11              		.file	"action_util.c"
  12              		.text
  13              	.Ltext0:
  14              		.cfi_sections	.debug_frame
  15              		.section	.text.send_keyboard_report,"ax",%progbits
  16              		.align	1
  17              		.p2align 4,,15
  18              		.global	send_keyboard_report
  19              		.syntax unified
  20              		.code	16
  21              		.thumb_func
  22              		.fpu softvfp
  23              		.type	send_keyboard_report, %function
  24              	send_keyboard_report:
  25              	.LFB174:
  26              		.file 1 "../../tmk_core/common/action_util.c"
  27              		.loc 1 55 0
  28              		.cfi_startproc
  29              		@ args = 0, pretend = 0, frame = 0
  30              		@ frame_needed = 0, uses_anonymous_args = 0
  31 0000 70B5     		push	{r4, r5, r6, lr}
  32              		.cfi_def_cfa_offset 16
  33              		.cfi_offset 4, -16
  34              		.cfi_offset 5, -12
  35              		.cfi_offset 6, -8
  36              		.cfi_offset 14, -4
  37              		.loc 1 56 0
  38 0002 114B     		ldr	r3, .L15
  39              		.loc 1 57 0
  40 0004 114A     		ldr	r2, .L15+4
  41              		.loc 1 56 0
  42 0006 1868     		ldr	r0, [r3]
  43              		.loc 1 57 0
  44 0008 114B     		ldr	r3, .L15+8
  45 000a 1278     		ldrb	r2, [r2]
  46 000c 1B78     		ldrb	r3, [r3]
  47              		.loc 1 59 0
  48 000e 114D     		ldr	r5, .L15+12
  49              		.loc 1 57 0
  50 0010 1343     		orrs	r3, r2
  51              		.loc 1 59 0
  52 0012 0022     		movs	r2, #0
  53              		.loc 1 57 0
  54 0014 0370     		strb	r3, [r0]
  55              		.loc 1 59 0
  56 0016 AA56     		ldrsb	r2, [r5, r2]
  57 0018 002A     		cmp	r2, #0
ARM GAS  /var/folders/t8/16hdwfmd2fg_d3q6dgx6bpmw0000gn/T//ccPcbImP.s 			page 2


  58 001a 11D0     		beq	.L3
  59 001c 0400     		movs	r4, r0
  60              		.loc 1 66 0
  61 001e 1343     		orrs	r3, r2
  62              	.LBB10:
  63              	.LBB11:
  64              		.loc 1 147 0
  65 0020 0022     		movs	r2, #0
  66              	.LBE11:
  67              	.LBE10:
  68              		.loc 1 66 0
  69 0022 0370     		strb	r3, [r0]
  70              	.LVL0:
  71 0024 1034     		adds	r4, r4, #16
  72 0026 431C     		adds	r3, r0, #1
  73              	.LVL1:
  74              	.L5:
  75              	.LBB14:
  76              	.LBB13:
  77              	.LBB12:
  78              		.loc 1 149 0
  79 0028 1978     		ldrb	r1, [r3]
  80 002a 0029     		cmp	r1, #0
  81 002c 01D0     		beq	.L4
  82              		.loc 1 150 0
  83 002e 0132     		adds	r2, r2, #1
  84              	.LVL2:
  85 0030 D2B2     		uxtb	r2, r2
  86              	.LVL3:
  87              	.L4:
  88 0032 0133     		adds	r3, r3, #1
  89              	.LVL4:
  90              		.loc 1 148 0
  91 0034 A342     		cmp	r3, r4
  92 0036 F7D1     		bne	.L5
  93              	.LVL5:
  94              	.LBE12:
  95              	.LBE13:
  96              	.LBE14:
  97              		.loc 1 67 0
  98 0038 002A     		cmp	r2, #0
  99 003a 01D0     		beq	.L3
 100              	.LBB15:
 101              	.LBB16:
 102              		.loc 1 132 0
 103 003c 0023     		movs	r3, #0
 104 003e 2B70     		strb	r3, [r5]
 105              	.L3:
 106              	.LBE16:
 107              	.LBE15:
 108              		.loc 1 72 0
 109 0040 FFF7FEFF 		bl	host_keyboard_send
 110              	.LVL6:
 111              		.loc 1 73 0
 112              		@ sp needed
 113 0044 70BD     		pop	{r4, r5, r6, pc}
 114              	.L16:
ARM GAS  /var/folders/t8/16hdwfmd2fg_d3q6dgx6bpmw0000gn/T//ccPcbImP.s 			page 3


 115 0046 C046     		.align	2
 116              	.L15:
 117 0048 00000000 		.word	.LANCHOR0
 118 004c 00000000 		.word	.LANCHOR2
 119 0050 00000000 		.word	.LANCHOR1
 120 0054 00000000 		.word	.LANCHOR3
 121              		.cfi_endproc
 122              	.LFE174:
 123              		.size	send_keyboard_report, .-send_keyboard_report
 124              		.section	.text.add_key,"ax",%progbits
 125              		.align	1
 126              		.p2align 4,,15
 127              		.global	add_key
 128              		.syntax unified
 129              		.code	16
 130              		.thumb_func
 131              		.fpu softvfp
 132              		.type	add_key, %function
 133              	add_key:
 134              	.LFB175:
 135              		.loc 1 77 0
 136              		.cfi_startproc
 137              		@ args = 0, pretend = 0, frame = 0
 138              		@ frame_needed = 0, uses_anonymous_args = 0
 139              	.LVL7:
 140 0000 70B5     		push	{r4, r5, r6, lr}
 141              		.cfi_def_cfa_offset 16
 142              		.cfi_offset 4, -16
 143              		.cfi_offset 5, -12
 144              		.cfi_offset 6, -8
 145              		.cfi_offset 14, -4
 146              		.loc 1 79 0
 147 0002 1F4B     		ldr	r3, .L39
 148 0004 1B78     		ldrb	r3, [r3]
 149 0006 002B     		cmp	r3, #0
 150 0008 03D0     		beq	.L18
 151              		.loc 1 79 0 is_stmt 0 discriminator 1
 152 000a 1E4B     		ldr	r3, .L39+4
 153 000c 1B78     		ldrb	r3, [r3]
 154 000e 002B     		cmp	r3, #0
 155 0010 1FD1     		bne	.L36
 156              	.L18:
 157              	.LBB21:
 158              	.LBB22:
 159              		.loc 1 238 0 is_stmt 1
 160 0012 0125     		movs	r5, #1
 161 0014 1C4B     		ldr	r3, .L39+8
 162 0016 6D42     		rsbs	r5, r5, #0
 163 0018 1968     		ldr	r1, [r3]
 164 001a 0023     		movs	r3, #0
 165 001c 8A1C     		adds	r2, r1, #2
 166 001e 05E0     		b	.L22
 167              	.LVL8:
 168              	.L21:
 169 0020 0133     		adds	r3, r3, #1
 170              	.LVL9:
 171 0022 DCB2     		uxtb	r4, r3
ARM GAS  /var/folders/t8/16hdwfmd2fg_d3q6dgx6bpmw0000gn/T//ccPcbImP.s 			page 4


 172              	.LVL10:
 173 0024 0132     		adds	r2, r2, #1
 174 0026 63B2     		sxtb	r3, r4
 175              		.loc 1 237 0
 176 0028 0E2C     		cmp	r4, #14
 177 002a 0DD0     		beq	.L37
 178              	.LVL11:
 179              	.L22:
 180              		.loc 1 238 0
 181 002c 1478     		ldrb	r4, [r2]
 182 002e A042     		cmp	r0, r4
 183 0030 0ED0     		beq	.L17
 184              		.loc 1 241 0
 185 0032 6E1C     		adds	r6, r5, #1
 186 0034 F4D1     		bne	.L21
 187 0036 002C     		cmp	r4, #0
 188 0038 F2D1     		bne	.L21
 189 003a 1D00     		movs	r5, r3
 190              	.LVL12:
 191 003c 0133     		adds	r3, r3, #1
 192              	.LVL13:
 193 003e DCB2     		uxtb	r4, r3
 194              	.LVL14:
 195 0040 0132     		adds	r2, r2, #1
 196 0042 63B2     		sxtb	r3, r4
 197              		.loc 1 237 0
 198 0044 0E2C     		cmp	r4, #14
 199 0046 F1D1     		bne	.L22
 200              	.L37:
 201              		.loc 1 246 0
 202 0048 6B1C     		adds	r3, r5, #1
 203 004a 01D0     		beq	.L17
 204              		.loc 1 247 0
 205 004c 4D19     		adds	r5, r1, r5
 206              	.LVL15:
 207 004e A870     		strb	r0, [r5, #2]
 208              	.LVL16:
 209              	.L17:
 210              	.LBE22:
 211              	.LBE21:
 212              		.loc 1 85 0
 213              		@ sp needed
 214 0050 70BD     		pop	{r4, r5, r6, pc}
 215              	.LVL17:
 216              	.L36:
 217              	.LBB23:
 218              	.LBB24:
 219              		.loc 1 292 0
 220 0052 C308     		lsrs	r3, r0, #3
 221 0054 0E2B     		cmp	r3, #14
 222 0056 08D9     		bls	.L38
 223              		.loc 1 295 0
 224 0058 0C4B     		ldr	r3, .L39+12
 225 005a 1B78     		ldrb	r3, [r3]
 226 005c DB07     		lsls	r3, r3, #31
 227 005e F7D5     		bpl	.L17
 228 0060 0100     		movs	r1, r0
ARM GAS  /var/folders/t8/16hdwfmd2fg_d3q6dgx6bpmw0000gn/T//ccPcbImP.s 			page 5


 229 0062 0B48     		ldr	r0, .L39+16
 230              	.LVL18:
 231 0064 FFF7FEFF 		bl	tfp_printf
 232              	.LVL19:
 233 0068 F2E7     		b	.L17
 234              	.LVL20:
 235              	.L38:
 236              		.loc 1 293 0
 237 006a 074A     		ldr	r2, .L39+8
 238 006c 0721     		movs	r1, #7
 239 006e 1268     		ldr	r2, [r2]
 240 0070 0840     		ands	r0, r1
 241              	.LVL21:
 242 0072 D218     		adds	r2, r2, r3
 243 0074 0123     		movs	r3, #1
 244 0076 8340     		lsls	r3, r3, r0
 245 0078 5178     		ldrb	r1, [r2, #1]
 246 007a 0B43     		orrs	r3, r1
 247 007c 5370     		strb	r3, [r2, #1]
 248 007e E7E7     		b	.L17
 249              	.L40:
 250              		.align	2
 251              	.L39:
 252 0080 00000000 		.word	keyboard_protocol
 253 0084 00000000 		.word	keyboard_nkro
 254 0088 00000000 		.word	.LANCHOR0
 255 008c 00000000 		.word	debug_config
 256 0090 00000000 		.word	.LC10
 257              	.LBE24:
 258              	.LBE23:
 259              		.cfi_endproc
 260              	.LFE175:
 261              		.size	add_key, .-add_key
 262              		.section	.text.del_key,"ax",%progbits
 263              		.align	1
 264              		.p2align 4,,15
 265              		.global	del_key
 266              		.syntax unified
 267              		.code	16
 268              		.thumb_func
 269              		.fpu softvfp
 270              		.type	del_key, %function
 271              	del_key:
 272              	.LFB176:
 273              		.loc 1 88 0
 274              		.cfi_startproc
 275              		@ args = 0, pretend = 0, frame = 0
 276              		@ frame_needed = 0, uses_anonymous_args = 0
 277              	.LVL22:
 278 0000 10B5     		push	{r4, lr}
 279              		.cfi_def_cfa_offset 8
 280              		.cfi_offset 4, -8
 281              		.cfi_offset 14, -4
 282              		.loc 1 90 0
 283 0002 164B     		ldr	r3, .L60
 284 0004 1B78     		ldrb	r3, [r3]
 285 0006 002B     		cmp	r3, #0
ARM GAS  /var/folders/t8/16hdwfmd2fg_d3q6dgx6bpmw0000gn/T//ccPcbImP.s 			page 6


 286 0008 03D0     		beq	.L42
 287              		.loc 1 90 0 is_stmt 0 discriminator 1
 288 000a 154B     		ldr	r3, .L60+4
 289 000c 1B78     		ldrb	r3, [r3]
 290 000e 002B     		cmp	r3, #0
 291 0010 0CD1     		bne	.L58
 292              	.L42:
 293              	.LBB29:
 294              	.LBB30:
 295              		.loc 1 283 0 is_stmt 1
 296 0012 0021     		movs	r1, #0
 297              		.loc 1 282 0
 298 0014 134B     		ldr	r3, .L60+8
 299 0016 1C68     		ldr	r4, [r3]
 300 0018 A31C     		adds	r3, r4, #2
 301 001a 1034     		adds	r4, r4, #16
 302              	.L47:
 303              	.LVL23:
 304 001c 1A78     		ldrb	r2, [r3]
 305 001e 8242     		cmp	r2, r0
 306 0020 00D1     		bne	.L46
 307              		.loc 1 283 0
 308 0022 1970     		strb	r1, [r3]
 309              	.L46:
 310              	.LVL24:
 311 0024 0133     		adds	r3, r3, #1
 312              	.LVL25:
 313              		.loc 1 281 0
 314 0026 A342     		cmp	r3, r4
 315 0028 F8D1     		bne	.L47
 316              	.LVL26:
 317              	.L41:
 318              	.LBE30:
 319              	.LBE29:
 320              		.loc 1 96 0
 321              		@ sp needed
 322 002a 10BD     		pop	{r4, pc}
 323              	.LVL27:
 324              	.L58:
 325              	.LBB31:
 326              	.LBB32:
 327              		.loc 1 301 0
 328 002c C308     		lsrs	r3, r0, #3
 329 002e 0E2B     		cmp	r3, #14
 330 0030 08D9     		bls	.L59
 331              		.loc 1 304 0
 332 0032 0D4B     		ldr	r3, .L60+12
 333 0034 1B78     		ldrb	r3, [r3]
 334 0036 DB07     		lsls	r3, r3, #31
 335 0038 F7D5     		bpl	.L41
 336 003a 0100     		movs	r1, r0
 337 003c 0B48     		ldr	r0, .L60+16
 338              	.LVL28:
 339 003e FFF7FEFF 		bl	tfp_printf
 340              	.LVL29:
 341 0042 F2E7     		b	.L41
 342              	.LVL30:
ARM GAS  /var/folders/t8/16hdwfmd2fg_d3q6dgx6bpmw0000gn/T//ccPcbImP.s 			page 7


 343              	.L59:
 344              		.loc 1 302 0
 345 0044 0721     		movs	r1, #7
 346 0046 0840     		ands	r0, r1
 347              	.LVL31:
 348 0048 0639     		subs	r1, r1, #6
 349 004a 8140     		lsls	r1, r1, r0
 350 004c 054A     		ldr	r2, .L60+8
 351 004e 1268     		ldr	r2, [r2]
 352 0050 D318     		adds	r3, r2, r3
 353 0052 5A78     		ldrb	r2, [r3, #1]
 354 0054 8A43     		bics	r2, r1
 355 0056 5A70     		strb	r2, [r3, #1]
 356 0058 E7E7     		b	.L41
 357              	.L61:
 358 005a C046     		.align	2
 359              	.L60:
 360 005c 00000000 		.word	keyboard_protocol
 361 0060 00000000 		.word	keyboard_nkro
 362 0064 00000000 		.word	.LANCHOR0
 363 0068 00000000 		.word	debug_config
 364 006c 00000000 		.word	.LC16
 365              	.LBE32:
 366              	.LBE31:
 367              		.cfi_endproc
 368              	.LFE176:
 369              		.size	del_key, .-del_key
 370              		.section	.text.clear_keys,"ax",%progbits
 371              		.align	1
 372              		.p2align 4,,15
 373              		.global	clear_keys
 374              		.syntax unified
 375              		.code	16
 376              		.thumb_func
 377              		.fpu softvfp
 378              		.type	clear_keys, %function
 379              	clear_keys:
 380              	.LFB177:
 381              		.loc 1 99 0
 382              		.cfi_startproc
 383              		@ args = 0, pretend = 0, frame = 0
 384              		@ frame_needed = 0, uses_anonymous_args = 0
 385              		@ link register save eliminated.
 386              	.LVL32:
 387              	.LBB33:
 388              		.loc 1 102 0
 389 0000 0021     		movs	r1, #0
 390 0002 044B     		ldr	r3, .L65
 391 0004 1A68     		ldr	r2, [r3]
 392 0006 531C     		adds	r3, r2, #1
 393 0008 1032     		adds	r2, r2, #16
 394              	.LVL33:
 395              	.L63:
 396              		.loc 1 102 0 is_stmt 0 discriminator 3
 397 000a 1970     		strb	r1, [r3]
 398              	.LVL34:
 399 000c 0133     		adds	r3, r3, #1
ARM GAS  /var/folders/t8/16hdwfmd2fg_d3q6dgx6bpmw0000gn/T//ccPcbImP.s 			page 8


 400              	.LVL35:
 401              		.loc 1 101 0 is_stmt 1 discriminator 3
 402 000e 9342     		cmp	r3, r2
 403 0010 FBD1     		bne	.L63
 404              	.LBE33:
 405              		.loc 1 104 0
 406              		@ sp needed
 407 0012 7047     		bx	lr
 408              	.L66:
 409              		.align	2
 410              	.L65:
 411 0014 00000000 		.word	.LANCHOR0
 412              		.cfi_endproc
 413              	.LFE177:
 414              		.size	clear_keys, .-clear_keys
 415              		.section	.text.get_mods,"ax",%progbits
 416              		.align	1
 417              		.p2align 4,,15
 418              		.global	get_mods
 419              		.syntax unified
 420              		.code	16
 421              		.thumb_func
 422              		.fpu softvfp
 423              		.type	get_mods, %function
 424              	get_mods:
 425              	.LFB178:
 426              		.loc 1 108 0
 427              		.cfi_startproc
 428              		@ args = 0, pretend = 0, frame = 0
 429              		@ frame_needed = 0, uses_anonymous_args = 0
 430              		@ link register save eliminated.
 431              		.loc 1 108 0
 432 0000 014B     		ldr	r3, .L68
 433              		@ sp needed
 434 0002 1878     		ldrb	r0, [r3]
 435 0004 7047     		bx	lr
 436              	.L69:
 437 0006 C046     		.align	2
 438              	.L68:
 439 0008 00000000 		.word	.LANCHOR1
 440              		.cfi_endproc
 441              	.LFE178:
 442              		.size	get_mods, .-get_mods
 443              		.section	.text.add_mods,"ax",%progbits
 444              		.align	1
 445              		.p2align 4,,15
 446              		.global	add_mods
 447              		.syntax unified
 448              		.code	16
 449              		.thumb_func
 450              		.fpu softvfp
 451              		.type	add_mods, %function
 452              	add_mods:
 453              	.LFB179:
 454              		.loc 1 109 0
 455              		.cfi_startproc
 456              		@ args = 0, pretend = 0, frame = 0
ARM GAS  /var/folders/t8/16hdwfmd2fg_d3q6dgx6bpmw0000gn/T//ccPcbImP.s 			page 9


 457              		@ frame_needed = 0, uses_anonymous_args = 0
 458              		@ link register save eliminated.
 459              	.LVL36:
 460              		.loc 1 109 0
 461 0000 024B     		ldr	r3, .L71
 462              		@ sp needed
 463 0002 1A78     		ldrb	r2, [r3]
 464 0004 1043     		orrs	r0, r2
 465              	.LVL37:
 466 0006 1870     		strb	r0, [r3]
 467 0008 7047     		bx	lr
 468              	.L72:
 469 000a C046     		.align	2
 470              	.L71:
 471 000c 00000000 		.word	.LANCHOR1
 472              		.cfi_endproc
 473              	.LFE179:
 474              		.size	add_mods, .-add_mods
 475              		.section	.text.del_mods,"ax",%progbits
 476              		.align	1
 477              		.p2align 4,,15
 478              		.global	del_mods
 479              		.syntax unified
 480              		.code	16
 481              		.thumb_func
 482              		.fpu softvfp
 483              		.type	del_mods, %function
 484              	del_mods:
 485              	.LFB180:
 486              		.loc 1 110 0
 487              		.cfi_startproc
 488              		@ args = 0, pretend = 0, frame = 0
 489              		@ frame_needed = 0, uses_anonymous_args = 0
 490              		@ link register save eliminated.
 491              	.LVL38:
 492              		.loc 1 110 0
 493 0000 024A     		ldr	r2, .L74
 494              		@ sp needed
 495 0002 1378     		ldrb	r3, [r2]
 496 0004 8343     		bics	r3, r0
 497 0006 1370     		strb	r3, [r2]
 498 0008 7047     		bx	lr
 499              	.L75:
 500 000a C046     		.align	2
 501              	.L74:
 502 000c 00000000 		.word	.LANCHOR1
 503              		.cfi_endproc
 504              	.LFE180:
 505              		.size	del_mods, .-del_mods
 506              		.section	.text.set_mods,"ax",%progbits
 507              		.align	1
 508              		.p2align 4,,15
 509              		.global	set_mods
 510              		.syntax unified
 511              		.code	16
 512              		.thumb_func
 513              		.fpu softvfp
ARM GAS  /var/folders/t8/16hdwfmd2fg_d3q6dgx6bpmw0000gn/T//ccPcbImP.s 			page 10


 514              		.type	set_mods, %function
 515              	set_mods:
 516              	.LFB181:
 517              		.loc 1 111 0
 518              		.cfi_startproc
 519              		@ args = 0, pretend = 0, frame = 0
 520              		@ frame_needed = 0, uses_anonymous_args = 0
 521              		@ link register save eliminated.
 522              	.LVL39:
 523              		.loc 1 111 0
 524 0000 014B     		ldr	r3, .L77
 525              		@ sp needed
 526 0002 1870     		strb	r0, [r3]
 527 0004 7047     		bx	lr
 528              	.L78:
 529 0006 C046     		.align	2
 530              	.L77:
 531 0008 00000000 		.word	.LANCHOR1
 532              		.cfi_endproc
 533              	.LFE181:
 534              		.size	set_mods, .-set_mods
 535              		.section	.text.clear_mods,"ax",%progbits
 536              		.align	1
 537              		.p2align 4,,15
 538              		.global	clear_mods
 539              		.syntax unified
 540              		.code	16
 541              		.thumb_func
 542              		.fpu softvfp
 543              		.type	clear_mods, %function
 544              	clear_mods:
 545              	.LFB182:
 546              		.loc 1 112 0
 547              		.cfi_startproc
 548              		@ args = 0, pretend = 0, frame = 0
 549              		@ frame_needed = 0, uses_anonymous_args = 0
 550              		@ link register save eliminated.
 551              		.loc 1 112 0
 552 0000 0022     		movs	r2, #0
 553 0002 014B     		ldr	r3, .L80
 554              		@ sp needed
 555 0004 1A70     		strb	r2, [r3]
 556 0006 7047     		bx	lr
 557              	.L81:
 558              		.align	2
 559              	.L80:
 560 0008 00000000 		.word	.LANCHOR1
 561              		.cfi_endproc
 562              	.LFE182:
 563              		.size	clear_mods, .-clear_mods
 564              		.section	.text.get_weak_mods,"ax",%progbits
 565              		.align	1
 566              		.p2align 4,,15
 567              		.global	get_weak_mods
 568              		.syntax unified
 569              		.code	16
 570              		.thumb_func
ARM GAS  /var/folders/t8/16hdwfmd2fg_d3q6dgx6bpmw0000gn/T//ccPcbImP.s 			page 11


 571              		.fpu softvfp
 572              		.type	get_weak_mods, %function
 573              	get_weak_mods:
 574              	.LFB183:
 575              		.loc 1 115 0
 576              		.cfi_startproc
 577              		@ args = 0, pretend = 0, frame = 0
 578              		@ frame_needed = 0, uses_anonymous_args = 0
 579              		@ link register save eliminated.
 580              		.loc 1 115 0
 581 0000 014B     		ldr	r3, .L83
 582              		@ sp needed
 583 0002 1878     		ldrb	r0, [r3]
 584 0004 7047     		bx	lr
 585              	.L84:
 586 0006 C046     		.align	2
 587              	.L83:
 588 0008 00000000 		.word	.LANCHOR2
 589              		.cfi_endproc
 590              	.LFE183:
 591              		.size	get_weak_mods, .-get_weak_mods
 592              		.section	.text.add_weak_mods,"ax",%progbits
 593              		.align	1
 594              		.p2align 4,,15
 595              		.global	add_weak_mods
 596              		.syntax unified
 597              		.code	16
 598              		.thumb_func
 599              		.fpu softvfp
 600              		.type	add_weak_mods, %function
 601              	add_weak_mods:
 602              	.LFB184:
 603              		.loc 1 116 0
 604              		.cfi_startproc
 605              		@ args = 0, pretend = 0, frame = 0
 606              		@ frame_needed = 0, uses_anonymous_args = 0
 607              		@ link register save eliminated.
 608              	.LVL40:
 609              		.loc 1 116 0
 610 0000 024B     		ldr	r3, .L86
 611              		@ sp needed
 612 0002 1A78     		ldrb	r2, [r3]
 613 0004 1043     		orrs	r0, r2
 614              	.LVL41:
 615 0006 1870     		strb	r0, [r3]
 616 0008 7047     		bx	lr
 617              	.L87:
 618 000a C046     		.align	2
 619              	.L86:
 620 000c 00000000 		.word	.LANCHOR2
 621              		.cfi_endproc
 622              	.LFE184:
 623              		.size	add_weak_mods, .-add_weak_mods
 624              		.section	.text.del_weak_mods,"ax",%progbits
 625              		.align	1
 626              		.p2align 4,,15
 627              		.global	del_weak_mods
ARM GAS  /var/folders/t8/16hdwfmd2fg_d3q6dgx6bpmw0000gn/T//ccPcbImP.s 			page 12


 628              		.syntax unified
 629              		.code	16
 630              		.thumb_func
 631              		.fpu softvfp
 632              		.type	del_weak_mods, %function
 633              	del_weak_mods:
 634              	.LFB185:
 635              		.loc 1 117 0
 636              		.cfi_startproc
 637              		@ args = 0, pretend = 0, frame = 0
 638              		@ frame_needed = 0, uses_anonymous_args = 0
 639              		@ link register save eliminated.
 640              	.LVL42:
 641              		.loc 1 117 0
 642 0000 024A     		ldr	r2, .L89
 643              		@ sp needed
 644 0002 1378     		ldrb	r3, [r2]
 645 0004 8343     		bics	r3, r0
 646 0006 1370     		strb	r3, [r2]
 647 0008 7047     		bx	lr
 648              	.L90:
 649 000a C046     		.align	2
 650              	.L89:
 651 000c 00000000 		.word	.LANCHOR2
 652              		.cfi_endproc
 653              	.LFE185:
 654              		.size	del_weak_mods, .-del_weak_mods
 655              		.section	.text.set_weak_mods,"ax",%progbits
 656              		.align	1
 657              		.p2align 4,,15
 658              		.global	set_weak_mods
 659              		.syntax unified
 660              		.code	16
 661              		.thumb_func
 662              		.fpu softvfp
 663              		.type	set_weak_mods, %function
 664              	set_weak_mods:
 665              	.LFB186:
 666              		.loc 1 118 0
 667              		.cfi_startproc
 668              		@ args = 0, pretend = 0, frame = 0
 669              		@ frame_needed = 0, uses_anonymous_args = 0
 670              		@ link register save eliminated.
 671              	.LVL43:
 672              		.loc 1 118 0
 673 0000 014B     		ldr	r3, .L92
 674              		@ sp needed
 675 0002 1870     		strb	r0, [r3]
 676 0004 7047     		bx	lr
 677              	.L93:
 678 0006 C046     		.align	2
 679              	.L92:
 680 0008 00000000 		.word	.LANCHOR2
 681              		.cfi_endproc
 682              	.LFE186:
 683              		.size	set_weak_mods, .-set_weak_mods
 684              		.section	.text.clear_weak_mods,"ax",%progbits
ARM GAS  /var/folders/t8/16hdwfmd2fg_d3q6dgx6bpmw0000gn/T//ccPcbImP.s 			page 13


 685              		.align	1
 686              		.p2align 4,,15
 687              		.global	clear_weak_mods
 688              		.syntax unified
 689              		.code	16
 690              		.thumb_func
 691              		.fpu softvfp
 692              		.type	clear_weak_mods, %function
 693              	clear_weak_mods:
 694              	.LFB187:
 695              		.loc 1 119 0
 696              		.cfi_startproc
 697              		@ args = 0, pretend = 0, frame = 0
 698              		@ frame_needed = 0, uses_anonymous_args = 0
 699              		@ link register save eliminated.
 700              		.loc 1 119 0
 701 0000 0022     		movs	r2, #0
 702 0002 014B     		ldr	r3, .L95
 703              		@ sp needed
 704 0004 1A70     		strb	r2, [r3]
 705 0006 7047     		bx	lr
 706              	.L96:
 707              		.align	2
 708              	.L95:
 709 0008 00000000 		.word	.LANCHOR2
 710              		.cfi_endproc
 711              	.LFE187:
 712              		.size	clear_weak_mods, .-clear_weak_mods
 713              		.section	.text.set_oneshot_mods,"ax",%progbits
 714              		.align	1
 715              		.p2align 4,,15
 716              		.global	set_oneshot_mods
 717              		.syntax unified
 718              		.code	16
 719              		.thumb_func
 720              		.fpu softvfp
 721              		.type	set_oneshot_mods, %function
 722              	set_oneshot_mods:
 723              	.LFB188:
 724              		.loc 1 124 0
 725              		.cfi_startproc
 726              		@ args = 0, pretend = 0, frame = 0
 727              		@ frame_needed = 0, uses_anonymous_args = 0
 728              		@ link register save eliminated.
 729              	.LVL44:
 730              		.loc 1 125 0
 731 0000 014B     		ldr	r3, .L98
 732              		.loc 1 129 0
 733              		@ sp needed
 734              		.loc 1 125 0
 735 0002 1870     		strb	r0, [r3]
 736              		.loc 1 129 0
 737 0004 7047     		bx	lr
 738              	.L99:
 739 0006 C046     		.align	2
 740              	.L98:
 741 0008 00000000 		.word	.LANCHOR3
ARM GAS  /var/folders/t8/16hdwfmd2fg_d3q6dgx6bpmw0000gn/T//ccPcbImP.s 			page 14


 742              		.cfi_endproc
 743              	.LFE188:
 744              		.size	set_oneshot_mods, .-set_oneshot_mods
 745              		.section	.text.clear_oneshot_mods,"ax",%progbits
 746              		.align	1
 747              		.p2align 4,,15
 748              		.global	clear_oneshot_mods
 749              		.syntax unified
 750              		.code	16
 751              		.thumb_func
 752              		.fpu softvfp
 753              		.type	clear_oneshot_mods, %function
 754              	clear_oneshot_mods:
 755              	.LFB189:
 756              		.loc 1 131 0
 757              		.cfi_startproc
 758              		@ args = 0, pretend = 0, frame = 0
 759              		@ frame_needed = 0, uses_anonymous_args = 0
 760              		@ link register save eliminated.
 761              		.loc 1 132 0
 762 0000 0022     		movs	r2, #0
 763 0002 014B     		ldr	r3, .L101
 764              		.loc 1 136 0
 765              		@ sp needed
 766              		.loc 1 132 0
 767 0004 1A70     		strb	r2, [r3]
 768              		.loc 1 136 0
 769 0006 7047     		bx	lr
 770              	.L102:
 771              		.align	2
 772              	.L101:
 773 0008 00000000 		.word	.LANCHOR3
 774              		.cfi_endproc
 775              	.LFE189:
 776              		.size	clear_oneshot_mods, .-clear_oneshot_mods
 777              		.section	.text.has_anykey,"ax",%progbits
 778              		.align	1
 779              		.p2align 4,,15
 780              		.global	has_anykey
 781              		.syntax unified
 782              		.code	16
 783              		.thumb_func
 784              		.fpu softvfp
 785              		.type	has_anykey, %function
 786              	has_anykey:
 787              	.LFB190:
 788              		.loc 1 146 0
 789              		.cfi_startproc
 790              		@ args = 0, pretend = 0, frame = 0
 791              		@ frame_needed = 0, uses_anonymous_args = 0
 792              		@ link register save eliminated.
 793              	.LVL45:
 794              		.loc 1 147 0
 795 0000 0020     		movs	r0, #0
 796              	.LBB34:
 797              		.loc 1 149 0
 798 0002 064B     		ldr	r3, .L110
ARM GAS  /var/folders/t8/16hdwfmd2fg_d3q6dgx6bpmw0000gn/T//ccPcbImP.s 			page 15


 799 0004 1968     		ldr	r1, [r3]
 800 0006 4B1C     		adds	r3, r1, #1
 801 0008 1031     		adds	r1, r1, #16
 802              	.LVL46:
 803              	.L105:
 804 000a 1A78     		ldrb	r2, [r3]
 805 000c 002A     		cmp	r2, #0
 806 000e 01D0     		beq	.L104
 807              		.loc 1 150 0
 808 0010 0130     		adds	r0, r0, #1
 809              	.LVL47:
 810 0012 C0B2     		uxtb	r0, r0
 811              	.LVL48:
 812              	.L104:
 813 0014 0133     		adds	r3, r3, #1
 814              	.LVL49:
 815              		.loc 1 148 0 discriminator 2
 816 0016 8B42     		cmp	r3, r1
 817 0018 F7D1     		bne	.L105
 818              	.LBE34:
 819              		.loc 1 153 0
 820              		@ sp needed
 821 001a 7047     		bx	lr
 822              	.L111:
 823              		.align	2
 824              	.L110:
 825 001c 00000000 		.word	.LANCHOR0
 826              		.cfi_endproc
 827              	.LFE190:
 828              		.size	has_anykey, .-has_anykey
 829              		.section	.text.has_anymod,"ax",%progbits
 830              		.align	1
 831              		.p2align 4,,15
 832              		.global	has_anymod
 833              		.syntax unified
 834              		.code	16
 835              		.thumb_func
 836              		.fpu softvfp
 837              		.type	has_anymod, %function
 838              	has_anymod:
 839              	.LFB191:
 840              		.loc 1 156 0
 841              		.cfi_startproc
 842              		@ args = 0, pretend = 0, frame = 0
 843              		@ frame_needed = 0, uses_anonymous_args = 0
 844 0000 10B5     		push	{r4, lr}
 845              		.cfi_def_cfa_offset 8
 846              		.cfi_offset 4, -8
 847              		.cfi_offset 14, -4
 848              		.loc 1 157 0
 849 0002 024B     		ldr	r3, .L113
 850              		.loc 1 158 0
 851              		@ sp needed
 852              		.loc 1 157 0
 853 0004 1878     		ldrb	r0, [r3]
 854 0006 FFF7FEFF 		bl	bitpop
 855              	.LVL50:
ARM GAS  /var/folders/t8/16hdwfmd2fg_d3q6dgx6bpmw0000gn/T//ccPcbImP.s 			page 16


 856              		.loc 1 158 0
 857 000a 10BD     		pop	{r4, pc}
 858              	.L114:
 859              		.align	2
 860              	.L113:
 861 000c 00000000 		.word	.LANCHOR1
 862              		.cfi_endproc
 863              	.LFE191:
 864              		.size	has_anymod, .-has_anymod
 865              		.section	.text.get_first_key,"ax",%progbits
 866              		.align	1
 867              		.p2align 4,,15
 868              		.global	get_first_key
 869              		.syntax unified
 870              		.code	16
 871              		.thumb_func
 872              		.fpu softvfp
 873              		.type	get_first_key, %function
 874              	get_first_key:
 875              	.LFB192:
 876              		.loc 1 161 0
 877              		.cfi_startproc
 878              		@ args = 0, pretend = 0, frame = 0
 879              		@ frame_needed = 0, uses_anonymous_args = 0
 880 0000 10B5     		push	{r4, lr}
 881              		.cfi_def_cfa_offset 8
 882              		.cfi_offset 4, -8
 883              		.cfi_offset 14, -4
 884 0002 0F4B     		ldr	r3, .L127
 885 0004 1A68     		ldr	r2, [r3]
 886              		.loc 1 163 0
 887 0006 0F4B     		ldr	r3, .L127+4
 888 0008 1B78     		ldrb	r3, [r3]
 889 000a 002B     		cmp	r3, #0
 890 000c 13D0     		beq	.L116
 891              		.loc 1 163 0 is_stmt 0 discriminator 1
 892 000e 0E4B     		ldr	r3, .L127+8
 893 0010 1B78     		ldrb	r3, [r3]
 894 0012 002B     		cmp	r3, #0
 895 0014 0FD0     		beq	.L116
 896 0016 0023     		movs	r3, #0
 897 0018 02E0     		b	.L117
 898              	.LVL51:
 899              	.L119:
 900 001a 0133     		adds	r3, r3, #1
 901              	.LVL52:
 902              	.LBB35:
 903              		.loc 1 165 0 is_stmt 1 discriminator 3
 904 001c 0F2B     		cmp	r3, #15
 905 001e 0CD0     		beq	.L126
 906              	.L117:
 907              	.LVL53:
 908              		.loc 1 165 0 is_stmt 0 discriminator 2
 909 0020 D118     		adds	r1, r2, r3
 910 0022 4878     		ldrb	r0, [r1, #1]
 911 0024 0028     		cmp	r0, #0
 912 0026 F8D0     		beq	.L119
ARM GAS  /var/folders/t8/16hdwfmd2fg_d3q6dgx6bpmw0000gn/T//ccPcbImP.s 			page 17


 913 0028 DB00     		lsls	r3, r3, #3
 914              	.LVL54:
 915 002a 5CB2     		sxtb	r4, r3
 916              	.L118:
 917              		.loc 1 167 0 is_stmt 1
 918 002c FFF7FEFF 		bl	biton
 919              	.LVL55:
 920 0030 2043     		orrs	r0, r4
 921 0032 C0B2     		uxtb	r0, r0
 922 0034 00E0     		b	.L120
 923              	.L116:
 924              	.LBE35:
 925              		.loc 1 180 0
 926 0036 9078     		ldrb	r0, [r2, #2]
 927              	.L120:
 928              		.loc 1 182 0
 929              		@ sp needed
 930 0038 10BD     		pop	{r4, pc}
 931              	.L126:
 932 003a 107C     		ldrb	r0, [r2, #16]
 933              	.LBB36:
 934              		.loc 1 165 0
 935 003c 7824     		movs	r4, #120
 936 003e F5E7     		b	.L118
 937              	.L128:
 938              		.align	2
 939              	.L127:
 940 0040 00000000 		.word	.LANCHOR0
 941 0044 00000000 		.word	keyboard_protocol
 942 0048 00000000 		.word	keyboard_nkro
 943              	.LBE36:
 944              		.cfi_endproc
 945              	.LFE192:
 946              		.size	get_first_key, .-get_first_key
 947              		.global	keyboard_report
 948              		.section	.bss.__compound_literal.0,"aw",%nobits
 949              		.align	2
 950              		.type	__compound_literal.0, %object
 951              		.size	__compound_literal.0, 16
 952              	__compound_literal.0:
 953 0000 00000000 		.space	16
 953      00000000 
 953      00000000 
 953      00000000 
 954              		.section	.bss.oneshot_mods,"aw",%nobits
 955              		.set	.LANCHOR3,. + 0
 956              		.type	oneshot_mods, %object
 957              		.size	oneshot_mods, 1
 958              	oneshot_mods:
 959 0000 00       		.space	1
 960              		.section	.bss.real_mods,"aw",%nobits
 961              		.set	.LANCHOR1,. + 0
 962              		.type	real_mods, %object
 963              		.size	real_mods, 1
 964              	real_mods:
 965 0000 00       		.space	1
 966              		.section	.bss.weak_mods,"aw",%nobits
ARM GAS  /var/folders/t8/16hdwfmd2fg_d3q6dgx6bpmw0000gn/T//ccPcbImP.s 			page 18


 967              		.set	.LANCHOR2,. + 0
 968              		.type	weak_mods, %object
 969              		.size	weak_mods, 1
 970              	weak_mods:
 971 0000 00       		.space	1
 972              		.section	.data.keyboard_report,"aw",%progbits
 973              		.align	2
 974              		.set	.LANCHOR0,. + 0
 975              		.type	keyboard_report, %object
 976              		.size	keyboard_report, 4
 977              	keyboard_report:
 978 0000 00000000 		.word	__compound_literal.0
 979              		.section	.rodata.add_key.str1.4,"aMS",%progbits,1
 980              		.align	2
 981              	.LC10:
 982 0000 6164645F 		.ascii	"add_key_bit: can't add: %02X\012\000"
 982      6B65795F 
 982      6269743A 
 982      2063616E 
 982      27742061 
 983              		.section	.rodata.del_key.str1.4,"aMS",%progbits,1
 984              		.align	2
 985              	.LC16:
 986 0000 64656C5F 		.ascii	"del_key_bit: can't del: %02X\012\000"
 986      6B65795F 
 986      6269743A 
 986      2063616E 
 986      27742064 
 987              		.text
 988              	.Letext0:
 989              		.file 2 "/usr/local/Caskroom/gcc-arm-embedded/7-2017-q4-major/gcc-arm-none-eabi-7-2017-q4-major/ar
 990              		.file 3 "/usr/local/Caskroom/gcc-arm-embedded/7-2017-q4-major/gcc-arm-none-eabi-7-2017-q4-major/ar
 991              		.file 4 "/usr/local/Caskroom/gcc-arm-embedded/7-2017-q4-major/gcc-arm-none-eabi-7-2017-q4-major/li
 992              		.file 5 "../../tmk_core/tool/chibios/ChibiOS/os/common/ports/ARMCMx/compilers/GCC/chtypes.h"
 993              		.file 6 "../../tmk_core/tool/chibios/ChibiOS/os/rt/include/chsystypes.h"
 994              		.file 7 "../../tmk_core/tool/chibios/ChibiOS/os/rt/include/chschd.h"
 995              		.file 8 "../../tmk_core/tool/chibios/ChibiOS-Contrib/os/common/ext/CMSIS/KINETIS/kl2xz.h"
 996              		.file 9 "../../tmk_core/tool/chibios/ChibiOS/os/common/ports/ARMCMx/chcore.h"
 997              		.file 10 "../../tmk_core/tool/chibios/ChibiOS/os/common/ports/ARMCMx/chcore_v6m.h"
 998              		.file 11 "../../tmk_core/tool/chibios/ChibiOS/os/rt/include/chsem.h"
 999              		.file 12 "../../tmk_core/tool/chibios/ChibiOS/os/rt/include/chmtx.h"
 1000              		.file 13 "../../tmk_core/tool/chibios/ChibiOS/os/rt/include/chregistry.h"
 1001              		.file 14 "../../tmk_core/tool/chibios/ChibiOS/os/rt/include/chsys.h"
 1002              		.file 15 "../../tmk_core/tool/chibios/ChibiOS-Contrib/os/hal/ports/KINETIS/LLD/hal_pal_lld.h"
 1003              		.file 16 "../../tmk_core/tool/chibios/ChibiOS/os/hal/include/hal_usb.h"
 1004              		.file 17 "../../tmk_core/tool/chibios/ChibiOS-Contrib/os/hal/ports/KINETIS/LLD/hal_usb_lld.h"
 1005              		.file 18 "../../tmk_core/common/report.h"
 1006              		.file 19 "../../tmk_core/common/host.h"
 1007              		.file 20 "../../tmk_core/common/debug.h"
 1008              		.file 21 "../../tmk_core/common/action_util.h"
 1009              		.file 22 "../../tmk_core/common/timer.h"
 1010              		.file 23 "../../tmk_core/common/util.h"
 1011              		.file 24 "../../tmk_core/common/chibios/printf.h"