ARM GAS  /var/folders/t8/16hdwfmd2fg_d3q6dgx6bpmw0000gn/T//ccvlLN3N.s 			page 1


   1              		.cpu cortex-m0plus
   2              		.eabi_attribute 20, 1
   3              		.eabi_attribute 21, 1
   4              		.eabi_attribute 23, 3
   5              		.eabi_attribute 24, 1
   6              		.eabi_attribute 25, 1
   7              		.eabi_attribute 26, 1
   8              		.eabi_attribute 30, 2
   9              		.eabi_attribute 34, 0
  10              		.eabi_attribute 18, 4
  11              		.file	"action.c"
  12              		.text
  13              	.Ltext0:
  14              		.cfi_sections	.debug_frame
  15              		.section	.text.action_exec,"ax",%progbits
  16              		.align	1
  17              		.p2align 4,,15
  18              		.global	action_exec
  19              		.syntax unified
  20              		.code	16
  21              		.thumb_func
  22              		.fpu softvfp
  23              		.type	action_exec, %function
  24              	action_exec:
  25              	.LFB177:
  26              		.file 1 "../../tmk_core/common/action.c"
  27              		.loc 1 40 0
  28              		.cfi_startproc
  29              		@ args = 0, pretend = 0, frame = 24
  30              		@ frame_needed = 0, uses_anonymous_args = 0
  31 0000 00B5     		push	{lr}
  32              		.cfi_def_cfa_offset 4
  33              		.cfi_offset 14, -4
  34 0002 87B0     		sub	sp, sp, #28
  35              		.cfi_def_cfa_offset 32
  36              		.loc 1 40 0
  37 0004 0191     		str	r1, [sp, #4]
  38 0006 8BB2     		uxth	r3, r1
  39              	.LVL0:
  40 0008 6946     		mov	r1, sp
  41 000a 0090     		str	r0, [sp]
  42 000c 8881     		strh	r0, [r1, #12]
  43              	.LBB40:
  44              	.LBB41:
  45              		.file 2 "../../tmk_core/common/keyboard.h"
  46              		.loc 2 49 0
  47 000e 002B     		cmp	r3, #0
  48 0010 07D0     		beq	.L2
  49 0012 0B4B     		ldr	r3, .L9
  50              	.LVL1:
  51 0014 82B2     		uxth	r2, r0
  52 0016 9A42     		cmp	r2, r3
  53 0018 03D0     		beq	.L2
  54              	.LBE41:
  55              	.LBE40:
  56              		.loc 1 44 0
  57 001a 0098     		ldr	r0, [sp]
ARM GAS  /var/folders/t8/16hdwfmd2fg_d3q6dgx6bpmw0000gn/T//ccvlLN3N.s 			page 2


  58 001c 0199     		ldr	r1, [sp, #4]
  59 001e FFF7FEFF 		bl	hook_matrix_change
  60              	.LVL2:
  61              	.L2:
  62              		.loc 1 47 0
  63 0022 0022     		movs	r2, #0
  64 0024 04AB     		add	r3, sp, #16
  65 0026 DA80     		strh	r2, [r3, #6]
  66 0028 009A     		ldr	r2, [sp]
  67 002a 0492     		str	r2, [sp, #16]
  68 002c 6A46     		mov	r2, sp
  69 002e 9288     		ldrh	r2, [r2, #4]
  70 0030 9A80     		strh	r2, [r3, #4]
  71              		.loc 1 50 0
  72 0032 0098     		ldr	r0, [sp]
  73 0034 0599     		ldr	r1, [sp, #20]
  74 0036 FFF7FEFF 		bl	action_tapping_process
  75              	.LVL3:
  76              		.loc 1 57 0
  77 003a 07B0     		add	sp, sp, #28
  78              		@ sp needed
  79 003c 00BD     		pop	{pc}
  80              	.L10:
  81 003e C046     		.align	2
  82              	.L9:
  83 0040 FFFF0000 		.word	65535
  84              		.cfi_endproc
  85              	.LFE177:
  86              		.size	action_exec, .-action_exec
  87              		.section	.text.register_code,"ax",%progbits
  88              		.align	1
  89              		.p2align 4,,15
  90              		.global	register_code
  91              		.syntax unified
  92              		.code	16
  93              		.thumb_func
  94              		.fpu softvfp
  95              		.type	register_code, %function
  96              	register_code:
  97              	.LFB179:
  98              		.loc 1 360 0
  99              		.cfi_startproc
 100              		@ args = 0, pretend = 0, frame = 0
 101              		@ frame_needed = 0, uses_anonymous_args = 0
 102              	.LVL4:
 103 0000 10B5     		push	{r4, lr}
 104              		.cfi_def_cfa_offset 8
 105              		.cfi_offset 4, -8
 106              		.cfi_offset 14, -4
 107              		.loc 1 360 0
 108 0002 041E     		subs	r4, r0, #0
 109              		.loc 1 361 0
 110 0004 1ED0     		beq	.L11
 111              		.loc 1 366 0
 112 0006 8228     		cmp	r0, #130
 113 0008 1DD0     		beq	.L46
 114              		.loc 1 378 0
ARM GAS  /var/folders/t8/16hdwfmd2fg_d3q6dgx6bpmw0000gn/T//ccvlLN3N.s 			page 3


 115 000a 8328     		cmp	r0, #131
 116 000c 37D0     		beq	.L47
 117              	.LVL5:
 118              	.LBB44:
 119              	.LBB45:
 120              		.loc 1 389 0
 121 000e 8428     		cmp	r0, #132
 122 0010 47D0     		beq	.L48
 123              		.loc 1 401 0
 124 0012 031F     		subs	r3, r0, #4
 125 0014 DBB2     		uxtb	r3, r3
 126 0016 A02B     		cmp	r3, #160
 127 0018 27D9     		bls	.L49
 128              		.loc 1 425 0
 129 001a 0300     		movs	r3, r0
 130 001c 2033     		adds	r3, r3, #32
 131 001e DBB2     		uxtb	r3, r3
 132 0020 072B     		cmp	r3, #7
 133 0022 00D8     		bhi	.LCB92
 134 0024 85E0     		b	.L50	@long jump
 135              	.LCB92:
 136              		.loc 1 429 0
 137 0026 0300     		movs	r3, r0
 138 0028 5B33     		adds	r3, r3, #91
 139 002a DBB2     		uxtb	r3, r3
 140 002c 022B     		cmp	r3, #2
 141 002e 4AD8     		bhi	.L20
 142              		.loc 1 430 0
 143 0030 A528     		cmp	r0, #165
 144 0032 00D1     		bne	.LCB99
 145 0034 87E0     		b	.L23	@long jump
 146              	.LCB99:
 147 0036 A63C     		subs	r4, r4, #166
 148 0038 2000     		movs	r0, r4
 149              	.LVL6:
 150 003a 441E     		subs	r4, r0, #1
 151 003c A041     		sbcs	r0, r0, r4
 152 003e 8230     		adds	r0, r0, #130
 153              	.L21:
 154 0040 FFF7FEFF 		bl	host_system_send
 155              	.LVL7:
 156              	.L11:
 157              	.LBE45:
 158              	.LBE44:
 159              		.loc 1 435 0
 160              		@ sp needed
 161 0044 10BD     		pop	{r4, pc}
 162              	.LVL8:
 163              	.L46:
 164              		.loc 1 369 0
 165 0046 FFF7FEFF 		bl	host_keyboard_leds
 166              	.LVL9:
 167 004a 8307     		lsls	r3, r0, #30
 168 004c FAD4     		bmi	.L11
 169              		.loc 1 371 0
 170 004e 3920     		movs	r0, #57
 171 0050 FFF7FEFF 		bl	add_key
ARM GAS  /var/folders/t8/16hdwfmd2fg_d3q6dgx6bpmw0000gn/T//ccvlLN3N.s 			page 4


 172              	.LVL10:
 173              		.loc 1 372 0
 174 0054 FFF7FEFF 		bl	send_keyboard_report
 175              	.LVL11:
 176              		.loc 1 373 0
 177 0058 6420     		movs	r0, #100
 178 005a FFF7FEFF 		bl	chThdSleep
 179              	.LVL12:
 180              		.loc 1 374 0
 181 005e 3920     		movs	r0, #57
 182 0060 FFF7FEFF 		bl	del_key
 183              	.LVL13:
 184              		.loc 1 375 0
 185 0064 FFF7FEFF 		bl	send_keyboard_report
 186              	.LVL14:
 187 0068 ECE7     		b	.L11
 188              	.LVL15:
 189              	.L49:
 190              	.LBB48:
 191              	.LBB46:
 192              		.loc 1 403 0
 193 006a FFF7FEFF 		bl	command_proc
 194              	.LVL16:
 195 006e 0028     		cmp	r0, #0
 196 0070 E8D1     		bne	.L11
 197              		.loc 1 421 0
 198 0072 2000     		movs	r0, r4
 199 0074 FFF7FEFF 		bl	add_key
 200              	.LVL17:
 201              		.loc 1 422 0
 202 0078 FFF7FEFF 		bl	send_keyboard_report
 203              	.LVL18:
 204 007c E2E7     		b	.L11
 205              	.LVL19:
 206              	.L47:
 207              	.LBE46:
 208              	.LBE48:
 209              		.loc 1 380 0
 210 007e FFF7FEFF 		bl	host_keyboard_leds
 211              	.LVL20:
 212 0082 C307     		lsls	r3, r0, #31
 213 0084 DED4     		bmi	.L11
 214              		.loc 1 382 0
 215 0086 5320     		movs	r0, #83
 216 0088 FFF7FEFF 		bl	add_key
 217              	.LVL21:
 218              		.loc 1 383 0
 219 008c FFF7FEFF 		bl	send_keyboard_report
 220              	.LVL22:
 221              		.loc 1 384 0
 222 0090 6420     		movs	r0, #100
 223 0092 FFF7FEFF 		bl	chThdSleep
 224              	.LVL23:
 225              		.loc 1 385 0
 226 0096 5320     		movs	r0, #83
 227 0098 FFF7FEFF 		bl	del_key
 228              	.LVL24:
ARM GAS  /var/folders/t8/16hdwfmd2fg_d3q6dgx6bpmw0000gn/T//ccvlLN3N.s 			page 5


 229              		.loc 1 386 0
 230 009c FFF7FEFF 		bl	send_keyboard_report
 231              	.LVL25:
 232 00a0 D0E7     		b	.L11
 233              	.LVL26:
 234              	.L48:
 235              	.LBB49:
 236              	.LBB47:
 237              		.loc 1 391 0
 238 00a2 FFF7FEFF 		bl	host_keyboard_leds
 239              	.LVL27:
 240 00a6 4307     		lsls	r3, r0, #29
 241 00a8 CCD4     		bmi	.L11
 242              		.loc 1 393 0
 243 00aa 4720     		movs	r0, #71
 244 00ac FFF7FEFF 		bl	add_key
 245              	.LVL28:
 246              		.loc 1 394 0
 247 00b0 FFF7FEFF 		bl	send_keyboard_report
 248              	.LVL29:
 249              		.loc 1 395 0
 250 00b4 6420     		movs	r0, #100
 251 00b6 FFF7FEFF 		bl	chThdSleep
 252              	.LVL30:
 253              		.loc 1 396 0
 254 00ba 4720     		movs	r0, #71
 255 00bc FFF7FEFF 		bl	del_key
 256              	.LVL31:
 257              		.loc 1 397 0
 258 00c0 FFF7FEFF 		bl	send_keyboard_report
 259              	.LVL32:
 260 00c4 BEE7     		b	.L11
 261              	.LVL33:
 262              	.L20:
 263              		.loc 1 432 0
 264 00c6 0300     		movs	r3, r0
 265 00c8 5833     		adds	r3, r3, #88
 266 00ca DBB2     		uxtb	r3, r3
 267 00cc 142B     		cmp	r3, #20
 268 00ce B9D8     		bhi	.L11
 269              		.loc 1 433 0
 270 00d0 A828     		cmp	r0, #168
 271 00d2 3AD0     		beq	.L25
 272 00d4 A928     		cmp	r0, #169
 273 00d6 3AD0     		beq	.L26
 274 00d8 AA28     		cmp	r0, #170
 275 00da 3AD0     		beq	.L27
 276 00dc AB28     		cmp	r0, #171
 277 00de 3AD0     		beq	.L28
 278 00e0 AC28     		cmp	r0, #172
 279 00e2 3AD0     		beq	.L29
 280 00e4 AD28     		cmp	r0, #173
 281 00e6 3AD0     		beq	.L30
 282 00e8 AE28     		cmp	r0, #174
 283 00ea 3AD0     		beq	.L31
 284 00ec AF28     		cmp	r0, #175
 285 00ee 3AD0     		beq	.L32
ARM GAS  /var/folders/t8/16hdwfmd2fg_d3q6dgx6bpmw0000gn/T//ccvlLN3N.s 			page 6


 286 00f0 B128     		cmp	r0, #177
 287 00f2 3AD0     		beq	.L33
 288 00f4 B028     		cmp	r0, #176
 289 00f6 3AD0     		beq	.L34
 290 00f8 B228     		cmp	r0, #178
 291 00fa 3AD0     		beq	.L35
 292 00fc B328     		cmp	r0, #179
 293 00fe 3BD0     		beq	.L36
 294 0100 B428     		cmp	r0, #180
 295 0102 3FD0     		beq	.L37
 296 0104 B528     		cmp	r0, #181
 297 0106 3AD0     		beq	.L38
 298 0108 B628     		cmp	r0, #182
 299 010a 40D0     		beq	.L39
 300 010c B728     		cmp	r0, #183
 301 010e 3CD0     		beq	.L40
 302 0110 B828     		cmp	r0, #184
 303 0112 44D0     		beq	.L41
 304 0114 B928     		cmp	r0, #185
 305 0116 40D0     		beq	.L42
 306 0118 BA28     		cmp	r0, #186
 307 011a 3CD0     		beq	.L43
 308 011c BB28     		cmp	r0, #187
 309 011e 38D0     		beq	.L44
 310 0120 BC3C     		subs	r4, r4, #188
 311 0122 6042     		rsbs	r0, r4, #0
 312 0124 6041     		adcs	r0, r0, r4
 313              	.LVL34:
 314 0126 1F4B     		ldr	r3, .L51
 315 0128 4042     		rsbs	r0, r0, #0
 316 012a 1840     		ands	r0, r3
 317              	.L22:
 318 012c FFF7FEFF 		bl	host_consumer_send
 319              	.LVL35:
 320 0130 88E7     		b	.L11
 321              	.LVL36:
 322              	.L50:
 323              		.loc 1 426 0
 324 0132 0723     		movs	r3, #7
 325 0134 0120     		movs	r0, #1
 326              	.LVL37:
 327 0136 1C40     		ands	r4, r3
 328 0138 A040     		lsls	r0, r0, r4
 329 013a C0B2     		uxtb	r0, r0
 330 013c FFF7FEFF 		bl	add_mods
 331              	.LVL38:
 332              		.loc 1 427 0
 333 0140 FFF7FEFF 		bl	send_keyboard_report
 334              	.LVL39:
 335 0144 7EE7     		b	.L11
 336              	.LVL40:
 337              	.L23:
 338              		.loc 1 430 0
 339 0146 8120     		movs	r0, #129
 340              	.LVL41:
 341 0148 7AE7     		b	.L21
 342              	.LVL42:
ARM GAS  /var/folders/t8/16hdwfmd2fg_d3q6dgx6bpmw0000gn/T//ccvlLN3N.s 			page 7


 343              	.L25:
 344              		.loc 1 433 0
 345 014a E220     		movs	r0, #226
 346              	.LVL43:
 347 014c EEE7     		b	.L22
 348              	.LVL44:
 349              	.L26:
 350 014e E920     		movs	r0, #233
 351              	.LVL45:
 352 0150 ECE7     		b	.L22
 353              	.LVL46:
 354              	.L27:
 355 0152 EA20     		movs	r0, #234
 356              	.LVL47:
 357 0154 EAE7     		b	.L22
 358              	.LVL48:
 359              	.L28:
 360 0156 B520     		movs	r0, #181
 361              	.LVL49:
 362 0158 E8E7     		b	.L22
 363              	.LVL50:
 364              	.L29:
 365 015a B620     		movs	r0, #182
 366              	.LVL51:
 367 015c E6E7     		b	.L22
 368              	.LVL52:
 369              	.L30:
 370 015e B320     		movs	r0, #179
 371              	.LVL53:
 372 0160 E4E7     		b	.L22
 373              	.LVL54:
 374              	.L31:
 375 0162 B420     		movs	r0, #180
 376              	.LVL55:
 377 0164 E2E7     		b	.L22
 378              	.LVL56:
 379              	.L32:
 380 0166 B720     		movs	r0, #183
 381              	.LVL57:
 382 0168 E0E7     		b	.L22
 383              	.LVL58:
 384              	.L33:
 385 016a CC20     		movs	r0, #204
 386              	.LVL59:
 387 016c DEE7     		b	.L22
 388              	.LVL60:
 389              	.L34:
 390 016e CD20     		movs	r0, #205
 391              	.LVL61:
 392 0170 DCE7     		b	.L22
 393              	.LVL62:
 394              	.L35:
 395 0172 8420     		movs	r0, #132
 396              	.LVL63:
 397 0174 FF30     		adds	r0, r0, #255
 398 0176 D9E7     		b	.L22
 399              	.LVL64:
ARM GAS  /var/folders/t8/16hdwfmd2fg_d3q6dgx6bpmw0000gn/T//ccvlLN3N.s 			page 8


 400              	.L36:
 401 0178 C520     		movs	r0, #197
 402              	.LVL65:
 403 017a 4000     		lsls	r0, r0, #1
 404 017c D6E7     		b	.L22
 405              	.LVL66:
 406              	.L38:
 407 017e CA20     		movs	r0, #202
 408              	.LVL67:
 409 0180 4000     		lsls	r0, r0, #1
 410 0182 D3E7     		b	.L22
 411              	.LVL68:
 412              	.L37:
 413 0184 C920     		movs	r0, #201
 414              	.LVL69:
 415 0186 4000     		lsls	r0, r0, #1
 416 0188 D0E7     		b	.L22
 417              	.LVL70:
 418              	.L40:
 419 018a 0748     		ldr	r0, .L51+4
 420              	.LVL71:
 421 018c CEE7     		b	.L22
 422              	.LVL72:
 423              	.L39:
 424 018e 0748     		ldr	r0, .L51+8
 425              	.LVL73:
 426 0190 CCE7     		b	.L22
 427              	.LVL74:
 428              	.L44:
 429 0192 0748     		ldr	r0, .L51+12
 430              	.LVL75:
 431 0194 CAE7     		b	.L22
 432              	.LVL76:
 433              	.L43:
 434 0196 0748     		ldr	r0, .L51+16
 435              	.LVL77:
 436 0198 C8E7     		b	.L22
 437              	.LVL78:
 438              	.L42:
 439 019a 0748     		ldr	r0, .L51+20
 440              	.LVL79:
 441 019c C6E7     		b	.L22
 442              	.LVL80:
 443              	.L41:
 444 019e 8920     		movs	r0, #137
 445              	.LVL81:
 446 01a0 8000     		lsls	r0, r0, #2
 447 01a2 C3E7     		b	.L22
 448              	.L52:
 449              		.align	2
 450              	.L51:
 451 01a4 2A020000 		.word	554
 452 01a8 23020000 		.word	547
 453 01ac 21020000 		.word	545
 454 01b0 27020000 		.word	551
 455 01b4 26020000 		.word	550
 456 01b8 25020000 		.word	549
ARM GAS  /var/folders/t8/16hdwfmd2fg_d3q6dgx6bpmw0000gn/T//ccvlLN3N.s 			page 9


 457              	.LBE47:
 458              	.LBE49:
 459              		.cfi_endproc
 460              	.LFE179:
 461              		.size	register_code, .-register_code
 462              		.section	.text.unregister_code,"ax",%progbits
 463              		.align	1
 464              		.p2align 4,,15
 465              		.global	unregister_code
 466              		.syntax unified
 467              		.code	16
 468              		.thumb_func
 469              		.fpu softvfp
 470              		.type	unregister_code, %function
 471              	unregister_code:
 472              	.LFB180:
 473              		.loc 1 438 0
 474              		.cfi_startproc
 475              		@ args = 0, pretend = 0, frame = 0
 476              		@ frame_needed = 0, uses_anonymous_args = 0
 477              	.LVL82:
 478 0000 10B5     		push	{r4, lr}
 479              		.cfi_def_cfa_offset 8
 480              		.cfi_offset 4, -8
 481              		.cfi_offset 14, -4
 482              		.loc 1 439 0
 483 0002 0028     		cmp	r0, #0
 484 0004 17D0     		beq	.L53
 485              		.loc 1 444 0
 486 0006 8228     		cmp	r0, #130
 487 0008 16D0     		beq	.L72
 488              		.loc 1 456 0
 489 000a 8328     		cmp	r0, #131
 490 000c 2BD0     		beq	.L73
 491              	.LVL83:
 492              	.LBB52:
 493              	.LBB53:
 494              		.loc 1 467 0
 495 000e 8428     		cmp	r0, #132
 496 0010 3BD0     		beq	.L74
 497              		.loc 1 479 0
 498 0012 031F     		subs	r3, r0, #4
 499 0014 DBB2     		uxtb	r3, r3
 500 0016 A02B     		cmp	r3, #160
 501 0018 20D9     		bls	.L75
 502              		.loc 1 483 0
 503 001a 0300     		movs	r3, r0
 504 001c 2033     		adds	r3, r3, #32
 505 001e DBB2     		uxtb	r3, r3
 506 0020 072B     		cmp	r3, #7
 507 0022 44D9     		bls	.L76
 508              		.loc 1 487 0
 509 0024 0300     		movs	r3, r0
 510 0026 5B33     		adds	r3, r3, #91
 511 0028 DBB2     		uxtb	r3, r3
 512 002a 022B     		cmp	r3, #2
 513 002c 4DD9     		bls	.L77
ARM GAS  /var/folders/t8/16hdwfmd2fg_d3q6dgx6bpmw0000gn/T//ccvlLN3N.s 			page 10


 514              		.loc 1 490 0
 515 002e 5830     		adds	r0, r0, #88
 516              	.LVL84:
 517 0030 C0B2     		uxtb	r0, r0
 518 0032 1428     		cmp	r0, #20
 519 0034 45D9     		bls	.L78
 520              	.LVL85:
 521              	.L53:
 522              	.LBE53:
 523              	.LBE52:
 524              		.loc 1 493 0
 525              		@ sp needed
 526 0036 10BD     		pop	{r4, pc}
 527              	.LVL86:
 528              	.L72:
 529              		.loc 1 447 0
 530 0038 FFF7FEFF 		bl	host_keyboard_leds
 531              	.LVL87:
 532 003c 8307     		lsls	r3, r0, #30
 533 003e FAD5     		bpl	.L53
 534              		.loc 1 449 0
 535 0040 3920     		movs	r0, #57
 536 0042 FFF7FEFF 		bl	add_key
 537              	.LVL88:
 538              		.loc 1 450 0
 539 0046 FFF7FEFF 		bl	send_keyboard_report
 540              	.LVL89:
 541              		.loc 1 451 0
 542 004a 6420     		movs	r0, #100
 543 004c FFF7FEFF 		bl	chThdSleep
 544              	.LVL90:
 545              		.loc 1 452 0
 546 0050 3920     		movs	r0, #57
 547 0052 FFF7FEFF 		bl	del_key
 548              	.LVL91:
 549              		.loc 1 453 0
 550 0056 FFF7FEFF 		bl	send_keyboard_report
 551              	.LVL92:
 552 005a ECE7     		b	.L53
 553              	.LVL93:
 554              	.L75:
 555              	.LBB56:
 556              	.LBB54:
 557              		.loc 1 480 0
 558 005c FFF7FEFF 		bl	del_key
 559              	.LVL94:
 560              		.loc 1 481 0
 561 0060 FFF7FEFF 		bl	send_keyboard_report
 562              	.LVL95:
 563 0064 E7E7     		b	.L53
 564              	.LVL96:
 565              	.L73:
 566              	.LBE54:
 567              	.LBE56:
 568              		.loc 1 458 0
 569 0066 FFF7FEFF 		bl	host_keyboard_leds
 570              	.LVL97:
ARM GAS  /var/folders/t8/16hdwfmd2fg_d3q6dgx6bpmw0000gn/T//ccvlLN3N.s 			page 11


 571 006a C307     		lsls	r3, r0, #31
 572 006c E3D5     		bpl	.L53
 573              		.loc 1 460 0
 574 006e 5320     		movs	r0, #83
 575 0070 FFF7FEFF 		bl	add_key
 576              	.LVL98:
 577              		.loc 1 461 0
 578 0074 FFF7FEFF 		bl	send_keyboard_report
 579              	.LVL99:
 580              		.loc 1 462 0
 581 0078 6420     		movs	r0, #100
 582 007a FFF7FEFF 		bl	chThdSleep
 583              	.LVL100:
 584              		.loc 1 463 0
 585 007e 5320     		movs	r0, #83
 586 0080 FFF7FEFF 		bl	del_key
 587              	.LVL101:
 588              		.loc 1 464 0
 589 0084 FFF7FEFF 		bl	send_keyboard_report
 590              	.LVL102:
 591 0088 D5E7     		b	.L53
 592              	.LVL103:
 593              	.L74:
 594              	.LBB57:
 595              	.LBB55:
 596              		.loc 1 469 0
 597 008a FFF7FEFF 		bl	host_keyboard_leds
 598              	.LVL104:
 599 008e 4307     		lsls	r3, r0, #29
 600 0090 D1D5     		bpl	.L53
 601              		.loc 1 471 0
 602 0092 4720     		movs	r0, #71
 603 0094 FFF7FEFF 		bl	add_key
 604              	.LVL105:
 605              		.loc 1 472 0
 606 0098 FFF7FEFF 		bl	send_keyboard_report
 607              	.LVL106:
 608              		.loc 1 473 0
 609 009c 6420     		movs	r0, #100
 610 009e FFF7FEFF 		bl	chThdSleep
 611              	.LVL107:
 612              		.loc 1 474 0
 613 00a2 4720     		movs	r0, #71
 614 00a4 FFF7FEFF 		bl	del_key
 615              	.LVL108:
 616              		.loc 1 475 0
 617 00a8 FFF7FEFF 		bl	send_keyboard_report
 618              	.LVL109:
 619 00ac C3E7     		b	.L53
 620              	.LVL110:
 621              	.L76:
 622              		.loc 1 484 0
 623 00ae 0723     		movs	r3, #7
 624 00b0 0340     		ands	r3, r0
 625 00b2 0120     		movs	r0, #1
 626              	.LVL111:
 627 00b4 9840     		lsls	r0, r0, r3
ARM GAS  /var/folders/t8/16hdwfmd2fg_d3q6dgx6bpmw0000gn/T//ccvlLN3N.s 			page 12


 628 00b6 C0B2     		uxtb	r0, r0
 629 00b8 FFF7FEFF 		bl	del_mods
 630              	.LVL112:
 631              		.loc 1 485 0
 632 00bc FFF7FEFF 		bl	send_keyboard_report
 633              	.LVL113:
 634 00c0 B9E7     		b	.L53
 635              	.L78:
 636              		.loc 1 491 0
 637 00c2 0020     		movs	r0, #0
 638 00c4 FFF7FEFF 		bl	host_consumer_send
 639              	.LVL114:
 640 00c8 B5E7     		b	.L53
 641              	.LVL115:
 642              	.L77:
 643              		.loc 1 488 0
 644 00ca 0020     		movs	r0, #0
 645              	.LVL116:
 646 00cc FFF7FEFF 		bl	host_system_send
 647              	.LVL117:
 648 00d0 B1E7     		b	.L53
 649              	.LBE55:
 650              	.LBE57:
 651              		.cfi_endproc
 652              	.LFE180:
 653              		.size	unregister_code, .-unregister_code
 654 00d2 C046     		.section	.text.process_action,"ax",%progbits
 655              		.align	1
 656              		.p2align 4,,15
 657              		.global	process_action
 658              		.syntax unified
 659              		.code	16
 660              		.thumb_func
 661              		.fpu softvfp
 662              		.type	process_action, %function
 663              	process_action:
 664              	.LFB178:
 665              		.loc 1 60 0
 666              		.cfi_startproc
 667              		@ args = 0, pretend = 0, frame = 16
 668              		@ frame_needed = 0, uses_anonymous_args = 0
 669              	.LVL118:
 670 0000 F0B5     		push	{r4, r5, r6, r7, lr}
 671              		.cfi_def_cfa_offset 20
 672              		.cfi_offset 4, -20
 673              		.cfi_offset 5, -16
 674              		.cfi_offset 6, -12
 675              		.cfi_offset 7, -8
 676              		.cfi_offset 14, -4
 677 0002 C646     		mov	lr, r8
 678 0004 00B5     		push	{lr}
 679              		.cfi_def_cfa_offset 24
 680              		.cfi_offset 8, -24
 681 0006 84B0     		sub	sp, sp, #16
 682              		.cfi_def_cfa_offset 40
 683              		.loc 1 60 0
 684 0008 0400     		movs	r4, r0
ARM GAS  /var/folders/t8/16hdwfmd2fg_d3q6dgx6bpmw0000gn/T//ccvlLN3N.s 			page 13


 685              		.loc 1 61 0
 686 000a 02AD     		add	r5, sp, #8
 687 000c 0100     		movs	r1, r0
 688 000e 0622     		movs	r2, #6
 689 0010 2800     		movs	r0, r5
 690              	.LVL119:
 691 0012 FFF7FEFF 		bl	memcpy
 692              	.LVL120:
 693 0016 6946     		mov	r1, sp
 694              		.loc 1 63 0
 695 0018 A679     		ldrb	r6, [r4, #6]
 696 001a 2A88     		ldrh	r2, [r5]
 697              		.loc 1 61 0
 698 001c A388     		ldrh	r3, [r4, #4]
 699 001e A778     		ldrb	r7, [r4, #2]
 700              	.LVL121:
 701              		.loc 1 63 0
 702 0020 3609     		lsrs	r6, r6, #4
 703              	.LVL122:
 704 0022 8A80     		strh	r2, [r1, #4]
 705              	.LBB58:
 706              	.LBB59:
 707              		.loc 2 49 0
 708 0024 002B     		cmp	r3, #0
 709 0026 35D0     		beq	.L79
 710 0028 B64B     		ldr	r3, .L230
 711              	.LVL123:
 712 002a 92B2     		uxth	r2, r2
 713 002c 9A42     		cmp	r2, r3
 714 002e 31D0     		beq	.L79
 715              	.LBE59:
 716              	.LBE58:
 717              		.loc 1 68 0
 718 0030 2868     		ldr	r0, [r5]
 719 0032 FFF7FEFF 		bl	layer_switch_get_action
 720              	.LVL124:
 721 0036 051C     		adds	r5, r0, #0
 722              	.LVL125:
 723              		.loc 1 71 0
 724 0038 FFF7FEFF 		bl	layer_debug
 725              	.LVL126:
 726              		.loc 1 72 0
 727 003c FFF7FEFF 		bl	default_layer_debug
 728              	.LVL127:
 729              		.loc 1 76 0
 730 0040 2A04     		lsls	r2, r5, #16
 731 0042 130F     		lsrs	r3, r2, #28
 732 0044 B049     		ldr	r1, .L230+4
 733 0046 9B00     		lsls	r3, r3, #2
 734 0048 CB58     		ldr	r3, [r1, r3]
 735 004a 9F46     		mov	pc, r3
 736              		.section	.rodata.process_action,"a",%progbits
 737              		.align	2
 738              	.L149:
 739 0000 AE000000 		.word	.L82
 740 0004 AE000000 		.word	.L82
 741 0008 D2000000 		.word	.L88
ARM GAS  /var/folders/t8/16hdwfmd2fg_d3q6dgx6bpmw0000gn/T//ccvlLN3N.s 			page 14


 742 000c D2000000 		.word	.L88
 743 0010 18010000 		.word	.L104
 744 0014 34010000 		.word	.L109
 745 0018 94000000 		.word	.L79
 746 001c 94000000 		.word	.L79
 747 0020 44010000 		.word	.L111
 748 0024 94000000 		.word	.L79
 749 0028 86010000 		.word	.L125
 750 002c 86010000 		.word	.L125
 751 0030 9C000000 		.word	.L146
 752 0034 94000000 		.word	.L79
 753 0038 94000000 		.word	.L79
 754 003c 9A010000 		.word	.L147
 755              		.section	.text.process_action
 756              	.L112:
 757 004c AA05     		lsls	r2, r5, #22
 758 004e 920F     		lsrs	r2, r2, #30
 759 0050 D3B2     		uxtb	r3, r2
 760              		.loc 1 232 0
 761 0052 5B08     		lsrs	r3, r3, #1
 762 0054 002F     		cmp	r7, #0
 763 0056 01D0     		beq	.L119
 764              		.loc 1 232 0 is_stmt 0 discriminator 1
 765 0058 0123     		movs	r3, #1
 766 005a 1340     		ands	r3, r2
 767              	.L119:
 768              		.loc 1 232 0 discriminator 4
 769 005c 002B     		cmp	r3, #0
 770 005e 19D0     		beq	.L79
 771              	.LVL128:
 772              	.LBB60:
 773              		.loc 1 234 0 is_stmt 1
 774 0060 2B06     		lsls	r3, r5, #24
 775 0062 5B0F     		lsrs	r3, r3, #29
 776              		.loc 1 235 0
 777 0064 2807     		lsls	r0, r5, #28
 778 0066 9B00     		lsls	r3, r3, #2
 779 0068 000F     		lsrs	r0, r0, #28
 780 006a 9840     		lsls	r0, r0, r3
 781 006c 0400     		movs	r4, r0
 782              	.LVL129:
 783              		.loc 1 236 0
 784 006e 0020     		movs	r0, #0
 785              	.LVL130:
 786 0070 EA06     		lsls	r2, r5, #27
 787 0072 02D5     		bpl	.L120
 788              		.loc 1 236 0 is_stmt 0 discriminator 1
 789 0074 0F30     		adds	r0, r0, #15
 790 0076 9840     		lsls	r0, r0, r3
 791 0078 C043     		mvns	r0, r0
 792              	.L120:
 793              	.LVL131:
 794              		.loc 1 237 0 is_stmt 1 discriminator 4
 795 007a 2D05     		lsls	r5, r5, #20
 796              	.LVL132:
 797 007c AD0F     		lsrs	r5, r5, #30
 798 007e 022D     		cmp	r5, #2
ARM GAS  /var/folders/t8/16hdwfmd2fg_d3q6dgx6bpmw0000gn/T//ccvlLN3N.s 			page 15


 799 0080 00D1     		bne	.LCB824
 800 0082 5EE1     		b	.L122	@long jump
 801              	.LCB824:
 802 0084 00D9     		bls	.LCB826
 803 0086 2DE1     		b	.L123	@long jump
 804              	.LCB826:
 805              		.loc 1 239 0 discriminator 4
 806 0088 2043     		orrs	r0, r4
 807              	.LVL133:
 808              		.loc 1 237 0 discriminator 4
 809 008a 012D     		cmp	r5, #1
 810 008c 00D1     		bne	.LCB830
 811 008e 2CE1     		b	.L220	@long jump
 812              	.LCB830:
 813              		.loc 1 238 0 discriminator 4
 814 0090 FFF7FEFF 		bl	layer_and
 815              	.LVL134:
 816              	.L79:
 817              	.LBE60:
 818              		.loc 1 351 0
 819 0094 04B0     		add	sp, sp, #16
 820              		@ sp needed
 821              	.LVL135:
 822 0096 04BC     		pop	{r2}
 823 0098 9046     		mov	r8, r2
 824 009a F0BD     		pop	{r4, r5, r6, r7, pc}
 825              	.LVL136:
 826              	.L146:
 827              		.loc 1 315 0
 828 009c 2A05     		lsls	r2, r5, #20
 829 009e 120F     		lsrs	r2, r2, #28
 830 00a0 E9B2     		uxtb	r1, r5
 831              	.LVL137:
 832 00a2 2000     		movs	r0, r4
 833 00a4 FFF7FEFF 		bl	action_get_macro
 834              	.LVL138:
 835 00a8 FFF7FEFF 		bl	action_macro_play
 836              	.LVL139:
 837              		.loc 1 316 0
 838 00ac F2E7     		b	.L79
 839              	.LVL140:
 840              	.L82:
 841              	.LBB61:
 842              		.loc 1 81 0
 843 00ae 0F23     		movs	r3, #15
 844 00b0 2C05     		lsls	r4, r5, #20
 845              	.LVL141:
 846 00b2 120E     		lsrs	r2, r2, #24
 847 00b4 240F     		lsrs	r4, r4, #28
 848 00b6 9A43     		bics	r2, r3
 849 00b8 00D0     		beq	.L83
 850              		.loc 1 81 0 is_stmt 0 discriminator 2
 851 00ba 2401     		lsls	r4, r4, #4
 852              	.L83:
 853              	.LVL142:
 854 00bc EDB2     		uxtb	r5, r5
 855              	.LVL143:
ARM GAS  /var/folders/t8/16hdwfmd2fg_d3q6dgx6bpmw0000gn/T//ccvlLN3N.s 			page 16


 856              		.loc 1 83 0 is_stmt 1 discriminator 4
 857 00be 002F     		cmp	r7, #0
 858 00c0 00D1     		bne	.LCB895
 859 00c2 DCE0     		b	.L84	@long jump
 860              	.LCB895:
 861              		.loc 1 84 0
 862 00c4 002C     		cmp	r4, #0
 863 00c6 00D0     		beq	.LCB897
 864 00c8 E5E0     		b	.L227	@long jump
 865              	.LCB897:
 866              	.L85:
 867              		.loc 1 88 0
 868 00ca 2800     		movs	r0, r5
 869 00cc FFF7FEFF 		bl	register_code
 870              	.LVL144:
 871 00d0 E0E7     		b	.L79
 872              	.LVL145:
 873              	.L88:
 874 00d2 2B05     		lsls	r3, r5, #20
 875 00d4 1B0F     		lsrs	r3, r3, #28
 876 00d6 9846     		mov	r8, r3
 877              	.LBE61:
 878              	.LBB62:
 879              		.loc 1 102 0
 880 00d8 0F23     		movs	r3, #15
 881 00da 120E     		lsrs	r2, r2, #24
 882 00dc 9A43     		bics	r2, r3
 883 00de 202A     		cmp	r2, #32
 884 00e0 02D0     		beq	.L89
 885              		.loc 1 102 0 is_stmt 0 discriminator 2
 886 00e2 4346     		mov	r3, r8
 887 00e4 1B01     		lsls	r3, r3, #4
 888 00e6 9846     		mov	r8, r3
 889              	.L89:
 890              	.LVL146:
 891              		.loc 1 104 0 is_stmt 1 discriminator 4
 892 00e8 E8B2     		uxtb	r0, r5
 893 00ea 0028     		cmp	r0, #0
 894 00ec 00D1     		bne	.LCB930
 895 00ee BBE0     		b	.L91	@long jump
 896              	.LCB930:
 897 00f0 0128     		cmp	r0, #1
 898 00f2 00D0     		beq	.LCB932
 899 00f4 A4E0     		b	.L228	@long jump
 900              	.LCB932:
 901              		.loc 1 135 0
 902 00f6 002F     		cmp	r7, #0
 903 00f8 00D1     		bne	.LCB934
 904 00fa E2E0     		b	.L98	@long jump
 905              	.LCB934:
 906              		.loc 1 136 0
 907 00fc 052E     		cmp	r6, #5
 908 00fe C9D8     		bhi	.L79
 909              		.loc 1 137 0
 910 0100 FFF7FEFF 		bl	get_mods
 911              	.LVL147:
 912 0104 4346     		mov	r3, r8
ARM GAS  /var/folders/t8/16hdwfmd2fg_d3q6dgx6bpmw0000gn/T//ccvlLN3N.s 			page 17


 913 0106 0342     		tst	r3, r0
 914 0108 00D1     		bne	.LCB943
 915 010a B3E0     		b	.L101	@long jump
 916              	.LCB943:
 917              	.L213:
 918              	.LBB63:
 919              	.LBB64:
 920              		.loc 1 506 0
 921 010c 4046     		mov	r0, r8
 922 010e FFF7FEFF 		bl	del_mods
 923              	.LVL148:
 924              		.loc 1 507 0
 925 0112 FFF7FEFF 		bl	send_keyboard_report
 926              	.LVL149:
 927 0116 BDE7     		b	.L79
 928              	.LVL150:
 929              	.L104:
 930              	.LBE64:
 931              	.LBE63:
 932              	.LBE62:
 933              		.loc 1 185 0
 934 0118 2B05     		lsls	r3, r5, #20
 935 011a 9B0F     		lsrs	r3, r3, #30
 936 011c 00D1     		bne	.LCB964
 937 011e 88E0     		b	.L105	@long jump
 938              	.LCB964:
 939 0120 012B     		cmp	r3, #1
 940 0122 B7D1     		bne	.L79
 941              		.loc 1 194 0
 942 0124 002F     		cmp	r7, #0
 943 0126 00D1     		bne	.LCB968
 944 0128 C7E0     		b	.L108	@long jump
 945              	.LCB968:
 946              		.loc 1 195 0
 947 012a A805     		lsls	r0, r5, #22
 948 012c 800D     		lsrs	r0, r0, #22
 949 012e FFF7FEFF 		bl	host_consumer_send
 950              	.LVL151:
 951 0132 AFE7     		b	.L79
 952              	.L109:
 953 0134 E8B2     		uxtb	r0, r5
 954              		.loc 1 206 0
 955 0136 002F     		cmp	r7, #0
 956 0138 76D0     		beq	.L110
 957              		.loc 1 207 0
 958 013a FFF7FEFF 		bl	mousekey_on
 959              	.LVL152:
 960              		.loc 1 208 0
 961 013e FFF7FEFF 		bl	mousekey_send
 962              	.LVL153:
 963 0142 A7E7     		b	.L79
 964              	.L111:
 965              		.loc 1 217 0
 966 0144 9201     		lsls	r2, r2, #6
 967 0146 920F     		lsrs	r2, r2, #30
 968 0148 00D0     		beq	.LCB994
 969 014a 7FE7     		b	.L112	@long jump
ARM GAS  /var/folders/t8/16hdwfmd2fg_d3q6dgx6bpmw0000gn/T//ccvlLN3N.s 			page 18


 970              	.LCB994:
 971              		.loc 1 219 0
 972 014c 002F     		cmp	r7, #0
 973 014e A1D1     		bne	.L79
 974              	.LVL154:
 975              	.LBB75:
 976              		.loc 1 220 0
 977 0150 2B06     		lsls	r3, r5, #24
 978 0152 5B0F     		lsrs	r3, r3, #29
 979              		.loc 1 221 0
 980 0154 2807     		lsls	r0, r5, #28
 981 0156 9B00     		lsls	r3, r3, #2
 982 0158 000F     		lsrs	r0, r0, #28
 983 015a 9840     		lsls	r0, r0, r3
 984 015c 0400     		movs	r4, r0
 985              	.LVL155:
 986              		.loc 1 222 0
 987 015e 0020     		movs	r0, #0
 988              	.LVL156:
 989 0160 EA06     		lsls	r2, r5, #27
 990 0162 02D5     		bpl	.L113
 991              		.loc 1 222 0 is_stmt 0 discriminator 1
 992 0164 0F30     		adds	r0, r0, #15
 993 0166 9840     		lsls	r0, r0, r3
 994 0168 C043     		mvns	r0, r0
 995              	.L113:
 996              	.LVL157:
 997              		.loc 1 223 0 is_stmt 1 discriminator 4
 998 016a 2D05     		lsls	r5, r5, #20
 999              	.LVL158:
 1000 016c AD0F     		lsrs	r5, r5, #30
 1001 016e 022D     		cmp	r5, #2
 1002 0170 00D1     		bne	.LCB1030
 1003 0172 E2E0     		b	.L115	@long jump
 1004              	.LCB1030:
 1005 0174 00D9     		bls	.LCB1032
 1006 0176 BBE0     		b	.L116	@long jump
 1007              	.LCB1032:
 1008              		.loc 1 225 0 discriminator 4
 1009 0178 2043     		orrs	r0, r4
 1010              	.LVL159:
 1011              		.loc 1 223 0 discriminator 4
 1012 017a 012D     		cmp	r5, #1
 1013 017c 00D1     		bne	.LCB1036
 1014 017e BAE0     		b	.L219	@long jump
 1015              	.LCB1036:
 1016              		.loc 1 224 0 discriminator 4
 1017 0180 FFF7FEFF 		bl	default_layer_and
 1018              	.LVL160:
 1019 0184 86E7     		b	.L79
 1020              	.LVL161:
 1021              	.L125:
 1022              	.LBE75:
 1023              		.loc 1 249 0
 1024 0186 ECB2     		uxtb	r4, r5
 1025              	.LVL162:
 1026 0188 2300     		movs	r3, r4
ARM GAS  /var/folders/t8/16hdwfmd2fg_d3q6dgx6bpmw0000gn/T//ccvlLN3N.s 			page 19


 1027 018a 4033     		adds	r3, r3, #64
 1028 018c DBB2     		uxtb	r3, r3
 1029 018e 332B     		cmp	r3, #51
 1030 0190 40D8     		bhi	.L126
 1031 0192 5E4A     		ldr	r2, .L230+8
 1032 0194 9B00     		lsls	r3, r3, #2
 1033 0196 D358     		ldr	r3, [r2, r3]
 1034 0198 9F46     		mov	pc, r3
 1035              		.section	.rodata.process_action
 1036              		.align	2
 1037              	.L128:
 1038 0040 D4010000 		.word	.L127
 1039 0044 D4010000 		.word	.L127
 1040 0048 D4010000 		.word	.L127
 1041 004c D4010000 		.word	.L127
 1042 0050 D4010000 		.word	.L127
 1043 0054 D4010000 		.word	.L127
 1044 0058 D4010000 		.word	.L127
 1045 005c D4010000 		.word	.L127
 1046 0060 D4010000 		.word	.L127
 1047 0064 D4010000 		.word	.L127
 1048 0068 D4010000 		.word	.L127
 1049 006c D4010000 		.word	.L127
 1050 0070 D4010000 		.word	.L127
 1051 0074 D4010000 		.word	.L127
 1052 0078 D4010000 		.word	.L127
 1053 007c D4010000 		.word	.L127
 1054 0080 D4010000 		.word	.L127
 1055 0084 D4010000 		.word	.L127
 1056 0088 D4010000 		.word	.L127
 1057 008c D4010000 		.word	.L127
 1058 0090 D4010000 		.word	.L127
 1059 0094 D4010000 		.word	.L127
 1060 0098 D4010000 		.word	.L127
 1061 009c D4010000 		.word	.L127
 1062 00a0 D4010000 		.word	.L127
 1063 00a4 D4010000 		.word	.L127
 1064 00a8 D4010000 		.word	.L127
 1065 00ac D4010000 		.word	.L127
 1066 00b0 D4010000 		.word	.L127
 1067 00b4 D4010000 		.word	.L127
 1068 00b8 D4010000 		.word	.L127
 1069 00bc D4010000 		.word	.L127
 1070 00c0 14020000 		.word	.L126
 1071 00c4 14020000 		.word	.L126
 1072 00c8 14020000 		.word	.L126
 1073 00cc 14020000 		.word	.L126
 1074 00d0 14020000 		.word	.L126
 1075 00d4 14020000 		.word	.L126
 1076 00d8 14020000 		.word	.L126
 1077 00dc 14020000 		.word	.L126
 1078 00e0 14020000 		.word	.L126
 1079 00e4 14020000 		.word	.L126
 1080 00e8 14020000 		.word	.L126
 1081 00ec 14020000 		.word	.L126
 1082 00f0 14020000 		.word	.L126
 1083 00f4 14020000 		.word	.L126
ARM GAS  /var/folders/t8/16hdwfmd2fg_d3q6dgx6bpmw0000gn/T//ccvlLN3N.s 			page 20


 1084 00f8 14020000 		.word	.L126
 1085 00fc 14020000 		.word	.L126
 1086 0100 00020000 		.word	.L129
 1087 0104 C6010000 		.word	.L130
 1088 0108 B8010000 		.word	.L131
 1089 010c A8010000 		.word	.L132
 1090              		.section	.text.process_action
 1091              	.LVL163:
 1092              	.L147:
 1093              		.loc 1 345 0
 1094 019a 2A05     		lsls	r2, r5, #20
 1095 019c 120F     		lsrs	r2, r2, #28
 1096 019e E9B2     		uxtb	r1, r5
 1097              	.LVL164:
 1098 01a0 2000     		movs	r0, r4
 1099 01a2 FFF7FEFF 		bl	action_function
 1100              	.LVL165:
 1101              		.loc 1 346 0
 1102 01a6 75E7     		b	.L79
 1103              	.LVL166:
 1104              	.L132:
 1105              		.loc 1 285 0
 1106 01a8 002F     		cmp	r7, #0
 1107 01aa 00D1     		bne	.LCB1087
 1108 01ac C2E0     		b	.L142	@long jump
 1109              	.LCB1087:
 1110              		.loc 1 285 0 is_stmt 0 discriminator 1
 1111 01ae E804     		lsls	r0, r5, #19
 1112 01b0 C00E     		lsrs	r0, r0, #27
 1113 01b2 FFF7FEFF 		bl	layer_move
 1114              	.LVL167:
 1115 01b6 6DE7     		b	.L79
 1116              	.L131:
 1117 01b8 E804     		lsls	r0, r5, #19
 1118 01ba C00E     		lsrs	r0, r0, #27
 1119              		.loc 1 281 0 is_stmt 1
 1120 01bc 002F     		cmp	r7, #0
 1121 01be 06D0     		beq	.L215
 1122              	.L216:
 1123              		.loc 1 304 0
 1124 01c0 FFF7FEFF 		bl	layer_off
 1125              	.LVL168:
 1126 01c4 66E7     		b	.L79
 1127              	.L130:
 1128 01c6 E804     		lsls	r0, r5, #19
 1129 01c8 C00E     		lsrs	r0, r0, #27
 1130              		.loc 1 277 0
 1131 01ca 002F     		cmp	r7, #0
 1132 01cc F8D0     		beq	.L216
 1133              	.L215:
 1134              		.loc 1 296 0
 1135 01ce FFF7FEFF 		bl	layer_on
 1136              	.LVL169:
 1137 01d2 5FE7     		b	.L79
 1138              	.L127:
 1139 01d4 1026     		movs	r6, #16
 1140 01d6 E804     		lsls	r0, r5, #19
ARM GAS  /var/folders/t8/16hdwfmd2fg_d3q6dgx6bpmw0000gn/T//ccvlLN3N.s 			page 21


 1141 01d8 C00E     		lsrs	r0, r0, #27
 1142 01da 2640     		ands	r6, r4
 1143              		.loc 1 252 0
 1144 01dc 002F     		cmp	r7, #0
 1145 01de 00D1     		bne	.LCB1128
 1146 01e0 96E0     		b	.L133	@long jump
 1147              	.LCB1128:
 1148              		.loc 1 253 0
 1149 01e2 FFF7FEFF 		bl	layer_on
 1150              	.LVL170:
 1151              		.loc 1 254 0
 1152 01e6 002E     		cmp	r6, #0
 1153 01e8 00D1     		bne	.LCB1132
 1154 01ea AEE0     		b	.L134	@long jump
 1155              	.LCB1132:
 1156              		.loc 1 255 0 discriminator 1
 1157 01ec 2401     		lsls	r4, r4, #4
 1158              		.loc 1 254 0 discriminator 1
 1159 01ee E0B2     		uxtb	r0, r4
 1160              	.L135:
 1161              	.LVL171:
 1162              	.LBB76:
 1163              	.LBB77:
 1164              		.loc 1 497 0 discriminator 4
 1165 01f0 0028     		cmp	r0, #0
 1166 01f2 00D1     		bne	.LCB1141
 1167 01f4 4EE7     		b	.L79	@long jump
 1168              	.LCB1141:
 1169              		.loc 1 498 0
 1170 01f6 FFF7FEFF 		bl	add_mods
 1171              	.LVL172:
 1172              		.loc 1 499 0
 1173 01fa FFF7FEFF 		bl	send_keyboard_report
 1174              	.LVL173:
 1175 01fe 49E7     		b	.L79
 1176              	.L129:
 1177              	.LBE77:
 1178              	.LBE76:
 1179              		.loc 1 266 0
 1180 0200 002F     		cmp	r7, #0
 1181 0202 7BD0     		beq	.L138
 1182              		.loc 1 267 0
 1183 0204 042E     		cmp	r6, #4
 1184 0206 00D9     		bls	.LCB1157
 1185 0208 44E7     		b	.L79	@long jump
 1186              	.LCB1157:
 1187              	.L139:
 1188              		.loc 1 268 0
 1189 020a E804     		lsls	r0, r5, #19
 1190 020c C00E     		lsrs	r0, r0, #27
 1191 020e FFF7FEFF 		bl	layer_invert
 1192              	.LVL174:
 1193 0212 3FE7     		b	.L79
 1194              	.L126:
 1195              		.loc 1 290 0
 1196 0214 002F     		cmp	r7, #0
 1197 0216 00D1     		bne	.LCB1169
ARM GAS  /var/folders/t8/16hdwfmd2fg_d3q6dgx6bpmw0000gn/T//ccvlLN3N.s 			page 22


 1198 0218 88E0     		b	.L143	@long jump
 1199              	.LCB1169:
 1200              		.loc 1 291 0
 1201 021a 002E     		cmp	r6, #0
 1202 021c 00D1     		bne	.LCB1171
 1203 021e 97E0     		b	.L144	@long jump
 1204              	.LCB1171:
 1205              		.loc 1 293 0
 1206 0220 2000     		movs	r0, r4
 1207              	.L217:
 1208 0222 FFF7FEFF 		bl	register_code
 1209              	.LVL175:
 1210 0226 35E7     		b	.L79
 1211              	.LVL176:
 1212              	.L110:
 1213              		.loc 1 210 0
 1214 0228 FFF7FEFF 		bl	mousekey_off
 1215              	.LVL177:
 1216              		.loc 1 211 0
 1217 022c FFF7FEFF 		bl	mousekey_send
 1218              	.LVL178:
 1219 0230 30E7     		b	.L79
 1220              	.L105:
 1221              		.loc 1 187 0
 1222 0232 002F     		cmp	r7, #0
 1223 0234 4DD0     		beq	.L107
 1224              		.loc 1 188 0
 1225 0236 A805     		lsls	r0, r5, #22
 1226 0238 800D     		lsrs	r0, r0, #22
 1227 023a FFF7FEFF 		bl	host_system_send
 1228              	.LVL179:
 1229 023e 29E7     		b	.L79
 1230              	.LVL180:
 1231              	.L228:
 1232              	.LBB78:
 1233              		.loc 1 153 0
 1234 0240 002F     		cmp	r7, #0
 1235 0242 4AD0     		beq	.L100
 1236              		.loc 1 154 0
 1237 0244 002E     		cmp	r6, #0
 1238 0246 15D0     		beq	.L101
 1239              		.loc 1 155 0
 1240 0248 A279     		ldrb	r2, [r4, #6]
 1241 024a D307     		lsls	r3, r2, #31
 1242 024c E9D5     		bpl	.L217
 1243              		.loc 1 158 0
 1244 024e 0F23     		movs	r3, #15
 1245 0250 1340     		ands	r3, r2
 1246 0252 A371     		strb	r3, [r4, #6]
 1247              	.LVL181:
 1248              	.LBB66:
 1249              	.LBB67:
 1250              		.loc 1 497 0
 1251 0254 4346     		mov	r3, r8
 1252 0256 002B     		cmp	r3, #0
 1253 0258 00D1     		bne	.LCB1221
 1254 025a 1BE7     		b	.L79	@long jump
ARM GAS  /var/folders/t8/16hdwfmd2fg_d3q6dgx6bpmw0000gn/T//ccvlLN3N.s 			page 23


 1255              	.LCB1221:
 1256              	.LVL182:
 1257              	.L214:
 1258              	.LBE67:
 1259              	.LBE66:
 1260              	.LBB68:
 1261              	.LBB69:
 1262              		.loc 1 498 0
 1263 025c 4046     		mov	r0, r8
 1264 025e FFF7FEFF 		bl	add_mods
 1265              	.LVL183:
 1266              		.loc 1 499 0
 1267 0262 FFF7FEFF 		bl	send_keyboard_report
 1268              	.LVL184:
 1269 0266 15E7     		b	.L79
 1270              	.L91:
 1271              	.LBE69:
 1272              	.LBE68:
 1273              		.loc 1 108 0
 1274 0268 002F     		cmp	r7, #0
 1275 026a 1AD0     		beq	.L93
 1276              		.loc 1 109 0
 1277 026c 002E     		cmp	r6, #0
 1278 026e 01D0     		beq	.L101
 1279              		.loc 1 112 0
 1280 0270 012E     		cmp	r6, #1
 1281 0272 76D0     		beq	.L229
 1282              	.L101:
 1283              	.LVL185:
 1284              	.LBB71:
 1285              	.LBB70:
 1286              		.loc 1 497 0
 1287 0274 4346     		mov	r3, r8
 1288 0276 002B     		cmp	r3, #0
 1289 0278 00D1     		bne	.LCB1253
 1290 027a 0BE7     		b	.L79	@long jump
 1291              	.LCB1253:
 1292 027c EEE7     		b	.L214
 1293              	.LVL186:
 1294              	.L84:
 1295              	.LBE70:
 1296              	.LBE71:
 1297              	.LBE78:
 1298              	.LBB79:
 1299              		.loc 1 90 0
 1300 027e 2800     		movs	r0, r5
 1301 0280 FFF7FEFF 		bl	unregister_code
 1302              	.LVL187:
 1303              		.loc 1 91 0
 1304 0284 002C     		cmp	r4, #0
 1305 0286 00D1     		bne	.LCB1271
 1306 0288 04E7     		b	.L79	@long jump
 1307              	.LCB1271:
 1308              		.loc 1 92 0
 1309 028a 2000     		movs	r0, r4
 1310 028c FFF7FEFF 		bl	del_weak_mods
 1311              	.LVL188:
ARM GAS  /var/folders/t8/16hdwfmd2fg_d3q6dgx6bpmw0000gn/T//ccvlLN3N.s 			page 24


 1312              		.loc 1 93 0
 1313 0290 FFF7FEFF 		bl	send_keyboard_report
 1314              	.LVL189:
 1315 0294 FEE6     		b	.L79
 1316              	.L227:
 1317              		.loc 1 85 0
 1318 0296 2000     		movs	r0, r4
 1319 0298 FFF7FEFF 		bl	add_weak_mods
 1320              	.LVL190:
 1321              		.loc 1 86 0
 1322 029c FFF7FEFF 		bl	send_keyboard_report
 1323              	.LVL191:
 1324 02a0 13E7     		b	.L85
 1325              	.LVL192:
 1326              	.L93:
 1327              	.LBE79:
 1328              	.LBB80:
 1329              		.loc 1 120 0
 1330 02a2 002E     		cmp	r6, #0
 1331 02a4 02D0     		beq	.L226
 1332              		.loc 1 124 0
 1333 02a6 012E     		cmp	r6, #1
 1334 02a8 00D1     		bne	.LCB1299
 1335 02aa F3E6     		b	.L79	@long jump
 1336              	.LCB1299:
 1337              	.L226:
 1338              		.loc 1 128 0
 1339 02ac FFF7FEFF 		bl	clear_oneshot_mods
 1340              	.LVL193:
 1341              	.LBB72:
 1342              	.LBB73:
 1343              		.loc 1 505 0
 1344 02b0 4346     		mov	r3, r8
 1345 02b2 002B     		cmp	r3, #0
 1346 02b4 00D1     		bne	.LCB1308
 1347 02b6 EDE6     		b	.L79	@long jump
 1348              	.LCB1308:
 1349 02b8 28E7     		b	.L213
 1350              	.LVL194:
 1351              	.L108:
 1352              	.LBE73:
 1353              	.LBE72:
 1354              	.LBE80:
 1355              		.loc 1 197 0
 1356 02ba 0020     		movs	r0, #0
 1357 02bc FFF7FEFF 		bl	host_consumer_send
 1358              	.LVL195:
 1359 02c0 E8E6     		b	.L79
 1360              	.LVL196:
 1361              	.L98:
 1362              	.LBB81:
 1363              		.loc 1 146 0
 1364 02c2 042E     		cmp	r6, #4
 1365 02c4 00D9     		bls	.LCB1328
 1366 02c6 E5E6     		b	.L79	@long jump
 1367              	.LCB1328:
 1368              	.L103:
ARM GAS  /var/folders/t8/16hdwfmd2fg_d3q6dgx6bpmw0000gn/T//ccvlLN3N.s 			page 25


 1369              	.LVL197:
 1370              	.LBB74:
 1371              	.LBB65:
 1372              		.loc 1 505 0
 1373 02c8 4346     		mov	r3, r8
 1374 02ca 002B     		cmp	r3, #0
 1375 02cc 00D1     		bne	.LCB1335
 1376 02ce E1E6     		b	.L79	@long jump
 1377              	.LCB1335:
 1378 02d0 1CE7     		b	.L213
 1379              	.LVL198:
 1380              	.L107:
 1381              	.LBE65:
 1382              	.LBE74:
 1383              	.LBE81:
 1384              		.loc 1 190 0
 1385 02d2 0020     		movs	r0, #0
 1386 02d4 FFF7FEFF 		bl	host_system_send
 1387              	.LVL199:
 1388 02d8 DCE6     		b	.L79
 1389              	.LVL200:
 1390              	.L100:
 1391              	.LBB82:
 1392              		.loc 1 169 0
 1393 02da 002E     		cmp	r6, #0
 1394 02dc F4D0     		beq	.L103
 1395              	.LVL201:
 1396              	.L218:
 1397              	.LBE82:
 1398              		.loc 1 301 0
 1399 02de FFF7FEFF 		bl	unregister_code
 1400              	.LVL202:
 1401 02e2 D7E6     		b	.L79
 1402              	.LVL203:
 1403              	.L123:
 1404              	.LBB83:
 1405              		.loc 1 241 0
 1406 02e4 FFF7FEFF 		bl	layer_and
 1407              	.LVL204:
 1408 02e8 2000     		movs	r0, r4
 1409              	.L220:
 1410 02ea FFF7FEFF 		bl	layer_or
 1411              	.LVL205:
 1412 02ee D1E6     		b	.L79
 1413              	.LVL206:
 1414              	.L116:
 1415              	.LBE83:
 1416              	.LBB84:
 1417              		.loc 1 227 0
 1418 02f0 FFF7FEFF 		bl	default_layer_and
 1419              	.LVL207:
 1420 02f4 2000     		movs	r0, r4
 1421              	.L219:
 1422 02f6 FFF7FEFF 		bl	default_layer_or
 1423              	.LVL208:
 1424 02fa CBE6     		b	.L79
 1425              	.LVL209:
ARM GAS  /var/folders/t8/16hdwfmd2fg_d3q6dgx6bpmw0000gn/T//ccvlLN3N.s 			page 26


 1426              	.L138:
 1427              	.LBE84:
 1428              		.loc 1 271 0
 1429 02fc 052E     		cmp	r6, #5
 1430 02fe 00D9     		bls	.LCB1411
 1431 0300 C8E6     		b	.L79	@long jump
 1432              	.LCB1411:
 1433 0302 82E7     		b	.L139
 1434              	.L231:
 1435              		.align	2
 1436              	.L230:
 1437 0304 FFFF0000 		.word	65535
 1438 0308 00000000 		.word	.L149
 1439 030c 40000000 		.word	.L128
 1440              	.L133:
 1441              		.loc 1 258 0
 1442 0310 FFF7FEFF 		bl	layer_off
 1443              	.LVL210:
 1444              		.loc 1 259 0
 1445 0314 002E     		cmp	r6, #0
 1446 0316 1ED0     		beq	.L136
 1447              		.loc 1 260 0 discriminator 1
 1448 0318 2401     		lsls	r4, r4, #4
 1449              		.loc 1 259 0 discriminator 1
 1450 031a E0B2     		uxtb	r0, r4
 1451              	.L137:
 1452              	.LVL211:
 1453              	.LBB85:
 1454              	.LBB86:
 1455              		.loc 1 505 0 discriminator 4
 1456 031c 0028     		cmp	r0, #0
 1457 031e 00D1     		bne	.LCB1436
 1458 0320 B8E6     		b	.L79	@long jump
 1459              	.LCB1436:
 1460              		.loc 1 506 0
 1461 0322 FFF7FEFF 		bl	del_mods
 1462              	.LVL212:
 1463              		.loc 1 507 0
 1464 0326 FFF7FEFF 		bl	send_keyboard_report
 1465              	.LVL213:
 1466 032a B3E6     		b	.L79
 1467              	.L143:
 1468              	.LBE86:
 1469              	.LBE85:
 1470              		.loc 1 299 0
 1471 032c 002E     		cmp	r6, #0
 1472 032e 15D0     		beq	.L145
 1473              		.loc 1 301 0
 1474 0330 2000     		movs	r0, r4
 1475 0332 D4E7     		b	.L218
 1476              	.L142:
 1477              		.loc 1 286 0
 1478 0334 FFF7FEFF 		bl	layer_clear
 1479              	.LVL214:
 1480 0338 ACE6     		b	.L79
 1481              	.LVL215:
 1482              	.L115:
ARM GAS  /var/folders/t8/16hdwfmd2fg_d3q6dgx6bpmw0000gn/T//ccvlLN3N.s 			page 27


 1483              	.LBB87:
 1484              		.loc 1 226 0
 1485 033a 2043     		orrs	r0, r4
 1486              	.LVL216:
 1487 033c FFF7FEFF 		bl	default_layer_xor
 1488              	.LVL217:
 1489 0340 A8E6     		b	.L79
 1490              	.LVL218:
 1491              	.L122:
 1492              	.LBE87:
 1493              	.LBB88:
 1494              		.loc 1 240 0
 1495 0342 2043     		orrs	r0, r4
 1496              	.LVL219:
 1497 0344 FFF7FEFF 		bl	layer_xor
 1498              	.LVL220:
 1499 0348 A4E6     		b	.L79
 1500              	.LVL221:
 1501              	.L134:
 1502              	.LBE88:
 1503              		.loc 1 254 0 discriminator 2
 1504 034a 0F20     		movs	r0, #15
 1505 034c 2040     		ands	r0, r4
 1506 034e 4FE7     		b	.L135
 1507              	.L144:
 1508              		.loc 1 296 0
 1509 0350 E804     		lsls	r0, r5, #19
 1510 0352 C00E     		lsrs	r0, r0, #27
 1511 0354 3BE7     		b	.L215
 1512              	.L136:
 1513              		.loc 1 259 0 discriminator 2
 1514 0356 0F20     		movs	r0, #15
 1515 0358 2040     		ands	r0, r4
 1516 035a DFE7     		b	.L137
 1517              	.L145:
 1518              		.loc 1 304 0
 1519 035c E804     		lsls	r0, r5, #19
 1520 035e C00E     		lsrs	r0, r0, #27
 1521 0360 2EE7     		b	.L216
 1522              	.LVL222:
 1523              	.L229:
 1524              	.LBB89:
 1525              		.loc 1 114 0
 1526 0362 4046     		mov	r0, r8
 1527 0364 FFF7FEFF 		bl	set_oneshot_mods
 1528              	.LVL223:
 1529 0368 94E6     		b	.L79
 1530              	.LBE89:
 1531              		.cfi_endproc
 1532              	.LFE178:
 1533              		.size	process_action, .-process_action
 1534 036a C046     		.section	.text.register_mods,"ax",%progbits
 1535              		.align	1
 1536              		.p2align 4,,15
 1537              		.global	register_mods
 1538              		.syntax unified
 1539              		.code	16
ARM GAS  /var/folders/t8/16hdwfmd2fg_d3q6dgx6bpmw0000gn/T//ccvlLN3N.s 			page 28


 1540              		.thumb_func
 1541              		.fpu softvfp
 1542              		.type	register_mods, %function
 1543              	register_mods:
 1544              	.LFB181:
 1545              		.loc 1 496 0
 1546              		.cfi_startproc
 1547              		@ args = 0, pretend = 0, frame = 0
 1548              		@ frame_needed = 0, uses_anonymous_args = 0
 1549              	.LVL224:
 1550 0000 10B5     		push	{r4, lr}
 1551              		.cfi_def_cfa_offset 8
 1552              		.cfi_offset 4, -8
 1553              		.cfi_offset 14, -4
 1554              		.loc 1 497 0
 1555 0002 0028     		cmp	r0, #0
 1556 0004 03D0     		beq	.L232
 1557              		.loc 1 498 0
 1558 0006 FFF7FEFF 		bl	add_mods
 1559              	.LVL225:
 1560              		.loc 1 499 0
 1561 000a FFF7FEFF 		bl	send_keyboard_report
 1562              	.LVL226:
 1563              	.L232:
 1564              		.loc 1 501 0
 1565              		@ sp needed
 1566 000e 10BD     		pop	{r4, pc}
 1567              		.cfi_endproc
 1568              	.LFE181:
 1569              		.size	register_mods, .-register_mods
 1570              		.section	.text.unregister_mods,"ax",%progbits
 1571              		.align	1
 1572              		.p2align 4,,15
 1573              		.global	unregister_mods
 1574              		.syntax unified
 1575              		.code	16
 1576              		.thumb_func
 1577              		.fpu softvfp
 1578              		.type	unregister_mods, %function
 1579              	unregister_mods:
 1580              	.LFB182:
 1581              		.loc 1 504 0
 1582              		.cfi_startproc
 1583              		@ args = 0, pretend = 0, frame = 0
 1584              		@ frame_needed = 0, uses_anonymous_args = 0
 1585              	.LVL227:
 1586 0000 10B5     		push	{r4, lr}
 1587              		.cfi_def_cfa_offset 8
 1588              		.cfi_offset 4, -8
 1589              		.cfi_offset 14, -4
 1590              		.loc 1 505 0
 1591 0002 0028     		cmp	r0, #0
 1592 0004 03D0     		beq	.L237
 1593              		.loc 1 506 0
 1594 0006 FFF7FEFF 		bl	del_mods
 1595              	.LVL228:
 1596              		.loc 1 507 0
ARM GAS  /var/folders/t8/16hdwfmd2fg_d3q6dgx6bpmw0000gn/T//ccvlLN3N.s 			page 29


 1597 000a FFF7FEFF 		bl	send_keyboard_report
 1598              	.LVL229:
 1599              	.L237:
 1600              		.loc 1 509 0
 1601              		@ sp needed
 1602 000e 10BD     		pop	{r4, pc}
 1603              		.cfi_endproc
 1604              	.LFE182:
 1605              		.size	unregister_mods, .-unregister_mods
 1606              		.section	.text.clear_keyboard_but_mods,"ax",%progbits
 1607              		.align	1
 1608              		.p2align 4,,15
 1609              		.global	clear_keyboard_but_mods
 1610              		.syntax unified
 1611              		.code	16
 1612              		.thumb_func
 1613              		.fpu softvfp
 1614              		.type	clear_keyboard_but_mods, %function
 1615              	clear_keyboard_but_mods:
 1616              	.LFB184:
 1617              		.loc 1 518 0
 1618              		.cfi_startproc
 1619              		@ args = 0, pretend = 0, frame = 0
 1620              		@ frame_needed = 0, uses_anonymous_args = 0
 1621 0000 10B5     		push	{r4, lr}
 1622              		.cfi_def_cfa_offset 8
 1623              		.cfi_offset 4, -8
 1624              		.cfi_offset 14, -4
 1625              		.loc 1 519 0
 1626 0002 FFF7FEFF 		bl	clear_weak_mods
 1627              	.LVL230:
 1628              		.loc 1 520 0
 1629 0006 FFF7FEFF 		bl	clear_keys
 1630              	.LVL231:
 1631              		.loc 1 521 0
 1632 000a FFF7FEFF 		bl	send_keyboard_report
 1633              	.LVL232:
 1634              		.loc 1 523 0
 1635 000e FFF7FEFF 		bl	mousekey_clear
 1636              	.LVL233:
 1637              		.loc 1 524 0
 1638 0012 FFF7FEFF 		bl	mousekey_send
 1639              	.LVL234:
 1640              		.loc 1 527 0
 1641 0016 0020     		movs	r0, #0
 1642 0018 FFF7FEFF 		bl	host_system_send
 1643              	.LVL235:
 1644              		.loc 1 528 0
 1645 001c 0020     		movs	r0, #0
 1646 001e FFF7FEFF 		bl	host_consumer_send
 1647              	.LVL236:
 1648              		.loc 1 530 0
 1649              		@ sp needed
 1650 0022 10BD     		pop	{r4, pc}
 1651              		.cfi_endproc
 1652              	.LFE184:
 1653              		.size	clear_keyboard_but_mods, .-clear_keyboard_but_mods
ARM GAS  /var/folders/t8/16hdwfmd2fg_d3q6dgx6bpmw0000gn/T//ccvlLN3N.s 			page 30


 1654              		.section	.text.clear_keyboard,"ax",%progbits
 1655              		.align	1
 1656              		.p2align 4,,15
 1657              		.global	clear_keyboard
 1658              		.syntax unified
 1659              		.code	16
 1660              		.thumb_func
 1661              		.fpu softvfp
 1662              		.type	clear_keyboard, %function
 1663              	clear_keyboard:
 1664              	.LFB183:
 1665              		.loc 1 512 0
 1666              		.cfi_startproc
 1667              		@ args = 0, pretend = 0, frame = 0
 1668              		@ frame_needed = 0, uses_anonymous_args = 0
 1669 0000 10B5     		push	{r4, lr}
 1670              		.cfi_def_cfa_offset 8
 1671              		.cfi_offset 4, -8
 1672              		.cfi_offset 14, -4
 1673              		.loc 1 513 0
 1674 0002 FFF7FEFF 		bl	clear_mods
 1675              	.LVL237:
 1676              		.loc 1 515 0
 1677              		@ sp needed
 1678              		.loc 1 514 0
 1679 0006 FFF7FEFF 		bl	clear_keyboard_but_mods
 1680              	.LVL238:
 1681              		.loc 1 515 0
 1682 000a 10BD     		pop	{r4, pc}
 1683              		.cfi_endproc
 1684              	.LFE183:
 1685              		.size	clear_keyboard, .-clear_keyboard
 1686              		.section	.text.is_tap_key,"ax",%progbits
 1687              		.align	1
 1688              		.p2align 4,,15
 1689              		.global	is_tap_key
 1690              		.syntax unified
 1691              		.code	16
 1692              		.thumb_func
 1693              		.fpu softvfp
 1694              		.type	is_tap_key, %function
 1695              	is_tap_key:
 1696              	.LFB185:
 1697              		.loc 1 533 0
 1698              		.cfi_startproc
 1699              		@ args = 0, pretend = 0, frame = 8
 1700              		@ frame_needed = 0, uses_anonymous_args = 0
 1701 0000 10B5     		push	{r4, lr}
 1702              		.cfi_def_cfa_offset 8
 1703              		.cfi_offset 4, -8
 1704              		.cfi_offset 14, -4
 1705 0002 82B0     		sub	sp, sp, #8
 1706              		.cfi_def_cfa_offset 16
 1707              		.loc 1 533 0
 1708 0004 01AB     		add	r3, sp, #4
 1709 0006 1880     		strh	r0, [r3]
 1710              		.loc 1 534 0
ARM GAS  /var/folders/t8/16hdwfmd2fg_d3q6dgx6bpmw0000gn/T//ccvlLN3N.s 			page 31


 1711 0008 0198     		ldr	r0, [sp, #4]
 1712 000a FFF7FEFF 		bl	layer_switch_get_action
 1713              	.LVL239:
 1714 000e 0121     		movs	r1, #1
 1715 0010 0C00     		movs	r4, r1
 1716              	.LVL240:
 1717              		.loc 1 536 0
 1718 0012 0304     		lsls	r3, r0, #16
 1719 0014 1B0F     		lsrs	r3, r3, #28
 1720 0016 9C40     		lsls	r4, r4, r3
 1721 0018 2300     		movs	r3, r4
 1722 001a 9024     		movs	r4, #144
 1723 001c 2402     		lsls	r4, r4, #8
 1724              		.loc 1 534 0
 1725 001e C2B2     		uxtb	r2, r0
 1726              	.LVL241:
 1727 0020 2342     		tst	r3, r4
 1728 0022 17D1     		bne	.L245
 1729 0024 C021     		movs	r1, #192
 1730 0026 0901     		lsls	r1, r1, #4
 1731 0028 0B42     		tst	r3, r1
 1732 002a 09D1     		bne	.L246
 1733 002c 0C21     		movs	r1, #12
 1734              		.loc 1 562 0
 1735 002e 0020     		movs	r0, #0
 1736              	.LVL242:
 1737 0030 1942     		tst	r1, r3
 1738 0032 11D0     		beq	.L247
 1739              		.loc 1 539 0
 1740 0034 A42A     		cmp	r2, #164
 1741 0036 15D8     		bhi	.L248
 1742 0038 042A     		cmp	r2, #4
 1743 003a 11D2     		bcs	.L253
 1744 003c 012A     		cmp	r2, #1
 1745 003e 0FD9     		bls	.L253
 1746              	.LVL243:
 1747              	.L246:
 1748              		.loc 1 548 0
 1749 0040 E72A     		cmp	r2, #231
 1750 0042 0BD8     		bhi	.L250
 1751 0044 E02A     		cmp	r2, #224
 1752 0046 0BD2     		bcs	.L253
 1753 0048 043A     		subs	r2, r2, #4
 1754              	.LVL244:
 1755 004a D2B2     		uxtb	r2, r2
 1756              	.LVL245:
 1757 004c A02A     		cmp	r2, #160
 1758 004e 07D9     		bls	.L253
 1759              	.L249:
 1760              		.loc 1 550 0
 1761 0050 0020     		movs	r0, #0
 1762              	.LVL246:
 1763 0052 01E0     		b	.L247
 1764              	.LVL247:
 1765              	.L245:
 1766              		.loc 1 559 0
 1767 0054 C00A     		lsrs	r0, r0, #11
ARM GAS  /var/folders/t8/16hdwfmd2fg_d3q6dgx6bpmw0000gn/T//ccvlLN3N.s 			page 32


 1768              	.LVL248:
 1769 0056 0840     		ands	r0, r1
 1770              	.LVL249:
 1771              	.L247:
 1772              		.loc 1 563 0
 1773 0058 02B0     		add	sp, sp, #8
 1774              		@ sp needed
 1775 005a 10BD     		pop	{r4, pc}
 1776              	.LVL250:
 1777              	.L250:
 1778              		.loc 1 548 0
 1779 005c F02A     		cmp	r2, #240
 1780 005e F7D1     		bne	.L249
 1781              	.LVL251:
 1782              	.L253:
 1783              		.loc 1 554 0
 1784 0060 0120     		movs	r0, #1
 1785              	.LVL252:
 1786 0062 F9E7     		b	.L247
 1787              	.LVL253:
 1788              	.L248:
 1789              		.loc 1 539 0
 1790 0064 1300     		movs	r3, r2
 1791 0066 2033     		adds	r3, r3, #32
 1792 0068 DBB2     		uxtb	r3, r3
 1793 006a 072B     		cmp	r3, #7
 1794 006c E8D8     		bhi	.L246
 1795 006e F7E7     		b	.L253
 1796              		.cfi_endproc
 1797              	.LFE185:
 1798              		.size	is_tap_key, .-is_tap_key
 1799              		.section	.text.debug_event,"ax",%progbits
 1800              		.align	1
 1801              		.p2align 4,,15
 1802              		.global	debug_event
 1803              		.syntax unified
 1804              		.code	16
 1805              		.thumb_func
 1806              		.fpu softvfp
 1807              		.type	debug_event, %function
 1808              	debug_event:
 1809              	.LFB186:
 1810              		.loc 1 570 0
 1811              		.cfi_startproc
 1812              		@ args = 0, pretend = 0, frame = 8
 1813              		@ frame_needed = 0, uses_anonymous_args = 0
 1814              		@ link register save eliminated.
 1815 0000 82B0     		sub	sp, sp, #8
 1816              		.cfi_def_cfa_offset 8
 1817              		.loc 1 572 0
 1818 0002 02B0     		add	sp, sp, #8
 1819              		@ sp needed
 1820 0004 7047     		bx	lr
 1821              		.cfi_endproc
 1822              	.LFE186:
 1823              		.size	debug_event, .-debug_event
 1824 0006 C046     		.section	.text.debug_record,"ax",%progbits
ARM GAS  /var/folders/t8/16hdwfmd2fg_d3q6dgx6bpmw0000gn/T//ccvlLN3N.s 			page 33


 1825              		.align	1
 1826              		.p2align 4,,15
 1827              		.global	debug_record
 1828              		.syntax unified
 1829              		.code	16
 1830              		.thumb_func
 1831              		.fpu softvfp
 1832              		.type	debug_record, %function
 1833              	debug_record:
 1834              	.LFB187:
 1835              		.loc 1 575 0
 1836              		.cfi_startproc
 1837              		@ args = 0, pretend = 0, frame = 8
 1838              		@ frame_needed = 0, uses_anonymous_args = 0
 1839              		@ link register save eliminated.
 1840 0000 82B0     		sub	sp, sp, #8
 1841              		.cfi_def_cfa_offset 8
 1842              		.loc 1 580 0
 1843 0002 02B0     		add	sp, sp, #8
 1844              		@ sp needed
 1845 0004 7047     		bx	lr
 1846              		.cfi_endproc
 1847              	.LFE187:
 1848              		.size	debug_record, .-debug_record
 1849 0006 C046     		.section	.text.debug_action,"ax",%progbits
 1850              		.align	1
 1851              		.p2align 4,,15
 1852              		.global	debug_action
 1853              		.syntax unified
 1854              		.code	16
 1855              		.thumb_func
 1856              		.fpu softvfp
 1857              		.type	debug_action, %function
 1858              	debug_action:
 1859              	.LFB188:
 1860              		.loc 1 583 0
 1861              		.cfi_startproc
 1862              		@ args = 0, pretend = 0, frame = 0
 1863              		@ frame_needed = 0, uses_anonymous_args = 0
 1864              		@ link register save eliminated.
 1865              	.LVL254:
 1866              		.loc 1 600 0
 1867              		@ sp needed
 1868 0000 7047     		bx	lr
 1869              		.cfi_endproc
 1870              	.LFE188:
 1871              		.size	debug_action, .-debug_action
 1872 0002 C046     		.text
 1873              	.Letext0:
 1874              		.file 3 "/usr/local/Caskroom/gcc-arm-embedded/7-2017-q4-major/gcc-arm-none-eabi-7-2017-q4-major/ar
 1875              		.file 4 "/usr/local/Caskroom/gcc-arm-embedded/7-2017-q4-major/gcc-arm-none-eabi-7-2017-q4-major/ar
 1876              		.file 5 "../../tmk_core/common/keycode.h"
 1877              		.file 6 "/usr/local/Caskroom/gcc-arm-embedded/7-2017-q4-major/gcc-arm-none-eabi-7-2017-q4-major/li
 1878              		.file 7 "../../tmk_core/tool/chibios/ChibiOS/os/common/ports/ARMCMx/compilers/GCC/chtypes.h"
 1879              		.file 8 "../../tmk_core/tool/chibios/ChibiOS/os/rt/include/chsystypes.h"
 1880              		.file 9 "../../tmk_core/tool/chibios/ChibiOS/os/rt/include/chschd.h"
 1881              		.file 10 "../../tmk_core/tool/chibios/ChibiOS-Contrib/os/common/ext/CMSIS/KINETIS/kl2xz.h"
ARM GAS  /var/folders/t8/16hdwfmd2fg_d3q6dgx6bpmw0000gn/T//ccvlLN3N.s 			page 34


 1882              		.file 11 "../../tmk_core/tool/chibios/ChibiOS/os/common/ports/ARMCMx/chcore.h"
 1883              		.file 12 "../../tmk_core/tool/chibios/ChibiOS/os/common/ports/ARMCMx/chcore_v6m.h"
 1884              		.file 13 "../../tmk_core/tool/chibios/ChibiOS/os/rt/include/chsem.h"
 1885              		.file 14 "../../tmk_core/tool/chibios/ChibiOS/os/rt/include/chmtx.h"
 1886              		.file 15 "../../tmk_core/tool/chibios/ChibiOS/os/rt/include/chregistry.h"
 1887              		.file 16 "../../tmk_core/tool/chibios/ChibiOS/os/rt/include/chsys.h"
 1888              		.file 17 "../../tmk_core/tool/chibios/ChibiOS-Contrib/os/hal/ports/KINETIS/LLD/hal_pal_lld.h"
 1889              		.file 18 "../../tmk_core/tool/chibios/ChibiOS/os/hal/include/hal_usb.h"
 1890              		.file 19 "../../tmk_core/tool/chibios/ChibiOS-Contrib/os/hal/ports/KINETIS/LLD/hal_usb_lld.h"
 1891              		.file 20 "../../tmk_core/common/report.h"
 1892              		.file 21 "../../tmk_core/common/host.h"
 1893              		.file 22 "../../tmk_core/common/mousekey.h"
 1894              		.file 23 "../../tmk_core/common/command.h"
 1895              		.file 24 "../../tmk_core/common/action_code.h"
 1896              		.file 25 "../../tmk_core/common/action.h"
 1897              		.file 26 "../../tmk_core/common/action_layer.h"
 1898              		.file 27 "../../tmk_core/common/action_util.h"
 1899              		.file 28 "../../tmk_core/common/debug.h"
 1900              		.file 29 "../../tmk_core/common/action_macro.h"
 1901              		.file 30 "../../tmk_core/common/hook.h"
 1902              		.file 31 "../../tmk_core/common/action_tapping.h"
 1903              		.file 32 "../../tmk_core/tool/chibios/ChibiOS/os/rt/include/chthreads.h"
 1904              		.file 33 "<built-in>"