ARM GAS  /var/folders/t8/16hdwfmd2fg_d3q6dgx6bpmw0000gn/T//cctlI9p4.s 			page 1


   1              		.cpu cortex-m0plus
   2              		.eabi_attribute 20, 1
   3              		.eabi_attribute 21, 1
   4              		.eabi_attribute 23, 3
   5              		.eabi_attribute 24, 1
   6              		.eabi_attribute 25, 1
   7              		.eabi_attribute 26, 1
   8              		.eabi_attribute 30, 2
   9              		.eabi_attribute 34, 0
  10              		.eabi_attribute 18, 4
  11              		.file	"action_macro.c"
  12              		.text
  13              	.Ltext0:
  14              		.cfi_sections	.debug_frame
  15              		.section	.text.action_macro_play,"ax",%progbits
  16              		.align	1
  17              		.p2align 4,,15
  18              		.global	action_macro_play
  19              		.syntax unified
  20              		.code	16
  21              		.thumb_func
  22              		.fpu softvfp
  23              		.type	action_macro_play, %function
  24              	action_macro_play:
  25              	.LFB177:
  26              		.file 1 "../../tmk_core/common/action_macro.c"
  27              		.loc 1 33 0
  28              		.cfi_startproc
  29              		@ args = 0, pretend = 0, frame = 0
  30              		@ frame_needed = 0, uses_anonymous_args = 0
  31              	.LVL0:
  32 0000 F0B5     		push	{r4, r5, r6, r7, lr}
  33              		.cfi_def_cfa_offset 20
  34              		.cfi_offset 4, -20
  35              		.cfi_offset 5, -16
  36              		.cfi_offset 6, -12
  37              		.cfi_offset 7, -8
  38              		.cfi_offset 14, -4
  39 0002 D646     		mov	lr, r10
  40 0004 4F46     		mov	r7, r9
  41 0006 4646     		mov	r6, r8
  42 0008 0500     		movs	r5, r0
  43 000a C0B5     		push	{r6, r7, lr}
  44              		.cfi_def_cfa_offset 32
  45              		.cfi_offset 8, -32
  46              		.cfi_offset 9, -28
  47              		.cfi_offset 10, -24
  48              		.loc 1 39 0
  49 000c 0028     		cmp	r0, #0
  50 000e 3DD0     		beq	.L1
  51              		.loc 1 88 0
  52 0010 7F23     		movs	r3, #127
  53 0012 9946     		mov	r9, r3
  54              		.loc 1 46 0
  55 0014 783B     		subs	r3, r3, #120
  56              		.loc 1 37 0
  57 0016 0027     		movs	r7, #0
ARM GAS  /var/folders/t8/16hdwfmd2fg_d3q6dgx6bpmw0000gn/T//cctlI9p4.s 			page 2


  58              		.loc 1 35 0
  59 0018 0026     		movs	r6, #0
  60              		.loc 1 46 0
  61 001a 9846     		mov	r8, r3
  62              	.LVL1:
  63              	.L20:
  64              		.loc 1 41 0
  65 001c 2878     		ldrb	r0, [r5]
  66 001e 6C1C     		adds	r4, r5, #1
  67              	.LVL2:
  68 0020 7528     		cmp	r0, #117
  69 0022 22D0     		beq	.L3
  70              	.L34:
  71 0024 7528     		cmp	r0, #117
  72 0026 23D8     		bhi	.L4
  73 0028 7328     		cmp	r0, #115
  74 002a 51D8     		bhi	.L5
  75 002c 0428     		cmp	r0, #4
  76 002e 4BD2     		bcs	.L6
  77 0030 0128     		cmp	r0, #1
  78 0032 38D0     		beq	.L7
  79 0034 0228     		cmp	r0, #2
  80 0036 29D1     		bne	.L1
  81              		.loc 1 53 0
  82 0038 6878     		ldrb	r0, [r5, #1]
  83              	.LVL3:
  84 003a AC1C     		adds	r4, r5, #2
  85              	.LVL4:
  86              		.loc 1 55 0
  87 003c 0300     		movs	r3, r0
  88 003e 2033     		adds	r3, r3, #32
  89 0040 DBB2     		uxtb	r3, r3
  90 0042 072B     		cmp	r3, #7
  91 0044 64D9     		bls	.L33
  92              	.LVL5:
  93              	.L31:
  94              		.loc 1 88 0
  95 0046 FFF7FEFF 		bl	unregister_code
  96              	.LVL6:
  97              		.loc 1 41 0
  98 004a 2500     		movs	r5, r4
  99              	.LVL7:
 100              	.L15:
 101              	.LBB2:
 102              		.loc 1 95 0
 103 004c 741E     		subs	r4, r6, #1
 104 004e E4B2     		uxtb	r4, r4
 105              	.LVL8:
 106 0050 002E     		cmp	r6, #0
 107 0052 E3D0     		beq	.L20
 108              	.L19:
 109              		.loc 1 95 0 is_stmt 0 discriminator 3
 110 0054 013C     		subs	r4, r4, #1
 111              	.LVL9:
 112 0056 0120     		movs	r0, #1
 113 0058 E4B2     		uxtb	r4, r4
 114 005a FFF7FEFF 		bl	chThdSleep
ARM GAS  /var/folders/t8/16hdwfmd2fg_d3q6dgx6bpmw0000gn/T//cctlI9p4.s 			page 3


 115              	.LVL10:
 116 005e FF2C     		cmp	r4, #255
 117 0060 F8D1     		bne	.L19
 118              	.LBE2:
 119              		.loc 1 41 0 is_stmt 1
 120 0062 2878     		ldrb	r0, [r5]
 121 0064 6C1C     		adds	r4, r5, #1
 122              	.LVL11:
 123 0066 7528     		cmp	r0, #117
 124 0068 DCD1     		bne	.L34
 125              	.L3:
 126              	.LVL12:
 127              		.loc 1 68 0
 128 006a 6E78     		ldrb	r6, [r5, #1]
 129              	.LVL13:
 130 006c 0235     		adds	r5, r5, #2
 131              	.LVL14:
 132              		.loc 1 70 0
 133 006e EDE7     		b	.L15
 134              	.LVL15:
 135              	.L4:
 136              		.loc 1 41 0
 137 0070 7828     		cmp	r0, #120
 138 0072 3DD0     		beq	.L9
 139 0074 0FD8     		bhi	.L10
 140 0076 7628     		cmp	r0, #118
 141 0078 40D0     		beq	.L11
 142 007a 7728     		cmp	r0, #119
 143 007c 06D1     		bne	.L1
 144              		.loc 1 75 0
 145 007e 3800     		movs	r0, r7
 146              	.LVL16:
 147 0080 FFF7FEFF 		bl	set_mods
 148              	.LVL17:
 149              		.loc 1 41 0
 150 0084 2500     		movs	r5, r4
 151              		.loc 1 76 0
 152 0086 FFF7FEFF 		bl	send_keyboard_report
 153              	.LVL18:
 154              		.loc 1 77 0
 155 008a DFE7     		b	.L15
 156              	.LVL19:
 157              	.L1:
 158              		.loc 1 97 0
 159              		@ sp needed
 160 008c 1CBC     		pop	{r2, r3, r4}
 161 008e 9046     		mov	r8, r2
 162 0090 9946     		mov	r9, r3
 163 0092 A246     		mov	r10, r4
 164 0094 F0BD     		pop	{r4, r5, r6, r7, pc}
 165              	.LVL20:
 166              	.L10:
 167              		.loc 1 41 0
 168 0096 0300     		movs	r3, r0
 169 0098 7C33     		adds	r3, r3, #124
 170 009a DBB2     		uxtb	r3, r3
 171 009c 6F2B     		cmp	r3, #111
ARM GAS  /var/folders/t8/16hdwfmd2fg_d3q6dgx6bpmw0000gn/T//cctlI9p4.s 			page 4


 172 009e F5D8     		bhi	.L1
 173              		.loc 1 88 0
 174 00a0 4B46     		mov	r3, r9
 175 00a2 1840     		ands	r0, r3
 176              	.LVL21:
 177 00a4 CFE7     		b	.L31
 178              	.LVL22:
 179              	.L7:
 180              		.loc 1 43 0
 181 00a6 6B78     		ldrb	r3, [r5, #1]
 182 00a8 AC1C     		adds	r4, r5, #2
 183              	.LVL23:
 184              		.loc 1 45 0
 185 00aa 1A00     		movs	r2, r3
 186 00ac 2032     		adds	r2, r2, #32
 187 00ae D2B2     		uxtb	r2, r2
 188 00b0 072A     		cmp	r2, #7
 189 00b2 28D8     		bhi	.L14
 190              		.loc 1 46 0
 191 00b4 4246     		mov	r2, r8
 192 00b6 1340     		ands	r3, r2
 193              	.LVL24:
 194 00b8 9840     		lsls	r0, r0, r3
 195 00ba C0B2     		uxtb	r0, r0
 196 00bc FFF7FEFF 		bl	add_weak_mods
 197              	.LVL25:
 198              		.loc 1 43 0
 199 00c0 2500     		movs	r5, r4
 200              		.loc 1 47 0
 201 00c2 FFF7FEFF 		bl	send_keyboard_report
 202              	.LVL26:
 203 00c6 C1E7     		b	.L15
 204              	.LVL27:
 205              	.L6:
 206              		.loc 1 84 0
 207 00c8 FFF7FEFF 		bl	register_code
 208              	.LVL28:
 209              		.loc 1 41 0
 210 00cc 2500     		movs	r5, r4
 211              		.loc 1 85 0
 212 00ce BDE7     		b	.L15
 213              	.LVL29:
 214              	.L5:
 215              		.loc 1 63 0
 216 00d0 AB1C     		adds	r3, r5, #2
 217 00d2 9A46     		mov	r10, r3
 218              	.LVL30:
 219 00d4 6B78     		ldrb	r3, [r5, #1]
 220              	.LVL31:
 221              	.LBB3:
 222              		.loc 1 65 0
 223 00d6 5C1E     		subs	r4, r3, #1
 224 00d8 E4B2     		uxtb	r4, r4
 225              	.LVL32:
 226 00da 002B     		cmp	r3, #0
 227 00dc 06D0     		beq	.L21
 228              	.LVL33:
ARM GAS  /var/folders/t8/16hdwfmd2fg_d3q6dgx6bpmw0000gn/T//cctlI9p4.s 			page 5


 229              	.L17:
 230              		.loc 1 65 0 is_stmt 0 discriminator 3
 231 00de 013C     		subs	r4, r4, #1
 232              	.LVL34:
 233 00e0 0120     		movs	r0, #1
 234 00e2 E4B2     		uxtb	r4, r4
 235 00e4 FFF7FEFF 		bl	chThdSleep
 236              	.LVL35:
 237 00e8 FF2C     		cmp	r4, #255
 238 00ea F8D1     		bne	.L17
 239              	.L21:
 240              	.LBE3:
 241              		.loc 1 63 0 is_stmt 1
 242 00ec 5546     		mov	r5, r10
 243 00ee ADE7     		b	.L15
 244              	.LVL36:
 245              	.L9:
 246              		.loc 1 79 0
 247 00f0 FFF7FEFF 		bl	clear_mods
 248              	.LVL37:
 249              		.loc 1 41 0
 250 00f4 2500     		movs	r5, r4
 251              		.loc 1 80 0
 252 00f6 FFF7FEFF 		bl	send_keyboard_report
 253              	.LVL38:
 254              		.loc 1 81 0
 255 00fa A7E7     		b	.L15
 256              	.LVL39:
 257              	.L11:
 258              		.loc 1 72 0
 259 00fc FFF7FEFF 		bl	get_mods
 260              	.LVL40:
 261              		.loc 1 41 0
 262 0100 2500     		movs	r5, r4
 263              		.loc 1 72 0
 264 0102 0700     		movs	r7, r0
 265              	.LVL41:
 266              		.loc 1 73 0
 267 0104 A2E7     		b	.L15
 268              	.LVL42:
 269              	.L14:
 270              		.loc 1 49 0
 271 0106 1800     		movs	r0, r3
 272 0108 FFF7FEFF 		bl	register_code
 273              	.LVL43:
 274              		.loc 1 43 0
 275 010c 2500     		movs	r5, r4
 276 010e 9DE7     		b	.L15
 277              	.LVL44:
 278              	.L33:
 279              		.loc 1 56 0
 280 0110 4346     		mov	r3, r8
 281 0112 1840     		ands	r0, r3
 282              	.LVL45:
 283 0114 0123     		movs	r3, #1
 284 0116 8340     		lsls	r3, r3, r0
 285 0118 D8B2     		uxtb	r0, r3
ARM GAS  /var/folders/t8/16hdwfmd2fg_d3q6dgx6bpmw0000gn/T//cctlI9p4.s 			page 6


 286 011a FFF7FEFF 		bl	del_weak_mods
 287              	.LVL46:
 288              		.loc 1 53 0
 289 011e 2500     		movs	r5, r4
 290              		.loc 1 57 0
 291 0120 FFF7FEFF 		bl	send_keyboard_report
 292              	.LVL47:
 293 0124 92E7     		b	.L15
 294              		.cfi_endproc
 295              	.LFE177:
 296              		.size	action_macro_play, .-action_macro_play
 297 0126 C046     		.text
 298              	.Letext0:
 299              		.file 2 "/usr/local/Caskroom/gcc-arm-embedded/7-2017-q4-major/gcc-arm-none-eabi-7-2017-q4-major/ar
 300              		.file 3 "/usr/local/Caskroom/gcc-arm-embedded/7-2017-q4-major/gcc-arm-none-eabi-7-2017-q4-major/ar
 301              		.file 4 "../../tmk_core/common/action_macro.h"
 302              		.file 5 "../../tmk_core/common/keycode.h"
 303              		.file 6 "/usr/local/Caskroom/gcc-arm-embedded/7-2017-q4-major/gcc-arm-none-eabi-7-2017-q4-major/li
 304              		.file 7 "../../tmk_core/tool/chibios/ChibiOS/os/common/ports/ARMCMx/compilers/GCC/chtypes.h"
 305              		.file 8 "../../tmk_core/tool/chibios/ChibiOS/os/rt/include/chsystypes.h"
 306              		.file 9 "../../tmk_core/tool/chibios/ChibiOS/os/rt/include/chschd.h"
 307              		.file 10 "../../tmk_core/tool/chibios/ChibiOS-Contrib/os/common/ext/CMSIS/KINETIS/kl2xz.h"
 308              		.file 11 "../../tmk_core/tool/chibios/ChibiOS/os/common/ports/ARMCMx/chcore.h"
 309              		.file 12 "../../tmk_core/tool/chibios/ChibiOS/os/common/ports/ARMCMx/chcore_v6m.h"
 310              		.file 13 "../../tmk_core/tool/chibios/ChibiOS/os/rt/include/chsem.h"
 311              		.file 14 "../../tmk_core/tool/chibios/ChibiOS/os/rt/include/chmtx.h"
 312              		.file 15 "../../tmk_core/tool/chibios/ChibiOS/os/rt/include/chregistry.h"
 313              		.file 16 "../../tmk_core/tool/chibios/ChibiOS/os/rt/include/chsys.h"
 314              		.file 17 "../../tmk_core/tool/chibios/ChibiOS-Contrib/os/hal/ports/KINETIS/LLD/hal_pal_lld.h"
 315              		.file 18 "../../tmk_core/tool/chibios/ChibiOS/os/hal/include/hal_usb.h"
 316              		.file 19 "../../tmk_core/tool/chibios/ChibiOS-Contrib/os/hal/ports/KINETIS/LLD/hal_usb_lld.h"
 317              		.file 20 "../../tmk_core/common/report.h"
 318              		.file 21 "../../tmk_core/common/action_util.h"
 319              		.file 22 "../../tmk_core/common/debug.h"
 320              		.file 23 "../../tmk_core/tool/chibios/ChibiOS/os/rt/include/chthreads.h"
 321              		.file 24 "../../tmk_core/common/action.h"