ARM GAS  /var/folders/t8/16hdwfmd2fg_d3q6dgx6bpmw0000gn/T//cckCHOhb.s 			page 1


   1              		.cpu cortex-m0plus
   2              		.eabi_attribute 20, 1
   3              		.eabi_attribute 21, 1
   4              		.eabi_attribute 23, 3
   5              		.eabi_attribute 24, 1
   6              		.eabi_attribute 25, 1
   7              		.eabi_attribute 26, 1
   8              		.eabi_attribute 30, 2
   9              		.eabi_attribute 34, 0
  10              		.eabi_attribute 18, 4
  11              		.file	"action_layer.c"
  12              		.text
  13              	.Ltext0:
  14              		.cfi_sections	.debug_frame
  15              		.section	.text.default_layer_debug,"ax",%progbits
  16              		.align	1
  17              		.p2align 4,,15
  18              		.global	default_layer_debug
  19              		.syntax unified
  20              		.code	16
  21              		.thumb_func
  22              		.fpu softvfp
  23              		.type	default_layer_debug, %function
  24              	default_layer_debug:
  25              	.LFB4:
  26              		.file 1 "../../tmk_core/common/action_layer.c"
  27              		.loc 1 31 0
  28              		.cfi_startproc
  29              		@ args = 0, pretend = 0, frame = 0
  30              		@ frame_needed = 0, uses_anonymous_args = 0
  31              		@ link register save eliminated.
  32              		.loc 1 33 0
  33              		@ sp needed
  34 0000 7047     		bx	lr
  35              		.cfi_endproc
  36              	.LFE4:
  37              		.size	default_layer_debug, .-default_layer_debug
  38 0002 C046     		.section	.text.default_layer_set,"ax",%progbits
  39              		.align	1
  40              		.p2align 4,,15
  41              		.global	default_layer_set
  42              		.syntax unified
  43              		.code	16
  44              		.thumb_func
  45              		.fpu softvfp
  46              		.type	default_layer_set, %function
  47              	default_layer_set:
  48              	.LFB5:
  49              		.loc 1 36 0
  50              		.cfi_startproc
  51              		@ args = 0, pretend = 0, frame = 0
  52              		@ frame_needed = 0, uses_anonymous_args = 0
  53              	.LVL0:
  54 0000 10B5     		push	{r4, lr}
  55              		.cfi_def_cfa_offset 8
  56              		.cfi_offset 4, -8
  57              		.cfi_offset 14, -4
ARM GAS  /var/folders/t8/16hdwfmd2fg_d3q6dgx6bpmw0000gn/T//cckCHOhb.s 			page 2


  58              	.LBB34:
  59              	.LBB35:
  60              		.loc 1 24 0
  61 0002 034B     		ldr	r3, .L4
  62              	.LBE35:
  63              	.LBE34:
  64              		.loc 1 38 0
  65              		@ sp needed
  66              	.LBB37:
  67              	.LBB36:
  68              		.loc 1 24 0
  69 0004 1860     		str	r0, [r3]
  70              		.loc 1 25 0
  71 0006 FFF7FEFF 		bl	hook_default_layer_change
  72              	.LVL1:
  73              		.loc 1 27 0
  74 000a FFF7FEFF 		bl	clear_keyboard_but_mods
  75              	.LVL2:
  76              	.LBE36:
  77              	.LBE37:
  78              		.loc 1 38 0
  79 000e 10BD     		pop	{r4, pc}
  80              	.L5:
  81              		.align	2
  82              	.L4:
  83 0010 00000000 		.word	.LANCHOR0
  84              		.cfi_endproc
  85              	.LFE5:
  86              		.size	default_layer_set, .-default_layer_set
  87              		.section	.text.default_layer_or,"ax",%progbits
  88              		.align	1
  89              		.p2align 4,,15
  90              		.global	default_layer_or
  91              		.syntax unified
  92              		.code	16
  93              		.thumb_func
  94              		.fpu softvfp
  95              		.type	default_layer_or, %function
  96              	default_layer_or:
  97              	.LFB6:
  98              		.loc 1 42 0
  99              		.cfi_startproc
 100              		@ args = 0, pretend = 0, frame = 0
 101              		@ frame_needed = 0, uses_anonymous_args = 0
 102              	.LVL3:
 103 0000 10B5     		push	{r4, lr}
 104              		.cfi_def_cfa_offset 8
 105              		.cfi_offset 4, -8
 106              		.cfi_offset 14, -4
 107              		.loc 1 43 0
 108 0002 044B     		ldr	r3, .L7
 109              		.loc 1 44 0
 110              		@ sp needed
 111              		.loc 1 43 0
 112 0004 1A68     		ldr	r2, [r3]
 113 0006 1043     		orrs	r0, r2
 114              	.LVL4:
ARM GAS  /var/folders/t8/16hdwfmd2fg_d3q6dgx6bpmw0000gn/T//cckCHOhb.s 			page 3


 115              	.LBB38:
 116              	.LBB39:
 117              		.loc 1 24 0
 118 0008 1860     		str	r0, [r3]
 119              		.loc 1 25 0
 120 000a FFF7FEFF 		bl	hook_default_layer_change
 121              	.LVL5:
 122              		.loc 1 27 0
 123 000e FFF7FEFF 		bl	clear_keyboard_but_mods
 124              	.LVL6:
 125              	.LBE39:
 126              	.LBE38:
 127              		.loc 1 44 0
 128 0012 10BD     		pop	{r4, pc}
 129              	.L8:
 130              		.align	2
 131              	.L7:
 132 0014 00000000 		.word	.LANCHOR0
 133              		.cfi_endproc
 134              	.LFE6:
 135              		.size	default_layer_or, .-default_layer_or
 136              		.section	.text.default_layer_and,"ax",%progbits
 137              		.align	1
 138              		.p2align 4,,15
 139              		.global	default_layer_and
 140              		.syntax unified
 141              		.code	16
 142              		.thumb_func
 143              		.fpu softvfp
 144              		.type	default_layer_and, %function
 145              	default_layer_and:
 146              	.LFB7:
 147              		.loc 1 46 0
 148              		.cfi_startproc
 149              		@ args = 0, pretend = 0, frame = 0
 150              		@ frame_needed = 0, uses_anonymous_args = 0
 151              	.LVL7:
 152 0000 10B5     		push	{r4, lr}
 153              		.cfi_def_cfa_offset 8
 154              		.cfi_offset 4, -8
 155              		.cfi_offset 14, -4
 156              		.loc 1 47 0
 157 0002 044B     		ldr	r3, .L10
 158              		.loc 1 48 0
 159              		@ sp needed
 160              		.loc 1 47 0
 161 0004 1A68     		ldr	r2, [r3]
 162 0006 1040     		ands	r0, r2
 163              	.LVL8:
 164              	.LBB40:
 165              	.LBB41:
 166              		.loc 1 24 0
 167 0008 1860     		str	r0, [r3]
 168              		.loc 1 25 0
 169 000a FFF7FEFF 		bl	hook_default_layer_change
 170              	.LVL9:
 171              		.loc 1 27 0
ARM GAS  /var/folders/t8/16hdwfmd2fg_d3q6dgx6bpmw0000gn/T//cckCHOhb.s 			page 4


 172 000e FFF7FEFF 		bl	clear_keyboard_but_mods
 173              	.LVL10:
 174              	.LBE41:
 175              	.LBE40:
 176              		.loc 1 48 0
 177 0012 10BD     		pop	{r4, pc}
 178              	.L11:
 179              		.align	2
 180              	.L10:
 181 0014 00000000 		.word	.LANCHOR0
 182              		.cfi_endproc
 183              	.LFE7:
 184              		.size	default_layer_and, .-default_layer_and
 185              		.section	.text.default_layer_xor,"ax",%progbits
 186              		.align	1
 187              		.p2align 4,,15
 188              		.global	default_layer_xor
 189              		.syntax unified
 190              		.code	16
 191              		.thumb_func
 192              		.fpu softvfp
 193              		.type	default_layer_xor, %function
 194              	default_layer_xor:
 195              	.LFB8:
 196              		.loc 1 50 0
 197              		.cfi_startproc
 198              		@ args = 0, pretend = 0, frame = 0
 199              		@ frame_needed = 0, uses_anonymous_args = 0
 200              	.LVL11:
 201 0000 10B5     		push	{r4, lr}
 202              		.cfi_def_cfa_offset 8
 203              		.cfi_offset 4, -8
 204              		.cfi_offset 14, -4
 205              		.loc 1 51 0
 206 0002 044B     		ldr	r3, .L13
 207              		.loc 1 52 0
 208              		@ sp needed
 209              		.loc 1 51 0
 210 0004 1A68     		ldr	r2, [r3]
 211 0006 5040     		eors	r0, r2
 212              	.LVL12:
 213              	.LBB42:
 214              	.LBB43:
 215              		.loc 1 24 0
 216 0008 1860     		str	r0, [r3]
 217              		.loc 1 25 0
 218 000a FFF7FEFF 		bl	hook_default_layer_change
 219              	.LVL13:
 220              		.loc 1 27 0
 221 000e FFF7FEFF 		bl	clear_keyboard_but_mods
 222              	.LVL14:
 223              	.LBE43:
 224              	.LBE42:
 225              		.loc 1 52 0
 226 0012 10BD     		pop	{r4, pc}
 227              	.L14:
 228              		.align	2
ARM GAS  /var/folders/t8/16hdwfmd2fg_d3q6dgx6bpmw0000gn/T//cckCHOhb.s 			page 5


 229              	.L13:
 230 0014 00000000 		.word	.LANCHOR0
 231              		.cfi_endproc
 232              	.LFE8:
 233              		.size	default_layer_xor, .-default_layer_xor
 234              		.section	.text.layer_clear,"ax",%progbits
 235              		.align	1
 236              		.p2align 4,,15
 237              		.global	layer_clear
 238              		.syntax unified
 239              		.code	16
 240              		.thumb_func
 241              		.fpu softvfp
 242              		.type	layer_clear, %function
 243              	layer_clear:
 244              	.LFB10:
 245              		.loc 1 73 0
 246              		.cfi_startproc
 247              		@ args = 0, pretend = 0, frame = 0
 248              		@ frame_needed = 0, uses_anonymous_args = 0
 249              	.LVL15:
 250              	.LBB44:
 251              	.LBB45:
 252              		.loc 1 66 0
 253 0000 0022     		movs	r2, #0
 254              	.LBE45:
 255              	.LBE44:
 256              		.loc 1 73 0
 257 0002 10B5     		push	{r4, lr}
 258              		.cfi_def_cfa_offset 8
 259              		.cfi_offset 4, -8
 260              		.cfi_offset 14, -4
 261              	.LBB48:
 262              	.LBB46:
 263              		.loc 1 66 0
 264 0004 034B     		ldr	r3, .L16
 265              		.loc 1 67 0
 266 0006 0020     		movs	r0, #0
 267              		.loc 1 66 0
 268 0008 1A60     		str	r2, [r3]
 269              	.LBE46:
 270              	.LBE48:
 271              		.loc 1 75 0
 272              		@ sp needed
 273              	.LBB49:
 274              	.LBB47:
 275              		.loc 1 67 0
 276 000a FFF7FEFF 		bl	hook_layer_change
 277              	.LVL16:
 278              		.loc 1 69 0
 279 000e FFF7FEFF 		bl	clear_keyboard_but_mods
 280              	.LVL17:
 281              	.LBE47:
 282              	.LBE49:
 283              		.loc 1 75 0
 284 0012 10BD     		pop	{r4, pc}
 285              	.L17:
ARM GAS  /var/folders/t8/16hdwfmd2fg_d3q6dgx6bpmw0000gn/T//cckCHOhb.s 			page 6


 286              		.align	2
 287              	.L16:
 288 0014 00000000 		.word	.LANCHOR1
 289              		.cfi_endproc
 290              	.LFE10:
 291              		.size	layer_clear, .-layer_clear
 292              		.section	.text.layer_move,"ax",%progbits
 293              		.align	1
 294              		.p2align 4,,15
 295              		.global	layer_move
 296              		.syntax unified
 297              		.code	16
 298              		.thumb_func
 299              		.fpu softvfp
 300              		.type	layer_move, %function
 301              	layer_move:
 302              	.LFB11:
 303              		.loc 1 78 0
 304              		.cfi_startproc
 305              		@ args = 0, pretend = 0, frame = 0
 306              		@ frame_needed = 0, uses_anonymous_args = 0
 307              	.LVL18:
 308              		.loc 1 79 0
 309 0000 0123     		movs	r3, #1
 310 0002 8340     		lsls	r3, r3, r0
 311 0004 1800     		movs	r0, r3
 312              	.LVL19:
 313              		.loc 1 78 0
 314 0006 10B5     		push	{r4, lr}
 315              		.cfi_def_cfa_offset 8
 316              		.cfi_offset 4, -8
 317              		.cfi_offset 14, -4
 318              	.LBB50:
 319              	.LBB51:
 320              		.loc 1 66 0
 321 0008 034B     		ldr	r3, .L19
 322              	.LBE51:
 323              	.LBE50:
 324              		.loc 1 80 0
 325              		@ sp needed
 326              	.LBB53:
 327              	.LBB52:
 328              		.loc 1 66 0
 329 000a 1860     		str	r0, [r3]
 330              		.loc 1 67 0
 331 000c FFF7FEFF 		bl	hook_layer_change
 332              	.LVL20:
 333              		.loc 1 69 0
 334 0010 FFF7FEFF 		bl	clear_keyboard_but_mods
 335              	.LVL21:
 336              	.LBE52:
 337              	.LBE53:
 338              		.loc 1 80 0
 339 0014 10BD     		pop	{r4, pc}
 340              	.L20:
 341 0016 C046     		.align	2
 342              	.L19:
ARM GAS  /var/folders/t8/16hdwfmd2fg_d3q6dgx6bpmw0000gn/T//cckCHOhb.s 			page 7


 343 0018 00000000 		.word	.LANCHOR1
 344              		.cfi_endproc
 345              	.LFE11:
 346              		.size	layer_move, .-layer_move
 347              		.section	.text.layer_on,"ax",%progbits
 348              		.align	1
 349              		.p2align 4,,15
 350              		.global	layer_on
 351              		.syntax unified
 352              		.code	16
 353              		.thumb_func
 354              		.fpu softvfp
 355              		.type	layer_on, %function
 356              	layer_on:
 357              	.LFB12:
 358              		.loc 1 83 0
 359              		.cfi_startproc
 360              		@ args = 0, pretend = 0, frame = 0
 361              		@ frame_needed = 0, uses_anonymous_args = 0
 362              	.LVL22:
 363 0000 0300     		movs	r3, r0
 364              		.loc 1 84 0
 365 0002 0120     		movs	r0, #1
 366              	.LVL23:
 367 0004 9840     		lsls	r0, r0, r3
 368              		.loc 1 83 0
 369 0006 10B5     		push	{r4, lr}
 370              		.cfi_def_cfa_offset 8
 371              		.cfi_offset 4, -8
 372              		.cfi_offset 14, -4
 373              		.loc 1 84 0
 374 0008 044B     		ldr	r3, .L22
 375              		.loc 1 85 0
 376              		@ sp needed
 377              		.loc 1 84 0
 378 000a 1A68     		ldr	r2, [r3]
 379 000c 1043     		orrs	r0, r2
 380              	.LVL24:
 381              	.LBB54:
 382              	.LBB55:
 383              		.loc 1 66 0
 384 000e 1860     		str	r0, [r3]
 385              		.loc 1 67 0
 386 0010 FFF7FEFF 		bl	hook_layer_change
 387              	.LVL25:
 388              		.loc 1 69 0
 389 0014 FFF7FEFF 		bl	clear_keyboard_but_mods
 390              	.LVL26:
 391              	.LBE55:
 392              	.LBE54:
 393              		.loc 1 85 0
 394 0018 10BD     		pop	{r4, pc}
 395              	.L23:
 396 001a C046     		.align	2
 397              	.L22:
 398 001c 00000000 		.word	.LANCHOR1
 399              		.cfi_endproc
ARM GAS  /var/folders/t8/16hdwfmd2fg_d3q6dgx6bpmw0000gn/T//cckCHOhb.s 			page 8


 400              	.LFE12:
 401              		.size	layer_on, .-layer_on
 402              		.section	.text.layer_off,"ax",%progbits
 403              		.align	1
 404              		.p2align 4,,15
 405              		.global	layer_off
 406              		.syntax unified
 407              		.code	16
 408              		.thumb_func
 409              		.fpu softvfp
 410              		.type	layer_off, %function
 411              	layer_off:
 412              	.LFB13:
 413              		.loc 1 88 0
 414              		.cfi_startproc
 415              		@ args = 0, pretend = 0, frame = 0
 416              		@ frame_needed = 0, uses_anonymous_args = 0
 417              	.LVL27:
 418              		.loc 1 89 0
 419 0000 0123     		movs	r3, #1
 420 0002 8340     		lsls	r3, r3, r0
 421              		.loc 1 88 0
 422 0004 10B5     		push	{r4, lr}
 423              		.cfi_def_cfa_offset 8
 424              		.cfi_offset 4, -8
 425              		.cfi_offset 14, -4
 426              		.loc 1 89 0
 427 0006 044A     		ldr	r2, .L25
 428              		.loc 1 90 0
 429              		@ sp needed
 430              		.loc 1 89 0
 431 0008 1068     		ldr	r0, [r2]
 432              	.LVL28:
 433 000a 9843     		bics	r0, r3
 434              	.LVL29:
 435              	.LBB56:
 436              	.LBB57:
 437              		.loc 1 66 0
 438 000c 1060     		str	r0, [r2]
 439              		.loc 1 67 0
 440 000e FFF7FEFF 		bl	hook_layer_change
 441              	.LVL30:
 442              		.loc 1 69 0
 443 0012 FFF7FEFF 		bl	clear_keyboard_but_mods
 444              	.LVL31:
 445              	.LBE57:
 446              	.LBE56:
 447              		.loc 1 90 0
 448 0016 10BD     		pop	{r4, pc}
 449              	.L26:
 450              		.align	2
 451              	.L25:
 452 0018 00000000 		.word	.LANCHOR1
 453              		.cfi_endproc
 454              	.LFE13:
 455              		.size	layer_off, .-layer_off
 456              		.section	.text.layer_invert,"ax",%progbits
ARM GAS  /var/folders/t8/16hdwfmd2fg_d3q6dgx6bpmw0000gn/T//cckCHOhb.s 			page 9


 457              		.align	1
 458              		.p2align 4,,15
 459              		.global	layer_invert
 460              		.syntax unified
 461              		.code	16
 462              		.thumb_func
 463              		.fpu softvfp
 464              		.type	layer_invert, %function
 465              	layer_invert:
 466              	.LFB14:
 467              		.loc 1 93 0
 468              		.cfi_startproc
 469              		@ args = 0, pretend = 0, frame = 0
 470              		@ frame_needed = 0, uses_anonymous_args = 0
 471              	.LVL32:
 472 0000 0300     		movs	r3, r0
 473              		.loc 1 94 0
 474 0002 0120     		movs	r0, #1
 475              	.LVL33:
 476 0004 9840     		lsls	r0, r0, r3
 477              		.loc 1 93 0
 478 0006 10B5     		push	{r4, lr}
 479              		.cfi_def_cfa_offset 8
 480              		.cfi_offset 4, -8
 481              		.cfi_offset 14, -4
 482              		.loc 1 94 0
 483 0008 044B     		ldr	r3, .L28
 484              		.loc 1 95 0
 485              		@ sp needed
 486              		.loc 1 94 0
 487 000a 1A68     		ldr	r2, [r3]
 488 000c 5040     		eors	r0, r2
 489              	.LVL34:
 490              	.LBB58:
 491              	.LBB59:
 492              		.loc 1 66 0
 493 000e 1860     		str	r0, [r3]
 494              		.loc 1 67 0
 495 0010 FFF7FEFF 		bl	hook_layer_change
 496              	.LVL35:
 497              		.loc 1 69 0
 498 0014 FFF7FEFF 		bl	clear_keyboard_but_mods
 499              	.LVL36:
 500              	.LBE59:
 501              	.LBE58:
 502              		.loc 1 95 0
 503 0018 10BD     		pop	{r4, pc}
 504              	.L29:
 505 001a C046     		.align	2
 506              	.L28:
 507 001c 00000000 		.word	.LANCHOR1
 508              		.cfi_endproc
 509              	.LFE14:
 510              		.size	layer_invert, .-layer_invert
 511              		.section	.text.layer_or,"ax",%progbits
 512              		.align	1
 513              		.p2align 4,,15
ARM GAS  /var/folders/t8/16hdwfmd2fg_d3q6dgx6bpmw0000gn/T//cckCHOhb.s 			page 10


 514              		.global	layer_or
 515              		.syntax unified
 516              		.code	16
 517              		.thumb_func
 518              		.fpu softvfp
 519              		.type	layer_or, %function
 520              	layer_or:
 521              	.LFB15:
 522              		.loc 1 98 0
 523              		.cfi_startproc
 524              		@ args = 0, pretend = 0, frame = 0
 525              		@ frame_needed = 0, uses_anonymous_args = 0
 526              	.LVL37:
 527 0000 10B5     		push	{r4, lr}
 528              		.cfi_def_cfa_offset 8
 529              		.cfi_offset 4, -8
 530              		.cfi_offset 14, -4
 531              		.loc 1 99 0
 532 0002 044B     		ldr	r3, .L31
 533              		.loc 1 100 0
 534              		@ sp needed
 535              		.loc 1 99 0
 536 0004 1A68     		ldr	r2, [r3]
 537 0006 1043     		orrs	r0, r2
 538              	.LVL38:
 539              	.LBB60:
 540              	.LBB61:
 541              		.loc 1 66 0
 542 0008 1860     		str	r0, [r3]
 543              		.loc 1 67 0
 544 000a FFF7FEFF 		bl	hook_layer_change
 545              	.LVL39:
 546              		.loc 1 69 0
 547 000e FFF7FEFF 		bl	clear_keyboard_but_mods
 548              	.LVL40:
 549              	.LBE61:
 550              	.LBE60:
 551              		.loc 1 100 0
 552 0012 10BD     		pop	{r4, pc}
 553              	.L32:
 554              		.align	2
 555              	.L31:
 556 0014 00000000 		.word	.LANCHOR1
 557              		.cfi_endproc
 558              	.LFE15:
 559              		.size	layer_or, .-layer_or
 560              		.section	.text.layer_and,"ax",%progbits
 561              		.align	1
 562              		.p2align 4,,15
 563              		.global	layer_and
 564              		.syntax unified
 565              		.code	16
 566              		.thumb_func
 567              		.fpu softvfp
 568              		.type	layer_and, %function
 569              	layer_and:
 570              	.LFB16:
ARM GAS  /var/folders/t8/16hdwfmd2fg_d3q6dgx6bpmw0000gn/T//cckCHOhb.s 			page 11


 571              		.loc 1 102 0
 572              		.cfi_startproc
 573              		@ args = 0, pretend = 0, frame = 0
 574              		@ frame_needed = 0, uses_anonymous_args = 0
 575              	.LVL41:
 576 0000 10B5     		push	{r4, lr}
 577              		.cfi_def_cfa_offset 8
 578              		.cfi_offset 4, -8
 579              		.cfi_offset 14, -4
 580              		.loc 1 103 0
 581 0002 044B     		ldr	r3, .L34
 582              		.loc 1 104 0
 583              		@ sp needed
 584              		.loc 1 103 0
 585 0004 1A68     		ldr	r2, [r3]
 586 0006 1040     		ands	r0, r2
 587              	.LVL42:
 588              	.LBB62:
 589              	.LBB63:
 590              		.loc 1 66 0
 591 0008 1860     		str	r0, [r3]
 592              		.loc 1 67 0
 593 000a FFF7FEFF 		bl	hook_layer_change
 594              	.LVL43:
 595              		.loc 1 69 0
 596 000e FFF7FEFF 		bl	clear_keyboard_but_mods
 597              	.LVL44:
 598              	.LBE63:
 599              	.LBE62:
 600              		.loc 1 104 0
 601 0012 10BD     		pop	{r4, pc}
 602              	.L35:
 603              		.align	2
 604              	.L34:
 605 0014 00000000 		.word	.LANCHOR1
 606              		.cfi_endproc
 607              	.LFE16:
 608              		.size	layer_and, .-layer_and
 609              		.section	.text.layer_xor,"ax",%progbits
 610              		.align	1
 611              		.p2align 4,,15
 612              		.global	layer_xor
 613              		.syntax unified
 614              		.code	16
 615              		.thumb_func
 616              		.fpu softvfp
 617              		.type	layer_xor, %function
 618              	layer_xor:
 619              	.LFB17:
 620              		.loc 1 106 0
 621              		.cfi_startproc
 622              		@ args = 0, pretend = 0, frame = 0
 623              		@ frame_needed = 0, uses_anonymous_args = 0
 624              	.LVL45:
 625 0000 10B5     		push	{r4, lr}
 626              		.cfi_def_cfa_offset 8
 627              		.cfi_offset 4, -8
ARM GAS  /var/folders/t8/16hdwfmd2fg_d3q6dgx6bpmw0000gn/T//cckCHOhb.s 			page 12


 628              		.cfi_offset 14, -4
 629              		.loc 1 107 0
 630 0002 044B     		ldr	r3, .L37
 631              		.loc 1 108 0
 632              		@ sp needed
 633              		.loc 1 107 0
 634 0004 1A68     		ldr	r2, [r3]
 635 0006 5040     		eors	r0, r2
 636              	.LVL46:
 637              	.LBB64:
 638              	.LBB65:
 639              		.loc 1 66 0
 640 0008 1860     		str	r0, [r3]
 641              		.loc 1 67 0
 642 000a FFF7FEFF 		bl	hook_layer_change
 643              	.LVL47:
 644              		.loc 1 69 0
 645 000e FFF7FEFF 		bl	clear_keyboard_but_mods
 646              	.LVL48:
 647              	.LBE65:
 648              	.LBE64:
 649              		.loc 1 108 0
 650 0012 10BD     		pop	{r4, pc}
 651              	.L38:
 652              		.align	2
 653              	.L37:
 654 0014 00000000 		.word	.LANCHOR1
 655              		.cfi_endproc
 656              	.LFE17:
 657              		.size	layer_xor, .-layer_xor
 658              		.section	.text.layer_debug,"ax",%progbits
 659              		.align	1
 660              		.p2align 4,,15
 661              		.global	layer_debug
 662              		.syntax unified
 663              		.code	16
 664              		.thumb_func
 665              		.fpu softvfp
 666              		.type	layer_debug, %function
 667              	layer_debug:
 668              	.LFB21:
 669              		.cfi_startproc
 670              		@ args = 0, pretend = 0, frame = 0
 671              		@ frame_needed = 0, uses_anonymous_args = 0
 672              		@ link register save eliminated.
 673              		@ sp needed
 674 0000 7047     		bx	lr
 675              		.cfi_endproc
 676              	.LFE21:
 677              		.size	layer_debug, .-layer_debug
 678 0002 C046     		.section	.text.layer_switch_get_action,"ax",%progbits
 679              		.align	1
 680              		.p2align 4,,15
 681              		.global	layer_switch_get_action
 682              		.syntax unified
 683              		.code	16
 684              		.thumb_func
ARM GAS  /var/folders/t8/16hdwfmd2fg_d3q6dgx6bpmw0000gn/T//cckCHOhb.s 			page 13


 685              		.fpu softvfp
 686              		.type	layer_switch_get_action, %function
 687              	layer_switch_get_action:
 688              	.LFB19:
 689              		.loc 1 119 0
 690              		.cfi_startproc
 691              		@ args = 0, pretend = 0, frame = 8
 692              		@ frame_needed = 0, uses_anonymous_args = 0
 693              	.LVL49:
 694              		.loc 1 119 0
 695 0000 F0B5     		push	{r4, r5, r6, r7, lr}
 696              		.cfi_def_cfa_offset 20
 697              		.cfi_offset 4, -20
 698              		.cfi_offset 5, -16
 699              		.cfi_offset 6, -12
 700              		.cfi_offset 7, -8
 701              		.cfi_offset 14, -4
 702              		.loc 1 123 0
 703 0002 0F4B     		ldr	r3, .L52
 704              		.loc 1 119 0
 705 0004 83B0     		sub	sp, sp, #12
 706              		.cfi_def_cfa_offset 32
 707              		.loc 1 123 0
 708 0006 1D68     		ldr	r5, [r3]
 709 0008 0E4B     		ldr	r3, .L52+4
 710              		.loc 1 119 0
 711 000a 01AE     		add	r6, sp, #4
 712              		.loc 1 123 0
 713 000c 1B68     		ldr	r3, [r3]
 714              		.loc 1 119 0
 715 000e 3080     		strh	r0, [r6]
 716              		.loc 1 123 0
 717 0010 1D43     		orrs	r5, r3
 718              	.LVL50:
 719 0012 1F24     		movs	r4, #31
 720              	.LBB66:
 721              		.loc 1 126 0
 722 0014 0127     		movs	r7, #1
 723 0016 01E0     		b	.L43
 724              	.LVL51:
 725              	.L41:
 726              		.loc 1 125 0
 727 0018 013C     		subs	r4, r4, #1
 728 001a 0CD3     		bcc	.L51
 729              	.LVL52:
 730              	.L43:
 731              		.loc 1 126 0
 732 001c 2B00     		movs	r3, r5
 733 001e E340     		lsrs	r3, r3, r4
 734 0020 E0B2     		uxtb	r0, r4
 735 0022 1F42     		tst	r7, r3
 736 0024 F8D0     		beq	.L41
 737              		.loc 1 127 0
 738 0026 3168     		ldr	r1, [r6]
 739 0028 FFF7FEFF 		bl	action_for_key
 740              	.LVL53:
 741 002c 80B2     		uxth	r0, r0
ARM GAS  /var/folders/t8/16hdwfmd2fg_d3q6dgx6bpmw0000gn/T//cckCHOhb.s 			page 14


 742              	.LVL54:
 743              		.loc 1 128 0
 744 002e 0128     		cmp	r0, #1
 745 0030 F2D0     		beq	.L41
 746              	.LVL55:
 747              	.L42:
 748              	.LBE66:
 749              		.loc 1 140 0
 750 0032 03B0     		add	sp, sp, #12
 751              		@ sp needed
 752              	.LVL56:
 753 0034 F0BD     		pop	{r4, r5, r6, r7, pc}
 754              	.LVL57:
 755              	.L51:
 756              		.loc 1 134 0
 757 0036 0199     		ldr	r1, [sp, #4]
 758 0038 0020     		movs	r0, #0
 759 003a FFF7FEFF 		bl	action_for_key
 760              	.LVL58:
 761              		.loc 1 135 0
 762 003e F8E7     		b	.L42
 763              	.L53:
 764              		.align	2
 765              	.L52:
 766 0040 00000000 		.word	.LANCHOR1
 767 0044 00000000 		.word	.LANCHOR0
 768              		.cfi_endproc
 769              	.LFE19:
 770              		.size	layer_switch_get_action, .-layer_switch_get_action
 771              		.global	layer_state
 772              		.global	default_layer_state
 773              		.section	.bss.default_layer_state,"aw",%nobits
 774              		.align	2
 775              		.set	.LANCHOR0,. + 0
 776              		.type	default_layer_state, %object
 777              		.size	default_layer_state, 4
 778              	default_layer_state:
 779 0000 00000000 		.space	4
 780              		.section	.bss.layer_state,"aw",%nobits
 781              		.align	2
 782              		.set	.LANCHOR1,. + 0
 783              		.type	layer_state, %object
 784              		.size	layer_state, 4
 785              	layer_state:
 786 0000 00000000 		.space	4
 787              		.text
 788              	.Letext0:
 789              		.file 2 "/usr/local/Caskroom/gcc-arm-embedded/7-2017-q4-major/gcc-arm-none-eabi-7-2017-q4-major/ar
 790              		.file 3 "/usr/local/Caskroom/gcc-arm-embedded/7-2017-q4-major/gcc-arm-none-eabi-7-2017-q4-major/ar
 791              		.file 4 "../../tmk_core/common/keyboard.h"
 792              		.file 5 "../../tmk_core/common/action_code.h"
 793              		.file 6 "../../tmk_core/common/action_layer.h"
 794              		.file 7 "../../tmk_core/common/debug.h"
 795              		.file 8 "../../tmk_core/common/action.h"
 796              		.file 9 "../../tmk_core/common/hook.h"