ARM GAS  /var/folders/t8/16hdwfmd2fg_d3q6dgx6bpmw0000gn/T//cctlI9p4.s 			page 1


   1              		.cpu cortex-m0plus
   2              		.eabi_attribute 20, 1
   3              		.eabi_attribute 21, 1
   4              		.eabi_attribute 23, 3
   5              		.eabi_attribute 24, 1
   6              		.eabi_attribute 25, 1
   7              		.eabi_attribute 26, 1
   8              		.eabi_attribute 30, 2
   9              		.eabi_attribute 34, 0
  10              		.eabi_attribute 18, 4
  11              		.file	"action_macro.c"
  12              		.text
  13              	.Ltext0:
  14              		.cfi_sections	.debug_frame
  15              		.section	.text.action_macro_play,"ax",%progbits
  16              		.align	1
  17              		.p2align 4,,15
  18              		.global	action_macro_play
  19              		.syntax unified
  20              		.code	16
  21              		.thumb_func
  22              		.fpu softvfp
  23              		.type	action_macro_play, %function
  24              	action_macro_play:
  25              	.LFB177:
  26              		.file 1 "../../tmk_core/common/action_macro.c"
  27              		.loc 1 33 0
  28              		.cfi_startproc
  29              		@ args = 0, pretend = 0, frame = 0
  30              		@ frame_needed = 0, uses_anonymous_args = 0
  31              	.LVL0:
  32 0000 F0B5     		push	{r4, r5, r6, r7, lr}
  33              		.cfi_def_cfa_offset 20
  34              		.cfi_offset 4, -20
  35              		.cfi_offset 5, -16
  36              		.cfi_offset 6, -12
  37              		.cfi_offset 7, -8
  38              		.cfi_offset 14, -4
  39 0002 D646     		mov	lr, r10
  40 0004 4F46     		mov	r7, r9
  41 0006 4646     		mov	r6, r8
  42 0008 0500     		movs	r5, r0
  43 000a C0B5     		push	{r6, r7, lr}
  44              		.cfi_def_cfa_offset 32
  45              		.cfi_offset 8, -32
  46              		.cfi_offset 9, -28
  47              		.cfi_offset 10, -24
  48              		.loc 1 39 0
  49 000c 0028     		cmp	r0, #0
  50 000e 3DD0     		beq	.L1
  51              		.loc 1 88 0
  52 0010 7F23     		movs	r3, #127
  53 0012 9946     		mov	r9, r3
  54              		.loc 1 46 0
  55 0014 783B     		subs	r3, r3, #120
  56              		.loc 1 37 0
  57 0016 0027     		movs	r7, #0
ARM GAS  /var/folders/t8/16hdwfmd2fg_d3q6dgx6bpmw0000gn/T//cctlI9p4.s 			page 2


  58              		.loc 1 35 0
  59 0018 0026     		movs	r6, #0
  60              		.loc 1 46 0
  61 001a 9846     		mov	r8, r3
  62              	.LVL1:
  63              	.L20:
  64              		.loc 1 41 0
  65 001c 2878     		ldrb	r0, [r5]
  66 001e 6C1C     		adds	r4, r5, #1
  67              	.LVL2:
  68 0020 7528     		cmp	r0, #117
  69 0022 22D0     		beq	.L3
  70              	.L34:
  71 0024 7528     		cmp	r0, #117
  72 0026 23D8     		bhi	.L4
  73 0028 7328     		cmp	r0, #115
  74 002a 51D8     		bhi	.L5
  75 002c 0428     		cmp	r0, #4
  76 002e 4BD2     		bcs	.L6
  77 0030 0128     		cmp	r0, #1
  78 0032 38D0     		beq	.L7
  79 0034 0228     		cmp	r0, #2
  80 0036 29D1     		bne	.L1
  81              		.loc 1 53 0
  82 0038 6878     		ldrb	r0, [r5, #1]
  83              	.LVL3:
  84 003a AC1C     		adds	r4, r5, #2
  85              	.LVL4:
  86              		.loc 1 55 0
  87 003c 0300     		movs	r3, r0
  88 003e 2033     		adds	r3, r3, #32
  89 0040 DBB2     		uxtb	r3, r3
  90 0042 072B     		cmp	r3, #7
  91 0044 64D9     		bls	.L33
  92              	.LVL5:
  93              	.L31:
  94              		.loc 1 88 0
  95 0046 FFF7FEFF 		bl	unregister_code
  96              	.LVL6:
  97              		.loc 1 41 0
  98 004a 2500     		movs	r5, r4
  99              	.LVL7:
 100              	.L15:
 101              	.LBB2:
 102              		.loc 1 95 0
 103 004c 741E     		subs	r4, r6, #1
 104 004e E4B2     		uxtb	r4, r4
 105              	.LVL8:
 106 0050 002E     		cmp	r6, #0
 107 0052 E3D0     		beq	.L20
 108              	.L19:
 109              		.loc 1 95 0 is_stmt 0 discriminator 3
 110 0054 013C     		subs	r4, r4, #1
 111              	.LVL9:
 112 0056 0120     		movs	r0, #1
 113 0058 E4B2     		uxtb	r4, r4
 114 005a FFF7FEFF 		bl	chThdSleep
ARM GAS  /var/folders/t8/16hdwfmd2fg_d3q6dgx6bpmw0000gn/T//cctlI9p4.s 			page 3


 115              	.LVL10:
 116 005e FF2C     		cmp	r4, #255
 117 0060 F8D1     		bne	.L19
 118              	.LBE2:
 119              		.loc 1 41 0 is_stmt 1
 120 0062 2878     		ldrb	r0, [r5]
 121 0064 6C1C     		adds	r4, r5, #1
 122              	.LVL11:
 123 0066 7528     		cmp	r0, #117
 124 0068 DCD1     		bne	.L34
 125              	.L3:
 126              	.LVL12:
 127              		.loc 1 68 0
 128 006a 6E78     		ldrb	r6, [r5, #1]
 129              	.LVL13:
 130 006c 0235     		adds	r5, r5, #2
 131              	.LVL14:
 132              		.loc 1 70 0
 133 006e EDE7     		b	.L15
 134              	.LVL15:
 135              	.L4:
 136              		.loc 1 41 0
 137 0070 7828     		cmp	r0, #120
 138 0072 3DD0     		beq	.L9
 139 0074 0FD8     		bhi	.L10
 140 0076 7628     		cmp	r0, #118
 141 0078 40D0     		beq	.L11
 142 007a 7728     		cmp	r0, #119
 143 007c 06D1     		bne	.L1
 144              		.loc 1 75 0
 145 007e 3800     		movs	r0, r7
 146              	.LVL16:
 147 0080 FFF7FEFF 		bl	set_mods
 148              	.LVL17:
 149              		.loc 1 41 0
 150 0084 2500     		movs	r5, r4
 151              		.loc 1 76 0
 152 0086 FFF7FEFF 		bl	send_keyboard_report
 153              	.LVL18:
 154              		.loc 1 77 0
 155 008a DFE7     		b	.L15
 156              	.LVL19:
 157              	.L1:
 158              		.loc 1 97 0
 159              		@ sp needed
 160 008c 1CBC     		pop	{r2, r3, r4}
 161 008e 9046     		mov	r8, r2
 162 0090 9946     		mov	r9, r3
 163 0092 A246     		mov	r10, r4
 164 0094 F0BD     		pop	{r4, r5, r6, r7, pc}
 165              	.LVL20:
 166              	.L10:
 167              		.loc 1 41 0
 168 0096 0300     		movs	r3, r0
 169 0098 7C33     		adds	r3, r3, #124
 170 009a DBB2     		uxtb	r3, r3
 171 009c 6F2B     		cmp	r3, #111
ARM GAS  /var/folders/t8/16hdwfmd2fg_d3q6dgx6bpmw0000gn/T//cctlI9p4.s 			page 4


 172 009e F5D8     		bhi	.L1
 173              		.loc 1 88 0
 174 00a0 4B46     		mov	r3, r9
 175 00a2 1840     		ands	r0, r3
 176              	.LVL21:
 177 00a4 CFE7     		b	.L31
 178              	.LVL22:
 179              	.L7:
 180              		.loc 1 43 0
 181 00a6 6B78     		ldrb	r3, [r5, #1]
 182 00a8 AC1C     		adds	r4, r5, #2
 183              	.LVL23:
 184              		.loc 1 45 0
 185 00aa 1A00     		movs	r2, r3
 186 00ac 2032     		adds	r2, r2, #32
 187 00ae D2B2     		uxtb	r2, r2
 188 00b0 072A     		cmp	r2, #7
 189 00b2 28D8     		bhi	.L14
 190              		.loc 1 46 0
 191 00b4 4246     		mov	r2, r8
 192 00b6 1340     		ands	r3, r2
 193              	.LVL24:
 194 00b8 9840     		lsls	r0, r0, r3
 195 00ba C0B2     		uxtb	r0, r0
 196 00bc FFF7FEFF 		bl	add_weak_mods
 197              	.LVL25:
 198              		.loc 1 43 0
 199 00c0 2500     		movs	r5, r4
 200              		.loc 1 47 0
 201 00c2 FFF7FEFF 		bl	send_keyboard_report
 202              	.LVL26:
 203 00c6 C1E7     		b	.L15
 204              	.LVL27:
 205              	.L6:
 206              		.loc 1 84 0
 207 00c8 FFF7FEFF 		bl	register_code
 208              	.LVL28:
 209              		.loc 1 41 0
 210 00cc 2500     		movs	r5, r4
 211              		.loc 1 85 0
 212 00ce BDE7     		b	.L15
 213              	.LVL29:
 214              	.L5:
 215              		.loc 1 63 0
 216 00d0 AB1C     		adds	r3, r5, #2
 217 00d2 9A46     		mov	r10, r3
 218              	.LVL30:
 219 00d4 6B78     		ldrb	r3, [r5, #1]
 220              	.LVL31:
 221              	.LBB3:
 222              		.loc 1 65 0
 223 00d6 5C1E     		subs	r4, r3, #1
 224 00d8 E4B2     		uxtb	r4, r4
 225              	.LVL32:
 226 00da 002B     		cmp	r3, #0
 227 00dc 06D0     		beq	.L21
 228              	.LVL33:
ARM GAS  /var/folders/t8/16hdwfmd2fg_d3q6dgx6bpmw0000gn/T//cctlI9p4.s 			page 5


 229              	.L17:
 230              		.loc 1 65 0 is_stmt 0 discriminator 3
 231 00de 013C     		subs	r4, r4, #1
 232              	.LVL34:
 233 00e0 0120     		movs	r0, #1
 234 00e2 E4B2     		uxtb	r4, r4
 235 00e4 FFF7FEFF 		bl	chThdSleep
 236              	.LVL35:
 237 00e8 FF2C     		cmp	r4, #255
 238 00ea F8D1     		bne	.L17
 239              	.L21:
 240              	.LBE3:
 241              		.loc 1 63 0 is_stmt 1
 242 00ec 5546     		mov	r5, r10
 243 00ee ADE7     		b	.L15
 244              	.LVL36:
 245              	.L9:
 246              		.loc 1 79 0
 247 00f0 FFF7FEFF 		bl	clear_mods
 248              	.LVL37:
 249              		.loc 1 41 0
 250 00f4 2500     		movs	r5, r4
 251              		.loc 1 80 0
 252 00f6 FFF7FEFF 		bl	send_keyboard_report
 253              	.LVL38:
 254              		.loc 1 81 0
 255 00fa A7E7     		b	.L15
 256              	.LVL39:
 257              	.L11:
 258              		.loc 1 72 0
 259 00fc FFF7FEFF 		bl	get_mods
 260              	.LVL40:
 261              		.loc 1 41 0
 262 0100 2500     		movs	r5, r4
 263              		.loc 1 72 0
 264 0102 0700     		movs	r7, r0
 265              	.LVL41:
 266              		.loc 1 73 0
 267 0104 A2E7     		b	.L15
 268              	.LVL42:
 269              	.L14:
 270              		.loc 1 49 0
 271 0106 1800     		movs	r0, r3
 272 0108 FFF7FEFF 		bl	register_code
 273              	.LVL43:
 274              		.loc 1 43 0
 275 010c 2500     		movs	r5, r4
 276 010e 9DE7     		b	.L15
 277              	.LVL44:
 278              	.L33:
 279              		.loc 1 56 0
 280 0110 4346     		mov	r3, r8
 281 0112 1840     		ands	r0, r3
 282              	.LVL45:
 283 0114 0123     		movs	r3, #1
 284 0116 8340     		lsls	r3, r3, r0
 285 0118 D8B2     		uxtb	r0, r3
ARM GAS  /var/folders/t8/16hdwfmd2fg_d3q6dgx6bpmw0000gn/T//cctlI9p4.s 			page 6


 286 011a FFF7FEFF 		bl	del_weak_mods
 287              	.LVL46:
 288              		.loc 1 53 0
 289 011e 2500     		movs	r5, r4
 290              		.loc 1 57 0
 291 0120 FFF7FEFF 		bl	send_keyboard_report
 292              	.LVL47:
 293 0124 92E7     		b	.L15
 294              		.cfi_endproc
 295              	.LFE177:
 296              		.size	action_macro_play, .-action_macro_play
 297 0126 C046     		.text
 298              	.Letext0:
 299              		.file 2 "/usr/local/Caskroom/gcc-arm-embedded/7-2017-q4-major/gcc-arm-none-eabi-7-2017-q4-major/ar
 300              		.file 3 "/usr/local/Caskroom/gcc-arm-embedded/7-2017-q4-major/gcc-arm-none-eabi-7-2017-q4-major/ar
 301              		.file 4 "../../tmk_core/common/action_macro.h"
 302              		.file 5 "../../tmk_core/common/keycode.h"
 303              		.file 6 "/usr/local/Caskroom/gcc-arm-embedded/7-2017-q4-major/gcc-arm-none-eabi-7-2017-q4-major/li
 304              		.file 7 "../../tmk_core/tool/chibios/ChibiOS/os/common/ports/ARMCMx/compilers/GCC/chtypes.h"
 305              		.file 8 "../../tmk_core/tool/chibios/ChibiOS/os/rt/include/chsystypes.h"
 306              		.file 9 "../../tmk_core/tool/chibios/ChibiOS/os/rt/include/chschd.h"
 307              		.file 10 "../../tmk_core/tool/chibios/ChibiOS-Contrib/os/common/ext/CMSIS/KINETIS/kl2xz.h"
 308              		.file 11 "../../tmk_core/tool/chibios/ChibiOS/os/common/ports/ARMCMx/chcore.h"
 309              		.file 12 "../../tmk_core/tool/chibios/ChibiOS/os/common/ports/ARMCMx/chcore_v6m.h"
 310              		.file 13 "../../tmk_core/tool/chibios/ChibiOS/os/rt/include/chsem.h"
 311              		.file 14 "../../tmk_core/tool/chibios/ChibiOS/os/rt/include/chmtx.h"
 312              		.file 15 "../../tmk_core/tool/chibios/ChibiOS/os/rt/include/chregistry.h"
 313              		.file 16 "../../tmk_core/tool/chibios/ChibiOS/os/rt/include/chsys.h"
 314              		.file 17 "../../tmk_core/tool/chibios/ChibiOS-Contrib/os/hal/ports/KINETIS/LLD/hal_pal_lld.h"
 315              		.file 18 "../../tmk_core/tool/chibios/ChibiOS/os/hal/include/hal_usb.h"
 316              		.file 19 "../../tmk_core/tool/chibios/ChibiOS-Contrib/os/hal/ports/KINETIS/LLD/hal_usb_lld.h"
 317              		.file 20 "../../tmk_core/common/report.h"
 318              		.file 21 "../../tmk_core/common/action_util.h"
 319              		.file 22 "../../tmk_core/common/debug.h"
 320              		.file 23 "../../tmk_core/tool/chibios/ChibiOS/os/rt/include/chthreads.h"
 321              		.file 24 "../../tmk_core/common/action.h"
 322              		.section	.debug_info,"",%progbits
 323              	.Ldebug_info0:
 324 0000 44150000 		.4byte	0x1544
 325 0004 0400     		.2byte	0x4
 326 0006 00000000 		.4byte	.Ldebug_abbrev0
 327 000a 04       		.byte	0x4
 328 000b 01       		.uleb128 0x1
 329 000c DD020000 		.4byte	.LASF460
 330 0010 0C       		.byte	0xc
 331 0011 32100000 		.4byte	.LASF461
 332 0015 02040000 		.4byte	.LASF462
 333 0019 00000000 		.4byte	.Ldebug_ranges0+0
 334 001d 00000000 		.4byte	0
 335 0021 00000000 		.4byte	.Ldebug_line0
 336 0025 02       		.uleb128 0x2
 337 0026 01       		.byte	0x1
 338 0027 06       		.byte	0x6
 339 0028 CA040000 		.4byte	.LASF0
 340 002c 03       		.uleb128 0x3
 341 002d 18020000 		.4byte	.LASF3
 342 0031 02       		.byte	0x2
ARM GAS  /var/folders/t8/16hdwfmd2fg_d3q6dgx6bpmw0000gn/T//cctlI9p4.s 			page 7


 343 0032 2B       		.byte	0x2b
 344 0033 37000000 		.4byte	0x37
 345 0037 02       		.uleb128 0x2
 346 0038 01       		.byte	0x1
 347 0039 08       		.byte	0x8
 348 003a 6D050000 		.4byte	.LASF1
 349 003e 02       		.uleb128 0x2
 350 003f 02       		.byte	0x2
 351 0040 05       		.byte	0x5
 352 0041 A20F0000 		.4byte	.LASF2
 353 0045 03       		.uleb128 0x3
 354 0046 2F060000 		.4byte	.LASF4
 355 004a 02       		.byte	0x2
 356 004b 39       		.byte	0x39
 357 004c 50000000 		.4byte	0x50
 358 0050 02       		.uleb128 0x2
 359 0051 02       		.byte	0x2
 360 0052 07       		.byte	0x7
 361 0053 21120000 		.4byte	.LASF5
 362 0057 03       		.uleb128 0x3
 363 0058 A3120000 		.4byte	.LASF6
 364 005c 02       		.byte	0x2
 365 005d 4D       		.byte	0x4d
 366 005e 62000000 		.4byte	0x62
 367 0062 02       		.uleb128 0x2
 368 0063 04       		.byte	0x4
 369 0064 05       		.byte	0x5
 370 0065 89020000 		.4byte	.LASF7
 371 0069 03       		.uleb128 0x3
 372 006a E8090000 		.4byte	.LASF8
 373 006e 02       		.byte	0x2
 374 006f 4F       		.byte	0x4f
 375 0070 74000000 		.4byte	0x74
 376 0074 02       		.uleb128 0x2
 377 0075 04       		.byte	0x4
 378 0076 07       		.byte	0x7
 379 0077 6D080000 		.4byte	.LASF9
 380 007b 02       		.uleb128 0x2
 381 007c 08       		.byte	0x8
 382 007d 05       		.byte	0x5
 383 007e 090A0000 		.4byte	.LASF10
 384 0082 03       		.uleb128 0x3
 385 0083 46080000 		.4byte	.LASF11
 386 0087 02       		.byte	0x2
 387 0088 69       		.byte	0x69
 388 0089 8D000000 		.4byte	0x8d
 389 008d 02       		.uleb128 0x2
 390 008e 08       		.byte	0x8
 391 008f 07       		.byte	0x7
 392 0090 700D0000 		.4byte	.LASF12
 393 0094 04       		.uleb128 0x4
 394 0095 04       		.byte	0x4
 395 0096 05       		.byte	0x5
 396 0097 696E7400 		.ascii	"int\000"
 397 009b 02       		.uleb128 0x2
 398 009c 04       		.byte	0x4
 399 009d 07       		.byte	0x7
ARM GAS  /var/folders/t8/16hdwfmd2fg_d3q6dgx6bpmw0000gn/T//cctlI9p4.s 			page 8


 400 009e AB0A0000 		.4byte	.LASF13
 401 00a2 03       		.uleb128 0x3
 402 00a3 DD040000 		.4byte	.LASF14
 403 00a7 03       		.byte	0x3
 404 00a8 18       		.byte	0x18
 405 00a9 2C000000 		.4byte	0x2c
 406 00ad 05       		.uleb128 0x5
 407 00ae A2000000 		.4byte	0xa2
 408 00b2 03       		.uleb128 0x3
 409 00b3 990D0000 		.4byte	.LASF15
 410 00b7 03       		.byte	0x3
 411 00b8 24       		.byte	0x24
 412 00b9 45000000 		.4byte	0x45
 413 00bd 03       		.uleb128 0x3
 414 00be A8000000 		.4byte	.LASF16
 415 00c2 03       		.byte	0x3
 416 00c3 2C       		.byte	0x2c
 417 00c4 57000000 		.4byte	0x57
 418 00c8 03       		.uleb128 0x3
 419 00c9 BD110000 		.4byte	.LASF17
 420 00cd 03       		.byte	0x3
 421 00ce 30       		.byte	0x30
 422 00cf 69000000 		.4byte	0x69
 423 00d3 06       		.uleb128 0x6
 424 00d4 C8000000 		.4byte	0xc8
 425 00d8 03       		.uleb128 0x3
 426 00d9 C90F0000 		.4byte	.LASF18
 427 00dd 03       		.byte	0x3
 428 00de 3C       		.byte	0x3c
 429 00df 82000000 		.4byte	0x82
 430 00e3 02       		.uleb128 0x2
 431 00e4 01       		.byte	0x1
 432 00e5 02       		.byte	0x2
 433 00e6 CE050000 		.4byte	.LASF19
 434 00ea 07       		.uleb128 0x7
 435 00eb 6C010000 		.4byte	.LASF240
 436 00ef 07       		.byte	0x7
 437 00f0 01       		.byte	0x1
 438 00f1 37000000 		.4byte	0x37
 439 00f5 05       		.byte	0x5
 440 00f6 B8       		.byte	0xb8
 441 00f7 1E060000 		.4byte	0x61e
 442 00fb 08       		.uleb128 0x8
 443 00fc 960A0000 		.4byte	.LASF20
 444 0100 00       		.byte	0
 445 0101 08       		.uleb128 0x8
 446 0102 070B0000 		.4byte	.LASF21
 447 0106 01       		.byte	0x1
 448 0107 08       		.uleb128 0x8
 449 0108 6A0E0000 		.4byte	.LASF22
 450 010c 02       		.byte	0x2
 451 010d 08       		.uleb128 0x8
 452 010e BC090000 		.4byte	.LASF23
 453 0112 03       		.byte	0x3
 454 0113 08       		.uleb128 0x8
 455 0114 270B0000 		.4byte	.LASF24
 456 0118 04       		.byte	0x4
ARM GAS  /var/folders/t8/16hdwfmd2fg_d3q6dgx6bpmw0000gn/T//cctlI9p4.s 			page 9


 457 0119 08       		.uleb128 0x8
 458 011a 2C0B0000 		.4byte	.LASF25
 459 011e 05       		.byte	0x5
 460 011f 08       		.uleb128 0x8
 461 0120 310B0000 		.4byte	.LASF26
 462 0124 06       		.byte	0x6
 463 0125 08       		.uleb128 0x8
 464 0126 360B0000 		.4byte	.LASF27
 465 012a 07       		.byte	0x7
 466 012b 08       		.uleb128 0x8
 467 012c 3B0B0000 		.4byte	.LASF28
 468 0130 08       		.byte	0x8
 469 0131 08       		.uleb128 0x8
 470 0132 400B0000 		.4byte	.LASF29
 471 0136 09       		.byte	0x9
 472 0137 08       		.uleb128 0x8
 473 0138 450B0000 		.4byte	.LASF30
 474 013c 0A       		.byte	0xa
 475 013d 08       		.uleb128 0x8
 476 013e 4A0B0000 		.4byte	.LASF31
 477 0142 0B       		.byte	0xb
 478 0143 08       		.uleb128 0x8
 479 0144 4F0B0000 		.4byte	.LASF32
 480 0148 0C       		.byte	0xc
 481 0149 08       		.uleb128 0x8
 482 014a 540B0000 		.4byte	.LASF33
 483 014e 0D       		.byte	0xd
 484 014f 08       		.uleb128 0x8
 485 0150 590B0000 		.4byte	.LASF34
 486 0154 0E       		.byte	0xe
 487 0155 08       		.uleb128 0x8
 488 0156 5E0B0000 		.4byte	.LASF35
 489 015a 0F       		.byte	0xf
 490 015b 08       		.uleb128 0x8
 491 015c 630B0000 		.4byte	.LASF36
 492 0160 10       		.byte	0x10
 493 0161 08       		.uleb128 0x8
 494 0162 680B0000 		.4byte	.LASF37
 495 0166 11       		.byte	0x11
 496 0167 08       		.uleb128 0x8
 497 0168 6D0B0000 		.4byte	.LASF38
 498 016c 12       		.byte	0x12
 499 016d 08       		.uleb128 0x8
 500 016e 720B0000 		.4byte	.LASF39
 501 0172 13       		.byte	0x13
 502 0173 08       		.uleb128 0x8
 503 0174 770B0000 		.4byte	.LASF40
 504 0178 14       		.byte	0x14
 505 0179 08       		.uleb128 0x8
 506 017a 7C0B0000 		.4byte	.LASF41
 507 017e 15       		.byte	0x15
 508 017f 08       		.uleb128 0x8
 509 0180 810B0000 		.4byte	.LASF42
 510 0184 16       		.byte	0x16
 511 0185 08       		.uleb128 0x8
 512 0186 860B0000 		.4byte	.LASF43
 513 018a 17       		.byte	0x17
ARM GAS  /var/folders/t8/16hdwfmd2fg_d3q6dgx6bpmw0000gn/T//cctlI9p4.s 			page 10


 514 018b 08       		.uleb128 0x8
 515 018c 8B0B0000 		.4byte	.LASF44
 516 0190 18       		.byte	0x18
 517 0191 08       		.uleb128 0x8
 518 0192 900B0000 		.4byte	.LASF45
 519 0196 19       		.byte	0x19
 520 0197 08       		.uleb128 0x8
 521 0198 950B0000 		.4byte	.LASF46
 522 019c 1A       		.byte	0x1a
 523 019d 08       		.uleb128 0x8
 524 019e 9A0B0000 		.4byte	.LASF47
 525 01a2 1B       		.byte	0x1b
 526 01a3 08       		.uleb128 0x8
 527 01a4 9F0B0000 		.4byte	.LASF48
 528 01a8 1C       		.byte	0x1c
 529 01a9 08       		.uleb128 0x8
 530 01aa A40B0000 		.4byte	.LASF49
 531 01ae 1D       		.byte	0x1d
 532 01af 08       		.uleb128 0x8
 533 01b0 E90A0000 		.4byte	.LASF50
 534 01b4 1E       		.byte	0x1e
 535 01b5 08       		.uleb128 0x8
 536 01b6 EE0A0000 		.4byte	.LASF51
 537 01ba 1F       		.byte	0x1f
 538 01bb 08       		.uleb128 0x8
 539 01bc F30A0000 		.4byte	.LASF52
 540 01c0 20       		.byte	0x20
 541 01c1 08       		.uleb128 0x8
 542 01c2 F80A0000 		.4byte	.LASF53
 543 01c6 21       		.byte	0x21
 544 01c7 08       		.uleb128 0x8
 545 01c8 FD0A0000 		.4byte	.LASF54
 546 01cc 22       		.byte	0x22
 547 01cd 08       		.uleb128 0x8
 548 01ce 020B0000 		.4byte	.LASF55
 549 01d2 23       		.byte	0x23
 550 01d3 08       		.uleb128 0x8
 551 01d4 200E0000 		.4byte	.LASF56
 552 01d8 24       		.byte	0x24
 553 01d9 08       		.uleb128 0x8
 554 01da 140B0000 		.4byte	.LASF57
 555 01de 25       		.byte	0x25
 556 01df 08       		.uleb128 0x8
 557 01e0 190B0000 		.4byte	.LASF58
 558 01e4 26       		.byte	0x26
 559 01e5 08       		.uleb128 0x8
 560 01e6 E40A0000 		.4byte	.LASF59
 561 01ea 27       		.byte	0x27
 562 01eb 08       		.uleb128 0x8
 563 01ec 830E0000 		.4byte	.LASF60
 564 01f0 28       		.byte	0x28
 565 01f1 08       		.uleb128 0x8
 566 01f2 E0030000 		.4byte	.LASF61
 567 01f6 29       		.byte	0x29
 568 01f7 08       		.uleb128 0x8
 569 01f8 7F020000 		.4byte	.LASF62
 570 01fc 2A       		.byte	0x2a
ARM GAS  /var/folders/t8/16hdwfmd2fg_d3q6dgx6bpmw0000gn/T//cctlI9p4.s 			page 11


 571 01fd 08       		.uleb128 0x8
 572 01fe 35130000 		.4byte	.LASF63
 573 0202 2B       		.byte	0x2b
 574 0203 08       		.uleb128 0x8
 575 0204 5A0D0000 		.4byte	.LASF64
 576 0208 2C       		.byte	0x2c
 577 0209 08       		.uleb128 0x8
 578 020a 67060000 		.4byte	.LASF65
 579 020e 2D       		.byte	0x2d
 580 020f 08       		.uleb128 0x8
 581 0210 D9060000 		.4byte	.LASF66
 582 0214 2E       		.byte	0x2e
 583 0215 08       		.uleb128 0x8
 584 0216 240F0000 		.4byte	.LASF67
 585 021a 2F       		.byte	0x2f
 586 021b 08       		.uleb128 0x8
 587 021c 0E120000 		.4byte	.LASF68
 588 0220 30       		.byte	0x30
 589 0221 08       		.uleb128 0x8
 590 0222 7D0C0000 		.4byte	.LASF69
 591 0226 31       		.byte	0x31
 592 0227 08       		.uleb128 0x8
 593 0228 13050000 		.4byte	.LASF70
 594 022c 32       		.byte	0x32
 595 022d 08       		.uleb128 0x8
 596 022e B60F0000 		.4byte	.LASF71
 597 0232 33       		.byte	0x33
 598 0233 08       		.uleb128 0x8
 599 0234 B4110000 		.4byte	.LASF72
 600 0238 34       		.byte	0x34
 601 0239 08       		.uleb128 0x8
 602 023a 5F040000 		.4byte	.LASF73
 603 023e 35       		.byte	0x35
 604 023f 08       		.uleb128 0x8
 605 0240 3D080000 		.4byte	.LASF74
 606 0244 36       		.byte	0x36
 607 0245 08       		.uleb128 0x8
 608 0246 90050000 		.4byte	.LASF75
 609 024a 37       		.byte	0x37
 610 024b 08       		.uleb128 0x8
 611 024c A1040000 		.4byte	.LASF76
 612 0250 38       		.byte	0x38
 613 0251 08       		.uleb128 0x8
 614 0252 84120000 		.4byte	.LASF77
 615 0256 39       		.byte	0x39
 616 0257 08       		.uleb128 0x8
 617 0258 DC050000 		.4byte	.LASF78
 618 025c 3A       		.byte	0x3a
 619 025d 08       		.uleb128 0x8
 620 025e E2050000 		.4byte	.LASF79
 621 0262 3B       		.byte	0x3b
 622 0263 08       		.uleb128 0x8
 623 0264 E8050000 		.4byte	.LASF80
 624 0268 3C       		.byte	0x3c
 625 0269 08       		.uleb128 0x8
 626 026a EE050000 		.4byte	.LASF81
 627 026e 3D       		.byte	0x3d
ARM GAS  /var/folders/t8/16hdwfmd2fg_d3q6dgx6bpmw0000gn/T//cctlI9p4.s 			page 12


 628 026f 08       		.uleb128 0x8
 629 0270 F4050000 		.4byte	.LASF82
 630 0274 3E       		.byte	0x3e
 631 0275 08       		.uleb128 0x8
 632 0276 FA050000 		.4byte	.LASF83
 633 027a 3F       		.byte	0x3f
 634 027b 08       		.uleb128 0x8
 635 027c 00060000 		.4byte	.LASF84
 636 0280 40       		.byte	0x40
 637 0281 08       		.uleb128 0x8
 638 0282 06060000 		.4byte	.LASF85
 639 0286 41       		.byte	0x41
 640 0287 08       		.uleb128 0x8
 641 0288 0C060000 		.4byte	.LASF86
 642 028c 42       		.byte	0x42
 643 028d 08       		.uleb128 0x8
 644 028e 0D0C0000 		.4byte	.LASF87
 645 0292 43       		.byte	0x43
 646 0293 08       		.uleb128 0x8
 647 0294 140C0000 		.4byte	.LASF88
 648 0298 44       		.byte	0x44
 649 0299 08       		.uleb128 0x8
 650 029a 1B0C0000 		.4byte	.LASF89
 651 029e 45       		.byte	0x45
 652 029f 08       		.uleb128 0x8
 653 02a0 4F0D0000 		.4byte	.LASF90
 654 02a4 46       		.byte	0x46
 655 02a5 08       		.uleb128 0x8
 656 02a6 F7040000 		.4byte	.LASF91
 657 02aa 47       		.byte	0x47
 658 02ab 08       		.uleb128 0x8
 659 02ac 3E020000 		.4byte	.LASF92
 660 02b0 48       		.byte	0x48
 661 02b1 08       		.uleb128 0x8
 662 02b2 8F0D0000 		.4byte	.LASF93
 663 02b6 49       		.byte	0x49
 664 02b7 08       		.uleb128 0x8
 665 02b8 70060000 		.4byte	.LASF94
 666 02bc 4A       		.byte	0x4a
 667 02bd 08       		.uleb128 0x8
 668 02be 47130000 		.4byte	.LASF95
 669 02c2 4B       		.byte	0x4b
 670 02c3 08       		.uleb128 0x8
 671 02c4 380F0000 		.4byte	.LASF96
 672 02c8 4C       		.byte	0x4c
 673 02c9 08       		.uleb128 0x8
 674 02ca 16080000 		.4byte	.LASF97
 675 02ce 4D       		.byte	0x4d
 676 02cf 08       		.uleb128 0x8
 677 02d0 25070000 		.4byte	.LASF98
 678 02d4 4E       		.byte	0x4e
 679 02d5 08       		.uleb128 0x8
 680 02d6 17130000 		.4byte	.LASF99
 681 02da 4F       		.byte	0x4f
 682 02db 08       		.uleb128 0x8
 683 02dc 3A010000 		.4byte	.LASF100
 684 02e0 50       		.byte	0x50
ARM GAS  /var/folders/t8/16hdwfmd2fg_d3q6dgx6bpmw0000gn/T//cctlI9p4.s 			page 13


 685 02e1 08       		.uleb128 0x8
 686 02e2 EA0B0000 		.4byte	.LASF101
 687 02e6 51       		.byte	0x51
 688 02e7 08       		.uleb128 0x8
 689 02e8 FE0E0000 		.4byte	.LASF102
 690 02ec 52       		.byte	0x52
 691 02ed 08       		.uleb128 0x8
 692 02ee 290A0000 		.4byte	.LASF103
 693 02f2 53       		.byte	0x53
 694 02f3 08       		.uleb128 0x8
 695 02f4 E00C0000 		.4byte	.LASF104
 696 02f8 54       		.byte	0x54
 697 02f9 08       		.uleb128 0x8
 698 02fa CB0A0000 		.4byte	.LASF105
 699 02fe 55       		.byte	0x55
 700 02ff 08       		.uleb128 0x8
 701 0300 F20E0000 		.4byte	.LASF106
 702 0304 56       		.byte	0x56
 703 0305 08       		.uleb128 0x8
 704 0306 8B100000 		.4byte	.LASF107
 705 030a 57       		.byte	0x57
 706 030b 08       		.uleb128 0x8
 707 030c 21050000 		.4byte	.LASF108
 708 0310 58       		.byte	0x58
 709 0311 08       		.uleb128 0x8
 710 0312 94010000 		.4byte	.LASF109
 711 0316 59       		.byte	0x59
 712 0317 08       		.uleb128 0x8
 713 0318 96100000 		.4byte	.LASF110
 714 031c 5A       		.byte	0x5a
 715 031d 08       		.uleb128 0x8
 716 031e 9E100000 		.4byte	.LASF111
 717 0322 5B       		.byte	0x5b
 718 0323 08       		.uleb128 0x8
 719 0324 A6100000 		.4byte	.LASF112
 720 0328 5C       		.byte	0x5c
 721 0329 08       		.uleb128 0x8
 722 032a AE100000 		.4byte	.LASF113
 723 032e 5D       		.byte	0x5d
 724 032f 08       		.uleb128 0x8
 725 0330 C0100000 		.4byte	.LASF114
 726 0334 5E       		.byte	0x5e
 727 0335 08       		.uleb128 0x8
 728 0336 C8100000 		.4byte	.LASF115
 729 033a 5F       		.byte	0x5f
 730 033b 08       		.uleb128 0x8
 731 033c D0100000 		.4byte	.LASF116
 732 0340 60       		.byte	0x60
 733 0341 08       		.uleb128 0x8
 734 0342 D8100000 		.4byte	.LASF117
 735 0346 61       		.byte	0x61
 736 0347 08       		.uleb128 0x8
 737 0348 83100000 		.4byte	.LASF118
 738 034c 62       		.byte	0x62
 739 034d 08       		.uleb128 0x8
 740 034e AB0D0000 		.4byte	.LASF119
 741 0352 63       		.byte	0x63
ARM GAS  /var/folders/t8/16hdwfmd2fg_d3q6dgx6bpmw0000gn/T//cctlI9p4.s 			page 14


 742 0353 08       		.uleb128 0x8
 743 0354 47020000 		.4byte	.LASF120
 744 0358 64       		.byte	0x64
 745 0359 08       		.uleb128 0x8
 746 035a 2E080000 		.4byte	.LASF121
 747 035e 65       		.byte	0x65
 748 035f 08       		.uleb128 0x8
 749 0360 92020000 		.4byte	.LASF122
 750 0364 66       		.byte	0x66
 751 0365 08       		.uleb128 0x8
 752 0366 700F0000 		.4byte	.LASF123
 753 036a 67       		.byte	0x67
 754 036b 08       		.uleb128 0x8
 755 036c 220C0000 		.4byte	.LASF124
 756 0370 68       		.byte	0x68
 757 0371 08       		.uleb128 0x8
 758 0372 290C0000 		.4byte	.LASF125
 759 0376 69       		.byte	0x69
 760 0377 08       		.uleb128 0x8
 761 0378 300C0000 		.4byte	.LASF126
 762 037c 6A       		.byte	0x6a
 763 037d 08       		.uleb128 0x8
 764 037e 370C0000 		.4byte	.LASF127
 765 0382 6B       		.byte	0x6b
 766 0383 08       		.uleb128 0x8
 767 0384 3E0C0000 		.4byte	.LASF128
 768 0388 6C       		.byte	0x6c
 769 0389 08       		.uleb128 0x8
 770 038a 450C0000 		.4byte	.LASF129
 771 038e 6D       		.byte	0x6d
 772 038f 08       		.uleb128 0x8
 773 0390 4C0C0000 		.4byte	.LASF130
 774 0394 6E       		.byte	0x6e
 775 0395 08       		.uleb128 0x8
 776 0396 EC0C0000 		.4byte	.LASF131
 777 039a 6F       		.byte	0x6f
 778 039b 08       		.uleb128 0x8
 779 039c F30C0000 		.4byte	.LASF132
 780 03a0 70       		.byte	0x70
 781 03a1 08       		.uleb128 0x8
 782 03a2 FA0C0000 		.4byte	.LASF133
 783 03a6 71       		.byte	0x71
 784 03a7 08       		.uleb128 0x8
 785 03a8 010D0000 		.4byte	.LASF134
 786 03ac 72       		.byte	0x72
 787 03ad 08       		.uleb128 0x8
 788 03ae 080D0000 		.4byte	.LASF135
 789 03b2 73       		.byte	0x73
 790 03b3 08       		.uleb128 0x8
 791 03b4 80070000 		.4byte	.LASF136
 792 03b8 74       		.byte	0x74
 793 03b9 08       		.uleb128 0x8
 794 03ba D4050000 		.4byte	.LASF137
 795 03be 75       		.byte	0x75
 796 03bf 08       		.uleb128 0x8
 797 03c0 F20B0000 		.4byte	.LASF138
 798 03c4 76       		.byte	0x76
ARM GAS  /var/folders/t8/16hdwfmd2fg_d3q6dgx6bpmw0000gn/T//cctlI9p4.s 			page 15


 799 03c5 08       		.uleb128 0x8
 800 03c6 89040000 		.4byte	.LASF139
 801 03ca 77       		.byte	0x77
 802 03cb 08       		.uleb128 0x8
 803 03cc 46120000 		.4byte	.LASF140
 804 03d0 78       		.byte	0x78
 805 03d1 08       		.uleb128 0x8
 806 03d2 B90B0000 		.4byte	.LASF141
 807 03d6 79       		.byte	0x79
 808 03d7 08       		.uleb128 0x8
 809 03d8 C4070000 		.4byte	.LASF142
 810 03dc 7A       		.byte	0x7a
 811 03dd 08       		.uleb128 0x8
 812 03de 7B050000 		.4byte	.LASF143
 813 03e2 7B       		.byte	0x7b
 814 03e3 08       		.uleb128 0x8
 815 03e4 67110000 		.4byte	.LASF144
 816 03e8 7C       		.byte	0x7c
 817 03e9 08       		.uleb128 0x8
 818 03ea C00E0000 		.4byte	.LASF145
 819 03ee 7D       		.byte	0x7d
 820 03ef 08       		.uleb128 0x8
 821 03f0 D6010000 		.4byte	.LASF146
 822 03f4 7E       		.byte	0x7e
 823 03f5 08       		.uleb128 0x8
 824 03f6 AB110000 		.4byte	.LASF147
 825 03fa 7F       		.byte	0x7f
 826 03fb 08       		.uleb128 0x8
 827 03fc AF0E0000 		.4byte	.LASF148
 828 0400 80       		.byte	0x80
 829 0401 08       		.uleb128 0x8
 830 0402 71040000 		.4byte	.LASF149
 831 0406 81       		.byte	0x81
 832 0407 08       		.uleb128 0x8
 833 0408 320E0000 		.4byte	.LASF150
 834 040c 82       		.byte	0x82
 835 040d 08       		.uleb128 0x8
 836 040e DD0D0000 		.4byte	.LASF151
 837 0412 83       		.byte	0x83
 838 0413 08       		.uleb128 0x8
 839 0414 4E060000 		.4byte	.LASF152
 840 0418 84       		.byte	0x84
 841 0419 08       		.uleb128 0x8
 842 041a 34110000 		.4byte	.LASF153
 843 041e 85       		.byte	0x85
 844 041f 08       		.uleb128 0x8
 845 0420 E1070000 		.4byte	.LASF154
 846 0424 86       		.byte	0x86
 847 0425 08       		.uleb128 0x8
 848 0426 D70F0000 		.4byte	.LASF155
 849 042a 87       		.byte	0x87
 850 042b 08       		.uleb128 0x8
 851 042c DF0F0000 		.4byte	.LASF156
 852 0430 88       		.byte	0x88
 853 0431 08       		.uleb128 0x8
 854 0432 E70F0000 		.4byte	.LASF157
 855 0436 89       		.byte	0x89
ARM GAS  /var/folders/t8/16hdwfmd2fg_d3q6dgx6bpmw0000gn/T//cctlI9p4.s 			page 16


 856 0437 08       		.uleb128 0x8
 857 0438 EF0F0000 		.4byte	.LASF158
 858 043c 8A       		.byte	0x8a
 859 043d 08       		.uleb128 0x8
 860 043e F70F0000 		.4byte	.LASF159
 861 0442 8B       		.byte	0x8b
 862 0443 08       		.uleb128 0x8
 863 0444 FF0F0000 		.4byte	.LASF160
 864 0448 8C       		.byte	0x8c
 865 0449 08       		.uleb128 0x8
 866 044a 07100000 		.4byte	.LASF161
 867 044e 8D       		.byte	0x8d
 868 044f 08       		.uleb128 0x8
 869 0450 0F100000 		.4byte	.LASF162
 870 0454 8E       		.byte	0x8e
 871 0455 08       		.uleb128 0x8
 872 0456 17100000 		.4byte	.LASF163
 873 045a 8F       		.byte	0x8f
 874 045b 08       		.uleb128 0x8
 875 045c 34120000 		.4byte	.LASF164
 876 0460 90       		.byte	0x90
 877 0461 08       		.uleb128 0x8
 878 0462 3D120000 		.4byte	.LASF165
 879 0466 91       		.byte	0x91
 880 0467 08       		.uleb128 0x8
 881 0468 EC010000 		.4byte	.LASF166
 882 046c 92       		.byte	0x92
 883 046d 08       		.uleb128 0x8
 884 046e 4E120000 		.4byte	.LASF167
 885 0472 93       		.byte	0x93
 886 0473 08       		.uleb128 0x8
 887 0474 57120000 		.4byte	.LASF168
 888 0478 94       		.byte	0x94
 889 0479 08       		.uleb128 0x8
 890 047a 60120000 		.4byte	.LASF169
 891 047e 95       		.byte	0x95
 892 047f 08       		.uleb128 0x8
 893 0480 69120000 		.4byte	.LASF170
 894 0484 96       		.byte	0x96
 895 0485 08       		.uleb128 0x8
 896 0486 72120000 		.4byte	.LASF171
 897 048a 97       		.byte	0x97
 898 048b 08       		.uleb128 0x8
 899 048c 7B120000 		.4byte	.LASF172
 900 0490 98       		.byte	0x98
 901 0491 08       		.uleb128 0x8
 902 0492 250E0000 		.4byte	.LASF173
 903 0496 99       		.byte	0x99
 904 0497 08       		.uleb128 0x8
 905 0498 AB060000 		.4byte	.LASF174
 906 049c 9A       		.byte	0x9a
 907 049d 08       		.uleb128 0x8
 908 049e 28000000 		.4byte	.LASF175
 909 04a2 9B       		.byte	0x9b
 910 04a3 08       		.uleb128 0x8
 911 04a4 92110000 		.4byte	.LASF176
 912 04a8 9C       		.byte	0x9c
ARM GAS  /var/folders/t8/16hdwfmd2fg_d3q6dgx6bpmw0000gn/T//cctlI9p4.s 			page 17


 913 04a9 08       		.uleb128 0x8
 914 04aa F0030000 		.4byte	.LASF177
 915 04ae 9D       		.byte	0x9d
 916 04af 08       		.uleb128 0x8
 917 04b0 6A070000 		.4byte	.LASF178
 918 04b4 9E       		.byte	0x9e
 919 04b5 08       		.uleb128 0x8
 920 04b6 36090000 		.4byte	.LASF179
 921 04ba 9F       		.byte	0x9f
 922 04bb 08       		.uleb128 0x8
 923 04bc 760C0000 		.4byte	.LASF180
 924 04c0 A0       		.byte	0xa0
 925 04c1 08       		.uleb128 0x8
 926 04c2 300F0000 		.4byte	.LASF181
 927 04c6 A1       		.byte	0xa1
 928 04c7 08       		.uleb128 0x8
 929 04c8 25110000 		.4byte	.LASF182
 930 04cc A2       		.byte	0xa2
 931 04cd 08       		.uleb128 0x8
 932 04ce 57020000 		.4byte	.LASF183
 933 04d2 A3       		.byte	0xa3
 934 04d3 08       		.uleb128 0x8
 935 04d4 1E0B0000 		.4byte	.LASF184
 936 04d8 A4       		.byte	0xa4
 937 04d9 08       		.uleb128 0x8
 938 04da A2080000 		.4byte	.LASF185
 939 04de B0       		.byte	0xb0
 940 04df 08       		.uleb128 0x8
 941 04e0 580C0000 		.4byte	.LASF186
 942 04e4 B1       		.byte	0xb1
 943 04e5 08       		.uleb128 0x8
 944 04e6 56050000 		.4byte	.LASF187
 945 04ea B2       		.byte	0xb2
 946 04eb 08       		.uleb128 0x8
 947 04ec F5010000 		.4byte	.LASF188
 948 04f0 B3       		.byte	0xb3
 949 04f1 08       		.uleb128 0x8
 950 04f2 8A080000 		.4byte	.LASF189
 951 04f6 B4       		.byte	0xb4
 952 04f7 08       		.uleb128 0x8
 953 04f8 B4120000 		.4byte	.LASF190
 954 04fc B5       		.byte	0xb5
 955 04fd 08       		.uleb128 0x8
 956 04fe FE0D0000 		.4byte	.LASF191
 957 0502 B6       		.byte	0xb6
 958 0503 08       		.uleb128 0x8
 959 0504 0F010000 		.4byte	.LASF192
 960 0508 B7       		.byte	0xb7
 961 0509 08       		.uleb128 0x8
 962 050a C6010000 		.4byte	.LASF193
 963 050e B8       		.byte	0xb8
 964 050f 08       		.uleb128 0x8
 965 0510 04090000 		.4byte	.LASF194
 966 0514 B9       		.byte	0xb9
 967 0515 08       		.uleb128 0x8
 968 0516 60090000 		.4byte	.LASF195
 969 051a BA       		.byte	0xba
ARM GAS  /var/folders/t8/16hdwfmd2fg_d3q6dgx6bpmw0000gn/T//cctlI9p4.s 			page 18


 970 051b 08       		.uleb128 0x8
 971 051c BD040000 		.4byte	.LASF196
 972 0520 BB       		.byte	0xbb
 973 0521 08       		.uleb128 0x8
 974 0522 05110000 		.4byte	.LASF197
 975 0526 BC       		.byte	0xbc
 976 0527 08       		.uleb128 0x8
 977 0528 0D110000 		.4byte	.LASF198
 978 052c BD       		.byte	0xbd
 979 052d 08       		.uleb128 0x8
 980 052e 1D110000 		.4byte	.LASF199
 981 0532 BE       		.byte	0xbe
 982 0533 08       		.uleb128 0x8
 983 0534 A90B0000 		.4byte	.LASF200
 984 0538 BF       		.byte	0xbf
 985 0539 08       		.uleb128 0x8
 986 053a B10B0000 		.4byte	.LASF201
 987 053e C0       		.byte	0xc0
 988 053f 08       		.uleb128 0x8
 989 0540 65020000 		.4byte	.LASF202
 990 0544 C1       		.byte	0xc1
 991 0545 08       		.uleb128 0x8
 992 0546 420E0000 		.4byte	.LASF203
 993 054a C2       		.byte	0xc2
 994 054b 08       		.uleb128 0x8
 995 054c F0000000 		.4byte	.LASF204
 996 0550 C3       		.byte	0xc3
 997 0551 08       		.uleb128 0x8
 998 0552 F7060000 		.4byte	.LASF205
 999 0556 C4       		.byte	0xc4
 1000 0557 08       		.uleb128 0x8
 1001 0558 17060000 		.4byte	.LASF206
 1002 055c C5       		.byte	0xc5
 1003 055d 08       		.uleb128 0x8
 1004 055e B4010000 		.4byte	.LASF207
 1005 0562 C6       		.byte	0xc6
 1006 0563 08       		.uleb128 0x8
 1007 0564 05010000 		.4byte	.LASF208
 1008 0568 C7       		.byte	0xc7
 1009 0569 08       		.uleb128 0x8
 1010 056a B2020000 		.4byte	.LASF209
 1011 056e C8       		.byte	0xc8
 1012 056f 08       		.uleb128 0x8
 1013 0570 BB070000 		.4byte	.LASF210
 1014 0574 C9       		.byte	0xc9
 1015 0575 08       		.uleb128 0x8
 1016 0576 51080000 		.4byte	.LASF211
 1017 057a CA       		.byte	0xca
 1018 057b 08       		.uleb128 0x8
 1019 057c 770E0000 		.4byte	.LASF212
 1020 0580 CB       		.byte	0xcb
 1021 0581 08       		.uleb128 0x8
 1022 0582 5A0A0000 		.4byte	.LASF213
 1023 0586 CC       		.byte	0xcc
 1024 0587 08       		.uleb128 0x8
 1025 0588 9B020000 		.4byte	.LASF214
 1026 058c CD       		.byte	0xcd
ARM GAS  /var/folders/t8/16hdwfmd2fg_d3q6dgx6bpmw0000gn/T//cctlI9p4.s 			page 19


 1027 058d 08       		.uleb128 0x8
 1028 058e 5F010000 		.4byte	.LASF215
 1029 0592 CE       		.byte	0xce
 1030 0593 08       		.uleb128 0x8
 1031 0594 C20C0000 		.4byte	.LASF216
 1032 0598 CF       		.byte	0xcf
 1033 0599 08       		.uleb128 0x8
 1034 059a 880F0000 		.4byte	.LASF217
 1035 059e D0       		.byte	0xd0
 1036 059f 08       		.uleb128 0x8
 1037 05a0 91070000 		.4byte	.LASF218
 1038 05a4 D1       		.byte	0xd1
 1039 05a5 08       		.uleb128 0x8
 1040 05a6 0F0D0000 		.4byte	.LASF219
 1041 05aa D2       		.byte	0xd2
 1042 05ab 08       		.uleb128 0x8
 1043 05ac B0000000 		.4byte	.LASF220
 1044 05b0 D3       		.byte	0xd3
 1045 05b1 08       		.uleb128 0x8
 1046 05b2 05050000 		.4byte	.LASF221
 1047 05b6 D4       		.byte	0xd4
 1048 05b7 08       		.uleb128 0x8
 1049 05b8 5F000000 		.4byte	.LASF222
 1050 05bc D5       		.byte	0xd5
 1051 05bd 08       		.uleb128 0x8
 1052 05be CE110000 		.4byte	.LASF223
 1053 05c2 D6       		.byte	0xd6
 1054 05c3 08       		.uleb128 0x8
 1055 05c4 40110000 		.4byte	.LASF224
 1056 05c8 D7       		.byte	0xd7
 1057 05c9 08       		.uleb128 0x8
 1058 05ca 74070000 		.4byte	.LASF225
 1059 05ce D8       		.byte	0xd8
 1060 05cf 08       		.uleb128 0x8
 1061 05d0 71100000 		.4byte	.LASF226
 1062 05d4 D9       		.byte	0xd9
 1063 05d5 08       		.uleb128 0x8
 1064 05d6 A1050000 		.4byte	.LASF227
 1065 05da DA       		.byte	0xda
 1066 05db 08       		.uleb128 0x8
 1067 05dc F8120000 		.4byte	.LASF228
 1068 05e0 DB       		.byte	0xdb
 1069 05e1 08       		.uleb128 0x8
 1070 05e2 84000000 		.4byte	.LASF229
 1071 05e6 DC       		.byte	0xdc
 1072 05e7 08       		.uleb128 0x8
 1073 05e8 DE000000 		.4byte	.LASF230
 1074 05ec DD       		.byte	0xdd
 1075 05ed 08       		.uleb128 0x8
 1076 05ee 840A0000 		.4byte	.LASF231
 1077 05f2 E0       		.byte	0xe0
 1078 05f3 08       		.uleb128 0x8
 1079 05f4 90120000 		.4byte	.LASF232
 1080 05f8 E1       		.byte	0xe1
 1081 05f9 08       		.uleb128 0x8
 1082 05fa A0090000 		.4byte	.LASF233
 1083 05fe E2       		.byte	0xe2
ARM GAS  /var/folders/t8/16hdwfmd2fg_d3q6dgx6bpmw0000gn/T//cctlI9p4.s 			page 20


 1084 05ff 08       		.uleb128 0x8
 1085 0600 F0120000 		.4byte	.LASF234
 1086 0604 E3       		.byte	0xe3
 1087 0605 08       		.uleb128 0x8
 1088 0606 D3120000 		.4byte	.LASF235
 1089 060a E4       		.byte	0xe4
 1090 060b 08       		.uleb128 0x8
 1091 060c 3A060000 		.4byte	.LASF236
 1092 0610 E5       		.byte	0xe5
 1093 0611 08       		.uleb128 0x8
 1094 0612 210A0000 		.4byte	.LASF237
 1095 0616 E6       		.byte	0xe6
 1096 0617 08       		.uleb128 0x8
 1097 0618 1A000000 		.4byte	.LASF238
 1098 061c E7       		.byte	0xe7
 1099 061d 00       		.byte	0
 1100 061e 03       		.uleb128 0x3
 1101 061f 870D0000 		.4byte	.LASF239
 1102 0623 04       		.byte	0x4
 1103 0624 1B       		.byte	0x1b
 1104 0625 A2000000 		.4byte	0xa2
 1105 0629 05       		.uleb128 0x5
 1106 062a 1E060000 		.4byte	0x61e
 1107 062e 07       		.uleb128 0x7
 1108 062f 92000000 		.4byte	.LASF241
 1109 0633 07       		.byte	0x7
 1110 0634 01       		.byte	0x1
 1111 0635 37000000 		.4byte	0x37
 1112 0639 04       		.byte	0x4
 1113 063a 38       		.byte	0x38
 1114 063b 70060000 		.4byte	0x670
 1115 063f 09       		.uleb128 0x9
 1116 0640 454E4400 		.ascii	"END\000"
 1117 0644 00       		.byte	0
 1118 0645 08       		.uleb128 0x8
 1119 0646 D0060000 		.4byte	.LASF242
 1120 064a 01       		.byte	0x1
 1121 064b 08       		.uleb128 0x8
 1122 064c 6D0A0000 		.4byte	.LASF243
 1123 0650 02       		.byte	0x2
 1124 0651 08       		.uleb128 0x8
 1125 0652 9C0A0000 		.4byte	.LASF244
 1126 0656 74       		.byte	0x74
 1127 0657 08       		.uleb128 0x8
 1128 0658 C20A0000 		.4byte	.LASF245
 1129 065c 75       		.byte	0x75
 1130 065d 08       		.uleb128 0x8
 1131 065e 04130000 		.4byte	.LASF246
 1132 0662 76       		.byte	0x76
 1133 0663 08       		.uleb128 0x8
 1134 0664 7D040000 		.4byte	.LASF247
 1135 0668 77       		.byte	0x77
 1136 0669 08       		.uleb128 0x8
 1137 066a 67100000 		.4byte	.LASF248
 1138 066e 78       		.byte	0x78
 1139 066f 00       		.byte	0
 1140 0670 03       		.uleb128 0x3
ARM GAS  /var/folders/t8/16hdwfmd2fg_d3q6dgx6bpmw0000gn/T//cctlI9p4.s 			page 21


 1141 0671 32000000 		.4byte	.LASF249
 1142 0675 06       		.byte	0x6
 1143 0676 D8       		.byte	0xd8
 1144 0677 9B000000 		.4byte	0x9b
 1145 067b 03       		.uleb128 0x3
 1146 067c 1C0F0000 		.4byte	.LASF250
 1147 0680 07       		.byte	0x7
 1148 0681 3C       		.byte	0x3c
 1149 0682 A2000000 		.4byte	0xa2
 1150 0686 03       		.uleb128 0x3
 1151 0687 CB020000 		.4byte	.LASF251
 1152 068b 07       		.byte	0x7
 1153 068c 3D       		.byte	0x3d
 1154 068d A2000000 		.4byte	0xa2
 1155 0691 03       		.uleb128 0x3
 1156 0692 5F110000 		.4byte	.LASF252
 1157 0696 07       		.byte	0x7
 1158 0697 3E       		.byte	0x3e
 1159 0698 A2000000 		.4byte	0xa2
 1160 069c 03       		.uleb128 0x3
 1161 069d D30D0000 		.4byte	.LASF253
 1162 06a1 07       		.byte	0x7
 1163 06a2 3F       		.byte	0x3f
 1164 06a3 A2000000 		.4byte	0xa2
 1165 06a7 03       		.uleb128 0x3
 1166 06a8 73000000 		.4byte	.LASF254
 1167 06ac 07       		.byte	0x7
 1168 06ad 40       		.byte	0x40
 1169 06ae C8000000 		.4byte	0xc8
 1170 06b2 03       		.uleb128 0x3
 1171 06b3 B50D0000 		.4byte	.LASF255
 1172 06b7 07       		.byte	0x7
 1173 06b8 41       		.byte	0x41
 1174 06b9 BD000000 		.4byte	0xbd
 1175 06bd 03       		.uleb128 0x3
 1176 06be 2D050000 		.4byte	.LASF256
 1177 06c2 07       		.byte	0x7
 1178 06c3 43       		.byte	0x43
 1179 06c4 C8000000 		.4byte	0xc8
 1180 06c8 03       		.uleb128 0x3
 1181 06c9 59070000 		.4byte	.LASF257
 1182 06cd 07       		.byte	0x7
 1183 06ce 45       		.byte	0x45
 1184 06cf BD000000 		.4byte	0xbd
 1185 06d3 03       		.uleb128 0x3
 1186 06d4 49000000 		.4byte	.LASF258
 1187 06d8 08       		.byte	0x8
 1188 06d9 33       		.byte	0x33
 1189 06da C8000000 		.4byte	0xc8
 1190 06de 06       		.uleb128 0x6
 1191 06df D3060000 		.4byte	0x6d3
 1192 06e3 03       		.uleb128 0x3
 1193 06e4 620C0000 		.4byte	.LASF259
 1194 06e8 08       		.byte	0x8
 1195 06e9 3F       		.byte	0x3f
 1196 06ea EE060000 		.4byte	0x6ee
 1197 06ee 0A       		.uleb128 0xa
ARM GAS  /var/folders/t8/16hdwfmd2fg_d3q6dgx6bpmw0000gn/T//cctlI9p4.s 			page 22


 1198 06ef C7080000 		.4byte	.LASF278
 1199 06f3 44       		.byte	0x44
 1200 06f4 09       		.byte	0x9
 1201 06f5 9A       		.byte	0x9a
 1202 06f6 D8070000 		.4byte	0x7d8
 1203 06fa 0B       		.uleb128 0xb
 1204 06fb 22000000 		.4byte	.LASF260
 1205 06ff 09       		.byte	0x9
 1206 0700 9B       		.byte	0x9b
 1207 0701 0D080000 		.4byte	0x80d
 1208 0705 00       		.byte	0
 1209 0706 0B       		.uleb128 0xb
 1210 0707 82050000 		.4byte	.LASF261
 1211 070b 09       		.byte	0x9
 1212 070c 9C       		.byte	0x9c
 1213 070d A7060000 		.4byte	0x6a7
 1214 0711 08       		.byte	0x8
 1215 0712 0C       		.uleb128 0xc
 1216 0713 63747800 		.ascii	"ctx\000"
 1217 0717 09       		.byte	0x9
 1218 0718 9D       		.byte	0x9d
 1219 0719 680A0000 		.4byte	0xa68
 1220 071d 0C       		.byte	0xc
 1221 071e 0B       		.uleb128 0xb
 1222 071f A5110000 		.4byte	.LASF262
 1223 0723 09       		.byte	0x9
 1224 0724 9F       		.byte	0x9f
 1225 0725 E3070000 		.4byte	0x7e3
 1226 0729 10       		.byte	0x10
 1227 072a 0B       		.uleb128 0xb
 1228 072b 43090000 		.4byte	.LASF263
 1229 072f 09       		.byte	0x9
 1230 0730 A0       		.byte	0xa0
 1231 0731 E3070000 		.4byte	0x7e3
 1232 0735 14       		.byte	0x14
 1233 0736 0B       		.uleb128 0xb
 1234 0737 830F0000 		.4byte	.LASF264
 1235 073b 09       		.byte	0x9
 1236 073c A7       		.byte	0xa7
 1237 073d C30B0000 		.4byte	0xbc3
 1238 0741 18       		.byte	0x18
 1239 0742 0B       		.uleb128 0xb
 1240 0743 B90E0000 		.4byte	.LASF265
 1241 0747 09       		.byte	0x9
 1242 0748 B0       		.byte	0xb0
 1243 0749 DA0B0000 		.4byte	0xbda
 1244 074d 1C       		.byte	0x1c
 1245 074e 0B       		.uleb128 0xb
 1246 074f 23010000 		.4byte	.LASF266
 1247 0753 09       		.byte	0x9
 1248 0754 B5       		.byte	0xb5
 1249 0755 86060000 		.4byte	0x686
 1250 0759 20       		.byte	0x20
 1251 075a 0B       		.uleb128 0xb
 1252 075b 94060000 		.4byte	.LASF267
 1253 075f 09       		.byte	0x9
 1254 0760 B9       		.byte	0xb9
ARM GAS  /var/folders/t8/16hdwfmd2fg_d3q6dgx6bpmw0000gn/T//cctlI9p4.s 			page 23


 1255 0761 7B060000 		.4byte	0x67b
 1256 0765 21       		.byte	0x21
 1257 0766 0B       		.uleb128 0xb
 1258 0767 1B0E0000 		.4byte	.LASF268
 1259 076b 09       		.byte	0x9
 1260 076c BE       		.byte	0xbe
 1261 076d 91060000 		.4byte	0x691
 1262 0771 22       		.byte	0x22
 1263 0772 0B       		.uleb128 0xb
 1264 0773 650A0000 		.4byte	.LASF269
 1265 0777 09       		.byte	0x9
 1266 0778 C4       		.byte	0xc4
 1267 0779 9C060000 		.4byte	0x69c
 1268 077d 23       		.byte	0x23
 1269 077e 0D       		.uleb128 0xd
 1270 077f 7500     		.ascii	"u\000"
 1271 0781 09       		.byte	0x9
 1272 0782 0F01     		.2byte	0x10f
 1273 0784 F80A0000 		.4byte	0xaf8
 1274 0788 24       		.byte	0x24
 1275 0789 0E       		.uleb128 0xe
 1276 078a 15110000 		.4byte	.LASF270
 1277 078e 09       		.byte	0x9
 1278 078f 1401     		.2byte	0x114
 1279 0791 E9070000 		.4byte	0x7e9
 1280 0795 28       		.byte	0x28
 1281 0796 0E       		.uleb128 0xe
 1282 0797 29100000 		.4byte	.LASF271
 1283 079b 09       		.byte	0x9
 1284 079c 1A01     		.2byte	0x11a
 1285 079e 0D080000 		.4byte	0x80d
 1286 07a2 2C       		.byte	0x2c
 1287 07a3 0E       		.uleb128 0xe
 1288 07a4 D4020000 		.4byte	.LASF272
 1289 07a8 09       		.byte	0x9
 1290 07a9 2001     		.2byte	0x120
 1291 07ab BD060000 		.4byte	0x6bd
 1292 07af 34       		.byte	0x34
 1293 07b0 0E       		.uleb128 0xe
 1294 07b1 010A0000 		.4byte	.LASF273
 1295 07b5 09       		.byte	0x9
 1296 07b6 2701     		.2byte	0x127
 1297 07b8 BD0B0000 		.4byte	0xbbd
 1298 07bc 38       		.byte	0x38
 1299 07bd 0E       		.uleb128 0xe
 1300 07be 50090000 		.4byte	.LASF274
 1301 07c2 09       		.byte	0x9
 1302 07c3 2B01     		.2byte	0x12b
 1303 07c5 A7060000 		.4byte	0x6a7
 1304 07c9 3C       		.byte	0x3c
 1305 07ca 0E       		.uleb128 0xe
 1306 07cb BD060000 		.4byte	.LASF275
 1307 07cf 09       		.byte	0x9
 1308 07d0 3201     		.2byte	0x132
 1309 07d2 C0080000 		.4byte	0x8c0
 1310 07d6 40       		.byte	0x40
 1311 07d7 00       		.byte	0
ARM GAS  /var/folders/t8/16hdwfmd2fg_d3q6dgx6bpmw0000gn/T//cctlI9p4.s 			page 24


 1312 07d8 03       		.uleb128 0x3
 1313 07d9 870C0000 		.4byte	.LASF276
 1314 07dd 08       		.byte	0x8
 1315 07de 44       		.byte	0x44
 1316 07df E3070000 		.4byte	0x7e3
 1317 07e3 0F       		.uleb128 0xf
 1318 07e4 04       		.byte	0x4
 1319 07e5 E3060000 		.4byte	0x6e3
 1320 07e9 03       		.uleb128 0x3
 1321 07ea 7C110000 		.4byte	.LASF277
 1322 07ee 08       		.byte	0x8
 1323 07ef 49       		.byte	0x49
 1324 07f0 F4070000 		.4byte	0x7f4
 1325 07f4 0A       		.uleb128 0xa
 1326 07f5 82090000 		.4byte	.LASF279
 1327 07f9 04       		.byte	0x4
 1328 07fa 09       		.byte	0x9
 1329 07fb 88       		.byte	0x88
 1330 07fc 0D080000 		.4byte	0x80d
 1331 0800 0B       		.uleb128 0xb
 1332 0801 530C0000 		.4byte	.LASF280
 1333 0805 09       		.byte	0x9
 1334 0806 89       		.byte	0x89
 1335 0807 E3070000 		.4byte	0x7e3
 1336 080b 00       		.byte	0
 1337 080c 00       		.byte	0
 1338 080d 03       		.uleb128 0x3
 1339 080e D0030000 		.4byte	.LASF281
 1340 0812 08       		.byte	0x8
 1341 0813 50       		.byte	0x50
 1342 0814 18080000 		.4byte	0x818
 1343 0818 0A       		.uleb128 0xa
 1344 0819 BB0D0000 		.4byte	.LASF282
 1345 081d 08       		.byte	0x8
 1346 081e 09       		.byte	0x9
 1347 081f 8F       		.byte	0x8f
 1348 0820 3D080000 		.4byte	0x83d
 1349 0824 0B       		.uleb128 0xb
 1350 0825 530C0000 		.4byte	.LASF280
 1351 0829 09       		.byte	0x9
 1352 082a 90       		.byte	0x90
 1353 082b E3070000 		.4byte	0x7e3
 1354 082f 00       		.byte	0
 1355 0830 0B       		.uleb128 0xb
 1356 0831 20130000 		.4byte	.LASF283
 1357 0835 09       		.byte	0x9
 1358 0836 91       		.byte	0x91
 1359 0837 E3070000 		.4byte	0x7e3
 1360 083b 04       		.byte	0x4
 1361 083c 00       		.byte	0
 1362 083d 03       		.uleb128 0x3
 1363 083e 29090000 		.4byte	.LASF284
 1364 0842 08       		.byte	0x8
 1365 0843 57       		.byte	0x57
 1366 0844 48080000 		.4byte	0x848
 1367 0848 10       		.uleb128 0x10
 1368 0849 AD070000 		.4byte	.LASF285
ARM GAS  /var/folders/t8/16hdwfmd2fg_d3q6dgx6bpmw0000gn/T//cctlI9p4.s 			page 25


 1369 084d 1C       		.byte	0x1c
 1370 084e 09       		.byte	0x9
 1371 084f 6A01     		.2byte	0x16a
 1372 0851 A4080000 		.4byte	0x8a4
 1373 0855 0E       		.uleb128 0xe
 1374 0856 22000000 		.4byte	.LASF260
 1375 085a 09       		.byte	0x9
 1376 085b 6B01     		.2byte	0x16b
 1377 085d 0D080000 		.4byte	0x80d
 1378 0861 00       		.byte	0
 1379 0862 0E       		.uleb128 0xe
 1380 0863 82050000 		.4byte	.LASF261
 1381 0867 09       		.byte	0x9
 1382 0868 6C01     		.2byte	0x16c
 1383 086a A7060000 		.4byte	0x6a7
 1384 086e 08       		.byte	0x8
 1385 086f 0D       		.uleb128 0xd
 1386 0870 63747800 		.ascii	"ctx\000"
 1387 0874 09       		.byte	0x9
 1388 0875 6E01     		.2byte	0x16e
 1389 0877 680A0000 		.4byte	0xa68
 1390 087b 0C       		.byte	0xc
 1391 087c 0E       		.uleb128 0xe
 1392 087d A5110000 		.4byte	.LASF262
 1393 0881 09       		.byte	0x9
 1394 0882 7101     		.2byte	0x171
 1395 0884 E3070000 		.4byte	0x7e3
 1396 0888 10       		.byte	0x10
 1397 0889 0E       		.uleb128 0xe
 1398 088a 43090000 		.4byte	.LASF263
 1399 088e 09       		.byte	0x9
 1400 088f 7201     		.2byte	0x172
 1401 0891 E3070000 		.4byte	0x7e3
 1402 0895 14       		.byte	0x14
 1403 0896 0E       		.uleb128 0xe
 1404 0897 B5060000 		.4byte	.LASF286
 1405 089b 09       		.byte	0x9
 1406 089c 7501     		.2byte	0x175
 1407 089e E3070000 		.4byte	0x7e3
 1408 08a2 18       		.byte	0x18
 1409 08a3 00       		.byte	0
 1410 08a4 03       		.uleb128 0x3
 1411 08a5 BE000000 		.4byte	.LASF287
 1412 08a9 08       		.byte	0x8
 1413 08aa 5C       		.byte	0x5c
 1414 08ab AF080000 		.4byte	0x8af
 1415 08af 0F       		.uleb128 0xf
 1416 08b0 04       		.byte	0x4
 1417 08b1 B5080000 		.4byte	0x8b5
 1418 08b5 11       		.uleb128 0x11
 1419 08b6 C0080000 		.4byte	0x8c0
 1420 08ba 12       		.uleb128 0x12
 1421 08bb C0080000 		.4byte	0x8c0
 1422 08bf 00       		.byte	0
 1423 08c0 13       		.uleb128 0x13
 1424 08c1 04       		.byte	0x4
 1425 08c2 03       		.uleb128 0x3
ARM GAS  /var/folders/t8/16hdwfmd2fg_d3q6dgx6bpmw0000gn/T//cctlI9p4.s 			page 26


 1426 08c3 19090000 		.4byte	.LASF288
 1427 08c7 08       		.byte	0x8
 1428 08c8 61       		.byte	0x61
 1429 08c9 CD080000 		.4byte	0x8cd
 1430 08cd 10       		.uleb128 0x10
 1431 08ce 2A0D0000 		.4byte	.LASF289
 1432 08d2 14       		.byte	0x14
 1433 08d3 09       		.byte	0x9
 1434 08d4 4501     		.2byte	0x145
 1435 08d6 1C090000 		.4byte	0x91c
 1436 08da 0E       		.uleb128 0xe
 1437 08db 530C0000 		.4byte	.LASF280
 1438 08df 09       		.byte	0x9
 1439 08e0 4601     		.2byte	0x146
 1440 08e2 E00B0000 		.4byte	0xbe0
 1441 08e6 00       		.byte	0
 1442 08e7 0E       		.uleb128 0xe
 1443 08e8 20130000 		.4byte	.LASF283
 1444 08ec 09       		.byte	0x9
 1445 08ed 4701     		.2byte	0x147
 1446 08ef E00B0000 		.4byte	0xbe0
 1447 08f3 04       		.byte	0x4
 1448 08f4 0E       		.uleb128 0xe
 1449 08f5 F80D0000 		.4byte	.LASF290
 1450 08f9 09       		.byte	0x9
 1451 08fa 4801     		.2byte	0x148
 1452 08fc D3060000 		.4byte	0x6d3
 1453 0900 08       		.byte	0x8
 1454 0901 0E       		.uleb128 0xe
 1455 0902 D20F0000 		.4byte	.LASF291
 1456 0906 09       		.byte	0x9
 1457 0907 4901     		.2byte	0x149
 1458 0909 A4080000 		.4byte	0x8a4
 1459 090d 0C       		.byte	0xc
 1460 090e 0D       		.uleb128 0xd
 1461 090f 70617200 		.ascii	"par\000"
 1462 0913 09       		.byte	0x9
 1463 0914 4B01     		.2byte	0x14b
 1464 0916 C0080000 		.4byte	0x8c0
 1465 091a 10       		.byte	0x10
 1466 091b 00       		.byte	0
 1467 091c 03       		.uleb128 0x3
 1468 091d DC080000 		.4byte	.LASF292
 1469 0921 08       		.byte	0x8
 1470 0922 66       		.byte	0x66
 1471 0923 27090000 		.4byte	0x927
 1472 0927 10       		.uleb128 0x10
 1473 0928 C7000000 		.4byte	.LASF293
 1474 092c 10       		.byte	0x10
 1475 092d 09       		.byte	0x9
 1476 092e 5501     		.2byte	0x155
 1477 0930 69090000 		.4byte	0x969
 1478 0934 0E       		.uleb128 0xe
 1479 0935 530C0000 		.4byte	.LASF280
 1480 0939 09       		.byte	0x9
 1481 093a 5601     		.2byte	0x156
 1482 093c E00B0000 		.4byte	0xbe0
ARM GAS  /var/folders/t8/16hdwfmd2fg_d3q6dgx6bpmw0000gn/T//cctlI9p4.s 			page 27


 1483 0940 00       		.byte	0
 1484 0941 0E       		.uleb128 0xe
 1485 0942 20130000 		.4byte	.LASF283
 1486 0946 09       		.byte	0x9
 1487 0947 5801     		.2byte	0x158
 1488 0949 E00B0000 		.4byte	0xbe0
 1489 094d 04       		.byte	0x4
 1490 094e 0E       		.uleb128 0xe
 1491 094f F80D0000 		.4byte	.LASF290
 1492 0953 09       		.byte	0x9
 1493 0954 5A01     		.2byte	0x15a
 1494 0956 D3060000 		.4byte	0x6d3
 1495 095a 08       		.byte	0x8
 1496 095b 0E       		.uleb128 0xe
 1497 095c 36020000 		.4byte	.LASF294
 1498 0960 09       		.byte	0x9
 1499 0961 5C01     		.2byte	0x15c
 1500 0963 DE060000 		.4byte	0x6de
 1501 0967 0C       		.byte	0xc
 1502 0968 00       		.byte	0
 1503 0969 03       		.uleb128 0x3
 1504 096a AE050000 		.4byte	.LASF295
 1505 096e 08       		.byte	0x8
 1506 096f 6B       		.byte	0x6b
 1507 0970 74090000 		.4byte	0x974
 1508 0974 10       		.uleb128 0x10
 1509 0975 57100000 		.4byte	.LASF296
 1510 0979 0C       		.byte	0xc
 1511 097a 09       		.byte	0x9
 1512 097b 7C01     		.2byte	0x17c
 1513 097d A9090000 		.4byte	0x9a9
 1514 0981 0E       		.uleb128 0xe
 1515 0982 97050000 		.4byte	.LASF297
 1516 0986 09       		.byte	0x9
 1517 0987 8401     		.2byte	0x184
 1518 0989 C90B0000 		.4byte	0xbc9
 1519 098d 00       		.byte	0
 1520 098e 0E       		.uleb128 0xe
 1521 098f 0E080000 		.4byte	.LASF298
 1522 0993 09       		.byte	0x9
 1523 0994 8901     		.2byte	0x189
 1524 0996 C8060000 		.4byte	0x6c8
 1525 099a 04       		.byte	0x4
 1526 099b 0E       		.uleb128 0xe
 1527 099c 31010000 		.4byte	.LASF299
 1528 09a0 09       		.byte	0x9
 1529 09a1 8D01     		.2byte	0x18d
 1530 09a3 C8060000 		.4byte	0x6c8
 1531 09a7 08       		.byte	0x8
 1532 09a8 00       		.byte	0
 1533 09a9 03       		.uleb128 0x3
 1534 09aa D40C0000 		.4byte	.LASF300
 1535 09ae 08       		.byte	0x8
 1536 09af 70       		.byte	0x70
 1537 09b0 B4090000 		.4byte	0x9b4
 1538 09b4 10       		.uleb128 0x10
 1539 09b5 9B110000 		.4byte	.LASF301
ARM GAS  /var/folders/t8/16hdwfmd2fg_d3q6dgx6bpmw0000gn/T//cctlI9p4.s 			page 28


 1540 09b9 7C       		.byte	0x7c
 1541 09ba 09       		.byte	0x9
 1542 09bb 9C01     		.2byte	0x19c
 1543 09bd F6090000 		.4byte	0x9f6
 1544 09c1 0E       		.uleb128 0xe
 1545 09c2 160F0000 		.4byte	.LASF302
 1546 09c6 09       		.byte	0x9
 1547 09c7 A001     		.2byte	0x1a0
 1548 09c9 3D080000 		.4byte	0x83d
 1549 09cd 00       		.byte	0
 1550 09ce 0E       		.uleb128 0xe
 1551 09cf FE100000 		.4byte	.LASF303
 1552 09d3 09       		.byte	0x9
 1553 09d4 A401     		.2byte	0x1a4
 1554 09d6 1C090000 		.4byte	0x91c
 1555 09da 1C       		.byte	0x1c
 1556 09db 0D       		.uleb128 0xd
 1557 09dc 64626700 		.ascii	"dbg\000"
 1558 09e0 09       		.byte	0x9
 1559 09e1 A801     		.2byte	0x1a8
 1560 09e3 69090000 		.4byte	0x969
 1561 09e7 2C       		.byte	0x2c
 1562 09e8 0E       		.uleb128 0xe
 1563 09e9 4C0E0000 		.4byte	.LASF304
 1564 09ed 09       		.byte	0x9
 1565 09ee AC01     		.2byte	0x1ac
 1566 09f0 E3060000 		.4byte	0x6e3
 1567 09f4 38       		.byte	0x38
 1568 09f5 00       		.byte	0
 1569 09f6 14       		.uleb128 0x14
 1570 09f7 18       		.byte	0x18
 1571 09f8 0A       		.byte	0xa
 1572 09f9 C5       		.byte	0xc5
 1573 09fa 470A0000 		.4byte	0xa47
 1574 09fe 0B       		.uleb128 0xb
 1575 09ff 9D0F0000 		.4byte	.LASF305
 1576 0a03 0A       		.byte	0xa
 1577 0a04 C7       		.byte	0xc7
 1578 0a05 D3000000 		.4byte	0xd3
 1579 0a09 00       		.byte	0
 1580 0a0a 0B       		.uleb128 0xb
 1581 0a0b 24100000 		.4byte	.LASF306
 1582 0a0f 0A       		.byte	0xa
 1583 0a10 C8       		.byte	0xc8
 1584 0a11 D3000000 		.4byte	0xd3
 1585 0a15 04       		.byte	0x4
 1586 0a16 0B       		.uleb128 0xb
 1587 0a17 B1090000 		.4byte	.LASF307
 1588 0a1b 0A       		.byte	0xa
 1589 0a1c C9       		.byte	0xc9
 1590 0a1d D3000000 		.4byte	0xd3
 1591 0a21 08       		.byte	0x8
 1592 0a22 0B       		.uleb128 0xb
 1593 0a23 A3000000 		.4byte	.LASF308
 1594 0a27 0A       		.byte	0xa
 1595 0a28 CA       		.byte	0xca
 1596 0a29 D3000000 		.4byte	0xd3
ARM GAS  /var/folders/t8/16hdwfmd2fg_d3q6dgx6bpmw0000gn/T//cctlI9p4.s 			page 29


 1597 0a2d 0C       		.byte	0xc
 1598 0a2e 0B       		.uleb128 0xb
 1599 0a2f E3090000 		.4byte	.LASF309
 1600 0a33 0A       		.byte	0xa
 1601 0a34 CB       		.byte	0xcb
 1602 0a35 D3000000 		.4byte	0xd3
 1603 0a39 10       		.byte	0x10
 1604 0a3a 0B       		.uleb128 0xb
 1605 0a3b 14090000 		.4byte	.LASF310
 1606 0a3f 0A       		.byte	0xa
 1607 0a40 CC       		.byte	0xcc
 1608 0a41 D3000000 		.4byte	0xd3
 1609 0a45 14       		.byte	0x14
 1610 0a46 00       		.byte	0
 1611 0a47 03       		.uleb128 0x3
 1612 0a48 EA100000 		.4byte	.LASF311
 1613 0a4c 0A       		.byte	0xa
 1614 0a4d CD       		.byte	0xcd
 1615 0a4e F6090000 		.4byte	0x9f6
 1616 0a52 03       		.uleb128 0x3
 1617 0a53 F9030000 		.4byte	.LASF312
 1618 0a57 0B       		.byte	0xb
 1619 0a58 65       		.byte	0x65
 1620 0a59 C0080000 		.4byte	0x8c0
 1621 0a5d 03       		.uleb128 0x3
 1622 0a5e A0060000 		.4byte	.LASF313
 1623 0a62 0B       		.byte	0xb
 1624 0a63 6D       		.byte	0x6d
 1625 0a64 D8000000 		.4byte	0xd8
 1626 0a68 0A       		.uleb128 0xa
 1627 0a69 6F110000 		.4byte	.LASF314
 1628 0a6d 04       		.byte	0x4
 1629 0a6e 0B       		.byte	0xb
 1630 0a6f 89       		.byte	0x89
 1631 0a70 800A0000 		.4byte	0xa80
 1632 0a74 0C       		.uleb128 0xc
 1633 0a75 737000   		.ascii	"sp\000"
 1634 0a78 0B       		.byte	0xb
 1635 0a79 8A       		.byte	0x8a
 1636 0a7a F20A0000 		.4byte	0xaf2
 1637 0a7e 00       		.byte	0
 1638 0a7f 00       		.byte	0
 1639 0a80 0A       		.uleb128 0xa
 1640 0a81 B60C0000 		.4byte	.LASF315
 1641 0a85 24       		.byte	0x24
 1642 0a86 0C       		.byte	0xc
 1643 0a87 C3       		.byte	0xc3
 1644 0a88 F20A0000 		.4byte	0xaf2
 1645 0a8c 0C       		.uleb128 0xc
 1646 0a8d 723800   		.ascii	"r8\000"
 1647 0a90 0C       		.byte	0xc
 1648 0a91 C4       		.byte	0xc4
 1649 0a92 520A0000 		.4byte	0xa52
 1650 0a96 00       		.byte	0
 1651 0a97 0C       		.uleb128 0xc
 1652 0a98 723900   		.ascii	"r9\000"
 1653 0a9b 0C       		.byte	0xc
ARM GAS  /var/folders/t8/16hdwfmd2fg_d3q6dgx6bpmw0000gn/T//cctlI9p4.s 			page 30


 1654 0a9c C5       		.byte	0xc5
 1655 0a9d 520A0000 		.4byte	0xa52
 1656 0aa1 04       		.byte	0x4
 1657 0aa2 0C       		.uleb128 0xc
 1658 0aa3 72313000 		.ascii	"r10\000"
 1659 0aa7 0C       		.byte	0xc
 1660 0aa8 C6       		.byte	0xc6
 1661 0aa9 520A0000 		.4byte	0xa52
 1662 0aad 08       		.byte	0x8
 1663 0aae 0C       		.uleb128 0xc
 1664 0aaf 72313100 		.ascii	"r11\000"
 1665 0ab3 0C       		.byte	0xc
 1666 0ab4 C7       		.byte	0xc7
 1667 0ab5 520A0000 		.4byte	0xa52
 1668 0ab9 0C       		.byte	0xc
 1669 0aba 0C       		.uleb128 0xc
 1670 0abb 723400   		.ascii	"r4\000"
 1671 0abe 0C       		.byte	0xc
 1672 0abf C8       		.byte	0xc8
 1673 0ac0 520A0000 		.4byte	0xa52
 1674 0ac4 10       		.byte	0x10
 1675 0ac5 0C       		.uleb128 0xc
 1676 0ac6 723500   		.ascii	"r5\000"
 1677 0ac9 0C       		.byte	0xc
 1678 0aca C9       		.byte	0xc9
 1679 0acb 520A0000 		.4byte	0xa52
 1680 0acf 14       		.byte	0x14
 1681 0ad0 0C       		.uleb128 0xc
 1682 0ad1 723600   		.ascii	"r6\000"
 1683 0ad4 0C       		.byte	0xc
 1684 0ad5 CA       		.byte	0xca
 1685 0ad6 520A0000 		.4byte	0xa52
 1686 0ada 18       		.byte	0x18
 1687 0adb 0C       		.uleb128 0xc
 1688 0adc 723700   		.ascii	"r7\000"
 1689 0adf 0C       		.byte	0xc
 1690 0ae0 CB       		.byte	0xcb
 1691 0ae1 520A0000 		.4byte	0xa52
 1692 0ae5 1C       		.byte	0x1c
 1693 0ae6 0C       		.uleb128 0xc
 1694 0ae7 6C7200   		.ascii	"lr\000"
 1695 0aea 0C       		.byte	0xc
 1696 0aeb CC       		.byte	0xcc
 1697 0aec 520A0000 		.4byte	0xa52
 1698 0af0 20       		.byte	0x20
 1699 0af1 00       		.byte	0
 1700 0af2 0F       		.uleb128 0xf
 1701 0af3 04       		.byte	0x4
 1702 0af4 800A0000 		.4byte	0xa80
 1703 0af8 15       		.uleb128 0x15
 1704 0af9 04       		.byte	0x4
 1705 0afa 09       		.byte	0x9
 1706 0afb D2       		.byte	0xd2
 1707 0afc 5B0B0000 		.4byte	0xb5b
 1708 0b00 16       		.uleb128 0x16
 1709 0b01 1A120000 		.4byte	.LASF316
 1710 0b05 09       		.byte	0x9
ARM GAS  /var/folders/t8/16hdwfmd2fg_d3q6dgx6bpmw0000gn/T//cctlI9p4.s 			page 31


 1711 0b06 D9       		.byte	0xd9
 1712 0b07 B2060000 		.4byte	0x6b2
 1713 0b0b 16       		.uleb128 0x16
 1714 0b0c 87050000 		.4byte	.LASF317
 1715 0b10 09       		.byte	0x9
 1716 0b11 E0       		.byte	0xe0
 1717 0b12 B2060000 		.4byte	0x6b2
 1718 0b16 16       		.uleb128 0x16
 1719 0b17 60060000 		.4byte	.LASF318
 1720 0b1b 09       		.byte	0x9
 1721 0b1c E7       		.byte	0xe7
 1722 0b1d C0080000 		.4byte	0x8c0
 1723 0b21 16       		.uleb128 0x16
 1724 0b22 50050000 		.4byte	.LASF319
 1725 0b26 09       		.byte	0x9
 1726 0b27 EE       		.byte	0xee
 1727 0b28 5B0B0000 		.4byte	0xb5b
 1728 0b2c 16       		.uleb128 0x16
 1729 0b2d 9A0C0000 		.4byte	.LASF320
 1730 0b31 09       		.byte	0x9
 1731 0b32 F3       		.byte	0xf3
 1732 0b33 B2060000 		.4byte	0x6b2
 1733 0b37 16       		.uleb128 0x16
 1734 0b38 42000000 		.4byte	.LASF321
 1735 0b3c 09       		.byte	0x9
 1736 0b3d FC       		.byte	0xfc
 1737 0b3e 860B0000 		.4byte	0xb86
 1738 0b42 17       		.uleb128 0x17
 1739 0b43 F7100000 		.4byte	.LASF322
 1740 0b47 09       		.byte	0x9
 1741 0b48 0501     		.2byte	0x105
 1742 0b4a BD0B0000 		.4byte	0xbbd
 1743 0b4e 17       		.uleb128 0x17
 1744 0b4f D6040000 		.4byte	.LASF323
 1745 0b53 09       		.byte	0x9
 1746 0b54 0D01     		.2byte	0x10d
 1747 0b56 BD060000 		.4byte	0x6bd
 1748 0b5a 00       		.byte	0
 1749 0b5b 0F       		.uleb128 0xf
 1750 0b5c 04       		.byte	0x4
 1751 0b5d D8070000 		.4byte	0x7d8
 1752 0b61 0A       		.uleb128 0xa
 1753 0b62 B1080000 		.4byte	.LASF324
 1754 0b66 0C       		.byte	0xc
 1755 0b67 0D       		.byte	0xd
 1756 0b68 34       		.byte	0x34
 1757 0b69 860B0000 		.4byte	0xb86
 1758 0b6d 0B       		.uleb128 0xb
 1759 0b6e 22000000 		.4byte	.LASF260
 1760 0b72 0D       		.byte	0xd
 1761 0b73 35       		.byte	0x35
 1762 0b74 0D080000 		.4byte	0x80d
 1763 0b78 00       		.byte	0
 1764 0b79 0C       		.uleb128 0xc
 1765 0b7a 636E7400 		.ascii	"cnt\000"
 1766 0b7e 0D       		.byte	0xd
 1767 0b7f 37       		.byte	0x37
ARM GAS  /var/folders/t8/16hdwfmd2fg_d3q6dgx6bpmw0000gn/T//cctlI9p4.s 			page 32


 1768 0b80 C8060000 		.4byte	0x6c8
 1769 0b84 08       		.byte	0x8
 1770 0b85 00       		.byte	0
 1771 0b86 0F       		.uleb128 0xf
 1772 0b87 04       		.byte	0x4
 1773 0b88 610B0000 		.4byte	0xb61
 1774 0b8c 0A       		.uleb128 0xa
 1775 0b8d C00F0000 		.4byte	.LASF325
 1776 0b91 10       		.byte	0x10
 1777 0b92 0E       		.byte	0xe
 1778 0b93 39       		.byte	0x39
 1779 0b94 BD0B0000 		.4byte	0xbbd
 1780 0b98 0B       		.uleb128 0xb
 1781 0b99 22000000 		.4byte	.LASF260
 1782 0b9d 0E       		.byte	0xe
 1783 0b9e 3A       		.byte	0x3a
 1784 0b9f 0D080000 		.4byte	0x80d
 1785 0ba3 00       		.byte	0
 1786 0ba4 0B       		.uleb128 0xb
 1787 0ba5 6D000000 		.4byte	.LASF326
 1788 0ba9 0E       		.byte	0xe
 1789 0baa 3C       		.byte	0x3c
 1790 0bab E3070000 		.4byte	0x7e3
 1791 0baf 08       		.byte	0x8
 1792 0bb0 0B       		.uleb128 0xb
 1793 0bb1 530C0000 		.4byte	.LASF280
 1794 0bb5 0E       		.byte	0xe
 1795 0bb6 3E       		.byte	0x3e
 1796 0bb7 1F0D0000 		.4byte	0xd1f
 1797 0bbb 0C       		.byte	0xc
 1798 0bbc 00       		.byte	0
 1799 0bbd 0F       		.uleb128 0xf
 1800 0bbe 04       		.byte	0x4
 1801 0bbf 8C0B0000 		.4byte	0xb8c
 1802 0bc3 0F       		.uleb128 0xf
 1803 0bc4 04       		.byte	0x4
 1804 0bc5 D50B0000 		.4byte	0xbd5
 1805 0bc9 06       		.uleb128 0x6
 1806 0bca C30B0000 		.4byte	0xbc3
 1807 0bce 02       		.uleb128 0x2
 1808 0bcf 01       		.byte	0x1
 1809 0bd0 08       		.byte	0x8
 1810 0bd1 12060000 		.4byte	.LASF327
 1811 0bd5 05       		.uleb128 0x5
 1812 0bd6 CE0B0000 		.4byte	0xbce
 1813 0bda 0F       		.uleb128 0xf
 1814 0bdb 04       		.byte	0x4
 1815 0bdc 5D0A0000 		.4byte	0xa5d
 1816 0be0 0F       		.uleb128 0xf
 1817 0be1 04       		.byte	0x4
 1818 0be2 C2080000 		.4byte	0x8c2
 1819 0be6 18       		.uleb128 0x18
 1820 0be7 636800   		.ascii	"ch\000"
 1821 0bea 09       		.byte	0x9
 1822 0beb D201     		.2byte	0x1d2
 1823 0bed A9090000 		.4byte	0x9a9
 1824 0bf1 19       		.uleb128 0x19
ARM GAS  /var/folders/t8/16hdwfmd2fg_d3q6dgx6bpmw0000gn/T//cctlI9p4.s 			page 33


 1825 0bf2 5D0A0000 		.4byte	0xa5d
 1826 0bf6 FC0B0000 		.4byte	0xbfc
 1827 0bfa 1A       		.uleb128 0x1a
 1828 0bfb 00       		.byte	0
 1829 0bfc 1B       		.uleb128 0x1b
 1830 0bfd F2080000 		.4byte	.LASF328
 1831 0c01 10       		.byte	0x10
 1832 0c02 2B01     		.2byte	0x12b
 1833 0c04 F10B0000 		.4byte	0xbf1
 1834 0c08 14       		.uleb128 0x14
 1835 0c09 16       		.byte	0x16
 1836 0c0a 0F       		.byte	0xf
 1837 0c0b 34       		.byte	0x34
 1838 0c0c E90C0000 		.4byte	0xce9
 1839 0c10 0B       		.uleb128 0xb
 1840 0c11 25130000 		.4byte	.LASF329
 1841 0c15 0F       		.byte	0xf
 1842 0c16 35       		.byte	0x35
 1843 0c17 E90C0000 		.4byte	0xce9
 1844 0c1b 00       		.byte	0
 1845 0c1c 0B       		.uleb128 0xb
 1846 0c1d AD020000 		.4byte	.LASF330
 1847 0c21 0F       		.byte	0xf
 1848 0c22 36       		.byte	0x36
 1849 0c23 A2000000 		.4byte	0xa2
 1850 0c27 04       		.byte	0x4
 1851 0c28 0B       		.uleb128 0xb
 1852 0c29 630D0000 		.4byte	.LASF331
 1853 0c2d 0F       		.byte	0xf
 1854 0c2e 37       		.byte	0x37
 1855 0c2f A2000000 		.4byte	0xa2
 1856 0c33 05       		.byte	0x5
 1857 0c34 0B       		.uleb128 0xb
 1858 0c35 620E0000 		.4byte	.LASF332
 1859 0c39 0F       		.byte	0xf
 1860 0c3a 38       		.byte	0x38
 1861 0c3b B2000000 		.4byte	0xb2
 1862 0c3f 06       		.byte	0x6
 1863 0c40 0B       		.uleb128 0xb
 1864 0c41 E2060000 		.4byte	.LASF333
 1865 0c45 0F       		.byte	0xf
 1866 0c46 39       		.byte	0x39
 1867 0c47 A2000000 		.4byte	0xa2
 1868 0c4b 08       		.byte	0x8
 1869 0c4c 0B       		.uleb128 0xb
 1870 0c4d 9A120000 		.4byte	.LASF334
 1871 0c51 0F       		.byte	0xf
 1872 0c52 3A       		.byte	0x3a
 1873 0c53 A2000000 		.4byte	0xa2
 1874 0c57 09       		.byte	0x9
 1875 0c58 0B       		.uleb128 0xb
 1876 0c59 7F080000 		.4byte	.LASF335
 1877 0c5d 0F       		.byte	0xf
 1878 0c5e 3B       		.byte	0x3b
 1879 0c5f A2000000 		.4byte	0xa2
 1880 0c63 0A       		.byte	0xa
 1881 0c64 0B       		.uleb128 0xb
ARM GAS  /var/folders/t8/16hdwfmd2fg_d3q6dgx6bpmw0000gn/T//cctlI9p4.s 			page 34


 1882 0c65 39000000 		.4byte	.LASF336
 1883 0c69 0F       		.byte	0xf
 1884 0c6a 3C       		.byte	0x3c
 1885 0c6b A2000000 		.4byte	0xa2
 1886 0c6f 0B       		.byte	0xb
 1887 0c70 0B       		.uleb128 0xb
 1888 0c71 00000000 		.4byte	.LASF337
 1889 0c75 0F       		.byte	0xf
 1890 0c76 3D       		.byte	0x3d
 1891 0c77 A2000000 		.4byte	0xa2
 1892 0c7b 0C       		.byte	0xc
 1893 0c7c 0B       		.uleb128 0xb
 1894 0c7d A10A0000 		.4byte	.LASF338
 1895 0c81 0F       		.byte	0xf
 1896 0c82 3E       		.byte	0x3e
 1897 0c83 A2000000 		.4byte	0xa2
 1898 0c87 0D       		.byte	0xd
 1899 0c88 0B       		.uleb128 0xb
 1900 0c89 AA010000 		.4byte	.LASF339
 1901 0c8d 0F       		.byte	0xf
 1902 0c8e 3F       		.byte	0x3f
 1903 0c8f A2000000 		.4byte	0xa2
 1904 0c93 0E       		.byte	0xe
 1905 0c94 0B       		.uleb128 0xb
 1906 0c95 A20D0000 		.4byte	.LASF340
 1907 0c99 0F       		.byte	0xf
 1908 0c9a 40       		.byte	0x40
 1909 0c9b A2000000 		.4byte	0xa2
 1910 0c9f 0F       		.byte	0xf
 1911 0ca0 0B       		.uleb128 0xb
 1912 0ca1 6A090000 		.4byte	.LASF341
 1913 0ca5 0F       		.byte	0xf
 1914 0ca6 41       		.byte	0x41
 1915 0ca7 A2000000 		.4byte	0xa2
 1916 0cab 10       		.byte	0x10
 1917 0cac 0B       		.uleb128 0xb
 1918 0cad C6030000 		.4byte	.LASF342
 1919 0cb1 0F       		.byte	0xf
 1920 0cb2 42       		.byte	0x42
 1921 0cb3 A2000000 		.4byte	0xa2
 1922 0cb7 11       		.byte	0x11
 1923 0cb8 0B       		.uleb128 0xb
 1924 0cb9 C9120000 		.4byte	.LASF343
 1925 0cbd 0F       		.byte	0xf
 1926 0cbe 43       		.byte	0x43
 1927 0cbf A2000000 		.4byte	0xa2
 1928 0cc3 12       		.byte	0x12
 1929 0cc4 0B       		.uleb128 0xb
 1930 0cc5 8B060000 		.4byte	.LASF344
 1931 0cc9 0F       		.byte	0xf
 1932 0cca 44       		.byte	0x44
 1933 0ccb A2000000 		.4byte	0xa2
 1934 0ccf 13       		.byte	0x13
 1935 0cd0 0B       		.uleb128 0xb
 1936 0cd1 53000000 		.4byte	.LASF345
 1937 0cd5 0F       		.byte	0xf
 1938 0cd6 45       		.byte	0x45
ARM GAS  /var/folders/t8/16hdwfmd2fg_d3q6dgx6bpmw0000gn/T//cctlI9p4.s 			page 35


 1939 0cd7 A2000000 		.4byte	0xa2
 1940 0cdb 14       		.byte	0x14
 1941 0cdc 0B       		.uleb128 0xb
 1942 0cdd 44070000 		.4byte	.LASF346
 1943 0ce1 0F       		.byte	0xf
 1944 0ce2 46       		.byte	0x46
 1945 0ce3 A2000000 		.4byte	0xa2
 1946 0ce7 15       		.byte	0x15
 1947 0ce8 00       		.byte	0
 1948 0ce9 19       		.uleb128 0x19
 1949 0cea CE0B0000 		.4byte	0xbce
 1950 0cee F90C0000 		.4byte	0xcf9
 1951 0cf2 1C       		.uleb128 0x1c
 1952 0cf3 9B000000 		.4byte	0x9b
 1953 0cf7 03       		.byte	0x3
 1954 0cf8 00       		.byte	0
 1955 0cf9 03       		.uleb128 0x3
 1956 0cfa AC0F0000 		.4byte	.LASF347
 1957 0cfe 0F       		.byte	0xf
 1958 0cff 47       		.byte	0x47
 1959 0d00 080C0000 		.4byte	0xc08
 1960 0d04 05       		.uleb128 0x5
 1961 0d05 F90C0000 		.4byte	0xcf9
 1962 0d09 1D       		.uleb128 0x1d
 1963 0d0a 7B000000 		.4byte	.LASF348
 1964 0d0e 0F       		.byte	0xf
 1965 0d0f 6C       		.byte	0x6c
 1966 0d10 040D0000 		.4byte	0xd04
 1967 0d14 03       		.uleb128 0x3
 1968 0d15 57110000 		.4byte	.LASF349
 1969 0d19 0E       		.byte	0xe
 1970 0d1a 34       		.byte	0x34
 1971 0d1b 8C0B0000 		.4byte	0xb8c
 1972 0d1f 0F       		.uleb128 0xf
 1973 0d20 04       		.byte	0x4
 1974 0d21 140D0000 		.4byte	0xd14
 1975 0d25 0F       		.uleb128 0xf
 1976 0d26 04       		.byte	0x4
 1977 0d27 AD000000 		.4byte	0xad
 1978 0d2b 0F       		.uleb128 0xf
 1979 0d2c 04       		.byte	0x4
 1980 0d2d A2000000 		.4byte	0xa2
 1981 0d31 03       		.uleb128 0x3
 1982 0d32 BD010000 		.4byte	.LASF350
 1983 0d36 11       		.byte	0x11
 1984 0d37 46       		.byte	0x46
 1985 0d38 C8000000 		.4byte	0xc8
 1986 0d3c 03       		.uleb128 0x3
 1987 0d3d C0020000 		.4byte	.LASF351
 1988 0d41 11       		.byte	0x11
 1989 0d42 53       		.byte	0x53
 1990 0d43 470D0000 		.4byte	0xd47
 1991 0d47 0F       		.uleb128 0xf
 1992 0d48 04       		.byte	0x4
 1993 0d49 470A0000 		.4byte	0xa47
 1994 0d4d 14       		.uleb128 0x14
 1995 0d4e 84       		.byte	0x84
ARM GAS  /var/folders/t8/16hdwfmd2fg_d3q6dgx6bpmw0000gn/T//cctlI9p4.s 			page 36


 1996 0d4f 11       		.byte	0x11
 1997 0d50 5A       		.byte	0x5a
 1998 0d51 6E0D0000 		.4byte	0xd6e
 1999 0d55 0B       		.uleb128 0xb
 2000 0d56 980F0000 		.4byte	.LASF352
 2001 0d5a 11       		.byte	0x11
 2002 0d5b 5B       		.byte	0x5b
 2003 0d5c 3C0D0000 		.4byte	0xd3c
 2004 0d60 00       		.byte	0
 2005 0d61 0B       		.uleb128 0xb
 2006 0d62 550A0000 		.4byte	.LASF353
 2007 0d66 11       		.byte	0x11
 2008 0d67 5C       		.byte	0x5c
 2009 0d68 6E0D0000 		.4byte	0xd6e
 2010 0d6c 04       		.byte	0x4
 2011 0d6d 00       		.byte	0
 2012 0d6e 19       		.uleb128 0x19
 2013 0d6f 310D0000 		.4byte	0xd31
 2014 0d73 7E0D0000 		.4byte	0xd7e
 2015 0d77 1C       		.uleb128 0x1c
 2016 0d78 9B000000 		.4byte	0x9b
 2017 0d7c 1F       		.byte	0x1f
 2018 0d7d 00       		.byte	0
 2019 0d7e 03       		.uleb128 0x3
 2020 0d7f 1D080000 		.4byte	.LASF354
 2021 0d83 11       		.byte	0x11
 2022 0d84 5D       		.byte	0x5d
 2023 0d85 4D0D0000 		.4byte	0xd4d
 2024 0d89 1E       		.uleb128 0x1e
 2025 0d8a 9402     		.2byte	0x294
 2026 0d8c 11       		.byte	0x11
 2027 0d8d 68       		.byte	0x68
 2028 0d8e 9F0D0000 		.4byte	0xd9f
 2029 0d92 0B       		.uleb128 0xb
 2030 0d93 22020000 		.4byte	.LASF355
 2031 0d97 11       		.byte	0x11
 2032 0d98 69       		.byte	0x69
 2033 0d99 9F0D0000 		.4byte	0xd9f
 2034 0d9d 00       		.byte	0
 2035 0d9e 00       		.byte	0
 2036 0d9f 19       		.uleb128 0x19
 2037 0da0 7E0D0000 		.4byte	0xd7e
 2038 0da4 AF0D0000 		.4byte	0xdaf
 2039 0da8 1C       		.uleb128 0x1c
 2040 0da9 9B000000 		.4byte	0x9b
 2041 0dad 04       		.byte	0x4
 2042 0dae 00       		.byte	0
 2043 0daf 03       		.uleb128 0x3
 2044 0db0 B6100000 		.4byte	.LASF356
 2045 0db4 11       		.byte	0x11
 2046 0db5 6A       		.byte	0x6a
 2047 0db6 890D0000 		.4byte	0xd89
 2048 0dba 05       		.uleb128 0x5
 2049 0dbb AF0D0000 		.4byte	0xdaf
 2050 0dbf 1B       		.uleb128 0x1b
 2051 0dc0 AA040000 		.4byte	.LASF357
 2052 0dc4 11       		.byte	0x11
ARM GAS  /var/folders/t8/16hdwfmd2fg_d3q6dgx6bpmw0000gn/T//cctlI9p4.s 			page 37


 2053 0dc5 8D01     		.2byte	0x18d
 2054 0dc7 BA0D0000 		.4byte	0xdba
 2055 0dcb 1F       		.uleb128 0x1f
 2056 0dcc 44060000 		.4byte	.LASF358
 2057 0dd0 12       		.byte	0x12
 2058 0dd1 0001     		.2byte	0x100
 2059 0dd3 D70D0000 		.4byte	0xdd7
 2060 0dd7 10       		.uleb128 0x10
 2061 0dd8 44060000 		.4byte	.LASF358
 2062 0ddc E8       		.byte	0xe8
 2063 0ddd 13       		.byte	0x13
 2064 0dde 0601     		.2byte	0x106
 2065 0de0 C20E0000 		.4byte	0xec2
 2066 0de4 0E       		.uleb128 0xe
 2067 0de5 23010000 		.4byte	.LASF266
 2068 0de9 13       		.byte	0x13
 2069 0dea 0A01     		.2byte	0x10a
 2070 0dec 010F0000 		.4byte	0xf01
 2071 0df0 00       		.byte	0
 2072 0df1 0E       		.uleb128 0xe
 2073 0df2 1C010000 		.4byte	.LASF359
 2074 0df6 13       		.byte	0x13
 2075 0df7 0E01     		.2byte	0x10e
 2076 0df9 35120000 		.4byte	0x1235
 2077 0dfd 04       		.byte	0x4
 2078 0dfe 0E       		.uleb128 0xe
 2079 0dff EA060000 		.4byte	.LASF360
 2080 0e03 13       		.byte	0x13
 2081 0e04 1201     		.2byte	0x112
 2082 0e06 B2000000 		.4byte	0xb2
 2083 0e0a 08       		.byte	0x8
 2084 0e0b 0E       		.uleb128 0xe
 2085 0e0c 25060000 		.4byte	.LASF361
 2086 0e10 13       		.byte	0x13
 2087 0e11 1601     		.2byte	0x116
 2088 0e13 B2000000 		.4byte	0xb2
 2089 0e17 0A       		.byte	0xa
 2090 0e18 0D       		.uleb128 0xd
 2091 0e19 65706300 		.ascii	"epc\000"
 2092 0e1d 13       		.byte	0x13
 2093 0e1e 1A01     		.2byte	0x11a
 2094 0e20 3B120000 		.4byte	0x123b
 2095 0e24 0C       		.byte	0xc
 2096 0e25 0E       		.uleb128 0xe
 2097 0e26 5D0F0000 		.4byte	.LASF362
 2098 0e2a 13       		.byte	0x13
 2099 0e2b 2101     		.2byte	0x121
 2100 0e2d 51120000 		.4byte	0x1251
 2101 0e31 4C       		.byte	0x4c
 2102 0e32 0E       		.uleb128 0xe
 2103 0e33 D1080000 		.4byte	.LASF363
 2104 0e37 13       		.byte	0x13
 2105 0e38 2801     		.2byte	0x128
 2106 0e3a 51120000 		.4byte	0x1251
 2107 0e3e 88       		.byte	0x88
 2108 0e3f 0E       		.uleb128 0xe
 2109 0e40 8D0A0000 		.4byte	.LASF364
ARM GAS  /var/folders/t8/16hdwfmd2fg_d3q6dgx6bpmw0000gn/T//cctlI9p4.s 			page 38


 2110 0e44 13       		.byte	0x13
 2111 0e45 2C01     		.2byte	0x12c
 2112 0e47 460F0000 		.4byte	0xf46
 2113 0e4b C4       		.byte	0xc4
 2114 0e4c 0E       		.uleb128 0xe
 2115 0e4d 4D0A0000 		.4byte	.LASF365
 2116 0e51 13       		.byte	0x13
 2117 0e52 3001     		.2byte	0x130
 2118 0e54 2B0D0000 		.4byte	0xd2b
 2119 0e58 C8       		.byte	0xc8
 2120 0e59 0E       		.uleb128 0xe
 2121 0e5a 20060000 		.4byte	.LASF366
 2122 0e5e 13       		.byte	0x13
 2123 0e5f 3401     		.2byte	0x134
 2124 0e61 70060000 		.4byte	0x670
 2125 0e65 CC       		.byte	0xcc
 2126 0e66 0E       		.uleb128 0xe
 2127 0e67 BE080000 		.4byte	.LASF367
 2128 0e6b 13       		.byte	0x13
 2129 0e6c 3801     		.2byte	0x138
 2130 0e6e CC0F0000 		.4byte	0xfcc
 2131 0e72 D0       		.byte	0xd0
 2132 0e73 0E       		.uleb128 0xe
 2133 0e74 8B070000 		.4byte	.LASF368
 2134 0e78 13       		.byte	0x13
 2135 0e79 3C01     		.2byte	0x13c
 2136 0e7b 61120000 		.4byte	0x1261
 2137 0e7f D4       		.byte	0xd4
 2138 0e80 0E       		.uleb128 0xe
 2139 0e81 9B080000 		.4byte	.LASF369
 2140 0e85 13       		.byte	0x13
 2141 0e86 4001     		.2byte	0x140
 2142 0e88 B2000000 		.4byte	0xb2
 2143 0e8c DC       		.byte	0xdc
 2144 0e8d 0E       		.uleb128 0xe
 2145 0e8e 550F0000 		.4byte	.LASF370
 2146 0e92 13       		.byte	0x13
 2147 0e93 4401     		.2byte	0x144
 2148 0e95 A2000000 		.4byte	0xa2
 2149 0e99 DE       		.byte	0xde
 2150 0e9a 0E       		.uleb128 0xe
 2151 0e9b 00080000 		.4byte	.LASF371
 2152 0e9f 13       		.byte	0x13
 2153 0ea0 4801     		.2byte	0x148
 2154 0ea2 A2000000 		.4byte	0xa2
 2155 0ea6 DF       		.byte	0xdf
 2156 0ea7 0E       		.uleb128 0xe
 2157 0ea8 EC0D0000 		.4byte	.LASF372
 2158 0eac 13       		.byte	0x13
 2159 0ead 4C01     		.2byte	0x14c
 2160 0eaf 010F0000 		.4byte	0xf01
 2161 0eb3 E0       		.byte	0xe0
 2162 0eb4 0E       		.uleb128 0xe
 2163 0eb5 CC0D0000 		.4byte	.LASF373
 2164 0eb9 13       		.byte	0x13
 2165 0eba 5401     		.2byte	0x154
 2166 0ebc C8000000 		.4byte	0xc8
ARM GAS  /var/folders/t8/16hdwfmd2fg_d3q6dgx6bpmw0000gn/T//cctlI9p4.s 			page 39


 2167 0ec0 E4       		.byte	0xe4
 2168 0ec1 00       		.byte	0
 2169 0ec2 1F       		.uleb128 0x1f
 2170 0ec3 C6110000 		.4byte	.LASF374
 2171 0ec7 12       		.byte	0x12
 2172 0ec8 0501     		.2byte	0x105
 2173 0eca A2000000 		.4byte	0xa2
 2174 0ece 20       		.uleb128 0x20
 2175 0ecf 07       		.byte	0x7
 2176 0ed0 01       		.byte	0x1
 2177 0ed1 37000000 		.4byte	0x37
 2178 0ed5 12       		.byte	0x12
 2179 0ed6 0A01     		.2byte	0x10a
 2180 0ed8 010F0000 		.4byte	0xf01
 2181 0edc 08       		.uleb128 0x8
 2182 0edd 1F0D0000 		.4byte	.LASF375
 2183 0ee1 00       		.byte	0
 2184 0ee2 08       		.uleb128 0x8
 2185 0ee3 C20B0000 		.4byte	.LASF376
 2186 0ee7 01       		.byte	0x1
 2187 0ee8 08       		.uleb128 0x8
 2188 0ee9 170A0000 		.4byte	.LASF377
 2189 0eed 02       		.byte	0x2
 2190 0eee 08       		.uleb128 0x8
 2191 0eef F3070000 		.4byte	.LASF378
 2192 0ef3 03       		.byte	0x3
 2193 0ef4 08       		.uleb128 0x8
 2194 0ef5 54010000 		.4byte	.LASF379
 2195 0ef9 04       		.byte	0x4
 2196 0efa 08       		.uleb128 0x8
 2197 0efb 93040000 		.4byte	.LASF380
 2198 0eff 05       		.byte	0x5
 2199 0f00 00       		.byte	0
 2200 0f01 1F       		.uleb128 0x1f
 2201 0f02 77090000 		.4byte	.LASF381
 2202 0f06 12       		.byte	0x12
 2203 0f07 1101     		.2byte	0x111
 2204 0f09 CE0E0000 		.4byte	0xece
 2205 0f0d 20       		.uleb128 0x20
 2206 0f0e 07       		.byte	0x7
 2207 0f0f 01       		.byte	0x1
 2208 0f10 37000000 		.4byte	0x37
 2209 0f14 12       		.byte	0x12
 2210 0f15 1F01     		.2byte	0x11f
 2211 0f17 460F0000 		.4byte	0xf46
 2212 0f1b 08       		.uleb128 0x8
 2213 0f1c 49040000 		.4byte	.LASF382
 2214 0f20 00       		.byte	0
 2215 0f21 08       		.uleb128 0x8
 2216 0f22 FA000000 		.4byte	.LASF383
 2217 0f26 01       		.byte	0x1
 2218 0f27 08       		.uleb128 0x8
 2219 0f28 A20C0000 		.4byte	.LASF384
 2220 0f2c 02       		.byte	0x2
 2221 0f2d 08       		.uleb128 0x8
 2222 0f2e DC120000 		.4byte	.LASF385
 2223 0f32 03       		.byte	0x3
ARM GAS  /var/folders/t8/16hdwfmd2fg_d3q6dgx6bpmw0000gn/T//cctlI9p4.s 			page 40


 2224 0f33 08       		.uleb128 0x8
 2225 0f34 3C130000 		.4byte	.LASF386
 2226 0f38 04       		.byte	0x4
 2227 0f39 08       		.uleb128 0x8
 2228 0f3a DE0E0000 		.4byte	.LASF387
 2229 0f3e 05       		.byte	0x5
 2230 0f3f 08       		.uleb128 0x8
 2231 0f40 92090000 		.4byte	.LASF388
 2232 0f44 06       		.byte	0x6
 2233 0f45 00       		.byte	0
 2234 0f46 1F       		.uleb128 0x1f
 2235 0f47 0A020000 		.4byte	.LASF389
 2236 0f4b 12       		.byte	0x12
 2237 0f4c 2701     		.2byte	0x127
 2238 0f4e 0D0F0000 		.4byte	0xf0d
 2239 0f52 20       		.uleb128 0x20
 2240 0f53 07       		.byte	0x7
 2241 0f54 01       		.byte	0x1
 2242 0f55 37000000 		.4byte	0x37
 2243 0f59 12       		.byte	0x12
 2244 0f5a 2C01     		.2byte	0x12c
 2245 0f5c 8B0F0000 		.4byte	0xf8b
 2246 0f60 08       		.uleb128 0x8
 2247 0f61 0B0E0000 		.4byte	.LASF390
 2248 0f65 00       		.byte	0
 2249 0f66 08       		.uleb128 0x8
 2250 0f67 6D020000 		.4byte	.LASF391
 2251 0f6b 01       		.byte	0x1
 2252 0f6c 08       		.uleb128 0x8
 2253 0f6d C90E0000 		.4byte	.LASF392
 2254 0f71 02       		.byte	0x2
 2255 0f72 08       		.uleb128 0x8
 2256 0f73 8C0E0000 		.4byte	.LASF393
 2257 0f77 03       		.byte	0x3
 2258 0f78 08       		.uleb128 0x8
 2259 0f79 F3110000 		.4byte	.LASF394
 2260 0f7d 04       		.byte	0x4
 2261 0f7e 08       		.uleb128 0x8
 2262 0f7f D2090000 		.4byte	.LASF395
 2263 0f83 05       		.byte	0x5
 2264 0f84 08       		.uleb128 0x8
 2265 0f85 E5040000 		.4byte	.LASF396
 2266 0f89 06       		.byte	0x6
 2267 0f8a 00       		.byte	0
 2268 0f8b 1F       		.uleb128 0x1f
 2269 0f8c A2070000 		.4byte	.LASF397
 2270 0f90 12       		.byte	0x12
 2271 0f91 3401     		.2byte	0x134
 2272 0f93 520F0000 		.4byte	0xf52
 2273 0f97 21       		.uleb128 0x21
 2274 0f98 08       		.byte	0x8
 2275 0f99 12       		.byte	0x12
 2276 0f9a 3901     		.2byte	0x139
 2277 0f9c BB0F0000 		.4byte	0xfbb
 2278 0fa0 0E       		.uleb128 0xe
 2279 0fa1 CC070000 		.4byte	.LASF398
 2280 0fa5 12       		.byte	0x12
ARM GAS  /var/folders/t8/16hdwfmd2fg_d3q6dgx6bpmw0000gn/T//cctlI9p4.s 			page 41


 2281 0fa6 3D01     		.2byte	0x13d
 2282 0fa8 70060000 		.4byte	0x670
 2283 0fac 00       		.byte	0
 2284 0fad 0E       		.uleb128 0xe
 2285 0fae 81060000 		.4byte	.LASF399
 2286 0fb2 12       		.byte	0x12
 2287 0fb3 4101     		.2byte	0x141
 2288 0fb5 250D0000 		.4byte	0xd25
 2289 0fb9 04       		.byte	0x4
 2290 0fba 00       		.byte	0
 2291 0fbb 1F       		.uleb128 0x1f
 2292 0fbc 86010000 		.4byte	.LASF400
 2293 0fc0 12       		.byte	0x12
 2294 0fc1 4201     		.2byte	0x142
 2295 0fc3 970F0000 		.4byte	0xf97
 2296 0fc7 05       		.uleb128 0x5
 2297 0fc8 BB0F0000 		.4byte	0xfbb
 2298 0fcc 1F       		.uleb128 0x1f
 2299 0fcd DE010000 		.4byte	.LASF401
 2300 0fd1 12       		.byte	0x12
 2301 0fd2 4A01     		.2byte	0x14a
 2302 0fd4 D80F0000 		.4byte	0xfd8
 2303 0fd8 0F       		.uleb128 0xf
 2304 0fd9 04       		.byte	0x4
 2305 0fda DE0F0000 		.4byte	0xfde
 2306 0fde 11       		.uleb128 0x11
 2307 0fdf E90F0000 		.4byte	0xfe9
 2308 0fe3 12       		.uleb128 0x12
 2309 0fe4 E90F0000 		.4byte	0xfe9
 2310 0fe8 00       		.byte	0
 2311 0fe9 0F       		.uleb128 0xf
 2312 0fea 04       		.byte	0x4
 2313 0feb CB0D0000 		.4byte	0xdcb
 2314 0fef 1F       		.uleb128 0x1f
 2315 0ff0 740A0000 		.4byte	.LASF402
 2316 0ff4 12       		.byte	0x12
 2317 0ff5 5301     		.2byte	0x153
 2318 0ff7 FB0F0000 		.4byte	0xffb
 2319 0ffb 0F       		.uleb128 0xf
 2320 0ffc 04       		.byte	0x4
 2321 0ffd 01100000 		.4byte	0x1001
 2322 1001 11       		.uleb128 0x11
 2323 1002 11100000 		.4byte	0x1011
 2324 1006 12       		.uleb128 0x12
 2325 1007 E90F0000 		.4byte	0xfe9
 2326 100b 12       		.uleb128 0x12
 2327 100c C20E0000 		.4byte	0xec2
 2328 1010 00       		.byte	0
 2329 1011 1F       		.uleb128 0x1f
 2330 1012 C3060000 		.4byte	.LASF403
 2331 1016 12       		.byte	0x12
 2332 1017 5C01     		.2byte	0x15c
 2333 1019 1D100000 		.4byte	0x101d
 2334 101d 0F       		.uleb128 0xf
 2335 101e 04       		.byte	0x4
 2336 101f 23100000 		.4byte	0x1023
 2337 1023 11       		.uleb128 0x11
ARM GAS  /var/folders/t8/16hdwfmd2fg_d3q6dgx6bpmw0000gn/T//cctlI9p4.s 			page 42


 2338 1024 33100000 		.4byte	0x1033
 2339 1028 12       		.uleb128 0x12
 2340 1029 E90F0000 		.4byte	0xfe9
 2341 102d 12       		.uleb128 0x12
 2342 102e 8B0F0000 		.4byte	0xf8b
 2343 1032 00       		.byte	0
 2344 1033 1F       		.uleb128 0x1f
 2345 1034 DC110000 		.4byte	.LASF404
 2346 1038 12       		.byte	0x12
 2347 1039 6801     		.2byte	0x168
 2348 103b 3F100000 		.4byte	0x103f
 2349 103f 0F       		.uleb128 0xf
 2350 1040 04       		.byte	0x4
 2351 1041 45100000 		.4byte	0x1045
 2352 1045 22       		.uleb128 0x22
 2353 1046 E3000000 		.4byte	0xe3
 2354 104a 54100000 		.4byte	0x1054
 2355 104e 12       		.uleb128 0x12
 2356 104f E90F0000 		.4byte	0xfe9
 2357 1053 00       		.byte	0
 2358 1054 1F       		.uleb128 0x1f
 2359 1055 420F0000 		.4byte	.LASF405
 2360 1059 12       		.byte	0x12
 2361 105a 6D01     		.2byte	0x16d
 2362 105c 60100000 		.4byte	0x1060
 2363 1060 0F       		.uleb128 0xf
 2364 1061 04       		.byte	0x4
 2365 1062 66100000 		.4byte	0x1066
 2366 1066 22       		.uleb128 0x22
 2367 1067 84100000 		.4byte	0x1084
 2368 106b 84100000 		.4byte	0x1084
 2369 106f 12       		.uleb128 0x12
 2370 1070 E90F0000 		.4byte	0xfe9
 2371 1074 12       		.uleb128 0x12
 2372 1075 A2000000 		.4byte	0xa2
 2373 1079 12       		.uleb128 0x12
 2374 107a A2000000 		.4byte	0xa2
 2375 107e 12       		.uleb128 0x12
 2376 107f B2000000 		.4byte	0xb2
 2377 1083 00       		.byte	0
 2378 1084 0F       		.uleb128 0xf
 2379 1085 04       		.byte	0x4
 2380 1086 C70F0000 		.4byte	0xfc7
 2381 108a 14       		.uleb128 0x14
 2382 108b 14       		.byte	0x14
 2383 108c 13       		.byte	0x13
 2384 108d 6B       		.byte	0x6b
 2385 108e DB100000 		.4byte	0x10db
 2386 1092 0B       		.uleb128 0xb
 2387 1093 49090000 		.4byte	.LASF406
 2388 1097 13       		.byte	0x13
 2389 1098 6F       		.byte	0x6f
 2390 1099 70060000 		.4byte	0x670
 2391 109d 00       		.byte	0
 2392 109e 0B       		.uleb128 0xb
 2393 109f 28080000 		.4byte	.LASF407
 2394 10a3 13       		.byte	0x13
ARM GAS  /var/folders/t8/16hdwfmd2fg_d3q6dgx6bpmw0000gn/T//cctlI9p4.s 			page 43


 2395 10a4 73       		.byte	0x73
 2396 10a5 70060000 		.4byte	0x670
 2397 10a9 04       		.byte	0x4
 2398 10aa 0B       		.uleb128 0xb
 2399 10ab EA030000 		.4byte	.LASF408
 2400 10af 13       		.byte	0x13
 2401 10b0 77       		.byte	0x77
 2402 10b1 250D0000 		.4byte	0xd25
 2403 10b5 08       		.byte	0x8
 2404 10b6 0B       		.uleb128 0xb
 2405 10b7 7C0F0000 		.4byte	.LASF409
 2406 10bb 13       		.byte	0x13
 2407 10bc 7C       		.byte	0x7c
 2408 10bd D8070000 		.4byte	0x7d8
 2409 10c1 0C       		.byte	0xc
 2410 10c2 0B       		.uleb128 0xb
 2411 10c3 A8090000 		.4byte	.LASF410
 2412 10c7 13       		.byte	0x13
 2413 10c8 80       		.byte	0x80
 2414 10c9 E3000000 		.4byte	0xe3
 2415 10cd 10       		.byte	0x10
 2416 10ce 0B       		.uleb128 0xb
 2417 10cf E0100000 		.4byte	.LASF411
 2418 10d3 13       		.byte	0x13
 2419 10d4 82       		.byte	0x82
 2420 10d5 E3000000 		.4byte	0xe3
 2421 10d9 11       		.byte	0x11
 2422 10da 00       		.byte	0
 2423 10db 03       		.uleb128 0x3
 2424 10dc 02070000 		.4byte	.LASF412
 2425 10e0 13       		.byte	0x13
 2426 10e1 83       		.byte	0x83
 2427 10e2 8A100000 		.4byte	0x108a
 2428 10e6 14       		.uleb128 0x14
 2429 10e7 14       		.byte	0x14
 2430 10e8 13       		.byte	0x13
 2431 10e9 88       		.byte	0x88
 2432 10ea 43110000 		.4byte	0x1143
 2433 10ee 0B       		.uleb128 0xb
 2434 10ef 49050000 		.4byte	.LASF413
 2435 10f3 13       		.byte	0x13
 2436 10f4 8C       		.byte	0x8c
 2437 10f5 70060000 		.4byte	0x670
 2438 10f9 00       		.byte	0
 2439 10fa 0B       		.uleb128 0xb
 2440 10fb CB0B0000 		.4byte	.LASF414
 2441 10ff 13       		.byte	0x13
 2442 1100 90       		.byte	0x90
 2443 1101 70060000 		.4byte	0x670
 2444 1105 04       		.byte	0x4
 2445 1106 0B       		.uleb128 0xb
 2446 1107 B6090000 		.4byte	.LASF415
 2447 110b 13       		.byte	0x13
 2448 110c 94       		.byte	0x94
 2449 110d 2B0D0000 		.4byte	0xd2b
 2450 1111 08       		.byte	0x8
 2451 1112 0B       		.uleb128 0xb
ARM GAS  /var/folders/t8/16hdwfmd2fg_d3q6dgx6bpmw0000gn/T//cctlI9p4.s 			page 44


 2452 1113 7C0F0000 		.4byte	.LASF409
 2453 1117 13       		.byte	0x13
 2454 1118 99       		.byte	0x99
 2455 1119 D8070000 		.4byte	0x7d8
 2456 111d 0C       		.byte	0xc
 2457 111e 0B       		.uleb128 0xb
 2458 111f EC110000 		.4byte	.LASF416
 2459 1123 13       		.byte	0x13
 2460 1124 9F       		.byte	0x9f
 2461 1125 B2000000 		.4byte	0xb2
 2462 1129 10       		.byte	0x10
 2463 112a 0B       		.uleb128 0xb
 2464 112b A8090000 		.4byte	.LASF410
 2465 112f 13       		.byte	0x13
 2466 1130 A1       		.byte	0xa1
 2467 1131 E3000000 		.4byte	0xe3
 2468 1135 12       		.byte	0x12
 2469 1136 0B       		.uleb128 0xb
 2470 1137 E0100000 		.4byte	.LASF411
 2471 113b 13       		.byte	0x13
 2472 113c A3       		.byte	0xa3
 2473 113d E3000000 		.4byte	0xe3
 2474 1141 13       		.byte	0x13
 2475 1142 00       		.byte	0
 2476 1143 03       		.uleb128 0x3
 2477 1144 3B0D0000 		.4byte	.LASF417
 2478 1148 13       		.byte	0x13
 2479 1149 A4       		.byte	0xa4
 2480 114a E6100000 		.4byte	0x10e6
 2481 114e 14       		.uleb128 0x14
 2482 114f 24       		.byte	0x24
 2483 1150 13       		.byte	0x13
 2484 1151 AA       		.byte	0xaa
 2485 1152 CF110000 		.4byte	0x11cf
 2486 1156 0B       		.uleb128 0xb
 2487 1157 29010000 		.4byte	.LASF418
 2488 115b 13       		.byte	0x13
 2489 115c AE       		.byte	0xae
 2490 115d C8000000 		.4byte	0xc8
 2491 1161 00       		.byte	0
 2492 1162 0B       		.uleb128 0xb
 2493 1163 78060000 		.4byte	.LASF419
 2494 1167 13       		.byte	0x13
 2495 1168 B9       		.byte	0xb9
 2496 1169 EF0F0000 		.4byte	0xfef
 2497 116d 04       		.byte	0x4
 2498 116e 0B       		.uleb128 0xb
 2499 116f 9A060000 		.4byte	.LASF420
 2500 1173 13       		.byte	0x13
 2501 1174 BE       		.byte	0xbe
 2502 1175 EF0F0000 		.4byte	0xfef
 2503 1179 08       		.byte	0x8
 2504 117a 0B       		.uleb128 0xb
 2505 117b AD120000 		.4byte	.LASF421
 2506 117f 13       		.byte	0x13
 2507 1180 C3       		.byte	0xc3
 2508 1181 EF0F0000 		.4byte	0xfef
ARM GAS  /var/folders/t8/16hdwfmd2fg_d3q6dgx6bpmw0000gn/T//cctlI9p4.s 			page 45


 2509 1185 0C       		.byte	0xc
 2510 1186 0B       		.uleb128 0xb
 2511 1187 DF0B0000 		.4byte	.LASF422
 2512 118b 13       		.byte	0x13
 2513 118c C8       		.byte	0xc8
 2514 118d B2000000 		.4byte	0xb2
 2515 1191 10       		.byte	0x10
 2516 1192 0B       		.uleb128 0xb
 2517 1193 A30E0000 		.4byte	.LASF423
 2518 1197 13       		.byte	0x13
 2519 1198 CD       		.byte	0xcd
 2520 1199 B2000000 		.4byte	0xb2
 2521 119d 12       		.byte	0x12
 2522 119e 0B       		.uleb128 0xb
 2523 119f C9090000 		.4byte	.LASF424
 2524 11a3 13       		.byte	0x13
 2525 11a4 D3       		.byte	0xd3
 2526 11a5 CF110000 		.4byte	0x11cf
 2527 11a9 14       		.byte	0x14
 2528 11aa 0B       		.uleb128 0xb
 2529 11ab FA0B0000 		.4byte	.LASF425
 2530 11af 13       		.byte	0x13
 2531 11b0 D9       		.byte	0xd9
 2532 11b1 D5110000 		.4byte	0x11d5
 2533 11b5 18       		.byte	0x18
 2534 11b6 0B       		.uleb128 0xb
 2535 11b7 6B0C0000 		.4byte	.LASF426
 2536 11bb 13       		.byte	0x13
 2537 11bc DF       		.byte	0xdf
 2538 11bd B2000000 		.4byte	0xb2
 2539 11c1 1C       		.byte	0x1c
 2540 11c2 0B       		.uleb128 0xb
 2541 11c3 DA0A0000 		.4byte	.LASF427
 2542 11c7 13       		.byte	0x13
 2543 11c8 E5       		.byte	0xe5
 2544 11c9 2B0D0000 		.4byte	0xd2b
 2545 11cd 20       		.byte	0x20
 2546 11ce 00       		.byte	0
 2547 11cf 0F       		.uleb128 0xf
 2548 11d0 04       		.byte	0x4
 2549 11d1 DB100000 		.4byte	0x10db
 2550 11d5 0F       		.uleb128 0xf
 2551 11d6 04       		.byte	0x4
 2552 11d7 43110000 		.4byte	0x1143
 2553 11db 03       		.uleb128 0x3
 2554 11dc 040F0000 		.4byte	.LASF428
 2555 11e0 13       		.byte	0x13
 2556 11e1 E6       		.byte	0xe6
 2557 11e2 4E110000 		.4byte	0x114e
 2558 11e6 05       		.uleb128 0x5
 2559 11e7 DB110000 		.4byte	0x11db
 2560 11eb 14       		.uleb128 0x14
 2561 11ec 10       		.byte	0x10
 2562 11ed 13       		.byte	0x13
 2563 11ee EB       		.byte	0xeb
 2564 11ef 24120000 		.4byte	0x1224
 2565 11f3 0B       		.uleb128 0xb
ARM GAS  /var/folders/t8/16hdwfmd2fg_d3q6dgx6bpmw0000gn/T//cctlI9p4.s 			page 46


 2566 11f4 F3090000 		.4byte	.LASF429
 2567 11f8 13       		.byte	0x13
 2568 11f9 F0       		.byte	0xf0
 2569 11fa 11100000 		.4byte	0x1011
 2570 11fe 00       		.byte	0
 2571 11ff 0B       		.uleb128 0xb
 2572 1200 3B0A0000 		.4byte	.LASF430
 2573 1204 13       		.byte	0x13
 2574 1205 F5       		.byte	0xf5
 2575 1206 54100000 		.4byte	0x1054
 2576 120a 04       		.byte	0x4
 2577 120b 0B       		.uleb128 0xb
 2578 120c BD050000 		.4byte	.LASF431
 2579 1210 13       		.byte	0x13
 2580 1211 FB       		.byte	0xfb
 2581 1212 33100000 		.4byte	0x1033
 2582 1216 08       		.byte	0x8
 2583 1217 0B       		.uleb128 0xb
 2584 1218 8B110000 		.4byte	.LASF432
 2585 121c 13       		.byte	0x13
 2586 121d FF       		.byte	0xff
 2587 121e CC0F0000 		.4byte	0xfcc
 2588 1222 0C       		.byte	0xc
 2589 1223 00       		.byte	0
 2590 1224 1F       		.uleb128 0x1f
 2591 1225 B80A0000 		.4byte	.LASF433
 2592 1229 13       		.byte	0x13
 2593 122a 0101     		.2byte	0x101
 2594 122c EB110000 		.4byte	0x11eb
 2595 1230 05       		.uleb128 0x5
 2596 1231 24120000 		.4byte	0x1224
 2597 1235 0F       		.uleb128 0xf
 2598 1236 04       		.byte	0x4
 2599 1237 30120000 		.4byte	0x1230
 2600 123b 19       		.uleb128 0x19
 2601 123c 4B120000 		.4byte	0x124b
 2602 1240 4B120000 		.4byte	0x124b
 2603 1244 1C       		.uleb128 0x1c
 2604 1245 9B000000 		.4byte	0x9b
 2605 1249 0F       		.byte	0xf
 2606 124a 00       		.byte	0
 2607 124b 0F       		.uleb128 0xf
 2608 124c 04       		.byte	0x4
 2609 124d E6110000 		.4byte	0x11e6
 2610 1251 19       		.uleb128 0x19
 2611 1252 C0080000 		.4byte	0x8c0
 2612 1256 61120000 		.4byte	0x1261
 2613 125a 1C       		.uleb128 0x1c
 2614 125b 9B000000 		.4byte	0x9b
 2615 125f 0E       		.byte	0xe
 2616 1260 00       		.byte	0
 2617 1261 19       		.uleb128 0x19
 2618 1262 A2000000 		.4byte	0xa2
 2619 1266 71120000 		.4byte	0x1271
 2620 126a 1C       		.uleb128 0x1c
 2621 126b 9B000000 		.4byte	0x9b
 2622 126f 07       		.byte	0x7
ARM GAS  /var/folders/t8/16hdwfmd2fg_d3q6dgx6bpmw0000gn/T//cctlI9p4.s 			page 47


 2623 1270 00       		.byte	0
 2624 1271 1B       		.uleb128 0x1b
 2625 1272 51110000 		.4byte	.LASF434
 2626 1276 13       		.byte	0x13
 2627 1277 9201     		.2byte	0x192
 2628 1279 CB0D0000 		.4byte	0xdcb
 2629 127d 14       		.uleb128 0x14
 2630 127e 10       		.byte	0x10
 2631 127f 14       		.byte	0x14
 2632 1280 7D       		.byte	0x7d
 2633 1281 AA120000 		.4byte	0x12aa
 2634 1285 0B       		.uleb128 0xb
 2635 1286 1F100000 		.4byte	.LASF435
 2636 128a 14       		.byte	0x14
 2637 128b 7E       		.byte	0x7e
 2638 128c A2000000 		.4byte	0xa2
 2639 1290 00       		.byte	0
 2640 1291 0B       		.uleb128 0xb
 2641 1292 05120000 		.4byte	.LASF436
 2642 1296 14       		.byte	0x14
 2643 1297 7F       		.byte	0x7f
 2644 1298 A2000000 		.4byte	0xa2
 2645 129c 01       		.byte	0x1
 2646 129d 0B       		.uleb128 0xb
 2647 129e FC090000 		.4byte	.LASF437
 2648 12a2 14       		.byte	0x14
 2649 12a3 80       		.byte	0x80
 2650 12a4 AA120000 		.4byte	0x12aa
 2651 12a8 02       		.byte	0x2
 2652 12a9 00       		.byte	0
 2653 12aa 19       		.uleb128 0x19
 2654 12ab A2000000 		.4byte	0xa2
 2655 12af BA120000 		.4byte	0x12ba
 2656 12b3 1C       		.uleb128 0x1c
 2657 12b4 9B000000 		.4byte	0x9b
 2658 12b8 0D       		.byte	0xd
 2659 12b9 00       		.byte	0
 2660 12ba 14       		.uleb128 0x14
 2661 12bb 10       		.byte	0x10
 2662 12bc 14       		.byte	0x14
 2663 12bd 83       		.byte	0x83
 2664 12be DB120000 		.4byte	0x12db
 2665 12c2 0B       		.uleb128 0xb
 2666 12c3 1F100000 		.4byte	.LASF435
 2667 12c7 14       		.byte	0x14
 2668 12c8 84       		.byte	0x84
 2669 12c9 A2000000 		.4byte	0xa2
 2670 12cd 00       		.byte	0
 2671 12ce 0B       		.uleb128 0xb
 2672 12cf 60020000 		.4byte	.LASF438
 2673 12d3 14       		.byte	0x14
 2674 12d4 85       		.byte	0x85
 2675 12d5 DB120000 		.4byte	0x12db
 2676 12d9 01       		.byte	0x1
 2677 12da 00       		.byte	0
 2678 12db 19       		.uleb128 0x19
 2679 12dc A2000000 		.4byte	0xa2
ARM GAS  /var/folders/t8/16hdwfmd2fg_d3q6dgx6bpmw0000gn/T//cctlI9p4.s 			page 48


 2680 12e0 EB120000 		.4byte	0x12eb
 2681 12e4 1C       		.uleb128 0x1c
 2682 12e5 9B000000 		.4byte	0x9b
 2683 12e9 0E       		.byte	0xe
 2684 12ea 00       		.byte	0
 2685 12eb 15       		.uleb128 0x15
 2686 12ec 10       		.byte	0x10
 2687 12ed 14       		.byte	0x14
 2688 12ee 7B       		.byte	0x7b
 2689 12ef 0F130000 		.4byte	0x130f
 2690 12f3 23       		.uleb128 0x23
 2691 12f4 72617700 		.ascii	"raw\000"
 2692 12f8 14       		.byte	0x14
 2693 12f9 7C       		.byte	0x7c
 2694 12fa 0F130000 		.4byte	0x130f
 2695 12fe 24       		.uleb128 0x24
 2696 12ff 7D120000 		.4byte	0x127d
 2697 1303 16       		.uleb128 0x16
 2698 1304 30130000 		.4byte	.LASF439
 2699 1308 14       		.byte	0x14
 2700 1309 86       		.byte	0x86
 2701 130a BA120000 		.4byte	0x12ba
 2702 130e 00       		.byte	0
 2703 130f 19       		.uleb128 0x19
 2704 1310 A2000000 		.4byte	0xa2
 2705 1314 1F130000 		.4byte	0x131f
 2706 1318 1C       		.uleb128 0x1c
 2707 1319 9B000000 		.4byte	0x9b
 2708 131d 0F       		.byte	0xf
 2709 131e 00       		.byte	0
 2710 131f 03       		.uleb128 0x3
 2711 1320 08000000 		.4byte	.LASF440
 2712 1324 14       		.byte	0x14
 2713 1325 88       		.byte	0x88
 2714 1326 EB120000 		.4byte	0x12eb
 2715 132a 1D       		.uleb128 0x1d
 2716 132b 15070000 		.4byte	.LASF441
 2717 132f 15       		.byte	0x15
 2718 1330 1B       		.byte	0x1b
 2719 1331 35130000 		.4byte	0x1335
 2720 1335 0F       		.uleb128 0xf
 2721 1336 04       		.byte	0x4
 2722 1337 1F130000 		.4byte	0x131f
 2723 133b 14       		.uleb128 0x14
 2724 133c 01       		.byte	0x1
 2725 133d 16       		.byte	0x16
 2726 133e 21       		.byte	0x21
 2727 133f 8F130000 		.4byte	0x138f
 2728 1343 25       		.uleb128 0x25
 2729 1344 340A0000 		.4byte	.LASF442
 2730 1348 16       		.byte	0x16
 2731 1349 22       		.byte	0x22
 2732 134a E3000000 		.4byte	0xe3
 2733 134e 01       		.byte	0x1
 2734 134f 01       		.byte	0x1
 2735 1350 07       		.byte	0x7
 2736 1351 00       		.byte	0
ARM GAS  /var/folders/t8/16hdwfmd2fg_d3q6dgx6bpmw0000gn/T//cctlI9p4.s 			page 49


 2737 1352 25       		.uleb128 0x25
 2738 1353 59090000 		.4byte	.LASF443
 2739 1357 16       		.byte	0x16
 2740 1358 23       		.byte	0x23
 2741 1359 E3000000 		.4byte	0xe3
 2742 135d 01       		.byte	0x1
 2743 135e 01       		.byte	0x1
 2744 135f 06       		.byte	0x6
 2745 1360 00       		.byte	0
 2746 1361 25       		.uleb128 0x25
 2747 1362 040C0000 		.4byte	.LASF444
 2748 1366 16       		.byte	0x16
 2749 1367 24       		.byte	0x24
 2750 1368 E3000000 		.4byte	0xe3
 2751 136c 01       		.byte	0x1
 2752 136d 01       		.byte	0x1
 2753 136e 05       		.byte	0x5
 2754 136f 00       		.byte	0
 2755 1370 25       		.uleb128 0x25
 2756 1371 A7020000 		.4byte	.LASF445
 2757 1375 16       		.byte	0x16
 2758 1376 25       		.byte	0x25
 2759 1377 E3000000 		.4byte	0xe3
 2760 137b 01       		.byte	0x1
 2761 137c 01       		.byte	0x1
 2762 137d 04       		.byte	0x4
 2763 137e 00       		.byte	0
 2764 137f 25       		.uleb128 0x25
 2765 1380 05120000 		.4byte	.LASF436
 2766 1384 16       		.byte	0x16
 2767 1385 26       		.byte	0x26
 2768 1386 A2000000 		.4byte	0xa2
 2769 138a 01       		.byte	0x1
 2770 138b 04       		.byte	0x4
 2771 138c 00       		.byte	0
 2772 138d 00       		.byte	0
 2773 138e 00       		.byte	0
 2774 138f 15       		.uleb128 0x15
 2775 1390 01       		.byte	0x1
 2776 1391 16       		.byte	0x16
 2777 1392 20       		.byte	0x20
 2778 1393 A8130000 		.4byte	0x13a8
 2779 1397 24       		.uleb128 0x24
 2780 1398 3B130000 		.4byte	0x133b
 2781 139c 23       		.uleb128 0x23
 2782 139d 72617700 		.ascii	"raw\000"
 2783 13a1 16       		.byte	0x16
 2784 13a2 28       		.byte	0x28
 2785 13a3 A2000000 		.4byte	0xa2
 2786 13a7 00       		.byte	0
 2787 13a8 03       		.uleb128 0x3
 2788 13a9 5E080000 		.4byte	.LASF446
 2789 13ad 16       		.byte	0x16
 2790 13ae 29       		.byte	0x29
 2791 13af 8F130000 		.4byte	0x138f
 2792 13b3 1D       		.uleb128 0x1d
 2793 13b4 D4070000 		.4byte	.LASF447
ARM GAS  /var/folders/t8/16hdwfmd2fg_d3q6dgx6bpmw0000gn/T//cctlI9p4.s 			page 50


 2794 13b8 16       		.byte	0x16
 2795 13b9 2B       		.byte	0x2b
 2796 13ba A8130000 		.4byte	0x13a8
 2797 13be 26       		.uleb128 0x26
 2798 13bf 42010000 		.4byte	.LASF463
 2799 13c3 01       		.byte	0x1
 2800 13c4 20       		.byte	0x20
 2801 13c5 00000000 		.4byte	.LFB177
 2802 13c9 26010000 		.4byte	.LFE177-.LFB177
 2803 13cd 01       		.uleb128 0x1
 2804 13ce 9C       		.byte	0x9c
 2805 13cf DD140000 		.4byte	0x14dd
 2806 13d3 27       		.uleb128 0x27
 2807 13d4 680D0000 		.4byte	.LASF464
 2808 13d8 01       		.byte	0x1
 2809 13d9 20       		.byte	0x20
 2810 13da DD140000 		.4byte	0x14dd
 2811 13de 00000000 		.4byte	.LLST0
 2812 13e2 28       		.uleb128 0x28
 2813 13e3 AB080000 		.4byte	.LASF448
 2814 13e7 01       		.byte	0x1
 2815 13e8 22       		.byte	0x22
 2816 13e9 1E060000 		.4byte	0x61e
 2817 13ed 8E000000 		.4byte	.LLST1
 2818 13f1 28       		.uleb128 0x28
 2819 13f2 670F0000 		.4byte	.LASF449
 2820 13f6 01       		.byte	0x1
 2821 13f7 23       		.byte	0x23
 2822 13f8 A2000000 		.4byte	0xa2
 2823 13fc 5F010000 		.4byte	.LLST2
 2824 1400 28       		.uleb128 0x28
 2825 1401 4D070000 		.4byte	.LASF450
 2826 1405 01       		.byte	0x1
 2827 1406 25       		.byte	0x25
 2828 1407 A2000000 		.4byte	0xa2
 2829 140b 89010000 		.4byte	.LLST3
 2830 140f 29       		.uleb128 0x29
 2831 1410 D6000000 		.4byte	.LBB3
 2832 1414 16000000 		.4byte	.LBE3-.LBB3
 2833 1418 3A140000 		.4byte	0x143a
 2834 141c 2A       		.uleb128 0x2a
 2835 141d 6D7300   		.ascii	"ms\000"
 2836 1420 01       		.byte	0x1
 2837 1421 41       		.byte	0x41
 2838 1422 A2000000 		.4byte	0xa2
 2839 1426 C9010000 		.4byte	.LLST5
 2840 142a 2B       		.uleb128 0x2b
 2841 142b E8000000 		.4byte	.LVL35
 2842 142f E3140000 		.4byte	0x14e3
 2843 1433 2C       		.uleb128 0x2c
 2844 1434 01       		.uleb128 0x1
 2845 1435 50       		.byte	0x50
 2846 1436 01       		.uleb128 0x1
 2847 1437 31       		.byte	0x31
 2848 1438 00       		.byte	0
 2849 1439 00       		.byte	0
 2850 143a 29       		.uleb128 0x29
ARM GAS  /var/folders/t8/16hdwfmd2fg_d3q6dgx6bpmw0000gn/T//cctlI9p4.s 			page 51


 2851 143b 4C000000 		.4byte	.LBB2
 2852 143f 16000000 		.4byte	.LBE2-.LBB2
 2853 1443 65140000 		.4byte	0x1465
 2854 1447 2A       		.uleb128 0x2a
 2855 1448 6D7300   		.ascii	"ms\000"
 2856 144b 01       		.byte	0x1
 2857 144c 5F       		.byte	0x5f
 2858 144d A2000000 		.4byte	0xa2
 2859 1451 F2010000 		.4byte	.LLST4
 2860 1455 2B       		.uleb128 0x2b
 2861 1456 5E000000 		.4byte	.LVL10
 2862 145a E3140000 		.4byte	0x14e3
 2863 145e 2C       		.uleb128 0x2c
 2864 145f 01       		.uleb128 0x1
 2865 1460 50       		.byte	0x50
 2866 1461 01       		.uleb128 0x1
 2867 1462 31       		.byte	0x31
 2868 1463 00       		.byte	0
 2869 1464 00       		.byte	0
 2870 1465 2D       		.uleb128 0x2d
 2871 1466 4A000000 		.4byte	.LVL6
 2872 146a EF140000 		.4byte	0x14ef
 2873 146e 2E       		.uleb128 0x2e
 2874 146f 84000000 		.4byte	.LVL17
 2875 1473 FA140000 		.4byte	0x14fa
 2876 1477 82140000 		.4byte	0x1482
 2877 147b 2C       		.uleb128 0x2c
 2878 147c 01       		.uleb128 0x1
 2879 147d 50       		.byte	0x50
 2880 147e 02       		.uleb128 0x2
 2881 147f 77       		.byte	0x77
 2882 1480 00       		.sleb128 0
 2883 1481 00       		.byte	0
 2884 1482 2D       		.uleb128 0x2d
 2885 1483 8A000000 		.4byte	.LVL18
 2886 1487 05150000 		.4byte	0x1505
 2887 148b 2D       		.uleb128 0x2d
 2888 148c C0000000 		.4byte	.LVL25
 2889 1490 10150000 		.4byte	0x1510
 2890 1494 2D       		.uleb128 0x2d
 2891 1495 C6000000 		.4byte	.LVL26
 2892 1499 05150000 		.4byte	0x1505
 2893 149d 2D       		.uleb128 0x2d
 2894 149e CC000000 		.4byte	.LVL28
 2895 14a2 1B150000 		.4byte	0x151b
 2896 14a6 2D       		.uleb128 0x2d
 2897 14a7 F4000000 		.4byte	.LVL37
 2898 14ab 26150000 		.4byte	0x1526
 2899 14af 2D       		.uleb128 0x2d
 2900 14b0 FA000000 		.4byte	.LVL38
 2901 14b4 05150000 		.4byte	0x1505
 2902 14b8 2D       		.uleb128 0x2d
 2903 14b9 00010000 		.4byte	.LVL40
 2904 14bd 31150000 		.4byte	0x1531
 2905 14c1 2D       		.uleb128 0x2d
 2906 14c2 0C010000 		.4byte	.LVL43
 2907 14c6 1B150000 		.4byte	0x151b
ARM GAS  /var/folders/t8/16hdwfmd2fg_d3q6dgx6bpmw0000gn/T//cctlI9p4.s 			page 52


 2908 14ca 2D       		.uleb128 0x2d
 2909 14cb 1E010000 		.4byte	.LVL46
 2910 14cf 3C150000 		.4byte	0x153c
 2911 14d3 2D       		.uleb128 0x2d
 2912 14d4 24010000 		.4byte	.LVL47
 2913 14d8 05150000 		.4byte	0x1505
 2914 14dc 00       		.byte	0
 2915 14dd 0F       		.uleb128 0xf
 2916 14de 04       		.byte	0x4
 2917 14df 29060000 		.4byte	0x629
 2918 14e3 2F       		.uleb128 0x2f
 2919 14e4 5F070000 		.4byte	.LASF451
 2920 14e8 5F070000 		.4byte	.LASF451
 2921 14ec 17       		.byte	0x17
 2922 14ed 0001     		.2byte	0x100
 2923 14ef 30       		.uleb128 0x30
 2924 14f0 39050000 		.4byte	.LASF452
 2925 14f4 39050000 		.4byte	.LASF452
 2926 14f8 18       		.byte	0x18
 2927 14f9 40       		.byte	0x40
 2928 14fa 30       		.uleb128 0x30
 2929 14fb 0E130000 		.4byte	.LASF453
 2930 14ff 0E130000 		.4byte	.LASF453
 2931 1503 15       		.byte	0x15
 2932 1504 28       		.byte	0x28
 2933 1505 30       		.uleb128 0x30
 2934 1506 2F070000 		.4byte	.LASF454
 2935 150a 2F070000 		.4byte	.LASF454
 2936 150e 15       		.byte	0x15
 2937 150f 1D       		.byte	0x1d
 2938 1510 30       		.uleb128 0x30
 2939 1511 9C010000 		.4byte	.LASF455
 2940 1515 9C010000 		.4byte	.LASF455
 2941 1519 15       		.byte	0x15
 2942 151a 2D       		.byte	0x2d
 2943 151b 30       		.uleb128 0x30
 2944 151c 28020000 		.4byte	.LASF456
 2945 1520 28020000 		.4byte	.LASF456
 2946 1524 18       		.byte	0x18
 2947 1525 3F       		.byte	0x3f
 2948 1526 30       		.uleb128 0x30
 2949 1527 570E0000 		.4byte	.LASF457
 2950 152b 570E0000 		.4byte	.LASF457
 2951 152f 15       		.byte	0x15
 2952 1530 29       		.byte	0x29
 2953 1531 30       		.uleb128 0x30
 2954 1532 68040000 		.4byte	.LASF458
 2955 1536 68040000 		.4byte	.LASF458
 2956 153a 15       		.byte	0x15
 2957 153b 25       		.byte	0x25
 2958 153c 30       		.uleb128 0x30
 2959 153d D10B0000 		.4byte	.LASF459
 2960 1541 D10B0000 		.4byte	.LASF459
 2961 1545 15       		.byte	0x15
 2962 1546 2E       		.byte	0x2e
 2963 1547 00       		.byte	0
 2964              		.section	.debug_abbrev,"",%progbits
ARM GAS  /var/folders/t8/16hdwfmd2fg_d3q6dgx6bpmw0000gn/T//cctlI9p4.s 			page 53


 2965              	.Ldebug_abbrev0:
 2966 0000 01       		.uleb128 0x1
 2967 0001 11       		.uleb128 0x11
 2968 0002 01       		.byte	0x1
 2969 0003 25       		.uleb128 0x25
 2970 0004 0E       		.uleb128 0xe
 2971 0005 13       		.uleb128 0x13
 2972 0006 0B       		.uleb128 0xb
 2973 0007 03       		.uleb128 0x3
 2974 0008 0E       		.uleb128 0xe
 2975 0009 1B       		.uleb128 0x1b
 2976 000a 0E       		.uleb128 0xe
 2977 000b 55       		.uleb128 0x55
 2978 000c 17       		.uleb128 0x17
 2979 000d 11       		.uleb128 0x11
 2980 000e 01       		.uleb128 0x1
 2981 000f 10       		.uleb128 0x10
 2982 0010 17       		.uleb128 0x17
 2983 0011 00       		.byte	0
 2984 0012 00       		.byte	0
 2985 0013 02       		.uleb128 0x2
 2986 0014 24       		.uleb128 0x24
 2987 0015 00       		.byte	0
 2988 0016 0B       		.uleb128 0xb
 2989 0017 0B       		.uleb128 0xb
 2990 0018 3E       		.uleb128 0x3e
 2991 0019 0B       		.uleb128 0xb
 2992 001a 03       		.uleb128 0x3
 2993 001b 0E       		.uleb128 0xe
 2994 001c 00       		.byte	0
 2995 001d 00       		.byte	0
 2996 001e 03       		.uleb128 0x3
 2997 001f 16       		.uleb128 0x16
 2998 0020 00       		.byte	0
 2999 0021 03       		.uleb128 0x3
 3000 0022 0E       		.uleb128 0xe
 3001 0023 3A       		.uleb128 0x3a
 3002 0024 0B       		.uleb128 0xb
 3003 0025 3B       		.uleb128 0x3b
 3004 0026 0B       		.uleb128 0xb
 3005 0027 49       		.uleb128 0x49
 3006 0028 13       		.uleb128 0x13
 3007 0029 00       		.byte	0
 3008 002a 00       		.byte	0
 3009 002b 04       		.uleb128 0x4
 3010 002c 24       		.uleb128 0x24
 3011 002d 00       		.byte	0
 3012 002e 0B       		.uleb128 0xb
 3013 002f 0B       		.uleb128 0xb
 3014 0030 3E       		.uleb128 0x3e
 3015 0031 0B       		.uleb128 0xb
 3016 0032 03       		.uleb128 0x3
 3017 0033 08       		.uleb128 0x8
 3018 0034 00       		.byte	0
 3019 0035 00       		.byte	0
 3020 0036 05       		.uleb128 0x5
 3021 0037 26       		.uleb128 0x26
ARM GAS  /var/folders/t8/16hdwfmd2fg_d3q6dgx6bpmw0000gn/T//cctlI9p4.s 			page 54


 3022 0038 00       		.byte	0
 3023 0039 49       		.uleb128 0x49
 3024 003a 13       		.uleb128 0x13
 3025 003b 00       		.byte	0
 3026 003c 00       		.byte	0
 3027 003d 06       		.uleb128 0x6
 3028 003e 35       		.uleb128 0x35
 3029 003f 00       		.byte	0
 3030 0040 49       		.uleb128 0x49
 3031 0041 13       		.uleb128 0x13
 3032 0042 00       		.byte	0
 3033 0043 00       		.byte	0
 3034 0044 07       		.uleb128 0x7
 3035 0045 04       		.uleb128 0x4
 3036 0046 01       		.byte	0x1
 3037 0047 03       		.uleb128 0x3
 3038 0048 0E       		.uleb128 0xe
 3039 0049 3E       		.uleb128 0x3e
 3040 004a 0B       		.uleb128 0xb
 3041 004b 0B       		.uleb128 0xb
 3042 004c 0B       		.uleb128 0xb
 3043 004d 49       		.uleb128 0x49
 3044 004e 13       		.uleb128 0x13
 3045 004f 3A       		.uleb128 0x3a
 3046 0050 0B       		.uleb128 0xb
 3047 0051 3B       		.uleb128 0x3b
 3048 0052 0B       		.uleb128 0xb
 3049 0053 01       		.uleb128 0x1
 3050 0054 13       		.uleb128 0x13
 3051 0055 00       		.byte	0
 3052 0056 00       		.byte	0
 3053 0057 08       		.uleb128 0x8
 3054 0058 28       		.uleb128 0x28
 3055 0059 00       		.byte	0
 3056 005a 03       		.uleb128 0x3
 3057 005b 0E       		.uleb128 0xe
 3058 005c 1C       		.uleb128 0x1c
 3059 005d 0B       		.uleb128 0xb
 3060 005e 00       		.byte	0
 3061 005f 00       		.byte	0
 3062 0060 09       		.uleb128 0x9
 3063 0061 28       		.uleb128 0x28
 3064 0062 00       		.byte	0
 3065 0063 03       		.uleb128 0x3
 3066 0064 08       		.uleb128 0x8
 3067 0065 1C       		.uleb128 0x1c
 3068 0066 0B       		.uleb128 0xb
 3069 0067 00       		.byte	0
 3070 0068 00       		.byte	0
 3071 0069 0A       		.uleb128 0xa
 3072 006a 13       		.uleb128 0x13
 3073 006b 01       		.byte	0x1
 3074 006c 03       		.uleb128 0x3
 3075 006d 0E       		.uleb128 0xe
 3076 006e 0B       		.uleb128 0xb
 3077 006f 0B       		.uleb128 0xb
 3078 0070 3A       		.uleb128 0x3a
ARM GAS  /var/folders/t8/16hdwfmd2fg_d3q6dgx6bpmw0000gn/T//cctlI9p4.s 			page 55


 3079 0071 0B       		.uleb128 0xb
 3080 0072 3B       		.uleb128 0x3b
 3081 0073 0B       		.uleb128 0xb
 3082 0074 01       		.uleb128 0x1
 3083 0075 13       		.uleb128 0x13
 3084 0076 00       		.byte	0
 3085 0077 00       		.byte	0
 3086 0078 0B       		.uleb128 0xb
 3087 0079 0D       		.uleb128 0xd
 3088 007a 00       		.byte	0
 3089 007b 03       		.uleb128 0x3
 3090 007c 0E       		.uleb128 0xe
 3091 007d 3A       		.uleb128 0x3a
 3092 007e 0B       		.uleb128 0xb
 3093 007f 3B       		.uleb128 0x3b
 3094 0080 0B       		.uleb128 0xb
 3095 0081 49       		.uleb128 0x49
 3096 0082 13       		.uleb128 0x13
 3097 0083 38       		.uleb128 0x38
 3098 0084 0B       		.uleb128 0xb
 3099 0085 00       		.byte	0
 3100 0086 00       		.byte	0
 3101 0087 0C       		.uleb128 0xc
 3102 0088 0D       		.uleb128 0xd
 3103 0089 00       		.byte	0
 3104 008a 03       		.uleb128 0x3
 3105 008b 08       		.uleb128 0x8
 3106 008c 3A       		.uleb128 0x3a
 3107 008d 0B       		.uleb128 0xb
 3108 008e 3B       		.uleb128 0x3b
 3109 008f 0B       		.uleb128 0xb
 3110 0090 49       		.uleb128 0x49
 3111 0091 13       		.uleb128 0x13
 3112 0092 38       		.uleb128 0x38
 3113 0093 0B       		.uleb128 0xb
 3114 0094 00       		.byte	0
 3115 0095 00       		.byte	0
 3116 0096 0D       		.uleb128 0xd
 3117 0097 0D       		.uleb128 0xd
 3118 0098 00       		.byte	0
 3119 0099 03       		.uleb128 0x3
 3120 009a 08       		.uleb128 0x8
 3121 009b 3A       		.uleb128 0x3a
 3122 009c 0B       		.uleb128 0xb
 3123 009d 3B       		.uleb128 0x3b
 3124 009e 05       		.uleb128 0x5
 3125 009f 49       		.uleb128 0x49
 3126 00a0 13       		.uleb128 0x13
 3127 00a1 38       		.uleb128 0x38
 3128 00a2 0B       		.uleb128 0xb
 3129 00a3 00       		.byte	0
 3130 00a4 00       		.byte	0
 3131 00a5 0E       		.uleb128 0xe
 3132 00a6 0D       		.uleb128 0xd
 3133 00a7 00       		.byte	0
 3134 00a8 03       		.uleb128 0x3
 3135 00a9 0E       		.uleb128 0xe
ARM GAS  /var/folders/t8/16hdwfmd2fg_d3q6dgx6bpmw0000gn/T//cctlI9p4.s 			page 56


 3136 00aa 3A       		.uleb128 0x3a
 3137 00ab 0B       		.uleb128 0xb
 3138 00ac 3B       		.uleb128 0x3b
 3139 00ad 05       		.uleb128 0x5
 3140 00ae 49       		.uleb128 0x49
 3141 00af 13       		.uleb128 0x13
 3142 00b0 38       		.uleb128 0x38
 3143 00b1 0B       		.uleb128 0xb
 3144 00b2 00       		.byte	0
 3145 00b3 00       		.byte	0
 3146 00b4 0F       		.uleb128 0xf
 3147 00b5 0F       		.uleb128 0xf
 3148 00b6 00       		.byte	0
 3149 00b7 0B       		.uleb128 0xb
 3150 00b8 0B       		.uleb128 0xb
 3151 00b9 49       		.uleb128 0x49
 3152 00ba 13       		.uleb128 0x13
 3153 00bb 00       		.byte	0
 3154 00bc 00       		.byte	0
 3155 00bd 10       		.uleb128 0x10
 3156 00be 13       		.uleb128 0x13
 3157 00bf 01       		.byte	0x1
 3158 00c0 03       		.uleb128 0x3
 3159 00c1 0E       		.uleb128 0xe
 3160 00c2 0B       		.uleb128 0xb
 3161 00c3 0B       		.uleb128 0xb
 3162 00c4 3A       		.uleb128 0x3a
 3163 00c5 0B       		.uleb128 0xb
 3164 00c6 3B       		.uleb128 0x3b
 3165 00c7 05       		.uleb128 0x5
 3166 00c8 01       		.uleb128 0x1
 3167 00c9 13       		.uleb128 0x13
 3168 00ca 00       		.byte	0
 3169 00cb 00       		.byte	0
 3170 00cc 11       		.uleb128 0x11
 3171 00cd 15       		.uleb128 0x15
 3172 00ce 01       		.byte	0x1
 3173 00cf 27       		.uleb128 0x27
 3174 00d0 19       		.uleb128 0x19
 3175 00d1 01       		.uleb128 0x1
 3176 00d2 13       		.uleb128 0x13
 3177 00d3 00       		.byte	0
 3178 00d4 00       		.byte	0
 3179 00d5 12       		.uleb128 0x12
 3180 00d6 05       		.uleb128 0x5
 3181 00d7 00       		.byte	0
 3182 00d8 49       		.uleb128 0x49
 3183 00d9 13       		.uleb128 0x13
 3184 00da 00       		.byte	0
 3185 00db 00       		.byte	0
 3186 00dc 13       		.uleb128 0x13
 3187 00dd 0F       		.uleb128 0xf
 3188 00de 00       		.byte	0
 3189 00df 0B       		.uleb128 0xb
 3190 00e0 0B       		.uleb128 0xb
 3191 00e1 00       		.byte	0
 3192 00e2 00       		.byte	0
ARM GAS  /var/folders/t8/16hdwfmd2fg_d3q6dgx6bpmw0000gn/T//cctlI9p4.s 			page 57


 3193 00e3 14       		.uleb128 0x14
 3194 00e4 13       		.uleb128 0x13
 3195 00e5 01       		.byte	0x1
 3196 00e6 0B       		.uleb128 0xb
 3197 00e7 0B       		.uleb128 0xb
 3198 00e8 3A       		.uleb128 0x3a
 3199 00e9 0B       		.uleb128 0xb
 3200 00ea 3B       		.uleb128 0x3b
 3201 00eb 0B       		.uleb128 0xb
 3202 00ec 01       		.uleb128 0x1
 3203 00ed 13       		.uleb128 0x13
 3204 00ee 00       		.byte	0
 3205 00ef 00       		.byte	0
 3206 00f0 15       		.uleb128 0x15
 3207 00f1 17       		.uleb128 0x17
 3208 00f2 01       		.byte	0x1
 3209 00f3 0B       		.uleb128 0xb
 3210 00f4 0B       		.uleb128 0xb
 3211 00f5 3A       		.uleb128 0x3a
 3212 00f6 0B       		.uleb128 0xb
 3213 00f7 3B       		.uleb128 0x3b
 3214 00f8 0B       		.uleb128 0xb
 3215 00f9 01       		.uleb128 0x1
 3216 00fa 13       		.uleb128 0x13
 3217 00fb 00       		.byte	0
 3218 00fc 00       		.byte	0
 3219 00fd 16       		.uleb128 0x16
 3220 00fe 0D       		.uleb128 0xd
 3221 00ff 00       		.byte	0
 3222 0100 03       		.uleb128 0x3
 3223 0101 0E       		.uleb128 0xe
 3224 0102 3A       		.uleb128 0x3a
 3225 0103 0B       		.uleb128 0xb
 3226 0104 3B       		.uleb128 0x3b
 3227 0105 0B       		.uleb128 0xb
 3228 0106 49       		.uleb128 0x49
 3229 0107 13       		.uleb128 0x13
 3230 0108 00       		.byte	0
 3231 0109 00       		.byte	0
 3232 010a 17       		.uleb128 0x17
 3233 010b 0D       		.uleb128 0xd
 3234 010c 00       		.byte	0
 3235 010d 03       		.uleb128 0x3
 3236 010e 0E       		.uleb128 0xe
 3237 010f 3A       		.uleb128 0x3a
 3238 0110 0B       		.uleb128 0xb
 3239 0111 3B       		.uleb128 0x3b
 3240 0112 05       		.uleb128 0x5
 3241 0113 49       		.uleb128 0x49
 3242 0114 13       		.uleb128 0x13
 3243 0115 00       		.byte	0
 3244 0116 00       		.byte	0
 3245 0117 18       		.uleb128 0x18
 3246 0118 34       		.uleb128 0x34
 3247 0119 00       		.byte	0
 3248 011a 03       		.uleb128 0x3
 3249 011b 08       		.uleb128 0x8
ARM GAS  /var/folders/t8/16hdwfmd2fg_d3q6dgx6bpmw0000gn/T//cctlI9p4.s 			page 58


 3250 011c 3A       		.uleb128 0x3a
 3251 011d 0B       		.uleb128 0xb
 3252 011e 3B       		.uleb128 0x3b
 3253 011f 05       		.uleb128 0x5
 3254 0120 49       		.uleb128 0x49
 3255 0121 13       		.uleb128 0x13
 3256 0122 3F       		.uleb128 0x3f
 3257 0123 19       		.uleb128 0x19
 3258 0124 3C       		.uleb128 0x3c
 3259 0125 19       		.uleb128 0x19
 3260 0126 00       		.byte	0
 3261 0127 00       		.byte	0
 3262 0128 19       		.uleb128 0x19
 3263 0129 01       		.uleb128 0x1
 3264 012a 01       		.byte	0x1
 3265 012b 49       		.uleb128 0x49
 3266 012c 13       		.uleb128 0x13
 3267 012d 01       		.uleb128 0x1
 3268 012e 13       		.uleb128 0x13
 3269 012f 00       		.byte	0
 3270 0130 00       		.byte	0
 3271 0131 1A       		.uleb128 0x1a
 3272 0132 21       		.uleb128 0x21
 3273 0133 00       		.byte	0
 3274 0134 00       		.byte	0
 3275 0135 00       		.byte	0
 3276 0136 1B       		.uleb128 0x1b
 3277 0137 34       		.uleb128 0x34
 3278 0138 00       		.byte	0
 3279 0139 03       		.uleb128 0x3
 3280 013a 0E       		.uleb128 0xe
 3281 013b 3A       		.uleb128 0x3a
 3282 013c 0B       		.uleb128 0xb
 3283 013d 3B       		.uleb128 0x3b
 3284 013e 05       		.uleb128 0x5
 3285 013f 49       		.uleb128 0x49
 3286 0140 13       		.uleb128 0x13
 3287 0141 3F       		.uleb128 0x3f
 3288 0142 19       		.uleb128 0x19
 3289 0143 3C       		.uleb128 0x3c
 3290 0144 19       		.uleb128 0x19
 3291 0145 00       		.byte	0
 3292 0146 00       		.byte	0
 3293 0147 1C       		.uleb128 0x1c
 3294 0148 21       		.uleb128 0x21
 3295 0149 00       		.byte	0
 3296 014a 49       		.uleb128 0x49
 3297 014b 13       		.uleb128 0x13
 3298 014c 2F       		.uleb128 0x2f
 3299 014d 0B       		.uleb128 0xb
 3300 014e 00       		.byte	0
 3301 014f 00       		.byte	0
 3302 0150 1D       		.uleb128 0x1d
 3303 0151 34       		.uleb128 0x34
 3304 0152 00       		.byte	0
 3305 0153 03       		.uleb128 0x3
 3306 0154 0E       		.uleb128 0xe
ARM GAS  /var/folders/t8/16hdwfmd2fg_d3q6dgx6bpmw0000gn/T//cctlI9p4.s 			page 59


 3307 0155 3A       		.uleb128 0x3a
 3308 0156 0B       		.uleb128 0xb
 3309 0157 3B       		.uleb128 0x3b
 3310 0158 0B       		.uleb128 0xb
 3311 0159 49       		.uleb128 0x49
 3312 015a 13       		.uleb128 0x13
 3313 015b 3F       		.uleb128 0x3f
 3314 015c 19       		.uleb128 0x19
 3315 015d 3C       		.uleb128 0x3c
 3316 015e 19       		.uleb128 0x19
 3317 015f 00       		.byte	0
 3318 0160 00       		.byte	0
 3319 0161 1E       		.uleb128 0x1e
 3320 0162 13       		.uleb128 0x13
 3321 0163 01       		.byte	0x1
 3322 0164 0B       		.uleb128 0xb
 3323 0165 05       		.uleb128 0x5
 3324 0166 3A       		.uleb128 0x3a
 3325 0167 0B       		.uleb128 0xb
 3326 0168 3B       		.uleb128 0x3b
 3327 0169 0B       		.uleb128 0xb
 3328 016a 01       		.uleb128 0x1
 3329 016b 13       		.uleb128 0x13
 3330 016c 00       		.byte	0
 3331 016d 00       		.byte	0
 3332 016e 1F       		.uleb128 0x1f
 3333 016f 16       		.uleb128 0x16
 3334 0170 00       		.byte	0
 3335 0171 03       		.uleb128 0x3
 3336 0172 0E       		.uleb128 0xe
 3337 0173 3A       		.uleb128 0x3a
 3338 0174 0B       		.uleb128 0xb
 3339 0175 3B       		.uleb128 0x3b
 3340 0176 05       		.uleb128 0x5
 3341 0177 49       		.uleb128 0x49
 3342 0178 13       		.uleb128 0x13
 3343 0179 00       		.byte	0
 3344 017a 00       		.byte	0
 3345 017b 20       		.uleb128 0x20
 3346 017c 04       		.uleb128 0x4
 3347 017d 01       		.byte	0x1
 3348 017e 3E       		.uleb128 0x3e
 3349 017f 0B       		.uleb128 0xb
 3350 0180 0B       		.uleb128 0xb
 3351 0181 0B       		.uleb128 0xb
 3352 0182 49       		.uleb128 0x49
 3353 0183 13       		.uleb128 0x13
 3354 0184 3A       		.uleb128 0x3a
 3355 0185 0B       		.uleb128 0xb
 3356 0186 3B       		.uleb128 0x3b
 3357 0187 05       		.uleb128 0x5
 3358 0188 01       		.uleb128 0x1
 3359 0189 13       		.uleb128 0x13
 3360 018a 00       		.byte	0
 3361 018b 00       		.byte	0
 3362 018c 21       		.uleb128 0x21
 3363 018d 13       		.uleb128 0x13
ARM GAS  /var/folders/t8/16hdwfmd2fg_d3q6dgx6bpmw0000gn/T//cctlI9p4.s 			page 60


 3364 018e 01       		.byte	0x1
 3365 018f 0B       		.uleb128 0xb
 3366 0190 0B       		.uleb128 0xb
 3367 0191 3A       		.uleb128 0x3a
 3368 0192 0B       		.uleb128 0xb
 3369 0193 3B       		.uleb128 0x3b
 3370 0194 05       		.uleb128 0x5
 3371 0195 01       		.uleb128 0x1
 3372 0196 13       		.uleb128 0x13
 3373 0197 00       		.byte	0
 3374 0198 00       		.byte	0
 3375 0199 22       		.uleb128 0x22
 3376 019a 15       		.uleb128 0x15
 3377 019b 01       		.byte	0x1
 3378 019c 27       		.uleb128 0x27
 3379 019d 19       		.uleb128 0x19
 3380 019e 49       		.uleb128 0x49
 3381 019f 13       		.uleb128 0x13
 3382 01a0 01       		.uleb128 0x1
 3383 01a1 13       		.uleb128 0x13
 3384 01a2 00       		.byte	0
 3385 01a3 00       		.byte	0
 3386 01a4 23       		.uleb128 0x23
 3387 01a5 0D       		.uleb128 0xd
 3388 01a6 00       		.byte	0
 3389 01a7 03       		.uleb128 0x3
 3390 01a8 08       		.uleb128 0x8
 3391 01a9 3A       		.uleb128 0x3a
 3392 01aa 0B       		.uleb128 0xb
 3393 01ab 3B       		.uleb128 0x3b
 3394 01ac 0B       		.uleb128 0xb
 3395 01ad 49       		.uleb128 0x49
 3396 01ae 13       		.uleb128 0x13
 3397 01af 00       		.byte	0
 3398 01b0 00       		.byte	0
 3399 01b1 24       		.uleb128 0x24
 3400 01b2 0D       		.uleb128 0xd
 3401 01b3 00       		.byte	0
 3402 01b4 49       		.uleb128 0x49
 3403 01b5 13       		.uleb128 0x13
 3404 01b6 00       		.byte	0
 3405 01b7 00       		.byte	0
 3406 01b8 25       		.uleb128 0x25
 3407 01b9 0D       		.uleb128 0xd
 3408 01ba 00       		.byte	0
 3409 01bb 03       		.uleb128 0x3
 3410 01bc 0E       		.uleb128 0xe
 3411 01bd 3A       		.uleb128 0x3a
 3412 01be 0B       		.uleb128 0xb
 3413 01bf 3B       		.uleb128 0x3b
 3414 01c0 0B       		.uleb128 0xb
 3415 01c1 49       		.uleb128 0x49
 3416 01c2 13       		.uleb128 0x13
 3417 01c3 0B       		.uleb128 0xb
 3418 01c4 0B       		.uleb128 0xb
 3419 01c5 0D       		.uleb128 0xd
 3420 01c6 0B       		.uleb128 0xb
ARM GAS  /var/folders/t8/16hdwfmd2fg_d3q6dgx6bpmw0000gn/T//cctlI9p4.s 			page 61


 3421 01c7 0C       		.uleb128 0xc
 3422 01c8 0B       		.uleb128 0xb
 3423 01c9 38       		.uleb128 0x38
 3424 01ca 0B       		.uleb128 0xb
 3425 01cb 00       		.byte	0
 3426 01cc 00       		.byte	0
 3427 01cd 26       		.uleb128 0x26
 3428 01ce 2E       		.uleb128 0x2e
 3429 01cf 01       		.byte	0x1
 3430 01d0 3F       		.uleb128 0x3f
 3431 01d1 19       		.uleb128 0x19
 3432 01d2 03       		.uleb128 0x3
 3433 01d3 0E       		.uleb128 0xe
 3434 01d4 3A       		.uleb128 0x3a
 3435 01d5 0B       		.uleb128 0xb
 3436 01d6 3B       		.uleb128 0x3b
 3437 01d7 0B       		.uleb128 0xb
 3438 01d8 27       		.uleb128 0x27
 3439 01d9 19       		.uleb128 0x19
 3440 01da 11       		.uleb128 0x11
 3441 01db 01       		.uleb128 0x1
 3442 01dc 12       		.uleb128 0x12
 3443 01dd 06       		.uleb128 0x6
 3444 01de 40       		.uleb128 0x40
 3445 01df 18       		.uleb128 0x18
 3446 01e0 9742     		.uleb128 0x2117
 3447 01e2 19       		.uleb128 0x19
 3448 01e3 01       		.uleb128 0x1
 3449 01e4 13       		.uleb128 0x13
 3450 01e5 00       		.byte	0
 3451 01e6 00       		.byte	0
 3452 01e7 27       		.uleb128 0x27
 3453 01e8 05       		.uleb128 0x5
 3454 01e9 00       		.byte	0
 3455 01ea 03       		.uleb128 0x3
 3456 01eb 0E       		.uleb128 0xe
 3457 01ec 3A       		.uleb128 0x3a
 3458 01ed 0B       		.uleb128 0xb
 3459 01ee 3B       		.uleb128 0x3b
 3460 01ef 0B       		.uleb128 0xb
 3461 01f0 49       		.uleb128 0x49
 3462 01f1 13       		.uleb128 0x13
 3463 01f2 02       		.uleb128 0x2
 3464 01f3 17       		.uleb128 0x17
 3465 01f4 00       		.byte	0
 3466 01f5 00       		.byte	0
 3467 01f6 28       		.uleb128 0x28
 3468 01f7 34       		.uleb128 0x34
 3469 01f8 00       		.byte	0
 3470 01f9 03       		.uleb128 0x3
 3471 01fa 0E       		.uleb128 0xe
 3472 01fb 3A       		.uleb128 0x3a
 3473 01fc 0B       		.uleb128 0xb
 3474 01fd 3B       		.uleb128 0x3b
 3475 01fe 0B       		.uleb128 0xb
 3476 01ff 49       		.uleb128 0x49
 3477 0200 13       		.uleb128 0x13
ARM GAS  /var/folders/t8/16hdwfmd2fg_d3q6dgx6bpmw0000gn/T//cctlI9p4.s 			page 62


 3478 0201 02       		.uleb128 0x2
 3479 0202 17       		.uleb128 0x17
 3480 0203 00       		.byte	0
 3481 0204 00       		.byte	0
 3482 0205 29       		.uleb128 0x29
 3483 0206 0B       		.uleb128 0xb
 3484 0207 01       		.byte	0x1
 3485 0208 11       		.uleb128 0x11
 3486 0209 01       		.uleb128 0x1
 3487 020a 12       		.uleb128 0x12
 3488 020b 06       		.uleb128 0x6
 3489 020c 01       		.uleb128 0x1
 3490 020d 13       		.uleb128 0x13
 3491 020e 00       		.byte	0
 3492 020f 00       		.byte	0
 3493 0210 2A       		.uleb128 0x2a
 3494 0211 34       		.uleb128 0x34
 3495 0212 00       		.byte	0
 3496 0213 03       		.uleb128 0x3
 3497 0214 08       		.uleb128 0x8
 3498 0215 3A       		.uleb128 0x3a
 3499 0216 0B       		.uleb128 0xb
 3500 0217 3B       		.uleb128 0x3b
 3501 0218 0B       		.uleb128 0xb
 3502 0219 49       		.uleb128 0x49
 3503 021a 13       		.uleb128 0x13
 3504 021b 02       		.uleb128 0x2
 3505 021c 17       		.uleb128 0x17
 3506 021d 00       		.byte	0
 3507 021e 00       		.byte	0
 3508 021f 2B       		.uleb128 0x2b
 3509 0220 898201   		.uleb128 0x4109
 3510 0223 01       		.byte	0x1
 3511 0224 11       		.uleb128 0x11
 3512 0225 01       		.uleb128 0x1
 3513 0226 31       		.uleb128 0x31
 3514 0227 13       		.uleb128 0x13
 3515 0228 00       		.byte	0
 3516 0229 00       		.byte	0
 3517 022a 2C       		.uleb128 0x2c
 3518 022b 8A8201   		.uleb128 0x410a
 3519 022e 00       		.byte	0
 3520 022f 02       		.uleb128 0x2
 3521 0230 18       		.uleb128 0x18
 3522 0231 9142     		.uleb128 0x2111
 3523 0233 18       		.uleb128 0x18
 3524 0234 00       		.byte	0
 3525 0235 00       		.byte	0
 3526 0236 2D       		.uleb128 0x2d
 3527 0237 898201   		.uleb128 0x4109
 3528 023a 00       		.byte	0
 3529 023b 11       		.uleb128 0x11
 3530 023c 01       		.uleb128 0x1
 3531 023d 31       		.uleb128 0x31
 3532 023e 13       		.uleb128 0x13
 3533 023f 00       		.byte	0
 3534 0240 00       		.byte	0
ARM GAS  /var/folders/t8/16hdwfmd2fg_d3q6dgx6bpmw0000gn/T//cctlI9p4.s 			page 63


 3535 0241 2E       		.uleb128 0x2e
 3536 0242 898201   		.uleb128 0x4109
 3537 0245 01       		.byte	0x1
 3538 0246 11       		.uleb128 0x11
 3539 0247 01       		.uleb128 0x1
 3540 0248 31       		.uleb128 0x31
 3541 0249 13       		.uleb128 0x13
 3542 024a 01       		.uleb128 0x1
 3543 024b 13       		.uleb128 0x13
 3544 024c 00       		.byte	0
 3545 024d 00       		.byte	0
 3546 024e 2F       		.uleb128 0x2f
 3547 024f 2E       		.uleb128 0x2e
 3548 0250 00       		.byte	0
 3549 0251 3F       		.uleb128 0x3f
 3550 0252 19       		.uleb128 0x19
 3551 0253 3C       		.uleb128 0x3c
 3552 0254 19       		.uleb128 0x19
 3553 0255 6E       		.uleb128 0x6e
 3554 0256 0E       		.uleb128 0xe
 3555 0257 03       		.uleb128 0x3
 3556 0258 0E       		.uleb128 0xe
 3557 0259 3A       		.uleb128 0x3a
 3558 025a 0B       		.uleb128 0xb
 3559 025b 3B       		.uleb128 0x3b
 3560 025c 05       		.uleb128 0x5
 3561 025d 00       		.byte	0
 3562 025e 00       		.byte	0
 3563 025f 30       		.uleb128 0x30
 3564 0260 2E       		.uleb128 0x2e
 3565 0261 00       		.byte	0
 3566 0262 3F       		.uleb128 0x3f
 3567 0263 19       		.uleb128 0x19
 3568 0264 3C       		.uleb128 0x3c
 3569 0265 19       		.uleb128 0x19
 3570 0266 6E       		.uleb128 0x6e
 3571 0267 0E       		.uleb128 0xe
 3572 0268 03       		.uleb128 0x3
 3573 0269 0E       		.uleb128 0xe
 3574 026a 3A       		.uleb128 0x3a
 3575 026b 0B       		.uleb128 0xb
 3576 026c 3B       		.uleb128 0x3b
 3577 026d 0B       		.uleb128 0xb
 3578 026e 00       		.byte	0
 3579 026f 00       		.byte	0
 3580 0270 00       		.byte	0
 3581              		.section	.debug_loc,"",%progbits
 3582              	.Ldebug_loc0:
 3583              	.LLST0:
 3584 0000 00000000 		.4byte	.LVL0
 3585 0004 1C000000 		.4byte	.LVL1
 3586 0008 0100     		.2byte	0x1
 3587 000a 50       		.byte	0x50
 3588 000b 1C000000 		.4byte	.LVL1
 3589 000f 20000000 		.4byte	.LVL2
 3590 0013 0100     		.2byte	0x1
 3591 0015 55       		.byte	0x55
ARM GAS  /var/folders/t8/16hdwfmd2fg_d3q6dgx6bpmw0000gn/T//cctlI9p4.s 			page 64


 3592 0016 20000000 		.4byte	.LVL2
 3593 001a 4C000000 		.4byte	.LVL7
 3594 001e 0100     		.2byte	0x1
 3595 0020 54       		.byte	0x54
 3596 0021 4C000000 		.4byte	.LVL7
 3597 0025 66000000 		.4byte	.LVL11
 3598 0029 0100     		.2byte	0x1
 3599 002b 55       		.byte	0x55
 3600 002c 66000000 		.4byte	.LVL11
 3601 0030 6A000000 		.4byte	.LVL12
 3602 0034 0100     		.2byte	0x1
 3603 0036 54       		.byte	0x54
 3604 0037 6A000000 		.4byte	.LVL12
 3605 003b 6E000000 		.4byte	.LVL14
 3606 003f 0300     		.2byte	0x3
 3607 0041 75       		.byte	0x75
 3608 0042 02       		.sleb128 2
 3609 0043 9F       		.byte	0x9f
 3610 0044 6E000000 		.4byte	.LVL14
 3611 0048 70000000 		.4byte	.LVL15
 3612 004c 0100     		.2byte	0x1
 3613 004e 55       		.byte	0x55
 3614 004f 70000000 		.4byte	.LVL15
 3615 0053 8C000000 		.4byte	.LVL19
 3616 0057 0100     		.2byte	0x1
 3617 0059 54       		.byte	0x54
 3618 005a 96000000 		.4byte	.LVL20
 3619 005e D4000000 		.4byte	.LVL30
 3620 0062 0100     		.2byte	0x1
 3621 0064 54       		.byte	0x54
 3622 0065 D4000000 		.4byte	.LVL30
 3623 0069 D6000000 		.4byte	.LVL31
 3624 006d 0100     		.2byte	0x1
 3625 006f 53       		.byte	0x53
 3626 0070 D6000000 		.4byte	.LVL31
 3627 0074 F0000000 		.4byte	.LVL36
 3628 0078 0100     		.2byte	0x1
 3629 007a 5A       		.byte	0x5a
 3630 007b F0000000 		.4byte	.LVL36
 3631 007f 26010000 		.4byte	.LFE177
 3632 0083 0100     		.2byte	0x1
 3633 0085 54       		.byte	0x54
 3634 0086 00000000 		.4byte	0
 3635 008a 00000000 		.4byte	0
 3636              	.LLST1:
 3637 008e 00000000 		.4byte	.LVL0
 3638 0092 1C000000 		.4byte	.LVL1
 3639 0096 0200     		.2byte	0x2
 3640 0098 30       		.byte	0x30
 3641 0099 9F       		.byte	0x9f
 3642 009a 20000000 		.4byte	.LVL2
 3643 009e 3A000000 		.4byte	.LVL3
 3644 00a2 0100     		.2byte	0x1
 3645 00a4 50       		.byte	0x50
 3646 00a5 3C000000 		.4byte	.LVL4
 3647 00a9 46000000 		.4byte	.LVL5
 3648 00ad 0100     		.2byte	0x1
ARM GAS  /var/folders/t8/16hdwfmd2fg_d3q6dgx6bpmw0000gn/T//cctlI9p4.s 			page 65


 3649 00af 50       		.byte	0x50
 3650 00b0 66000000 		.4byte	.LVL11
 3651 00b4 6C000000 		.4byte	.LVL13
 3652 00b8 0100     		.2byte	0x1
 3653 00ba 50       		.byte	0x50
 3654 00bb 6C000000 		.4byte	.LVL13
 3655 00bf 70000000 		.4byte	.LVL15
 3656 00c3 0100     		.2byte	0x1
 3657 00c5 56       		.byte	0x56
 3658 00c6 70000000 		.4byte	.LVL15
 3659 00ca 80000000 		.4byte	.LVL16
 3660 00ce 0100     		.2byte	0x1
 3661 00d0 50       		.byte	0x50
 3662 00d1 96000000 		.4byte	.LVL20
 3663 00d5 A4000000 		.4byte	.LVL21
 3664 00d9 0100     		.2byte	0x1
 3665 00db 50       		.byte	0x50
 3666 00dc A6000000 		.4byte	.LVL22
 3667 00e0 AA000000 		.4byte	.LVL23
 3668 00e4 0100     		.2byte	0x1
 3669 00e6 50       		.byte	0x50
 3670 00e7 AA000000 		.4byte	.LVL23
 3671 00eb B8000000 		.4byte	.LVL24
 3672 00ef 0100     		.2byte	0x1
 3673 00f1 53       		.byte	0x53
 3674 00f2 B8000000 		.4byte	.LVL24
 3675 00f6 BF000000 		.4byte	.LVL25-1
 3676 00fa 0200     		.2byte	0x2
 3677 00fc 75       		.byte	0x75
 3678 00fd 01       		.sleb128 1
 3679 00fe C8000000 		.4byte	.LVL27
 3680 0102 CB000000 		.4byte	.LVL28-1
 3681 0106 0100     		.2byte	0x1
 3682 0108 50       		.byte	0x50
 3683 0109 D0000000 		.4byte	.LVL29
 3684 010d D6000000 		.4byte	.LVL31
 3685 0111 0100     		.2byte	0x1
 3686 0113 50       		.byte	0x50
 3687 0114 D6000000 		.4byte	.LVL31
 3688 0118 DE000000 		.4byte	.LVL33
 3689 011c 0100     		.2byte	0x1
 3690 011e 53       		.byte	0x53
 3691 011f F0000000 		.4byte	.LVL36
 3692 0123 F3000000 		.4byte	.LVL37-1
 3693 0127 0100     		.2byte	0x1
 3694 0129 50       		.byte	0x50
 3695 012a FC000000 		.4byte	.LVL39
 3696 012e FF000000 		.4byte	.LVL40-1
 3697 0132 0100     		.2byte	0x1
 3698 0134 50       		.byte	0x50
 3699 0135 06010000 		.4byte	.LVL42
 3700 0139 0B010000 		.4byte	.LVL43-1
 3701 013d 0100     		.2byte	0x1
 3702 013f 53       		.byte	0x53
 3703 0140 10010000 		.4byte	.LVL44
 3704 0144 14010000 		.4byte	.LVL45
 3705 0148 0100     		.2byte	0x1
ARM GAS  /var/folders/t8/16hdwfmd2fg_d3q6dgx6bpmw0000gn/T//cctlI9p4.s 			page 66


 3706 014a 50       		.byte	0x50
 3707 014b 14010000 		.4byte	.LVL45
 3708 014f 1D010000 		.4byte	.LVL46-1
 3709 0153 0200     		.2byte	0x2
 3710 0155 75       		.byte	0x75
 3711 0156 01       		.sleb128 1
 3712 0157 00000000 		.4byte	0
 3713 015b 00000000 		.4byte	0
 3714              	.LLST2:
 3715 015f 00000000 		.4byte	.LVL0
 3716 0163 1C000000 		.4byte	.LVL1
 3717 0167 0200     		.2byte	0x2
 3718 0169 30       		.byte	0x30
 3719 016a 9F       		.byte	0x9f
 3720 016b 1C000000 		.4byte	.LVL1
 3721 016f 8C000000 		.4byte	.LVL19
 3722 0173 0100     		.2byte	0x1
 3723 0175 56       		.byte	0x56
 3724 0176 96000000 		.4byte	.LVL20
 3725 017a 26010000 		.4byte	.LFE177
 3726 017e 0100     		.2byte	0x1
 3727 0180 56       		.byte	0x56
 3728 0181 00000000 		.4byte	0
 3729 0185 00000000 		.4byte	0
 3730              	.LLST3:
 3731 0189 00000000 		.4byte	.LVL0
 3732 018d 1C000000 		.4byte	.LVL1
 3733 0191 0200     		.2byte	0x2
 3734 0193 30       		.byte	0x30
 3735 0194 9F       		.byte	0x9f
 3736 0195 1C000000 		.4byte	.LVL1
 3737 0199 8C000000 		.4byte	.LVL19
 3738 019d 0100     		.2byte	0x1
 3739 019f 57       		.byte	0x57
 3740 01a0 96000000 		.4byte	.LVL20
 3741 01a4 04010000 		.4byte	.LVL41
 3742 01a8 0100     		.2byte	0x1
 3743 01aa 57       		.byte	0x57
 3744 01ab 04010000 		.4byte	.LVL41
 3745 01af 06010000 		.4byte	.LVL42
 3746 01b3 0100     		.2byte	0x1
 3747 01b5 50       		.byte	0x50
 3748 01b6 06010000 		.4byte	.LVL42
 3749 01ba 26010000 		.4byte	.LFE177
 3750 01be 0100     		.2byte	0x1
 3751 01c0 57       		.byte	0x57
 3752 01c1 00000000 		.4byte	0
 3753 01c5 00000000 		.4byte	0
 3754              	.LLST5:
 3755 01c9 D6000000 		.4byte	.LVL31
 3756 01cd DA000000 		.4byte	.LVL32
 3757 01d1 0100     		.2byte	0x1
 3758 01d3 53       		.byte	0x53
 3759 01d4 DA000000 		.4byte	.LVL32
 3760 01d8 E0000000 		.4byte	.LVL34
 3761 01dc 0100     		.2byte	0x1
 3762 01de 54       		.byte	0x54
ARM GAS  /var/folders/t8/16hdwfmd2fg_d3q6dgx6bpmw0000gn/T//cctlI9p4.s 			page 67


 3763 01df E8000000 		.4byte	.LVL35
 3764 01e3 F0000000 		.4byte	.LVL36
 3765 01e7 0100     		.2byte	0x1
 3766 01e9 54       		.byte	0x54
 3767 01ea 00000000 		.4byte	0
 3768 01ee 00000000 		.4byte	0
 3769              	.LLST4:
 3770 01f2 4C000000 		.4byte	.LVL7
 3771 01f6 50000000 		.4byte	.LVL8
 3772 01fa 0100     		.2byte	0x1
 3773 01fc 56       		.byte	0x56
 3774 01fd 50000000 		.4byte	.LVL8
 3775 0201 56000000 		.4byte	.LVL9
 3776 0205 0100     		.2byte	0x1
 3777 0207 54       		.byte	0x54
 3778 0208 5E000000 		.4byte	.LVL10
 3779 020c 66000000 		.4byte	.LVL11
 3780 0210 0100     		.2byte	0x1
 3781 0212 54       		.byte	0x54
 3782 0213 00000000 		.4byte	0
 3783 0217 00000000 		.4byte	0
 3784              		.section	.debug_aranges,"",%progbits
 3785 0000 1C000000 		.4byte	0x1c
 3786 0004 0200     		.2byte	0x2
 3787 0006 00000000 		.4byte	.Ldebug_info0
 3788 000a 04       		.byte	0x4
 3789 000b 00       		.byte	0
 3790 000c 0000     		.2byte	0
 3791 000e 0000     		.2byte	0
 3792 0010 00000000 		.4byte	.LFB177
 3793 0014 26010000 		.4byte	.LFE177-.LFB177
 3794 0018 00000000 		.4byte	0
 3795 001c 00000000 		.4byte	0
 3796              		.section	.debug_ranges,"",%progbits
 3797              	.Ldebug_ranges0:
 3798 0000 00000000 		.4byte	.LFB177
 3799 0004 26010000 		.4byte	.LFE177
 3800 0008 00000000 		.4byte	0
 3801 000c 00000000 		.4byte	0
 3802              		.section	.debug_line,"",%progbits
 3803              	.Ldebug_line0:
 3804 0000 E1040000 		.section	.debug_str,"MS",%progbits,1
 3804      02005104 
 3804      00000201 
 3804      FB0E0D00 
 3804      01010101 
 3805              	.LASF337:
 3806 0000 6F66665F 		.ascii	"off_ctx\000"
 3806      63747800 
 3807              	.LASF440:
 3808 0008 7265706F 		.ascii	"report_keyboard_t\000"
 3808      72745F6B 
 3808      6579626F 
 3808      6172645F 
 3808      7400
 3809              	.LASF238:
 3810 001a 4B435F52 		.ascii	"KC_RGUI\000"
ARM GAS  /var/folders/t8/16hdwfmd2fg_d3q6dgx6bpmw0000gn/T//cctlI9p4.s 			page 68


 3810      47554900 
 3811              	.LASF260:
 3812 0022 71756575 		.ascii	"queue\000"
 3812      6500
 3813              	.LASF175:
 3814 0028 4B435F43 		.ascii	"KC_CANCEL\000"
 3814      414E4345 
 3814      4C00
 3815              	.LASF249:
 3816 0032 73697A65 		.ascii	"size_t\000"
 3816      5F7400
 3817              	.LASF336:
 3818 0039 6F66665F 		.ascii	"off_prio\000"
 3818      7072696F 
 3818      00
 3819              	.LASF321:
 3820 0042 77747365 		.ascii	"wtsemp\000"
 3820      6D7000
 3821              	.LASF258:
 3822 0049 73797374 		.ascii	"systime_t\000"
 3822      696D655F 
 3822      7400
 3823              	.LASF345:
 3824 0053 6F66665F 		.ascii	"off_preempt\000"
 3824      70726565 
 3824      6D707400 
 3825              	.LASF222:
 3826 005f 4B435F4B 		.ascii	"KC_KP_MEM_MUL\000"
 3826      505F4D45 
 3826      4D5F4D55 
 3826      4C00
 3827              	.LASF326:
 3828 006d 6F776E65 		.ascii	"owner\000"
 3828      7200
 3829              	.LASF254:
 3830 0073 74707269 		.ascii	"tprio_t\000"
 3830      6F5F7400 
 3831              	.LASF348:
 3832 007b 63685F64 		.ascii	"ch_debug\000"
 3832      65627567 
 3832      00
 3833              	.LASF229:
 3834 0084 4B435F4B 		.ascii	"KC_KP_DECIMAL\000"
 3834      505F4445 
 3834      43494D41 
 3834      4C00
 3835              	.LASF241:
 3836 0092 6D616372 		.ascii	"macro_command_id\000"
 3836      6F5F636F 
 3836      6D6D616E 
 3836      645F6964 
 3836      00
 3837              	.LASF308:
 3838 00a3 50544F52 		.ascii	"PTOR\000"
 3838      00
 3839              	.LASF16:
 3840 00a8 696E7433 		.ascii	"int32_t\000"
ARM GAS  /var/folders/t8/16hdwfmd2fg_d3q6dgx6bpmw0000gn/T//cctlI9p4.s 			page 69


 3840      325F7400 
 3841              	.LASF220:
 3842 00b0 4B435F4B 		.ascii	"KC_KP_MEM_ADD\000"
 3842      505F4D45 
 3842      4D5F4144 
 3842      4400
 3843              	.LASF287:
 3844 00be 76746675 		.ascii	"vtfunc_t\000"
 3844      6E635F74 
 3844      00
 3845              	.LASF293:
 3846 00c7 63685F76 		.ascii	"ch_virtual_timers_list\000"
 3846      69727475 
 3846      616C5F74 
 3846      696D6572 
 3846      735F6C69 
 3847              	.LASF230:
 3848 00de 4B435F4B 		.ascii	"KC_KP_HEXADECIMAL\000"
 3848      505F4845 
 3848      58414445 
 3848      43494D41 
 3848      4C00
 3849              	.LASF204:
 3850 00f0 4B435F4B 		.ascii	"KC_KP_HAT\000"
 3850      505F4841 
 3850      5400
 3851              	.LASF383:
 3852 00fa 5553425F 		.ascii	"USB_EP0_TX\000"
 3852      4550305F 
 3852      545800
 3853              	.LASF208:
 3854 0105 4B435F4B 		.ascii	"KC_KP_AND\000"
 3854      505F414E 
 3854      4400
 3855              	.LASF192:
 3856 010f 4B435F4B 		.ascii	"KC_KP_RPAREN\000"
 3856      505F5250 
 3856      4152454E 
 3856      00
 3857              	.LASF359:
 3858 011c 636F6E66 		.ascii	"config\000"
 3858      696700
 3859              	.LASF266:
 3860 0123 73746174 		.ascii	"state\000"
 3860      6500
 3861              	.LASF418:
 3862 0129 65705F6D 		.ascii	"ep_mode\000"
 3862      6F646500 
 3863              	.LASF299:
 3864 0131 6C6F636B 		.ascii	"lock_cnt\000"
 3864      5F636E74 
 3864      00
 3865              	.LASF100:
 3866 013a 4B435F4C 		.ascii	"KC_LEFT\000"
 3866      45465400 
 3867              	.LASF463:
 3868 0142 61637469 		.ascii	"action_macro_play\000"
ARM GAS  /var/folders/t8/16hdwfmd2fg_d3q6dgx6bpmw0000gn/T//cctlI9p4.s 			page 70


 3868      6F6E5F6D 
 3868      6163726F 
 3868      5F706C61 
 3868      7900
 3869              	.LASF379:
 3870 0154 5553425F 		.ascii	"USB_ACTIVE\000"
 3870      41435449 
 3870      564500
 3871              	.LASF215:
 3872 015f 4B435F4B 		.ascii	"KC_KP_ATMARK\000"
 3872      505F4154 
 3872      4D41524B 
 3872      00
 3873              	.LASF240:
 3874 016c 6869645F 		.ascii	"hid_keyboard_keypad_usage\000"
 3874      6B657962 
 3874      6F617264 
 3874      5F6B6579 
 3874      7061645F 
 3875              	.LASF400:
 3876 0186 55534244 		.ascii	"USBDescriptor\000"
 3876      65736372 
 3876      6970746F 
 3876      7200
 3877              	.LASF109:
 3878 0194 4B435F4B 		.ascii	"KC_KP_1\000"
 3878      505F3100 
 3879              	.LASF455:
 3880 019c 6164645F 		.ascii	"add_weak_mods\000"
 3880      7765616B 
 3880      5F6D6F64 
 3880      7300
 3881              	.LASF339:
 3882 01aa 6F66665F 		.ascii	"off_older\000"
 3882      6F6C6465 
 3882      7200
 3883              	.LASF207:
 3884 01b4 4B435F4B 		.ascii	"KC_KP_GT\000"
 3884      505F4754 
 3884      00
 3885              	.LASF350:
 3886 01bd 696F6D6F 		.ascii	"iomode_t\000"
 3886      64655F74 
 3886      00
 3887              	.LASF193:
 3888 01c6 4B435F4B 		.ascii	"KC_KP_LCBRACKET\000"
 3888      505F4C43 
 3888      42524143 
 3888      4B455400 
 3889              	.LASF146:
 3890 01d6 4B435F46 		.ascii	"KC_FIND\000"
 3890      494E4400 
 3891              	.LASF401:
 3892 01de 75736263 		.ascii	"usbcallback_t\000"
 3892      616C6C62 
 3892      61636B5F 
 3892      7400
ARM GAS  /var/folders/t8/16hdwfmd2fg_d3q6dgx6bpmw0000gn/T//cctlI9p4.s 			page 71


 3893              	.LASF166:
 3894 01ec 4B435F4C 		.ascii	"KC_LANG3\000"
 3894      414E4733 
 3894      00
 3895              	.LASF188:
 3896 01f5 4B435F44 		.ascii	"KC_DECIMAL_SEPARATOR\000"
 3896      4543494D 
 3896      414C5F53 
 3896      45504152 
 3896      41544F52 
 3897              	.LASF389:
 3898 020a 75736265 		.ascii	"usbep0state_t\000"
 3898      70307374 
 3898      6174655F 
 3898      7400
 3899              	.LASF3:
 3900 0218 5F5F7569 		.ascii	"__uint8_t\000"
 3900      6E74385F 
 3900      7400
 3901              	.LASF355:
 3902 0222 706F7274 		.ascii	"ports\000"
 3902      7300
 3903              	.LASF456:
 3904 0228 72656769 		.ascii	"register_code\000"
 3904      73746572 
 3904      5F636F64 
 3904      6500
 3905              	.LASF294:
 3906 0236 73797374 		.ascii	"systime\000"
 3906      696D6500 
 3907              	.LASF92:
 3908 023e 4B435F50 		.ascii	"KC_PAUSE\000"
 3908      41555345 
 3908      00
 3909              	.LASF120:
 3910 0247 4B435F4E 		.ascii	"KC_NONUS_BSLASH\000"
 3910      4F4E5553 
 3910      5F42534C 
 3910      41534800 
 3911              	.LASF183:
 3912 0257 4B435F43 		.ascii	"KC_CRSEL\000"
 3912      5253454C 
 3912      00
 3913              	.LASF438:
 3914 0260 62697473 		.ascii	"bits\000"
 3914      00
 3915              	.LASF202:
 3916 0265 4B435F4B 		.ascii	"KC_KP_F\000"
 3916      505F4600 
 3917              	.LASF391:
 3918 026d 5553425F 		.ascii	"USB_EVENT_ADDRESS\000"
 3918      4556454E 
 3918      545F4144 
 3918      44524553 
 3918      5300
 3919              	.LASF62:
 3920 027f 4B435F42 		.ascii	"KC_BSPACE\000"
ARM GAS  /var/folders/t8/16hdwfmd2fg_d3q6dgx6bpmw0000gn/T//cctlI9p4.s 			page 72


 3920      53504143 
 3920      4500
 3921              	.LASF7:
 3922 0289 6C6F6E67 		.ascii	"long int\000"
 3922      20696E74 
 3922      00
 3923              	.LASF122:
 3924 0292 4B435F50 		.ascii	"KC_POWER\000"
 3924      4F574552 
 3924      00
 3925              	.LASF214:
 3926 029b 4B435F4B 		.ascii	"KC_KP_SPACE\000"
 3926      505F5350 
 3926      41434500 
 3927              	.LASF445:
 3928 02a7 6D6F7573 		.ascii	"mouse\000"
 3928      6500
 3929              	.LASF330:
 3930 02ad 7A65726F 		.ascii	"zero\000"
 3930      00
 3931              	.LASF209:
 3932 02b2 4B435F4B 		.ascii	"KC_KP_LAZYAND\000"
 3932      505F4C41 
 3932      5A59414E 
 3932      4400
 3933              	.LASF351:
 3934 02c0 696F706F 		.ascii	"ioportid_t\000"
 3934      72746964 
 3934      5F7400
 3935              	.LASF251:
 3936 02cb 74737461 		.ascii	"tstate_t\000"
 3936      74655F74 
 3936      00
 3937              	.LASF272:
 3938 02d4 6570656E 		.ascii	"epending\000"
 3938      64696E67 
 3938      00
 3939              	.LASF460:
 3940 02dd 474E5520 		.ascii	"GNU C99 7.2.1 20170904 (release) [ARM/embedded-7-br"
 3940      43393920 
 3940      372E322E 
 3940      31203230 
 3940      31373039 
 3941 0310 616E6368 		.ascii	"anch revision 255204] -mcpu=cortex-m0plus -mno-thum"
 3941      20726576 
 3941      6973696F 
 3941      6E203235 
 3941      35323034 
 3942 0343 622D696E 		.ascii	"b-interwork -mthumb -ggdb -O2 -std=gnu99 -fomit-fra"
 3942      74657277 
 3942      6F726B20 
 3942      2D6D7468 
 3942      756D6220 
 3943 0376 6D652D70 		.ascii	"me-pointer -falign-functions=16 -ffunction-sections"
 3943      6F696E74 
 3943      6572202D 
 3943      66616C69 
ARM GAS  /var/folders/t8/16hdwfmd2fg_d3q6dgx6bpmw0000gn/T//cctlI9p4.s 			page 73


 3943      676E2D66 
 3944 03a9 202D6664 		.ascii	" -fdata-sections -fno-common\000"
 3944      6174612D 
 3944      73656374 
 3944      696F6E73 
 3944      202D666E 
 3945              	.LASF342:
 3946 03c6 6F66665F 		.ascii	"off_state\000"
 3946      73746174 
 3946      6500
 3947              	.LASF281:
 3948 03d0 74687265 		.ascii	"threads_queue_t\000"
 3948      6164735F 
 3948      71756575 
 3948      655F7400 
 3949              	.LASF61:
 3950 03e0 4B435F45 		.ascii	"KC_ESCAPE\000"
 3950      53434150 
 3950      4500
 3951              	.LASF408:
 3952 03ea 74786275 		.ascii	"txbuf\000"
 3952      6600
 3953              	.LASF177:
 3954 03f0 4B435F50 		.ascii	"KC_PRIOR\000"
 3954      52494F52 
 3954      00
 3955              	.LASF312:
 3956 03f9 72656761 		.ascii	"regarm_t\000"
 3956      726D5F74 
 3956      00
 3957              	.LASF462:
 3958 0402 2F557365 		.ascii	"/Users/jpablobr/tmp/tmk/di0ib-tmk_keyboard/keyboard"
 3958      72732F6A 
 3958      7061626C 
 3958      6F62722F 
 3958      746D702F 
 3959 0435 2F746565 		.ascii	"/teensy_lc_menelaus\000"
 3959      6E73795F 
 3959      6C635F6D 
 3959      656E656C 
 3959      61757300 
 3960              	.LASF382:
 3961 0449 5553425F 		.ascii	"USB_EP0_WAITING_SETUP\000"
 3961      4550305F 
 3961      57414954 
 3961      494E475F 
 3961      53455455 
 3962              	.LASF73:
 3963 045f 4B435F47 		.ascii	"KC_GRAVE\000"
 3963      52415645 
 3963      00
 3964              	.LASF458:
 3965 0468 6765745F 		.ascii	"get_mods\000"
 3965      6D6F6473 
 3965      00
 3966              	.LASF149:
 3967 0471 4B435F5F 		.ascii	"KC__VOLDOWN\000"
ARM GAS  /var/folders/t8/16hdwfmd2fg_d3q6dgx6bpmw0000gn/T//cctlI9p4.s 			page 74


 3967      564F4C44 
 3967      4F574E00 
 3968              	.LASF247:
 3969 047d 4D4F445F 		.ascii	"MOD_RESTORE\000"
 3969      52455354 
 3969      4F524500 
 3970              	.LASF139:
 3971 0489 4B435F53 		.ascii	"KC_SELECT\000"
 3971      454C4543 
 3971      5400
 3972              	.LASF380:
 3973 0493 5553425F 		.ascii	"USB_SUSPENDED\000"
 3973      53555350 
 3973      454E4445 
 3973      4400
 3974              	.LASF76:
 3975 04a1 4B435F53 		.ascii	"KC_SLASH\000"
 3975      4C415348 
 3975      00
 3976              	.LASF357:
 3977 04aa 70616C5F 		.ascii	"pal_default_config\000"
 3977      64656661 
 3977      756C745F 
 3977      636F6E66 
 3977      696700
 3978              	.LASF196:
 3979 04bd 4B435F4B 		.ascii	"KC_KP_BSPACE\000"
 3979      505F4253 
 3979      50414345 
 3979      00
 3980              	.LASF0:
 3981 04ca 7369676E 		.ascii	"signed char\000"
 3981      65642063 
 3981      68617200 
 3982              	.LASF323:
 3983 04d6 65776D61 		.ascii	"ewmask\000"
 3983      736B00
 3984              	.LASF14:
 3985 04dd 75696E74 		.ascii	"uint8_t\000"
 3985      385F7400 
 3986              	.LASF396:
 3987 04e5 5553425F 		.ascii	"USB_EVENT_STALLED\000"
 3987      4556454E 
 3987      545F5354 
 3987      414C4C45 
 3987      4400
 3988              	.LASF91:
 3989 04f7 4B435F53 		.ascii	"KC_SCROLLLOCK\000"
 3989      43524F4C 
 3989      4C4C4F43 
 3989      4B00
 3990              	.LASF221:
 3991 0505 4B435F4B 		.ascii	"KC_KP_MEM_SUB\000"
 3991      505F4D45 
 3991      4D5F5355 
 3991      4200
 3992              	.LASF70:
ARM GAS  /var/folders/t8/16hdwfmd2fg_d3q6dgx6bpmw0000gn/T//cctlI9p4.s 			page 75


 3993 0513 4B435F4E 		.ascii	"KC_NONUS_HASH\000"
 3993      4F4E5553 
 3993      5F484153 
 3993      4800
 3994              	.LASF108:
 3995 0521 4B435F4B 		.ascii	"KC_KP_ENTER\000"
 3995      505F454E 
 3995      54455200 
 3996              	.LASF256:
 3997 052d 6576656E 		.ascii	"eventmask_t\000"
 3997      746D6173 
 3997      6B5F7400 
 3998              	.LASF452:
 3999 0539 756E7265 		.ascii	"unregister_code\000"
 3999      67697374 
 3999      65725F63 
 3999      6F646500 
 4000              	.LASF413:
 4001 0549 72787369 		.ascii	"rxsize\000"
 4001      7A6500
 4002              	.LASF319:
 4003 0550 77747472 		.ascii	"wttrp\000"
 4003      7000
 4004              	.LASF187:
 4005 0556 4B435F54 		.ascii	"KC_THOUSANDS_SEPARATOR\000"
 4005      484F5553 
 4005      414E4453 
 4005      5F534550 
 4005      41524154 
 4006              	.LASF1:
 4007 056d 756E7369 		.ascii	"unsigned char\000"
 4007      676E6564 
 4007      20636861 
 4007      7200
 4008              	.LASF143:
 4009 057b 4B435F43 		.ascii	"KC_CUT\000"
 4009      555400
 4010              	.LASF261:
 4011 0582 7072696F 		.ascii	"prio\000"
 4011      00
 4012              	.LASF317:
 4013 0587 65786974 		.ascii	"exitcode\000"
 4013      636F6465 
 4013      00
 4014              	.LASF75:
 4015 0590 4B435F44 		.ascii	"KC_DOT\000"
 4015      4F5400
 4016              	.LASF297:
 4017 0597 70616E69 		.ascii	"panic_msg\000"
 4017      635F6D73 
 4017      6700
 4018              	.LASF227:
 4019 05a1 4B435F4B 		.ascii	"KC_KP_BINARY\000"
 4019      505F4249 
 4019      4E415259 
 4019      00
 4020              	.LASF295:
ARM GAS  /var/folders/t8/16hdwfmd2fg_d3q6dgx6bpmw0000gn/T//cctlI9p4.s 			page 76


 4021 05ae 73797374 		.ascii	"system_debug_t\000"
 4021      656D5F64 
 4021      65627567 
 4021      5F7400
 4022              	.LASF431:
 4023 05bd 72657175 		.ascii	"requests_hook_cb\000"
 4023      65737473 
 4023      5F686F6F 
 4023      6B5F6362 
 4023      00
 4024              	.LASF19:
 4025 05ce 5F426F6F 		.ascii	"_Bool\000"
 4025      6C00
 4026              	.LASF137:
 4027 05d4 4B435F48 		.ascii	"KC_HELP\000"
 4027      454C5000 
 4028              	.LASF78:
 4029 05dc 4B435F46 		.ascii	"KC_F1\000"
 4029      3100
 4030              	.LASF79:
 4031 05e2 4B435F46 		.ascii	"KC_F2\000"
 4031      3200
 4032              	.LASF80:
 4033 05e8 4B435F46 		.ascii	"KC_F3\000"
 4033      3300
 4034              	.LASF81:
 4035 05ee 4B435F46 		.ascii	"KC_F4\000"
 4035      3400
 4036              	.LASF82:
 4037 05f4 4B435F46 		.ascii	"KC_F5\000"
 4037      3500
 4038              	.LASF83:
 4039 05fa 4B435F46 		.ascii	"KC_F6\000"
 4039      3600
 4040              	.LASF84:
 4041 0600 4B435F46 		.ascii	"KC_F7\000"
 4041      3700
 4042              	.LASF85:
 4043 0606 4B435F46 		.ascii	"KC_F8\000"
 4043      3800
 4044              	.LASF86:
 4045 060c 4B435F46 		.ascii	"KC_F9\000"
 4045      3900
 4046              	.LASF327:
 4047 0612 63686172 		.ascii	"char\000"
 4047      00
 4048              	.LASF206:
 4049 0617 4B435F4B 		.ascii	"KC_KP_LT\000"
 4049      505F4C54 
 4049      00
 4050              	.LASF366:
 4051 0620 6570306E 		.ascii	"ep0n\000"
 4051      00
 4052              	.LASF361:
 4053 0625 72656365 		.ascii	"receiving\000"
 4053      6976696E 
 4053      6700
ARM GAS  /var/folders/t8/16hdwfmd2fg_d3q6dgx6bpmw0000gn/T//cctlI9p4.s 			page 77


 4054              	.LASF4:
 4055 062f 5F5F7569 		.ascii	"__uint16_t\000"
 4055      6E743136 
 4055      5F7400
 4056              	.LASF236:
 4057 063a 4B435F52 		.ascii	"KC_RSHIFT\000"
 4057      53484946 
 4057      5400
 4058              	.LASF358:
 4059 0644 55534244 		.ascii	"USBDriver\000"
 4059      72697665 
 4059      7200
 4060              	.LASF152:
 4061 064e 4B435F4C 		.ascii	"KC_LOCKING_SCROLL\000"
 4061      4F434B49 
 4061      4E475F53 
 4061      43524F4C 
 4061      4C00
 4062              	.LASF318:
 4063 0660 77746F62 		.ascii	"wtobjp\000"
 4063      6A7000
 4064              	.LASF65:
 4065 0667 4B435F4D 		.ascii	"KC_MINUS\000"
 4065      494E5553 
 4065      00
 4066              	.LASF94:
 4067 0670 4B435F48 		.ascii	"KC_HOME\000"
 4067      4F4D4500 
 4068              	.LASF419:
 4069 0678 73657475 		.ascii	"setup_cb\000"
 4069      705F6362 
 4069      00
 4070              	.LASF399:
 4071 0681 75645F73 		.ascii	"ud_string\000"
 4071      7472696E 
 4071      6700
 4072              	.LASF344:
 4073 068b 6F66665F 		.ascii	"off_refs\000"
 4073      72656673 
 4073      00
 4074              	.LASF267:
 4075 0694 666C6167 		.ascii	"flags\000"
 4075      7300
 4076              	.LASF420:
 4077 069a 696E5F63 		.ascii	"in_cb\000"
 4077      6200
 4078              	.LASF313:
 4079 06a0 73746B61 		.ascii	"stkalign_t\000"
 4079      6C69676E 
 4079      5F7400
 4080              	.LASF174:
 4081 06ab 4B435F53 		.ascii	"KC_SYSREQ\000"
 4081      59535245 
 4081      5100
 4082              	.LASF286:
 4083 06b5 63757272 		.ascii	"current\000"
 4083      656E7400 
ARM GAS  /var/folders/t8/16hdwfmd2fg_d3q6dgx6bpmw0000gn/T//cctlI9p4.s 			page 78


 4084              	.LASF275:
 4085 06bd 6D706F6F 		.ascii	"mpool\000"
 4085      6C00
 4086              	.LASF403:
 4087 06c3 75736265 		.ascii	"usbeventcb_t\000"
 4087      76656E74 
 4087      63625F74 
 4087      00
 4088              	.LASF242:
 4089 06d0 4B45595F 		.ascii	"KEY_DOWN\000"
 4089      444F574E 
 4089      00
 4090              	.LASF66:
 4091 06d9 4B435F45 		.ascii	"KC_EQUAL\000"
 4091      5155414C 
 4091      00
 4092              	.LASF333:
 4093 06e2 70747273 		.ascii	"ptrsize\000"
 4093      697A6500 
 4094              	.LASF360:
 4095 06ea 7472616E 		.ascii	"transmitting\000"
 4095      736D6974 
 4095      74696E67 
 4095      00
 4096              	.LASF205:
 4097 06f7 4B435F4B 		.ascii	"KC_KP_PERC\000"
 4097      505F5045 
 4097      524300
 4098              	.LASF412:
 4099 0702 55534249 		.ascii	"USBInEndpointState\000"
 4099      6E456E64 
 4099      706F696E 
 4099      74537461 
 4099      746500
 4100              	.LASF441:
 4101 0715 6B657962 		.ascii	"keyboard_report\000"
 4101      6F617264 
 4101      5F726570 
 4101      6F727400 
 4102              	.LASF98:
 4103 0725 4B435F50 		.ascii	"KC_PGDOWN\000"
 4103      47444F57 
 4103      4E00
 4104              	.LASF454:
 4105 072f 73656E64 		.ascii	"send_keyboard_report\000"
 4105      5F6B6579 
 4105      626F6172 
 4105      645F7265 
 4105      706F7274 
 4106              	.LASF346:
 4107 0744 6F66665F 		.ascii	"off_time\000"
 4107      74696D65 
 4107      00
 4108              	.LASF450:
 4109 074d 6D6F645F 		.ascii	"mod_storage\000"
 4109      73746F72 
 4109      61676500 
ARM GAS  /var/folders/t8/16hdwfmd2fg_d3q6dgx6bpmw0000gn/T//cctlI9p4.s 			page 79


 4110              	.LASF257:
 4111 0759 636E745F 		.ascii	"cnt_t\000"
 4111      7400
 4112              	.LASF451:
 4113 075f 63685468 		.ascii	"chThdSleep\000"
 4113      64536C65 
 4113      657000
 4114              	.LASF178:
 4115 076a 4B435F52 		.ascii	"KC_RETURN\000"
 4115      45545552 
 4115      4E00
 4116              	.LASF225:
 4117 0774 4B435F4B 		.ascii	"KC_KP_CLEAR\000"
 4117      505F434C 
 4117      45415200 
 4118              	.LASF136:
 4119 0780 4B435F45 		.ascii	"KC_EXECUTE\000"
 4119      58454355 
 4119      544500
 4120              	.LASF368:
 4121 078b 73657475 		.ascii	"setup\000"
 4121      7000
 4122              	.LASF218:
 4123 0791 4B435F4B 		.ascii	"KC_KP_MEM_RECALL\000"
 4123      505F4D45 
 4123      4D5F5245 
 4123      43414C4C 
 4123      00
 4124              	.LASF397:
 4125 07a2 75736265 		.ascii	"usbevent_t\000"
 4125      76656E74 
 4125      5F7400
 4126              	.LASF285:
 4127 07ad 63685F72 		.ascii	"ch_ready_list\000"
 4127      65616479 
 4127      5F6C6973 
 4127      7400
 4128              	.LASF210:
 4129 07bb 4B435F4B 		.ascii	"KC_KP_OR\000"
 4129      505F4F52 
 4129      00
 4130              	.LASF142:
 4131 07c4 4B435F55 		.ascii	"KC_UNDO\000"
 4131      4E444F00 
 4132              	.LASF398:
 4133 07cc 75645F73 		.ascii	"ud_size\000"
 4133      697A6500 
 4134              	.LASF447:
 4135 07d4 64656275 		.ascii	"debug_config\000"
 4135      675F636F 
 4135      6E666967 
 4135      00
 4136              	.LASF154:
 4137 07e1 4B435F4B 		.ascii	"KC_KP_EQUAL_AS400\000"
 4137      505F4551 
 4137      55414C5F 
 4137      41533430 
ARM GAS  /var/folders/t8/16hdwfmd2fg_d3q6dgx6bpmw0000gn/T//cctlI9p4.s 			page 80


 4137      3000
 4138              	.LASF378:
 4139 07f3 5553425F 		.ascii	"USB_SELECTED\000"
 4139      53454C45 
 4139      43544544 
 4139      00
 4140              	.LASF371:
 4141 0800 636F6E66 		.ascii	"configuration\000"
 4141      69677572 
 4141      6174696F 
 4141      6E00
 4142              	.LASF298:
 4143 080e 6973725F 		.ascii	"isr_cnt\000"
 4143      636E7400 
 4144              	.LASF97:
 4145 0816 4B435F45 		.ascii	"KC_END\000"
 4145      4E4400
 4146              	.LASF354:
 4147 081d 506F7274 		.ascii	"PortConfig\000"
 4147      436F6E66 
 4147      696700
 4148              	.LASF407:
 4149 0828 7478636E 		.ascii	"txcnt\000"
 4149      7400
 4150              	.LASF121:
 4151 082e 4B435F41 		.ascii	"KC_APPLICATION\000"
 4151      50504C49 
 4151      43415449 
 4151      4F4E00
 4152              	.LASF74:
 4153 083d 4B435F43 		.ascii	"KC_COMMA\000"
 4153      4F4D4D41 
 4153      00
 4154              	.LASF11:
 4155 0846 5F5F7569 		.ascii	"__uint64_t\000"
 4155      6E743634 
 4155      5F7400
 4156              	.LASF211:
 4157 0851 4B435F4B 		.ascii	"KC_KP_LAZYOR\000"
 4157      505F4C41 
 4157      5A594F52 
 4157      00
 4158              	.LASF446:
 4159 085e 64656275 		.ascii	"debug_config_t\000"
 4159      675F636F 
 4159      6E666967 
 4159      5F7400
 4160              	.LASF9:
 4161 086d 6C6F6E67 		.ascii	"long unsigned int\000"
 4161      20756E73 
 4161      69676E65 
 4161      6420696E 
 4161      7400
 4162              	.LASF335:
 4163 087f 74687265 		.ascii	"threadsize\000"
 4163      61647369 
 4163      7A6500
ARM GAS  /var/folders/t8/16hdwfmd2fg_d3q6dgx6bpmw0000gn/T//cctlI9p4.s 			page 81


 4164              	.LASF189:
 4165 088a 4B435F43 		.ascii	"KC_CURRENCY_UNIT\000"
 4165      55525245 
 4165      4E43595F 
 4165      554E4954 
 4165      00
 4166              	.LASF369:
 4167 089b 73746174 		.ascii	"status\000"
 4167      757300
 4168              	.LASF185:
 4169 08a2 4B435F4B 		.ascii	"KC_KP_00\000"
 4169      505F3030 
 4169      00
 4170              	.LASF448:
 4171 08ab 6D616372 		.ascii	"macro\000"
 4171      6F00
 4172              	.LASF324:
 4173 08b1 63685F73 		.ascii	"ch_semaphore\000"
 4173      656D6170 
 4173      686F7265 
 4173      00
 4174              	.LASF367:
 4175 08be 65703065 		.ascii	"ep0endcb\000"
 4175      6E646362 
 4175      00
 4176              	.LASF278:
 4177 08c7 63685F74 		.ascii	"ch_thread\000"
 4177      68726561 
 4177      6400
 4178              	.LASF363:
 4179 08d1 6F75745F 		.ascii	"out_params\000"
 4179      70617261 
 4179      6D7300
 4180              	.LASF292:
 4181 08dc 76697274 		.ascii	"virtual_timers_list_t\000"
 4181      75616C5F 
 4181      74696D65 
 4181      72735F6C 
 4181      6973745F 
 4182              	.LASF328:
 4183 08f2 63685F69 		.ascii	"ch_idle_thread_wa\000"
 4183      646C655F 
 4183      74687265 
 4183      61645F77 
 4183      6100
 4184              	.LASF194:
 4185 0904 4B435F4B 		.ascii	"KC_KP_RCBRACKET\000"
 4185      505F5243 
 4185      42524143 
 4185      4B455400 
 4186              	.LASF310:
 4187 0914 50444452 		.ascii	"PDDR\000"
 4187      00
 4188              	.LASF288:
 4189 0919 76697274 		.ascii	"virtual_timer_t\000"
 4189      75616C5F 
 4189      74696D65 
ARM GAS  /var/folders/t8/16hdwfmd2fg_d3q6dgx6bpmw0000gn/T//cctlI9p4.s 			page 82


 4189      725F7400 
 4190              	.LASF284:
 4191 0929 72656164 		.ascii	"ready_list_t\000"
 4191      795F6C69 
 4191      73745F74 
 4191      00
 4192              	.LASF179:
 4193 0936 4B435F53 		.ascii	"KC_SEPARATOR\000"
 4193      45504152 
 4193      41544F52 
 4193      00
 4194              	.LASF263:
 4195 0943 6F6C6465 		.ascii	"older\000"
 4195      7200
 4196              	.LASF406:
 4197 0949 74787369 		.ascii	"txsize\000"
 4197      7A6500
 4198              	.LASF274:
 4199 0950 7265616C 		.ascii	"realprio\000"
 4199      7072696F 
 4199      00
 4200              	.LASF443:
 4201 0959 6D617472 		.ascii	"matrix\000"
 4201      697800
 4202              	.LASF195:
 4203 0960 4B435F4B 		.ascii	"KC_KP_TAB\000"
 4203      505F5441 
 4203      4200
 4204              	.LASF341:
 4205 096a 6F66665F 		.ascii	"off_stklimit\000"
 4205      73746B6C 
 4205      696D6974 
 4205      00
 4206              	.LASF381:
 4207 0977 75736273 		.ascii	"usbstate_t\000"
 4207      74617465 
 4207      5F7400
 4208              	.LASF279:
 4209 0982 63685F74 		.ascii	"ch_threads_list\000"
 4209      68726561 
 4209      64735F6C 
 4209      69737400 
 4210              	.LASF388:
 4211 0992 5553425F 		.ascii	"USB_EP0_ERROR\000"
 4211      4550305F 
 4211      4552524F 
 4211      5200
 4212              	.LASF233:
 4213 09a0 4B435F4C 		.ascii	"KC_LALT\000"
 4213      414C5400 
 4214              	.LASF410:
 4215 09a8 6F64645F 		.ascii	"odd_even\000"
 4215      6576656E 
 4215      00
 4216              	.LASF307:
 4217 09b1 50434F52 		.ascii	"PCOR\000"
 4217      00
ARM GAS  /var/folders/t8/16hdwfmd2fg_d3q6dgx6bpmw0000gn/T//cctlI9p4.s 			page 83


 4218              	.LASF415:
 4219 09b6 72786275 		.ascii	"rxbuf\000"
 4219      6600
 4220              	.LASF23:
 4221 09bc 4B435F55 		.ascii	"KC_UNDEFINED\000"
 4221      4E444546 
 4221      494E4544 
 4221      00
 4222              	.LASF424:
 4223 09c9 696E5F73 		.ascii	"in_state\000"
 4223      74617465 
 4223      00
 4224              	.LASF395:
 4225 09d2 5553425F 		.ascii	"USB_EVENT_WAKEUP\000"
 4225      4556454E 
 4225      545F5741 
 4225      4B455550 
 4225      00
 4226              	.LASF309:
 4227 09e3 50444952 		.ascii	"PDIR\000"
 4227      00
 4228              	.LASF8:
 4229 09e8 5F5F7569 		.ascii	"__uint32_t\000"
 4229      6E743332 
 4229      5F7400
 4230              	.LASF429:
 4231 09f3 6576656E 		.ascii	"event_cb\000"
 4231      745F6362 
 4231      00
 4232              	.LASF437:
 4233 09fc 6B657973 		.ascii	"keys\000"
 4233      00
 4234              	.LASF273:
 4235 0a01 6D74786C 		.ascii	"mtxlist\000"
 4235      69737400 
 4236              	.LASF10:
 4237 0a09 6C6F6E67 		.ascii	"long long int\000"
 4237      206C6F6E 
 4237      6720696E 
 4237      7400
 4238              	.LASF377:
 4239 0a17 5553425F 		.ascii	"USB_READY\000"
 4239      52454144 
 4239      5900
 4240              	.LASF237:
 4241 0a21 4B435F52 		.ascii	"KC_RALT\000"
 4241      414C5400 
 4242              	.LASF103:
 4243 0a29 4B435F4E 		.ascii	"KC_NUMLOCK\000"
 4243      554D4C4F 
 4243      434B00
 4244              	.LASF442:
 4245 0a34 656E6162 		.ascii	"enable\000"
 4245      6C6500
 4246              	.LASF430:
 4247 0a3b 6765745F 		.ascii	"get_descriptor_cb\000"
 4247      64657363 
ARM GAS  /var/folders/t8/16hdwfmd2fg_d3q6dgx6bpmw0000gn/T//cctlI9p4.s 			page 84


 4247      72697074 
 4247      6F725F63 
 4247      6200
 4248              	.LASF365:
 4249 0a4d 6570306E 		.ascii	"ep0next\000"
 4249      65787400 
 4250              	.LASF353:
 4251 0a55 70616473 		.ascii	"pads\000"
 4251      00
 4252              	.LASF213:
 4253 0a5a 4B435F4B 		.ascii	"KC_KP_HASH\000"
 4253      505F4841 
 4253      534800
 4254              	.LASF269:
 4255 0a65 70726565 		.ascii	"preempt\000"
 4255      6D707400 
 4256              	.LASF243:
 4257 0a6d 4B45595F 		.ascii	"KEY_UP\000"
 4257      555000
 4258              	.LASF402:
 4259 0a74 75736265 		.ascii	"usbepcallback_t\000"
 4259      7063616C 
 4259      6C626163 
 4259      6B5F7400 
 4260              	.LASF231:
 4261 0a84 4B435F4C 		.ascii	"KC_LCTRL\000"
 4261      4354524C 
 4261      00
 4262              	.LASF364:
 4263 0a8d 65703073 		.ascii	"ep0state\000"
 4263      74617465 
 4263      00
 4264              	.LASF20:
 4265 0a96 4B435F4E 		.ascii	"KC_NO\000"
 4265      4F00
 4266              	.LASF244:
 4267 0a9c 57414954 		.ascii	"WAIT\000"
 4267      00
 4268              	.LASF338:
 4269 0aa1 6F66665F 		.ascii	"off_newer\000"
 4269      6E657765 
 4269      7200
 4270              	.LASF13:
 4271 0aab 756E7369 		.ascii	"unsigned int\000"
 4271      676E6564 
 4271      20696E74 
 4271      00
 4272              	.LASF433:
 4273 0ab8 55534243 		.ascii	"USBConfig\000"
 4273      6F6E6669 
 4273      6700
 4274              	.LASF245:
 4275 0ac2 494E5445 		.ascii	"INTERVAL\000"
 4275      5256414C 
 4275      00
 4276              	.LASF105:
 4277 0acb 4B435F4B 		.ascii	"KC_KP_ASTERISK\000"
ARM GAS  /var/folders/t8/16hdwfmd2fg_d3q6dgx6bpmw0000gn/T//cctlI9p4.s 			page 85


 4277      505F4153 
 4277      54455249 
 4277      534B00
 4278              	.LASF427:
 4279 0ada 73657475 		.ascii	"setup_buf\000"
 4279      705F6275 
 4279      6600
 4280              	.LASF59:
 4281 0ae4 4B435F30 		.ascii	"KC_0\000"
 4281      00
 4282              	.LASF50:
 4283 0ae9 4B435F31 		.ascii	"KC_1\000"
 4283      00
 4284              	.LASF51:
 4285 0aee 4B435F32 		.ascii	"KC_2\000"
 4285      00
 4286              	.LASF52:
 4287 0af3 4B435F33 		.ascii	"KC_3\000"
 4287      00
 4288              	.LASF53:
 4289 0af8 4B435F34 		.ascii	"KC_4\000"
 4289      00
 4290              	.LASF54:
 4291 0afd 4B435F35 		.ascii	"KC_5\000"
 4291      00
 4292              	.LASF55:
 4293 0b02 4B435F36 		.ascii	"KC_6\000"
 4293      00
 4294              	.LASF21:
 4295 0b07 4B435F52 		.ascii	"KC_ROLL_OVER\000"
 4295      4F4C4C5F 
 4295      4F564552 
 4295      00
 4296              	.LASF57:
 4297 0b14 4B435F38 		.ascii	"KC_8\000"
 4297      00
 4298              	.LASF58:
 4299 0b19 4B435F39 		.ascii	"KC_9\000"
 4299      00
 4300              	.LASF184:
 4301 0b1e 4B435F45 		.ascii	"KC_EXSEL\000"
 4301      5853454C 
 4301      00
 4302              	.LASF24:
 4303 0b27 4B435F41 		.ascii	"KC_A\000"
 4303      00
 4304              	.LASF25:
 4305 0b2c 4B435F42 		.ascii	"KC_B\000"
 4305      00
 4306              	.LASF26:
 4307 0b31 4B435F43 		.ascii	"KC_C\000"
 4307      00
 4308              	.LASF27:
 4309 0b36 4B435F44 		.ascii	"KC_D\000"
 4309      00
 4310              	.LASF28:
 4311 0b3b 4B435F45 		.ascii	"KC_E\000"
ARM GAS  /var/folders/t8/16hdwfmd2fg_d3q6dgx6bpmw0000gn/T//cctlI9p4.s 			page 86


 4311      00
 4312              	.LASF29:
 4313 0b40 4B435F46 		.ascii	"KC_F\000"
 4313      00
 4314              	.LASF30:
 4315 0b45 4B435F47 		.ascii	"KC_G\000"
 4315      00
 4316              	.LASF31:
 4317 0b4a 4B435F48 		.ascii	"KC_H\000"
 4317      00
 4318              	.LASF32:
 4319 0b4f 4B435F49 		.ascii	"KC_I\000"
 4319      00
 4320              	.LASF33:
 4321 0b54 4B435F4A 		.ascii	"KC_J\000"
 4321      00
 4322              	.LASF34:
 4323 0b59 4B435F4B 		.ascii	"KC_K\000"
 4323      00
 4324              	.LASF35:
 4325 0b5e 4B435F4C 		.ascii	"KC_L\000"
 4325      00
 4326              	.LASF36:
 4327 0b63 4B435F4D 		.ascii	"KC_M\000"
 4327      00
 4328              	.LASF37:
 4329 0b68 4B435F4E 		.ascii	"KC_N\000"
 4329      00
 4330              	.LASF38:
 4331 0b6d 4B435F4F 		.ascii	"KC_O\000"
 4331      00
 4332              	.LASF39:
 4333 0b72 4B435F50 		.ascii	"KC_P\000"
 4333      00
 4334              	.LASF40:
 4335 0b77 4B435F51 		.ascii	"KC_Q\000"
 4335      00
 4336              	.LASF41:
 4337 0b7c 4B435F52 		.ascii	"KC_R\000"
 4337      00
 4338              	.LASF42:
 4339 0b81 4B435F53 		.ascii	"KC_S\000"
 4339      00
 4340              	.LASF43:
 4341 0b86 4B435F54 		.ascii	"KC_T\000"
 4341      00
 4342              	.LASF44:
 4343 0b8b 4B435F55 		.ascii	"KC_U\000"
 4343      00
 4344              	.LASF45:
 4345 0b90 4B435F56 		.ascii	"KC_V\000"
 4345      00
 4346              	.LASF46:
 4347 0b95 4B435F57 		.ascii	"KC_W\000"
 4347      00
 4348              	.LASF47:
 4349 0b9a 4B435F58 		.ascii	"KC_X\000"
ARM GAS  /var/folders/t8/16hdwfmd2fg_d3q6dgx6bpmw0000gn/T//cctlI9p4.s 			page 87


 4349      00
 4350              	.LASF48:
 4351 0b9f 4B435F59 		.ascii	"KC_Y\000"
 4351      00
 4352              	.LASF49:
 4353 0ba4 4B435F5A 		.ascii	"KC_Z\000"
 4353      00
 4354              	.LASF200:
 4355 0ba9 4B435F4B 		.ascii	"KC_KP_D\000"
 4355      505F4400 
 4356              	.LASF201:
 4357 0bb1 4B435F4B 		.ascii	"KC_KP_E\000"
 4357      505F4500 
 4358              	.LASF141:
 4359 0bb9 4B435F41 		.ascii	"KC_AGAIN\000"
 4359      4741494E 
 4359      00
 4360              	.LASF376:
 4361 0bc2 5553425F 		.ascii	"USB_STOP\000"
 4361      53544F50 
 4361      00
 4362              	.LASF414:
 4363 0bcb 7278636E 		.ascii	"rxcnt\000"
 4363      7400
 4364              	.LASF459:
 4365 0bd1 64656C5F 		.ascii	"del_weak_mods\000"
 4365      7765616B 
 4365      5F6D6F64 
 4365      7300
 4366              	.LASF422:
 4367 0bdf 696E5F6D 		.ascii	"in_maxsize\000"
 4367      61787369 
 4367      7A6500
 4368              	.LASF101:
 4369 0bea 4B435F44 		.ascii	"KC_DOWN\000"
 4369      4F574E00 
 4370              	.LASF138:
 4371 0bf2 4B435F4D 		.ascii	"KC_MENU\000"
 4371      454E5500 
 4372              	.LASF425:
 4373 0bfa 6F75745F 		.ascii	"out_state\000"
 4373      73746174 
 4373      6500
 4374              	.LASF444:
 4375 0c04 6B657962 		.ascii	"keyboard\000"
 4375      6F617264 
 4375      00
 4376              	.LASF87:
 4377 0c0d 4B435F46 		.ascii	"KC_F10\000"
 4377      313000
 4378              	.LASF88:
 4379 0c14 4B435F46 		.ascii	"KC_F11\000"
 4379      313100
 4380              	.LASF89:
 4381 0c1b 4B435F46 		.ascii	"KC_F12\000"
 4381      313200
 4382              	.LASF124:
ARM GAS  /var/folders/t8/16hdwfmd2fg_d3q6dgx6bpmw0000gn/T//cctlI9p4.s 			page 88


 4383 0c22 4B435F46 		.ascii	"KC_F13\000"
 4383      313300
 4384              	.LASF125:
 4385 0c29 4B435F46 		.ascii	"KC_F14\000"
 4385      313400
 4386              	.LASF126:
 4387 0c30 4B435F46 		.ascii	"KC_F15\000"
 4387      313500
 4388              	.LASF127:
 4389 0c37 4B435F46 		.ascii	"KC_F16\000"
 4389      313600
 4390              	.LASF128:
 4391 0c3e 4B435F46 		.ascii	"KC_F17\000"
 4391      313700
 4392              	.LASF129:
 4393 0c45 4B435F46 		.ascii	"KC_F18\000"
 4393      313800
 4394              	.LASF130:
 4395 0c4c 4B435F46 		.ascii	"KC_F19\000"
 4395      313900
 4396              	.LASF280:
 4397 0c53 6E657874 		.ascii	"next\000"
 4397      00
 4398              	.LASF186:
 4399 0c58 4B435F4B 		.ascii	"KC_KP_000\000"
 4399      505F3030 
 4399      3000
 4400              	.LASF259:
 4401 0c62 74687265 		.ascii	"thread_t\000"
 4401      61645F74 
 4401      00
 4402              	.LASF426:
 4403 0c6b 65705F62 		.ascii	"ep_buffers\000"
 4403      75666665 
 4403      727300
 4404              	.LASF180:
 4405 0c76 4B435F4F 		.ascii	"KC_OUT\000"
 4405      555400
 4406              	.LASF69:
 4407 0c7d 4B435F42 		.ascii	"KC_BSLASH\000"
 4407      534C4153 
 4407      4800
 4408              	.LASF276:
 4409 0c87 74687265 		.ascii	"thread_reference_t\000"
 4409      61645F72 
 4409      65666572 
 4409      656E6365 
 4409      5F7400
 4410              	.LASF320:
 4411 0c9a 73656E74 		.ascii	"sentmsg\000"
 4411      6D736700 
 4412              	.LASF384:
 4413 0ca2 5553425F 		.ascii	"USB_EP0_WAITING_TX0\000"
 4413      4550305F 
 4413      57414954 
 4413      494E475F 
 4413      54583000 
ARM GAS  /var/folders/t8/16hdwfmd2fg_d3q6dgx6bpmw0000gn/T//cctlI9p4.s 			page 89


 4414              	.LASF315:
 4415 0cb6 706F7274 		.ascii	"port_intctx\000"
 4415      5F696E74 
 4415      63747800 
 4416              	.LASF216:
 4417 0cc2 4B435F4B 		.ascii	"KC_KP_EXCLAMATION\000"
 4417      505F4558 
 4417      434C414D 
 4417      4154494F 
 4417      4E00
 4418              	.LASF300:
 4419 0cd4 63685F73 		.ascii	"ch_system_t\000"
 4419      79737465 
 4419      6D5F7400 
 4420              	.LASF104:
 4421 0ce0 4B435F4B 		.ascii	"KC_KP_SLASH\000"
 4421      505F534C 
 4421      41534800 
 4422              	.LASF131:
 4423 0cec 4B435F46 		.ascii	"KC_F20\000"
 4423      323000
 4424              	.LASF132:
 4425 0cf3 4B435F46 		.ascii	"KC_F21\000"
 4425      323100
 4426              	.LASF133:
 4427 0cfa 4B435F46 		.ascii	"KC_F22\000"
 4427      323200
 4428              	.LASF134:
 4429 0d01 4B435F46 		.ascii	"KC_F23\000"
 4429      323300
 4430              	.LASF135:
 4431 0d08 4B435F46 		.ascii	"KC_F24\000"
 4431      323400
 4432              	.LASF219:
 4433 0d0f 4B435F4B 		.ascii	"KC_KP_MEM_CLEAR\000"
 4433      505F4D45 
 4433      4D5F434C 
 4433      45415200 
 4434              	.LASF375:
 4435 0d1f 5553425F 		.ascii	"USB_UNINIT\000"
 4435      554E494E 
 4435      495400
 4436              	.LASF289:
 4437 0d2a 63685F76 		.ascii	"ch_virtual_timer\000"
 4437      69727475 
 4437      616C5F74 
 4437      696D6572 
 4437      00
 4438              	.LASF417:
 4439 0d3b 5553424F 		.ascii	"USBOutEndpointState\000"
 4439      7574456E 
 4439      64706F69 
 4439      6E745374 
 4439      61746500 
 4440              	.LASF90:
 4441 0d4f 4B435F50 		.ascii	"KC_PSCREEN\000"
 4441      53435245 
ARM GAS  /var/folders/t8/16hdwfmd2fg_d3q6dgx6bpmw0000gn/T//cctlI9p4.s 			page 90


 4441      454E00
 4442              	.LASF64:
 4443 0d5a 4B435F53 		.ascii	"KC_SPACE\000"
 4443      50414345 
 4443      00
 4444              	.LASF331:
 4445 0d63 73697A65 		.ascii	"size\000"
 4445      00
 4446              	.LASF464:
 4447 0d68 6D616372 		.ascii	"macro_p\000"
 4447      6F5F7000 
 4448              	.LASF12:
 4449 0d70 6C6F6E67 		.ascii	"long long unsigned int\000"
 4449      206C6F6E 
 4449      6720756E 
 4449      7369676E 
 4449      65642069 
 4450              	.LASF239:
 4451 0d87 6D616372 		.ascii	"macro_t\000"
 4451      6F5F7400 
 4452              	.LASF93:
 4453 0d8f 4B435F49 		.ascii	"KC_INSERT\000"
 4453      4E534552 
 4453      5400
 4454              	.LASF15:
 4455 0d99 75696E74 		.ascii	"uint16_t\000"
 4455      31365F74 
 4455      00
 4456              	.LASF340:
 4457 0da2 6F66665F 		.ascii	"off_name\000"
 4457      6E616D65 
 4457      00
 4458              	.LASF119:
 4459 0dab 4B435F4B 		.ascii	"KC_KP_DOT\000"
 4459      505F444F 
 4459      5400
 4460              	.LASF255:
 4461 0db5 6D73675F 		.ascii	"msg_t\000"
 4461      7400
 4462              	.LASF282:
 4463 0dbb 63685F74 		.ascii	"ch_threads_queue\000"
 4463      68726561 
 4463      64735F71 
 4463      75657565 
 4463      00
 4464              	.LASF373:
 4465 0dcc 706D6E65 		.ascii	"pmnext\000"
 4465      787400
 4466              	.LASF253:
 4467 0dd3 74736C69 		.ascii	"tslices_t\000"
 4467      6365735F 
 4467      7400
 4468              	.LASF151:
 4469 0ddd 4B435F4C 		.ascii	"KC_LOCKING_NUM\000"
 4469      4F434B49 
 4469      4E475F4E 
 4469      554D00
ARM GAS  /var/folders/t8/16hdwfmd2fg_d3q6dgx6bpmw0000gn/T//cctlI9p4.s 			page 91


 4470              	.LASF372:
 4471 0dec 73617665 		.ascii	"saved_state\000"
 4471      645F7374 
 4471      61746500 
 4472              	.LASF290:
 4473 0df8 64656C74 		.ascii	"delta\000"
 4473      6100
 4474              	.LASF191:
 4475 0dfe 4B435F4B 		.ascii	"KC_KP_LPAREN\000"
 4475      505F4C50 
 4475      4152454E 
 4475      00
 4476              	.LASF390:
 4477 0e0b 5553425F 		.ascii	"USB_EVENT_RESET\000"
 4477      4556454E 
 4477      545F5245 
 4477      53455400 
 4478              	.LASF268:
 4479 0e1b 72656673 		.ascii	"refs\000"
 4479      00
 4480              	.LASF56:
 4481 0e20 4B435F37 		.ascii	"KC_7\000"
 4481      00
 4482              	.LASF173:
 4483 0e25 4B435F41 		.ascii	"KC_ALT_ERASE\000"
 4483      4C545F45 
 4483      52415345 
 4483      00
 4484              	.LASF150:
 4485 0e32 4B435F4C 		.ascii	"KC_LOCKING_CAPS\000"
 4485      4F434B49 
 4485      4E475F43 
 4485      41505300 
 4486              	.LASF203:
 4487 0e42 4B435F4B 		.ascii	"KC_KP_XOR\000"
 4487      505F584F 
 4487      5200
 4488              	.LASF304:
 4489 0e4c 6D61696E 		.ascii	"mainthread\000"
 4489      74687265 
 4489      616400
 4490              	.LASF457:
 4491 0e57 636C6561 		.ascii	"clear_mods\000"
 4491      725F6D6F 
 4491      647300
 4492              	.LASF332:
 4493 0e62 76657273 		.ascii	"version\000"
 4493      696F6E00 
 4494              	.LASF22:
 4495 0e6a 4B435F50 		.ascii	"KC_POST_FAIL\000"
 4495      4F53545F 
 4495      4641494C 
 4495      00
 4496              	.LASF212:
 4497 0e77 4B435F4B 		.ascii	"KC_KP_COLON\000"
 4497      505F434F 
 4497      4C4F4E00 
ARM GAS  /var/folders/t8/16hdwfmd2fg_d3q6dgx6bpmw0000gn/T//cctlI9p4.s 			page 92


 4498              	.LASF60:
 4499 0e83 4B435F45 		.ascii	"KC_ENTER\000"
 4499      4E544552 
 4499      00
 4500              	.LASF393:
 4501 0e8c 5553425F 		.ascii	"USB_EVENT_UNCONFIGURED\000"
 4501      4556454E 
 4501      545F554E 
 4501      434F4E46 
 4501      49475552 
 4502              	.LASF423:
 4503 0ea3 6F75745F 		.ascii	"out_maxsize\000"
 4503      6D617873 
 4503      697A6500 
 4504              	.LASF148:
 4505 0eaf 4B435F5F 		.ascii	"KC__VOLUP\000"
 4505      564F4C55 
 4505      5000
 4506              	.LASF265:
 4507 0eb9 77616261 		.ascii	"wabase\000"
 4507      736500
 4508              	.LASF145:
 4509 0ec0 4B435F50 		.ascii	"KC_PASTE\000"
 4509      41535445 
 4509      00
 4510              	.LASF392:
 4511 0ec9 5553425F 		.ascii	"USB_EVENT_CONFIGURED\000"
 4511      4556454E 
 4511      545F434F 
 4511      4E464947 
 4511      55524544 
 4512              	.LASF387:
 4513 0ede 5553425F 		.ascii	"USB_EP0_SENDING_STS\000"
 4513      4550305F 
 4513      53454E44 
 4513      494E475F 
 4513      53545300 
 4514              	.LASF106:
 4515 0ef2 4B435F4B 		.ascii	"KC_KP_MINUS\000"
 4515      505F4D49 
 4515      4E555300 
 4516              	.LASF102:
 4517 0efe 4B435F55 		.ascii	"KC_UP\000"
 4517      5000
 4518              	.LASF428:
 4519 0f04 55534245 		.ascii	"USBEndpointConfig\000"
 4519      6E64706F 
 4519      696E7443 
 4519      6F6E6669 
 4519      6700
 4520              	.LASF302:
 4521 0f16 726C6973 		.ascii	"rlist\000"
 4521      7400
 4522              	.LASF250:
 4523 0f1c 746D6F64 		.ascii	"tmode_t\000"
 4523      655F7400 
 4524              	.LASF67:
ARM GAS  /var/folders/t8/16hdwfmd2fg_d3q6dgx6bpmw0000gn/T//cctlI9p4.s 			page 93


 4525 0f24 4B435F4C 		.ascii	"KC_LBRACKET\000"
 4525      42524143 
 4525      4B455400 
 4526              	.LASF181:
 4527 0f30 4B435F4F 		.ascii	"KC_OPER\000"
 4527      50455200 
 4528              	.LASF96:
 4529 0f38 4B435F44 		.ascii	"KC_DELETE\000"
 4529      454C4554 
 4529      4500
 4530              	.LASF405:
 4531 0f42 75736267 		.ascii	"usbgetdescriptor_t\000"
 4531      65746465 
 4531      73637269 
 4531      70746F72 
 4531      5F7400
 4532              	.LASF370:
 4533 0f55 61646472 		.ascii	"address\000"
 4533      65737300 
 4534              	.LASF362:
 4535 0f5d 696E5F70 		.ascii	"in_params\000"
 4535      6172616D 
 4535      7300
 4536              	.LASF449:
 4537 0f67 696E7465 		.ascii	"interval\000"
 4537      7276616C 
 4537      00
 4538              	.LASF123:
 4539 0f70 4B435F4B 		.ascii	"KC_KP_EQUAL\000"
 4539      505F4551 
 4539      55414C00 
 4540              	.LASF409:
 4541 0f7c 74687265 		.ascii	"thread\000"
 4541      616400
 4542              	.LASF264:
 4543 0f83 6E616D65 		.ascii	"name\000"
 4543      00
 4544              	.LASF217:
 4545 0f88 4B435F4B 		.ascii	"KC_KP_MEM_STORE\000"
 4545      505F4D45 
 4545      4D5F5354 
 4545      4F524500 
 4546              	.LASF352:
 4547 0f98 706F7274 		.ascii	"port\000"
 4547      00
 4548              	.LASF305:
 4549 0f9d 50444F52 		.ascii	"PDOR\000"
 4549      00
 4550              	.LASF2:
 4551 0fa2 73686F72 		.ascii	"short int\000"
 4551      7420696E 
 4551      7400
 4552              	.LASF347:
 4553 0fac 63686465 		.ascii	"chdebug_t\000"
 4553      6275675F 
 4553      7400
 4554              	.LASF71:
ARM GAS  /var/folders/t8/16hdwfmd2fg_d3q6dgx6bpmw0000gn/T//cctlI9p4.s 			page 94


 4555 0fb6 4B435F53 		.ascii	"KC_SCOLON\000"
 4555      434F4C4F 
 4555      4E00
 4556              	.LASF325:
 4557 0fc0 63685F6D 		.ascii	"ch_mutex\000"
 4557      75746578 
 4557      00
 4558              	.LASF18:
 4559 0fc9 75696E74 		.ascii	"uint64_t\000"
 4559      36345F74 
 4559      00
 4560              	.LASF291:
 4561 0fd2 66756E63 		.ascii	"func\000"
 4561      00
 4562              	.LASF155:
 4563 0fd7 4B435F49 		.ascii	"KC_INT1\000"
 4563      4E543100 
 4564              	.LASF156:
 4565 0fdf 4B435F49 		.ascii	"KC_INT2\000"
 4565      4E543200 
 4566              	.LASF157:
 4567 0fe7 4B435F49 		.ascii	"KC_INT3\000"
 4567      4E543300 
 4568              	.LASF158:
 4569 0fef 4B435F49 		.ascii	"KC_INT4\000"
 4569      4E543400 
 4570              	.LASF159:
 4571 0ff7 4B435F49 		.ascii	"KC_INT5\000"
 4571      4E543500 
 4572              	.LASF160:
 4573 0fff 4B435F49 		.ascii	"KC_INT6\000"
 4573      4E543600 
 4574              	.LASF161:
 4575 1007 4B435F49 		.ascii	"KC_INT7\000"
 4575      4E543700 
 4576              	.LASF162:
 4577 100f 4B435F49 		.ascii	"KC_INT8\000"
 4577      4E543800 
 4578              	.LASF163:
 4579 1017 4B435F49 		.ascii	"KC_INT9\000"
 4579      4E543900 
 4580              	.LASF435:
 4581 101f 6D6F6473 		.ascii	"mods\000"
 4581      00
 4582              	.LASF306:
 4583 1024 50534F52 		.ascii	"PSOR\000"
 4583      00
 4584              	.LASF271:
 4585 1029 6D736771 		.ascii	"msgqueue\000"
 4585      75657565 
 4585      00
 4586              	.LASF461:
 4587 1032 2E2E2F2E 		.ascii	"../../tmk_core/common/action_macro.c\000"
 4587      2E2F746D 
 4587      6B5F636F 
 4587      72652F63 
 4587      6F6D6D6F 
ARM GAS  /var/folders/t8/16hdwfmd2fg_d3q6dgx6bpmw0000gn/T//cctlI9p4.s 			page 95


 4588              	.LASF296:
 4589 1057 63685F73 		.ascii	"ch_system_debug\000"
 4589      79737465 
 4589      6D5F6465 
 4589      62756700 
 4590              	.LASF248:
 4591 1067 4D4F445F 		.ascii	"MOD_CLEAR\000"
 4591      434C4541 
 4591      5200
 4592              	.LASF226:
 4593 1071 4B435F4B 		.ascii	"KC_KP_CLEAR_ENTRY\000"
 4593      505F434C 
 4593      4541525F 
 4593      454E5452 
 4593      5900
 4594              	.LASF118:
 4595 1083 4B435F4B 		.ascii	"KC_KP_0\000"
 4595      505F3000 
 4596              	.LASF107:
 4597 108b 4B435F4B 		.ascii	"KC_KP_PLUS\000"
 4597      505F504C 
 4597      555300
 4598              	.LASF110:
 4599 1096 4B435F4B 		.ascii	"KC_KP_2\000"
 4599      505F3200 
 4600              	.LASF111:
 4601 109e 4B435F4B 		.ascii	"KC_KP_3\000"
 4601      505F3300 
 4602              	.LASF112:
 4603 10a6 4B435F4B 		.ascii	"KC_KP_4\000"
 4603      505F3400 
 4604              	.LASF113:
 4605 10ae 4B435F4B 		.ascii	"KC_KP_5\000"
 4605      505F3500 
 4606              	.LASF356:
 4607 10b6 50414C43 		.ascii	"PALConfig\000"
 4607      6F6E6669 
 4607      6700
 4608              	.LASF114:
 4609 10c0 4B435F4B 		.ascii	"KC_KP_6\000"
 4609      505F3600 
 4610              	.LASF115:
 4611 10c8 4B435F4B 		.ascii	"KC_KP_7\000"
 4611      505F3700 
 4612              	.LASF116:
 4613 10d0 4B435F4B 		.ascii	"KC_KP_8\000"
 4613      505F3800 
 4614              	.LASF117:
 4615 10d8 4B435F4B 		.ascii	"KC_KP_9\000"
 4615      505F3900 
 4616              	.LASF411:
 4617 10e0 64617461 		.ascii	"data_bank\000"
 4617      5F62616E 
 4617      6B00
 4618              	.LASF311:
 4619 10ea 4750494F 		.ascii	"GPIO_TypeDef\000"
 4619      5F547970 
ARM GAS  /var/folders/t8/16hdwfmd2fg_d3q6dgx6bpmw0000gn/T//cctlI9p4.s 			page 96


 4619      65446566 
 4619      00
 4620              	.LASF322:
 4621 10f7 77746D74 		.ascii	"wtmtxp\000"
 4621      787000
 4622              	.LASF303:
 4623 10fe 76746C69 		.ascii	"vtlist\000"
 4623      737400
 4624              	.LASF197:
 4625 1105 4B435F4B 		.ascii	"KC_KP_A\000"
 4625      505F4100 
 4626              	.LASF198:
 4627 110d 4B435F4B 		.ascii	"KC_KP_B\000"
 4627      505F4200 
 4628              	.LASF270:
 4629 1115 77616974 		.ascii	"waiting\000"
 4629      696E6700 
 4630              	.LASF199:
 4631 111d 4B435F4B 		.ascii	"KC_KP_C\000"
 4631      505F4300 
 4632              	.LASF182:
 4633 1125 4B435F43 		.ascii	"KC_CLEAR_AGAIN\000"
 4633      4C454152 
 4633      5F414741 
 4633      494E00
 4634              	.LASF153:
 4635 1134 4B435F4B 		.ascii	"KC_KP_COMMA\000"
 4635      505F434F 
 4635      4D4D4100 
 4636              	.LASF224:
 4637 1140 4B435F4B 		.ascii	"KC_KP_PLUS_MINUS\000"
 4637      505F504C 
 4637      55535F4D 
 4637      494E5553 
 4637      00
 4638              	.LASF434:
 4639 1151 55534244 		.ascii	"USBD1\000"
 4639      3100
 4640              	.LASF349:
 4641 1157 6D757465 		.ascii	"mutex_t\000"
 4641      785F7400 
 4642              	.LASF252:
 4643 115f 74726566 		.ascii	"trefs_t\000"
 4643      735F7400 
 4644              	.LASF144:
 4645 1167 4B435F43 		.ascii	"KC_COPY\000"
 4645      4F505900 
 4646              	.LASF314:
 4647 116f 706F7274 		.ascii	"port_context\000"
 4647      5F636F6E 
 4647      74657874 
 4647      00
 4648              	.LASF277:
 4649 117c 74687265 		.ascii	"threads_list_t\000"
 4649      6164735F 
 4649      6C697374 
 4649      5F7400
ARM GAS  /var/folders/t8/16hdwfmd2fg_d3q6dgx6bpmw0000gn/T//cctlI9p4.s 			page 97


 4650              	.LASF432:
 4651 118b 736F665F 		.ascii	"sof_cb\000"
 4651      636200
 4652              	.LASF176:
 4653 1192 4B435F43 		.ascii	"KC_CLEAR\000"
 4653      4C454152 
 4653      00
 4654              	.LASF301:
 4655 119b 63685F73 		.ascii	"ch_system\000"
 4655      79737465 
 4655      6D00
 4656              	.LASF262:
 4657 11a5 6E657765 		.ascii	"newer\000"
 4657      7200
 4658              	.LASF147:
 4659 11ab 4B435F5F 		.ascii	"KC__MUTE\000"
 4659      4D555445 
 4659      00
 4660              	.LASF72:
 4661 11b4 4B435F51 		.ascii	"KC_QUOTE\000"
 4661      554F5445 
 4661      00
 4662              	.LASF17:
 4663 11bd 75696E74 		.ascii	"uint32_t\000"
 4663      33325F74 
 4663      00
 4664              	.LASF374:
 4665 11c6 75736265 		.ascii	"usbep_t\000"
 4665      705F7400 
 4666              	.LASF223:
 4667 11ce 4B435F4B 		.ascii	"KC_KP_MEM_DIV\000"
 4667      505F4D45 
 4667      4D5F4449 
 4667      5600
 4668              	.LASF404:
 4669 11dc 75736272 		.ascii	"usbreqhandler_t\000"
 4669      65716861 
 4669      6E646C65 
 4669      725F7400 
 4670              	.LASF416:
 4671 11ec 7278706B 		.ascii	"rxpkts\000"
 4671      747300
 4672              	.LASF394:
 4673 11f3 5553425F 		.ascii	"USB_EVENT_SUSPEND\000"
 4673      4556454E 
 4673      545F5355 
 4673      5350454E 
 4673      4400
 4674              	.LASF436:
 4675 1205 72657365 		.ascii	"reserved\000"
 4675      72766564 
 4675      00
 4676              	.LASF68:
 4677 120e 4B435F52 		.ascii	"KC_RBRACKET\000"
 4677      42524143 
 4677      4B455400 
 4678              	.LASF316:
ARM GAS  /var/folders/t8/16hdwfmd2fg_d3q6dgx6bpmw0000gn/T//cctlI9p4.s 			page 98


 4679 121a 7264796D 		.ascii	"rdymsg\000"
 4679      736700
 4680              	.LASF5:
 4681 1221 73686F72 		.ascii	"short unsigned int\000"
 4681      7420756E 
 4681      7369676E 
 4681      65642069 
 4681      6E7400
 4682              	.LASF164:
 4683 1234 4B435F4C 		.ascii	"KC_LANG1\000"
 4683      414E4731 
 4683      00
 4684              	.LASF165:
 4685 123d 4B435F4C 		.ascii	"KC_LANG2\000"
 4685      414E4732 
 4685      00
 4686              	.LASF140:
 4687 1246 4B435F53 		.ascii	"KC_STOP\000"
 4687      544F5000 
 4688              	.LASF167:
 4689 124e 4B435F4C 		.ascii	"KC_LANG4\000"
 4689      414E4734 
 4689      00
 4690              	.LASF168:
 4691 1257 4B435F4C 		.ascii	"KC_LANG5\000"
 4691      414E4735 
 4691      00
 4692              	.LASF169:
 4693 1260 4B435F4C 		.ascii	"KC_LANG6\000"
 4693      414E4736 
 4693      00
 4694              	.LASF170:
 4695 1269 4B435F4C 		.ascii	"KC_LANG7\000"
 4695      414E4737 
 4695      00
 4696              	.LASF171:
 4697 1272 4B435F4C 		.ascii	"KC_LANG8\000"
 4697      414E4738 
 4697      00
 4698              	.LASF172:
 4699 127b 4B435F4C 		.ascii	"KC_LANG9\000"
 4699      414E4739 
 4699      00
 4700              	.LASF77:
 4701 1284 4B435F43 		.ascii	"KC_CAPSLOCK\000"
 4701      4150534C 
 4701      4F434B00 
 4702              	.LASF232:
 4703 1290 4B435F4C 		.ascii	"KC_LSHIFT\000"
 4703      53484946 
 4703      5400
 4704              	.LASF334:
 4705 129a 74696D65 		.ascii	"timesize\000"
 4705      73697A65 
 4705      00
 4706              	.LASF6:
 4707 12a3 5F5F696E 		.ascii	"__int32_t\000"
ARM GAS  /var/folders/t8/16hdwfmd2fg_d3q6dgx6bpmw0000gn/T//cctlI9p4.s 			page 99


 4707      7433325F 
 4707      7400
 4708              	.LASF421:
 4709 12ad 6F75745F 		.ascii	"out_cb\000"
 4709      636200
 4710              	.LASF190:
 4711 12b4 4B435F43 		.ascii	"KC_CURRENCY_SUB_UNIT\000"
 4711      55525245 
 4711      4E43595F 
 4711      5355425F 
 4711      554E4954 
 4712              	.LASF343:
 4713 12c9 6F66665F 		.ascii	"off_flags\000"
 4713      666C6167 
 4713      7300
 4714              	.LASF235:
 4715 12d3 4B435F52 		.ascii	"KC_RCTRL\000"
 4715      4354524C 
 4715      00
 4716              	.LASF385:
 4717 12dc 5553425F 		.ascii	"USB_EP0_WAITING_STS\000"
 4717      4550305F 
 4717      57414954 
 4717      494E475F 
 4717      53545300 
 4718              	.LASF234:
 4719 12f0 4B435F4C 		.ascii	"KC_LGUI\000"
 4719      47554900 
 4720              	.LASF228:
 4721 12f8 4B435F4B 		.ascii	"KC_KP_OCTAL\000"
 4721      505F4F43 
 4721      54414C00 
 4722              	.LASF246:
 4723 1304 4D4F445F 		.ascii	"MOD_STORE\000"
 4723      53544F52 
 4723      4500
 4724              	.LASF453:
 4725 130e 7365745F 		.ascii	"set_mods\000"
 4725      6D6F6473 
 4725      00
 4726              	.LASF99:
 4727 1317 4B435F52 		.ascii	"KC_RIGHT\000"
 4727      49474854 
 4727      00
 4728              	.LASF283:
 4729 1320 70726576 		.ascii	"prev\000"
 4729      00
 4730              	.LASF329:
 4731 1325 6964656E 		.ascii	"identifier\000"
 4731      74696669 
 4731      657200
 4732              	.LASF439:
 4733 1330 6E6B726F 		.ascii	"nkro\000"
 4733      00
 4734              	.LASF63:
 4735 1335 4B435F54 		.ascii	"KC_TAB\000"
 4735      414200
ARM GAS  /var/folders/t8/16hdwfmd2fg_d3q6dgx6bpmw0000gn/T//cctlI9p4.s 			page 100


 4736              	.LASF386:
 4737 133c 5553425F 		.ascii	"USB_EP0_RX\000"
 4737      4550305F 
 4737      525800
 4738              	.LASF95:
 4739 1347 4B435F50 		.ascii	"KC_PGUP\000"
 4739      47555000 
 4740              		.ident	"GCC: (GNU Tools for Arm Embedded Processors 7-2017-q4-major) 7.2.1 20170904 (release) [ARM
ARM GAS  /var/folders/t8/16hdwfmd2fg_d3q6dgx6bpmw0000gn/T//cctlI9p4.s 			page 101


DEFINED SYMBOLS
                            *ABS*:0000000000000000 action_macro.c
/var/folders/t8/16hdwfmd2fg_d3q6dgx6bpmw0000gn/T//cctlI9p4.s:16     .text.action_macro_play:0000000000000000 $t
/var/folders/t8/16hdwfmd2fg_d3q6dgx6bpmw0000gn/T//cctlI9p4.s:24     .text.action_macro_play:0000000000000000 action_macro_play

UNDEFINED SYMBOLS
unregister_code
chThdSleep
set_mods
send_keyboard_report
add_weak_mods
register_code
clear_mods
get_mods
del_weak_mods
