ARM GAS  /var/folders/t8/16hdwfmd2fg_d3q6dgx6bpmw0000gn/T//cckCHOhb.s 			page 1


   1              		.cpu cortex-m0plus
   2              		.eabi_attribute 20, 1
   3              		.eabi_attribute 21, 1
   4              		.eabi_attribute 23, 3
   5              		.eabi_attribute 24, 1
   6              		.eabi_attribute 25, 1
   7              		.eabi_attribute 26, 1
   8              		.eabi_attribute 30, 2
   9              		.eabi_attribute 34, 0
  10              		.eabi_attribute 18, 4
  11              		.file	"action_layer.c"
  12              		.text
  13              	.Ltext0:
  14              		.cfi_sections	.debug_frame
  15              		.section	.text.default_layer_debug,"ax",%progbits
  16              		.align	1
  17              		.p2align 4,,15
  18              		.global	default_layer_debug
  19              		.syntax unified
  20              		.code	16
  21              		.thumb_func
  22              		.fpu softvfp
  23              		.type	default_layer_debug, %function
  24              	default_layer_debug:
  25              	.LFB4:
  26              		.file 1 "../../tmk_core/common/action_layer.c"
  27              		.loc 1 31 0
  28              		.cfi_startproc
  29              		@ args = 0, pretend = 0, frame = 0
  30              		@ frame_needed = 0, uses_anonymous_args = 0
  31              		@ link register save eliminated.
  32              		.loc 1 33 0
  33              		@ sp needed
  34 0000 7047     		bx	lr
  35              		.cfi_endproc
  36              	.LFE4:
  37              		.size	default_layer_debug, .-default_layer_debug
  38 0002 C046     		.section	.text.default_layer_set,"ax",%progbits
  39              		.align	1
  40              		.p2align 4,,15
  41              		.global	default_layer_set
  42              		.syntax unified
  43              		.code	16
  44              		.thumb_func
  45              		.fpu softvfp
  46              		.type	default_layer_set, %function
  47              	default_layer_set:
  48              	.LFB5:
  49              		.loc 1 36 0
  50              		.cfi_startproc
  51              		@ args = 0, pretend = 0, frame = 0
  52              		@ frame_needed = 0, uses_anonymous_args = 0
  53              	.LVL0:
  54 0000 10B5     		push	{r4, lr}
  55              		.cfi_def_cfa_offset 8
  56              		.cfi_offset 4, -8
  57              		.cfi_offset 14, -4
ARM GAS  /var/folders/t8/16hdwfmd2fg_d3q6dgx6bpmw0000gn/T//cckCHOhb.s 			page 2


  58              	.LBB34:
  59              	.LBB35:
  60              		.loc 1 24 0
  61 0002 034B     		ldr	r3, .L4
  62              	.LBE35:
  63              	.LBE34:
  64              		.loc 1 38 0
  65              		@ sp needed
  66              	.LBB37:
  67              	.LBB36:
  68              		.loc 1 24 0
  69 0004 1860     		str	r0, [r3]
  70              		.loc 1 25 0
  71 0006 FFF7FEFF 		bl	hook_default_layer_change
  72              	.LVL1:
  73              		.loc 1 27 0
  74 000a FFF7FEFF 		bl	clear_keyboard_but_mods
  75              	.LVL2:
  76              	.LBE36:
  77              	.LBE37:
  78              		.loc 1 38 0
  79 000e 10BD     		pop	{r4, pc}
  80              	.L5:
  81              		.align	2
  82              	.L4:
  83 0010 00000000 		.word	.LANCHOR0
  84              		.cfi_endproc
  85              	.LFE5:
  86              		.size	default_layer_set, .-default_layer_set
  87              		.section	.text.default_layer_or,"ax",%progbits
  88              		.align	1
  89              		.p2align 4,,15
  90              		.global	default_layer_or
  91              		.syntax unified
  92              		.code	16
  93              		.thumb_func
  94              		.fpu softvfp
  95              		.type	default_layer_or, %function
  96              	default_layer_or:
  97              	.LFB6:
  98              		.loc 1 42 0
  99              		.cfi_startproc
 100              		@ args = 0, pretend = 0, frame = 0
 101              		@ frame_needed = 0, uses_anonymous_args = 0
 102              	.LVL3:
 103 0000 10B5     		push	{r4, lr}
 104              		.cfi_def_cfa_offset 8
 105              		.cfi_offset 4, -8
 106              		.cfi_offset 14, -4
 107              		.loc 1 43 0
 108 0002 044B     		ldr	r3, .L7
 109              		.loc 1 44 0
 110              		@ sp needed
 111              		.loc 1 43 0
 112 0004 1A68     		ldr	r2, [r3]
 113 0006 1043     		orrs	r0, r2
 114              	.LVL4:
ARM GAS  /var/folders/t8/16hdwfmd2fg_d3q6dgx6bpmw0000gn/T//cckCHOhb.s 			page 3


 115              	.LBB38:
 116              	.LBB39:
 117              		.loc 1 24 0
 118 0008 1860     		str	r0, [r3]
 119              		.loc 1 25 0
 120 000a FFF7FEFF 		bl	hook_default_layer_change
 121              	.LVL5:
 122              		.loc 1 27 0
 123 000e FFF7FEFF 		bl	clear_keyboard_but_mods
 124              	.LVL6:
 125              	.LBE39:
 126              	.LBE38:
 127              		.loc 1 44 0
 128 0012 10BD     		pop	{r4, pc}
 129              	.L8:
 130              		.align	2
 131              	.L7:
 132 0014 00000000 		.word	.LANCHOR0
 133              		.cfi_endproc
 134              	.LFE6:
 135              		.size	default_layer_or, .-default_layer_or
 136              		.section	.text.default_layer_and,"ax",%progbits
 137              		.align	1
 138              		.p2align 4,,15
 139              		.global	default_layer_and
 140              		.syntax unified
 141              		.code	16
 142              		.thumb_func
 143              		.fpu softvfp
 144              		.type	default_layer_and, %function
 145              	default_layer_and:
 146              	.LFB7:
 147              		.loc 1 46 0
 148              		.cfi_startproc
 149              		@ args = 0, pretend = 0, frame = 0
 150              		@ frame_needed = 0, uses_anonymous_args = 0
 151              	.LVL7:
 152 0000 10B5     		push	{r4, lr}
 153              		.cfi_def_cfa_offset 8
 154              		.cfi_offset 4, -8
 155              		.cfi_offset 14, -4
 156              		.loc 1 47 0
 157 0002 044B     		ldr	r3, .L10
 158              		.loc 1 48 0
 159              		@ sp needed
 160              		.loc 1 47 0
 161 0004 1A68     		ldr	r2, [r3]
 162 0006 1040     		ands	r0, r2
 163              	.LVL8:
 164              	.LBB40:
 165              	.LBB41:
 166              		.loc 1 24 0
 167 0008 1860     		str	r0, [r3]
 168              		.loc 1 25 0
 169 000a FFF7FEFF 		bl	hook_default_layer_change
 170              	.LVL9:
 171              		.loc 1 27 0
ARM GAS  /var/folders/t8/16hdwfmd2fg_d3q6dgx6bpmw0000gn/T//cckCHOhb.s 			page 4


 172 000e FFF7FEFF 		bl	clear_keyboard_but_mods
 173              	.LVL10:
 174              	.LBE41:
 175              	.LBE40:
 176              		.loc 1 48 0
 177 0012 10BD     		pop	{r4, pc}
 178              	.L11:
 179              		.align	2
 180              	.L10:
 181 0014 00000000 		.word	.LANCHOR0
 182              		.cfi_endproc
 183              	.LFE7:
 184              		.size	default_layer_and, .-default_layer_and
 185              		.section	.text.default_layer_xor,"ax",%progbits
 186              		.align	1
 187              		.p2align 4,,15
 188              		.global	default_layer_xor
 189              		.syntax unified
 190              		.code	16
 191              		.thumb_func
 192              		.fpu softvfp
 193              		.type	default_layer_xor, %function
 194              	default_layer_xor:
 195              	.LFB8:
 196              		.loc 1 50 0
 197              		.cfi_startproc
 198              		@ args = 0, pretend = 0, frame = 0
 199              		@ frame_needed = 0, uses_anonymous_args = 0
 200              	.LVL11:
 201 0000 10B5     		push	{r4, lr}
 202              		.cfi_def_cfa_offset 8
 203              		.cfi_offset 4, -8
 204              		.cfi_offset 14, -4
 205              		.loc 1 51 0
 206 0002 044B     		ldr	r3, .L13
 207              		.loc 1 52 0
 208              		@ sp needed
 209              		.loc 1 51 0
 210 0004 1A68     		ldr	r2, [r3]
 211 0006 5040     		eors	r0, r2
 212              	.LVL12:
 213              	.LBB42:
 214              	.LBB43:
 215              		.loc 1 24 0
 216 0008 1860     		str	r0, [r3]
 217              		.loc 1 25 0
 218 000a FFF7FEFF 		bl	hook_default_layer_change
 219              	.LVL13:
 220              		.loc 1 27 0
 221 000e FFF7FEFF 		bl	clear_keyboard_but_mods
 222              	.LVL14:
 223              	.LBE43:
 224              	.LBE42:
 225              		.loc 1 52 0
 226 0012 10BD     		pop	{r4, pc}
 227              	.L14:
 228              		.align	2
ARM GAS  /var/folders/t8/16hdwfmd2fg_d3q6dgx6bpmw0000gn/T//cckCHOhb.s 			page 5


 229              	.L13:
 230 0014 00000000 		.word	.LANCHOR0
 231              		.cfi_endproc
 232              	.LFE8:
 233              		.size	default_layer_xor, .-default_layer_xor
 234              		.section	.text.layer_clear,"ax",%progbits
 235              		.align	1
 236              		.p2align 4,,15
 237              		.global	layer_clear
 238              		.syntax unified
 239              		.code	16
 240              		.thumb_func
 241              		.fpu softvfp
 242              		.type	layer_clear, %function
 243              	layer_clear:
 244              	.LFB10:
 245              		.loc 1 73 0
 246              		.cfi_startproc
 247              		@ args = 0, pretend = 0, frame = 0
 248              		@ frame_needed = 0, uses_anonymous_args = 0
 249              	.LVL15:
 250              	.LBB44:
 251              	.LBB45:
 252              		.loc 1 66 0
 253 0000 0022     		movs	r2, #0
 254              	.LBE45:
 255              	.LBE44:
 256              		.loc 1 73 0
 257 0002 10B5     		push	{r4, lr}
 258              		.cfi_def_cfa_offset 8
 259              		.cfi_offset 4, -8
 260              		.cfi_offset 14, -4
 261              	.LBB48:
 262              	.LBB46:
 263              		.loc 1 66 0
 264 0004 034B     		ldr	r3, .L16
 265              		.loc 1 67 0
 266 0006 0020     		movs	r0, #0
 267              		.loc 1 66 0
 268 0008 1A60     		str	r2, [r3]
 269              	.LBE46:
 270              	.LBE48:
 271              		.loc 1 75 0
 272              		@ sp needed
 273              	.LBB49:
 274              	.LBB47:
 275              		.loc 1 67 0
 276 000a FFF7FEFF 		bl	hook_layer_change
 277              	.LVL16:
 278              		.loc 1 69 0
 279 000e FFF7FEFF 		bl	clear_keyboard_but_mods
 280              	.LVL17:
 281              	.LBE47:
 282              	.LBE49:
 283              		.loc 1 75 0
 284 0012 10BD     		pop	{r4, pc}
 285              	.L17:
ARM GAS  /var/folders/t8/16hdwfmd2fg_d3q6dgx6bpmw0000gn/T//cckCHOhb.s 			page 6


 286              		.align	2
 287              	.L16:
 288 0014 00000000 		.word	.LANCHOR1
 289              		.cfi_endproc
 290              	.LFE10:
 291              		.size	layer_clear, .-layer_clear
 292              		.section	.text.layer_move,"ax",%progbits
 293              		.align	1
 294              		.p2align 4,,15
 295              		.global	layer_move
 296              		.syntax unified
 297              		.code	16
 298              		.thumb_func
 299              		.fpu softvfp
 300              		.type	layer_move, %function
 301              	layer_move:
 302              	.LFB11:
 303              		.loc 1 78 0
 304              		.cfi_startproc
 305              		@ args = 0, pretend = 0, frame = 0
 306              		@ frame_needed = 0, uses_anonymous_args = 0
 307              	.LVL18:
 308              		.loc 1 79 0
 309 0000 0123     		movs	r3, #1
 310 0002 8340     		lsls	r3, r3, r0
 311 0004 1800     		movs	r0, r3
 312              	.LVL19:
 313              		.loc 1 78 0
 314 0006 10B5     		push	{r4, lr}
 315              		.cfi_def_cfa_offset 8
 316              		.cfi_offset 4, -8
 317              		.cfi_offset 14, -4
 318              	.LBB50:
 319              	.LBB51:
 320              		.loc 1 66 0
 321 0008 034B     		ldr	r3, .L19
 322              	.LBE51:
 323              	.LBE50:
 324              		.loc 1 80 0
 325              		@ sp needed
 326              	.LBB53:
 327              	.LBB52:
 328              		.loc 1 66 0
 329 000a 1860     		str	r0, [r3]
 330              		.loc 1 67 0
 331 000c FFF7FEFF 		bl	hook_layer_change
 332              	.LVL20:
 333              		.loc 1 69 0
 334 0010 FFF7FEFF 		bl	clear_keyboard_but_mods
 335              	.LVL21:
 336              	.LBE52:
 337              	.LBE53:
 338              		.loc 1 80 0
 339 0014 10BD     		pop	{r4, pc}
 340              	.L20:
 341 0016 C046     		.align	2
 342              	.L19:
ARM GAS  /var/folders/t8/16hdwfmd2fg_d3q6dgx6bpmw0000gn/T//cckCHOhb.s 			page 7


 343 0018 00000000 		.word	.LANCHOR1
 344              		.cfi_endproc
 345              	.LFE11:
 346              		.size	layer_move, .-layer_move
 347              		.section	.text.layer_on,"ax",%progbits
 348              		.align	1
 349              		.p2align 4,,15
 350              		.global	layer_on
 351              		.syntax unified
 352              		.code	16
 353              		.thumb_func
 354              		.fpu softvfp
 355              		.type	layer_on, %function
 356              	layer_on:
 357              	.LFB12:
 358              		.loc 1 83 0
 359              		.cfi_startproc
 360              		@ args = 0, pretend = 0, frame = 0
 361              		@ frame_needed = 0, uses_anonymous_args = 0
 362              	.LVL22:
 363 0000 0300     		movs	r3, r0
 364              		.loc 1 84 0
 365 0002 0120     		movs	r0, #1
 366              	.LVL23:
 367 0004 9840     		lsls	r0, r0, r3
 368              		.loc 1 83 0
 369 0006 10B5     		push	{r4, lr}
 370              		.cfi_def_cfa_offset 8
 371              		.cfi_offset 4, -8
 372              		.cfi_offset 14, -4
 373              		.loc 1 84 0
 374 0008 044B     		ldr	r3, .L22
 375              		.loc 1 85 0
 376              		@ sp needed
 377              		.loc 1 84 0
 378 000a 1A68     		ldr	r2, [r3]
 379 000c 1043     		orrs	r0, r2
 380              	.LVL24:
 381              	.LBB54:
 382              	.LBB55:
 383              		.loc 1 66 0
 384 000e 1860     		str	r0, [r3]
 385              		.loc 1 67 0
 386 0010 FFF7FEFF 		bl	hook_layer_change
 387              	.LVL25:
 388              		.loc 1 69 0
 389 0014 FFF7FEFF 		bl	clear_keyboard_but_mods
 390              	.LVL26:
 391              	.LBE55:
 392              	.LBE54:
 393              		.loc 1 85 0
 394 0018 10BD     		pop	{r4, pc}
 395              	.L23:
 396 001a C046     		.align	2
 397              	.L22:
 398 001c 00000000 		.word	.LANCHOR1
 399              		.cfi_endproc
ARM GAS  /var/folders/t8/16hdwfmd2fg_d3q6dgx6bpmw0000gn/T//cckCHOhb.s 			page 8


 400              	.LFE12:
 401              		.size	layer_on, .-layer_on
 402              		.section	.text.layer_off,"ax",%progbits
 403              		.align	1
 404              		.p2align 4,,15
 405              		.global	layer_off
 406              		.syntax unified
 407              		.code	16
 408              		.thumb_func
 409              		.fpu softvfp
 410              		.type	layer_off, %function
 411              	layer_off:
 412              	.LFB13:
 413              		.loc 1 88 0
 414              		.cfi_startproc
 415              		@ args = 0, pretend = 0, frame = 0
 416              		@ frame_needed = 0, uses_anonymous_args = 0
 417              	.LVL27:
 418              		.loc 1 89 0
 419 0000 0123     		movs	r3, #1
 420 0002 8340     		lsls	r3, r3, r0
 421              		.loc 1 88 0
 422 0004 10B5     		push	{r4, lr}
 423              		.cfi_def_cfa_offset 8
 424              		.cfi_offset 4, -8
 425              		.cfi_offset 14, -4
 426              		.loc 1 89 0
 427 0006 044A     		ldr	r2, .L25
 428              		.loc 1 90 0
 429              		@ sp needed
 430              		.loc 1 89 0
 431 0008 1068     		ldr	r0, [r2]
 432              	.LVL28:
 433 000a 9843     		bics	r0, r3
 434              	.LVL29:
 435              	.LBB56:
 436              	.LBB57:
 437              		.loc 1 66 0
 438 000c 1060     		str	r0, [r2]
 439              		.loc 1 67 0
 440 000e FFF7FEFF 		bl	hook_layer_change
 441              	.LVL30:
 442              		.loc 1 69 0
 443 0012 FFF7FEFF 		bl	clear_keyboard_but_mods
 444              	.LVL31:
 445              	.LBE57:
 446              	.LBE56:
 447              		.loc 1 90 0
 448 0016 10BD     		pop	{r4, pc}
 449              	.L26:
 450              		.align	2
 451              	.L25:
 452 0018 00000000 		.word	.LANCHOR1
 453              		.cfi_endproc
 454              	.LFE13:
 455              		.size	layer_off, .-layer_off
 456              		.section	.text.layer_invert,"ax",%progbits
ARM GAS  /var/folders/t8/16hdwfmd2fg_d3q6dgx6bpmw0000gn/T//cckCHOhb.s 			page 9


 457              		.align	1
 458              		.p2align 4,,15
 459              		.global	layer_invert
 460              		.syntax unified
 461              		.code	16
 462              		.thumb_func
 463              		.fpu softvfp
 464              		.type	layer_invert, %function
 465              	layer_invert:
 466              	.LFB14:
 467              		.loc 1 93 0
 468              		.cfi_startproc
 469              		@ args = 0, pretend = 0, frame = 0
 470              		@ frame_needed = 0, uses_anonymous_args = 0
 471              	.LVL32:
 472 0000 0300     		movs	r3, r0
 473              		.loc 1 94 0
 474 0002 0120     		movs	r0, #1
 475              	.LVL33:
 476 0004 9840     		lsls	r0, r0, r3
 477              		.loc 1 93 0
 478 0006 10B5     		push	{r4, lr}
 479              		.cfi_def_cfa_offset 8
 480              		.cfi_offset 4, -8
 481              		.cfi_offset 14, -4
 482              		.loc 1 94 0
 483 0008 044B     		ldr	r3, .L28
 484              		.loc 1 95 0
 485              		@ sp needed
 486              		.loc 1 94 0
 487 000a 1A68     		ldr	r2, [r3]
 488 000c 5040     		eors	r0, r2
 489              	.LVL34:
 490              	.LBB58:
 491              	.LBB59:
 492              		.loc 1 66 0
 493 000e 1860     		str	r0, [r3]
 494              		.loc 1 67 0
 495 0010 FFF7FEFF 		bl	hook_layer_change
 496              	.LVL35:
 497              		.loc 1 69 0
 498 0014 FFF7FEFF 		bl	clear_keyboard_but_mods
 499              	.LVL36:
 500              	.LBE59:
 501              	.LBE58:
 502              		.loc 1 95 0
 503 0018 10BD     		pop	{r4, pc}
 504              	.L29:
 505 001a C046     		.align	2
 506              	.L28:
 507 001c 00000000 		.word	.LANCHOR1
 508              		.cfi_endproc
 509              	.LFE14:
 510              		.size	layer_invert, .-layer_invert
 511              		.section	.text.layer_or,"ax",%progbits
 512              		.align	1
 513              		.p2align 4,,15
ARM GAS  /var/folders/t8/16hdwfmd2fg_d3q6dgx6bpmw0000gn/T//cckCHOhb.s 			page 10


 514              		.global	layer_or
 515              		.syntax unified
 516              		.code	16
 517              		.thumb_func
 518              		.fpu softvfp
 519              		.type	layer_or, %function
 520              	layer_or:
 521              	.LFB15:
 522              		.loc 1 98 0
 523              		.cfi_startproc
 524              		@ args = 0, pretend = 0, frame = 0
 525              		@ frame_needed = 0, uses_anonymous_args = 0
 526              	.LVL37:
 527 0000 10B5     		push	{r4, lr}
 528              		.cfi_def_cfa_offset 8
 529              		.cfi_offset 4, -8
 530              		.cfi_offset 14, -4
 531              		.loc 1 99 0
 532 0002 044B     		ldr	r3, .L31
 533              		.loc 1 100 0
 534              		@ sp needed
 535              		.loc 1 99 0
 536 0004 1A68     		ldr	r2, [r3]
 537 0006 1043     		orrs	r0, r2
 538              	.LVL38:
 539              	.LBB60:
 540              	.LBB61:
 541              		.loc 1 66 0
 542 0008 1860     		str	r0, [r3]
 543              		.loc 1 67 0
 544 000a FFF7FEFF 		bl	hook_layer_change
 545              	.LVL39:
 546              		.loc 1 69 0
 547 000e FFF7FEFF 		bl	clear_keyboard_but_mods
 548              	.LVL40:
 549              	.LBE61:
 550              	.LBE60:
 551              		.loc 1 100 0
 552 0012 10BD     		pop	{r4, pc}
 553              	.L32:
 554              		.align	2
 555              	.L31:
 556 0014 00000000 		.word	.LANCHOR1
 557              		.cfi_endproc
 558              	.LFE15:
 559              		.size	layer_or, .-layer_or
 560              		.section	.text.layer_and,"ax",%progbits
 561              		.align	1
 562              		.p2align 4,,15
 563              		.global	layer_and
 564              		.syntax unified
 565              		.code	16
 566              		.thumb_func
 567              		.fpu softvfp
 568              		.type	layer_and, %function
 569              	layer_and:
 570              	.LFB16:
ARM GAS  /var/folders/t8/16hdwfmd2fg_d3q6dgx6bpmw0000gn/T//cckCHOhb.s 			page 11


 571              		.loc 1 102 0
 572              		.cfi_startproc
 573              		@ args = 0, pretend = 0, frame = 0
 574              		@ frame_needed = 0, uses_anonymous_args = 0
 575              	.LVL41:
 576 0000 10B5     		push	{r4, lr}
 577              		.cfi_def_cfa_offset 8
 578              		.cfi_offset 4, -8
 579              		.cfi_offset 14, -4
 580              		.loc 1 103 0
 581 0002 044B     		ldr	r3, .L34
 582              		.loc 1 104 0
 583              		@ sp needed
 584              		.loc 1 103 0
 585 0004 1A68     		ldr	r2, [r3]
 586 0006 1040     		ands	r0, r2
 587              	.LVL42:
 588              	.LBB62:
 589              	.LBB63:
 590              		.loc 1 66 0
 591 0008 1860     		str	r0, [r3]
 592              		.loc 1 67 0
 593 000a FFF7FEFF 		bl	hook_layer_change
 594              	.LVL43:
 595              		.loc 1 69 0
 596 000e FFF7FEFF 		bl	clear_keyboard_but_mods
 597              	.LVL44:
 598              	.LBE63:
 599              	.LBE62:
 600              		.loc 1 104 0
 601 0012 10BD     		pop	{r4, pc}
 602              	.L35:
 603              		.align	2
 604              	.L34:
 605 0014 00000000 		.word	.LANCHOR1
 606              		.cfi_endproc
 607              	.LFE16:
 608              		.size	layer_and, .-layer_and
 609              		.section	.text.layer_xor,"ax",%progbits
 610              		.align	1
 611              		.p2align 4,,15
 612              		.global	layer_xor
 613              		.syntax unified
 614              		.code	16
 615              		.thumb_func
 616              		.fpu softvfp
 617              		.type	layer_xor, %function
 618              	layer_xor:
 619              	.LFB17:
 620              		.loc 1 106 0
 621              		.cfi_startproc
 622              		@ args = 0, pretend = 0, frame = 0
 623              		@ frame_needed = 0, uses_anonymous_args = 0
 624              	.LVL45:
 625 0000 10B5     		push	{r4, lr}
 626              		.cfi_def_cfa_offset 8
 627              		.cfi_offset 4, -8
ARM GAS  /var/folders/t8/16hdwfmd2fg_d3q6dgx6bpmw0000gn/T//cckCHOhb.s 			page 12


 628              		.cfi_offset 14, -4
 629              		.loc 1 107 0
 630 0002 044B     		ldr	r3, .L37
 631              		.loc 1 108 0
 632              		@ sp needed
 633              		.loc 1 107 0
 634 0004 1A68     		ldr	r2, [r3]
 635 0006 5040     		eors	r0, r2
 636              	.LVL46:
 637              	.LBB64:
 638              	.LBB65:
 639              		.loc 1 66 0
 640 0008 1860     		str	r0, [r3]
 641              		.loc 1 67 0
 642 000a FFF7FEFF 		bl	hook_layer_change
 643              	.LVL47:
 644              		.loc 1 69 0
 645 000e FFF7FEFF 		bl	clear_keyboard_but_mods
 646              	.LVL48:
 647              	.LBE65:
 648              	.LBE64:
 649              		.loc 1 108 0
 650 0012 10BD     		pop	{r4, pc}
 651              	.L38:
 652              		.align	2
 653              	.L37:
 654 0014 00000000 		.word	.LANCHOR1
 655              		.cfi_endproc
 656              	.LFE17:
 657              		.size	layer_xor, .-layer_xor
 658              		.section	.text.layer_debug,"ax",%progbits
 659              		.align	1
 660              		.p2align 4,,15
 661              		.global	layer_debug
 662              		.syntax unified
 663              		.code	16
 664              		.thumb_func
 665              		.fpu softvfp
 666              		.type	layer_debug, %function
 667              	layer_debug:
 668              	.LFB21:
 669              		.cfi_startproc
 670              		@ args = 0, pretend = 0, frame = 0
 671              		@ frame_needed = 0, uses_anonymous_args = 0
 672              		@ link register save eliminated.
 673              		@ sp needed
 674 0000 7047     		bx	lr
 675              		.cfi_endproc
 676              	.LFE21:
 677              		.size	layer_debug, .-layer_debug
 678 0002 C046     		.section	.text.layer_switch_get_action,"ax",%progbits
 679              		.align	1
 680              		.p2align 4,,15
 681              		.global	layer_switch_get_action
 682              		.syntax unified
 683              		.code	16
 684              		.thumb_func
ARM GAS  /var/folders/t8/16hdwfmd2fg_d3q6dgx6bpmw0000gn/T//cckCHOhb.s 			page 13


 685              		.fpu softvfp
 686              		.type	layer_switch_get_action, %function
 687              	layer_switch_get_action:
 688              	.LFB19:
 689              		.loc 1 119 0
 690              		.cfi_startproc
 691              		@ args = 0, pretend = 0, frame = 8
 692              		@ frame_needed = 0, uses_anonymous_args = 0
 693              	.LVL49:
 694              		.loc 1 119 0
 695 0000 F0B5     		push	{r4, r5, r6, r7, lr}
 696              		.cfi_def_cfa_offset 20
 697              		.cfi_offset 4, -20
 698              		.cfi_offset 5, -16
 699              		.cfi_offset 6, -12
 700              		.cfi_offset 7, -8
 701              		.cfi_offset 14, -4
 702              		.loc 1 123 0
 703 0002 0F4B     		ldr	r3, .L52
 704              		.loc 1 119 0
 705 0004 83B0     		sub	sp, sp, #12
 706              		.cfi_def_cfa_offset 32
 707              		.loc 1 123 0
 708 0006 1D68     		ldr	r5, [r3]
 709 0008 0E4B     		ldr	r3, .L52+4
 710              		.loc 1 119 0
 711 000a 01AE     		add	r6, sp, #4
 712              		.loc 1 123 0
 713 000c 1B68     		ldr	r3, [r3]
 714              		.loc 1 119 0
 715 000e 3080     		strh	r0, [r6]
 716              		.loc 1 123 0
 717 0010 1D43     		orrs	r5, r3
 718              	.LVL50:
 719 0012 1F24     		movs	r4, #31
 720              	.LBB66:
 721              		.loc 1 126 0
 722 0014 0127     		movs	r7, #1
 723 0016 01E0     		b	.L43
 724              	.LVL51:
 725              	.L41:
 726              		.loc 1 125 0
 727 0018 013C     		subs	r4, r4, #1
 728 001a 0CD3     		bcc	.L51
 729              	.LVL52:
 730              	.L43:
 731              		.loc 1 126 0
 732 001c 2B00     		movs	r3, r5
 733 001e E340     		lsrs	r3, r3, r4
 734 0020 E0B2     		uxtb	r0, r4
 735 0022 1F42     		tst	r7, r3
 736 0024 F8D0     		beq	.L41
 737              		.loc 1 127 0
 738 0026 3168     		ldr	r1, [r6]
 739 0028 FFF7FEFF 		bl	action_for_key
 740              	.LVL53:
 741 002c 80B2     		uxth	r0, r0
ARM GAS  /var/folders/t8/16hdwfmd2fg_d3q6dgx6bpmw0000gn/T//cckCHOhb.s 			page 14


 742              	.LVL54:
 743              		.loc 1 128 0
 744 002e 0128     		cmp	r0, #1
 745 0030 F2D0     		beq	.L41
 746              	.LVL55:
 747              	.L42:
 748              	.LBE66:
 749              		.loc 1 140 0
 750 0032 03B0     		add	sp, sp, #12
 751              		@ sp needed
 752              	.LVL56:
 753 0034 F0BD     		pop	{r4, r5, r6, r7, pc}
 754              	.LVL57:
 755              	.L51:
 756              		.loc 1 134 0
 757 0036 0199     		ldr	r1, [sp, #4]
 758 0038 0020     		movs	r0, #0
 759 003a FFF7FEFF 		bl	action_for_key
 760              	.LVL58:
 761              		.loc 1 135 0
 762 003e F8E7     		b	.L42
 763              	.L53:
 764              		.align	2
 765              	.L52:
 766 0040 00000000 		.word	.LANCHOR1
 767 0044 00000000 		.word	.LANCHOR0
 768              		.cfi_endproc
 769              	.LFE19:
 770              		.size	layer_switch_get_action, .-layer_switch_get_action
 771              		.global	layer_state
 772              		.global	default_layer_state
 773              		.section	.bss.default_layer_state,"aw",%nobits
 774              		.align	2
 775              		.set	.LANCHOR0,. + 0
 776              		.type	default_layer_state, %object
 777              		.size	default_layer_state, 4
 778              	default_layer_state:
 779 0000 00000000 		.space	4
 780              		.section	.bss.layer_state,"aw",%nobits
 781              		.align	2
 782              		.set	.LANCHOR1,. + 0
 783              		.type	layer_state, %object
 784              		.size	layer_state, 4
 785              	layer_state:
 786 0000 00000000 		.space	4
 787              		.text
 788              	.Letext0:
 789              		.file 2 "/usr/local/Caskroom/gcc-arm-embedded/7-2017-q4-major/gcc-arm-none-eabi-7-2017-q4-major/ar
 790              		.file 3 "/usr/local/Caskroom/gcc-arm-embedded/7-2017-q4-major/gcc-arm-none-eabi-7-2017-q4-major/ar
 791              		.file 4 "../../tmk_core/common/keyboard.h"
 792              		.file 5 "../../tmk_core/common/action_code.h"
 793              		.file 6 "../../tmk_core/common/action_layer.h"
 794              		.file 7 "../../tmk_core/common/debug.h"
 795              		.file 8 "../../tmk_core/common/action.h"
 796              		.file 9 "../../tmk_core/common/hook.h"
 797              		.section	.debug_info,"",%progbits
 798              	.Ldebug_info0:
ARM GAS  /var/folders/t8/16hdwfmd2fg_d3q6dgx6bpmw0000gn/T//cckCHOhb.s 			page 15


 799 0000 C8080000 		.4byte	0x8c8
 800 0004 0400     		.2byte	0x4
 801 0006 00000000 		.4byte	.Ldebug_abbrev0
 802 000a 04       		.byte	0x4
 803 000b 01       		.uleb128 0x1
 804 000c F6030000 		.4byte	.LASF76
 805 0010 0C       		.byte	0xc
 806 0011 0E030000 		.4byte	.LASF77
 807 0015 3C000000 		.4byte	.LASF78
 808 0019 50000000 		.4byte	.Ldebug_ranges0+0x50
 809 001d 00000000 		.4byte	0
 810 0021 00000000 		.4byte	.Ldebug_line0
 811 0025 02       		.uleb128 0x2
 812 0026 39020000 		.4byte	.LASF0
 813 002a 02       		.byte	0x2
 814 002b 29       		.byte	0x29
 815 002c 30000000 		.4byte	0x30
 816 0030 03       		.uleb128 0x3
 817 0031 01       		.byte	0x1
 818 0032 06       		.byte	0x6
 819 0033 C5010000 		.4byte	.LASF2
 820 0037 02       		.uleb128 0x2
 821 0038 6C010000 		.4byte	.LASF1
 822 003c 02       		.byte	0x2
 823 003d 2B       		.byte	0x2b
 824 003e 42000000 		.4byte	0x42
 825 0042 03       		.uleb128 0x3
 826 0043 01       		.byte	0x1
 827 0044 08       		.byte	0x8
 828 0045 B7010000 		.4byte	.LASF3
 829 0049 03       		.uleb128 0x3
 830 004a 02       		.byte	0x2
 831 004b 05       		.byte	0x5
 832 004c 32000000 		.4byte	.LASF4
 833 0050 02       		.uleb128 0x2
 834 0051 D3000000 		.4byte	.LASF5
 835 0055 02       		.byte	0x2
 836 0056 39       		.byte	0x39
 837 0057 5B000000 		.4byte	0x5b
 838 005b 03       		.uleb128 0x3
 839 005c 02       		.byte	0x2
 840 005d 07       		.byte	0x7
 841 005e 1D020000 		.4byte	.LASF6
 842 0062 03       		.uleb128 0x3
 843 0063 04       		.byte	0x4
 844 0064 05       		.byte	0x5
 845 0065 63010000 		.4byte	.LASF7
 846 0069 02       		.uleb128 0x2
 847 006a B6000000 		.4byte	.LASF8
 848 006e 02       		.byte	0x2
 849 006f 4F       		.byte	0x4f
 850 0070 74000000 		.4byte	0x74
 851 0074 03       		.uleb128 0x3
 852 0075 04       		.byte	0x4
 853 0076 07       		.byte	0x7
 854 0077 C6020000 		.4byte	.LASF9
 855 007b 03       		.uleb128 0x3
ARM GAS  /var/folders/t8/16hdwfmd2fg_d3q6dgx6bpmw0000gn/T//cckCHOhb.s 			page 16


 856 007c 08       		.byte	0x8
 857 007d 05       		.byte	0x5
 858 007e 3F010000 		.4byte	.LASF10
 859 0082 03       		.uleb128 0x3
 860 0083 08       		.byte	0x8
 861 0084 07       		.byte	0x7
 862 0085 D1010000 		.4byte	.LASF11
 863 0089 04       		.uleb128 0x4
 864 008a 04       		.byte	0x4
 865 008b 05       		.byte	0x5
 866 008c 696E7400 		.ascii	"int\000"
 867 0090 03       		.uleb128 0x3
 868 0091 04       		.byte	0x4
 869 0092 07       		.byte	0x7
 870 0093 F1010000 		.4byte	.LASF12
 871 0097 02       		.uleb128 0x2
 872 0098 1B000000 		.4byte	.LASF13
 873 009c 03       		.byte	0x3
 874 009d 14       		.byte	0x14
 875 009e 25000000 		.4byte	0x25
 876 00a2 02       		.uleb128 0x2
 877 00a3 96010000 		.4byte	.LASF14
 878 00a7 03       		.byte	0x3
 879 00a8 18       		.byte	0x18
 880 00a9 37000000 		.4byte	0x37
 881 00ad 02       		.uleb128 0x2
 882 00ae FE010000 		.4byte	.LASF15
 883 00b2 03       		.byte	0x3
 884 00b3 24       		.byte	0x24
 885 00b4 50000000 		.4byte	0x50
 886 00b8 02       		.uleb128 0x2
 887 00b9 E8010000 		.4byte	.LASF16
 888 00bd 03       		.byte	0x3
 889 00be 30       		.byte	0x30
 890 00bf 69000000 		.4byte	0x69
 891 00c3 05       		.uleb128 0x5
 892 00c4 02       		.byte	0x2
 893 00c5 04       		.byte	0x4
 894 00c6 1E       		.byte	0x1e
 895 00c7 E4000000 		.4byte	0xe4
 896 00cb 06       		.uleb128 0x6
 897 00cc 636F6C00 		.ascii	"col\000"
 898 00d0 04       		.byte	0x4
 899 00d1 1F       		.byte	0x1f
 900 00d2 A2000000 		.4byte	0xa2
 901 00d6 00       		.byte	0
 902 00d7 06       		.uleb128 0x6
 903 00d8 726F7700 		.ascii	"row\000"
 904 00dc 04       		.byte	0x4
 905 00dd 20       		.byte	0x20
 906 00de A2000000 		.4byte	0xa2
 907 00e2 01       		.byte	0x1
 908 00e3 00       		.byte	0
 909 00e4 02       		.uleb128 0x2
 910 00e5 ED030000 		.4byte	.LASF17
 911 00e9 04       		.byte	0x4
 912 00ea 21       		.byte	0x21
ARM GAS  /var/folders/t8/16hdwfmd2fg_d3q6dgx6bpmw0000gn/T//cckCHOhb.s 			page 17


 913 00eb C3000000 		.4byte	0xc3
 914 00ef 03       		.uleb128 0x3
 915 00f0 01       		.byte	0x1
 916 00f1 02       		.byte	0x2
 917 00f2 83020000 		.4byte	.LASF18
 918 00f6 07       		.uleb128 0x7
 919 00f7 98030000 		.4byte	.LASF20
 920 00fb 02       		.byte	0x2
 921 00fc 05       		.byte	0x5
 922 00fd 8D       		.byte	0x8d
 923 00fe 20010000 		.4byte	0x120
 924 0102 08       		.uleb128 0x8
 925 0103 7D020000 		.4byte	.LASF19
 926 0107 05       		.byte	0x5
 927 0108 8E       		.byte	0x8e
 928 0109 AD000000 		.4byte	0xad
 929 010d 02       		.byte	0x2
 930 010e 0C       		.byte	0xc
 931 010f 04       		.byte	0x4
 932 0110 00       		.byte	0
 933 0111 09       		.uleb128 0x9
 934 0112 696400   		.ascii	"id\000"
 935 0115 05       		.byte	0x5
 936 0116 8F       		.byte	0x8f
 937 0117 A2000000 		.4byte	0xa2
 938 011b 01       		.byte	0x1
 939 011c 04       		.byte	0x4
 940 011d 00       		.byte	0
 941 011e 01       		.byte	0x1
 942 011f 00       		.byte	0
 943 0120 07       		.uleb128 0x7
 944 0121 0C020000 		.4byte	.LASF21
 945 0125 02       		.byte	0x2
 946 0126 05       		.byte	0x5
 947 0127 91       		.byte	0x91
 948 0128 5A010000 		.4byte	0x15a
 949 012c 08       		.uleb128 0x8
 950 012d 07020000 		.4byte	.LASF22
 951 0131 05       		.byte	0x5
 952 0132 92       		.byte	0x92
 953 0133 A2000000 		.4byte	0xa2
 954 0137 01       		.byte	0x1
 955 0138 08       		.byte	0x8
 956 0139 00       		.byte	0
 957 013a 00       		.byte	0
 958 013b 08       		.uleb128 0x8
 959 013c FA000000 		.4byte	.LASF23
 960 0140 05       		.byte	0x5
 961 0141 93       		.byte	0x93
 962 0142 A2000000 		.4byte	0xa2
 963 0146 01       		.byte	0x1
 964 0147 04       		.byte	0x4
 965 0148 04       		.byte	0x4
 966 0149 01       		.byte	0x1
 967 014a 08       		.uleb128 0x8
 968 014b 00000000 		.4byte	.LASF24
 969 014f 05       		.byte	0x5
ARM GAS  /var/folders/t8/16hdwfmd2fg_d3q6dgx6bpmw0000gn/T//cckCHOhb.s 			page 18


 970 0150 94       		.byte	0x94
 971 0151 A2000000 		.4byte	0xa2
 972 0155 01       		.byte	0x1
 973 0156 04       		.byte	0x4
 974 0157 00       		.byte	0
 975 0158 01       		.byte	0x1
 976 0159 00       		.byte	0
 977 015a 07       		.uleb128 0x7
 978 015b A4010000 		.4byte	.LASF25
 979 015f 02       		.byte	0x2
 980 0160 05       		.byte	0x5
 981 0161 96       		.byte	0x96
 982 0162 BF010000 		.4byte	0x1bf
 983 0166 08       		.uleb128 0x8
 984 0167 4D010000 		.4byte	.LASF26
 985 016b 05       		.byte	0x5
 986 016c 97       		.byte	0x97
 987 016d A2000000 		.4byte	0xa2
 988 0171 01       		.byte	0x1
 989 0172 04       		.byte	0x4
 990 0173 04       		.byte	0x4
 991 0174 00       		.byte	0
 992 0175 08       		.uleb128 0x8
 993 0176 91010000 		.4byte	.LASF27
 994 017a 05       		.byte	0x5
 995 017b 98       		.byte	0x98
 996 017c A2000000 		.4byte	0xa2
 997 0180 01       		.byte	0x1
 998 0181 01       		.byte	0x1
 999 0182 03       		.byte	0x3
 1000 0183 00       		.byte	0
 1001 0184 08       		.uleb128 0x8
 1002 0185 59010000 		.4byte	.LASF28
 1003 0189 05       		.byte	0x5
 1004 018a 99       		.byte	0x99
 1005 018b A2000000 		.4byte	0xa2
 1006 018f 01       		.byte	0x1
 1007 0190 03       		.byte	0x3
 1008 0191 00       		.byte	0
 1009 0192 00       		.byte	0
 1010 0193 09       		.uleb128 0x9
 1011 0194 6F6E00   		.ascii	"on\000"
 1012 0197 05       		.byte	0x5
 1013 0198 9A       		.byte	0x9a
 1014 0199 A2000000 		.4byte	0xa2
 1015 019d 01       		.byte	0x1
 1016 019e 02       		.byte	0x2
 1017 019f 06       		.byte	0x6
 1018 01a0 01       		.byte	0x1
 1019 01a1 09       		.uleb128 0x9
 1020 01a2 6F7000   		.ascii	"op\000"
 1021 01a5 05       		.byte	0x5
 1022 01a6 9B       		.byte	0x9b
 1023 01a7 A2000000 		.4byte	0xa2
 1024 01ab 01       		.byte	0x1
 1025 01ac 02       		.byte	0x2
 1026 01ad 04       		.byte	0x4
ARM GAS  /var/folders/t8/16hdwfmd2fg_d3q6dgx6bpmw0000gn/T//cckCHOhb.s 			page 19


 1027 01ae 01       		.byte	0x1
 1028 01af 08       		.uleb128 0x8
 1029 01b0 00000000 		.4byte	.LASF24
 1030 01b4 05       		.byte	0x5
 1031 01b5 9C       		.byte	0x9c
 1032 01b6 A2000000 		.4byte	0xa2
 1033 01ba 01       		.byte	0x1
 1034 01bb 04       		.byte	0x4
 1035 01bc 00       		.byte	0
 1036 01bd 01       		.byte	0x1
 1037 01be 00       		.byte	0
 1038 01bf 07       		.uleb128 0x7
 1039 01c0 96020000 		.4byte	.LASF29
 1040 01c4 02       		.byte	0x2
 1041 01c5 05       		.byte	0x5
 1042 01c6 9E       		.byte	0x9e
 1043 01c7 F9010000 		.4byte	0x1f9
 1044 01cb 08       		.uleb128 0x8
 1045 01cc 07020000 		.4byte	.LASF22
 1046 01d0 05       		.byte	0x5
 1047 01d1 9F       		.byte	0x9f
 1048 01d2 A2000000 		.4byte	0xa2
 1049 01d6 01       		.byte	0x1
 1050 01d7 08       		.byte	0x8
 1051 01d8 00       		.byte	0
 1052 01d9 00       		.byte	0
 1053 01da 09       		.uleb128 0x9
 1054 01db 76616C00 		.ascii	"val\000"
 1055 01df 05       		.byte	0x5
 1056 01e0 A0       		.byte	0xa0
 1057 01e1 A2000000 		.4byte	0xa2
 1058 01e5 01       		.byte	0x1
 1059 01e6 05       		.byte	0x5
 1060 01e7 03       		.byte	0x3
 1061 01e8 01       		.byte	0x1
 1062 01e9 08       		.uleb128 0x8
 1063 01ea 00000000 		.4byte	.LASF24
 1064 01ee 05       		.byte	0x5
 1065 01ef A1       		.byte	0xa1
 1066 01f0 A2000000 		.4byte	0xa2
 1067 01f4 01       		.byte	0x1
 1068 01f5 03       		.byte	0x3
 1069 01f6 00       		.byte	0
 1070 01f7 01       		.byte	0x1
 1071 01f8 00       		.byte	0
 1072 01f9 07       		.uleb128 0x7
 1073 01fa A7020000 		.4byte	.LASF30
 1074 01fe 02       		.byte	0x2
 1075 01ff 05       		.byte	0x5
 1076 0200 A3       		.byte	0xa3
 1077 0201 33020000 		.4byte	0x233
 1078 0205 08       		.uleb128 0x8
 1079 0206 07020000 		.4byte	.LASF22
 1080 020a 05       		.byte	0x5
 1081 020b A4       		.byte	0xa4
 1082 020c AD000000 		.4byte	0xad
 1083 0210 02       		.byte	0x2
ARM GAS  /var/folders/t8/16hdwfmd2fg_d3q6dgx6bpmw0000gn/T//cckCHOhb.s 			page 20


 1084 0211 0A       		.byte	0xa
 1085 0212 06       		.byte	0x6
 1086 0213 00       		.byte	0
 1087 0214 08       		.uleb128 0x8
 1088 0215 5E010000 		.4byte	.LASF31
 1089 0219 05       		.byte	0x5
 1090 021a A5       		.byte	0xa5
 1091 021b A2000000 		.4byte	0xa2
 1092 021f 01       		.byte	0x1
 1093 0220 02       		.byte	0x2
 1094 0221 04       		.byte	0x4
 1095 0222 01       		.byte	0x1
 1096 0223 08       		.uleb128 0x8
 1097 0224 00000000 		.4byte	.LASF24
 1098 0228 05       		.byte	0x5
 1099 0229 A6       		.byte	0xa6
 1100 022a A2000000 		.4byte	0xa2
 1101 022e 01       		.byte	0x1
 1102 022f 04       		.byte	0x4
 1103 0230 00       		.byte	0
 1104 0231 01       		.byte	0x1
 1105 0232 00       		.byte	0
 1106 0233 07       		.uleb128 0x7
 1107 0234 06010000 		.4byte	.LASF32
 1108 0238 02       		.byte	0x2
 1109 0239 05       		.byte	0x5
 1110 023a A8       		.byte	0xa8
 1111 023b 6D020000 		.4byte	0x26d
 1112 023f 08       		.uleb128 0x8
 1113 0240 D8020000 		.4byte	.LASF33
 1114 0244 05       		.byte	0x5
 1115 0245 A9       		.byte	0xa9
 1116 0246 A2000000 		.4byte	0xa2
 1117 024a 01       		.byte	0x1
 1118 024b 08       		.byte	0x8
 1119 024c 00       		.byte	0
 1120 024d 00       		.byte	0
 1121 024e 09       		.uleb128 0x9
 1122 024f 6F707400 		.ascii	"opt\000"
 1123 0253 05       		.byte	0x5
 1124 0254 AA       		.byte	0xaa
 1125 0255 A2000000 		.4byte	0xa2
 1126 0259 01       		.byte	0x1
 1127 025a 04       		.byte	0x4
 1128 025b 04       		.byte	0x4
 1129 025c 01       		.byte	0x1
 1130 025d 08       		.uleb128 0x8
 1131 025e 00000000 		.4byte	.LASF24
 1132 0262 05       		.byte	0x5
 1133 0263 AB       		.byte	0xab
 1134 0264 A2000000 		.4byte	0xa2
 1135 0268 01       		.byte	0x1
 1136 0269 04       		.byte	0x4
 1137 026a 00       		.byte	0
 1138 026b 01       		.byte	0x1
 1139 026c 00       		.byte	0
 1140 026d 07       		.uleb128 0x7
ARM GAS  /var/folders/t8/16hdwfmd2fg_d3q6dgx6bpmw0000gn/T//cckCHOhb.s 			page 21


 1141 026e 4E030000 		.4byte	.LASF34
 1142 0272 02       		.byte	0x2
 1143 0273 05       		.byte	0x5
 1144 0274 AD       		.byte	0xad
 1145 0275 A6020000 		.4byte	0x2a6
 1146 0279 09       		.uleb128 0x9
 1147 027a 696400   		.ascii	"id\000"
 1148 027d 05       		.byte	0x5
 1149 027e AE       		.byte	0xae
 1150 027f A2000000 		.4byte	0xa2
 1151 0283 01       		.byte	0x1
 1152 0284 08       		.byte	0x8
 1153 0285 00       		.byte	0
 1154 0286 00       		.byte	0
 1155 0287 09       		.uleb128 0x9
 1156 0288 6F707400 		.ascii	"opt\000"
 1157 028c 05       		.byte	0x5
 1158 028d AF       		.byte	0xaf
 1159 028e A2000000 		.4byte	0xa2
 1160 0292 01       		.byte	0x1
 1161 0293 04       		.byte	0x4
 1162 0294 04       		.byte	0x4
 1163 0295 01       		.byte	0x1
 1164 0296 08       		.uleb128 0x8
 1165 0297 00000000 		.4byte	.LASF24
 1166 029b 05       		.byte	0x5
 1167 029c B0       		.byte	0xb0
 1168 029d A2000000 		.4byte	0xa2
 1169 02a1 01       		.byte	0x1
 1170 02a2 04       		.byte	0x4
 1171 02a3 00       		.byte	0
 1172 02a4 01       		.byte	0x1
 1173 02a5 00       		.byte	0
 1174 02a6 07       		.uleb128 0x7
 1175 02a7 DD030000 		.4byte	.LASF35
 1176 02ab 02       		.byte	0x2
 1177 02ac 05       		.byte	0x5
 1178 02ad B2       		.byte	0xb2
 1179 02ae DF020000 		.4byte	0x2df
 1180 02b2 09       		.uleb128 0x9
 1181 02b3 696400   		.ascii	"id\000"
 1182 02b6 05       		.byte	0x5
 1183 02b7 B3       		.byte	0xb3
 1184 02b8 A2000000 		.4byte	0xa2
 1185 02bc 01       		.byte	0x1
 1186 02bd 08       		.byte	0x8
 1187 02be 00       		.byte	0
 1188 02bf 00       		.byte	0
 1189 02c0 09       		.uleb128 0x9
 1190 02c1 6F707400 		.ascii	"opt\000"
 1191 02c5 05       		.byte	0x5
 1192 02c6 B4       		.byte	0xb4
 1193 02c7 A2000000 		.4byte	0xa2
 1194 02cb 01       		.byte	0x1
 1195 02cc 04       		.byte	0x4
 1196 02cd 04       		.byte	0x4
 1197 02ce 01       		.byte	0x1
ARM GAS  /var/folders/t8/16hdwfmd2fg_d3q6dgx6bpmw0000gn/T//cckCHOhb.s 			page 22


 1198 02cf 08       		.uleb128 0x8
 1199 02d0 00000000 		.4byte	.LASF24
 1200 02d4 05       		.byte	0x5
 1201 02d5 B5       		.byte	0xb5
 1202 02d6 A2000000 		.4byte	0xa2
 1203 02da 01       		.byte	0x1
 1204 02db 04       		.byte	0x4
 1205 02dc 00       		.byte	0
 1206 02dd 01       		.byte	0x1
 1207 02de 00       		.byte	0
 1208 02df 0A       		.uleb128 0xa
 1209 02e0 02       		.byte	0x2
 1210 02e1 05       		.byte	0x5
 1211 02e2 8B       		.byte	0x8b
 1212 02e3 4B030000 		.4byte	0x34b
 1213 02e7 0B       		.uleb128 0xb
 1214 02e8 07020000 		.4byte	.LASF22
 1215 02ec 05       		.byte	0x5
 1216 02ed 8C       		.byte	0x8c
 1217 02ee AD000000 		.4byte	0xad
 1218 02f2 0B       		.uleb128 0xb
 1219 02f3 00000000 		.4byte	.LASF24
 1220 02f7 05       		.byte	0x5
 1221 02f8 90       		.byte	0x90
 1222 02f9 F6000000 		.4byte	0xf6
 1223 02fd 0C       		.uleb128 0xc
 1224 02fe 6B657900 		.ascii	"key\000"
 1225 0302 05       		.byte	0x5
 1226 0303 95       		.byte	0x95
 1227 0304 20010000 		.4byte	0x120
 1228 0308 0B       		.uleb128 0xb
 1229 0309 71020000 		.4byte	.LASF36
 1230 030d 05       		.byte	0x5
 1231 030e 9D       		.byte	0x9d
 1232 030f 5A010000 		.4byte	0x15a
 1233 0313 0B       		.uleb128 0xb
 1234 0314 04030000 		.4byte	.LASF37
 1235 0318 05       		.byte	0x5
 1236 0319 A2       		.byte	0xa2
 1237 031a BF010000 		.4byte	0x1bf
 1238 031e 0B       		.uleb128 0xb
 1239 031f 05000000 		.4byte	.LASF38
 1240 0323 05       		.byte	0x5
 1241 0324 A7       		.byte	0xa7
 1242 0325 F9010000 		.4byte	0x1f9
 1243 0329 0B       		.uleb128 0xb
 1244 032a 5D030000 		.4byte	.LASF39
 1245 032e 05       		.byte	0x5
 1246 032f AC       		.byte	0xac
 1247 0330 33020000 		.4byte	0x233
 1248 0334 0B       		.uleb128 0xb
 1249 0335 7F030000 		.4byte	.LASF40
 1250 0339 05       		.byte	0x5
 1251 033a B1       		.byte	0xb1
 1252 033b 6D020000 		.4byte	0x26d
 1253 033f 0B       		.uleb128 0xb
 1254 0340 3A010000 		.4byte	.LASF41
ARM GAS  /var/folders/t8/16hdwfmd2fg_d3q6dgx6bpmw0000gn/T//cckCHOhb.s 			page 23


 1255 0344 05       		.byte	0x5
 1256 0345 B6       		.byte	0xb6
 1257 0346 A6020000 		.4byte	0x2a6
 1258 034a 00       		.byte	0
 1259 034b 02       		.uleb128 0x2
 1260 034c 30020000 		.4byte	.LASF42
 1261 0350 05       		.byte	0x5
 1262 0351 B7       		.byte	0xb7
 1263 0352 DF020000 		.4byte	0x2df
 1264 0356 0D       		.uleb128 0xd
 1265 0357 42020000 		.4byte	.LASF43
 1266 035b 06       		.byte	0x6
 1267 035c 1C       		.byte	0x1c
 1268 035d B8000000 		.4byte	0xb8
 1269 0361 0D       		.uleb128 0xd
 1270 0362 AD030000 		.4byte	.LASF44
 1271 0366 06       		.byte	0x6
 1272 0367 30       		.byte	0x30
 1273 0368 B8000000 		.4byte	0xb8
 1274 036c 05       		.uleb128 0x5
 1275 036d 01       		.byte	0x1
 1276 036e 07       		.byte	0x7
 1277 036f 21       		.byte	0x21
 1278 0370 C0030000 		.4byte	0x3c0
 1279 0374 08       		.uleb128 0x8
 1280 0375 FF000000 		.4byte	.LASF45
 1281 0379 07       		.byte	0x7
 1282 037a 22       		.byte	0x22
 1283 037b EF000000 		.4byte	0xef
 1284 037f 01       		.byte	0x1
 1285 0380 01       		.byte	0x1
 1286 0381 07       		.byte	0x7
 1287 0382 00       		.byte	0
 1288 0383 08       		.uleb128 0x8
 1289 0384 91030000 		.4byte	.LASF46
 1290 0388 07       		.byte	0x7
 1291 0389 23       		.byte	0x23
 1292 038a EF000000 		.4byte	0xef
 1293 038e 01       		.byte	0x1
 1294 038f 01       		.byte	0x1
 1295 0390 06       		.byte	0x6
 1296 0391 00       		.byte	0
 1297 0392 08       		.uleb128 0x8
 1298 0393 33030000 		.4byte	.LASF47
 1299 0397 07       		.byte	0x7
 1300 0398 24       		.byte	0x24
 1301 0399 EF000000 		.4byte	0xef
 1302 039d 01       		.byte	0x1
 1303 039e 01       		.byte	0x1
 1304 039f 05       		.byte	0x5
 1305 03a0 00       		.byte	0
 1306 03a1 08       		.uleb128 0x8
 1307 03a2 17020000 		.4byte	.LASF48
 1308 03a6 07       		.byte	0x7
 1309 03a7 25       		.byte	0x25
 1310 03a8 EF000000 		.4byte	0xef
 1311 03ac 01       		.byte	0x1
ARM GAS  /var/folders/t8/16hdwfmd2fg_d3q6dgx6bpmw0000gn/T//cckCHOhb.s 			page 24


 1312 03ad 01       		.byte	0x1
 1313 03ae 04       		.byte	0x4
 1314 03af 00       		.byte	0
 1315 03b0 08       		.uleb128 0x8
 1316 03b1 A4030000 		.4byte	.LASF49
 1317 03b5 07       		.byte	0x7
 1318 03b6 26       		.byte	0x26
 1319 03b7 A2000000 		.4byte	0xa2
 1320 03bb 01       		.byte	0x1
 1321 03bc 04       		.byte	0x4
 1322 03bd 00       		.byte	0
 1323 03be 00       		.byte	0
 1324 03bf 00       		.byte	0
 1325 03c0 0A       		.uleb128 0xa
 1326 03c1 01       		.byte	0x1
 1327 03c2 07       		.byte	0x7
 1328 03c3 20       		.byte	0x20
 1329 03c4 D9030000 		.4byte	0x3d9
 1330 03c8 0E       		.uleb128 0xe
 1331 03c9 6C030000 		.4byte	0x36c
 1332 03cd 0C       		.uleb128 0xc
 1333 03ce 72617700 		.ascii	"raw\000"
 1334 03d2 07       		.byte	0x7
 1335 03d3 28       		.byte	0x28
 1336 03d4 A2000000 		.4byte	0xa2
 1337 03d8 00       		.byte	0
 1338 03d9 02       		.uleb128 0x2
 1339 03da DE000000 		.4byte	.LASF50
 1340 03de 07       		.byte	0x7
 1341 03df 29       		.byte	0x29
 1342 03e0 C0030000 		.4byte	0x3c0
 1343 03e4 0D       		.uleb128 0xd
 1344 03e5 89020000 		.4byte	.LASF51
 1345 03e9 07       		.byte	0x7
 1346 03ea 2B       		.byte	0x2b
 1347 03eb D9030000 		.4byte	0x3d9
 1348 03ef 0F       		.uleb128 0xf
 1349 03f0 56030000 		.4byte	0x356
 1350 03f4 01       		.byte	0x1
 1351 03f5 12       		.byte	0x12
 1352 03f6 05       		.uleb128 0x5
 1353 03f7 03       		.byte	0x3
 1354 03f8 00000000 		.4byte	default_layer_state
 1355 03fc 0F       		.uleb128 0xf
 1356 03fd 61030000 		.4byte	0x361
 1357 0401 01       		.byte	0x1
 1358 0402 3C       		.byte	0x3c
 1359 0403 05       		.uleb128 0x5
 1360 0404 03       		.byte	0x3
 1361 0405 00000000 		.4byte	layer_state
 1362 0409 10       		.uleb128 0x10
 1363 040a 67030000 		.4byte	.LASF79
 1364 040e 01       		.byte	0x1
 1365 040f 76       		.byte	0x76
 1366 0410 4B030000 		.4byte	0x34b
 1367 0414 00000000 		.4byte	.LFB19
 1368 0418 48000000 		.4byte	.LFE19-.LFB19
ARM GAS  /var/folders/t8/16hdwfmd2fg_d3q6dgx6bpmw0000gn/T//cckCHOhb.s 			page 25


 1369 041c 01       		.uleb128 0x1
 1370 041d 9C       		.byte	0x9c
 1371 041e 89040000 		.4byte	0x489
 1372 0422 11       		.uleb128 0x11
 1373 0423 6B657900 		.ascii	"key\000"
 1374 0427 01       		.byte	0x1
 1375 0428 76       		.byte	0x76
 1376 0429 E4000000 		.4byte	0xe4
 1377 042d 02       		.uleb128 0x2
 1378 042e 91       		.byte	0x91
 1379 042f 64       		.sleb128 -28
 1380 0430 12       		.uleb128 0x12
 1381 0431 52010000 		.4byte	.LASF52
 1382 0435 01       		.byte	0x1
 1383 0436 78       		.byte	0x78
 1384 0437 4B030000 		.4byte	0x34b
 1385 043b 00000000 		.4byte	.LLST23
 1386 043f 12       		.uleb128 0x12
 1387 0440 6A020000 		.4byte	.LASF53
 1388 0444 01       		.byte	0x1
 1389 0445 7B       		.byte	0x7b
 1390 0446 B8000000 		.4byte	0xb8
 1391 044a 2E000000 		.4byte	.LLST24
 1392 044e 13       		.uleb128 0x13
 1393 044f 14000000 		.4byte	.LBB66
 1394 0453 1E000000 		.4byte	.LBE66-.LBB66
 1395 0457 79040000 		.4byte	0x479
 1396 045b 14       		.uleb128 0x14
 1397 045c 6900     		.ascii	"i\000"
 1398 045e 01       		.byte	0x1
 1399 045f 7D       		.byte	0x7d
 1400 0460 97000000 		.4byte	0x97
 1401 0464 4C000000 		.4byte	.LLST25
 1402 0468 15       		.uleb128 0x15
 1403 0469 2C000000 		.4byte	.LVL53
 1404 046d 9F080000 		.4byte	0x89f
 1405 0471 16       		.uleb128 0x16
 1406 0472 01       		.uleb128 0x1
 1407 0473 50       		.byte	0x50
 1408 0474 02       		.uleb128 0x2
 1409 0475 74       		.byte	0x74
 1410 0476 00       		.sleb128 0
 1411 0477 00       		.byte	0
 1412 0478 00       		.byte	0
 1413 0479 15       		.uleb128 0x15
 1414 047a 3E000000 		.4byte	.LVL58
 1415 047e 9F080000 		.4byte	0x89f
 1416 0482 16       		.uleb128 0x16
 1417 0483 01       		.uleb128 0x1
 1418 0484 50       		.byte	0x50
 1419 0485 01       		.uleb128 0x1
 1420 0486 30       		.byte	0x30
 1421 0487 00       		.byte	0
 1422 0488 00       		.byte	0
 1423 0489 17       		.uleb128 0x17
 1424 048a D1030000 		.4byte	.LASF68
 1425 048e 01       		.byte	0x1
ARM GAS  /var/folders/t8/16hdwfmd2fg_d3q6dgx6bpmw0000gn/T//cckCHOhb.s 			page 26


 1426 048f 6E       		.byte	0x6e
 1427 0490 01       		.byte	0x1
 1428 0491 18       		.uleb128 0x18
 1429 0492 28000000 		.4byte	.LASF55
 1430 0496 01       		.byte	0x1
 1431 0497 69       		.byte	0x69
 1432 0498 00000000 		.4byte	.LFB17
 1433 049c 18000000 		.4byte	.LFE17-.LFB17
 1434 04a0 01       		.uleb128 0x1
 1435 04a1 9C       		.byte	0x9c
 1436 04a2 E1040000 		.4byte	0x4e1
 1437 04a6 19       		.uleb128 0x19
 1438 04a7 22000000 		.4byte	.LASF54
 1439 04ab 01       		.byte	0x1
 1440 04ac 69       		.byte	0x69
 1441 04ad B8000000 		.4byte	0xb8
 1442 04b1 78000000 		.4byte	.LLST21
 1443 04b5 1A       		.uleb128 0x1a
 1444 04b6 0C070000 		.4byte	0x70c
 1445 04ba 08000000 		.4byte	.LBB64
 1446 04be 0A000000 		.4byte	.LBE64-.LBB64
 1447 04c2 01       		.byte	0x1
 1448 04c3 6B       		.byte	0x6b
 1449 04c4 1B       		.uleb128 0x1b
 1450 04c5 18070000 		.4byte	0x718
 1451 04c9 99000000 		.4byte	.LLST22
 1452 04cd 1C       		.uleb128 0x1c
 1453 04ce 0E000000 		.4byte	.LVL47
 1454 04d2 AA080000 		.4byte	0x8aa
 1455 04d6 1C       		.uleb128 0x1c
 1456 04d7 12000000 		.4byte	.LVL48
 1457 04db B5080000 		.4byte	0x8b5
 1458 04df 00       		.byte	0
 1459 04e0 00       		.byte	0
 1460 04e1 18       		.uleb128 0x18
 1461 04e2 87030000 		.4byte	.LASF56
 1462 04e6 01       		.byte	0x1
 1463 04e7 65       		.byte	0x65
 1464 04e8 00000000 		.4byte	.LFB16
 1465 04ec 18000000 		.4byte	.LFE16-.LFB16
 1466 04f0 01       		.uleb128 0x1
 1467 04f1 9C       		.byte	0x9c
 1468 04f2 31050000 		.4byte	0x531
 1469 04f6 19       		.uleb128 0x19
 1470 04f7 22000000 		.4byte	.LASF54
 1471 04fb 01       		.byte	0x1
 1472 04fc 65       		.byte	0x65
 1473 04fd B8000000 		.4byte	0xb8
 1474 0501 AC000000 		.4byte	.LLST19
 1475 0505 1A       		.uleb128 0x1a
 1476 0506 0C070000 		.4byte	0x70c
 1477 050a 08000000 		.4byte	.LBB62
 1478 050e 0A000000 		.4byte	.LBE62-.LBB62
 1479 0512 01       		.byte	0x1
 1480 0513 67       		.byte	0x67
 1481 0514 1B       		.uleb128 0x1b
 1482 0515 18070000 		.4byte	0x718
ARM GAS  /var/folders/t8/16hdwfmd2fg_d3q6dgx6bpmw0000gn/T//cckCHOhb.s 			page 27


 1483 0519 CD000000 		.4byte	.LLST20
 1484 051d 1C       		.uleb128 0x1c
 1485 051e 0E000000 		.4byte	.LVL43
 1486 0522 AA080000 		.4byte	0x8aa
 1487 0526 1C       		.uleb128 0x1c
 1488 0527 12000000 		.4byte	.LVL44
 1489 052b B5080000 		.4byte	0x8b5
 1490 052f 00       		.byte	0
 1491 0530 00       		.byte	0
 1492 0531 18       		.uleb128 0x18
 1493 0532 9B000000 		.4byte	.LASF57
 1494 0536 01       		.byte	0x1
 1495 0537 61       		.byte	0x61
 1496 0538 00000000 		.4byte	.LFB15
 1497 053c 18000000 		.4byte	.LFE15-.LFB15
 1498 0540 01       		.uleb128 0x1
 1499 0541 9C       		.byte	0x9c
 1500 0542 81050000 		.4byte	0x581
 1501 0546 19       		.uleb128 0x19
 1502 0547 22000000 		.4byte	.LASF54
 1503 054b 01       		.byte	0x1
 1504 054c 61       		.byte	0x61
 1505 054d B8000000 		.4byte	0xb8
 1506 0551 E0000000 		.4byte	.LLST17
 1507 0555 1A       		.uleb128 0x1a
 1508 0556 0C070000 		.4byte	0x70c
 1509 055a 08000000 		.4byte	.LBB60
 1510 055e 0A000000 		.4byte	.LBE60-.LBB60
 1511 0562 01       		.byte	0x1
 1512 0563 63       		.byte	0x63
 1513 0564 1B       		.uleb128 0x1b
 1514 0565 18070000 		.4byte	0x718
 1515 0569 01010000 		.4byte	.LLST18
 1516 056d 1C       		.uleb128 0x1c
 1517 056e 0E000000 		.4byte	.LVL39
 1518 0572 AA080000 		.4byte	0x8aa
 1519 0576 1C       		.uleb128 0x1c
 1520 0577 12000000 		.4byte	.LVL40
 1521 057b B5080000 		.4byte	0x8b5
 1522 057f 00       		.byte	0
 1523 0580 00       		.byte	0
 1524 0581 18       		.uleb128 0x18
 1525 0582 ED000000 		.4byte	.LASF58
 1526 0586 01       		.byte	0x1
 1527 0587 5C       		.byte	0x5c
 1528 0588 00000000 		.4byte	.LFB14
 1529 058c 20000000 		.4byte	.LFE14-.LFB14
 1530 0590 01       		.uleb128 0x1
 1531 0591 9C       		.byte	0x9c
 1532 0592 D1050000 		.4byte	0x5d1
 1533 0596 19       		.uleb128 0x19
 1534 0597 9E010000 		.4byte	.LASF59
 1535 059b 01       		.byte	0x1
 1536 059c 5C       		.byte	0x5c
 1537 059d A2000000 		.4byte	0xa2
 1538 05a1 14010000 		.4byte	.LLST15
 1539 05a5 1A       		.uleb128 0x1a
ARM GAS  /var/folders/t8/16hdwfmd2fg_d3q6dgx6bpmw0000gn/T//cckCHOhb.s 			page 28


 1540 05a6 0C070000 		.4byte	0x70c
 1541 05aa 0E000000 		.4byte	.LBB58
 1542 05ae 0A000000 		.4byte	.LBE58-.LBB58
 1543 05b2 01       		.byte	0x1
 1544 05b3 5E       		.byte	0x5e
 1545 05b4 1B       		.uleb128 0x1b
 1546 05b5 18070000 		.4byte	0x718
 1547 05b9 35010000 		.4byte	.LLST16
 1548 05bd 1C       		.uleb128 0x1c
 1549 05be 14000000 		.4byte	.LVL35
 1550 05c2 AA080000 		.4byte	0x8aa
 1551 05c6 1C       		.uleb128 0x1c
 1552 05c7 18000000 		.4byte	.LVL36
 1553 05cb B5080000 		.4byte	0x8b5
 1554 05cf 00       		.byte	0
 1555 05d0 00       		.byte	0
 1556 05d1 18       		.uleb128 0x18
 1557 05d2 76010000 		.4byte	.LASF60
 1558 05d6 01       		.byte	0x1
 1559 05d7 57       		.byte	0x57
 1560 05d8 00000000 		.4byte	.LFB13
 1561 05dc 1C000000 		.4byte	.LFE13-.LFB13
 1562 05e0 01       		.uleb128 0x1
 1563 05e1 9C       		.byte	0x9c
 1564 05e2 21060000 		.4byte	0x621
 1565 05e6 19       		.uleb128 0x19
 1566 05e7 9E010000 		.4byte	.LASF59
 1567 05eb 01       		.byte	0x1
 1568 05ec 57       		.byte	0x57
 1569 05ed A2000000 		.4byte	0xa2
 1570 05f1 48010000 		.4byte	.LLST13
 1571 05f5 1A       		.uleb128 0x1a
 1572 05f6 0C070000 		.4byte	0x70c
 1573 05fa 0C000000 		.4byte	.LBB56
 1574 05fe 0A000000 		.4byte	.LBE56-.LBB56
 1575 0602 01       		.byte	0x1
 1576 0603 59       		.byte	0x59
 1577 0604 1B       		.uleb128 0x1b
 1578 0605 18070000 		.4byte	0x718
 1579 0609 69010000 		.4byte	.LLST14
 1580 060d 1C       		.uleb128 0x1c
 1581 060e 12000000 		.4byte	.LVL30
 1582 0612 AA080000 		.4byte	0x8aa
 1583 0616 1C       		.uleb128 0x1c
 1584 0617 16000000 		.4byte	.LVL31
 1585 061b B5080000 		.4byte	0x8b5
 1586 061f 00       		.byte	0
 1587 0620 00       		.byte	0
 1588 0621 18       		.uleb128 0x18
 1589 0622 92000000 		.4byte	.LASF61
 1590 0626 01       		.byte	0x1
 1591 0627 52       		.byte	0x52
 1592 0628 00000000 		.4byte	.LFB12
 1593 062c 20000000 		.4byte	.LFE12-.LFB12
 1594 0630 01       		.uleb128 0x1
 1595 0631 9C       		.byte	0x9c
 1596 0632 71060000 		.4byte	0x671
ARM GAS  /var/folders/t8/16hdwfmd2fg_d3q6dgx6bpmw0000gn/T//cckCHOhb.s 			page 29


 1597 0636 19       		.uleb128 0x19
 1598 0637 9E010000 		.4byte	.LASF59
 1599 063b 01       		.byte	0x1
 1600 063c 52       		.byte	0x52
 1601 063d A2000000 		.4byte	0xa2
 1602 0641 7C010000 		.4byte	.LLST11
 1603 0645 1A       		.uleb128 0x1a
 1604 0646 0C070000 		.4byte	0x70c
 1605 064a 0E000000 		.4byte	.LBB54
 1606 064e 0A000000 		.4byte	.LBE54-.LBB54
 1607 0652 01       		.byte	0x1
 1608 0653 54       		.byte	0x54
 1609 0654 1B       		.uleb128 0x1b
 1610 0655 18070000 		.4byte	0x718
 1611 0659 9D010000 		.4byte	.LLST12
 1612 065d 1C       		.uleb128 0x1c
 1613 065e 14000000 		.4byte	.LVL25
 1614 0662 AA080000 		.4byte	0x8aa
 1615 0666 1C       		.uleb128 0x1c
 1616 0667 18000000 		.4byte	.LVL26
 1617 066b B5080000 		.4byte	0x8b5
 1618 066f 00       		.byte	0
 1619 0670 00       		.byte	0
 1620 0671 18       		.uleb128 0x18
 1621 0672 2F010000 		.4byte	.LASF62
 1622 0676 01       		.byte	0x1
 1623 0677 4D       		.byte	0x4d
 1624 0678 00000000 		.4byte	.LFB11
 1625 067c 1C000000 		.4byte	.LFE11-.LFB11
 1626 0680 01       		.uleb128 0x1
 1627 0681 9C       		.byte	0x9c
 1628 0682 C1060000 		.4byte	0x6c1
 1629 0686 19       		.uleb128 0x19
 1630 0687 9E010000 		.4byte	.LASF59
 1631 068b 01       		.byte	0x1
 1632 068c 4D       		.byte	0x4d
 1633 068d A2000000 		.4byte	0xa2
 1634 0691 B0010000 		.4byte	.LLST9
 1635 0695 1D       		.uleb128 0x1d
 1636 0696 0C070000 		.4byte	0x70c
 1637 069a 08000000 		.4byte	.LBB50
 1638 069e 38000000 		.4byte	.Ldebug_ranges0+0x38
 1639 06a2 01       		.byte	0x1
 1640 06a3 4F       		.byte	0x4f
 1641 06a4 1B       		.uleb128 0x1b
 1642 06a5 18070000 		.4byte	0x718
 1643 06a9 D1010000 		.4byte	.LLST10
 1644 06ad 1C       		.uleb128 0x1c
 1645 06ae 10000000 		.4byte	.LVL20
 1646 06b2 AA080000 		.4byte	0x8aa
 1647 06b6 1C       		.uleb128 0x1c
 1648 06b7 14000000 		.4byte	.LVL21
 1649 06bb B5080000 		.4byte	0x8b5
 1650 06bf 00       		.byte	0
 1651 06c0 00       		.byte	0
 1652 06c1 18       		.uleb128 0x18
 1653 06c2 F8020000 		.4byte	.LASF63
ARM GAS  /var/folders/t8/16hdwfmd2fg_d3q6dgx6bpmw0000gn/T//cckCHOhb.s 			page 30


 1654 06c6 01       		.byte	0x1
 1655 06c7 48       		.byte	0x48
 1656 06c8 00000000 		.4byte	.LFB10
 1657 06cc 18000000 		.4byte	.LFE10-.LFB10
 1658 06d0 01       		.uleb128 0x1
 1659 06d1 9C       		.byte	0x9c
 1660 06d2 0C070000 		.4byte	0x70c
 1661 06d6 1D       		.uleb128 0x1d
 1662 06d7 0C070000 		.4byte	0x70c
 1663 06db 00000000 		.4byte	.LBB44
 1664 06df 18000000 		.4byte	.Ldebug_ranges0+0x18
 1665 06e3 01       		.byte	0x1
 1666 06e4 4A       		.byte	0x4a
 1667 06e5 1B       		.uleb128 0x1b
 1668 06e6 18070000 		.4byte	0x718
 1669 06ea E4010000 		.4byte	.LLST8
 1670 06ee 1E       		.uleb128 0x1e
 1671 06ef 0E000000 		.4byte	.LVL16
 1672 06f3 AA080000 		.4byte	0x8aa
 1673 06f7 01070000 		.4byte	0x701
 1674 06fb 16       		.uleb128 0x16
 1675 06fc 01       		.uleb128 0x1
 1676 06fd 50       		.byte	0x50
 1677 06fe 01       		.uleb128 0x1
 1678 06ff 30       		.byte	0x30
 1679 0700 00       		.byte	0
 1680 0701 1C       		.uleb128 0x1c
 1681 0702 12000000 		.4byte	.LVL17
 1682 0706 B5080000 		.4byte	0x8b5
 1683 070a 00       		.byte	0
 1684 070b 00       		.byte	0
 1685 070c 1F       		.uleb128 0x1f
 1686 070d 0B000000 		.4byte	.LASF70
 1687 0711 01       		.byte	0x1
 1688 0712 3E       		.byte	0x3e
 1689 0713 01       		.byte	0x1
 1690 0714 24070000 		.4byte	0x724
 1691 0718 20       		.uleb128 0x20
 1692 0719 22000000 		.4byte	.LASF54
 1693 071d 01       		.byte	0x1
 1694 071e 3E       		.byte	0x3e
 1695 071f B8000000 		.4byte	0xb8
 1696 0723 00       		.byte	0
 1697 0724 18       		.uleb128 0x18
 1698 0725 3C030000 		.4byte	.LASF64
 1699 0729 01       		.byte	0x1
 1700 072a 31       		.byte	0x31
 1701 072b 00000000 		.4byte	.LFB8
 1702 072f 18000000 		.4byte	.LFE8-.LFB8
 1703 0733 01       		.uleb128 0x1
 1704 0734 9C       		.byte	0x9c
 1705 0735 74070000 		.4byte	0x774
 1706 0739 19       		.uleb128 0x19
 1707 073a 22000000 		.4byte	.LASF54
 1708 073e 01       		.byte	0x1
 1709 073f 31       		.byte	0x31
 1710 0740 B8000000 		.4byte	0xb8
ARM GAS  /var/folders/t8/16hdwfmd2fg_d3q6dgx6bpmw0000gn/T//cckCHOhb.s 			page 31


 1711 0744 F8010000 		.4byte	.LLST6
 1712 0748 1A       		.uleb128 0x1a
 1713 0749 78080000 		.4byte	0x878
 1714 074d 08000000 		.4byte	.LBB42
 1715 0751 0A000000 		.4byte	.LBE42-.LBB42
 1716 0755 01       		.byte	0x1
 1717 0756 33       		.byte	0x33
 1718 0757 1B       		.uleb128 0x1b
 1719 0758 84080000 		.4byte	0x884
 1720 075c 19020000 		.4byte	.LLST7
 1721 0760 1C       		.uleb128 0x1c
 1722 0761 0E000000 		.4byte	.LVL13
 1723 0765 C0080000 		.4byte	0x8c0
 1724 0769 1C       		.uleb128 0x1c
 1725 076a 12000000 		.4byte	.LVL14
 1726 076e B5080000 		.4byte	0x8b5
 1727 0772 00       		.byte	0
 1728 0773 00       		.byte	0
 1729 0774 18       		.uleb128 0x18
 1730 0775 C1000000 		.4byte	.LASF65
 1731 0779 01       		.byte	0x1
 1732 077a 2D       		.byte	0x2d
 1733 077b 00000000 		.4byte	.LFB7
 1734 077f 18000000 		.4byte	.LFE7-.LFB7
 1735 0783 01       		.uleb128 0x1
 1736 0784 9C       		.byte	0x9c
 1737 0785 C4070000 		.4byte	0x7c4
 1738 0789 19       		.uleb128 0x19
 1739 078a 22000000 		.4byte	.LASF54
 1740 078e 01       		.byte	0x1
 1741 078f 2D       		.byte	0x2d
 1742 0790 B8000000 		.4byte	0xb8
 1743 0794 2C020000 		.4byte	.LLST4
 1744 0798 1A       		.uleb128 0x1a
 1745 0799 78080000 		.4byte	0x878
 1746 079d 08000000 		.4byte	.LBB40
 1747 07a1 0A000000 		.4byte	.LBE40-.LBB40
 1748 07a5 01       		.byte	0x1
 1749 07a6 2F       		.byte	0x2f
 1750 07a7 1B       		.uleb128 0x1b
 1751 07a8 84080000 		.4byte	0x884
 1752 07ac 4D020000 		.4byte	.LLST5
 1753 07b0 1C       		.uleb128 0x1c
 1754 07b1 0E000000 		.4byte	.LVL9
 1755 07b5 C0080000 		.4byte	0x8c0
 1756 07b9 1C       		.uleb128 0x1c
 1757 07ba 12000000 		.4byte	.LVL10
 1758 07be B5080000 		.4byte	0x8b5
 1759 07c2 00       		.byte	0
 1760 07c3 00       		.byte	0
 1761 07c4 18       		.uleb128 0x18
 1762 07c5 80010000 		.4byte	.LASF66
 1763 07c9 01       		.byte	0x1
 1764 07ca 29       		.byte	0x29
 1765 07cb 00000000 		.4byte	.LFB6
 1766 07cf 18000000 		.4byte	.LFE6-.LFB6
 1767 07d3 01       		.uleb128 0x1
ARM GAS  /var/folders/t8/16hdwfmd2fg_d3q6dgx6bpmw0000gn/T//cckCHOhb.s 			page 32


 1768 07d4 9C       		.byte	0x9c
 1769 07d5 14080000 		.4byte	0x814
 1770 07d9 19       		.uleb128 0x19
 1771 07da 22000000 		.4byte	.LASF54
 1772 07de 01       		.byte	0x1
 1773 07df 29       		.byte	0x29
 1774 07e0 B8000000 		.4byte	0xb8
 1775 07e4 60020000 		.4byte	.LLST2
 1776 07e8 1A       		.uleb128 0x1a
 1777 07e9 78080000 		.4byte	0x878
 1778 07ed 08000000 		.4byte	.LBB38
 1779 07f1 0A000000 		.4byte	.LBE38-.LBB38
 1780 07f5 01       		.byte	0x1
 1781 07f6 2B       		.byte	0x2b
 1782 07f7 1B       		.uleb128 0x1b
 1783 07f8 84080000 		.4byte	0x884
 1784 07fc 81020000 		.4byte	.LLST3
 1785 0800 1C       		.uleb128 0x1c
 1786 0801 0E000000 		.4byte	.LVL5
 1787 0805 C0080000 		.4byte	0x8c0
 1788 0809 1C       		.uleb128 0x1c
 1789 080a 12000000 		.4byte	.LVL6
 1790 080e B5080000 		.4byte	0x8b5
 1791 0812 00       		.byte	0
 1792 0813 00       		.byte	0
 1793 0814 18       		.uleb128 0x18
 1794 0815 B4020000 		.4byte	.LASF67
 1795 0819 01       		.byte	0x1
 1796 081a 23       		.byte	0x23
 1797 081b 00000000 		.4byte	.LFB5
 1798 081f 14000000 		.4byte	.LFE5-.LFB5
 1799 0823 01       		.uleb128 0x1
 1800 0824 9C       		.byte	0x9c
 1801 0825 70080000 		.4byte	0x870
 1802 0829 19       		.uleb128 0x19
 1803 082a 22000000 		.4byte	.LASF54
 1804 082e 01       		.byte	0x1
 1805 082f 23       		.byte	0x23
 1806 0830 B8000000 		.4byte	0xb8
 1807 0834 94020000 		.4byte	.LLST0
 1808 0838 1D       		.uleb128 0x1d
 1809 0839 78080000 		.4byte	0x878
 1810 083d 02000000 		.4byte	.LBB34
 1811 0841 00000000 		.4byte	.Ldebug_ranges0+0
 1812 0845 01       		.byte	0x1
 1813 0846 25       		.byte	0x25
 1814 0847 1B       		.uleb128 0x1b
 1815 0848 84080000 		.4byte	0x884
 1816 084c B5020000 		.4byte	.LLST1
 1817 0850 1E       		.uleb128 0x1e
 1818 0851 0A000000 		.4byte	.LVL1
 1819 0855 C0080000 		.4byte	0x8c0
 1820 0859 65080000 		.4byte	0x865
 1821 085d 16       		.uleb128 0x16
 1822 085e 01       		.uleb128 0x1
 1823 085f 50       		.byte	0x50
 1824 0860 03       		.uleb128 0x3
ARM GAS  /var/folders/t8/16hdwfmd2fg_d3q6dgx6bpmw0000gn/T//cckCHOhb.s 			page 33


 1825 0861 F3       		.byte	0xf3
 1826 0862 01       		.uleb128 0x1
 1827 0863 50       		.byte	0x50
 1828 0864 00       		.byte	0
 1829 0865 1C       		.uleb128 0x1c
 1830 0866 0E000000 		.4byte	.LVL2
 1831 086a B5080000 		.4byte	0x8b5
 1832 086e 00       		.byte	0
 1833 086f 00       		.byte	0
 1834 0870 17       		.uleb128 0x17
 1835 0871 56020000 		.4byte	.LASF69
 1836 0875 01       		.byte	0x1
 1837 0876 1E       		.byte	0x1e
 1838 0877 01       		.byte	0x1
 1839 0878 1F       		.uleb128 0x1f
 1840 0879 17010000 		.4byte	.LASF71
 1841 087d 01       		.byte	0x1
 1842 087e 14       		.byte	0x14
 1843 087f 01       		.byte	0x1
 1844 0880 90080000 		.4byte	0x890
 1845 0884 20       		.uleb128 0x20
 1846 0885 22000000 		.4byte	.LASF54
 1847 0889 01       		.byte	0x1
 1848 088a 14       		.byte	0x14
 1849 088b B8000000 		.4byte	0xb8
 1850 088f 00       		.byte	0
 1851 0890 21       		.uleb128 0x21
 1852 0891 70080000 		.4byte	0x870
 1853 0895 00000000 		.4byte	.LFB4
 1854 0899 02000000 		.4byte	.LFE4-.LFB4
 1855 089d 01       		.uleb128 0x1
 1856 089e 9C       		.byte	0x9c
 1857 089f 22       		.uleb128 0x22
 1858 08a0 83000000 		.4byte	.LASF72
 1859 08a4 83000000 		.4byte	.LASF72
 1860 08a8 08       		.byte	0x8
 1861 08a9 35       		.byte	0x35
 1862 08aa 22       		.uleb128 0x22
 1863 08ab A4000000 		.4byte	.LASF73
 1864 08af A4000000 		.4byte	.LASF73
 1865 08b3 09       		.byte	0x9
 1866 08b4 45       		.byte	0x45
 1867 08b5 22       		.uleb128 0x22
 1868 08b6 B9030000 		.4byte	.LASF74
 1869 08ba B9030000 		.4byte	.LASF74
 1870 08be 08       		.byte	0x8
 1871 08bf 45       		.byte	0x45
 1872 08c0 22       		.uleb128 0x22
 1873 08c1 DE020000 		.4byte	.LASF75
 1874 08c5 DE020000 		.4byte	.LASF75
 1875 08c9 09       		.byte	0x9
 1876 08ca 41       		.byte	0x41
 1877 08cb 00       		.byte	0
 1878              		.section	.debug_abbrev,"",%progbits
 1879              	.Ldebug_abbrev0:
 1880 0000 01       		.uleb128 0x1
 1881 0001 11       		.uleb128 0x11
ARM GAS  /var/folders/t8/16hdwfmd2fg_d3q6dgx6bpmw0000gn/T//cckCHOhb.s 			page 34


 1882 0002 01       		.byte	0x1
 1883 0003 25       		.uleb128 0x25
 1884 0004 0E       		.uleb128 0xe
 1885 0005 13       		.uleb128 0x13
 1886 0006 0B       		.uleb128 0xb
 1887 0007 03       		.uleb128 0x3
 1888 0008 0E       		.uleb128 0xe
 1889 0009 1B       		.uleb128 0x1b
 1890 000a 0E       		.uleb128 0xe
 1891 000b 55       		.uleb128 0x55
 1892 000c 17       		.uleb128 0x17
 1893 000d 11       		.uleb128 0x11
 1894 000e 01       		.uleb128 0x1
 1895 000f 10       		.uleb128 0x10
 1896 0010 17       		.uleb128 0x17
 1897 0011 00       		.byte	0
 1898 0012 00       		.byte	0
 1899 0013 02       		.uleb128 0x2
 1900 0014 16       		.uleb128 0x16
 1901 0015 00       		.byte	0
 1902 0016 03       		.uleb128 0x3
 1903 0017 0E       		.uleb128 0xe
 1904 0018 3A       		.uleb128 0x3a
 1905 0019 0B       		.uleb128 0xb
 1906 001a 3B       		.uleb128 0x3b
 1907 001b 0B       		.uleb128 0xb
 1908 001c 49       		.uleb128 0x49
 1909 001d 13       		.uleb128 0x13
 1910 001e 00       		.byte	0
 1911 001f 00       		.byte	0
 1912 0020 03       		.uleb128 0x3
 1913 0021 24       		.uleb128 0x24
 1914 0022 00       		.byte	0
 1915 0023 0B       		.uleb128 0xb
 1916 0024 0B       		.uleb128 0xb
 1917 0025 3E       		.uleb128 0x3e
 1918 0026 0B       		.uleb128 0xb
 1919 0027 03       		.uleb128 0x3
 1920 0028 0E       		.uleb128 0xe
 1921 0029 00       		.byte	0
 1922 002a 00       		.byte	0
 1923 002b 04       		.uleb128 0x4
 1924 002c 24       		.uleb128 0x24
 1925 002d 00       		.byte	0
 1926 002e 0B       		.uleb128 0xb
 1927 002f 0B       		.uleb128 0xb
 1928 0030 3E       		.uleb128 0x3e
 1929 0031 0B       		.uleb128 0xb
 1930 0032 03       		.uleb128 0x3
 1931 0033 08       		.uleb128 0x8
 1932 0034 00       		.byte	0
 1933 0035 00       		.byte	0
 1934 0036 05       		.uleb128 0x5
 1935 0037 13       		.uleb128 0x13
 1936 0038 01       		.byte	0x1
 1937 0039 0B       		.uleb128 0xb
 1938 003a 0B       		.uleb128 0xb
ARM GAS  /var/folders/t8/16hdwfmd2fg_d3q6dgx6bpmw0000gn/T//cckCHOhb.s 			page 35


 1939 003b 3A       		.uleb128 0x3a
 1940 003c 0B       		.uleb128 0xb
 1941 003d 3B       		.uleb128 0x3b
 1942 003e 0B       		.uleb128 0xb
 1943 003f 01       		.uleb128 0x1
 1944 0040 13       		.uleb128 0x13
 1945 0041 00       		.byte	0
 1946 0042 00       		.byte	0
 1947 0043 06       		.uleb128 0x6
 1948 0044 0D       		.uleb128 0xd
 1949 0045 00       		.byte	0
 1950 0046 03       		.uleb128 0x3
 1951 0047 08       		.uleb128 0x8
 1952 0048 3A       		.uleb128 0x3a
 1953 0049 0B       		.uleb128 0xb
 1954 004a 3B       		.uleb128 0x3b
 1955 004b 0B       		.uleb128 0xb
 1956 004c 49       		.uleb128 0x49
 1957 004d 13       		.uleb128 0x13
 1958 004e 38       		.uleb128 0x38
 1959 004f 0B       		.uleb128 0xb
 1960 0050 00       		.byte	0
 1961 0051 00       		.byte	0
 1962 0052 07       		.uleb128 0x7
 1963 0053 13       		.uleb128 0x13
 1964 0054 01       		.byte	0x1
 1965 0055 03       		.uleb128 0x3
 1966 0056 0E       		.uleb128 0xe
 1967 0057 0B       		.uleb128 0xb
 1968 0058 0B       		.uleb128 0xb
 1969 0059 3A       		.uleb128 0x3a
 1970 005a 0B       		.uleb128 0xb
 1971 005b 3B       		.uleb128 0x3b
 1972 005c 0B       		.uleb128 0xb
 1973 005d 01       		.uleb128 0x1
 1974 005e 13       		.uleb128 0x13
 1975 005f 00       		.byte	0
 1976 0060 00       		.byte	0
 1977 0061 08       		.uleb128 0x8
 1978 0062 0D       		.uleb128 0xd
 1979 0063 00       		.byte	0
 1980 0064 03       		.uleb128 0x3
 1981 0065 0E       		.uleb128 0xe
 1982 0066 3A       		.uleb128 0x3a
 1983 0067 0B       		.uleb128 0xb
 1984 0068 3B       		.uleb128 0x3b
 1985 0069 0B       		.uleb128 0xb
 1986 006a 49       		.uleb128 0x49
 1987 006b 13       		.uleb128 0x13
 1988 006c 0B       		.uleb128 0xb
 1989 006d 0B       		.uleb128 0xb
 1990 006e 0D       		.uleb128 0xd
 1991 006f 0B       		.uleb128 0xb
 1992 0070 0C       		.uleb128 0xc
 1993 0071 0B       		.uleb128 0xb
 1994 0072 38       		.uleb128 0x38
 1995 0073 0B       		.uleb128 0xb
ARM GAS  /var/folders/t8/16hdwfmd2fg_d3q6dgx6bpmw0000gn/T//cckCHOhb.s 			page 36


 1996 0074 00       		.byte	0
 1997 0075 00       		.byte	0
 1998 0076 09       		.uleb128 0x9
 1999 0077 0D       		.uleb128 0xd
 2000 0078 00       		.byte	0
 2001 0079 03       		.uleb128 0x3
 2002 007a 08       		.uleb128 0x8
 2003 007b 3A       		.uleb128 0x3a
 2004 007c 0B       		.uleb128 0xb
 2005 007d 3B       		.uleb128 0x3b
 2006 007e 0B       		.uleb128 0xb
 2007 007f 49       		.uleb128 0x49
 2008 0080 13       		.uleb128 0x13
 2009 0081 0B       		.uleb128 0xb
 2010 0082 0B       		.uleb128 0xb
 2011 0083 0D       		.uleb128 0xd
 2012 0084 0B       		.uleb128 0xb
 2013 0085 0C       		.uleb128 0xc
 2014 0086 0B       		.uleb128 0xb
 2015 0087 38       		.uleb128 0x38
 2016 0088 0B       		.uleb128 0xb
 2017 0089 00       		.byte	0
 2018 008a 00       		.byte	0
 2019 008b 0A       		.uleb128 0xa
 2020 008c 17       		.uleb128 0x17
 2021 008d 01       		.byte	0x1
 2022 008e 0B       		.uleb128 0xb
 2023 008f 0B       		.uleb128 0xb
 2024 0090 3A       		.uleb128 0x3a
 2025 0091 0B       		.uleb128 0xb
 2026 0092 3B       		.uleb128 0x3b
 2027 0093 0B       		.uleb128 0xb
 2028 0094 01       		.uleb128 0x1
 2029 0095 13       		.uleb128 0x13
 2030 0096 00       		.byte	0
 2031 0097 00       		.byte	0
 2032 0098 0B       		.uleb128 0xb
 2033 0099 0D       		.uleb128 0xd
 2034 009a 00       		.byte	0
 2035 009b 03       		.uleb128 0x3
 2036 009c 0E       		.uleb128 0xe
 2037 009d 3A       		.uleb128 0x3a
 2038 009e 0B       		.uleb128 0xb
 2039 009f 3B       		.uleb128 0x3b
 2040 00a0 0B       		.uleb128 0xb
 2041 00a1 49       		.uleb128 0x49
 2042 00a2 13       		.uleb128 0x13
 2043 00a3 00       		.byte	0
 2044 00a4 00       		.byte	0
 2045 00a5 0C       		.uleb128 0xc
 2046 00a6 0D       		.uleb128 0xd
 2047 00a7 00       		.byte	0
 2048 00a8 03       		.uleb128 0x3
 2049 00a9 08       		.uleb128 0x8
 2050 00aa 3A       		.uleb128 0x3a
 2051 00ab 0B       		.uleb128 0xb
 2052 00ac 3B       		.uleb128 0x3b
ARM GAS  /var/folders/t8/16hdwfmd2fg_d3q6dgx6bpmw0000gn/T//cckCHOhb.s 			page 37


 2053 00ad 0B       		.uleb128 0xb
 2054 00ae 49       		.uleb128 0x49
 2055 00af 13       		.uleb128 0x13
 2056 00b0 00       		.byte	0
 2057 00b1 00       		.byte	0
 2058 00b2 0D       		.uleb128 0xd
 2059 00b3 34       		.uleb128 0x34
 2060 00b4 00       		.byte	0
 2061 00b5 03       		.uleb128 0x3
 2062 00b6 0E       		.uleb128 0xe
 2063 00b7 3A       		.uleb128 0x3a
 2064 00b8 0B       		.uleb128 0xb
 2065 00b9 3B       		.uleb128 0x3b
 2066 00ba 0B       		.uleb128 0xb
 2067 00bb 49       		.uleb128 0x49
 2068 00bc 13       		.uleb128 0x13
 2069 00bd 3F       		.uleb128 0x3f
 2070 00be 19       		.uleb128 0x19
 2071 00bf 3C       		.uleb128 0x3c
 2072 00c0 19       		.uleb128 0x19
 2073 00c1 00       		.byte	0
 2074 00c2 00       		.byte	0
 2075 00c3 0E       		.uleb128 0xe
 2076 00c4 0D       		.uleb128 0xd
 2077 00c5 00       		.byte	0
 2078 00c6 49       		.uleb128 0x49
 2079 00c7 13       		.uleb128 0x13
 2080 00c8 00       		.byte	0
 2081 00c9 00       		.byte	0
 2082 00ca 0F       		.uleb128 0xf
 2083 00cb 34       		.uleb128 0x34
 2084 00cc 00       		.byte	0
 2085 00cd 47       		.uleb128 0x47
 2086 00ce 13       		.uleb128 0x13
 2087 00cf 3A       		.uleb128 0x3a
 2088 00d0 0B       		.uleb128 0xb
 2089 00d1 3B       		.uleb128 0x3b
 2090 00d2 0B       		.uleb128 0xb
 2091 00d3 02       		.uleb128 0x2
 2092 00d4 18       		.uleb128 0x18
 2093 00d5 00       		.byte	0
 2094 00d6 00       		.byte	0
 2095 00d7 10       		.uleb128 0x10
 2096 00d8 2E       		.uleb128 0x2e
 2097 00d9 01       		.byte	0x1
 2098 00da 3F       		.uleb128 0x3f
 2099 00db 19       		.uleb128 0x19
 2100 00dc 03       		.uleb128 0x3
 2101 00dd 0E       		.uleb128 0xe
 2102 00de 3A       		.uleb128 0x3a
 2103 00df 0B       		.uleb128 0xb
 2104 00e0 3B       		.uleb128 0x3b
 2105 00e1 0B       		.uleb128 0xb
 2106 00e2 27       		.uleb128 0x27
 2107 00e3 19       		.uleb128 0x19
 2108 00e4 49       		.uleb128 0x49
 2109 00e5 13       		.uleb128 0x13
ARM GAS  /var/folders/t8/16hdwfmd2fg_d3q6dgx6bpmw0000gn/T//cckCHOhb.s 			page 38


 2110 00e6 11       		.uleb128 0x11
 2111 00e7 01       		.uleb128 0x1
 2112 00e8 12       		.uleb128 0x12
 2113 00e9 06       		.uleb128 0x6
 2114 00ea 40       		.uleb128 0x40
 2115 00eb 18       		.uleb128 0x18
 2116 00ec 9742     		.uleb128 0x2117
 2117 00ee 19       		.uleb128 0x19
 2118 00ef 01       		.uleb128 0x1
 2119 00f0 13       		.uleb128 0x13
 2120 00f1 00       		.byte	0
 2121 00f2 00       		.byte	0
 2122 00f3 11       		.uleb128 0x11
 2123 00f4 05       		.uleb128 0x5
 2124 00f5 00       		.byte	0
 2125 00f6 03       		.uleb128 0x3
 2126 00f7 08       		.uleb128 0x8
 2127 00f8 3A       		.uleb128 0x3a
 2128 00f9 0B       		.uleb128 0xb
 2129 00fa 3B       		.uleb128 0x3b
 2130 00fb 0B       		.uleb128 0xb
 2131 00fc 49       		.uleb128 0x49
 2132 00fd 13       		.uleb128 0x13
 2133 00fe 02       		.uleb128 0x2
 2134 00ff 18       		.uleb128 0x18
 2135 0100 00       		.byte	0
 2136 0101 00       		.byte	0
 2137 0102 12       		.uleb128 0x12
 2138 0103 34       		.uleb128 0x34
 2139 0104 00       		.byte	0
 2140 0105 03       		.uleb128 0x3
 2141 0106 0E       		.uleb128 0xe
 2142 0107 3A       		.uleb128 0x3a
 2143 0108 0B       		.uleb128 0xb
 2144 0109 3B       		.uleb128 0x3b
 2145 010a 0B       		.uleb128 0xb
 2146 010b 49       		.uleb128 0x49
 2147 010c 13       		.uleb128 0x13
 2148 010d 02       		.uleb128 0x2
 2149 010e 17       		.uleb128 0x17
 2150 010f 00       		.byte	0
 2151 0110 00       		.byte	0
 2152 0111 13       		.uleb128 0x13
 2153 0112 0B       		.uleb128 0xb
 2154 0113 01       		.byte	0x1
 2155 0114 11       		.uleb128 0x11
 2156 0115 01       		.uleb128 0x1
 2157 0116 12       		.uleb128 0x12
 2158 0117 06       		.uleb128 0x6
 2159 0118 01       		.uleb128 0x1
 2160 0119 13       		.uleb128 0x13
 2161 011a 00       		.byte	0
 2162 011b 00       		.byte	0
 2163 011c 14       		.uleb128 0x14
 2164 011d 34       		.uleb128 0x34
 2165 011e 00       		.byte	0
 2166 011f 03       		.uleb128 0x3
ARM GAS  /var/folders/t8/16hdwfmd2fg_d3q6dgx6bpmw0000gn/T//cckCHOhb.s 			page 39


 2167 0120 08       		.uleb128 0x8
 2168 0121 3A       		.uleb128 0x3a
 2169 0122 0B       		.uleb128 0xb
 2170 0123 3B       		.uleb128 0x3b
 2171 0124 0B       		.uleb128 0xb
 2172 0125 49       		.uleb128 0x49
 2173 0126 13       		.uleb128 0x13
 2174 0127 02       		.uleb128 0x2
 2175 0128 17       		.uleb128 0x17
 2176 0129 00       		.byte	0
 2177 012a 00       		.byte	0
 2178 012b 15       		.uleb128 0x15
 2179 012c 898201   		.uleb128 0x4109
 2180 012f 01       		.byte	0x1
 2181 0130 11       		.uleb128 0x11
 2182 0131 01       		.uleb128 0x1
 2183 0132 31       		.uleb128 0x31
 2184 0133 13       		.uleb128 0x13
 2185 0134 00       		.byte	0
 2186 0135 00       		.byte	0
 2187 0136 16       		.uleb128 0x16
 2188 0137 8A8201   		.uleb128 0x410a
 2189 013a 00       		.byte	0
 2190 013b 02       		.uleb128 0x2
 2191 013c 18       		.uleb128 0x18
 2192 013d 9142     		.uleb128 0x2111
 2193 013f 18       		.uleb128 0x18
 2194 0140 00       		.byte	0
 2195 0141 00       		.byte	0
 2196 0142 17       		.uleb128 0x17
 2197 0143 2E       		.uleb128 0x2e
 2198 0144 00       		.byte	0
 2199 0145 3F       		.uleb128 0x3f
 2200 0146 19       		.uleb128 0x19
 2201 0147 03       		.uleb128 0x3
 2202 0148 0E       		.uleb128 0xe
 2203 0149 3A       		.uleb128 0x3a
 2204 014a 0B       		.uleb128 0xb
 2205 014b 3B       		.uleb128 0x3b
 2206 014c 0B       		.uleb128 0xb
 2207 014d 27       		.uleb128 0x27
 2208 014e 19       		.uleb128 0x19
 2209 014f 20       		.uleb128 0x20
 2210 0150 0B       		.uleb128 0xb
 2211 0151 00       		.byte	0
 2212 0152 00       		.byte	0
 2213 0153 18       		.uleb128 0x18
 2214 0154 2E       		.uleb128 0x2e
 2215 0155 01       		.byte	0x1
 2216 0156 3F       		.uleb128 0x3f
 2217 0157 19       		.uleb128 0x19
 2218 0158 03       		.uleb128 0x3
 2219 0159 0E       		.uleb128 0xe
 2220 015a 3A       		.uleb128 0x3a
 2221 015b 0B       		.uleb128 0xb
 2222 015c 3B       		.uleb128 0x3b
 2223 015d 0B       		.uleb128 0xb
ARM GAS  /var/folders/t8/16hdwfmd2fg_d3q6dgx6bpmw0000gn/T//cckCHOhb.s 			page 40


 2224 015e 27       		.uleb128 0x27
 2225 015f 19       		.uleb128 0x19
 2226 0160 11       		.uleb128 0x11
 2227 0161 01       		.uleb128 0x1
 2228 0162 12       		.uleb128 0x12
 2229 0163 06       		.uleb128 0x6
 2230 0164 40       		.uleb128 0x40
 2231 0165 18       		.uleb128 0x18
 2232 0166 9742     		.uleb128 0x2117
 2233 0168 19       		.uleb128 0x19
 2234 0169 01       		.uleb128 0x1
 2235 016a 13       		.uleb128 0x13
 2236 016b 00       		.byte	0
 2237 016c 00       		.byte	0
 2238 016d 19       		.uleb128 0x19
 2239 016e 05       		.uleb128 0x5
 2240 016f 00       		.byte	0
 2241 0170 03       		.uleb128 0x3
 2242 0171 0E       		.uleb128 0xe
 2243 0172 3A       		.uleb128 0x3a
 2244 0173 0B       		.uleb128 0xb
 2245 0174 3B       		.uleb128 0x3b
 2246 0175 0B       		.uleb128 0xb
 2247 0176 49       		.uleb128 0x49
 2248 0177 13       		.uleb128 0x13
 2249 0178 02       		.uleb128 0x2
 2250 0179 17       		.uleb128 0x17
 2251 017a 00       		.byte	0
 2252 017b 00       		.byte	0
 2253 017c 1A       		.uleb128 0x1a
 2254 017d 1D       		.uleb128 0x1d
 2255 017e 01       		.byte	0x1
 2256 017f 31       		.uleb128 0x31
 2257 0180 13       		.uleb128 0x13
 2258 0181 11       		.uleb128 0x11
 2259 0182 01       		.uleb128 0x1
 2260 0183 12       		.uleb128 0x12
 2261 0184 06       		.uleb128 0x6
 2262 0185 58       		.uleb128 0x58
 2263 0186 0B       		.uleb128 0xb
 2264 0187 59       		.uleb128 0x59
 2265 0188 0B       		.uleb128 0xb
 2266 0189 00       		.byte	0
 2267 018a 00       		.byte	0
 2268 018b 1B       		.uleb128 0x1b
 2269 018c 05       		.uleb128 0x5
 2270 018d 00       		.byte	0
 2271 018e 31       		.uleb128 0x31
 2272 018f 13       		.uleb128 0x13
 2273 0190 02       		.uleb128 0x2
 2274 0191 17       		.uleb128 0x17
 2275 0192 00       		.byte	0
 2276 0193 00       		.byte	0
 2277 0194 1C       		.uleb128 0x1c
 2278 0195 898201   		.uleb128 0x4109
 2279 0198 00       		.byte	0
 2280 0199 11       		.uleb128 0x11
ARM GAS  /var/folders/t8/16hdwfmd2fg_d3q6dgx6bpmw0000gn/T//cckCHOhb.s 			page 41


 2281 019a 01       		.uleb128 0x1
 2282 019b 31       		.uleb128 0x31
 2283 019c 13       		.uleb128 0x13
 2284 019d 00       		.byte	0
 2285 019e 00       		.byte	0
 2286 019f 1D       		.uleb128 0x1d
 2287 01a0 1D       		.uleb128 0x1d
 2288 01a1 01       		.byte	0x1
 2289 01a2 31       		.uleb128 0x31
 2290 01a3 13       		.uleb128 0x13
 2291 01a4 52       		.uleb128 0x52
 2292 01a5 01       		.uleb128 0x1
 2293 01a6 55       		.uleb128 0x55
 2294 01a7 17       		.uleb128 0x17
 2295 01a8 58       		.uleb128 0x58
 2296 01a9 0B       		.uleb128 0xb
 2297 01aa 59       		.uleb128 0x59
 2298 01ab 0B       		.uleb128 0xb
 2299 01ac 00       		.byte	0
 2300 01ad 00       		.byte	0
 2301 01ae 1E       		.uleb128 0x1e
 2302 01af 898201   		.uleb128 0x4109
 2303 01b2 01       		.byte	0x1
 2304 01b3 11       		.uleb128 0x11
 2305 01b4 01       		.uleb128 0x1
 2306 01b5 31       		.uleb128 0x31
 2307 01b6 13       		.uleb128 0x13
 2308 01b7 01       		.uleb128 0x1
 2309 01b8 13       		.uleb128 0x13
 2310 01b9 00       		.byte	0
 2311 01ba 00       		.byte	0
 2312 01bb 1F       		.uleb128 0x1f
 2313 01bc 2E       		.uleb128 0x2e
 2314 01bd 01       		.byte	0x1
 2315 01be 03       		.uleb128 0x3
 2316 01bf 0E       		.uleb128 0xe
 2317 01c0 3A       		.uleb128 0x3a
 2318 01c1 0B       		.uleb128 0xb
 2319 01c2 3B       		.uleb128 0x3b
 2320 01c3 0B       		.uleb128 0xb
 2321 01c4 27       		.uleb128 0x27
 2322 01c5 19       		.uleb128 0x19
 2323 01c6 20       		.uleb128 0x20
 2324 01c7 0B       		.uleb128 0xb
 2325 01c8 01       		.uleb128 0x1
 2326 01c9 13       		.uleb128 0x13
 2327 01ca 00       		.byte	0
 2328 01cb 00       		.byte	0
 2329 01cc 20       		.uleb128 0x20
 2330 01cd 05       		.uleb128 0x5
 2331 01ce 00       		.byte	0
 2332 01cf 03       		.uleb128 0x3
 2333 01d0 0E       		.uleb128 0xe
 2334 01d1 3A       		.uleb128 0x3a
 2335 01d2 0B       		.uleb128 0xb
 2336 01d3 3B       		.uleb128 0x3b
 2337 01d4 0B       		.uleb128 0xb
ARM GAS  /var/folders/t8/16hdwfmd2fg_d3q6dgx6bpmw0000gn/T//cckCHOhb.s 			page 42


 2338 01d5 49       		.uleb128 0x49
 2339 01d6 13       		.uleb128 0x13
 2340 01d7 00       		.byte	0
 2341 01d8 00       		.byte	0
 2342 01d9 21       		.uleb128 0x21
 2343 01da 2E       		.uleb128 0x2e
 2344 01db 00       		.byte	0
 2345 01dc 31       		.uleb128 0x31
 2346 01dd 13       		.uleb128 0x13
 2347 01de 11       		.uleb128 0x11
 2348 01df 01       		.uleb128 0x1
 2349 01e0 12       		.uleb128 0x12
 2350 01e1 06       		.uleb128 0x6
 2351 01e2 40       		.uleb128 0x40
 2352 01e3 18       		.uleb128 0x18
 2353 01e4 9742     		.uleb128 0x2117
 2354 01e6 19       		.uleb128 0x19
 2355 01e7 00       		.byte	0
 2356 01e8 00       		.byte	0
 2357 01e9 22       		.uleb128 0x22
 2358 01ea 2E       		.uleb128 0x2e
 2359 01eb 00       		.byte	0
 2360 01ec 3F       		.uleb128 0x3f
 2361 01ed 19       		.uleb128 0x19
 2362 01ee 3C       		.uleb128 0x3c
 2363 01ef 19       		.uleb128 0x19
 2364 01f0 6E       		.uleb128 0x6e
 2365 01f1 0E       		.uleb128 0xe
 2366 01f2 03       		.uleb128 0x3
 2367 01f3 0E       		.uleb128 0xe
 2368 01f4 3A       		.uleb128 0x3a
 2369 01f5 0B       		.uleb128 0xb
 2370 01f6 3B       		.uleb128 0x3b
 2371 01f7 0B       		.uleb128 0xb
 2372 01f8 00       		.byte	0
 2373 01f9 00       		.byte	0
 2374 01fa 00       		.byte	0
 2375              		.section	.debug_loc,"",%progbits
 2376              	.Ldebug_loc0:
 2377              	.LLST23:
 2378 0000 00000000 		.4byte	.LVL49
 2379 0004 18000000 		.4byte	.LVL51
 2380 0008 0400     		.2byte	0x4
 2381 000a 31       		.byte	0x31
 2382 000b 9F       		.byte	0x9f
 2383 000c 93       		.byte	0x93
 2384 000d 02       		.uleb128 0x2
 2385 000e 2C000000 		.4byte	.LVL53
 2386 0012 2E000000 		.4byte	.LVL54
 2387 0016 0100     		.2byte	0x1
 2388 0018 50       		.byte	0x50
 2389 0019 2E000000 		.4byte	.LVL54
 2390 001d 32000000 		.4byte	.LVL55
 2391 0021 0300     		.2byte	0x3
 2392 0023 50       		.byte	0x50
 2393 0024 93       		.byte	0x93
 2394 0025 02       		.uleb128 0x2
ARM GAS  /var/folders/t8/16hdwfmd2fg_d3q6dgx6bpmw0000gn/T//cckCHOhb.s 			page 43


 2395 0026 00000000 		.4byte	0
 2396 002a 00000000 		.4byte	0
 2397              	.LLST24:
 2398 002e 12000000 		.4byte	.LVL50
 2399 0032 34000000 		.4byte	.LVL56
 2400 0036 0100     		.2byte	0x1
 2401 0038 55       		.byte	0x55
 2402 0039 36000000 		.4byte	.LVL57
 2403 003d 48000000 		.4byte	.LFE19
 2404 0041 0100     		.2byte	0x1
 2405 0043 55       		.byte	0x55
 2406 0044 00000000 		.4byte	0
 2407 0048 00000000 		.4byte	0
 2408              	.LLST25:
 2409 004c 12000000 		.4byte	.LVL50
 2410 0050 18000000 		.4byte	.LVL51
 2411 0054 0200     		.2byte	0x2
 2412 0056 4F       		.byte	0x4f
 2413 0057 9F       		.byte	0x9f
 2414 0058 18000000 		.4byte	.LVL51
 2415 005c 1C000000 		.4byte	.LVL52
 2416 0060 0300     		.2byte	0x3
 2417 0062 74       		.byte	0x74
 2418 0063 7F       		.sleb128 -1
 2419 0064 9F       		.byte	0x9f
 2420 0065 1C000000 		.4byte	.LVL52
 2421 0069 32000000 		.4byte	.LVL55
 2422 006d 0100     		.2byte	0x1
 2423 006f 54       		.byte	0x54
 2424 0070 00000000 		.4byte	0
 2425 0074 00000000 		.4byte	0
 2426              	.LLST21:
 2427 0078 00000000 		.4byte	.LVL45
 2428 007c 08000000 		.4byte	.LVL46
 2429 0080 0100     		.2byte	0x1
 2430 0082 50       		.byte	0x50
 2431 0083 08000000 		.4byte	.LVL46
 2432 0087 18000000 		.4byte	.LFE17
 2433 008b 0400     		.2byte	0x4
 2434 008d F3       		.byte	0xf3
 2435 008e 01       		.uleb128 0x1
 2436 008f 50       		.byte	0x50
 2437 0090 9F       		.byte	0x9f
 2438 0091 00000000 		.4byte	0
 2439 0095 00000000 		.4byte	0
 2440              	.LLST22:
 2441 0099 08000000 		.4byte	.LVL46
 2442 009d 0D000000 		.4byte	.LVL47-1
 2443 00a1 0100     		.2byte	0x1
 2444 00a3 50       		.byte	0x50
 2445 00a4 00000000 		.4byte	0
 2446 00a8 00000000 		.4byte	0
 2447              	.LLST19:
 2448 00ac 00000000 		.4byte	.LVL41
 2449 00b0 08000000 		.4byte	.LVL42
 2450 00b4 0100     		.2byte	0x1
 2451 00b6 50       		.byte	0x50
ARM GAS  /var/folders/t8/16hdwfmd2fg_d3q6dgx6bpmw0000gn/T//cckCHOhb.s 			page 44


 2452 00b7 08000000 		.4byte	.LVL42
 2453 00bb 18000000 		.4byte	.LFE16
 2454 00bf 0400     		.2byte	0x4
 2455 00c1 F3       		.byte	0xf3
 2456 00c2 01       		.uleb128 0x1
 2457 00c3 50       		.byte	0x50
 2458 00c4 9F       		.byte	0x9f
 2459 00c5 00000000 		.4byte	0
 2460 00c9 00000000 		.4byte	0
 2461              	.LLST20:
 2462 00cd 08000000 		.4byte	.LVL42
 2463 00d1 0D000000 		.4byte	.LVL43-1
 2464 00d5 0100     		.2byte	0x1
 2465 00d7 50       		.byte	0x50
 2466 00d8 00000000 		.4byte	0
 2467 00dc 00000000 		.4byte	0
 2468              	.LLST17:
 2469 00e0 00000000 		.4byte	.LVL37
 2470 00e4 08000000 		.4byte	.LVL38
 2471 00e8 0100     		.2byte	0x1
 2472 00ea 50       		.byte	0x50
 2473 00eb 08000000 		.4byte	.LVL38
 2474 00ef 18000000 		.4byte	.LFE15
 2475 00f3 0400     		.2byte	0x4
 2476 00f5 F3       		.byte	0xf3
 2477 00f6 01       		.uleb128 0x1
 2478 00f7 50       		.byte	0x50
 2479 00f8 9F       		.byte	0x9f
 2480 00f9 00000000 		.4byte	0
 2481 00fd 00000000 		.4byte	0
 2482              	.LLST18:
 2483 0101 08000000 		.4byte	.LVL38
 2484 0105 0D000000 		.4byte	.LVL39-1
 2485 0109 0100     		.2byte	0x1
 2486 010b 50       		.byte	0x50
 2487 010c 00000000 		.4byte	0
 2488 0110 00000000 		.4byte	0
 2489              	.LLST15:
 2490 0114 00000000 		.4byte	.LVL32
 2491 0118 04000000 		.4byte	.LVL33
 2492 011c 0100     		.2byte	0x1
 2493 011e 50       		.byte	0x50
 2494 011f 04000000 		.4byte	.LVL33
 2495 0123 20000000 		.4byte	.LFE14
 2496 0127 0400     		.2byte	0x4
 2497 0129 F3       		.byte	0xf3
 2498 012a 01       		.uleb128 0x1
 2499 012b 50       		.byte	0x50
 2500 012c 9F       		.byte	0x9f
 2501 012d 00000000 		.4byte	0
 2502 0131 00000000 		.4byte	0
 2503              	.LLST16:
 2504 0135 0E000000 		.4byte	.LVL34
 2505 0139 13000000 		.4byte	.LVL35-1
 2506 013d 0100     		.2byte	0x1
 2507 013f 50       		.byte	0x50
 2508 0140 00000000 		.4byte	0
ARM GAS  /var/folders/t8/16hdwfmd2fg_d3q6dgx6bpmw0000gn/T//cckCHOhb.s 			page 45


 2509 0144 00000000 		.4byte	0
 2510              	.LLST13:
 2511 0148 00000000 		.4byte	.LVL27
 2512 014c 0A000000 		.4byte	.LVL28
 2513 0150 0100     		.2byte	0x1
 2514 0152 50       		.byte	0x50
 2515 0153 0A000000 		.4byte	.LVL28
 2516 0157 1C000000 		.4byte	.LFE13
 2517 015b 0400     		.2byte	0x4
 2518 015d F3       		.byte	0xf3
 2519 015e 01       		.uleb128 0x1
 2520 015f 50       		.byte	0x50
 2521 0160 9F       		.byte	0x9f
 2522 0161 00000000 		.4byte	0
 2523 0165 00000000 		.4byte	0
 2524              	.LLST14:
 2525 0169 0C000000 		.4byte	.LVL29
 2526 016d 11000000 		.4byte	.LVL30-1
 2527 0171 0100     		.2byte	0x1
 2528 0173 50       		.byte	0x50
 2529 0174 00000000 		.4byte	0
 2530 0178 00000000 		.4byte	0
 2531              	.LLST11:
 2532 017c 00000000 		.4byte	.LVL22
 2533 0180 04000000 		.4byte	.LVL23
 2534 0184 0100     		.2byte	0x1
 2535 0186 50       		.byte	0x50
 2536 0187 04000000 		.4byte	.LVL23
 2537 018b 20000000 		.4byte	.LFE12
 2538 018f 0400     		.2byte	0x4
 2539 0191 F3       		.byte	0xf3
 2540 0192 01       		.uleb128 0x1
 2541 0193 50       		.byte	0x50
 2542 0194 9F       		.byte	0x9f
 2543 0195 00000000 		.4byte	0
 2544 0199 00000000 		.4byte	0
 2545              	.LLST12:
 2546 019d 0E000000 		.4byte	.LVL24
 2547 01a1 13000000 		.4byte	.LVL25-1
 2548 01a5 0100     		.2byte	0x1
 2549 01a7 50       		.byte	0x50
 2550 01a8 00000000 		.4byte	0
 2551 01ac 00000000 		.4byte	0
 2552              	.LLST9:
 2553 01b0 00000000 		.4byte	.LVL18
 2554 01b4 06000000 		.4byte	.LVL19
 2555 01b8 0100     		.2byte	0x1
 2556 01ba 50       		.byte	0x50
 2557 01bb 06000000 		.4byte	.LVL19
 2558 01bf 1C000000 		.4byte	.LFE11
 2559 01c3 0400     		.2byte	0x4
 2560 01c5 F3       		.byte	0xf3
 2561 01c6 01       		.uleb128 0x1
 2562 01c7 50       		.byte	0x50
 2563 01c8 9F       		.byte	0x9f
 2564 01c9 00000000 		.4byte	0
 2565 01cd 00000000 		.4byte	0
ARM GAS  /var/folders/t8/16hdwfmd2fg_d3q6dgx6bpmw0000gn/T//cckCHOhb.s 			page 46


 2566              	.LLST10:
 2567 01d1 06000000 		.4byte	.LVL19
 2568 01d5 0F000000 		.4byte	.LVL20-1
 2569 01d9 0100     		.2byte	0x1
 2570 01db 50       		.byte	0x50
 2571 01dc 00000000 		.4byte	0
 2572 01e0 00000000 		.4byte	0
 2573              	.LLST8:
 2574 01e4 00000000 		.4byte	.LVL15
 2575 01e8 12000000 		.4byte	.LVL17
 2576 01ec 0200     		.2byte	0x2
 2577 01ee 30       		.byte	0x30
 2578 01ef 9F       		.byte	0x9f
 2579 01f0 00000000 		.4byte	0
 2580 01f4 00000000 		.4byte	0
 2581              	.LLST6:
 2582 01f8 00000000 		.4byte	.LVL11
 2583 01fc 08000000 		.4byte	.LVL12
 2584 0200 0100     		.2byte	0x1
 2585 0202 50       		.byte	0x50
 2586 0203 08000000 		.4byte	.LVL12
 2587 0207 18000000 		.4byte	.LFE8
 2588 020b 0400     		.2byte	0x4
 2589 020d F3       		.byte	0xf3
 2590 020e 01       		.uleb128 0x1
 2591 020f 50       		.byte	0x50
 2592 0210 9F       		.byte	0x9f
 2593 0211 00000000 		.4byte	0
 2594 0215 00000000 		.4byte	0
 2595              	.LLST7:
 2596 0219 08000000 		.4byte	.LVL12
 2597 021d 0D000000 		.4byte	.LVL13-1
 2598 0221 0100     		.2byte	0x1
 2599 0223 50       		.byte	0x50
 2600 0224 00000000 		.4byte	0
 2601 0228 00000000 		.4byte	0
 2602              	.LLST4:
 2603 022c 00000000 		.4byte	.LVL7
 2604 0230 08000000 		.4byte	.LVL8
 2605 0234 0100     		.2byte	0x1
 2606 0236 50       		.byte	0x50
 2607 0237 08000000 		.4byte	.LVL8
 2608 023b 18000000 		.4byte	.LFE7
 2609 023f 0400     		.2byte	0x4
 2610 0241 F3       		.byte	0xf3
 2611 0242 01       		.uleb128 0x1
 2612 0243 50       		.byte	0x50
 2613 0244 9F       		.byte	0x9f
 2614 0245 00000000 		.4byte	0
 2615 0249 00000000 		.4byte	0
 2616              	.LLST5:
 2617 024d 08000000 		.4byte	.LVL8
 2618 0251 0D000000 		.4byte	.LVL9-1
 2619 0255 0100     		.2byte	0x1
 2620 0257 50       		.byte	0x50
 2621 0258 00000000 		.4byte	0
 2622 025c 00000000 		.4byte	0
ARM GAS  /var/folders/t8/16hdwfmd2fg_d3q6dgx6bpmw0000gn/T//cckCHOhb.s 			page 47


 2623              	.LLST2:
 2624 0260 00000000 		.4byte	.LVL3
 2625 0264 08000000 		.4byte	.LVL4
 2626 0268 0100     		.2byte	0x1
 2627 026a 50       		.byte	0x50
 2628 026b 08000000 		.4byte	.LVL4
 2629 026f 18000000 		.4byte	.LFE6
 2630 0273 0400     		.2byte	0x4
 2631 0275 F3       		.byte	0xf3
 2632 0276 01       		.uleb128 0x1
 2633 0277 50       		.byte	0x50
 2634 0278 9F       		.byte	0x9f
 2635 0279 00000000 		.4byte	0
 2636 027d 00000000 		.4byte	0
 2637              	.LLST3:
 2638 0281 08000000 		.4byte	.LVL4
 2639 0285 0D000000 		.4byte	.LVL5-1
 2640 0289 0100     		.2byte	0x1
 2641 028b 50       		.byte	0x50
 2642 028c 00000000 		.4byte	0
 2643 0290 00000000 		.4byte	0
 2644              	.LLST0:
 2645 0294 00000000 		.4byte	.LVL0
 2646 0298 09000000 		.4byte	.LVL1-1
 2647 029c 0100     		.2byte	0x1
 2648 029e 50       		.byte	0x50
 2649 029f 09000000 		.4byte	.LVL1-1
 2650 02a3 14000000 		.4byte	.LFE5
 2651 02a7 0400     		.2byte	0x4
 2652 02a9 F3       		.byte	0xf3
 2653 02aa 01       		.uleb128 0x1
 2654 02ab 50       		.byte	0x50
 2655 02ac 9F       		.byte	0x9f
 2656 02ad 00000000 		.4byte	0
 2657 02b1 00000000 		.4byte	0
 2658              	.LLST1:
 2659 02b5 00000000 		.4byte	.LVL0
 2660 02b9 09000000 		.4byte	.LVL1-1
 2661 02bd 0100     		.2byte	0x1
 2662 02bf 50       		.byte	0x50
 2663 02c0 09000000 		.4byte	.LVL1-1
 2664 02c4 0E000000 		.4byte	.LVL2
 2665 02c8 0400     		.2byte	0x4
 2666 02ca F3       		.byte	0xf3
 2667 02cb 01       		.uleb128 0x1
 2668 02cc 50       		.byte	0x50
 2669 02cd 9F       		.byte	0x9f
 2670 02ce 00000000 		.4byte	0
 2671 02d2 00000000 		.4byte	0
 2672              		.section	.debug_aranges,"",%progbits
 2673 0000 84000000 		.4byte	0x84
 2674 0004 0200     		.2byte	0x2
 2675 0006 00000000 		.4byte	.Ldebug_info0
 2676 000a 04       		.byte	0x4
 2677 000b 00       		.byte	0
 2678 000c 0000     		.2byte	0
 2679 000e 0000     		.2byte	0
ARM GAS  /var/folders/t8/16hdwfmd2fg_d3q6dgx6bpmw0000gn/T//cckCHOhb.s 			page 48


 2680 0010 00000000 		.4byte	.LFB4
 2681 0014 02000000 		.4byte	.LFE4-.LFB4
 2682 0018 00000000 		.4byte	.LFB5
 2683 001c 14000000 		.4byte	.LFE5-.LFB5
 2684 0020 00000000 		.4byte	.LFB6
 2685 0024 18000000 		.4byte	.LFE6-.LFB6
 2686 0028 00000000 		.4byte	.LFB7
 2687 002c 18000000 		.4byte	.LFE7-.LFB7
 2688 0030 00000000 		.4byte	.LFB8
 2689 0034 18000000 		.4byte	.LFE8-.LFB8
 2690 0038 00000000 		.4byte	.LFB10
 2691 003c 18000000 		.4byte	.LFE10-.LFB10
 2692 0040 00000000 		.4byte	.LFB11
 2693 0044 1C000000 		.4byte	.LFE11-.LFB11
 2694 0048 00000000 		.4byte	.LFB12
 2695 004c 20000000 		.4byte	.LFE12-.LFB12
 2696 0050 00000000 		.4byte	.LFB13
 2697 0054 1C000000 		.4byte	.LFE13-.LFB13
 2698 0058 00000000 		.4byte	.LFB14
 2699 005c 20000000 		.4byte	.LFE14-.LFB14
 2700 0060 00000000 		.4byte	.LFB15
 2701 0064 18000000 		.4byte	.LFE15-.LFB15
 2702 0068 00000000 		.4byte	.LFB16
 2703 006c 18000000 		.4byte	.LFE16-.LFB16
 2704 0070 00000000 		.4byte	.LFB17
 2705 0074 18000000 		.4byte	.LFE17-.LFB17
 2706 0078 00000000 		.4byte	.LFB19
 2707 007c 48000000 		.4byte	.LFE19-.LFB19
 2708 0080 00000000 		.4byte	0
 2709 0084 00000000 		.4byte	0
 2710              		.section	.debug_ranges,"",%progbits
 2711              	.Ldebug_ranges0:
 2712 0000 02000000 		.4byte	.LBB34
 2713 0004 04000000 		.4byte	.LBE34
 2714 0008 04000000 		.4byte	.LBB37
 2715 000c 0E000000 		.4byte	.LBE37
 2716 0010 00000000 		.4byte	0
 2717 0014 00000000 		.4byte	0
 2718 0018 00000000 		.4byte	.LBB44
 2719 001c 02000000 		.4byte	.LBE44
 2720 0020 04000000 		.4byte	.LBB48
 2721 0024 0A000000 		.4byte	.LBE48
 2722 0028 0A000000 		.4byte	.LBB49
 2723 002c 12000000 		.4byte	.LBE49
 2724 0030 00000000 		.4byte	0
 2725 0034 00000000 		.4byte	0
 2726 0038 08000000 		.4byte	.LBB50
 2727 003c 0A000000 		.4byte	.LBE50
 2728 0040 0A000000 		.4byte	.LBB53
 2729 0044 14000000 		.4byte	.LBE53
 2730 0048 00000000 		.4byte	0
 2731 004c 00000000 		.4byte	0
 2732 0050 00000000 		.4byte	.LFB4
 2733 0054 02000000 		.4byte	.LFE4
 2734 0058 00000000 		.4byte	.LFB5
 2735 005c 14000000 		.4byte	.LFE5
 2736 0060 00000000 		.4byte	.LFB6
ARM GAS  /var/folders/t8/16hdwfmd2fg_d3q6dgx6bpmw0000gn/T//cckCHOhb.s 			page 49


 2737 0064 18000000 		.4byte	.LFE6
 2738 0068 00000000 		.4byte	.LFB7
 2739 006c 18000000 		.4byte	.LFE7
 2740 0070 00000000 		.4byte	.LFB8
 2741 0074 18000000 		.4byte	.LFE8
 2742 0078 00000000 		.4byte	.LFB10
 2743 007c 18000000 		.4byte	.LFE10
 2744 0080 00000000 		.4byte	.LFB11
 2745 0084 1C000000 		.4byte	.LFE11
 2746 0088 00000000 		.4byte	.LFB12
 2747 008c 20000000 		.4byte	.LFE12
 2748 0090 00000000 		.4byte	.LFB13
 2749 0094 1C000000 		.4byte	.LFE13
 2750 0098 00000000 		.4byte	.LFB14
 2751 009c 20000000 		.4byte	.LFE14
 2752 00a0 00000000 		.4byte	.LFB15
 2753 00a4 18000000 		.4byte	.LFE15
 2754 00a8 00000000 		.4byte	.LFB16
 2755 00ac 18000000 		.4byte	.LFE16
 2756 00b0 00000000 		.4byte	.LFB17
 2757 00b4 18000000 		.4byte	.LFE17
 2758 00b8 00000000 		.4byte	.LFB19
 2759 00bc 48000000 		.4byte	.LFE19
 2760 00c0 00000000 		.4byte	0
 2761 00c4 00000000 		.4byte	0
 2762              		.section	.debug_line,"",%progbits
 2763              	.Ldebug_line0:
 2764 0000 22030000 		.section	.debug_str,"MS",%progbits,1
 2764      02009401 
 2764      00000201 
 2764      FB0E0D00 
 2764      01010101 
 2765              	.LASF24:
 2766 0000 6B696E64 		.ascii	"kind\000"
 2766      00
 2767              	.LASF38:
 2768 0005 75736167 		.ascii	"usage\000"
 2768      6500
 2769              	.LASF70:
 2770 000b 6C617965 		.ascii	"layer_state_set\000"
 2770      725F7374 
 2770      6174655F 
 2770      73657400 
 2771              	.LASF13:
 2772 001b 696E7438 		.ascii	"int8_t\000"
 2772      5F7400
 2773              	.LASF54:
 2774 0022 73746174 		.ascii	"state\000"
 2774      6500
 2775              	.LASF55:
 2776 0028 6C617965 		.ascii	"layer_xor\000"
 2776      725F786F 
 2776      7200
 2777              	.LASF4:
 2778 0032 73686F72 		.ascii	"short int\000"
 2778      7420696E 
 2778      7400
ARM GAS  /var/folders/t8/16hdwfmd2fg_d3q6dgx6bpmw0000gn/T//cckCHOhb.s 			page 50


 2779              	.LASF78:
 2780 003c 2F557365 		.ascii	"/Users/jpablobr/tmp/tmk/di0ib-tmk_keyboard/keyboard"
 2780      72732F6A 
 2780      7061626C 
 2780      6F62722F 
 2780      746D702F 
 2781 006f 2F746565 		.ascii	"/teensy_lc_menelaus\000"
 2781      6E73795F 
 2781      6C635F6D 
 2781      656E656C 
 2781      61757300 
 2782              	.LASF72:
 2783 0083 61637469 		.ascii	"action_for_key\000"
 2783      6F6E5F66 
 2783      6F725F6B 
 2783      657900
 2784              	.LASF61:
 2785 0092 6C617965 		.ascii	"layer_on\000"
 2785      725F6F6E 
 2785      00
 2786              	.LASF57:
 2787 009b 6C617965 		.ascii	"layer_or\000"
 2787      725F6F72 
 2787      00
 2788              	.LASF73:
 2789 00a4 686F6F6B 		.ascii	"hook_layer_change\000"
 2789      5F6C6179 
 2789      65725F63 
 2789      68616E67 
 2789      6500
 2790              	.LASF8:
 2791 00b6 5F5F7569 		.ascii	"__uint32_t\000"
 2791      6E743332 
 2791      5F7400
 2792              	.LASF65:
 2793 00c1 64656661 		.ascii	"default_layer_and\000"
 2793      756C745F 
 2793      6C617965 
 2793      725F616E 
 2793      6400
 2794              	.LASF5:
 2795 00d3 5F5F7569 		.ascii	"__uint16_t\000"
 2795      6E743136 
 2795      5F7400
 2796              	.LASF50:
 2797 00de 64656275 		.ascii	"debug_config_t\000"
 2797      675F636F 
 2797      6E666967 
 2797      5F7400
 2798              	.LASF58:
 2799 00ed 6C617965 		.ascii	"layer_invert\000"
 2799      725F696E 
 2799      76657274 
 2799      00
 2800              	.LASF23:
 2801 00fa 6D6F6473 		.ascii	"mods\000"
 2801      00
ARM GAS  /var/folders/t8/16hdwfmd2fg_d3q6dgx6bpmw0000gn/T//cckCHOhb.s 			page 51


 2802              	.LASF45:
 2803 00ff 656E6162 		.ascii	"enable\000"
 2803      6C6500
 2804              	.LASF32:
 2805 0106 61637469 		.ascii	"action_backlight\000"
 2805      6F6E5F62 
 2805      61636B6C 
 2805      69676874 
 2805      00
 2806              	.LASF71:
 2807 0117 64656661 		.ascii	"default_layer_state_set\000"
 2807      756C745F 
 2807      6C617965 
 2807      725F7374 
 2807      6174655F 
 2808              	.LASF62:
 2809 012f 6C617965 		.ascii	"layer_move\000"
 2809      725F6D6F 
 2809      766500
 2810              	.LASF41:
 2811 013a 66756E63 		.ascii	"func\000"
 2811      00
 2812              	.LASF10:
 2813 013f 6C6F6E67 		.ascii	"long long int\000"
 2813      206C6F6E 
 2813      6720696E 
 2813      7400
 2814              	.LASF26:
 2815 014d 62697473 		.ascii	"bits\000"
 2815      00
 2816              	.LASF52:
 2817 0152 61637469 		.ascii	"action\000"
 2817      6F6E00
 2818              	.LASF28:
 2819 0159 70617274 		.ascii	"part\000"
 2819      00
 2820              	.LASF31:
 2821 015e 70616765 		.ascii	"page\000"
 2821      00
 2822              	.LASF7:
 2823 0163 6C6F6E67 		.ascii	"long int\000"
 2823      20696E74 
 2823      00
 2824              	.LASF1:
 2825 016c 5F5F7569 		.ascii	"__uint8_t\000"
 2825      6E74385F 
 2825      7400
 2826              	.LASF60:
 2827 0176 6C617965 		.ascii	"layer_off\000"
 2827      725F6F66 
 2827      6600
 2828              	.LASF66:
 2829 0180 64656661 		.ascii	"default_layer_or\000"
 2829      756C745F 
 2829      6C617965 
 2829      725F6F72 
 2829      00
ARM GAS  /var/folders/t8/16hdwfmd2fg_d3q6dgx6bpmw0000gn/T//cckCHOhb.s 			page 52


 2830              	.LASF27:
 2831 0191 78626974 		.ascii	"xbit\000"
 2831      00
 2832              	.LASF14:
 2833 0196 75696E74 		.ascii	"uint8_t\000"
 2833      385F7400 
 2834              	.LASF59:
 2835 019e 6C617965 		.ascii	"layer\000"
 2835      7200
 2836              	.LASF25:
 2837 01a4 61637469 		.ascii	"action_layer_bitop\000"
 2837      6F6E5F6C 
 2837      61796572 
 2837      5F626974 
 2837      6F7000
 2838              	.LASF3:
 2839 01b7 756E7369 		.ascii	"unsigned char\000"
 2839      676E6564 
 2839      20636861 
 2839      7200
 2840              	.LASF2:
 2841 01c5 7369676E 		.ascii	"signed char\000"
 2841      65642063 
 2841      68617200 
 2842              	.LASF11:
 2843 01d1 6C6F6E67 		.ascii	"long long unsigned int\000"
 2843      206C6F6E 
 2843      6720756E 
 2843      7369676E 
 2843      65642069 
 2844              	.LASF16:
 2845 01e8 75696E74 		.ascii	"uint32_t\000"
 2845      33325F74 
 2845      00
 2846              	.LASF12:
 2847 01f1 756E7369 		.ascii	"unsigned int\000"
 2847      676E6564 
 2847      20696E74 
 2847      00
 2848              	.LASF15:
 2849 01fe 75696E74 		.ascii	"uint16_t\000"
 2849      31365F74 
 2849      00
 2850              	.LASF22:
 2851 0207 636F6465 		.ascii	"code\000"
 2851      00
 2852              	.LASF21:
 2853 020c 61637469 		.ascii	"action_key\000"
 2853      6F6E5F6B 
 2853      657900
 2854              	.LASF48:
 2855 0217 6D6F7573 		.ascii	"mouse\000"
 2855      6500
 2856              	.LASF6:
 2857 021d 73686F72 		.ascii	"short unsigned int\000"
 2857      7420756E 
 2857      7369676E 
ARM GAS  /var/folders/t8/16hdwfmd2fg_d3q6dgx6bpmw0000gn/T//cckCHOhb.s 			page 53


 2857      65642069 
 2857      6E7400
 2858              	.LASF42:
 2859 0230 61637469 		.ascii	"action_t\000"
 2859      6F6E5F74 
 2859      00
 2860              	.LASF0:
 2861 0239 5F5F696E 		.ascii	"__int8_t\000"
 2861      74385F74 
 2861      00
 2862              	.LASF43:
 2863 0242 64656661 		.ascii	"default_layer_state\000"
 2863      756C745F 
 2863      6C617965 
 2863      725F7374 
 2863      61746500 
 2864              	.LASF69:
 2865 0256 64656661 		.ascii	"default_layer_debug\000"
 2865      756C745F 
 2865      6C617965 
 2865      725F6465 
 2865      62756700 
 2866              	.LASF53:
 2867 026a 6C617965 		.ascii	"layers\000"
 2867      727300
 2868              	.LASF36:
 2869 0271 6C617965 		.ascii	"layer_bitop\000"
 2869      725F6269 
 2869      746F7000 
 2870              	.LASF19:
 2871 027d 70617261 		.ascii	"param\000"
 2871      6D00
 2872              	.LASF18:
 2873 0283 5F426F6F 		.ascii	"_Bool\000"
 2873      6C00
 2874              	.LASF51:
 2875 0289 64656275 		.ascii	"debug_config\000"
 2875      675F636F 
 2875      6E666967 
 2875      00
 2876              	.LASF29:
 2877 0296 61637469 		.ascii	"action_layer_tap\000"
 2877      6F6E5F6C 
 2877      61796572 
 2877      5F746170 
 2877      00
 2878              	.LASF30:
 2879 02a7 61637469 		.ascii	"action_usage\000"
 2879      6F6E5F75 
 2879      73616765 
 2879      00
 2880              	.LASF67:
 2881 02b4 64656661 		.ascii	"default_layer_set\000"
 2881      756C745F 
 2881      6C617965 
 2881      725F7365 
 2881      7400
ARM GAS  /var/folders/t8/16hdwfmd2fg_d3q6dgx6bpmw0000gn/T//cckCHOhb.s 			page 54


 2882              	.LASF9:
 2883 02c6 6C6F6E67 		.ascii	"long unsigned int\000"
 2883      20756E73 
 2883      69676E65 
 2883      6420696E 
 2883      7400
 2884              	.LASF33:
 2885 02d8 6C657665 		.ascii	"level\000"
 2885      6C00
 2886              	.LASF75:
 2887 02de 686F6F6B 		.ascii	"hook_default_layer_change\000"
 2887      5F646566 
 2887      61756C74 
 2887      5F6C6179 
 2887      65725F63 
 2888              	.LASF63:
 2889 02f8 6C617965 		.ascii	"layer_clear\000"
 2889      725F636C 
 2889      65617200 
 2890              	.LASF37:
 2891 0304 6C617965 		.ascii	"layer_tap\000"
 2891      725F7461 
 2891      7000
 2892              	.LASF77:
 2893 030e 2E2E2F2E 		.ascii	"../../tmk_core/common/action_layer.c\000"
 2893      2E2F746D 
 2893      6B5F636F 
 2893      72652F63 
 2893      6F6D6D6F 
 2894              	.LASF47:
 2895 0333 6B657962 		.ascii	"keyboard\000"
 2895      6F617264 
 2895      00
 2896              	.LASF64:
 2897 033c 64656661 		.ascii	"default_layer_xor\000"
 2897      756C745F 
 2897      6C617965 
 2897      725F786F 
 2897      7200
 2898              	.LASF34:
 2899 034e 61637469 		.ascii	"action_command\000"
 2899      6F6E5F63 
 2899      6F6D6D61 
 2899      6E6400
 2900              	.LASF39:
 2901 035d 6261636B 		.ascii	"backlight\000"
 2901      6C696768 
 2901      7400
 2902              	.LASF79:
 2903 0367 6C617965 		.ascii	"layer_switch_get_action\000"
 2903      725F7377 
 2903      69746368 
 2903      5F676574 
 2903      5F616374 
 2904              	.LASF40:
 2905 037f 636F6D6D 		.ascii	"command\000"
 2905      616E6400 
ARM GAS  /var/folders/t8/16hdwfmd2fg_d3q6dgx6bpmw0000gn/T//cckCHOhb.s 			page 55


 2906              	.LASF56:
 2907 0387 6C617965 		.ascii	"layer_and\000"
 2907      725F616E 
 2907      6400
 2908              	.LASF46:
 2909 0391 6D617472 		.ascii	"matrix\000"
 2909      697800
 2910              	.LASF20:
 2911 0398 61637469 		.ascii	"action_kind\000"
 2911      6F6E5F6B 
 2911      696E6400 
 2912              	.LASF49:
 2913 03a4 72657365 		.ascii	"reserved\000"
 2913      72766564 
 2913      00
 2914              	.LASF44:
 2915 03ad 6C617965 		.ascii	"layer_state\000"
 2915      725F7374 
 2915      61746500 
 2916              	.LASF74:
 2917 03b9 636C6561 		.ascii	"clear_keyboard_but_mods\000"
 2917      725F6B65 
 2917      79626F61 
 2917      72645F62 
 2917      75745F6D 
 2918              	.LASF68:
 2919 03d1 6C617965 		.ascii	"layer_debug\000"
 2919      725F6465 
 2919      62756700 
 2920              	.LASF35:
 2921 03dd 61637469 		.ascii	"action_function\000"
 2921      6F6E5F66 
 2921      756E6374 
 2921      696F6E00 
 2922              	.LASF17:
 2923 03ed 6B657970 		.ascii	"keypos_t\000"
 2923      6F735F74 
 2923      00
 2924              	.LASF76:
 2925 03f6 474E5520 		.ascii	"GNU C99 7.2.1 20170904 (release) [ARM/embedded-7-br"
 2925      43393920 
 2925      372E322E 
 2925      31203230 
 2925      31373039 
 2926 0429 616E6368 		.ascii	"anch revision 255204] -mcpu=cortex-m0plus -mno-thum"
 2926      20726576 
 2926      6973696F 
 2926      6E203235 
 2926      35323034 
 2927 045c 622D696E 		.ascii	"b-interwork -mthumb -ggdb -O2 -std=gnu99 -fomit-fra"
 2927      74657277 
 2927      6F726B20 
 2927      2D6D7468 
 2927      756D6220 
 2928 048f 6D652D70 		.ascii	"me-pointer -falign-functions=16 -ffunction-sections"
 2928      6F696E74 
 2928      6572202D 
ARM GAS  /var/folders/t8/16hdwfmd2fg_d3q6dgx6bpmw0000gn/T//cckCHOhb.s 			page 56


 2928      66616C69 
 2928      676E2D66 
 2929 04c2 202D6664 		.ascii	" -fdata-sections -fno-common\000"
 2929      6174612D 
 2929      73656374 
 2929      696F6E73 
 2929      202D666E 
 2930              		.ident	"GCC: (GNU Tools for Arm Embedded Processors 7-2017-q4-major) 7.2.1 20170904 (release) [ARM
ARM GAS  /var/folders/t8/16hdwfmd2fg_d3q6dgx6bpmw0000gn/T//cckCHOhb.s 			page 57


DEFINED SYMBOLS
                            *ABS*:0000000000000000 action_layer.c
/var/folders/t8/16hdwfmd2fg_d3q6dgx6bpmw0000gn/T//cckCHOhb.s:16     .text.default_layer_debug:0000000000000000 $t
/var/folders/t8/16hdwfmd2fg_d3q6dgx6bpmw0000gn/T//cckCHOhb.s:24     .text.default_layer_debug:0000000000000000 default_layer_debug
/var/folders/t8/16hdwfmd2fg_d3q6dgx6bpmw0000gn/T//cckCHOhb.s:39     .text.default_layer_set:0000000000000000 $t
/var/folders/t8/16hdwfmd2fg_d3q6dgx6bpmw0000gn/T//cckCHOhb.s:47     .text.default_layer_set:0000000000000000 default_layer_set
/var/folders/t8/16hdwfmd2fg_d3q6dgx6bpmw0000gn/T//cckCHOhb.s:83     .text.default_layer_set:0000000000000010 $d
/var/folders/t8/16hdwfmd2fg_d3q6dgx6bpmw0000gn/T//cckCHOhb.s:88     .text.default_layer_or:0000000000000000 $t
/var/folders/t8/16hdwfmd2fg_d3q6dgx6bpmw0000gn/T//cckCHOhb.s:96     .text.default_layer_or:0000000000000000 default_layer_or
/var/folders/t8/16hdwfmd2fg_d3q6dgx6bpmw0000gn/T//cckCHOhb.s:132    .text.default_layer_or:0000000000000014 $d
/var/folders/t8/16hdwfmd2fg_d3q6dgx6bpmw0000gn/T//cckCHOhb.s:137    .text.default_layer_and:0000000000000000 $t
/var/folders/t8/16hdwfmd2fg_d3q6dgx6bpmw0000gn/T//cckCHOhb.s:145    .text.default_layer_and:0000000000000000 default_layer_and
/var/folders/t8/16hdwfmd2fg_d3q6dgx6bpmw0000gn/T//cckCHOhb.s:181    .text.default_layer_and:0000000000000014 $d
/var/folders/t8/16hdwfmd2fg_d3q6dgx6bpmw0000gn/T//cckCHOhb.s:186    .text.default_layer_xor:0000000000000000 $t
/var/folders/t8/16hdwfmd2fg_d3q6dgx6bpmw0000gn/T//cckCHOhb.s:194    .text.default_layer_xor:0000000000000000 default_layer_xor
/var/folders/t8/16hdwfmd2fg_d3q6dgx6bpmw0000gn/T//cckCHOhb.s:230    .text.default_layer_xor:0000000000000014 $d
/var/folders/t8/16hdwfmd2fg_d3q6dgx6bpmw0000gn/T//cckCHOhb.s:235    .text.layer_clear:0000000000000000 $t
/var/folders/t8/16hdwfmd2fg_d3q6dgx6bpmw0000gn/T//cckCHOhb.s:243    .text.layer_clear:0000000000000000 layer_clear
/var/folders/t8/16hdwfmd2fg_d3q6dgx6bpmw0000gn/T//cckCHOhb.s:288    .text.layer_clear:0000000000000014 $d
/var/folders/t8/16hdwfmd2fg_d3q6dgx6bpmw0000gn/T//cckCHOhb.s:293    .text.layer_move:0000000000000000 $t
/var/folders/t8/16hdwfmd2fg_d3q6dgx6bpmw0000gn/T//cckCHOhb.s:301    .text.layer_move:0000000000000000 layer_move
/var/folders/t8/16hdwfmd2fg_d3q6dgx6bpmw0000gn/T//cckCHOhb.s:343    .text.layer_move:0000000000000018 $d
/var/folders/t8/16hdwfmd2fg_d3q6dgx6bpmw0000gn/T//cckCHOhb.s:348    .text.layer_on:0000000000000000 $t
/var/folders/t8/16hdwfmd2fg_d3q6dgx6bpmw0000gn/T//cckCHOhb.s:356    .text.layer_on:0000000000000000 layer_on
/var/folders/t8/16hdwfmd2fg_d3q6dgx6bpmw0000gn/T//cckCHOhb.s:398    .text.layer_on:000000000000001c $d
/var/folders/t8/16hdwfmd2fg_d3q6dgx6bpmw0000gn/T//cckCHOhb.s:403    .text.layer_off:0000000000000000 $t
/var/folders/t8/16hdwfmd2fg_d3q6dgx6bpmw0000gn/T//cckCHOhb.s:411    .text.layer_off:0000000000000000 layer_off
/var/folders/t8/16hdwfmd2fg_d3q6dgx6bpmw0000gn/T//cckCHOhb.s:452    .text.layer_off:0000000000000018 $d
/var/folders/t8/16hdwfmd2fg_d3q6dgx6bpmw0000gn/T//cckCHOhb.s:457    .text.layer_invert:0000000000000000 $t
/var/folders/t8/16hdwfmd2fg_d3q6dgx6bpmw0000gn/T//cckCHOhb.s:465    .text.layer_invert:0000000000000000 layer_invert
/var/folders/t8/16hdwfmd2fg_d3q6dgx6bpmw0000gn/T//cckCHOhb.s:507    .text.layer_invert:000000000000001c $d
/var/folders/t8/16hdwfmd2fg_d3q6dgx6bpmw0000gn/T//cckCHOhb.s:512    .text.layer_or:0000000000000000 $t
/var/folders/t8/16hdwfmd2fg_d3q6dgx6bpmw0000gn/T//cckCHOhb.s:520    .text.layer_or:0000000000000000 layer_or
/var/folders/t8/16hdwfmd2fg_d3q6dgx6bpmw0000gn/T//cckCHOhb.s:556    .text.layer_or:0000000000000014 $d
/var/folders/t8/16hdwfmd2fg_d3q6dgx6bpmw0000gn/T//cckCHOhb.s:561    .text.layer_and:0000000000000000 $t
/var/folders/t8/16hdwfmd2fg_d3q6dgx6bpmw0000gn/T//cckCHOhb.s:569    .text.layer_and:0000000000000000 layer_and
/var/folders/t8/16hdwfmd2fg_d3q6dgx6bpmw0000gn/T//cckCHOhb.s:605    .text.layer_and:0000000000000014 $d
/var/folders/t8/16hdwfmd2fg_d3q6dgx6bpmw0000gn/T//cckCHOhb.s:610    .text.layer_xor:0000000000000000 $t
/var/folders/t8/16hdwfmd2fg_d3q6dgx6bpmw0000gn/T//cckCHOhb.s:618    .text.layer_xor:0000000000000000 layer_xor
/var/folders/t8/16hdwfmd2fg_d3q6dgx6bpmw0000gn/T//cckCHOhb.s:654    .text.layer_xor:0000000000000014 $d
/var/folders/t8/16hdwfmd2fg_d3q6dgx6bpmw0000gn/T//cckCHOhb.s:659    .text.layer_debug:0000000000000000 $t
/var/folders/t8/16hdwfmd2fg_d3q6dgx6bpmw0000gn/T//cckCHOhb.s:667    .text.layer_debug:0000000000000000 layer_debug
/var/folders/t8/16hdwfmd2fg_d3q6dgx6bpmw0000gn/T//cckCHOhb.s:679    .text.layer_switch_get_action:0000000000000000 $t
/var/folders/t8/16hdwfmd2fg_d3q6dgx6bpmw0000gn/T//cckCHOhb.s:687    .text.layer_switch_get_action:0000000000000000 layer_switch_get_action
/var/folders/t8/16hdwfmd2fg_d3q6dgx6bpmw0000gn/T//cckCHOhb.s:766    .text.layer_switch_get_action:0000000000000040 $d
/var/folders/t8/16hdwfmd2fg_d3q6dgx6bpmw0000gn/T//cckCHOhb.s:785    .bss.layer_state:0000000000000000 layer_state
/var/folders/t8/16hdwfmd2fg_d3q6dgx6bpmw0000gn/T//cckCHOhb.s:778    .bss.default_layer_state:0000000000000000 default_layer_state
/var/folders/t8/16hdwfmd2fg_d3q6dgx6bpmw0000gn/T//cckCHOhb.s:774    .bss.default_layer_state:0000000000000000 $d
/var/folders/t8/16hdwfmd2fg_d3q6dgx6bpmw0000gn/T//cckCHOhb.s:781    .bss.layer_state:0000000000000000 $d

UNDEFINED SYMBOLS
hook_default_layer_change
clear_keyboard_but_mods
hook_layer_change
action_for_key
