ARM GAS  /var/folders/t8/16hdwfmd2fg_d3q6dgx6bpmw0000gn/T//cc30os3f.s 			page 1


   1              		.cpu cortex-m0plus
   2              		.eabi_attribute 20, 1
   3              		.eabi_attribute 21, 1
   4              		.eabi_attribute 23, 3
   5              		.eabi_attribute 24, 1
   6              		.eabi_attribute 25, 1
   7              		.eabi_attribute 26, 1
   8              		.eabi_attribute 30, 2
   9              		.eabi_attribute 34, 0
  10              		.eabi_attribute 18, 4
  11              		.file	"chcond.c"
  12              		.text
  13              	.Ltext0:
  14              		.cfi_sections	.debug_frame
  15              		.section	.text.chCondObjectInit,"ax",%progbits
  16              		.align	1
  17              		.p2align 4,,15
  18              		.global	chCondObjectInit
  19              		.syntax unified
  20              		.code	16
  21              		.thumb_func
  22              		.fpu softvfp
  23              		.type	chCondObjectInit, %function
  24              	chCondObjectInit:
  25              	.LFB138:
  26              		.file 1 "../../tmk_core/tool/chibios/ChibiOS/os/rt/src/chcond.c"
  27              		.loc 1 75 0
  28              		.cfi_startproc
  29              		@ args = 0, pretend = 0, frame = 0
  30              		@ frame_needed = 0, uses_anonymous_args = 0
  31              	.LVL0:
  32 0000 10B5     		push	{r4, lr}
  33              		.cfi_def_cfa_offset 8
  34              		.cfi_offset 4, -8
  35              		.cfi_offset 14, -4
  36              		.loc 1 75 0
  37 0002 041E     		subs	r4, r0, #0
  38              		.loc 1 77 0
  39 0004 02D0     		beq	.L4
  40              	.LVL1:
  41              	.L2:
  42              	.LBB63:
  43              	.LBB64:
  44              		.file 2 "../../tmk_core/tool/chibios/ChibiOS/os/rt/include/chschd.h"
  45              		.loc 2 550 0
  46 0006 2460     		str	r4, [r4]
  47              		.loc 2 551 0
  48 0008 6460     		str	r4, [r4, #4]
  49              	.LVL2:
  50              	.LBE64:
  51              	.LBE63:
  52              		.loc 1 80 0
  53              		@ sp needed
  54              	.LVL3:
  55 000a 10BD     		pop	{r4, pc}
  56              	.LVL4:
  57              	.L4:
ARM GAS  /var/folders/t8/16hdwfmd2fg_d3q6dgx6bpmw0000gn/T//cc30os3f.s 			page 2


  58              		.loc 1 77 0 discriminator 2
  59 000c 0148     		ldr	r0, .L5
  60              	.LVL5:
  61 000e FFF7FEFF 		bl	chSysHalt
  62              	.LVL6:
  63 0012 F8E7     		b	.L2
  64              	.L6:
  65              		.align	2
  66              	.L5:
  67 0014 00000000 		.word	.LANCHOR0
  68              		.cfi_endproc
  69              	.LFE138:
  70              		.size	chCondObjectInit, .-chCondObjectInit
  71              		.section	.text.chCondSignal,"ax",%progbits
  72              		.align	1
  73              		.p2align 4,,15
  74              		.global	chCondSignal
  75              		.syntax unified
  76              		.code	16
  77              		.thumb_func
  78              		.fpu softvfp
  79              		.type	chCondSignal, %function
  80              	chCondSignal:
  81              	.LFB139:
  82              		.loc 1 89 0
  83              		.cfi_startproc
  84              		@ args = 0, pretend = 0, frame = 0
  85              		@ frame_needed = 0, uses_anonymous_args = 0
  86              	.LVL7:
  87 0000 10B5     		push	{r4, lr}
  88              		.cfi_def_cfa_offset 8
  89              		.cfi_offset 4, -8
  90              		.cfi_offset 14, -4
  91              		.loc 1 89 0
  92 0002 041E     		subs	r4, r0, #0
  93              		.loc 1 91 0
  94 0004 1CD0     		beq	.L11
  95              	.LVL8:
  96              	.L8:
  97              	.LBB79:
  98              	.LBB80:
  99              	.LBB81:
 100              	.LBB82:
 101              	.LBB83:
 102              		.file 3 "../../tmk_core/tool/chibios/ChibiOS/os/common/ext/CMSIS/include/cmsis_gcc.h"
 103              		.loc 3 71 0
 104              		.syntax divided
 105              	@ 71 "../../tmk_core/tool/chibios/ChibiOS/os/common/ext/CMSIS/include/cmsis_gcc.h" 1
 106 0006 72B6     		cpsid i
 107              	@ 0 "" 2
 108              		.thumb
 109              		.syntax unified
 110              	.LBE83:
 111              	.LBE82:
 112              	.LBE81:
 113              		.file 4 "../../tmk_core/tool/chibios/ChibiOS/os/rt/include/chsys.h"
 114              		.loc 4 378 0
ARM GAS  /var/folders/t8/16hdwfmd2fg_d3q6dgx6bpmw0000gn/T//cc30os3f.s 			page 3


 115 0008 FFF7FEFF 		bl	_dbg_check_lock
 116              	.LVL9:
 117              	.LBE80:
 118              	.LBE79:
 119              	.LBB84:
 120              	.LBB85:
 121              		.loc 2 577 0
 122 000c 2068     		ldr	r0, [r4]
 123              	.LVL10:
 124              	.LBE85:
 125              	.LBE84:
 126              		.loc 1 94 0
 127 000e 8442     		cmp	r4, r0
 128 0010 05D0     		beq	.L9
 129              	.LVL11:
 130              	.LBB86:
 131              	.LBB87:
 132              		.loc 2 620 0
 133 0012 0368     		ldr	r3, [r0]
 134              	.LBE87:
 135              	.LBE86:
 136              		.loc 1 95 0
 137 0014 0021     		movs	r1, #0
 138              	.LBB89:
 139              	.LBB88:
 140              		.loc 2 620 0
 141 0016 2360     		str	r3, [r4]
 142              		.loc 2 621 0
 143 0018 5C60     		str	r4, [r3, #4]
 144              	.LVL12:
 145              	.LBE88:
 146              	.LBE89:
 147              		.loc 1 95 0
 148 001a FFF7FEFF 		bl	chSchWakeupS
 149              	.LVL13:
 150              	.L9:
 151              	.LBB90:
 152              	.LBB91:
 153              		.loc 4 388 0
 154 001e FFF7FEFF 		bl	_dbg_check_unlock
 155              	.LVL14:
 156              		.loc 4 395 0
 157 0022 094B     		ldr	r3, .L13
 158 0024 1A68     		ldr	r2, [r3]
 159 0026 9A42     		cmp	r2, r3
 160 0028 04D0     		beq	.L10
 161 002a 9B69     		ldr	r3, [r3, #24]
 162 002c 9968     		ldr	r1, [r3, #8]
 163 002e 9368     		ldr	r3, [r2, #8]
 164 0030 9942     		cmp	r1, r3
 165 0032 01D3     		bcc	.L12
 166              	.L10:
 167              	.LBB92:
 168              	.LBB93:
 169              	.LBB94:
 170              		.loc 3 60 0
 171              		.syntax divided
ARM GAS  /var/folders/t8/16hdwfmd2fg_d3q6dgx6bpmw0000gn/T//cc30os3f.s 			page 4


 172              	@ 60 "../../tmk_core/tool/chibios/ChibiOS/os/common/ext/CMSIS/include/cmsis_gcc.h" 1
 173 0034 62B6     		cpsie i
 174              	@ 0 "" 2
 175              		.thumb
 176              		.syntax unified
 177              	.LBE94:
 178              	.LBE93:
 179              	.LBE92:
 180              	.LBE91:
 181              	.LBE90:
 182              		.loc 1 98 0
 183              		@ sp needed
 184              	.LVL15:
 185 0036 10BD     		pop	{r4, pc}
 186              	.LVL16:
 187              	.L12:
 188              	.LBB96:
 189              	.LBB95:
 190              		.loc 4 395 0
 191 0038 0448     		ldr	r0, .L13+4
 192 003a FFF7FEFF 		bl	chSysHalt
 193              	.LVL17:
 194 003e F9E7     		b	.L10
 195              	.LVL18:
 196              	.L11:
 197              	.LBE95:
 198              	.LBE96:
 199              		.loc 1 91 0 discriminator 2
 200 0040 0348     		ldr	r0, .L13+8
 201              	.LVL19:
 202 0042 FFF7FEFF 		bl	chSysHalt
 203              	.LVL20:
 204 0046 DEE7     		b	.L8
 205              	.L14:
 206              		.align	2
 207              	.L13:
 208 0048 00000000 		.word	ch
 209 004c 00000000 		.word	.LANCHOR2
 210 0050 00000000 		.word	.LANCHOR1
 211              		.cfi_endproc
 212              	.LFE139:
 213              		.size	chCondSignal, .-chCondSignal
 214              		.section	.text.chCondSignalI,"ax",%progbits
 215              		.align	1
 216              		.p2align 4,,15
 217              		.global	chCondSignalI
 218              		.syntax unified
 219              		.code	16
 220              		.thumb_func
 221              		.fpu softvfp
 222              		.type	chCondSignalI, %function
 223              	chCondSignalI:
 224              	.LFB140:
 225              		.loc 1 111 0
 226              		.cfi_startproc
 227              		@ args = 0, pretend = 0, frame = 0
 228              		@ frame_needed = 0, uses_anonymous_args = 0
ARM GAS  /var/folders/t8/16hdwfmd2fg_d3q6dgx6bpmw0000gn/T//cc30os3f.s 			page 5


 229              	.LVL21:
 230 0000 10B5     		push	{r4, lr}
 231              		.cfi_def_cfa_offset 8
 232              		.cfi_offset 4, -8
 233              		.cfi_offset 14, -4
 234              		.loc 1 111 0
 235 0002 0400     		movs	r4, r0
 236              		.loc 1 113 0
 237 0004 FFF7FEFF 		bl	chDbgCheckClassI
 238              	.LVL22:
 239              		.loc 1 114 0
 240 0008 002C     		cmp	r4, #0
 241 000a 0AD0     		beq	.L18
 242              	.L16:
 243              	.LVL23:
 244              	.LBB97:
 245              	.LBB98:
 246              		.loc 2 577 0
 247 000c 2068     		ldr	r0, [r4]
 248              	.LVL24:
 249              	.LBE98:
 250              	.LBE97:
 251              		.loc 1 116 0
 252 000e 8442     		cmp	r4, r0
 253 0010 06D0     		beq	.L15
 254              	.LVL25:
 255              	.LBB99:
 256              	.LBB100:
 257              	.LBB101:
 258              		.loc 2 620 0
 259 0012 0368     		ldr	r3, [r0]
 260 0014 2360     		str	r3, [r4]
 261              		.loc 2 621 0
 262 0016 5C60     		str	r4, [r3, #4]
 263              	.LVL26:
 264              	.LBE101:
 265              	.LBE100:
 266              		.loc 1 118 0
 267 0018 0023     		movs	r3, #0
 268 001a 4362     		str	r3, [r0, #36]
 269              		.loc 1 119 0
 270 001c FFF7FEFF 		bl	chSchReadyI
 271              	.LVL27:
 272              	.L15:
 273              	.LBE99:
 274              		.loc 1 121 0
 275              		@ sp needed
 276              	.LVL28:
 277 0020 10BD     		pop	{r4, pc}
 278              	.LVL29:
 279              	.L18:
 280              		.loc 1 114 0 discriminator 2
 281 0022 0248     		ldr	r0, .L19
 282 0024 FFF7FEFF 		bl	chSysHalt
 283              	.LVL30:
 284 0028 F0E7     		b	.L16
 285              	.L20:
ARM GAS  /var/folders/t8/16hdwfmd2fg_d3q6dgx6bpmw0000gn/T//cc30os3f.s 			page 6


 286 002a C046     		.align	2
 287              	.L19:
 288 002c 00000000 		.word	.LANCHOR3
 289              		.cfi_endproc
 290              	.LFE140:
 291              		.size	chCondSignalI, .-chCondSignalI
 292              		.section	.text.chCondBroadcastI,"ax",%progbits
 293              		.align	1
 294              		.p2align 4,,15
 295              		.global	chCondBroadcastI
 296              		.syntax unified
 297              		.code	16
 298              		.thumb_func
 299              		.fpu softvfp
 300              		.type	chCondBroadcastI, %function
 301              	chCondBroadcastI:
 302              	.LFB142:
 303              		.loc 1 149 0
 304              		.cfi_startproc
 305              		@ args = 0, pretend = 0, frame = 0
 306              		@ frame_needed = 0, uses_anonymous_args = 0
 307              	.LVL31:
 308 0000 70B5     		push	{r4, r5, r6, lr}
 309              		.cfi_def_cfa_offset 16
 310              		.cfi_offset 4, -16
 311              		.cfi_offset 5, -12
 312              		.cfi_offset 6, -8
 313              		.cfi_offset 14, -4
 314              		.loc 1 149 0
 315 0002 0400     		movs	r4, r0
 316              		.loc 1 151 0
 317 0004 FFF7FEFF 		bl	chDbgCheckClassI
 318              	.LVL32:
 319              		.loc 1 152 0
 320 0008 002C     		cmp	r4, #0
 321 000a 0ED0     		beq	.L26
 322              	.L22:
 323              	.LVL33:
 324              	.LBB102:
 325              	.LBB103:
 326              		.loc 2 577 0
 327 000c 2068     		ldr	r0, [r4]
 328              	.LVL34:
 329              	.LBE103:
 330              	.LBE102:
 331              		.loc 1 157 0
 332 000e A042     		cmp	r0, r4
 333 0010 0AD0     		beq	.L21
 334              		.loc 1 158 0
 335 0012 0225     		movs	r5, #2
 336 0014 6D42     		rsbs	r5, r5, #0
 337              	.L24:
 338              	.LVL35:
 339              	.LBB105:
 340              	.LBB106:
 341              		.loc 2 620 0
 342 0016 0368     		ldr	r3, [r0]
ARM GAS  /var/folders/t8/16hdwfmd2fg_d3q6dgx6bpmw0000gn/T//cc30os3f.s 			page 7


 343 0018 2360     		str	r3, [r4]
 344              		.loc 2 621 0
 345 001a 5C60     		str	r4, [r3, #4]
 346              	.LVL36:
 347              	.LBE106:
 348              	.LBE105:
 349              		.loc 1 158 0
 350 001c FFF7FEFF 		bl	chSchReadyI
 351              	.LVL37:
 352 0020 4562     		str	r5, [r0, #36]
 353              	.LVL38:
 354              	.LBB107:
 355              	.LBB104:
 356              		.loc 2 577 0
 357 0022 2068     		ldr	r0, [r4]
 358              	.LVL39:
 359              	.LBE104:
 360              	.LBE107:
 361              		.loc 1 157 0
 362 0024 A042     		cmp	r0, r4
 363 0026 F6D1     		bne	.L24
 364              	.L21:
 365              		.loc 1 160 0
 366              		@ sp needed
 367              	.LVL40:
 368 0028 70BD     		pop	{r4, r5, r6, pc}
 369              	.LVL41:
 370              	.L26:
 371              		.loc 1 152 0 discriminator 2
 372 002a 0248     		ldr	r0, .L27
 373 002c FFF7FEFF 		bl	chSysHalt
 374              	.LVL42:
 375 0030 ECE7     		b	.L22
 376              	.L28:
 377 0032 C046     		.align	2
 378              	.L27:
 379 0034 00000000 		.word	.LANCHOR4
 380              		.cfi_endproc
 381              	.LFE142:
 382              		.size	chCondBroadcastI, .-chCondBroadcastI
 383              		.section	.text.chCondBroadcast,"ax",%progbits
 384              		.align	1
 385              		.p2align 4,,15
 386              		.global	chCondBroadcast
 387              		.syntax unified
 388              		.code	16
 389              		.thumb_func
 390              		.fpu softvfp
 391              		.type	chCondBroadcast, %function
 392              	chCondBroadcast:
 393              	.LFB141:
 394              		.loc 1 130 0
 395              		.cfi_startproc
 396              		@ args = 0, pretend = 0, frame = 0
 397              		@ frame_needed = 0, uses_anonymous_args = 0
 398              	.LVL43:
 399 0000 10B5     		push	{r4, lr}
ARM GAS  /var/folders/t8/16hdwfmd2fg_d3q6dgx6bpmw0000gn/T//cc30os3f.s 			page 8


 400              		.cfi_def_cfa_offset 8
 401              		.cfi_offset 4, -8
 402              		.cfi_offset 14, -4
 403              		.loc 1 130 0
 404 0002 0400     		movs	r4, r0
 405              	.LBB118:
 406              	.LBB119:
 407              	.LBB120:
 408              	.LBB121:
 409              	.LBB122:
 410              		.loc 3 71 0
 411              		.syntax divided
 412              	@ 71 "../../tmk_core/tool/chibios/ChibiOS/os/common/ext/CMSIS/include/cmsis_gcc.h" 1
 413 0004 72B6     		cpsid i
 414              	@ 0 "" 2
 415              		.thumb
 416              		.syntax unified
 417              	.LBE122:
 418              	.LBE121:
 419              	.LBE120:
 420              		.loc 4 378 0
 421 0006 FFF7FEFF 		bl	_dbg_check_lock
 422              	.LVL44:
 423              	.LBE119:
 424              	.LBE118:
 425              		.loc 1 133 0
 426 000a 2000     		movs	r0, r4
 427 000c FFF7FEFF 		bl	chCondBroadcastI
 428              	.LVL45:
 429              		.loc 1 134 0
 430 0010 FFF7FEFF 		bl	chSchRescheduleS
 431              	.LVL46:
 432              	.LBB123:
 433              	.LBB124:
 434              		.loc 4 388 0
 435 0014 FFF7FEFF 		bl	_dbg_check_unlock
 436              	.LVL47:
 437              		.loc 4 395 0
 438 0018 074B     		ldr	r3, .L32
 439 001a 1A68     		ldr	r2, [r3]
 440 001c 9A42     		cmp	r2, r3
 441 001e 04D0     		beq	.L30
 442 0020 9B69     		ldr	r3, [r3, #24]
 443 0022 9968     		ldr	r1, [r3, #8]
 444 0024 9368     		ldr	r3, [r2, #8]
 445 0026 9942     		cmp	r1, r3
 446 0028 01D3     		bcc	.L31
 447              	.L30:
 448              	.LBB125:
 449              	.LBB126:
 450              	.LBB127:
 451              		.loc 3 60 0
 452              		.syntax divided
 453              	@ 60 "../../tmk_core/tool/chibios/ChibiOS/os/common/ext/CMSIS/include/cmsis_gcc.h" 1
 454 002a 62B6     		cpsie i
 455              	@ 0 "" 2
 456              		.thumb
ARM GAS  /var/folders/t8/16hdwfmd2fg_d3q6dgx6bpmw0000gn/T//cc30os3f.s 			page 9


 457              		.syntax unified
 458              	.LBE127:
 459              	.LBE126:
 460              	.LBE125:
 461              	.LBE124:
 462              	.LBE123:
 463              		.loc 1 136 0
 464              		@ sp needed
 465              	.LVL48:
 466 002c 10BD     		pop	{r4, pc}
 467              	.LVL49:
 468              	.L31:
 469              	.LBB129:
 470              	.LBB128:
 471              		.loc 4 395 0
 472 002e 0348     		ldr	r0, .L32+4
 473 0030 FFF7FEFF 		bl	chSysHalt
 474              	.LVL50:
 475 0034 F9E7     		b	.L30
 476              	.L33:
 477 0036 C046     		.align	2
 478              	.L32:
 479 0038 00000000 		.word	ch
 480 003c 00000000 		.word	.LANCHOR2
 481              	.LBE128:
 482              	.LBE129:
 483              		.cfi_endproc
 484              	.LFE141:
 485              		.size	chCondBroadcast, .-chCondBroadcast
 486              		.section	.text.chCondWaitS,"ax",%progbits
 487              		.align	1
 488              		.p2align 4,,15
 489              		.global	chCondWaitS
 490              		.syntax unified
 491              		.code	16
 492              		.thumb_func
 493              		.fpu softvfp
 494              		.type	chCondWaitS, %function
 495              	chCondWaitS:
 496              	.LFB144:
 497              		.loc 1 205 0
 498              		.cfi_startproc
 499              		@ args = 0, pretend = 0, frame = 0
 500              		@ frame_needed = 0, uses_anonymous_args = 0
 501              	.LVL51:
 502 0000 70B5     		push	{r4, r5, r6, lr}
 503              		.cfi_def_cfa_offset 16
 504              		.cfi_offset 4, -16
 505              		.cfi_offset 5, -12
 506              		.cfi_offset 6, -8
 507              		.cfi_offset 14, -4
 508              		.loc 1 206 0
 509 0002 194E     		ldr	r6, .L44
 510              		.loc 1 205 0
 511 0004 0500     		movs	r5, r0
 512              		.loc 1 206 0
 513 0006 B469     		ldr	r4, [r6, #24]
ARM GAS  /var/folders/t8/16hdwfmd2fg_d3q6dgx6bpmw0000gn/T//cc30os3f.s 			page 10


 514              	.LVL52:
 515              		.loc 1 210 0
 516 0008 FFF7FEFF 		bl	chDbgCheckClassS
 517              	.LVL53:
 518              		.loc 1 211 0
 519 000c 002D     		cmp	r5, #0
 520 000e 26D0     		beq	.L40
 521              	.L35:
 522              		.loc 1 212 0 discriminator 1
 523 0010 A36B     		ldr	r3, [r4, #56]
 524 0012 002B     		cmp	r3, #0
 525 0014 1FD0     		beq	.L41
 526              	.L36:
 527              	.LBB130:
 528              	.LBB131:
 529              		.file 5 "../../tmk_core/tool/chibios/ChibiOS/os/rt/include/chmtx.h"
 530              		.loc 5 146 0
 531 0016 B369     		ldr	r3, [r6, #24]
 532 0018 9E6B     		ldr	r6, [r3, #56]
 533              	.LBE131:
 534              	.LBE130:
 535              		.loc 1 216 0
 536 001a 3000     		movs	r0, r6
 537 001c FFF7FEFF 		bl	chMtxUnlockS
 538              	.LVL54:
 539              		.loc 1 220 0
 540 0020 6562     		str	r5, [r4, #36]
 541              		.loc 1 221 0
 542 0022 2A00     		movs	r2, r5
 543              	.LVL55:
 544 0024 2B00     		movs	r3, r5
 545 0026 03E0     		b	.L38
 546              	.LVL56:
 547              	.L43:
 548              	.LBB132:
 549              	.LBB133:
 550              		.loc 2 602 0
 551 0028 9968     		ldr	r1, [r3, #8]
 552 002a A068     		ldr	r0, [r4, #8]
 553 002c 8142     		cmp	r1, r0
 554 002e 10D3     		bcc	.L42
 555              	.LVL57:
 556              	.L38:
 557              		.loc 2 601 0
 558 0030 1B68     		ldr	r3, [r3]
 559              	.LVL58:
 560              		.loc 2 602 0
 561 0032 9D42     		cmp	r5, r3
 562 0034 F8D1     		bne	.L43
 563              	.LVL59:
 564              	.L37:
 565              		.loc 2 604 0
 566 0036 5368     		ldr	r3, [r2, #4]
 567              	.LVL60:
 568              		.loc 2 603 0
 569 0038 2260     		str	r2, [r4]
 570              		.loc 2 604 0
ARM GAS  /var/folders/t8/16hdwfmd2fg_d3q6dgx6bpmw0000gn/T//cc30os3f.s 			page 11


 571 003a 6360     		str	r3, [r4, #4]
 572              	.LBE133:
 573              	.LBE132:
 574              		.loc 1 222 0
 575 003c 0720     		movs	r0, #7
 576              	.LBB136:
 577              	.LBB134:
 578              		.loc 2 605 0
 579 003e 1C60     		str	r4, [r3]
 580              		.loc 2 606 0
 581 0040 5460     		str	r4, [r2, #4]
 582              	.LVL61:
 583              	.LBE134:
 584              	.LBE136:
 585              		.loc 1 222 0
 586 0042 FFF7FEFF 		bl	chSchGoSleepS
 587              	.LVL62:
 588              		.loc 1 223 0
 589 0046 646A     		ldr	r4, [r4, #36]
 590              	.LVL63:
 591              		.loc 1 224 0
 592 0048 3000     		movs	r0, r6
 593 004a FFF7FEFF 		bl	chMtxLockS
 594              	.LVL64:
 595              		.loc 1 227 0
 596              		@ sp needed
 597 004e 2000     		movs	r0, r4
 598              	.LVL65:
 599              	.LVL66:
 600 0050 70BD     		pop	{r4, r5, r6, pc}
 601              	.LVL67:
 602              	.L42:
 603              	.LBB137:
 604              	.LBB135:
 605              		.loc 2 601 0
 606 0052 1A00     		movs	r2, r3
 607              	.LVL68:
 608 0054 EFE7     		b	.L37
 609              	.LVL69:
 610              	.L41:
 611              	.LBE135:
 612              	.LBE137:
 613              		.loc 1 212 0 discriminator 2
 614 0056 0548     		ldr	r0, .L44+4
 615 0058 FFF7FEFF 		bl	chSysHalt
 616              	.LVL70:
 617 005c DBE7     		b	.L36
 618              	.L40:
 619              		.loc 1 211 0 discriminator 2
 620 005e 0348     		ldr	r0, .L44+4
 621 0060 FFF7FEFF 		bl	chSysHalt
 622              	.LVL71:
 623 0064 D4E7     		b	.L35
 624              	.L45:
 625 0066 C046     		.align	2
 626              	.L44:
 627 0068 00000000 		.word	ch
ARM GAS  /var/folders/t8/16hdwfmd2fg_d3q6dgx6bpmw0000gn/T//cc30os3f.s 			page 12


 628 006c 00000000 		.word	.LANCHOR5
 629              		.cfi_endproc
 630              	.LFE144:
 631              		.size	chCondWaitS, .-chCondWaitS
 632              		.section	.text.chCondWait,"ax",%progbits
 633              		.align	1
 634              		.p2align 4,,15
 635              		.global	chCondWait
 636              		.syntax unified
 637              		.code	16
 638              		.thumb_func
 639              		.fpu softvfp
 640              		.type	chCondWait, %function
 641              	chCondWait:
 642              	.LFB143:
 643              		.loc 1 179 0
 644              		.cfi_startproc
 645              		@ args = 0, pretend = 0, frame = 0
 646              		@ frame_needed = 0, uses_anonymous_args = 0
 647              	.LVL72:
 648 0000 10B5     		push	{r4, lr}
 649              		.cfi_def_cfa_offset 8
 650              		.cfi_offset 4, -8
 651              		.cfi_offset 14, -4
 652              		.loc 1 179 0
 653 0002 0400     		movs	r4, r0
 654              	.LBB148:
 655              	.LBB149:
 656              	.LBB150:
 657              	.LBB151:
 658              	.LBB152:
 659              		.loc 3 71 0
 660              		.syntax divided
 661              	@ 71 "../../tmk_core/tool/chibios/ChibiOS/os/common/ext/CMSIS/include/cmsis_gcc.h" 1
 662 0004 72B6     		cpsid i
 663              	@ 0 "" 2
 664              		.thumb
 665              		.syntax unified
 666              	.LBE152:
 667              	.LBE151:
 668              	.LBE150:
 669              		.loc 4 378 0
 670 0006 FFF7FEFF 		bl	_dbg_check_lock
 671              	.LVL73:
 672              	.LBE149:
 673              	.LBE148:
 674              		.loc 1 183 0
 675 000a 2000     		movs	r0, r4
 676 000c FFF7FEFF 		bl	chCondWaitS
 677              	.LVL74:
 678 0010 0400     		movs	r4, r0
 679              	.LVL75:
 680              	.LBB153:
 681              	.LBB154:
 682              		.loc 4 388 0
 683 0012 FFF7FEFF 		bl	_dbg_check_unlock
 684              	.LVL76:
ARM GAS  /var/folders/t8/16hdwfmd2fg_d3q6dgx6bpmw0000gn/T//cc30os3f.s 			page 13


 685              		.loc 4 395 0
 686 0016 084B     		ldr	r3, .L49
 687 0018 1A68     		ldr	r2, [r3]
 688 001a 9A42     		cmp	r2, r3
 689 001c 04D0     		beq	.L47
 690 001e 9B69     		ldr	r3, [r3, #24]
 691 0020 9968     		ldr	r1, [r3, #8]
 692 0022 9368     		ldr	r3, [r2, #8]
 693 0024 9942     		cmp	r1, r3
 694 0026 02D3     		bcc	.L48
 695              	.L47:
 696              	.LBB155:
 697              	.LBB156:
 698              	.LBB157:
 699              		.loc 3 60 0
 700              		.syntax divided
 701              	@ 60 "../../tmk_core/tool/chibios/ChibiOS/os/common/ext/CMSIS/include/cmsis_gcc.h" 1
 702 0028 62B6     		cpsie i
 703              	@ 0 "" 2
 704              		.thumb
 705              		.syntax unified
 706              	.LBE157:
 707              	.LBE156:
 708              	.LBE155:
 709              	.LBE154:
 710              	.LBE153:
 711              		.loc 1 186 0
 712 002a 2000     		movs	r0, r4
 713              		@ sp needed
 714              	.LVL77:
 715 002c 10BD     		pop	{r4, pc}
 716              	.LVL78:
 717              	.L48:
 718              	.LBB159:
 719              	.LBB158:
 720              		.loc 4 395 0
 721 002e 0348     		ldr	r0, .L49+4
 722 0030 FFF7FEFF 		bl	chSysHalt
 723              	.LVL79:
 724 0034 F8E7     		b	.L47
 725              	.L50:
 726 0036 C046     		.align	2
 727              	.L49:
 728 0038 00000000 		.word	ch
 729 003c 00000000 		.word	.LANCHOR2
 730              	.LBE158:
 731              	.LBE159:
 732              		.cfi_endproc
 733              	.LFE143:
 734              		.size	chCondWait, .-chCondWait
 735              		.section	.text.chCondWaitTimeoutS,"ax",%progbits
 736              		.align	1
 737              		.p2align 4,,15
 738              		.global	chCondWaitTimeoutS
 739              		.syntax unified
 740              		.code	16
 741              		.thumb_func
ARM GAS  /var/folders/t8/16hdwfmd2fg_d3q6dgx6bpmw0000gn/T//cc30os3f.s 			page 14


 742              		.fpu softvfp
 743              		.type	chCondWaitTimeoutS, %function
 744              	chCondWaitTimeoutS:
 745              	.LFB146:
 746              		.loc 1 296 0
 747              		.cfi_startproc
 748              		@ args = 0, pretend = 0, frame = 0
 749              		@ frame_needed = 0, uses_anonymous_args = 0
 750              	.LVL80:
 751 0000 F8B5     		push	{r3, r4, r5, r6, r7, lr}
 752              		.cfi_def_cfa_offset 24
 753              		.cfi_offset 3, -24
 754              		.cfi_offset 4, -20
 755              		.cfi_offset 5, -16
 756              		.cfi_offset 6, -12
 757              		.cfi_offset 7, -8
 758              		.cfi_offset 14, -4
 759              		.loc 1 296 0
 760 0002 0400     		movs	r4, r0
 761 0004 0F00     		movs	r7, r1
 762              		.loc 1 300 0
 763 0006 FFF7FEFF 		bl	chDbgCheckClassS
 764              	.LVL81:
 765              		.loc 1 301 0
 766 000a 002C     		cmp	r4, #0
 767 000c 26D0     		beq	.L52
 768              		.loc 1 301 0 is_stmt 0 discriminator 3
 769 000e 002F     		cmp	r7, #0
 770 0010 24D0     		beq	.L52
 771              		.loc 1 302 0 is_stmt 1 discriminator 1
 772 0012 1A4E     		ldr	r6, .L68
 773 0014 B369     		ldr	r3, [r6, #24]
 774 0016 9D6B     		ldr	r5, [r3, #56]
 775 0018 002D     		cmp	r5, #0
 776 001a 27D0     		beq	.L65
 777              	.L54:
 778              		.loc 1 306 0
 779 001c 2800     		movs	r0, r5
 780 001e FFF7FEFF 		bl	chMtxUnlockS
 781              	.LVL82:
 782              		.loc 1 310 0
 783 0022 B269     		ldr	r2, [r6, #24]
 784              		.loc 1 311 0
 785 0024 2100     		movs	r1, r4
 786              	.LVL83:
 787              		.loc 1 310 0
 788 0026 5462     		str	r4, [r2, #36]
 789              		.loc 1 311 0
 790 0028 2300     		movs	r3, r4
 791 002a 03E0     		b	.L56
 792              	.LVL84:
 793              	.L67:
 794              	.LBB160:
 795              	.LBB161:
 796              		.loc 2 602 0
 797 002c 9868     		ldr	r0, [r3, #8]
 798 002e 9668     		ldr	r6, [r2, #8]
ARM GAS  /var/folders/t8/16hdwfmd2fg_d3q6dgx6bpmw0000gn/T//cc30os3f.s 			page 15


 799 0030 B042     		cmp	r0, r6
 800 0032 21D3     		bcc	.L66
 801              	.LVL85:
 802              	.L56:
 803              		.loc 2 601 0
 804 0034 1B68     		ldr	r3, [r3]
 805              	.LVL86:
 806              		.loc 2 602 0
 807 0036 9C42     		cmp	r4, r3
 808 0038 F8D1     		bne	.L67
 809              	.LVL87:
 810              	.L55:
 811              		.loc 2 604 0
 812 003a 4B68     		ldr	r3, [r1, #4]
 813              	.LVL88:
 814              		.loc 2 603 0
 815 003c 1160     		str	r1, [r2]
 816              		.loc 2 604 0
 817 003e 5360     		str	r3, [r2, #4]
 818              	.LBE161:
 819              	.LBE160:
 820              		.loc 1 312 0
 821 0040 0720     		movs	r0, #7
 822              	.LBB164:
 823              	.LBB162:
 824              		.loc 2 605 0
 825 0042 1A60     		str	r2, [r3]
 826              		.loc 2 606 0
 827 0044 4A60     		str	r2, [r1, #4]
 828              	.LVL89:
 829              	.LBE162:
 830              	.LBE164:
 831              		.loc 1 312 0
 832 0046 3900     		movs	r1, r7
 833 0048 FFF7FEFF 		bl	chSchGoSleepTimeoutS
 834              	.LVL90:
 835 004c 0400     		movs	r4, r0
 836              	.LVL91:
 837              		.loc 1 313 0
 838 004e 431C     		adds	r3, r0, #1
 839 0050 02D0     		beq	.L51
 840              		.loc 1 314 0
 841 0052 2800     		movs	r0, r5
 842              	.LVL92:
 843 0054 FFF7FEFF 		bl	chMtxLockS
 844              	.LVL93:
 845              	.L51:
 846              		.loc 1 318 0
 847 0058 2000     		movs	r0, r4
 848              		@ sp needed
 849              	.LVL94:
 850              	.LVL95:
 851 005a F8BD     		pop	{r3, r4, r5, r6, r7, pc}
 852              	.LVL96:
 853              	.L52:
 854              		.loc 1 301 0 discriminator 4
 855 005c 0848     		ldr	r0, .L68+4
ARM GAS  /var/folders/t8/16hdwfmd2fg_d3q6dgx6bpmw0000gn/T//cc30os3f.s 			page 16


 856 005e FFF7FEFF 		bl	chSysHalt
 857              	.LVL97:
 858              		.loc 1 302 0 discriminator 4
 859 0062 064E     		ldr	r6, .L68
 860 0064 B369     		ldr	r3, [r6, #24]
 861 0066 9D6B     		ldr	r5, [r3, #56]
 862 0068 002D     		cmp	r5, #0
 863 006a D7D1     		bne	.L54
 864              	.L65:
 865              		.loc 1 302 0 is_stmt 0 discriminator 2
 866 006c 0448     		ldr	r0, .L68+4
 867 006e FFF7FEFF 		bl	chSysHalt
 868              	.LVL98:
 869 0072 B369     		ldr	r3, [r6, #24]
 870 0074 9D6B     		ldr	r5, [r3, #56]
 871 0076 D1E7     		b	.L54
 872              	.LVL99:
 873              	.L66:
 874              	.LBB165:
 875              	.LBB163:
 876              		.loc 2 601 0 is_stmt 1
 877 0078 1900     		movs	r1, r3
 878              	.LVL100:
 879 007a DEE7     		b	.L55
 880              	.L69:
 881              		.align	2
 882              	.L68:
 883 007c 00000000 		.word	ch
 884 0080 00000000 		.word	.LANCHOR6
 885              	.LBE163:
 886              	.LBE165:
 887              		.cfi_endproc
 888              	.LFE146:
 889              		.size	chCondWaitTimeoutS, .-chCondWaitTimeoutS
 890              		.section	.text.chCondWaitTimeout,"ax",%progbits
 891              		.align	1
 892              		.p2align 4,,15
 893              		.global	chCondWaitTimeout
 894              		.syntax unified
 895              		.code	16
 896              		.thumb_func
 897              		.fpu softvfp
 898              		.type	chCondWaitTimeout, %function
 899              	chCondWaitTimeout:
 900              	.LFB145:
 901              		.loc 1 258 0
 902              		.cfi_startproc
 903              		@ args = 0, pretend = 0, frame = 0
 904              		@ frame_needed = 0, uses_anonymous_args = 0
 905              	.LVL101:
 906 0000 70B5     		push	{r4, r5, r6, lr}
 907              		.cfi_def_cfa_offset 16
 908              		.cfi_offset 4, -16
 909              		.cfi_offset 5, -12
 910              		.cfi_offset 6, -8
 911              		.cfi_offset 14, -4
 912              		.loc 1 258 0
ARM GAS  /var/folders/t8/16hdwfmd2fg_d3q6dgx6bpmw0000gn/T//cc30os3f.s 			page 17


 913 0002 0400     		movs	r4, r0
 914 0004 0D00     		movs	r5, r1
 915              	.LBB176:
 916              	.LBB177:
 917              	.LBB178:
 918              	.LBB179:
 919              	.LBB180:
 920              		.loc 3 71 0
 921              		.syntax divided
 922              	@ 71 "../../tmk_core/tool/chibios/ChibiOS/os/common/ext/CMSIS/include/cmsis_gcc.h" 1
 923 0006 72B6     		cpsid i
 924              	@ 0 "" 2
 925              		.thumb
 926              		.syntax unified
 927              	.LBE180:
 928              	.LBE179:
 929              	.LBE178:
 930              		.loc 4 378 0
 931 0008 FFF7FEFF 		bl	_dbg_check_lock
 932              	.LVL102:
 933              	.LBE177:
 934              	.LBE176:
 935              		.loc 1 262 0
 936 000c 2900     		movs	r1, r5
 937 000e 2000     		movs	r0, r4
 938 0010 FFF7FEFF 		bl	chCondWaitTimeoutS
 939              	.LVL103:
 940 0014 0400     		movs	r4, r0
 941              	.LVL104:
 942              	.LBB181:
 943              	.LBB182:
 944              		.loc 4 388 0
 945 0016 FFF7FEFF 		bl	_dbg_check_unlock
 946              	.LVL105:
 947              		.loc 4 395 0
 948 001a 084B     		ldr	r3, .L73
 949 001c 1A68     		ldr	r2, [r3]
 950 001e 9A42     		cmp	r2, r3
 951 0020 04D0     		beq	.L71
 952 0022 9B69     		ldr	r3, [r3, #24]
 953 0024 9968     		ldr	r1, [r3, #8]
 954 0026 9368     		ldr	r3, [r2, #8]
 955 0028 9942     		cmp	r1, r3
 956 002a 02D3     		bcc	.L72
 957              	.L71:
 958              	.LBB183:
 959              	.LBB184:
 960              	.LBB185:
 961              		.loc 3 60 0
 962              		.syntax divided
 963              	@ 60 "../../tmk_core/tool/chibios/ChibiOS/os/common/ext/CMSIS/include/cmsis_gcc.h" 1
 964 002c 62B6     		cpsie i
 965              	@ 0 "" 2
 966              		.thumb
 967              		.syntax unified
 968              	.LBE185:
 969              	.LBE184:
ARM GAS  /var/folders/t8/16hdwfmd2fg_d3q6dgx6bpmw0000gn/T//cc30os3f.s 			page 18


 970              	.LBE183:
 971              	.LBE182:
 972              	.LBE181:
 973              		.loc 1 266 0
 974 002e 2000     		movs	r0, r4
 975              		@ sp needed
 976              	.LVL106:
 977              	.LVL107:
 978 0030 70BD     		pop	{r4, r5, r6, pc}
 979              	.LVL108:
 980              	.L72:
 981              	.LBB187:
 982              	.LBB186:
 983              		.loc 4 395 0
 984 0032 0348     		ldr	r0, .L73+4
 985 0034 FFF7FEFF 		bl	chSysHalt
 986              	.LVL109:
 987 0038 F8E7     		b	.L71
 988              	.L74:
 989 003a C046     		.align	2
 990              	.L73:
 991 003c 00000000 		.word	ch
 992 0040 00000000 		.word	.LANCHOR2
 993              	.LBE186:
 994              	.LBE187:
 995              		.cfi_endproc
 996              	.LFE145:
 997              		.size	chCondWaitTimeout, .-chCondWaitTimeout
 998              		.section	.rodata.__func__.5043,"a",%progbits
 999              		.align	2
 1000              		.set	.LANCHOR2,. + 0
 1001              		.type	__func__.5043, %object
 1002              		.size	__func__.5043, 12
 1003              	__func__.5043:
 1004 0000 63685379 		.ascii	"chSysUnlock\000"
 1004      73556E6C 
 1004      6F636B00 
 1005              		.section	.rodata.__func__.5717,"a",%progbits
 1006              		.align	2
 1007              		.set	.LANCHOR0,. + 0
 1008              		.type	__func__.5717, %object
 1009              		.size	__func__.5717, 17
 1010              	__func__.5717:
 1011 0000 6368436F 		.ascii	"chCondObjectInit\000"
 1011      6E644F62 
 1011      6A656374 
 1011      496E6974 
 1011      00
 1012              		.section	.rodata.__func__.5721,"a",%progbits
 1013              		.align	2
 1014              		.set	.LANCHOR1,. + 0
 1015              		.type	__func__.5721, %object
 1016              		.size	__func__.5721, 13
 1017              	__func__.5721:
 1018 0000 6368436F 		.ascii	"chCondSignal\000"
 1018      6E645369 
 1018      676E616C 
ARM GAS  /var/folders/t8/16hdwfmd2fg_d3q6dgx6bpmw0000gn/T//cc30os3f.s 			page 19


 1018      00
 1019              		.section	.rodata.__func__.5725,"a",%progbits
 1020              		.align	2
 1021              		.set	.LANCHOR3,. + 0
 1022              		.type	__func__.5725, %object
 1023              		.size	__func__.5725, 14
 1024              	__func__.5725:
 1025 0000 6368436F 		.ascii	"chCondSignalI\000"
 1025      6E645369 
 1025      676E616C 
 1025      4900
 1026              		.section	.rodata.__func__.5733,"a",%progbits
 1027              		.align	2
 1028              		.set	.LANCHOR4,. + 0
 1029              		.type	__func__.5733, %object
 1030              		.size	__func__.5733, 17
 1031              	__func__.5733:
 1032 0000 6368436F 		.ascii	"chCondBroadcastI\000"
 1032      6E644272 
 1032      6F616463 
 1032      61737449 
 1032      00
 1033              		.section	.rodata.__func__.5747,"a",%progbits
 1034              		.align	2
 1035              		.set	.LANCHOR5,. + 0
 1036              		.type	__func__.5747, %object
 1037              		.size	__func__.5747, 12
 1038              	__func__.5747:
 1039 0000 6368436F 		.ascii	"chCondWaitS\000"
 1039      6E645761 
 1039      69745300 
 1040              		.section	.rodata.__func__.5759,"a",%progbits
 1041              		.align	2
 1042              		.set	.LANCHOR6,. + 0
 1043              		.type	__func__.5759, %object
 1044              		.size	__func__.5759, 19
 1045              	__func__.5759:
 1046 0000 6368436F 		.ascii	"chCondWaitTimeoutS\000"
 1046      6E645761 
 1046      69745469 
 1046      6D656F75 
 1046      745300
 1047              		.text
 1048              	.Letext0:
 1049              		.file 6 "/usr/local/Caskroom/gcc-arm-embedded/7-2017-q4-major/gcc-arm-none-eabi-7-2017-q4-major/ar
 1050              		.file 7 "/usr/local/Caskroom/gcc-arm-embedded/7-2017-q4-major/gcc-arm-none-eabi-7-2017-q4-major/ar
 1051              		.file 8 "../../tmk_core/tool/chibios/ChibiOS/os/common/ports/ARMCMx/compilers/GCC/chtypes.h"
 1052              		.file 9 "../../tmk_core/tool/chibios/ChibiOS/os/rt/include/chsystypes.h"
 1053              		.file 10 "../../tmk_core/tool/chibios/ChibiOS/os/common/ports/ARMCMx/chcore.h"
 1054              		.file 11 "../../tmk_core/tool/chibios/ChibiOS/os/common/ports/ARMCMx/chcore_v6m.h"
 1055              		.file 12 "../../tmk_core/tool/chibios/ChibiOS/os/rt/include/chsem.h"
 1056              		.file 13 "../../tmk_core/tool/chibios/ChibiOS/os/rt/include/chregistry.h"
 1057              		.file 14 "../../tmk_core/tool/chibios/ChibiOS/os/rt/include/chcond.h"
 1058              		.file 15 "../../tmk_core/tool/chibios/ChibiOS/os/rt/include/chthreads.h"
 1059              		.file 16 "../../tmk_core/tool/chibios/ChibiOS/os/rt/include/chdebug.h"
 1060              		.section	.debug_info,"",%progbits
 1061              	.Ldebug_info0:
ARM GAS  /var/folders/t8/16hdwfmd2fg_d3q6dgx6bpmw0000gn/T//cc30os3f.s 			page 20


 1062 0000 41110000 		.4byte	0x1141
 1063 0004 0400     		.2byte	0x4
 1064 0006 00000000 		.4byte	.Ldebug_abbrev0
 1065 000a 04       		.byte	0x4
 1066 000b 01       		.uleb128 0x1
 1067 000c 19000000 		.4byte	.LASF150
 1068 0010 0C       		.byte	0xc
 1069 0011 98040000 		.4byte	.LASF151
 1070 0015 37050000 		.4byte	.LASF152
 1071 0019 D0000000 		.4byte	.Ldebug_ranges0+0xd0
 1072 001d 00000000 		.4byte	0
 1073 0021 00000000 		.4byte	.Ldebug_line0
 1074 0025 02       		.uleb128 0x2
 1075 0026 04       		.byte	0x4
 1076 0027 05       		.byte	0x5
 1077 0028 696E7400 		.ascii	"int\000"
 1078 002c 03       		.uleb128 0x3
 1079 002d 04       		.byte	0x4
 1080 002e 07       		.byte	0x7
 1081 002f 69010000 		.4byte	.LASF0
 1082 0033 03       		.uleb128 0x3
 1083 0034 01       		.byte	0x1
 1084 0035 06       		.byte	0x6
 1085 0036 5C070000 		.4byte	.LASF1
 1086 003a 04       		.uleb128 0x4
 1087 003b 15060000 		.4byte	.LASF4
 1088 003f 06       		.byte	0x6
 1089 0040 2B       		.byte	0x2b
 1090 0041 45000000 		.4byte	0x45
 1091 0045 03       		.uleb128 0x3
 1092 0046 01       		.byte	0x1
 1093 0047 08       		.byte	0x8
 1094 0048 E3060000 		.4byte	.LASF2
 1095 004c 03       		.uleb128 0x3
 1096 004d 02       		.byte	0x2
 1097 004e 05       		.byte	0x5
 1098 004f C8050000 		.4byte	.LASF3
 1099 0053 04       		.uleb128 0x4
 1100 0054 AF020000 		.4byte	.LASF5
 1101 0058 06       		.byte	0x6
 1102 0059 39       		.byte	0x39
 1103 005a 5E000000 		.4byte	0x5e
 1104 005e 03       		.uleb128 0x3
 1105 005f 02       		.byte	0x2
 1106 0060 07       		.byte	0x7
 1107 0061 6E070000 		.4byte	.LASF6
 1108 0065 04       		.uleb128 0x4
 1109 0066 92010000 		.4byte	.LASF7
 1110 006a 06       		.byte	0x6
 1111 006b 4D       		.byte	0x4d
 1112 006c 70000000 		.4byte	0x70
 1113 0070 03       		.uleb128 0x3
 1114 0071 04       		.byte	0x4
 1115 0072 05       		.byte	0x5
 1116 0073 D2050000 		.4byte	.LASF8
 1117 0077 04       		.uleb128 0x4
 1118 0078 F1060000 		.4byte	.LASF9
ARM GAS  /var/folders/t8/16hdwfmd2fg_d3q6dgx6bpmw0000gn/T//cc30os3f.s 			page 21


 1119 007c 06       		.byte	0x6
 1120 007d 4F       		.byte	0x4f
 1121 007e 82000000 		.4byte	0x82
 1122 0082 03       		.uleb128 0x3
 1123 0083 04       		.byte	0x4
 1124 0084 07       		.byte	0x7
 1125 0085 81060000 		.4byte	.LASF10
 1126 0089 03       		.uleb128 0x3
 1127 008a 08       		.byte	0x8
 1128 008b 05       		.byte	0x5
 1129 008c 7F040000 		.4byte	.LASF11
 1130 0090 04       		.uleb128 0x4
 1131 0091 71030000 		.4byte	.LASF12
 1132 0095 06       		.byte	0x6
 1133 0096 69       		.byte	0x69
 1134 0097 9B000000 		.4byte	0x9b
 1135 009b 03       		.uleb128 0x3
 1136 009c 08       		.byte	0x8
 1137 009d 07       		.byte	0x7
 1138 009e 98020000 		.4byte	.LASF13
 1139 00a2 04       		.uleb128 0x4
 1140 00a3 3C040000 		.4byte	.LASF14
 1141 00a7 07       		.byte	0x7
 1142 00a8 18       		.byte	0x18
 1143 00a9 3A000000 		.4byte	0x3a
 1144 00ad 04       		.uleb128 0x4
 1145 00ae A3050000 		.4byte	.LASF15
 1146 00b2 07       		.byte	0x7
 1147 00b3 24       		.byte	0x24
 1148 00b4 53000000 		.4byte	0x53
 1149 00b8 04       		.uleb128 0x4
 1150 00b9 BB060000 		.4byte	.LASF16
 1151 00bd 07       		.byte	0x7
 1152 00be 2C       		.byte	0x2c
 1153 00bf 65000000 		.4byte	0x65
 1154 00c3 04       		.uleb128 0x4
 1155 00c4 3F020000 		.4byte	.LASF17
 1156 00c8 07       		.byte	0x7
 1157 00c9 30       		.byte	0x30
 1158 00ca 77000000 		.4byte	0x77
 1159 00ce 04       		.uleb128 0x4
 1160 00cf 06060000 		.4byte	.LASF18
 1161 00d3 07       		.byte	0x7
 1162 00d4 3C       		.byte	0x3c
 1163 00d5 90000000 		.4byte	0x90
 1164 00d9 04       		.uleb128 0x4
 1165 00da 88050000 		.4byte	.LASF19
 1166 00de 08       		.byte	0x8
 1167 00df 3C       		.byte	0x3c
 1168 00e0 A2000000 		.4byte	0xa2
 1169 00e4 04       		.uleb128 0x4
 1170 00e5 33040000 		.4byte	.LASF20
 1171 00e9 08       		.byte	0x8
 1172 00ea 3D       		.byte	0x3d
 1173 00eb A2000000 		.4byte	0xa2
 1174 00ef 04       		.uleb128 0x4
 1175 00f0 79060000 		.4byte	.LASF21
ARM GAS  /var/folders/t8/16hdwfmd2fg_d3q6dgx6bpmw0000gn/T//cc30os3f.s 			page 22


 1176 00f4 08       		.byte	0x8
 1177 00f5 3E       		.byte	0x3e
 1178 00f6 A2000000 		.4byte	0xa2
 1179 00fa 04       		.uleb128 0x4
 1180 00fb 1C050000 		.4byte	.LASF22
 1181 00ff 08       		.byte	0x8
 1182 0100 3F       		.byte	0x3f
 1183 0101 A2000000 		.4byte	0xa2
 1184 0105 04       		.uleb128 0x4
 1185 0106 74020000 		.4byte	.LASF23
 1186 010a 08       		.byte	0x8
 1187 010b 40       		.byte	0x40
 1188 010c C3000000 		.4byte	0xc3
 1189 0110 04       		.uleb128 0x4
 1190 0111 92040000 		.4byte	.LASF24
 1191 0115 08       		.byte	0x8
 1192 0116 41       		.byte	0x41
 1193 0117 B8000000 		.4byte	0xb8
 1194 011b 04       		.uleb128 0x4
 1195 011c 50020000 		.4byte	.LASF25
 1196 0120 08       		.byte	0x8
 1197 0121 43       		.byte	0x43
 1198 0122 C3000000 		.4byte	0xc3
 1199 0126 04       		.uleb128 0x4
 1200 0127 BA020000 		.4byte	.LASF26
 1201 012b 08       		.byte	0x8
 1202 012c 45       		.byte	0x45
 1203 012d B8000000 		.4byte	0xb8
 1204 0131 04       		.uleb128 0x4
 1205 0132 38010000 		.4byte	.LASF27
 1206 0136 09       		.byte	0x9
 1207 0137 33       		.byte	0x33
 1208 0138 C3000000 		.4byte	0xc3
 1209 013c 05       		.uleb128 0x5
 1210 013d 31010000 		.4byte	0x131
 1211 0141 04       		.uleb128 0x4
 1212 0142 1D030000 		.4byte	.LASF28
 1213 0146 09       		.byte	0x9
 1214 0147 3F       		.byte	0x3f
 1215 0148 4C010000 		.4byte	0x14c
 1216 014c 06       		.uleb128 0x6
 1217 014d 4D040000 		.4byte	.LASF47
 1218 0151 44       		.byte	0x44
 1219 0152 02       		.byte	0x2
 1220 0153 9A       		.byte	0x9a
 1221 0154 36020000 		.4byte	0x236
 1222 0158 07       		.uleb128 0x7
 1223 0159 B5060000 		.4byte	.LASF29
 1224 015d 02       		.byte	0x2
 1225 015e 9B       		.byte	0x9b
 1226 015f 6B020000 		.4byte	0x26b
 1227 0163 00       		.byte	0
 1228 0164 07       		.uleb128 0x7
 1229 0165 B9030000 		.4byte	.LASF30
 1230 0169 02       		.byte	0x2
 1231 016a 9C       		.byte	0x9c
 1232 016b 05010000 		.4byte	0x105
ARM GAS  /var/folders/t8/16hdwfmd2fg_d3q6dgx6bpmw0000gn/T//cc30os3f.s 			page 23


 1233 016f 08       		.byte	0x8
 1234 0170 08       		.uleb128 0x8
 1235 0171 63747800 		.ascii	"ctx\000"
 1236 0175 02       		.byte	0x2
 1237 0176 9D       		.byte	0x9d
 1238 0177 6F040000 		.4byte	0x46f
 1239 017b 0C       		.byte	0xc
 1240 017c 07       		.uleb128 0x7
 1241 017d D2060000 		.4byte	.LASF31
 1242 0181 02       		.byte	0x2
 1243 0182 9F       		.byte	0x9f
 1244 0183 41020000 		.4byte	0x241
 1245 0187 10       		.byte	0x10
 1246 0188 07       		.uleb128 0x7
 1247 0189 CE070000 		.4byte	.LASF32
 1248 018d 02       		.byte	0x2
 1249 018e A0       		.byte	0xa0
 1250 018f 41020000 		.4byte	0x241
 1251 0193 14       		.byte	0x14
 1252 0194 07       		.uleb128 0x7
 1253 0195 1F060000 		.4byte	.LASF33
 1254 0199 02       		.byte	0x2
 1255 019a A7       		.byte	0xa7
 1256 019b CA050000 		.4byte	0x5ca
 1257 019f 18       		.byte	0x18
 1258 01a0 07       		.uleb128 0x7
 1259 01a1 0B040000 		.4byte	.LASF34
 1260 01a5 02       		.byte	0x2
 1261 01a6 B0       		.byte	0xb0
 1262 01a7 E1050000 		.4byte	0x5e1
 1263 01ab 1C       		.byte	0x1c
 1264 01ac 07       		.uleb128 0x7
 1265 01ad 3A070000 		.4byte	.LASF35
 1266 01b1 02       		.byte	0x2
 1267 01b2 B5       		.byte	0xb5
 1268 01b3 E4000000 		.4byte	0xe4
 1269 01b7 20       		.byte	0x20
 1270 01b8 07       		.uleb128 0x7
 1271 01b9 32010000 		.4byte	.LASF36
 1272 01bd 02       		.byte	0x2
 1273 01be B9       		.byte	0xb9
 1274 01bf D9000000 		.4byte	0xd9
 1275 01c3 21       		.byte	0x21
 1276 01c4 07       		.uleb128 0x7
 1277 01c5 9C010000 		.4byte	.LASF37
 1278 01c9 02       		.byte	0x2
 1279 01ca BE       		.byte	0xbe
 1280 01cb EF000000 		.4byte	0xef
 1281 01cf 22       		.byte	0x22
 1282 01d0 07       		.uleb128 0x7
 1283 01d1 E7050000 		.4byte	.LASF38
 1284 01d5 02       		.byte	0x2
 1285 01d6 C4       		.byte	0xc4
 1286 01d7 FA000000 		.4byte	0xfa
 1287 01db 23       		.byte	0x23
 1288 01dc 09       		.uleb128 0x9
 1289 01dd 7500     		.ascii	"u\000"
ARM GAS  /var/folders/t8/16hdwfmd2fg_d3q6dgx6bpmw0000gn/T//cc30os3f.s 			page 24


 1290 01df 02       		.byte	0x2
 1291 01e0 0F01     		.2byte	0x10f
 1292 01e2 FF040000 		.4byte	0x4ff
 1293 01e6 24       		.byte	0x24
 1294 01e7 0A       		.uleb128 0xa
 1295 01e8 FC060000 		.4byte	.LASF39
 1296 01ec 02       		.byte	0x2
 1297 01ed 1401     		.2byte	0x114
 1298 01ef 47020000 		.4byte	0x247
 1299 01f3 28       		.byte	0x28
 1300 01f4 0A       		.uleb128 0xa
 1301 01f5 44040000 		.4byte	.LASF40
 1302 01f9 02       		.byte	0x2
 1303 01fa 1A01     		.2byte	0x11a
 1304 01fc 6B020000 		.4byte	0x26b
 1305 0200 2C       		.byte	0x2c
 1306 0201 0A       		.uleb128 0xa
 1307 0202 60010000 		.4byte	.LASF41
 1308 0206 02       		.byte	0x2
 1309 0207 2001     		.2byte	0x120
 1310 0209 1B010000 		.4byte	0x11b
 1311 020d 34       		.byte	0x34
 1312 020e 0A       		.uleb128 0xa
 1313 020f FE020000 		.4byte	.LASF42
 1314 0213 02       		.byte	0x2
 1315 0214 2701     		.2byte	0x127
 1316 0216 C4050000 		.4byte	0x5c4
 1317 021a 38       		.byte	0x38
 1318 021b 0A       		.uleb128 0xa
 1319 021c 42010000 		.4byte	.LASF43
 1320 0220 02       		.byte	0x2
 1321 0221 2B01     		.2byte	0x12b
 1322 0223 05010000 		.4byte	0x105
 1323 0227 3C       		.byte	0x3c
 1324 0228 0A       		.uleb128 0xa
 1325 0229 DD070000 		.4byte	.LASF44
 1326 022d 02       		.byte	0x2
 1327 022e 3201     		.2byte	0x132
 1328 0230 23030000 		.4byte	0x323
 1329 0234 40       		.byte	0x40
 1330 0235 00       		.byte	0
 1331 0236 04       		.uleb128 0x4
 1332 0237 F8030000 		.4byte	.LASF45
 1333 023b 09       		.byte	0x9
 1334 023c 44       		.byte	0x44
 1335 023d 41020000 		.4byte	0x241
 1336 0241 0B       		.uleb128 0xb
 1337 0242 04       		.byte	0x4
 1338 0243 41010000 		.4byte	0x141
 1339 0247 04       		.uleb128 0x4
 1340 0248 83010000 		.4byte	.LASF46
 1341 024c 09       		.byte	0x9
 1342 024d 49       		.byte	0x49
 1343 024e 52020000 		.4byte	0x252
 1344 0252 06       		.uleb128 0x6
 1345 0253 00000000 		.4byte	.LASF48
 1346 0257 04       		.byte	0x4
ARM GAS  /var/folders/t8/16hdwfmd2fg_d3q6dgx6bpmw0000gn/T//cc30os3f.s 			page 25


 1347 0258 02       		.byte	0x2
 1348 0259 88       		.byte	0x88
 1349 025a 6B020000 		.4byte	0x26b
 1350 025e 07       		.uleb128 0x7
 1351 025f 76010000 		.4byte	.LASF49
 1352 0263 02       		.byte	0x2
 1353 0264 89       		.byte	0x89
 1354 0265 41020000 		.4byte	0x241
 1355 0269 00       		.byte	0
 1356 026a 00       		.byte	0
 1357 026b 04       		.uleb128 0x4
 1358 026c EE020000 		.4byte	.LASF50
 1359 0270 09       		.byte	0x9
 1360 0271 50       		.byte	0x50
 1361 0272 7B020000 		.4byte	0x27b
 1362 0276 0C       		.uleb128 0xc
 1363 0277 6B020000 		.4byte	0x26b
 1364 027b 06       		.uleb128 0x6
 1365 027c EE010000 		.4byte	.LASF51
 1366 0280 08       		.byte	0x8
 1367 0281 02       		.byte	0x2
 1368 0282 8F       		.byte	0x8f
 1369 0283 A0020000 		.4byte	0x2a0
 1370 0287 07       		.uleb128 0x7
 1371 0288 76010000 		.4byte	.LASF49
 1372 028c 02       		.byte	0x2
 1373 028d 90       		.byte	0x90
 1374 028e 41020000 		.4byte	0x241
 1375 0292 00       		.byte	0
 1376 0293 07       		.uleb128 0x7
 1377 0294 E9010000 		.4byte	.LASF52
 1378 0298 02       		.byte	0x2
 1379 0299 91       		.byte	0x91
 1380 029a 41020000 		.4byte	0x241
 1381 029e 04       		.byte	0x4
 1382 029f 00       		.byte	0
 1383 02a0 04       		.uleb128 0x4
 1384 02a1 93060000 		.4byte	.LASF53
 1385 02a5 09       		.byte	0x9
 1386 02a6 57       		.byte	0x57
 1387 02a7 AB020000 		.4byte	0x2ab
 1388 02ab 0D       		.uleb128 0xd
 1389 02ac CF010000 		.4byte	.LASF54
 1390 02b0 1C       		.byte	0x1c
 1391 02b1 02       		.byte	0x2
 1392 02b2 6A01     		.2byte	0x16a
 1393 02b4 07030000 		.4byte	0x307
 1394 02b8 0A       		.uleb128 0xa
 1395 02b9 B5060000 		.4byte	.LASF29
 1396 02bd 02       		.byte	0x2
 1397 02be 6B01     		.2byte	0x16b
 1398 02c0 6B020000 		.4byte	0x26b
 1399 02c4 00       		.byte	0
 1400 02c5 0A       		.uleb128 0xa
 1401 02c6 B9030000 		.4byte	.LASF30
 1402 02ca 02       		.byte	0x2
 1403 02cb 6C01     		.2byte	0x16c
ARM GAS  /var/folders/t8/16hdwfmd2fg_d3q6dgx6bpmw0000gn/T//cc30os3f.s 			page 26


 1404 02cd 05010000 		.4byte	0x105
 1405 02d1 08       		.byte	0x8
 1406 02d2 09       		.uleb128 0x9
 1407 02d3 63747800 		.ascii	"ctx\000"
 1408 02d7 02       		.byte	0x2
 1409 02d8 6E01     		.2byte	0x16e
 1410 02da 6F040000 		.4byte	0x46f
 1411 02de 0C       		.byte	0xc
 1412 02df 0A       		.uleb128 0xa
 1413 02e0 D2060000 		.4byte	.LASF31
 1414 02e4 02       		.byte	0x2
 1415 02e5 7101     		.2byte	0x171
 1416 02e7 41020000 		.4byte	0x241
 1417 02eb 10       		.byte	0x10
 1418 02ec 0A       		.uleb128 0xa
 1419 02ed CE070000 		.4byte	.LASF32
 1420 02f1 02       		.byte	0x2
 1421 02f2 7201     		.2byte	0x172
 1422 02f4 41020000 		.4byte	0x241
 1423 02f8 14       		.byte	0x14
 1424 02f9 0A       		.uleb128 0xa
 1425 02fa A8070000 		.4byte	.LASF55
 1426 02fe 02       		.byte	0x2
 1427 02ff 7501     		.2byte	0x175
 1428 0301 41020000 		.4byte	0x241
 1429 0305 18       		.byte	0x18
 1430 0306 00       		.byte	0
 1431 0307 04       		.uleb128 0x4
 1432 0308 09020000 		.4byte	.LASF56
 1433 030c 09       		.byte	0x9
 1434 030d 5C       		.byte	0x5c
 1435 030e 12030000 		.4byte	0x312
 1436 0312 0B       		.uleb128 0xb
 1437 0313 04       		.byte	0x4
 1438 0314 18030000 		.4byte	0x318
 1439 0318 0E       		.uleb128 0xe
 1440 0319 23030000 		.4byte	0x323
 1441 031d 0F       		.uleb128 0xf
 1442 031e 23030000 		.4byte	0x323
 1443 0322 00       		.byte	0
 1444 0323 10       		.uleb128 0x10
 1445 0324 04       		.byte	0x4
 1446 0325 04       		.uleb128 0x4
 1447 0326 CF040000 		.4byte	.LASF57
 1448 032a 09       		.byte	0x9
 1449 032b 61       		.byte	0x61
 1450 032c 30030000 		.4byte	0x330
 1451 0330 0D       		.uleb128 0xd
 1452 0331 7C020000 		.4byte	.LASF58
 1453 0335 14       		.byte	0x14
 1454 0336 02       		.byte	0x2
 1455 0337 4501     		.2byte	0x145
 1456 0339 7F030000 		.4byte	0x37f
 1457 033d 0A       		.uleb128 0xa
 1458 033e 76010000 		.4byte	.LASF49
 1459 0342 02       		.byte	0x2
 1460 0343 4601     		.2byte	0x146
ARM GAS  /var/folders/t8/16hdwfmd2fg_d3q6dgx6bpmw0000gn/T//cc30os3f.s 			page 27


 1461 0345 E7050000 		.4byte	0x5e7
 1462 0349 00       		.byte	0
 1463 034a 0A       		.uleb128 0xa
 1464 034b E9010000 		.4byte	.LASF52
 1465 034f 02       		.byte	0x2
 1466 0350 4701     		.2byte	0x147
 1467 0352 E7050000 		.4byte	0x5e7
 1468 0356 04       		.byte	0x4
 1469 0357 0A       		.uleb128 0xa
 1470 0358 68070000 		.4byte	.LASF59
 1471 035c 02       		.byte	0x2
 1472 035d 4801     		.2byte	0x148
 1473 035f 31010000 		.4byte	0x131
 1474 0363 08       		.byte	0x8
 1475 0364 0A       		.uleb128 0xa
 1476 0365 DD010000 		.4byte	.LASF60
 1477 0369 02       		.byte	0x2
 1478 036a 4901     		.2byte	0x149
 1479 036c 07030000 		.4byte	0x307
 1480 0370 0C       		.byte	0xc
 1481 0371 09       		.uleb128 0x9
 1482 0372 70617200 		.ascii	"par\000"
 1483 0376 02       		.byte	0x2
 1484 0377 4B01     		.2byte	0x14b
 1485 0379 23030000 		.4byte	0x323
 1486 037d 10       		.byte	0x10
 1487 037e 00       		.byte	0
 1488 037f 04       		.uleb128 0x4
 1489 0380 04070000 		.4byte	.LASF61
 1490 0384 09       		.byte	0x9
 1491 0385 66       		.byte	0x66
 1492 0386 8A030000 		.4byte	0x38a
 1493 038a 0D       		.uleb128 0xd
 1494 038b 06030000 		.4byte	.LASF62
 1495 038f 10       		.byte	0x10
 1496 0390 02       		.byte	0x2
 1497 0391 5501     		.2byte	0x155
 1498 0393 CC030000 		.4byte	0x3cc
 1499 0397 0A       		.uleb128 0xa
 1500 0398 76010000 		.4byte	.LASF49
 1501 039c 02       		.byte	0x2
 1502 039d 5601     		.2byte	0x156
 1503 039f E7050000 		.4byte	0x5e7
 1504 03a3 00       		.byte	0
 1505 03a4 0A       		.uleb128 0xa
 1506 03a5 E9010000 		.4byte	.LASF52
 1507 03a9 02       		.byte	0x2
 1508 03aa 5801     		.2byte	0x158
 1509 03ac E7050000 		.4byte	0x5e7
 1510 03b0 04       		.byte	0x4
 1511 03b1 0A       		.uleb128 0xa
 1512 03b2 68070000 		.4byte	.LASF59
 1513 03b6 02       		.byte	0x2
 1514 03b7 5A01     		.2byte	0x15a
 1515 03b9 31010000 		.4byte	0x131
 1516 03bd 08       		.byte	0x8
 1517 03be 0A       		.uleb128 0xa
ARM GAS  /var/folders/t8/16hdwfmd2fg_d3q6dgx6bpmw0000gn/T//cc30os3f.s 			page 28


 1518 03bf 90050000 		.4byte	.LASF63
 1519 03c3 02       		.byte	0x2
 1520 03c4 5C01     		.2byte	0x15c
 1521 03c6 3C010000 		.4byte	0x13c
 1522 03ca 0C       		.byte	0xc
 1523 03cb 00       		.byte	0
 1524 03cc 04       		.uleb128 0x4
 1525 03cd 60040000 		.4byte	.LASF64
 1526 03d1 09       		.byte	0x9
 1527 03d2 6B       		.byte	0x6b
 1528 03d3 D7030000 		.4byte	0x3d7
 1529 03d7 0D       		.uleb128 0xd
 1530 03d8 1E020000 		.4byte	.LASF65
 1531 03dc 0C       		.byte	0xc
 1532 03dd 02       		.byte	0x2
 1533 03de 7C01     		.2byte	0x17c
 1534 03e0 0C040000 		.4byte	0x40c
 1535 03e4 0A       		.uleb128 0xa
 1536 03e5 7E050000 		.4byte	.LASF66
 1537 03e9 02       		.byte	0x2
 1538 03ea 8401     		.2byte	0x184
 1539 03ec D0050000 		.4byte	0x5d0
 1540 03f0 00       		.byte	0
 1541 03f1 0A       		.uleb128 0xa
 1542 03f2 D2020000 		.4byte	.LASF67
 1543 03f6 02       		.byte	0x2
 1544 03f7 8901     		.2byte	0x189
 1545 03f9 26010000 		.4byte	0x126
 1546 03fd 04       		.byte	0x4
 1547 03fe 0A       		.uleb128 0xa
 1548 03ff BF050000 		.4byte	.LASF68
 1549 0403 02       		.byte	0x2
 1550 0404 8D01     		.2byte	0x18d
 1551 0406 26010000 		.4byte	0x126
 1552 040a 08       		.byte	0x8
 1553 040b 00       		.byte	0
 1554 040c 04       		.uleb128 0x4
 1555 040d 4A070000 		.4byte	.LASF69
 1556 0411 09       		.byte	0x9
 1557 0412 70       		.byte	0x70
 1558 0413 17040000 		.4byte	0x417
 1559 0417 0D       		.uleb128 0xd
 1560 0418 FC050000 		.4byte	.LASF70
 1561 041c 7C       		.byte	0x7c
 1562 041d 02       		.byte	0x2
 1563 041e 9C01     		.2byte	0x19c
 1564 0420 59040000 		.4byte	0x459
 1565 0424 0A       		.uleb128 0xa
 1566 0425 0F060000 		.4byte	.LASF71
 1567 0429 02       		.byte	0x2
 1568 042a A001     		.2byte	0x1a0
 1569 042c A0020000 		.4byte	0x2a0
 1570 0430 00       		.byte	0
 1571 0431 0A       		.uleb128 0xa
 1572 0432 BB010000 		.4byte	.LASF72
 1573 0436 02       		.byte	0x2
 1574 0437 A401     		.2byte	0x1a4
ARM GAS  /var/folders/t8/16hdwfmd2fg_d3q6dgx6bpmw0000gn/T//cc30os3f.s 			page 29


 1575 0439 7F030000 		.4byte	0x37f
 1576 043d 1C       		.byte	0x1c
 1577 043e 09       		.uleb128 0x9
 1578 043f 64626700 		.ascii	"dbg\000"
 1579 0443 02       		.byte	0x2
 1580 0444 A801     		.2byte	0x1a8
 1581 0446 CC030000 		.4byte	0x3cc
 1582 044a 2C       		.byte	0x2c
 1583 044b 0A       		.uleb128 0xa
 1584 044c 98050000 		.4byte	.LASF73
 1585 0450 02       		.byte	0x2
 1586 0451 AC01     		.2byte	0x1ac
 1587 0453 41010000 		.4byte	0x141
 1588 0457 38       		.byte	0x38
 1589 0458 00       		.byte	0
 1590 0459 04       		.uleb128 0x4
 1591 045a 29010000 		.4byte	.LASF74
 1592 045e 0A       		.byte	0xa
 1593 045f 65       		.byte	0x65
 1594 0460 23030000 		.4byte	0x323
 1595 0464 04       		.uleb128 0x4
 1596 0465 81070000 		.4byte	.LASF75
 1597 0469 0A       		.byte	0xa
 1598 046a 6D       		.byte	0x6d
 1599 046b CE000000 		.4byte	0xce
 1600 046f 06       		.uleb128 0x6
 1601 0470 C2010000 		.4byte	.LASF76
 1602 0474 04       		.byte	0x4
 1603 0475 0A       		.byte	0xa
 1604 0476 89       		.byte	0x89
 1605 0477 87040000 		.4byte	0x487
 1606 047b 08       		.uleb128 0x8
 1607 047c 737000   		.ascii	"sp\000"
 1608 047f 0A       		.byte	0xa
 1609 0480 8A       		.byte	0x8a
 1610 0481 F9040000 		.4byte	0x4f9
 1611 0485 00       		.byte	0
 1612 0486 00       		.byte	0
 1613 0487 06       		.uleb128 0x6
 1614 0488 DB050000 		.4byte	.LASF77
 1615 048c 24       		.byte	0x24
 1616 048d 0B       		.byte	0xb
 1617 048e C3       		.byte	0xc3
 1618 048f F9040000 		.4byte	0x4f9
 1619 0493 08       		.uleb128 0x8
 1620 0494 723800   		.ascii	"r8\000"
 1621 0497 0B       		.byte	0xb
 1622 0498 C4       		.byte	0xc4
 1623 0499 59040000 		.4byte	0x459
 1624 049d 00       		.byte	0
 1625 049e 08       		.uleb128 0x8
 1626 049f 723900   		.ascii	"r9\000"
 1627 04a2 0B       		.byte	0xb
 1628 04a3 C5       		.byte	0xc5
 1629 04a4 59040000 		.4byte	0x459
 1630 04a8 04       		.byte	0x4
 1631 04a9 08       		.uleb128 0x8
ARM GAS  /var/folders/t8/16hdwfmd2fg_d3q6dgx6bpmw0000gn/T//cc30os3f.s 			page 30


 1632 04aa 72313000 		.ascii	"r10\000"
 1633 04ae 0B       		.byte	0xb
 1634 04af C6       		.byte	0xc6
 1635 04b0 59040000 		.4byte	0x459
 1636 04b4 08       		.byte	0x8
 1637 04b5 08       		.uleb128 0x8
 1638 04b6 72313100 		.ascii	"r11\000"
 1639 04ba 0B       		.byte	0xb
 1640 04bb C7       		.byte	0xc7
 1641 04bc 59040000 		.4byte	0x459
 1642 04c0 0C       		.byte	0xc
 1643 04c1 08       		.uleb128 0x8
 1644 04c2 723400   		.ascii	"r4\000"
 1645 04c5 0B       		.byte	0xb
 1646 04c6 C8       		.byte	0xc8
 1647 04c7 59040000 		.4byte	0x459
 1648 04cb 10       		.byte	0x10
 1649 04cc 08       		.uleb128 0x8
 1650 04cd 723500   		.ascii	"r5\000"
 1651 04d0 0B       		.byte	0xb
 1652 04d1 C9       		.byte	0xc9
 1653 04d2 59040000 		.4byte	0x459
 1654 04d6 14       		.byte	0x14
 1655 04d7 08       		.uleb128 0x8
 1656 04d8 723600   		.ascii	"r6\000"
 1657 04db 0B       		.byte	0xb
 1658 04dc CA       		.byte	0xca
 1659 04dd 59040000 		.4byte	0x459
 1660 04e1 18       		.byte	0x18
 1661 04e2 08       		.uleb128 0x8
 1662 04e3 723700   		.ascii	"r7\000"
 1663 04e6 0B       		.byte	0xb
 1664 04e7 CB       		.byte	0xcb
 1665 04e8 59040000 		.4byte	0x459
 1666 04ec 1C       		.byte	0x1c
 1667 04ed 08       		.uleb128 0x8
 1668 04ee 6C7200   		.ascii	"lr\000"
 1669 04f1 0B       		.byte	0xb
 1670 04f2 CC       		.byte	0xcc
 1671 04f3 59040000 		.4byte	0x459
 1672 04f7 20       		.byte	0x20
 1673 04f8 00       		.byte	0
 1674 04f9 0B       		.uleb128 0xb
 1675 04fa 04       		.byte	0x4
 1676 04fb 87040000 		.4byte	0x487
 1677 04ff 11       		.uleb128 0x11
 1678 0500 04       		.byte	0x4
 1679 0501 02       		.byte	0x2
 1680 0502 D2       		.byte	0xd2
 1681 0503 62050000 		.4byte	0x562
 1682 0507 12       		.uleb128 0x12
 1683 0508 3A030000 		.4byte	.LASF78
 1684 050c 02       		.byte	0x2
 1685 050d D9       		.byte	0xd9
 1686 050e 10010000 		.4byte	0x110
 1687 0512 12       		.uleb128 0x12
 1688 0513 D4070000 		.4byte	.LASF79
ARM GAS  /var/folders/t8/16hdwfmd2fg_d3q6dgx6bpmw0000gn/T//cc30os3f.s 			page 31


 1689 0517 02       		.byte	0x2
 1690 0518 E0       		.byte	0xe0
 1691 0519 10010000 		.4byte	0x110
 1692 051d 12       		.uleb128 0x12
 1693 051e AA010000 		.4byte	.LASF80
 1694 0522 02       		.byte	0x2
 1695 0523 E7       		.byte	0xe7
 1696 0524 23030000 		.4byte	0x323
 1697 0528 12       		.uleb128 0x12
 1698 0529 56070000 		.4byte	.LASF81
 1699 052d 02       		.byte	0x2
 1700 052e EE       		.byte	0xee
 1701 052f 62050000 		.4byte	0x562
 1702 0533 12       		.uleb128 0x12
 1703 0534 48020000 		.4byte	.LASF82
 1704 0538 02       		.byte	0x2
 1705 0539 F3       		.byte	0xf3
 1706 053a 10010000 		.4byte	0x110
 1707 053e 12       		.uleb128 0x12
 1708 053f C3060000 		.4byte	.LASF83
 1709 0543 02       		.byte	0x2
 1710 0544 FC       		.byte	0xfc
 1711 0545 8D050000 		.4byte	0x58d
 1712 0549 13       		.uleb128 0x13
 1713 054a 02010000 		.4byte	.LASF84
 1714 054e 02       		.byte	0x2
 1715 054f 0501     		.2byte	0x105
 1716 0551 C4050000 		.4byte	0x5c4
 1717 0555 13       		.uleb128 0x13
 1718 0556 E2010000 		.4byte	.LASF85
 1719 055a 02       		.byte	0x2
 1720 055b 0D01     		.2byte	0x10d
 1721 055d 1B010000 		.4byte	0x11b
 1722 0561 00       		.byte	0
 1723 0562 0B       		.uleb128 0xb
 1724 0563 04       		.byte	0x4
 1725 0564 36020000 		.4byte	0x236
 1726 0568 06       		.uleb128 0x6
 1727 0569 67020000 		.4byte	.LASF86
 1728 056d 0C       		.byte	0xc
 1729 056e 0C       		.byte	0xc
 1730 056f 34       		.byte	0x34
 1731 0570 8D050000 		.4byte	0x58d
 1732 0574 07       		.uleb128 0x7
 1733 0575 B5060000 		.4byte	.LASF29
 1734 0579 0C       		.byte	0xc
 1735 057a 35       		.byte	0x35
 1736 057b 6B020000 		.4byte	0x26b
 1737 057f 00       		.byte	0
 1738 0580 08       		.uleb128 0x8
 1739 0581 636E7400 		.ascii	"cnt\000"
 1740 0585 0C       		.byte	0xc
 1741 0586 37       		.byte	0x37
 1742 0587 26010000 		.4byte	0x126
 1743 058b 08       		.byte	0x8
 1744 058c 00       		.byte	0
 1745 058d 0B       		.uleb128 0xb
ARM GAS  /var/folders/t8/16hdwfmd2fg_d3q6dgx6bpmw0000gn/T//cc30os3f.s 			page 32


 1746 058e 04       		.byte	0x4
 1747 058f 68050000 		.4byte	0x568
 1748 0593 06       		.uleb128 0x6
 1749 0594 68030000 		.4byte	.LASF87
 1750 0598 10       		.byte	0x10
 1751 0599 05       		.byte	0x5
 1752 059a 39       		.byte	0x39
 1753 059b C4050000 		.4byte	0x5c4
 1754 059f 07       		.uleb128 0x7
 1755 05a0 B5060000 		.4byte	.LASF29
 1756 05a4 05       		.byte	0x5
 1757 05a5 3A       		.byte	0x3a
 1758 05a6 6B020000 		.4byte	0x26b
 1759 05aa 00       		.byte	0
 1760 05ab 07       		.uleb128 0x7
 1761 05ac E8020000 		.4byte	.LASF88
 1762 05b0 05       		.byte	0x5
 1763 05b1 3C       		.byte	0x3c
 1764 05b2 41020000 		.4byte	0x241
 1765 05b6 08       		.byte	0x8
 1766 05b7 07       		.uleb128 0x7
 1767 05b8 76010000 		.4byte	.LASF49
 1768 05bc 05       		.byte	0x5
 1769 05bd 3E       		.byte	0x3e
 1770 05be 26070000 		.4byte	0x726
 1771 05c2 0C       		.byte	0xc
 1772 05c3 00       		.byte	0
 1773 05c4 0B       		.uleb128 0xb
 1774 05c5 04       		.byte	0x4
 1775 05c6 93050000 		.4byte	0x593
 1776 05ca 0B       		.uleb128 0xb
 1777 05cb 04       		.byte	0x4
 1778 05cc DC050000 		.4byte	0x5dc
 1779 05d0 05       		.uleb128 0x5
 1780 05d1 CA050000 		.4byte	0x5ca
 1781 05d5 03       		.uleb128 0x3
 1782 05d6 01       		.byte	0x1
 1783 05d7 08       		.byte	0x8
 1784 05d8 D0030000 		.4byte	.LASF89
 1785 05dc 0C       		.uleb128 0xc
 1786 05dd D5050000 		.4byte	0x5d5
 1787 05e1 0B       		.uleb128 0xb
 1788 05e2 04       		.byte	0x4
 1789 05e3 64040000 		.4byte	0x464
 1790 05e7 0B       		.uleb128 0xb
 1791 05e8 04       		.byte	0x4
 1792 05e9 25030000 		.4byte	0x325
 1793 05ed 14       		.uleb128 0x14
 1794 05ee 636800   		.ascii	"ch\000"
 1795 05f1 02       		.byte	0x2
 1796 05f2 D201     		.2byte	0x1d2
 1797 05f4 0C040000 		.4byte	0x40c
 1798 05f8 15       		.uleb128 0x15
 1799 05f9 64040000 		.4byte	0x464
 1800 05fd 03060000 		.4byte	0x603
 1801 0601 16       		.uleb128 0x16
 1802 0602 00       		.byte	0
ARM GAS  /var/folders/t8/16hdwfmd2fg_d3q6dgx6bpmw0000gn/T//cc30os3f.s 			page 33


 1803 0603 17       		.uleb128 0x17
 1804 0604 12040000 		.4byte	.LASF90
 1805 0608 04       		.byte	0x4
 1806 0609 2B01     		.2byte	0x12b
 1807 060b F8050000 		.4byte	0x5f8
 1808 060f 18       		.uleb128 0x18
 1809 0610 16       		.byte	0x16
 1810 0611 0D       		.byte	0xd
 1811 0612 34       		.byte	0x34
 1812 0613 F0060000 		.4byte	0x6f0
 1813 0617 07       		.uleb128 0x7
 1814 0618 32060000 		.4byte	.LASF91
 1815 061c 0D       		.byte	0xd
 1816 061d 35       		.byte	0x35
 1817 061e F0060000 		.4byte	0x6f0
 1818 0622 00       		.byte	0
 1819 0623 07       		.uleb128 0x7
 1820 0624 8D040000 		.4byte	.LASF92
 1821 0628 0D       		.byte	0xd
 1822 0629 36       		.byte	0x36
 1823 062a A2000000 		.4byte	0xa2
 1824 062e 04       		.byte	0x4
 1825 062f 07       		.uleb128 0x7
 1826 0630 FE040000 		.4byte	.LASF93
 1827 0634 0D       		.byte	0xd
 1828 0635 37       		.byte	0x37
 1829 0636 A2000000 		.4byte	0xa2
 1830 063a 05       		.byte	0x5
 1831 063b 07       		.uleb128 0x7
 1832 063c 7B010000 		.4byte	.LASF94
 1833 0640 0D       		.byte	0xd
 1834 0641 38       		.byte	0x38
 1835 0642 AD000000 		.4byte	0xad
 1836 0646 06       		.byte	0x6
 1837 0647 07       		.uleb128 0x7
 1838 0648 03050000 		.4byte	.LASF95
 1839 064c 0D       		.byte	0xd
 1840 064d 39       		.byte	0x39
 1841 064e A2000000 		.4byte	0xa2
 1842 0652 08       		.byte	0x8
 1843 0653 07       		.uleb128 0x7
 1844 0654 10000000 		.4byte	.LASF96
 1845 0658 0D       		.byte	0xd
 1846 0659 3A       		.byte	0x3a
 1847 065a A2000000 		.4byte	0xa2
 1848 065e 09       		.byte	0x9
 1849 065f 07       		.uleb128 0x7
 1850 0660 5C020000 		.4byte	.LASF97
 1851 0664 0D       		.byte	0xd
 1852 0665 3B       		.byte	0x3b
 1853 0666 A2000000 		.4byte	0xa2
 1854 066a 0A       		.byte	0xa
 1855 066b 07       		.uleb128 0x7
 1856 066c B6050000 		.4byte	.LASF98
 1857 0670 0D       		.byte	0xd
 1858 0671 3C       		.byte	0x3c
 1859 0672 A2000000 		.4byte	0xa2
ARM GAS  /var/folders/t8/16hdwfmd2fg_d3q6dgx6bpmw0000gn/T//cc30os3f.s 			page 34


 1860 0676 0B       		.byte	0xb
 1861 0677 07       		.uleb128 0x7
 1862 0678 7C030000 		.4byte	.LASF99
 1863 067c 0D       		.byte	0xd
 1864 067d 3D       		.byte	0x3d
 1865 067e A2000000 		.4byte	0xa2
 1866 0682 0C       		.byte	0xc
 1867 0683 07       		.uleb128 0x7
 1868 0684 FF010000 		.4byte	.LASF100
 1869 0688 0D       		.byte	0xd
 1870 0689 3E       		.byte	0x3e
 1871 068a A2000000 		.4byte	0xa2
 1872 068e 0D       		.byte	0xd
 1873 068f 07       		.uleb128 0x7
 1874 0690 26030000 		.4byte	.LASF101
 1875 0694 0D       		.byte	0xd
 1876 0695 3F       		.byte	0x3f
 1877 0696 A2000000 		.4byte	0xa2
 1878 069a 0E       		.byte	0xe
 1879 069b 07       		.uleb128 0x7
 1880 069c 57040000 		.4byte	.LASF102
 1881 06a0 0D       		.byte	0xd
 1882 06a1 40       		.byte	0x40
 1883 06a2 A2000000 		.4byte	0xa2
 1884 06a6 0F       		.byte	0xf
 1885 06a7 07       		.uleb128 0x7
 1886 06a8 C0020000 		.4byte	.LASF103
 1887 06ac 0D       		.byte	0xd
 1888 06ad 41       		.byte	0x41
 1889 06ae A2000000 		.4byte	0xa2
 1890 06b2 10       		.byte	0x10
 1891 06b3 07       		.uleb128 0x7
 1892 06b4 30030000 		.4byte	.LASF104
 1893 06b8 0D       		.byte	0xd
 1894 06b9 42       		.byte	0x42
 1895 06ba A2000000 		.4byte	0xa2
 1896 06be 11       		.byte	0x11
 1897 06bf 07       		.uleb128 0x7
 1898 06c0 AF030000 		.4byte	.LASF105
 1899 06c4 0D       		.byte	0xd
 1900 06c5 43       		.byte	0x43
 1901 06c6 A2000000 		.4byte	0xa2
 1902 06ca 12       		.byte	0x12
 1903 06cb 07       		.uleb128 0x7
 1904 06cc 8C070000 		.4byte	.LASF106
 1905 06d0 0D       		.byte	0xd
 1906 06d1 44       		.byte	0x44
 1907 06d2 A2000000 		.4byte	0xa2
 1908 06d6 13       		.byte	0x13
 1909 06d7 07       		.uleb128 0x7
 1910 06d8 61060000 		.4byte	.LASF107
 1911 06dc 0D       		.byte	0xd
 1912 06dd 45       		.byte	0x45
 1913 06de A2000000 		.4byte	0xa2
 1914 06e2 14       		.byte	0x14
 1915 06e3 07       		.uleb128 0x7
 1916 06e4 A1010000 		.4byte	.LASF108
ARM GAS  /var/folders/t8/16hdwfmd2fg_d3q6dgx6bpmw0000gn/T//cc30os3f.s 			page 35


 1917 06e8 0D       		.byte	0xd
 1918 06e9 46       		.byte	0x46
 1919 06ea A2000000 		.4byte	0xa2
 1920 06ee 15       		.byte	0x15
 1921 06ef 00       		.byte	0
 1922 06f0 15       		.uleb128 0x15
 1923 06f1 D5050000 		.4byte	0x5d5
 1924 06f5 00070000 		.4byte	0x700
 1925 06f9 19       		.uleb128 0x19
 1926 06fa 2C000000 		.4byte	0x2c
 1927 06fe 03       		.byte	0x3
 1928 06ff 00       		.byte	0
 1929 0700 04       		.uleb128 0x4
 1930 0701 AC050000 		.4byte	.LASF109
 1931 0705 0D       		.byte	0xd
 1932 0706 47       		.byte	0x47
 1933 0707 0F060000 		.4byte	0x60f
 1934 070b 0C       		.uleb128 0xc
 1935 070c 00070000 		.4byte	0x700
 1936 0710 1A       		.uleb128 0x1a
 1937 0711 B9070000 		.4byte	.LASF110
 1938 0715 0D       		.byte	0xd
 1939 0716 6C       		.byte	0x6c
 1940 0717 0B070000 		.4byte	0x70b
 1941 071b 04       		.uleb128 0x4
 1942 071c CA060000 		.4byte	.LASF111
 1943 0720 05       		.byte	0x5
 1944 0721 34       		.byte	0x34
 1945 0722 93050000 		.4byte	0x593
 1946 0726 0B       		.uleb128 0xb
 1947 0727 04       		.byte	0x4
 1948 0728 1B070000 		.4byte	0x71b
 1949 072c 06       		.uleb128 0x6
 1950 072d 55030000 		.4byte	.LASF112
 1951 0731 08       		.byte	0x8
 1952 0732 0E       		.byte	0xe
 1953 0733 3B       		.byte	0x3b
 1954 0734 45070000 		.4byte	0x745
 1955 0738 07       		.uleb128 0x7
 1956 0739 B5060000 		.4byte	.LASF29
 1957 073d 0E       		.byte	0xe
 1958 073e 3C       		.byte	0x3c
 1959 073f 6B020000 		.4byte	0x26b
 1960 0743 00       		.byte	0
 1961 0744 00       		.byte	0
 1962 0745 04       		.uleb128 0x4
 1963 0746 4B010000 		.4byte	.LASF113
 1964 074a 0E       		.byte	0xe
 1965 074b 3E       		.byte	0x3e
 1966 074c 2C070000 		.4byte	0x72c
 1967 0750 1B       		.uleb128 0x1b
 1968 0751 95070000 		.4byte	.LASF116
 1969 0755 01       		.byte	0x1
 1970 0756 2801     		.2byte	0x128
 1971 0758 10010000 		.4byte	0x110
 1972 075c 00000000 		.4byte	.LFB146
 1973 0760 84000000 		.4byte	.LFE146-.LFB146
ARM GAS  /var/folders/t8/16hdwfmd2fg_d3q6dgx6bpmw0000gn/T//cc30os3f.s 			page 36


 1974 0764 01       		.uleb128 0x1
 1975 0765 9C       		.byte	0x9c
 1976 0766 5E080000 		.4byte	0x85e
 1977 076a 1C       		.uleb128 0x1c
 1978 076b 637000   		.ascii	"cp\000"
 1979 076e 01       		.byte	0x1
 1980 076f 2801     		.2byte	0x128
 1981 0771 5E080000 		.4byte	0x85e
 1982 0775 00000000 		.4byte	.LLST23
 1983 0779 1D       		.uleb128 0x1d
 1984 077a CD020000 		.4byte	.LASF114
 1985 077e 01       		.byte	0x1
 1986 077f 2801     		.2byte	0x128
 1987 0781 31010000 		.4byte	0x131
 1988 0785 63000000 		.4byte	.LLST24
 1989 0789 1E       		.uleb128 0x1e
 1990 078a 6D7000   		.ascii	"mp\000"
 1991 078d 01       		.byte	0x1
 1992 078e 2901     		.2byte	0x129
 1993 0790 26070000 		.4byte	0x726
 1994 0794 1F       		.uleb128 0x1f
 1995 0795 6D736700 		.ascii	"msg\000"
 1996 0799 01       		.byte	0x1
 1997 079a 2A01     		.2byte	0x12a
 1998 079c 10010000 		.4byte	0x110
 1999 07a0 9A000000 		.4byte	.LLST25
 2000 07a4 20       		.uleb128 0x20
 2001 07a5 B0070000 		.4byte	.LASF115
 2002 07a9 74080000 		.4byte	0x874
 2003 07ad 05       		.uleb128 0x5
 2004 07ae 03       		.byte	0x3
 2005 07af 00000000 		.4byte	__func__.5759
 2006 07b3 21       		.uleb128 0x21
 2007 07b4 23100000 		.4byte	0x1023
 2008 07b8 2C000000 		.4byte	.LBB160
 2009 07bc 98000000 		.4byte	.Ldebug_ranges0+0x98
 2010 07c0 01       		.byte	0x1
 2011 07c1 3701     		.2byte	0x137
 2012 07c3 E9070000 		.4byte	0x7e9
 2013 07c7 22       		.uleb128 0x22
 2014 07c8 3B100000 		.4byte	0x103b
 2015 07cc C3000000 		.4byte	.LLST26
 2016 07d0 22       		.uleb128 0x22
 2017 07d1 30100000 		.4byte	0x1030
 2018 07d5 F7000000 		.4byte	.LLST27
 2019 07d9 23       		.uleb128 0x23
 2020 07da 98000000 		.4byte	.Ldebug_ranges0+0x98
 2021 07de 24       		.uleb128 0x24
 2022 07df 47100000 		.4byte	0x1047
 2023 07e3 15010000 		.4byte	.LLST28
 2024 07e7 00       		.byte	0
 2025 07e8 00       		.byte	0
 2026 07e9 25       		.uleb128 0x25
 2027 07ea 0A000000 		.4byte	.LVL81
 2028 07ee BA100000 		.4byte	0x10ba
 2029 07f2 26       		.uleb128 0x26
 2030 07f3 22000000 		.4byte	.LVL82
ARM GAS  /var/folders/t8/16hdwfmd2fg_d3q6dgx6bpmw0000gn/T//cc30os3f.s 			page 37


 2031 07f7 C5100000 		.4byte	0x10c5
 2032 07fb 06080000 		.4byte	0x806
 2033 07ff 27       		.uleb128 0x27
 2034 0800 01       		.uleb128 0x1
 2035 0801 50       		.byte	0x50
 2036 0802 02       		.uleb128 0x2
 2037 0803 75       		.byte	0x75
 2038 0804 00       		.sleb128 0
 2039 0805 00       		.byte	0
 2040 0806 26       		.uleb128 0x26
 2041 0807 4C000000 		.4byte	.LVL90
 2042 080b D0100000 		.4byte	0x10d0
 2043 080f 1F080000 		.4byte	0x81f
 2044 0813 27       		.uleb128 0x27
 2045 0814 01       		.uleb128 0x1
 2046 0815 50       		.byte	0x50
 2047 0816 01       		.uleb128 0x1
 2048 0817 37       		.byte	0x37
 2049 0818 27       		.uleb128 0x27
 2050 0819 01       		.uleb128 0x1
 2051 081a 51       		.byte	0x51
 2052 081b 02       		.uleb128 0x2
 2053 081c 77       		.byte	0x77
 2054 081d 00       		.sleb128 0
 2055 081e 00       		.byte	0
 2056 081f 26       		.uleb128 0x26
 2057 0820 58000000 		.4byte	.LVL93
 2058 0824 DC100000 		.4byte	0x10dc
 2059 0828 33080000 		.4byte	0x833
 2060 082c 27       		.uleb128 0x27
 2061 082d 01       		.uleb128 0x1
 2062 082e 50       		.byte	0x50
 2063 082f 02       		.uleb128 0x2
 2064 0830 75       		.byte	0x75
 2065 0831 00       		.sleb128 0
 2066 0832 00       		.byte	0
 2067 0833 26       		.uleb128 0x26
 2068 0834 62000000 		.4byte	.LVL97
 2069 0838 E7100000 		.4byte	0x10e7
 2070 083c 4A080000 		.4byte	0x84a
 2071 0840 27       		.uleb128 0x27
 2072 0841 01       		.uleb128 0x1
 2073 0842 50       		.byte	0x50
 2074 0843 05       		.uleb128 0x5
 2075 0844 03       		.byte	0x3
 2076 0845 00000000 		.4byte	.LANCHOR6
 2077 0849 00       		.byte	0
 2078 084a 28       		.uleb128 0x28
 2079 084b 72000000 		.4byte	.LVL98
 2080 084f E7100000 		.4byte	0x10e7
 2081 0853 27       		.uleb128 0x27
 2082 0854 01       		.uleb128 0x1
 2083 0855 50       		.byte	0x50
 2084 0856 05       		.uleb128 0x5
 2085 0857 03       		.byte	0x3
 2086 0858 00000000 		.4byte	.LANCHOR6
 2087 085c 00       		.byte	0
ARM GAS  /var/folders/t8/16hdwfmd2fg_d3q6dgx6bpmw0000gn/T//cc30os3f.s 			page 38


 2088 085d 00       		.byte	0
 2089 085e 0B       		.uleb128 0xb
 2090 085f 04       		.byte	0x4
 2091 0860 45070000 		.4byte	0x745
 2092 0864 15       		.uleb128 0x15
 2093 0865 DC050000 		.4byte	0x5dc
 2094 0869 74080000 		.4byte	0x874
 2095 086d 19       		.uleb128 0x19
 2096 086e 2C000000 		.4byte	0x2c
 2097 0872 12       		.byte	0x12
 2098 0873 00       		.byte	0
 2099 0874 0C       		.uleb128 0xc
 2100 0875 64080000 		.4byte	0x864
 2101 0879 1B       		.uleb128 0x1b
 2102 087a E6030000 		.4byte	.LASF117
 2103 087e 01       		.byte	0x1
 2104 087f 0201     		.2byte	0x102
 2105 0881 10010000 		.4byte	0x110
 2106 0885 00000000 		.4byte	.LFB145
 2107 0889 44000000 		.4byte	.LFE145-.LFB145
 2108 088d 01       		.uleb128 0x1
 2109 088e 9C       		.byte	0x9c
 2110 088f 7D090000 		.4byte	0x97d
 2111 0893 1C       		.uleb128 0x1c
 2112 0894 637000   		.ascii	"cp\000"
 2113 0897 01       		.byte	0x1
 2114 0898 0201     		.2byte	0x102
 2115 089a 5E080000 		.4byte	0x85e
 2116 089e 33010000 		.4byte	.LLST29
 2117 08a2 1D       		.uleb128 0x1d
 2118 08a3 CD020000 		.4byte	.LASF114
 2119 08a7 01       		.byte	0x1
 2120 08a8 0201     		.2byte	0x102
 2121 08aa 31010000 		.4byte	0x131
 2122 08ae 5F010000 		.4byte	.LLST30
 2123 08b2 1F       		.uleb128 0x1f
 2124 08b3 6D736700 		.ascii	"msg\000"
 2125 08b7 01       		.byte	0x1
 2126 08b8 0301     		.2byte	0x103
 2127 08ba 10010000 		.4byte	0x110
 2128 08be 96010000 		.4byte	.LLST31
 2129 08c2 29       		.uleb128 0x29
 2130 08c3 EB0F0000 		.4byte	0xfeb
 2131 08c7 06000000 		.4byte	.LBB176
 2132 08cb 06000000 		.4byte	.LBE176-.LBB176
 2133 08cf 01       		.byte	0x1
 2134 08d0 0501     		.2byte	0x105
 2135 08d2 05090000 		.4byte	0x905
 2136 08d6 29       		.uleb128 0x29
 2137 08d7 A1100000 		.4byte	0x10a1
 2138 08db 06000000 		.4byte	.LBB178
 2139 08df 02000000 		.4byte	.LBE178-.LBB178
 2140 08e3 04       		.byte	0x4
 2141 08e4 7801     		.2byte	0x178
 2142 08e6 FB080000 		.4byte	0x8fb
 2143 08ea 2A       		.uleb128 0x2a
 2144 08eb AA100000 		.4byte	0x10aa
ARM GAS  /var/folders/t8/16hdwfmd2fg_d3q6dgx6bpmw0000gn/T//cc30os3f.s 			page 39


 2145 08ef 06000000 		.4byte	.LBB179
 2146 08f3 02000000 		.4byte	.LBE179-.LBB179
 2147 08f7 0B       		.byte	0xb
 2148 08f8 7501     		.2byte	0x175
 2149 08fa 00       		.byte	0
 2150 08fb 25       		.uleb128 0x25
 2151 08fc 0C000000 		.4byte	.LVL102
 2152 0900 F3100000 		.4byte	0x10f3
 2153 0904 00       		.byte	0
 2154 0905 21       		.uleb128 0x21
 2155 0906 D00F0000 		.4byte	0xfd0
 2156 090a 16000000 		.4byte	.LBB181
 2157 090e B8000000 		.4byte	.Ldebug_ranges0+0xb8
 2158 0912 01       		.byte	0x1
 2159 0913 0701     		.2byte	0x107
 2160 0915 66090000 		.4byte	0x966
 2161 0919 23       		.uleb128 0x23
 2162 091a B8000000 		.4byte	.Ldebug_ranges0+0xb8
 2163 091e 2B       		.uleb128 0x2b
 2164 091f DD0F0000 		.4byte	0xfdd
 2165 0923 29       		.uleb128 0x29
 2166 0924 98100000 		.4byte	0x1098
 2167 0928 2C000000 		.4byte	.LBB183
 2168 092c 02000000 		.4byte	.LBE183-.LBB183
 2169 0930 04       		.byte	0x4
 2170 0931 8F01     		.2byte	0x18f
 2171 0933 48090000 		.4byte	0x948
 2172 0937 2A       		.uleb128 0x2a
 2173 0938 B2100000 		.4byte	0x10b2
 2174 093c 2C000000 		.4byte	.LBB184
 2175 0940 02000000 		.4byte	.LBE184-.LBB184
 2176 0944 0B       		.byte	0xb
 2177 0945 7E01     		.2byte	0x17e
 2178 0947 00       		.byte	0
 2179 0948 25       		.uleb128 0x25
 2180 0949 1A000000 		.4byte	.LVL105
 2181 094d FE100000 		.4byte	0x10fe
 2182 0951 28       		.uleb128 0x28
 2183 0952 38000000 		.4byte	.LVL109
 2184 0956 E7100000 		.4byte	0x10e7
 2185 095a 27       		.uleb128 0x27
 2186 095b 01       		.uleb128 0x1
 2187 095c 50       		.byte	0x50
 2188 095d 05       		.uleb128 0x5
 2189 095e 03       		.byte	0x3
 2190 095f 00000000 		.4byte	.LANCHOR2
 2191 0963 00       		.byte	0
 2192 0964 00       		.byte	0
 2193 0965 00       		.byte	0
 2194 0966 28       		.uleb128 0x28
 2195 0967 14000000 		.4byte	.LVL103
 2196 096b 50070000 		.4byte	0x750
 2197 096f 27       		.uleb128 0x27
 2198 0970 01       		.uleb128 0x1
 2199 0971 50       		.byte	0x50
 2200 0972 02       		.uleb128 0x2
 2201 0973 74       		.byte	0x74
ARM GAS  /var/folders/t8/16hdwfmd2fg_d3q6dgx6bpmw0000gn/T//cc30os3f.s 			page 40


 2202 0974 00       		.sleb128 0
 2203 0975 27       		.uleb128 0x27
 2204 0976 01       		.uleb128 0x1
 2205 0977 51       		.byte	0x51
 2206 0978 02       		.uleb128 0x2
 2207 0979 75       		.byte	0x75
 2208 097a 00       		.sleb128 0
 2209 097b 00       		.byte	0
 2210 097c 00       		.byte	0
 2211 097d 2C       		.uleb128 0x2c
 2212 097e 4A060000 		.4byte	.LASF118
 2213 0982 01       		.byte	0x1
 2214 0983 CD       		.byte	0xcd
 2215 0984 10010000 		.4byte	0x110
 2216 0988 00000000 		.4byte	.LFB144
 2217 098c 70000000 		.4byte	.LFE144-.LFB144
 2218 0990 01       		.uleb128 0x1
 2219 0991 9C       		.byte	0x9c
 2220 0992 8E0A0000 		.4byte	0xa8e
 2221 0996 2D       		.uleb128 0x2d
 2222 0997 637000   		.ascii	"cp\000"
 2223 099a 01       		.byte	0x1
 2224 099b CD       		.byte	0xcd
 2225 099c 5E080000 		.4byte	0x85e
 2226 09a0 CA010000 		.4byte	.LLST15
 2227 09a4 2E       		.uleb128 0x2e
 2228 09a5 63747000 		.ascii	"ctp\000"
 2229 09a9 01       		.byte	0x1
 2230 09aa CE       		.byte	0xce
 2231 09ab 41020000 		.4byte	0x241
 2232 09af 22020000 		.4byte	.LLST16
 2233 09b3 2F       		.uleb128 0x2f
 2234 09b4 6D7000   		.ascii	"mp\000"
 2235 09b7 01       		.byte	0x1
 2236 09b8 CF       		.byte	0xcf
 2237 09b9 26070000 		.4byte	0x726
 2238 09bd 2E       		.uleb128 0x2e
 2239 09be 6D736700 		.ascii	"msg\000"
 2240 09c2 01       		.byte	0x1
 2241 09c3 D0       		.byte	0xd0
 2242 09c4 10010000 		.4byte	0x110
 2243 09c8 40020000 		.4byte	.LLST17
 2244 09cc 20       		.uleb128 0x20
 2245 09cd B0070000 		.4byte	.LASF115
 2246 09d1 9E0A0000 		.4byte	0xa9e
 2247 09d5 05       		.uleb128 0x5
 2248 09d6 03       		.byte	0x3
 2249 09d7 00000000 		.4byte	__func__.5747
 2250 09db 30       		.uleb128 0x30
 2251 09dc B70F0000 		.4byte	0xfb7
 2252 09e0 16000000 		.4byte	.LBB130
 2253 09e4 04000000 		.4byte	.LBE130-.LBB130
 2254 09e8 01       		.byte	0x1
 2255 09e9 D7       		.byte	0xd7
 2256 09ea 31       		.uleb128 0x31
 2257 09eb 23100000 		.4byte	0x1023
 2258 09ef 28000000 		.4byte	.LBB132
ARM GAS  /var/folders/t8/16hdwfmd2fg_d3q6dgx6bpmw0000gn/T//cc30os3f.s 			page 41


 2259 09f3 60000000 		.4byte	.Ldebug_ranges0+0x60
 2260 09f7 01       		.byte	0x1
 2261 09f8 DD       		.byte	0xdd
 2262 09f9 1F0A0000 		.4byte	0xa1f
 2263 09fd 22       		.uleb128 0x22
 2264 09fe 3B100000 		.4byte	0x103b
 2265 0a02 5E020000 		.4byte	.LLST18
 2266 0a06 22       		.uleb128 0x22
 2267 0a07 30100000 		.4byte	0x1030
 2268 0a0b 92020000 		.4byte	.LLST19
 2269 0a0f 23       		.uleb128 0x23
 2270 0a10 60000000 		.4byte	.Ldebug_ranges0+0x60
 2271 0a14 24       		.uleb128 0x24
 2272 0a15 47100000 		.4byte	0x1047
 2273 0a19 B0020000 		.4byte	.LLST20
 2274 0a1d 00       		.byte	0
 2275 0a1e 00       		.byte	0
 2276 0a1f 25       		.uleb128 0x25
 2277 0a20 0C000000 		.4byte	.LVL53
 2278 0a24 BA100000 		.4byte	0x10ba
 2279 0a28 26       		.uleb128 0x26
 2280 0a29 20000000 		.4byte	.LVL54
 2281 0a2d C5100000 		.4byte	0x10c5
 2282 0a31 3C0A0000 		.4byte	0xa3c
 2283 0a35 27       		.uleb128 0x27
 2284 0a36 01       		.uleb128 0x1
 2285 0a37 50       		.byte	0x50
 2286 0a38 02       		.uleb128 0x2
 2287 0a39 76       		.byte	0x76
 2288 0a3a 00       		.sleb128 0
 2289 0a3b 00       		.byte	0
 2290 0a3c 26       		.uleb128 0x26
 2291 0a3d 46000000 		.4byte	.LVL62
 2292 0a41 09110000 		.4byte	0x1109
 2293 0a45 4F0A0000 		.4byte	0xa4f
 2294 0a49 27       		.uleb128 0x27
 2295 0a4a 01       		.uleb128 0x1
 2296 0a4b 50       		.byte	0x50
 2297 0a4c 01       		.uleb128 0x1
 2298 0a4d 37       		.byte	0x37
 2299 0a4e 00       		.byte	0
 2300 0a4f 26       		.uleb128 0x26
 2301 0a50 4E000000 		.4byte	.LVL64
 2302 0a54 DC100000 		.4byte	0x10dc
 2303 0a58 630A0000 		.4byte	0xa63
 2304 0a5c 27       		.uleb128 0x27
 2305 0a5d 01       		.uleb128 0x1
 2306 0a5e 50       		.byte	0x50
 2307 0a5f 02       		.uleb128 0x2
 2308 0a60 76       		.byte	0x76
 2309 0a61 00       		.sleb128 0
 2310 0a62 00       		.byte	0
 2311 0a63 26       		.uleb128 0x26
 2312 0a64 5C000000 		.4byte	.LVL70
 2313 0a68 E7100000 		.4byte	0x10e7
 2314 0a6c 7A0A0000 		.4byte	0xa7a
 2315 0a70 27       		.uleb128 0x27
ARM GAS  /var/folders/t8/16hdwfmd2fg_d3q6dgx6bpmw0000gn/T//cc30os3f.s 			page 42


 2316 0a71 01       		.uleb128 0x1
 2317 0a72 50       		.byte	0x50
 2318 0a73 05       		.uleb128 0x5
 2319 0a74 03       		.byte	0x3
 2320 0a75 00000000 		.4byte	.LANCHOR5
 2321 0a79 00       		.byte	0
 2322 0a7a 28       		.uleb128 0x28
 2323 0a7b 64000000 		.4byte	.LVL71
 2324 0a7f E7100000 		.4byte	0x10e7
 2325 0a83 27       		.uleb128 0x27
 2326 0a84 01       		.uleb128 0x1
 2327 0a85 50       		.byte	0x50
 2328 0a86 05       		.uleb128 0x5
 2329 0a87 03       		.byte	0x3
 2330 0a88 00000000 		.4byte	.LANCHOR5
 2331 0a8c 00       		.byte	0
 2332 0a8d 00       		.byte	0
 2333 0a8e 15       		.uleb128 0x15
 2334 0a8f DC050000 		.4byte	0x5dc
 2335 0a93 9E0A0000 		.4byte	0xa9e
 2336 0a97 19       		.uleb128 0x19
 2337 0a98 2C000000 		.4byte	0x2c
 2338 0a9c 0B       		.byte	0xb
 2339 0a9d 00       		.byte	0
 2340 0a9e 0C       		.uleb128 0xc
 2341 0a9f 8E0A0000 		.4byte	0xa8e
 2342 0aa3 2C       		.uleb128 0x2c
 2343 0aa4 8D020000 		.4byte	.LASF119
 2344 0aa8 01       		.byte	0x1
 2345 0aa9 B3       		.byte	0xb3
 2346 0aaa 10010000 		.4byte	0x110
 2347 0aae 00000000 		.4byte	.LFB143
 2348 0ab2 40000000 		.4byte	.LFE143-.LFB143
 2349 0ab6 01       		.uleb128 0x1
 2350 0ab7 9C       		.byte	0x9c
 2351 0ab8 8C0B0000 		.4byte	0xb8c
 2352 0abc 2D       		.uleb128 0x2d
 2353 0abd 637000   		.ascii	"cp\000"
 2354 0ac0 01       		.byte	0x1
 2355 0ac1 B3       		.byte	0xb3
 2356 0ac2 5E080000 		.4byte	0x85e
 2357 0ac6 CE020000 		.4byte	.LLST21
 2358 0aca 2E       		.uleb128 0x2e
 2359 0acb 6D736700 		.ascii	"msg\000"
 2360 0acf 01       		.byte	0x1
 2361 0ad0 B4       		.byte	0xb4
 2362 0ad1 10010000 		.4byte	0x110
 2363 0ad5 FA020000 		.4byte	.LLST22
 2364 0ad9 32       		.uleb128 0x32
 2365 0ada EB0F0000 		.4byte	0xfeb
 2366 0ade 04000000 		.4byte	.LBB148
 2367 0ae2 06000000 		.4byte	.LBE148-.LBB148
 2368 0ae6 01       		.byte	0x1
 2369 0ae7 B6       		.byte	0xb6
 2370 0ae8 1B0B0000 		.4byte	0xb1b
 2371 0aec 29       		.uleb128 0x29
 2372 0aed A1100000 		.4byte	0x10a1
ARM GAS  /var/folders/t8/16hdwfmd2fg_d3q6dgx6bpmw0000gn/T//cc30os3f.s 			page 43


 2373 0af1 04000000 		.4byte	.LBB150
 2374 0af5 02000000 		.4byte	.LBE150-.LBB150
 2375 0af9 04       		.byte	0x4
 2376 0afa 7801     		.2byte	0x178
 2377 0afc 110B0000 		.4byte	0xb11
 2378 0b00 2A       		.uleb128 0x2a
 2379 0b01 AA100000 		.4byte	0x10aa
 2380 0b05 04000000 		.4byte	.LBB151
 2381 0b09 02000000 		.4byte	.LBE151-.LBB151
 2382 0b0d 0B       		.byte	0xb
 2383 0b0e 7501     		.2byte	0x175
 2384 0b10 00       		.byte	0
 2385 0b11 25       		.uleb128 0x25
 2386 0b12 0A000000 		.4byte	.LVL73
 2387 0b16 F3100000 		.4byte	0x10f3
 2388 0b1a 00       		.byte	0
 2389 0b1b 31       		.uleb128 0x31
 2390 0b1c D00F0000 		.4byte	0xfd0
 2391 0b20 12000000 		.4byte	.LBB153
 2392 0b24 80000000 		.4byte	.Ldebug_ranges0+0x80
 2393 0b28 01       		.byte	0x1
 2394 0b29 B8       		.byte	0xb8
 2395 0b2a 7B0B0000 		.4byte	0xb7b
 2396 0b2e 23       		.uleb128 0x23
 2397 0b2f 80000000 		.4byte	.Ldebug_ranges0+0x80
 2398 0b33 2B       		.uleb128 0x2b
 2399 0b34 DD0F0000 		.4byte	0xfdd
 2400 0b38 29       		.uleb128 0x29
 2401 0b39 98100000 		.4byte	0x1098
 2402 0b3d 28000000 		.4byte	.LBB155
 2403 0b41 02000000 		.4byte	.LBE155-.LBB155
 2404 0b45 04       		.byte	0x4
 2405 0b46 8F01     		.2byte	0x18f
 2406 0b48 5D0B0000 		.4byte	0xb5d
 2407 0b4c 2A       		.uleb128 0x2a
 2408 0b4d B2100000 		.4byte	0x10b2
 2409 0b51 28000000 		.4byte	.LBB156
 2410 0b55 02000000 		.4byte	.LBE156-.LBB156
 2411 0b59 0B       		.byte	0xb
 2412 0b5a 7E01     		.2byte	0x17e
 2413 0b5c 00       		.byte	0
 2414 0b5d 25       		.uleb128 0x25
 2415 0b5e 16000000 		.4byte	.LVL76
 2416 0b62 FE100000 		.4byte	0x10fe
 2417 0b66 28       		.uleb128 0x28
 2418 0b67 34000000 		.4byte	.LVL79
 2419 0b6b E7100000 		.4byte	0x10e7
 2420 0b6f 27       		.uleb128 0x27
 2421 0b70 01       		.uleb128 0x1
 2422 0b71 50       		.byte	0x50
 2423 0b72 05       		.uleb128 0x5
 2424 0b73 03       		.byte	0x3
 2425 0b74 00000000 		.4byte	.LANCHOR2
 2426 0b78 00       		.byte	0
 2427 0b79 00       		.byte	0
 2428 0b7a 00       		.byte	0
 2429 0b7b 28       		.uleb128 0x28
ARM GAS  /var/folders/t8/16hdwfmd2fg_d3q6dgx6bpmw0000gn/T//cc30os3f.s 			page 44


 2430 0b7c 10000000 		.4byte	.LVL74
 2431 0b80 7D090000 		.4byte	0x97d
 2432 0b84 27       		.uleb128 0x27
 2433 0b85 01       		.uleb128 0x1
 2434 0b86 50       		.byte	0x50
 2435 0b87 02       		.uleb128 0x2
 2436 0b88 74       		.byte	0x74
 2437 0b89 00       		.sleb128 0
 2438 0b8a 00       		.byte	0
 2439 0b8b 00       		.byte	0
 2440 0b8c 33       		.uleb128 0x33
 2441 0b8d D5030000 		.4byte	.LASF120
 2442 0b91 01       		.byte	0x1
 2443 0b92 95       		.byte	0x95
 2444 0b93 00000000 		.4byte	.LFB142
 2445 0b97 38000000 		.4byte	.LFE142-.LFB142
 2446 0b9b 01       		.uleb128 0x1
 2447 0b9c 9C       		.byte	0x9c
 2448 0b9d 310C0000 		.4byte	0xc31
 2449 0ba1 2D       		.uleb128 0x2d
 2450 0ba2 637000   		.ascii	"cp\000"
 2451 0ba5 01       		.byte	0x1
 2452 0ba6 95       		.byte	0x95
 2453 0ba7 5E080000 		.4byte	0x85e
 2454 0bab 2E030000 		.4byte	.LLST10
 2455 0baf 20       		.uleb128 0x20
 2456 0bb0 B0070000 		.4byte	.LASF115
 2457 0bb4 410C0000 		.4byte	0xc41
 2458 0bb8 05       		.uleb128 0x5
 2459 0bb9 03       		.byte	0x3
 2460 0bba 00000000 		.4byte	__func__.5733
 2461 0bbe 31       		.uleb128 0x31
 2462 0bbf 53100000 		.4byte	0x1053
 2463 0bc3 0C000000 		.4byte	.LBB102
 2464 0bc7 30000000 		.4byte	.Ldebug_ranges0+0x30
 2465 0bcb 01       		.byte	0x1
 2466 0bcc 9D       		.byte	0x9d
 2467 0bcd DB0B0000 		.4byte	0xbdb
 2468 0bd1 22       		.uleb128 0x22
 2469 0bd2 64100000 		.4byte	0x1064
 2470 0bd6 65030000 		.4byte	.LLST11
 2471 0bda 00       		.byte	0
 2472 0bdb 32       		.uleb128 0x32
 2473 0bdc F40F0000 		.4byte	0xff4
 2474 0be0 16000000 		.4byte	.LBB105
 2475 0be4 06000000 		.4byte	.LBE105-.LBB105
 2476 0be8 01       		.byte	0x1
 2477 0be9 9E       		.byte	0x9e
 2478 0bea 0B0C0000 		.4byte	0xc0b
 2479 0bee 22       		.uleb128 0x22
 2480 0bef 05100000 		.4byte	0x1005
 2481 0bf3 83030000 		.4byte	.LLST12
 2482 0bf7 34       		.uleb128 0x34
 2483 0bf8 16000000 		.4byte	.LBB106
 2484 0bfc 06000000 		.4byte	.LBE106-.LBB106
 2485 0c00 24       		.uleb128 0x24
 2486 0c01 11100000 		.4byte	0x1011
ARM GAS  /var/folders/t8/16hdwfmd2fg_d3q6dgx6bpmw0000gn/T//cc30os3f.s 			page 45


 2487 0c05 96030000 		.4byte	.LLST13
 2488 0c09 00       		.byte	0
 2489 0c0a 00       		.byte	0
 2490 0c0b 25       		.uleb128 0x25
 2491 0c0c 08000000 		.4byte	.LVL32
 2492 0c10 15110000 		.4byte	0x1115
 2493 0c14 25       		.uleb128 0x25
 2494 0c15 20000000 		.4byte	.LVL37
 2495 0c19 20110000 		.4byte	0x1120
 2496 0c1d 28       		.uleb128 0x28
 2497 0c1e 30000000 		.4byte	.LVL42
 2498 0c22 E7100000 		.4byte	0x10e7
 2499 0c26 27       		.uleb128 0x27
 2500 0c27 01       		.uleb128 0x1
 2501 0c28 50       		.byte	0x50
 2502 0c29 05       		.uleb128 0x5
 2503 0c2a 03       		.byte	0x3
 2504 0c2b 00000000 		.4byte	.LANCHOR4
 2505 0c2f 00       		.byte	0
 2506 0c30 00       		.byte	0
 2507 0c31 15       		.uleb128 0x15
 2508 0c32 DC050000 		.4byte	0x5dc
 2509 0c36 410C0000 		.4byte	0xc41
 2510 0c3a 19       		.uleb128 0x19
 2511 0c3b 2C000000 		.4byte	0x2c
 2512 0c3f 10       		.byte	0x10
 2513 0c40 00       		.byte	0
 2514 0c41 0C       		.uleb128 0xc
 2515 0c42 310C0000 		.4byte	0xc31
 2516 0c46 33       		.uleb128 0x33
 2517 0c47 95030000 		.4byte	.LASF121
 2518 0c4b 01       		.byte	0x1
 2519 0c4c 82       		.byte	0x82
 2520 0c4d 00000000 		.4byte	.LFB141
 2521 0c51 40000000 		.4byte	.LFE141-.LFB141
 2522 0c55 01       		.uleb128 0x1
 2523 0c56 9C       		.byte	0x9c
 2524 0c57 290D0000 		.4byte	0xd29
 2525 0c5b 2D       		.uleb128 0x2d
 2526 0c5c 637000   		.ascii	"cp\000"
 2527 0c5f 01       		.byte	0x1
 2528 0c60 82       		.byte	0x82
 2529 0c61 5E080000 		.4byte	0x85e
 2530 0c65 A9030000 		.4byte	.LLST14
 2531 0c69 32       		.uleb128 0x32
 2532 0c6a EB0F0000 		.4byte	0xfeb
 2533 0c6e 04000000 		.4byte	.LBB118
 2534 0c72 06000000 		.4byte	.LBE118-.LBB118
 2535 0c76 01       		.byte	0x1
 2536 0c77 84       		.byte	0x84
 2537 0c78 AB0C0000 		.4byte	0xcab
 2538 0c7c 29       		.uleb128 0x29
 2539 0c7d A1100000 		.4byte	0x10a1
 2540 0c81 04000000 		.4byte	.LBB120
 2541 0c85 02000000 		.4byte	.LBE120-.LBB120
 2542 0c89 04       		.byte	0x4
 2543 0c8a 7801     		.2byte	0x178
ARM GAS  /var/folders/t8/16hdwfmd2fg_d3q6dgx6bpmw0000gn/T//cc30os3f.s 			page 46


 2544 0c8c A10C0000 		.4byte	0xca1
 2545 0c90 2A       		.uleb128 0x2a
 2546 0c91 AA100000 		.4byte	0x10aa
 2547 0c95 04000000 		.4byte	.LBB121
 2548 0c99 02000000 		.4byte	.LBE121-.LBB121
 2549 0c9d 0B       		.byte	0xb
 2550 0c9e 7501     		.2byte	0x175
 2551 0ca0 00       		.byte	0
 2552 0ca1 25       		.uleb128 0x25
 2553 0ca2 0A000000 		.4byte	.LVL44
 2554 0ca6 F3100000 		.4byte	0x10f3
 2555 0caa 00       		.byte	0
 2556 0cab 31       		.uleb128 0x31
 2557 0cac D00F0000 		.4byte	0xfd0
 2558 0cb0 14000000 		.4byte	.LBB123
 2559 0cb4 48000000 		.4byte	.Ldebug_ranges0+0x48
 2560 0cb8 01       		.byte	0x1
 2561 0cb9 87       		.byte	0x87
 2562 0cba 0B0D0000 		.4byte	0xd0b
 2563 0cbe 23       		.uleb128 0x23
 2564 0cbf 48000000 		.4byte	.Ldebug_ranges0+0x48
 2565 0cc3 2B       		.uleb128 0x2b
 2566 0cc4 DD0F0000 		.4byte	0xfdd
 2567 0cc8 29       		.uleb128 0x29
 2568 0cc9 98100000 		.4byte	0x1098
 2569 0ccd 2A000000 		.4byte	.LBB125
 2570 0cd1 02000000 		.4byte	.LBE125-.LBB125
 2571 0cd5 04       		.byte	0x4
 2572 0cd6 8F01     		.2byte	0x18f
 2573 0cd8 ED0C0000 		.4byte	0xced
 2574 0cdc 2A       		.uleb128 0x2a
 2575 0cdd B2100000 		.4byte	0x10b2
 2576 0ce1 2A000000 		.4byte	.LBB126
 2577 0ce5 02000000 		.4byte	.LBE126-.LBB126
 2578 0ce9 0B       		.byte	0xb
 2579 0cea 7E01     		.2byte	0x17e
 2580 0cec 00       		.byte	0
 2581 0ced 25       		.uleb128 0x25
 2582 0cee 18000000 		.4byte	.LVL47
 2583 0cf2 FE100000 		.4byte	0x10fe
 2584 0cf6 28       		.uleb128 0x28
 2585 0cf7 34000000 		.4byte	.LVL50
 2586 0cfb E7100000 		.4byte	0x10e7
 2587 0cff 27       		.uleb128 0x27
 2588 0d00 01       		.uleb128 0x1
 2589 0d01 50       		.byte	0x50
 2590 0d02 05       		.uleb128 0x5
 2591 0d03 03       		.byte	0x3
 2592 0d04 00000000 		.4byte	.LANCHOR2
 2593 0d08 00       		.byte	0
 2594 0d09 00       		.byte	0
 2595 0d0a 00       		.byte	0
 2596 0d0b 26       		.uleb128 0x26
 2597 0d0c 10000000 		.4byte	.LVL45
 2598 0d10 8C0B0000 		.4byte	0xb8c
 2599 0d14 1F0D0000 		.4byte	0xd1f
 2600 0d18 27       		.uleb128 0x27
ARM GAS  /var/folders/t8/16hdwfmd2fg_d3q6dgx6bpmw0000gn/T//cc30os3f.s 			page 47


 2601 0d19 01       		.uleb128 0x1
 2602 0d1a 50       		.byte	0x50
 2603 0d1b 02       		.uleb128 0x2
 2604 0d1c 74       		.byte	0x74
 2605 0d1d 00       		.sleb128 0
 2606 0d1e 00       		.byte	0
 2607 0d1f 25       		.uleb128 0x25
 2608 0d20 14000000 		.4byte	.LVL46
 2609 0d24 2C110000 		.4byte	0x112c
 2610 0d28 00       		.byte	0
 2611 0d29 33       		.uleb128 0x33
 2612 0d2a 1B010000 		.4byte	.LASF122
 2613 0d2e 01       		.byte	0x1
 2614 0d2f 6F       		.byte	0x6f
 2615 0d30 00000000 		.4byte	.LFB140
 2616 0d34 30000000 		.4byte	.LFE140-.LFB140
 2617 0d38 01       		.uleb128 0x1
 2618 0d39 9C       		.byte	0x9c
 2619 0d3a E60D0000 		.4byte	0xde6
 2620 0d3e 2D       		.uleb128 0x2d
 2621 0d3f 637000   		.ascii	"cp\000"
 2622 0d42 01       		.byte	0x1
 2623 0d43 6F       		.byte	0x6f
 2624 0d44 5E080000 		.4byte	0x85e
 2625 0d48 E0030000 		.4byte	.LLST6
 2626 0d4c 20       		.uleb128 0x20
 2627 0d4d B0070000 		.4byte	.LASF115
 2628 0d51 F60D0000 		.4byte	0xdf6
 2629 0d55 05       		.uleb128 0x5
 2630 0d56 03       		.byte	0x3
 2631 0d57 00000000 		.4byte	__func__.5725
 2632 0d5b 35       		.uleb128 0x35
 2633 0d5c 12000000 		.4byte	.LBB99
 2634 0d60 0E000000 		.4byte	.LBE99-.LBB99
 2635 0d64 AC0D0000 		.4byte	0xdac
 2636 0d68 2F       		.uleb128 0x2f
 2637 0d69 747000   		.ascii	"tp\000"
 2638 0d6c 01       		.byte	0x1
 2639 0d6d 75       		.byte	0x75
 2640 0d6e 41020000 		.4byte	0x241
 2641 0d72 32       		.uleb128 0x32
 2642 0d73 F40F0000 		.4byte	0xff4
 2643 0d77 12000000 		.4byte	.LBB100
 2644 0d7b 06000000 		.4byte	.LBE100-.LBB100
 2645 0d7f 01       		.byte	0x1
 2646 0d80 75       		.byte	0x75
 2647 0d81 A20D0000 		.4byte	0xda2
 2648 0d85 22       		.uleb128 0x22
 2649 0d86 05100000 		.4byte	0x1005
 2650 0d8a 17040000 		.4byte	.LLST8
 2651 0d8e 34       		.uleb128 0x34
 2652 0d8f 12000000 		.4byte	.LBB101
 2653 0d93 06000000 		.4byte	.LBE101-.LBB101
 2654 0d97 24       		.uleb128 0x24
 2655 0d98 11100000 		.4byte	0x1011
 2656 0d9c 2A040000 		.4byte	.LLST9
 2657 0da0 00       		.byte	0
ARM GAS  /var/folders/t8/16hdwfmd2fg_d3q6dgx6bpmw0000gn/T//cc30os3f.s 			page 48


 2658 0da1 00       		.byte	0
 2659 0da2 25       		.uleb128 0x25
 2660 0da3 20000000 		.4byte	.LVL27
 2661 0da7 20110000 		.4byte	0x1120
 2662 0dab 00       		.byte	0
 2663 0dac 32       		.uleb128 0x32
 2664 0dad 53100000 		.4byte	0x1053
 2665 0db1 0C000000 		.4byte	.LBB97
 2666 0db5 02000000 		.4byte	.LBE97-.LBB97
 2667 0db9 01       		.byte	0x1
 2668 0dba 74       		.byte	0x74
 2669 0dbb C90D0000 		.4byte	0xdc9
 2670 0dbf 22       		.uleb128 0x22
 2671 0dc0 64100000 		.4byte	0x1064
 2672 0dc4 3D040000 		.4byte	.LLST7
 2673 0dc8 00       		.byte	0
 2674 0dc9 25       		.uleb128 0x25
 2675 0dca 08000000 		.4byte	.LVL22
 2676 0dce 15110000 		.4byte	0x1115
 2677 0dd2 28       		.uleb128 0x28
 2678 0dd3 28000000 		.4byte	.LVL30
 2679 0dd7 E7100000 		.4byte	0x10e7
 2680 0ddb 27       		.uleb128 0x27
 2681 0ddc 01       		.uleb128 0x1
 2682 0ddd 50       		.byte	0x50
 2683 0dde 05       		.uleb128 0x5
 2684 0ddf 03       		.byte	0x3
 2685 0de0 00000000 		.4byte	.LANCHOR3
 2686 0de4 00       		.byte	0
 2687 0de5 00       		.byte	0
 2688 0de6 15       		.uleb128 0x15
 2689 0de7 DC050000 		.4byte	0x5dc
 2690 0deb F60D0000 		.4byte	0xdf6
 2691 0def 19       		.uleb128 0x19
 2692 0df0 2C000000 		.4byte	0x2c
 2693 0df4 0D       		.byte	0xd
 2694 0df5 00       		.byte	0
 2695 0df6 0C       		.uleb128 0xc
 2696 0df7 E60D0000 		.4byte	0xde6
 2697 0dfb 33       		.uleb128 0x33
 2698 0dfc DF040000 		.4byte	.LASF123
 2699 0e00 01       		.byte	0x1
 2700 0e01 59       		.byte	0x59
 2701 0e02 00000000 		.4byte	.LFB139
 2702 0e06 54000000 		.4byte	.LFE139-.LFB139
 2703 0e0a 01       		.uleb128 0x1
 2704 0e0b 9C       		.byte	0x9c
 2705 0e0c 3F0F0000 		.4byte	0xf3f
 2706 0e10 2D       		.uleb128 0x2d
 2707 0e11 637000   		.ascii	"cp\000"
 2708 0e14 01       		.byte	0x1
 2709 0e15 59       		.byte	0x59
 2710 0e16 5E080000 		.4byte	0x85e
 2711 0e1a 50040000 		.4byte	.LLST2
 2712 0e1e 20       		.uleb128 0x20
 2713 0e1f B0070000 		.4byte	.LASF115
 2714 0e23 4F0F0000 		.4byte	0xf4f
ARM GAS  /var/folders/t8/16hdwfmd2fg_d3q6dgx6bpmw0000gn/T//cc30os3f.s 			page 49


 2715 0e27 05       		.uleb128 0x5
 2716 0e28 03       		.byte	0x3
 2717 0e29 00000000 		.4byte	__func__.5721
 2718 0e2d 32       		.uleb128 0x32
 2719 0e2e EB0F0000 		.4byte	0xfeb
 2720 0e32 06000000 		.4byte	.LBB79
 2721 0e36 06000000 		.4byte	.LBE79-.LBB79
 2722 0e3a 01       		.byte	0x1
 2723 0e3b 5D       		.byte	0x5d
 2724 0e3c 6F0E0000 		.4byte	0xe6f
 2725 0e40 29       		.uleb128 0x29
 2726 0e41 A1100000 		.4byte	0x10a1
 2727 0e45 06000000 		.4byte	.LBB81
 2728 0e49 02000000 		.4byte	.LBE81-.LBB81
 2729 0e4d 04       		.byte	0x4
 2730 0e4e 7801     		.2byte	0x178
 2731 0e50 650E0000 		.4byte	0xe65
 2732 0e54 2A       		.uleb128 0x2a
 2733 0e55 AA100000 		.4byte	0x10aa
 2734 0e59 06000000 		.4byte	.LBB82
 2735 0e5d 02000000 		.4byte	.LBE82-.LBB82
 2736 0e61 0B       		.byte	0xb
 2737 0e62 7501     		.2byte	0x175
 2738 0e64 00       		.byte	0
 2739 0e65 25       		.uleb128 0x25
 2740 0e66 0C000000 		.4byte	.LVL9
 2741 0e6a F3100000 		.4byte	0x10f3
 2742 0e6e 00       		.byte	0
 2743 0e6f 32       		.uleb128 0x32
 2744 0e70 53100000 		.4byte	0x1053
 2745 0e74 0C000000 		.4byte	.LBB84
 2746 0e78 02000000 		.4byte	.LBE84-.LBB84
 2747 0e7c 01       		.byte	0x1
 2748 0e7d 5E       		.byte	0x5e
 2749 0e7e 8C0E0000 		.4byte	0xe8c
 2750 0e82 22       		.uleb128 0x22
 2751 0e83 64100000 		.4byte	0x1064
 2752 0e87 9D040000 		.4byte	.LLST3
 2753 0e8b 00       		.byte	0
 2754 0e8c 31       		.uleb128 0x31
 2755 0e8d F40F0000 		.4byte	0xff4
 2756 0e91 12000000 		.4byte	.LBB86
 2757 0e95 00000000 		.4byte	.Ldebug_ranges0+0
 2758 0e99 01       		.byte	0x1
 2759 0e9a 5F       		.byte	0x5f
 2760 0e9b B80E0000 		.4byte	0xeb8
 2761 0e9f 22       		.uleb128 0x22
 2762 0ea0 05100000 		.4byte	0x1005
 2763 0ea4 B0040000 		.4byte	.LLST4
 2764 0ea8 23       		.uleb128 0x23
 2765 0ea9 00000000 		.4byte	.Ldebug_ranges0+0
 2766 0ead 24       		.uleb128 0x24
 2767 0eae 11100000 		.4byte	0x1011
 2768 0eb2 C3040000 		.4byte	.LLST5
 2769 0eb6 00       		.byte	0
 2770 0eb7 00       		.byte	0
 2771 0eb8 31       		.uleb128 0x31
ARM GAS  /var/folders/t8/16hdwfmd2fg_d3q6dgx6bpmw0000gn/T//cc30os3f.s 			page 50


 2772 0eb9 D00F0000 		.4byte	0xfd0
 2773 0ebd 1E000000 		.4byte	.LBB90
 2774 0ec1 18000000 		.4byte	.Ldebug_ranges0+0x18
 2775 0ec5 01       		.byte	0x1
 2776 0ec6 61       		.byte	0x61
 2777 0ec7 180F0000 		.4byte	0xf18
 2778 0ecb 23       		.uleb128 0x23
 2779 0ecc 18000000 		.4byte	.Ldebug_ranges0+0x18
 2780 0ed0 2B       		.uleb128 0x2b
 2781 0ed1 DD0F0000 		.4byte	0xfdd
 2782 0ed5 29       		.uleb128 0x29
 2783 0ed6 98100000 		.4byte	0x1098
 2784 0eda 34000000 		.4byte	.LBB92
 2785 0ede 02000000 		.4byte	.LBE92-.LBB92
 2786 0ee2 04       		.byte	0x4
 2787 0ee3 8F01     		.2byte	0x18f
 2788 0ee5 FA0E0000 		.4byte	0xefa
 2789 0ee9 2A       		.uleb128 0x2a
 2790 0eea B2100000 		.4byte	0x10b2
 2791 0eee 34000000 		.4byte	.LBB93
 2792 0ef2 02000000 		.4byte	.LBE93-.LBB93
 2793 0ef6 0B       		.byte	0xb
 2794 0ef7 7E01     		.2byte	0x17e
 2795 0ef9 00       		.byte	0
 2796 0efa 25       		.uleb128 0x25
 2797 0efb 22000000 		.4byte	.LVL14
 2798 0eff FE100000 		.4byte	0x10fe
 2799 0f03 28       		.uleb128 0x28
 2800 0f04 3E000000 		.4byte	.LVL17
 2801 0f08 E7100000 		.4byte	0x10e7
 2802 0f0c 27       		.uleb128 0x27
 2803 0f0d 01       		.uleb128 0x1
 2804 0f0e 50       		.byte	0x50
 2805 0f0f 05       		.uleb128 0x5
 2806 0f10 03       		.byte	0x3
 2807 0f11 00000000 		.4byte	.LANCHOR2
 2808 0f15 00       		.byte	0
 2809 0f16 00       		.byte	0
 2810 0f17 00       		.byte	0
 2811 0f18 26       		.uleb128 0x26
 2812 0f19 1E000000 		.4byte	.LVL13
 2813 0f1d 38110000 		.4byte	0x1138
 2814 0f21 2B0F0000 		.4byte	0xf2b
 2815 0f25 27       		.uleb128 0x27
 2816 0f26 01       		.uleb128 0x1
 2817 0f27 51       		.byte	0x51
 2818 0f28 01       		.uleb128 0x1
 2819 0f29 30       		.byte	0x30
 2820 0f2a 00       		.byte	0
 2821 0f2b 28       		.uleb128 0x28
 2822 0f2c 46000000 		.4byte	.LVL20
 2823 0f30 E7100000 		.4byte	0x10e7
 2824 0f34 27       		.uleb128 0x27
 2825 0f35 01       		.uleb128 0x1
 2826 0f36 50       		.byte	0x50
 2827 0f37 05       		.uleb128 0x5
 2828 0f38 03       		.byte	0x3
ARM GAS  /var/folders/t8/16hdwfmd2fg_d3q6dgx6bpmw0000gn/T//cc30os3f.s 			page 51


 2829 0f39 00000000 		.4byte	.LANCHOR1
 2830 0f3d 00       		.byte	0
 2831 0f3e 00       		.byte	0
 2832 0f3f 15       		.uleb128 0x15
 2833 0f40 DC050000 		.4byte	0x5dc
 2834 0f44 4F0F0000 		.4byte	0xf4f
 2835 0f48 19       		.uleb128 0x19
 2836 0f49 2C000000 		.4byte	0x2c
 2837 0f4d 0C       		.byte	0xc
 2838 0f4e 00       		.byte	0
 2839 0f4f 0C       		.uleb128 0xc
 2840 0f50 3F0F0000 		.4byte	0xf3f
 2841 0f54 33       		.uleb128 0x33
 2842 0f55 2E020000 		.4byte	.LASF124
 2843 0f59 01       		.byte	0x1
 2844 0f5a 4B       		.byte	0x4b
 2845 0f5b 00000000 		.4byte	.LFB138
 2846 0f5f 18000000 		.4byte	.LFE138-.LFB138
 2847 0f63 01       		.uleb128 0x1
 2848 0f64 9C       		.byte	0x9c
 2849 0f65 B70F0000 		.4byte	0xfb7
 2850 0f69 2D       		.uleb128 0x2d
 2851 0f6a 637000   		.ascii	"cp\000"
 2852 0f6d 01       		.byte	0x1
 2853 0f6e 4B       		.byte	0x4b
 2854 0f6f 5E080000 		.4byte	0x85e
 2855 0f73 D6040000 		.4byte	.LLST0
 2856 0f77 20       		.uleb128 0x20
 2857 0f78 B0070000 		.4byte	.LASF115
 2858 0f7c 410C0000 		.4byte	0xc41
 2859 0f80 05       		.uleb128 0x5
 2860 0f81 03       		.byte	0x3
 2861 0f82 00000000 		.4byte	__func__.5717
 2862 0f86 32       		.uleb128 0x32
 2863 0f87 7E100000 		.4byte	0x107e
 2864 0f8b 06000000 		.4byte	.LBB63
 2865 0f8f 04000000 		.4byte	.LBE63-.LBB63
 2866 0f93 01       		.byte	0x1
 2867 0f94 4F       		.byte	0x4f
 2868 0f95 A30F0000 		.4byte	0xfa3
 2869 0f99 22       		.uleb128 0x22
 2870 0f9a 8B100000 		.4byte	0x108b
 2871 0f9e 18050000 		.4byte	.LLST1
 2872 0fa2 00       		.byte	0
 2873 0fa3 28       		.uleb128 0x28
 2874 0fa4 12000000 		.4byte	.LVL6
 2875 0fa8 E7100000 		.4byte	0x10e7
 2876 0fac 27       		.uleb128 0x27
 2877 0fad 01       		.uleb128 0x1
 2878 0fae 50       		.byte	0x50
 2879 0faf 05       		.uleb128 0x5
 2880 0fb0 03       		.byte	0x3
 2881 0fb1 00000000 		.4byte	.LANCHOR0
 2882 0fb5 00       		.byte	0
 2883 0fb6 00       		.byte	0
 2884 0fb7 36       		.uleb128 0x36
 2885 0fb8 1A070000 		.4byte	.LASF125
ARM GAS  /var/folders/t8/16hdwfmd2fg_d3q6dgx6bpmw0000gn/T//cc30os3f.s 			page 52


 2886 0fbc 05       		.byte	0x5
 2887 0fbd 90       		.byte	0x90
 2888 0fbe 26070000 		.4byte	0x726
 2889 0fc2 03       		.byte	0x3
 2890 0fc3 37       		.uleb128 0x37
 2891 0fc4 DA020000 		.4byte	.LASF126
 2892 0fc8 0F       		.byte	0xf
 2893 0fc9 1301     		.2byte	0x113
 2894 0fcb 41020000 		.4byte	0x241
 2895 0fcf 03       		.byte	0x3
 2896 0fd0 38       		.uleb128 0x38
 2897 0fd1 6D060000 		.4byte	.LASF127
 2898 0fd5 04       		.byte	0x4
 2899 0fd6 8201     		.2byte	0x182
 2900 0fd8 03       		.byte	0x3
 2901 0fd9 EB0F0000 		.4byte	0xfeb
 2902 0fdd 39       		.uleb128 0x39
 2903 0fde B0070000 		.4byte	.LASF115
 2904 0fe2 9E0A0000 		.4byte	0xa9e
 2905 0fe6 6D060000 		.4byte	.LASF127
 2906 0fea 00       		.byte	0
 2907 0feb 3A       		.uleb128 0x3a
 2908 0fec A5030000 		.4byte	.LASF133
 2909 0ff0 04       		.byte	0x4
 2910 0ff1 7601     		.2byte	0x176
 2911 0ff3 03       		.byte	0x3
 2912 0ff4 3B       		.uleb128 0x3b
 2913 0ff5 EC040000 		.4byte	.LASF129
 2914 0ff9 02       		.byte	0x2
 2915 0ffa 6902     		.2byte	0x269
 2916 0ffc 41020000 		.4byte	0x241
 2917 1000 03       		.byte	0x3
 2918 1001 1D100000 		.4byte	0x101d
 2919 1005 3C       		.uleb128 0x3c
 2920 1006 74717000 		.ascii	"tqp\000"
 2921 100a 02       		.byte	0x2
 2922 100b 6902     		.2byte	0x269
 2923 100d 1D100000 		.4byte	0x101d
 2924 1011 1E       		.uleb128 0x1e
 2925 1012 747000   		.ascii	"tp\000"
 2926 1015 02       		.byte	0x2
 2927 1016 6A02     		.2byte	0x26a
 2928 1018 41020000 		.4byte	0x241
 2929 101c 00       		.byte	0
 2930 101d 0B       		.uleb128 0xb
 2931 101e 04       		.byte	0x4
 2932 101f 6B020000 		.4byte	0x26b
 2933 1023 38       		.uleb128 0x38
 2934 1024 BE030000 		.4byte	.LASF128
 2935 1028 02       		.byte	0x2
 2936 1029 5502     		.2byte	0x255
 2937 102b 03       		.byte	0x3
 2938 102c 53100000 		.4byte	0x1053
 2939 1030 3C       		.uleb128 0x3c
 2940 1031 747000   		.ascii	"tp\000"
 2941 1034 02       		.byte	0x2
 2942 1035 5502     		.2byte	0x255
ARM GAS  /var/folders/t8/16hdwfmd2fg_d3q6dgx6bpmw0000gn/T//cc30os3f.s 			page 53


 2943 1037 41020000 		.4byte	0x241
 2944 103b 3C       		.uleb128 0x3c
 2945 103c 74717000 		.ascii	"tqp\000"
 2946 1040 02       		.byte	0x2
 2947 1041 5502     		.2byte	0x255
 2948 1043 1D100000 		.4byte	0x101d
 2949 1047 1E       		.uleb128 0x1e
 2950 1048 637000   		.ascii	"cp\000"
 2951 104b 02       		.byte	0x2
 2952 104c 5702     		.2byte	0x257
 2953 104e 41020000 		.4byte	0x241
 2954 1052 00       		.byte	0
 2955 1053 3B       		.uleb128 0x3b
 2956 1054 24040000 		.4byte	.LASF130
 2957 1058 02       		.byte	0x2
 2958 1059 3F02     		.2byte	0x23f
 2959 105b 71100000 		.4byte	0x1071
 2960 105f 03       		.byte	0x3
 2961 1060 71100000 		.4byte	0x1071
 2962 1064 3C       		.uleb128 0x3c
 2963 1065 74717000 		.ascii	"tqp\000"
 2964 1069 02       		.byte	0x2
 2965 106a 3F02     		.2byte	0x23f
 2966 106c 78100000 		.4byte	0x1078
 2967 1070 00       		.byte	0
 2968 1071 03       		.uleb128 0x3
 2969 1072 01       		.byte	0x1
 2970 1073 02       		.byte	0x2
 2971 1074 4F030000 		.4byte	.LASF131
 2972 1078 0B       		.uleb128 0xb
 2973 1079 04       		.byte	0x4
 2974 107a 76020000 		.4byte	0x276
 2975 107e 38       		.uleb128 0x38
 2976 107f D8060000 		.4byte	.LASF132
 2977 1083 02       		.byte	0x2
 2978 1084 2402     		.2byte	0x224
 2979 1086 03       		.byte	0x3
 2980 1087 98100000 		.4byte	0x1098
 2981 108b 3C       		.uleb128 0x3c
 2982 108c 74717000 		.ascii	"tqp\000"
 2983 1090 02       		.byte	0x2
 2984 1091 2402     		.2byte	0x224
 2985 1093 1D100000 		.4byte	0x101d
 2986 1097 00       		.byte	0
 2987 1098 3A       		.uleb128 0x3a
 2988 1099 C2070000 		.4byte	.LASF134
 2989 109d 0B       		.byte	0xb
 2990 109e 7C01     		.2byte	0x17c
 2991 10a0 03       		.byte	0x3
 2992 10a1 3A       		.uleb128 0x3a
 2993 10a2 B1010000 		.4byte	.LASF135
 2994 10a6 0B       		.byte	0xb
 2995 10a7 7301     		.2byte	0x173
 2996 10a9 03       		.byte	0x3
 2997 10aa 3D       		.uleb128 0x3d
 2998 10ab 41030000 		.4byte	.LASF136
 2999 10af 03       		.byte	0x3
ARM GAS  /var/folders/t8/16hdwfmd2fg_d3q6dgx6bpmw0000gn/T//cc30os3f.s 			page 54


 3000 10b0 45       		.byte	0x45
 3001 10b1 03       		.byte	0x3
 3002 10b2 3D       		.uleb128 0x3d
 3003 10b3 EF050000 		.4byte	.LASF137
 3004 10b7 03       		.byte	0x3
 3005 10b8 3A       		.byte	0x3a
 3006 10b9 03       		.byte	0x3
 3007 10ba 3E       		.uleb128 0x3e
 3008 10bb 26050000 		.4byte	.LASF138
 3009 10bf 26050000 		.4byte	.LASF138
 3010 10c3 10       		.byte	0x10
 3011 10c4 9D       		.byte	0x9d
 3012 10c5 3E       		.uleb128 0x3e
 3013 10c6 3D060000 		.4byte	.LASF139
 3014 10ca 3D060000 		.4byte	.LASF139
 3015 10ce 05       		.byte	0x5
 3016 10cf 6C       		.byte	0x6c
 3017 10d0 3F       		.uleb128 0x3f
 3018 10d1 A0060000 		.4byte	.LASF140
 3019 10d5 A0060000 		.4byte	.LASF140
 3020 10d9 02       		.byte	0x2
 3021 10da DF01     		.2byte	0x1df
 3022 10dc 3E       		.uleb128 0x3e
 3023 10dd 56060000 		.4byte	.LASF141
 3024 10e1 56060000 		.4byte	.LASF141
 3025 10e5 05       		.byte	0x5
 3026 10e6 68       		.byte	0x68
 3027 10e7 3F       		.uleb128 0x3f
 3028 10e8 40070000 		.4byte	.LASF142
 3029 10ec 40070000 		.4byte	.LASF142
 3030 10f0 04       		.byte	0x4
 3031 10f1 3201     		.2byte	0x132
 3032 10f3 3E       		.uleb128 0x3e
 3033 10f4 6F040000 		.4byte	.LASF143
 3034 10f8 6F040000 		.4byte	.LASF143
 3035 10fc 10       		.byte	0x10
 3036 10fd 96       		.byte	0x96
 3037 10fe 3E       		.uleb128 0x3e
 3038 10ff 09010000 		.4byte	.LASF144
 3039 1103 09010000 		.4byte	.LASF144
 3040 1107 10       		.byte	0x10
 3041 1108 97       		.byte	0x97
 3042 1109 3F       		.uleb128 0x3f
 3043 110a 24060000 		.4byte	.LASF145
 3044 110e 24060000 		.4byte	.LASF145
 3045 1112 02       		.byte	0x2
 3046 1113 DE01     		.2byte	0x1de
 3047 1115 3E       		.uleb128 0x3e
 3048 1116 0B050000 		.4byte	.LASF146
 3049 111a 0B050000 		.4byte	.LASF146
 3050 111e 10       		.byte	0x10
 3051 111f 9C       		.byte	0x9c
 3052 1120 3F       		.uleb128 0x3f
 3053 1121 12020000 		.4byte	.LASF147
 3054 1125 12020000 		.4byte	.LASF147
 3055 1129 02       		.byte	0x2
 3056 112a DC01     		.2byte	0x1dc
ARM GAS  /var/folders/t8/16hdwfmd2fg_d3q6dgx6bpmw0000gn/T//cc30os3f.s 			page 55


 3057 112c 3F       		.uleb128 0x3f
 3058 112d 84030000 		.4byte	.LASF148
 3059 1131 84030000 		.4byte	.LASF148
 3060 1135 02       		.byte	0x2
 3061 1136 E101     		.2byte	0x1e1
 3062 1138 3F       		.uleb128 0x3f
 3063 1139 2D070000 		.4byte	.LASF149
 3064 113d 2D070000 		.4byte	.LASF149
 3065 1141 02       		.byte	0x2
 3066 1142 E001     		.2byte	0x1e0
 3067 1144 00       		.byte	0
 3068              		.section	.debug_abbrev,"",%progbits
 3069              	.Ldebug_abbrev0:
 3070 0000 01       		.uleb128 0x1
 3071 0001 11       		.uleb128 0x11
 3072 0002 01       		.byte	0x1
 3073 0003 25       		.uleb128 0x25
 3074 0004 0E       		.uleb128 0xe
 3075 0005 13       		.uleb128 0x13
 3076 0006 0B       		.uleb128 0xb
 3077 0007 03       		.uleb128 0x3
 3078 0008 0E       		.uleb128 0xe
 3079 0009 1B       		.uleb128 0x1b
 3080 000a 0E       		.uleb128 0xe
 3081 000b 55       		.uleb128 0x55
 3082 000c 17       		.uleb128 0x17
 3083 000d 11       		.uleb128 0x11
 3084 000e 01       		.uleb128 0x1
 3085 000f 10       		.uleb128 0x10
 3086 0010 17       		.uleb128 0x17
 3087 0011 00       		.byte	0
 3088 0012 00       		.byte	0
 3089 0013 02       		.uleb128 0x2
 3090 0014 24       		.uleb128 0x24
 3091 0015 00       		.byte	0
 3092 0016 0B       		.uleb128 0xb
 3093 0017 0B       		.uleb128 0xb
 3094 0018 3E       		.uleb128 0x3e
 3095 0019 0B       		.uleb128 0xb
 3096 001a 03       		.uleb128 0x3
 3097 001b 08       		.uleb128 0x8
 3098 001c 00       		.byte	0
 3099 001d 00       		.byte	0
 3100 001e 03       		.uleb128 0x3
 3101 001f 24       		.uleb128 0x24
 3102 0020 00       		.byte	0
 3103 0021 0B       		.uleb128 0xb
 3104 0022 0B       		.uleb128 0xb
 3105 0023 3E       		.uleb128 0x3e
 3106 0024 0B       		.uleb128 0xb
 3107 0025 03       		.uleb128 0x3
 3108 0026 0E       		.uleb128 0xe
 3109 0027 00       		.byte	0
 3110 0028 00       		.byte	0
 3111 0029 04       		.uleb128 0x4
 3112 002a 16       		.uleb128 0x16
 3113 002b 00       		.byte	0
ARM GAS  /var/folders/t8/16hdwfmd2fg_d3q6dgx6bpmw0000gn/T//cc30os3f.s 			page 56


 3114 002c 03       		.uleb128 0x3
 3115 002d 0E       		.uleb128 0xe
 3116 002e 3A       		.uleb128 0x3a
 3117 002f 0B       		.uleb128 0xb
 3118 0030 3B       		.uleb128 0x3b
 3119 0031 0B       		.uleb128 0xb
 3120 0032 49       		.uleb128 0x49
 3121 0033 13       		.uleb128 0x13
 3122 0034 00       		.byte	0
 3123 0035 00       		.byte	0
 3124 0036 05       		.uleb128 0x5
 3125 0037 35       		.uleb128 0x35
 3126 0038 00       		.byte	0
 3127 0039 49       		.uleb128 0x49
 3128 003a 13       		.uleb128 0x13
 3129 003b 00       		.byte	0
 3130 003c 00       		.byte	0
 3131 003d 06       		.uleb128 0x6
 3132 003e 13       		.uleb128 0x13
 3133 003f 01       		.byte	0x1
 3134 0040 03       		.uleb128 0x3
 3135 0041 0E       		.uleb128 0xe
 3136 0042 0B       		.uleb128 0xb
 3137 0043 0B       		.uleb128 0xb
 3138 0044 3A       		.uleb128 0x3a
 3139 0045 0B       		.uleb128 0xb
 3140 0046 3B       		.uleb128 0x3b
 3141 0047 0B       		.uleb128 0xb
 3142 0048 01       		.uleb128 0x1
 3143 0049 13       		.uleb128 0x13
 3144 004a 00       		.byte	0
 3145 004b 00       		.byte	0
 3146 004c 07       		.uleb128 0x7
 3147 004d 0D       		.uleb128 0xd
 3148 004e 00       		.byte	0
 3149 004f 03       		.uleb128 0x3
 3150 0050 0E       		.uleb128 0xe
 3151 0051 3A       		.uleb128 0x3a
 3152 0052 0B       		.uleb128 0xb
 3153 0053 3B       		.uleb128 0x3b
 3154 0054 0B       		.uleb128 0xb
 3155 0055 49       		.uleb128 0x49
 3156 0056 13       		.uleb128 0x13
 3157 0057 38       		.uleb128 0x38
 3158 0058 0B       		.uleb128 0xb
 3159 0059 00       		.byte	0
 3160 005a 00       		.byte	0
 3161 005b 08       		.uleb128 0x8
 3162 005c 0D       		.uleb128 0xd
 3163 005d 00       		.byte	0
 3164 005e 03       		.uleb128 0x3
 3165 005f 08       		.uleb128 0x8
 3166 0060 3A       		.uleb128 0x3a
 3167 0061 0B       		.uleb128 0xb
 3168 0062 3B       		.uleb128 0x3b
 3169 0063 0B       		.uleb128 0xb
 3170 0064 49       		.uleb128 0x49
ARM GAS  /var/folders/t8/16hdwfmd2fg_d3q6dgx6bpmw0000gn/T//cc30os3f.s 			page 57


 3171 0065 13       		.uleb128 0x13
 3172 0066 38       		.uleb128 0x38
 3173 0067 0B       		.uleb128 0xb
 3174 0068 00       		.byte	0
 3175 0069 00       		.byte	0
 3176 006a 09       		.uleb128 0x9
 3177 006b 0D       		.uleb128 0xd
 3178 006c 00       		.byte	0
 3179 006d 03       		.uleb128 0x3
 3180 006e 08       		.uleb128 0x8
 3181 006f 3A       		.uleb128 0x3a
 3182 0070 0B       		.uleb128 0xb
 3183 0071 3B       		.uleb128 0x3b
 3184 0072 05       		.uleb128 0x5
 3185 0073 49       		.uleb128 0x49
 3186 0074 13       		.uleb128 0x13
 3187 0075 38       		.uleb128 0x38
 3188 0076 0B       		.uleb128 0xb
 3189 0077 00       		.byte	0
 3190 0078 00       		.byte	0
 3191 0079 0A       		.uleb128 0xa
 3192 007a 0D       		.uleb128 0xd
 3193 007b 00       		.byte	0
 3194 007c 03       		.uleb128 0x3
 3195 007d 0E       		.uleb128 0xe
 3196 007e 3A       		.uleb128 0x3a
 3197 007f 0B       		.uleb128 0xb
 3198 0080 3B       		.uleb128 0x3b
 3199 0081 05       		.uleb128 0x5
 3200 0082 49       		.uleb128 0x49
 3201 0083 13       		.uleb128 0x13
 3202 0084 38       		.uleb128 0x38
 3203 0085 0B       		.uleb128 0xb
 3204 0086 00       		.byte	0
 3205 0087 00       		.byte	0
 3206 0088 0B       		.uleb128 0xb
 3207 0089 0F       		.uleb128 0xf
 3208 008a 00       		.byte	0
 3209 008b 0B       		.uleb128 0xb
 3210 008c 0B       		.uleb128 0xb
 3211 008d 49       		.uleb128 0x49
 3212 008e 13       		.uleb128 0x13
 3213 008f 00       		.byte	0
 3214 0090 00       		.byte	0
 3215 0091 0C       		.uleb128 0xc
 3216 0092 26       		.uleb128 0x26
 3217 0093 00       		.byte	0
 3218 0094 49       		.uleb128 0x49
 3219 0095 13       		.uleb128 0x13
 3220 0096 00       		.byte	0
 3221 0097 00       		.byte	0
 3222 0098 0D       		.uleb128 0xd
 3223 0099 13       		.uleb128 0x13
 3224 009a 01       		.byte	0x1
 3225 009b 03       		.uleb128 0x3
 3226 009c 0E       		.uleb128 0xe
 3227 009d 0B       		.uleb128 0xb
ARM GAS  /var/folders/t8/16hdwfmd2fg_d3q6dgx6bpmw0000gn/T//cc30os3f.s 			page 58


 3228 009e 0B       		.uleb128 0xb
 3229 009f 3A       		.uleb128 0x3a
 3230 00a0 0B       		.uleb128 0xb
 3231 00a1 3B       		.uleb128 0x3b
 3232 00a2 05       		.uleb128 0x5
 3233 00a3 01       		.uleb128 0x1
 3234 00a4 13       		.uleb128 0x13
 3235 00a5 00       		.byte	0
 3236 00a6 00       		.byte	0
 3237 00a7 0E       		.uleb128 0xe
 3238 00a8 15       		.uleb128 0x15
 3239 00a9 01       		.byte	0x1
 3240 00aa 27       		.uleb128 0x27
 3241 00ab 19       		.uleb128 0x19
 3242 00ac 01       		.uleb128 0x1
 3243 00ad 13       		.uleb128 0x13
 3244 00ae 00       		.byte	0
 3245 00af 00       		.byte	0
 3246 00b0 0F       		.uleb128 0xf
 3247 00b1 05       		.uleb128 0x5
 3248 00b2 00       		.byte	0
 3249 00b3 49       		.uleb128 0x49
 3250 00b4 13       		.uleb128 0x13
 3251 00b5 00       		.byte	0
 3252 00b6 00       		.byte	0
 3253 00b7 10       		.uleb128 0x10
 3254 00b8 0F       		.uleb128 0xf
 3255 00b9 00       		.byte	0
 3256 00ba 0B       		.uleb128 0xb
 3257 00bb 0B       		.uleb128 0xb
 3258 00bc 00       		.byte	0
 3259 00bd 00       		.byte	0
 3260 00be 11       		.uleb128 0x11
 3261 00bf 17       		.uleb128 0x17
 3262 00c0 01       		.byte	0x1
 3263 00c1 0B       		.uleb128 0xb
 3264 00c2 0B       		.uleb128 0xb
 3265 00c3 3A       		.uleb128 0x3a
 3266 00c4 0B       		.uleb128 0xb
 3267 00c5 3B       		.uleb128 0x3b
 3268 00c6 0B       		.uleb128 0xb
 3269 00c7 01       		.uleb128 0x1
 3270 00c8 13       		.uleb128 0x13
 3271 00c9 00       		.byte	0
 3272 00ca 00       		.byte	0
 3273 00cb 12       		.uleb128 0x12
 3274 00cc 0D       		.uleb128 0xd
 3275 00cd 00       		.byte	0
 3276 00ce 03       		.uleb128 0x3
 3277 00cf 0E       		.uleb128 0xe
 3278 00d0 3A       		.uleb128 0x3a
 3279 00d1 0B       		.uleb128 0xb
 3280 00d2 3B       		.uleb128 0x3b
 3281 00d3 0B       		.uleb128 0xb
 3282 00d4 49       		.uleb128 0x49
 3283 00d5 13       		.uleb128 0x13
 3284 00d6 00       		.byte	0
ARM GAS  /var/folders/t8/16hdwfmd2fg_d3q6dgx6bpmw0000gn/T//cc30os3f.s 			page 59


 3285 00d7 00       		.byte	0
 3286 00d8 13       		.uleb128 0x13
 3287 00d9 0D       		.uleb128 0xd
 3288 00da 00       		.byte	0
 3289 00db 03       		.uleb128 0x3
 3290 00dc 0E       		.uleb128 0xe
 3291 00dd 3A       		.uleb128 0x3a
 3292 00de 0B       		.uleb128 0xb
 3293 00df 3B       		.uleb128 0x3b
 3294 00e0 05       		.uleb128 0x5
 3295 00e1 49       		.uleb128 0x49
 3296 00e2 13       		.uleb128 0x13
 3297 00e3 00       		.byte	0
 3298 00e4 00       		.byte	0
 3299 00e5 14       		.uleb128 0x14
 3300 00e6 34       		.uleb128 0x34
 3301 00e7 00       		.byte	0
 3302 00e8 03       		.uleb128 0x3
 3303 00e9 08       		.uleb128 0x8
 3304 00ea 3A       		.uleb128 0x3a
 3305 00eb 0B       		.uleb128 0xb
 3306 00ec 3B       		.uleb128 0x3b
 3307 00ed 05       		.uleb128 0x5
 3308 00ee 49       		.uleb128 0x49
 3309 00ef 13       		.uleb128 0x13
 3310 00f0 3F       		.uleb128 0x3f
 3311 00f1 19       		.uleb128 0x19
 3312 00f2 3C       		.uleb128 0x3c
 3313 00f3 19       		.uleb128 0x19
 3314 00f4 00       		.byte	0
 3315 00f5 00       		.byte	0
 3316 00f6 15       		.uleb128 0x15
 3317 00f7 01       		.uleb128 0x1
 3318 00f8 01       		.byte	0x1
 3319 00f9 49       		.uleb128 0x49
 3320 00fa 13       		.uleb128 0x13
 3321 00fb 01       		.uleb128 0x1
 3322 00fc 13       		.uleb128 0x13
 3323 00fd 00       		.byte	0
 3324 00fe 00       		.byte	0
 3325 00ff 16       		.uleb128 0x16
 3326 0100 21       		.uleb128 0x21
 3327 0101 00       		.byte	0
 3328 0102 00       		.byte	0
 3329 0103 00       		.byte	0
 3330 0104 17       		.uleb128 0x17
 3331 0105 34       		.uleb128 0x34
 3332 0106 00       		.byte	0
 3333 0107 03       		.uleb128 0x3
 3334 0108 0E       		.uleb128 0xe
 3335 0109 3A       		.uleb128 0x3a
 3336 010a 0B       		.uleb128 0xb
 3337 010b 3B       		.uleb128 0x3b
 3338 010c 05       		.uleb128 0x5
 3339 010d 49       		.uleb128 0x49
 3340 010e 13       		.uleb128 0x13
 3341 010f 3F       		.uleb128 0x3f
ARM GAS  /var/folders/t8/16hdwfmd2fg_d3q6dgx6bpmw0000gn/T//cc30os3f.s 			page 60


 3342 0110 19       		.uleb128 0x19
 3343 0111 3C       		.uleb128 0x3c
 3344 0112 19       		.uleb128 0x19
 3345 0113 00       		.byte	0
 3346 0114 00       		.byte	0
 3347 0115 18       		.uleb128 0x18
 3348 0116 13       		.uleb128 0x13
 3349 0117 01       		.byte	0x1
 3350 0118 0B       		.uleb128 0xb
 3351 0119 0B       		.uleb128 0xb
 3352 011a 3A       		.uleb128 0x3a
 3353 011b 0B       		.uleb128 0xb
 3354 011c 3B       		.uleb128 0x3b
 3355 011d 0B       		.uleb128 0xb
 3356 011e 01       		.uleb128 0x1
 3357 011f 13       		.uleb128 0x13
 3358 0120 00       		.byte	0
 3359 0121 00       		.byte	0
 3360 0122 19       		.uleb128 0x19
 3361 0123 21       		.uleb128 0x21
 3362 0124 00       		.byte	0
 3363 0125 49       		.uleb128 0x49
 3364 0126 13       		.uleb128 0x13
 3365 0127 2F       		.uleb128 0x2f
 3366 0128 0B       		.uleb128 0xb
 3367 0129 00       		.byte	0
 3368 012a 00       		.byte	0
 3369 012b 1A       		.uleb128 0x1a
 3370 012c 34       		.uleb128 0x34
 3371 012d 00       		.byte	0
 3372 012e 03       		.uleb128 0x3
 3373 012f 0E       		.uleb128 0xe
 3374 0130 3A       		.uleb128 0x3a
 3375 0131 0B       		.uleb128 0xb
 3376 0132 3B       		.uleb128 0x3b
 3377 0133 0B       		.uleb128 0xb
 3378 0134 49       		.uleb128 0x49
 3379 0135 13       		.uleb128 0x13
 3380 0136 3F       		.uleb128 0x3f
 3381 0137 19       		.uleb128 0x19
 3382 0138 3C       		.uleb128 0x3c
 3383 0139 19       		.uleb128 0x19
 3384 013a 00       		.byte	0
 3385 013b 00       		.byte	0
 3386 013c 1B       		.uleb128 0x1b
 3387 013d 2E       		.uleb128 0x2e
 3388 013e 01       		.byte	0x1
 3389 013f 3F       		.uleb128 0x3f
 3390 0140 19       		.uleb128 0x19
 3391 0141 03       		.uleb128 0x3
 3392 0142 0E       		.uleb128 0xe
 3393 0143 3A       		.uleb128 0x3a
 3394 0144 0B       		.uleb128 0xb
 3395 0145 3B       		.uleb128 0x3b
 3396 0146 05       		.uleb128 0x5
 3397 0147 27       		.uleb128 0x27
 3398 0148 19       		.uleb128 0x19
ARM GAS  /var/folders/t8/16hdwfmd2fg_d3q6dgx6bpmw0000gn/T//cc30os3f.s 			page 61


 3399 0149 49       		.uleb128 0x49
 3400 014a 13       		.uleb128 0x13
 3401 014b 11       		.uleb128 0x11
 3402 014c 01       		.uleb128 0x1
 3403 014d 12       		.uleb128 0x12
 3404 014e 06       		.uleb128 0x6
 3405 014f 40       		.uleb128 0x40
 3406 0150 18       		.uleb128 0x18
 3407 0151 9742     		.uleb128 0x2117
 3408 0153 19       		.uleb128 0x19
 3409 0154 01       		.uleb128 0x1
 3410 0155 13       		.uleb128 0x13
 3411 0156 00       		.byte	0
 3412 0157 00       		.byte	0
 3413 0158 1C       		.uleb128 0x1c
 3414 0159 05       		.uleb128 0x5
 3415 015a 00       		.byte	0
 3416 015b 03       		.uleb128 0x3
 3417 015c 08       		.uleb128 0x8
 3418 015d 3A       		.uleb128 0x3a
 3419 015e 0B       		.uleb128 0xb
 3420 015f 3B       		.uleb128 0x3b
 3421 0160 05       		.uleb128 0x5
 3422 0161 49       		.uleb128 0x49
 3423 0162 13       		.uleb128 0x13
 3424 0163 02       		.uleb128 0x2
 3425 0164 17       		.uleb128 0x17
 3426 0165 00       		.byte	0
 3427 0166 00       		.byte	0
 3428 0167 1D       		.uleb128 0x1d
 3429 0168 05       		.uleb128 0x5
 3430 0169 00       		.byte	0
 3431 016a 03       		.uleb128 0x3
 3432 016b 0E       		.uleb128 0xe
 3433 016c 3A       		.uleb128 0x3a
 3434 016d 0B       		.uleb128 0xb
 3435 016e 3B       		.uleb128 0x3b
 3436 016f 05       		.uleb128 0x5
 3437 0170 49       		.uleb128 0x49
 3438 0171 13       		.uleb128 0x13
 3439 0172 02       		.uleb128 0x2
 3440 0173 17       		.uleb128 0x17
 3441 0174 00       		.byte	0
 3442 0175 00       		.byte	0
 3443 0176 1E       		.uleb128 0x1e
 3444 0177 34       		.uleb128 0x34
 3445 0178 00       		.byte	0
 3446 0179 03       		.uleb128 0x3
 3447 017a 08       		.uleb128 0x8
 3448 017b 3A       		.uleb128 0x3a
 3449 017c 0B       		.uleb128 0xb
 3450 017d 3B       		.uleb128 0x3b
 3451 017e 05       		.uleb128 0x5
 3452 017f 49       		.uleb128 0x49
 3453 0180 13       		.uleb128 0x13
 3454 0181 00       		.byte	0
 3455 0182 00       		.byte	0
ARM GAS  /var/folders/t8/16hdwfmd2fg_d3q6dgx6bpmw0000gn/T//cc30os3f.s 			page 62


 3456 0183 1F       		.uleb128 0x1f
 3457 0184 34       		.uleb128 0x34
 3458 0185 00       		.byte	0
 3459 0186 03       		.uleb128 0x3
 3460 0187 08       		.uleb128 0x8
 3461 0188 3A       		.uleb128 0x3a
 3462 0189 0B       		.uleb128 0xb
 3463 018a 3B       		.uleb128 0x3b
 3464 018b 05       		.uleb128 0x5
 3465 018c 49       		.uleb128 0x49
 3466 018d 13       		.uleb128 0x13
 3467 018e 02       		.uleb128 0x2
 3468 018f 17       		.uleb128 0x17
 3469 0190 00       		.byte	0
 3470 0191 00       		.byte	0
 3471 0192 20       		.uleb128 0x20
 3472 0193 34       		.uleb128 0x34
 3473 0194 00       		.byte	0
 3474 0195 03       		.uleb128 0x3
 3475 0196 0E       		.uleb128 0xe
 3476 0197 49       		.uleb128 0x49
 3477 0198 13       		.uleb128 0x13
 3478 0199 34       		.uleb128 0x34
 3479 019a 19       		.uleb128 0x19
 3480 019b 02       		.uleb128 0x2
 3481 019c 18       		.uleb128 0x18
 3482 019d 00       		.byte	0
 3483 019e 00       		.byte	0
 3484 019f 21       		.uleb128 0x21
 3485 01a0 1D       		.uleb128 0x1d
 3486 01a1 01       		.byte	0x1
 3487 01a2 31       		.uleb128 0x31
 3488 01a3 13       		.uleb128 0x13
 3489 01a4 52       		.uleb128 0x52
 3490 01a5 01       		.uleb128 0x1
 3491 01a6 55       		.uleb128 0x55
 3492 01a7 17       		.uleb128 0x17
 3493 01a8 58       		.uleb128 0x58
 3494 01a9 0B       		.uleb128 0xb
 3495 01aa 59       		.uleb128 0x59
 3496 01ab 05       		.uleb128 0x5
 3497 01ac 01       		.uleb128 0x1
 3498 01ad 13       		.uleb128 0x13
 3499 01ae 00       		.byte	0
 3500 01af 00       		.byte	0
 3501 01b0 22       		.uleb128 0x22
 3502 01b1 05       		.uleb128 0x5
 3503 01b2 00       		.byte	0
 3504 01b3 31       		.uleb128 0x31
 3505 01b4 13       		.uleb128 0x13
 3506 01b5 02       		.uleb128 0x2
 3507 01b6 17       		.uleb128 0x17
 3508 01b7 00       		.byte	0
 3509 01b8 00       		.byte	0
 3510 01b9 23       		.uleb128 0x23
 3511 01ba 0B       		.uleb128 0xb
 3512 01bb 01       		.byte	0x1
ARM GAS  /var/folders/t8/16hdwfmd2fg_d3q6dgx6bpmw0000gn/T//cc30os3f.s 			page 63


 3513 01bc 55       		.uleb128 0x55
 3514 01bd 17       		.uleb128 0x17
 3515 01be 00       		.byte	0
 3516 01bf 00       		.byte	0
 3517 01c0 24       		.uleb128 0x24
 3518 01c1 34       		.uleb128 0x34
 3519 01c2 00       		.byte	0
 3520 01c3 31       		.uleb128 0x31
 3521 01c4 13       		.uleb128 0x13
 3522 01c5 02       		.uleb128 0x2
 3523 01c6 17       		.uleb128 0x17
 3524 01c7 00       		.byte	0
 3525 01c8 00       		.byte	0
 3526 01c9 25       		.uleb128 0x25
 3527 01ca 898201   		.uleb128 0x4109
 3528 01cd 00       		.byte	0
 3529 01ce 11       		.uleb128 0x11
 3530 01cf 01       		.uleb128 0x1
 3531 01d0 31       		.uleb128 0x31
 3532 01d1 13       		.uleb128 0x13
 3533 01d2 00       		.byte	0
 3534 01d3 00       		.byte	0
 3535 01d4 26       		.uleb128 0x26
 3536 01d5 898201   		.uleb128 0x4109
 3537 01d8 01       		.byte	0x1
 3538 01d9 11       		.uleb128 0x11
 3539 01da 01       		.uleb128 0x1
 3540 01db 31       		.uleb128 0x31
 3541 01dc 13       		.uleb128 0x13
 3542 01dd 01       		.uleb128 0x1
 3543 01de 13       		.uleb128 0x13
 3544 01df 00       		.byte	0
 3545 01e0 00       		.byte	0
 3546 01e1 27       		.uleb128 0x27
 3547 01e2 8A8201   		.uleb128 0x410a
 3548 01e5 00       		.byte	0
 3549 01e6 02       		.uleb128 0x2
 3550 01e7 18       		.uleb128 0x18
 3551 01e8 9142     		.uleb128 0x2111
 3552 01ea 18       		.uleb128 0x18
 3553 01eb 00       		.byte	0
 3554 01ec 00       		.byte	0
 3555 01ed 28       		.uleb128 0x28
 3556 01ee 898201   		.uleb128 0x4109
 3557 01f1 01       		.byte	0x1
 3558 01f2 11       		.uleb128 0x11
 3559 01f3 01       		.uleb128 0x1
 3560 01f4 31       		.uleb128 0x31
 3561 01f5 13       		.uleb128 0x13
 3562 01f6 00       		.byte	0
 3563 01f7 00       		.byte	0
 3564 01f8 29       		.uleb128 0x29
 3565 01f9 1D       		.uleb128 0x1d
 3566 01fa 01       		.byte	0x1
 3567 01fb 31       		.uleb128 0x31
 3568 01fc 13       		.uleb128 0x13
 3569 01fd 11       		.uleb128 0x11
ARM GAS  /var/folders/t8/16hdwfmd2fg_d3q6dgx6bpmw0000gn/T//cc30os3f.s 			page 64


 3570 01fe 01       		.uleb128 0x1
 3571 01ff 12       		.uleb128 0x12
 3572 0200 06       		.uleb128 0x6
 3573 0201 58       		.uleb128 0x58
 3574 0202 0B       		.uleb128 0xb
 3575 0203 59       		.uleb128 0x59
 3576 0204 05       		.uleb128 0x5
 3577 0205 01       		.uleb128 0x1
 3578 0206 13       		.uleb128 0x13
 3579 0207 00       		.byte	0
 3580 0208 00       		.byte	0
 3581 0209 2A       		.uleb128 0x2a
 3582 020a 1D       		.uleb128 0x1d
 3583 020b 00       		.byte	0
 3584 020c 31       		.uleb128 0x31
 3585 020d 13       		.uleb128 0x13
 3586 020e 11       		.uleb128 0x11
 3587 020f 01       		.uleb128 0x1
 3588 0210 12       		.uleb128 0x12
 3589 0211 06       		.uleb128 0x6
 3590 0212 58       		.uleb128 0x58
 3591 0213 0B       		.uleb128 0xb
 3592 0214 59       		.uleb128 0x59
 3593 0215 05       		.uleb128 0x5
 3594 0216 00       		.byte	0
 3595 0217 00       		.byte	0
 3596 0218 2B       		.uleb128 0x2b
 3597 0219 34       		.uleb128 0x34
 3598 021a 00       		.byte	0
 3599 021b 31       		.uleb128 0x31
 3600 021c 13       		.uleb128 0x13
 3601 021d 00       		.byte	0
 3602 021e 00       		.byte	0
 3603 021f 2C       		.uleb128 0x2c
 3604 0220 2E       		.uleb128 0x2e
 3605 0221 01       		.byte	0x1
 3606 0222 3F       		.uleb128 0x3f
 3607 0223 19       		.uleb128 0x19
 3608 0224 03       		.uleb128 0x3
 3609 0225 0E       		.uleb128 0xe
 3610 0226 3A       		.uleb128 0x3a
 3611 0227 0B       		.uleb128 0xb
 3612 0228 3B       		.uleb128 0x3b
 3613 0229 0B       		.uleb128 0xb
 3614 022a 27       		.uleb128 0x27
 3615 022b 19       		.uleb128 0x19
 3616 022c 49       		.uleb128 0x49
 3617 022d 13       		.uleb128 0x13
 3618 022e 11       		.uleb128 0x11
 3619 022f 01       		.uleb128 0x1
 3620 0230 12       		.uleb128 0x12
 3621 0231 06       		.uleb128 0x6
 3622 0232 40       		.uleb128 0x40
 3623 0233 18       		.uleb128 0x18
 3624 0234 9742     		.uleb128 0x2117
 3625 0236 19       		.uleb128 0x19
 3626 0237 01       		.uleb128 0x1
ARM GAS  /var/folders/t8/16hdwfmd2fg_d3q6dgx6bpmw0000gn/T//cc30os3f.s 			page 65


 3627 0238 13       		.uleb128 0x13
 3628 0239 00       		.byte	0
 3629 023a 00       		.byte	0
 3630 023b 2D       		.uleb128 0x2d
 3631 023c 05       		.uleb128 0x5
 3632 023d 00       		.byte	0
 3633 023e 03       		.uleb128 0x3
 3634 023f 08       		.uleb128 0x8
 3635 0240 3A       		.uleb128 0x3a
 3636 0241 0B       		.uleb128 0xb
 3637 0242 3B       		.uleb128 0x3b
 3638 0243 0B       		.uleb128 0xb
 3639 0244 49       		.uleb128 0x49
 3640 0245 13       		.uleb128 0x13
 3641 0246 02       		.uleb128 0x2
 3642 0247 17       		.uleb128 0x17
 3643 0248 00       		.byte	0
 3644 0249 00       		.byte	0
 3645 024a 2E       		.uleb128 0x2e
 3646 024b 34       		.uleb128 0x34
 3647 024c 00       		.byte	0
 3648 024d 03       		.uleb128 0x3
 3649 024e 08       		.uleb128 0x8
 3650 024f 3A       		.uleb128 0x3a
 3651 0250 0B       		.uleb128 0xb
 3652 0251 3B       		.uleb128 0x3b
 3653 0252 0B       		.uleb128 0xb
 3654 0253 49       		.uleb128 0x49
 3655 0254 13       		.uleb128 0x13
 3656 0255 02       		.uleb128 0x2
 3657 0256 17       		.uleb128 0x17
 3658 0257 00       		.byte	0
 3659 0258 00       		.byte	0
 3660 0259 2F       		.uleb128 0x2f
 3661 025a 34       		.uleb128 0x34
 3662 025b 00       		.byte	0
 3663 025c 03       		.uleb128 0x3
 3664 025d 08       		.uleb128 0x8
 3665 025e 3A       		.uleb128 0x3a
 3666 025f 0B       		.uleb128 0xb
 3667 0260 3B       		.uleb128 0x3b
 3668 0261 0B       		.uleb128 0xb
 3669 0262 49       		.uleb128 0x49
 3670 0263 13       		.uleb128 0x13
 3671 0264 00       		.byte	0
 3672 0265 00       		.byte	0
 3673 0266 30       		.uleb128 0x30
 3674 0267 1D       		.uleb128 0x1d
 3675 0268 00       		.byte	0
 3676 0269 31       		.uleb128 0x31
 3677 026a 13       		.uleb128 0x13
 3678 026b 11       		.uleb128 0x11
 3679 026c 01       		.uleb128 0x1
 3680 026d 12       		.uleb128 0x12
 3681 026e 06       		.uleb128 0x6
 3682 026f 58       		.uleb128 0x58
 3683 0270 0B       		.uleb128 0xb
ARM GAS  /var/folders/t8/16hdwfmd2fg_d3q6dgx6bpmw0000gn/T//cc30os3f.s 			page 66


 3684 0271 59       		.uleb128 0x59
 3685 0272 0B       		.uleb128 0xb
 3686 0273 00       		.byte	0
 3687 0274 00       		.byte	0
 3688 0275 31       		.uleb128 0x31
 3689 0276 1D       		.uleb128 0x1d
 3690 0277 01       		.byte	0x1
 3691 0278 31       		.uleb128 0x31
 3692 0279 13       		.uleb128 0x13
 3693 027a 52       		.uleb128 0x52
 3694 027b 01       		.uleb128 0x1
 3695 027c 55       		.uleb128 0x55
 3696 027d 17       		.uleb128 0x17
 3697 027e 58       		.uleb128 0x58
 3698 027f 0B       		.uleb128 0xb
 3699 0280 59       		.uleb128 0x59
 3700 0281 0B       		.uleb128 0xb
 3701 0282 01       		.uleb128 0x1
 3702 0283 13       		.uleb128 0x13
 3703 0284 00       		.byte	0
 3704 0285 00       		.byte	0
 3705 0286 32       		.uleb128 0x32
 3706 0287 1D       		.uleb128 0x1d
 3707 0288 01       		.byte	0x1
 3708 0289 31       		.uleb128 0x31
 3709 028a 13       		.uleb128 0x13
 3710 028b 11       		.uleb128 0x11
 3711 028c 01       		.uleb128 0x1
 3712 028d 12       		.uleb128 0x12
 3713 028e 06       		.uleb128 0x6
 3714 028f 58       		.uleb128 0x58
 3715 0290 0B       		.uleb128 0xb
 3716 0291 59       		.uleb128 0x59
 3717 0292 0B       		.uleb128 0xb
 3718 0293 01       		.uleb128 0x1
 3719 0294 13       		.uleb128 0x13
 3720 0295 00       		.byte	0
 3721 0296 00       		.byte	0
 3722 0297 33       		.uleb128 0x33
 3723 0298 2E       		.uleb128 0x2e
 3724 0299 01       		.byte	0x1
 3725 029a 3F       		.uleb128 0x3f
 3726 029b 19       		.uleb128 0x19
 3727 029c 03       		.uleb128 0x3
 3728 029d 0E       		.uleb128 0xe
 3729 029e 3A       		.uleb128 0x3a
 3730 029f 0B       		.uleb128 0xb
 3731 02a0 3B       		.uleb128 0x3b
 3732 02a1 0B       		.uleb128 0xb
 3733 02a2 27       		.uleb128 0x27
 3734 02a3 19       		.uleb128 0x19
 3735 02a4 11       		.uleb128 0x11
 3736 02a5 01       		.uleb128 0x1
 3737 02a6 12       		.uleb128 0x12
 3738 02a7 06       		.uleb128 0x6
 3739 02a8 40       		.uleb128 0x40
 3740 02a9 18       		.uleb128 0x18
ARM GAS  /var/folders/t8/16hdwfmd2fg_d3q6dgx6bpmw0000gn/T//cc30os3f.s 			page 67


 3741 02aa 9742     		.uleb128 0x2117
 3742 02ac 19       		.uleb128 0x19
 3743 02ad 01       		.uleb128 0x1
 3744 02ae 13       		.uleb128 0x13
 3745 02af 00       		.byte	0
 3746 02b0 00       		.byte	0
 3747 02b1 34       		.uleb128 0x34
 3748 02b2 0B       		.uleb128 0xb
 3749 02b3 01       		.byte	0x1
 3750 02b4 11       		.uleb128 0x11
 3751 02b5 01       		.uleb128 0x1
 3752 02b6 12       		.uleb128 0x12
 3753 02b7 06       		.uleb128 0x6
 3754 02b8 00       		.byte	0
 3755 02b9 00       		.byte	0
 3756 02ba 35       		.uleb128 0x35
 3757 02bb 0B       		.uleb128 0xb
 3758 02bc 01       		.byte	0x1
 3759 02bd 11       		.uleb128 0x11
 3760 02be 01       		.uleb128 0x1
 3761 02bf 12       		.uleb128 0x12
 3762 02c0 06       		.uleb128 0x6
 3763 02c1 01       		.uleb128 0x1
 3764 02c2 13       		.uleb128 0x13
 3765 02c3 00       		.byte	0
 3766 02c4 00       		.byte	0
 3767 02c5 36       		.uleb128 0x36
 3768 02c6 2E       		.uleb128 0x2e
 3769 02c7 00       		.byte	0
 3770 02c8 03       		.uleb128 0x3
 3771 02c9 0E       		.uleb128 0xe
 3772 02ca 3A       		.uleb128 0x3a
 3773 02cb 0B       		.uleb128 0xb
 3774 02cc 3B       		.uleb128 0x3b
 3775 02cd 0B       		.uleb128 0xb
 3776 02ce 27       		.uleb128 0x27
 3777 02cf 19       		.uleb128 0x19
 3778 02d0 49       		.uleb128 0x49
 3779 02d1 13       		.uleb128 0x13
 3780 02d2 20       		.uleb128 0x20
 3781 02d3 0B       		.uleb128 0xb
 3782 02d4 00       		.byte	0
 3783 02d5 00       		.byte	0
 3784 02d6 37       		.uleb128 0x37
 3785 02d7 2E       		.uleb128 0x2e
 3786 02d8 00       		.byte	0
 3787 02d9 03       		.uleb128 0x3
 3788 02da 0E       		.uleb128 0xe
 3789 02db 3A       		.uleb128 0x3a
 3790 02dc 0B       		.uleb128 0xb
 3791 02dd 3B       		.uleb128 0x3b
 3792 02de 05       		.uleb128 0x5
 3793 02df 27       		.uleb128 0x27
 3794 02e0 19       		.uleb128 0x19
 3795 02e1 49       		.uleb128 0x49
 3796 02e2 13       		.uleb128 0x13
 3797 02e3 20       		.uleb128 0x20
ARM GAS  /var/folders/t8/16hdwfmd2fg_d3q6dgx6bpmw0000gn/T//cc30os3f.s 			page 68


 3798 02e4 0B       		.uleb128 0xb
 3799 02e5 00       		.byte	0
 3800 02e6 00       		.byte	0
 3801 02e7 38       		.uleb128 0x38
 3802 02e8 2E       		.uleb128 0x2e
 3803 02e9 01       		.byte	0x1
 3804 02ea 03       		.uleb128 0x3
 3805 02eb 0E       		.uleb128 0xe
 3806 02ec 3A       		.uleb128 0x3a
 3807 02ed 0B       		.uleb128 0xb
 3808 02ee 3B       		.uleb128 0x3b
 3809 02ef 05       		.uleb128 0x5
 3810 02f0 27       		.uleb128 0x27
 3811 02f1 19       		.uleb128 0x19
 3812 02f2 20       		.uleb128 0x20
 3813 02f3 0B       		.uleb128 0xb
 3814 02f4 01       		.uleb128 0x1
 3815 02f5 13       		.uleb128 0x13
 3816 02f6 00       		.byte	0
 3817 02f7 00       		.byte	0
 3818 02f8 39       		.uleb128 0x39
 3819 02f9 34       		.uleb128 0x34
 3820 02fa 00       		.byte	0
 3821 02fb 03       		.uleb128 0x3
 3822 02fc 0E       		.uleb128 0xe
 3823 02fd 49       		.uleb128 0x49
 3824 02fe 13       		.uleb128 0x13
 3825 02ff 34       		.uleb128 0x34
 3826 0300 19       		.uleb128 0x19
 3827 0301 1C       		.uleb128 0x1c
 3828 0302 0E       		.uleb128 0xe
 3829 0303 00       		.byte	0
 3830 0304 00       		.byte	0
 3831 0305 3A       		.uleb128 0x3a
 3832 0306 2E       		.uleb128 0x2e
 3833 0307 00       		.byte	0
 3834 0308 03       		.uleb128 0x3
 3835 0309 0E       		.uleb128 0xe
 3836 030a 3A       		.uleb128 0x3a
 3837 030b 0B       		.uleb128 0xb
 3838 030c 3B       		.uleb128 0x3b
 3839 030d 05       		.uleb128 0x5
 3840 030e 27       		.uleb128 0x27
 3841 030f 19       		.uleb128 0x19
 3842 0310 20       		.uleb128 0x20
 3843 0311 0B       		.uleb128 0xb
 3844 0312 00       		.byte	0
 3845 0313 00       		.byte	0
 3846 0314 3B       		.uleb128 0x3b
 3847 0315 2E       		.uleb128 0x2e
 3848 0316 01       		.byte	0x1
 3849 0317 03       		.uleb128 0x3
 3850 0318 0E       		.uleb128 0xe
 3851 0319 3A       		.uleb128 0x3a
 3852 031a 0B       		.uleb128 0xb
 3853 031b 3B       		.uleb128 0x3b
 3854 031c 05       		.uleb128 0x5
ARM GAS  /var/folders/t8/16hdwfmd2fg_d3q6dgx6bpmw0000gn/T//cc30os3f.s 			page 69


 3855 031d 27       		.uleb128 0x27
 3856 031e 19       		.uleb128 0x19
 3857 031f 49       		.uleb128 0x49
 3858 0320 13       		.uleb128 0x13
 3859 0321 20       		.uleb128 0x20
 3860 0322 0B       		.uleb128 0xb
 3861 0323 01       		.uleb128 0x1
 3862 0324 13       		.uleb128 0x13
 3863 0325 00       		.byte	0
 3864 0326 00       		.byte	0
 3865 0327 3C       		.uleb128 0x3c
 3866 0328 05       		.uleb128 0x5
 3867 0329 00       		.byte	0
 3868 032a 03       		.uleb128 0x3
 3869 032b 08       		.uleb128 0x8
 3870 032c 3A       		.uleb128 0x3a
 3871 032d 0B       		.uleb128 0xb
 3872 032e 3B       		.uleb128 0x3b
 3873 032f 05       		.uleb128 0x5
 3874 0330 49       		.uleb128 0x49
 3875 0331 13       		.uleb128 0x13
 3876 0332 00       		.byte	0
 3877 0333 00       		.byte	0
 3878 0334 3D       		.uleb128 0x3d
 3879 0335 2E       		.uleb128 0x2e
 3880 0336 00       		.byte	0
 3881 0337 03       		.uleb128 0x3
 3882 0338 0E       		.uleb128 0xe
 3883 0339 3A       		.uleb128 0x3a
 3884 033a 0B       		.uleb128 0xb
 3885 033b 3B       		.uleb128 0x3b
 3886 033c 0B       		.uleb128 0xb
 3887 033d 27       		.uleb128 0x27
 3888 033e 19       		.uleb128 0x19
 3889 033f 20       		.uleb128 0x20
 3890 0340 0B       		.uleb128 0xb
 3891 0341 00       		.byte	0
 3892 0342 00       		.byte	0
 3893 0343 3E       		.uleb128 0x3e
 3894 0344 2E       		.uleb128 0x2e
 3895 0345 00       		.byte	0
 3896 0346 3F       		.uleb128 0x3f
 3897 0347 19       		.uleb128 0x19
 3898 0348 3C       		.uleb128 0x3c
 3899 0349 19       		.uleb128 0x19
 3900 034a 6E       		.uleb128 0x6e
 3901 034b 0E       		.uleb128 0xe
 3902 034c 03       		.uleb128 0x3
 3903 034d 0E       		.uleb128 0xe
 3904 034e 3A       		.uleb128 0x3a
 3905 034f 0B       		.uleb128 0xb
 3906 0350 3B       		.uleb128 0x3b
 3907 0351 0B       		.uleb128 0xb
 3908 0352 00       		.byte	0
 3909 0353 00       		.byte	0
 3910 0354 3F       		.uleb128 0x3f
 3911 0355 2E       		.uleb128 0x2e
ARM GAS  /var/folders/t8/16hdwfmd2fg_d3q6dgx6bpmw0000gn/T//cc30os3f.s 			page 70


 3912 0356 00       		.byte	0
 3913 0357 3F       		.uleb128 0x3f
 3914 0358 19       		.uleb128 0x19
 3915 0359 3C       		.uleb128 0x3c
 3916 035a 19       		.uleb128 0x19
 3917 035b 6E       		.uleb128 0x6e
 3918 035c 0E       		.uleb128 0xe
 3919 035d 03       		.uleb128 0x3
 3920 035e 0E       		.uleb128 0xe
 3921 035f 3A       		.uleb128 0x3a
 3922 0360 0B       		.uleb128 0xb
 3923 0361 3B       		.uleb128 0x3b
 3924 0362 05       		.uleb128 0x5
 3925 0363 00       		.byte	0
 3926 0364 00       		.byte	0
 3927 0365 00       		.byte	0
 3928              		.section	.debug_loc,"",%progbits
 3929              	.Ldebug_loc0:
 3930              	.LLST23:
 3931 0000 00000000 		.4byte	.LVL80
 3932 0004 09000000 		.4byte	.LVL81-1
 3933 0008 0100     		.2byte	0x1
 3934 000a 50       		.byte	0x50
 3935 000b 09000000 		.4byte	.LVL81-1
 3936 000f 2C000000 		.4byte	.LVL84
 3937 0013 0100     		.2byte	0x1
 3938 0015 54       		.byte	0x54
 3939 0016 2C000000 		.4byte	.LVL84
 3940 001a 3A000000 		.4byte	.LVL87
 3941 001e 0100     		.2byte	0x1
 3942 0020 51       		.byte	0x51
 3943 0021 3A000000 		.4byte	.LVL87
 3944 0025 4E000000 		.4byte	.LVL91
 3945 0029 0100     		.2byte	0x1
 3946 002b 54       		.byte	0x54
 3947 002c 4E000000 		.4byte	.LVL91
 3948 0030 5C000000 		.4byte	.LVL96
 3949 0034 0400     		.2byte	0x4
 3950 0036 F3       		.byte	0xf3
 3951 0037 01       		.uleb128 0x1
 3952 0038 50       		.byte	0x50
 3953 0039 9F       		.byte	0x9f
 3954 003a 5C000000 		.4byte	.LVL96
 3955 003e 78000000 		.4byte	.LVL99
 3956 0042 0100     		.2byte	0x1
 3957 0044 54       		.byte	0x54
 3958 0045 78000000 		.4byte	.LVL99
 3959 0049 7A000000 		.4byte	.LVL100
 3960 004d 0100     		.2byte	0x1
 3961 004f 51       		.byte	0x51
 3962 0050 7A000000 		.4byte	.LVL100
 3963 0054 84000000 		.4byte	.LFE146
 3964 0058 0100     		.2byte	0x1
 3965 005a 54       		.byte	0x54
 3966 005b 00000000 		.4byte	0
 3967 005f 00000000 		.4byte	0
 3968              	.LLST24:
ARM GAS  /var/folders/t8/16hdwfmd2fg_d3q6dgx6bpmw0000gn/T//cc30os3f.s 			page 71


 3969 0063 00000000 		.4byte	.LVL80
 3970 0067 09000000 		.4byte	.LVL81-1
 3971 006b 0100     		.2byte	0x1
 3972 006d 51       		.byte	0x51
 3973 006e 09000000 		.4byte	.LVL81-1
 3974 0072 5A000000 		.4byte	.LVL95
 3975 0076 0100     		.2byte	0x1
 3976 0078 57       		.byte	0x57
 3977 0079 5A000000 		.4byte	.LVL95
 3978 007d 5C000000 		.4byte	.LVL96
 3979 0081 0400     		.2byte	0x4
 3980 0083 F3       		.byte	0xf3
 3981 0084 01       		.uleb128 0x1
 3982 0085 51       		.byte	0x51
 3983 0086 9F       		.byte	0x9f
 3984 0087 5C000000 		.4byte	.LVL96
 3985 008b 84000000 		.4byte	.LFE146
 3986 008f 0100     		.2byte	0x1
 3987 0091 57       		.byte	0x57
 3988 0092 00000000 		.4byte	0
 3989 0096 00000000 		.4byte	0
 3990              	.LLST25:
 3991 009a 4E000000 		.4byte	.LVL91
 3992 009e 54000000 		.4byte	.LVL92
 3993 00a2 0100     		.2byte	0x1
 3994 00a4 50       		.byte	0x50
 3995 00a5 54000000 		.4byte	.LVL92
 3996 00a9 5A000000 		.4byte	.LVL94
 3997 00ad 0100     		.2byte	0x1
 3998 00af 54       		.byte	0x54
 3999 00b0 5A000000 		.4byte	.LVL94
 4000 00b4 5C000000 		.4byte	.LVL96
 4001 00b8 0100     		.2byte	0x1
 4002 00ba 50       		.byte	0x50
 4003 00bb 00000000 		.4byte	0
 4004 00bf 00000000 		.4byte	0
 4005              	.LLST26:
 4006 00c3 26000000 		.4byte	.LVL83
 4007 00c7 3A000000 		.4byte	.LVL87
 4008 00cb 0100     		.2byte	0x1
 4009 00cd 51       		.byte	0x51
 4010 00ce 3A000000 		.4byte	.LVL87
 4011 00d2 46000000 		.4byte	.LVL89
 4012 00d6 0100     		.2byte	0x1
 4013 00d8 54       		.byte	0x54
 4014 00d9 78000000 		.4byte	.LVL99
 4015 00dd 7A000000 		.4byte	.LVL100
 4016 00e1 0100     		.2byte	0x1
 4017 00e3 51       		.byte	0x51
 4018 00e4 7A000000 		.4byte	.LVL100
 4019 00e8 84000000 		.4byte	.LFE146
 4020 00ec 0100     		.2byte	0x1
 4021 00ee 54       		.byte	0x54
 4022 00ef 00000000 		.4byte	0
 4023 00f3 00000000 		.4byte	0
 4024              	.LLST27:
 4025 00f7 26000000 		.4byte	.LVL83
ARM GAS  /var/folders/t8/16hdwfmd2fg_d3q6dgx6bpmw0000gn/T//cc30os3f.s 			page 72


 4026 00fb 46000000 		.4byte	.LVL89
 4027 00ff 0100     		.2byte	0x1
 4028 0101 52       		.byte	0x52
 4029 0102 78000000 		.4byte	.LVL99
 4030 0106 84000000 		.4byte	.LFE146
 4031 010a 0100     		.2byte	0x1
 4032 010c 52       		.byte	0x52
 4033 010d 00000000 		.4byte	0
 4034 0111 00000000 		.4byte	0
 4035              	.LLST28:
 4036 0115 2C000000 		.4byte	.LVL84
 4037 0119 3C000000 		.4byte	.LVL88
 4038 011d 0100     		.2byte	0x1
 4039 011f 53       		.byte	0x53
 4040 0120 78000000 		.4byte	.LVL99
 4041 0124 84000000 		.4byte	.LFE146
 4042 0128 0100     		.2byte	0x1
 4043 012a 53       		.byte	0x53
 4044 012b 00000000 		.4byte	0
 4045 012f 00000000 		.4byte	0
 4046              	.LLST29:
 4047 0133 00000000 		.4byte	.LVL101
 4048 0137 0B000000 		.4byte	.LVL102-1
 4049 013b 0100     		.2byte	0x1
 4050 013d 50       		.byte	0x50
 4051 013e 0B000000 		.4byte	.LVL102-1
 4052 0142 16000000 		.4byte	.LVL104
 4053 0146 0100     		.2byte	0x1
 4054 0148 54       		.byte	0x54
 4055 0149 16000000 		.4byte	.LVL104
 4056 014d 44000000 		.4byte	.LFE145
 4057 0151 0400     		.2byte	0x4
 4058 0153 F3       		.byte	0xf3
 4059 0154 01       		.uleb128 0x1
 4060 0155 50       		.byte	0x50
 4061 0156 9F       		.byte	0x9f
 4062 0157 00000000 		.4byte	0
 4063 015b 00000000 		.4byte	0
 4064              	.LLST30:
 4065 015f 00000000 		.4byte	.LVL101
 4066 0163 0B000000 		.4byte	.LVL102-1
 4067 0167 0100     		.2byte	0x1
 4068 0169 51       		.byte	0x51
 4069 016a 0B000000 		.4byte	.LVL102-1
 4070 016e 30000000 		.4byte	.LVL107
 4071 0172 0100     		.2byte	0x1
 4072 0174 55       		.byte	0x55
 4073 0175 30000000 		.4byte	.LVL107
 4074 0179 32000000 		.4byte	.LVL108
 4075 017d 0400     		.2byte	0x4
 4076 017f F3       		.byte	0xf3
 4077 0180 01       		.uleb128 0x1
 4078 0181 51       		.byte	0x51
 4079 0182 9F       		.byte	0x9f
 4080 0183 32000000 		.4byte	.LVL108
 4081 0187 44000000 		.4byte	.LFE145
 4082 018b 0100     		.2byte	0x1
ARM GAS  /var/folders/t8/16hdwfmd2fg_d3q6dgx6bpmw0000gn/T//cc30os3f.s 			page 73


 4083 018d 55       		.byte	0x55
 4084 018e 00000000 		.4byte	0
 4085 0192 00000000 		.4byte	0
 4086              	.LLST31:
 4087 0196 16000000 		.4byte	.LVL104
 4088 019a 19000000 		.4byte	.LVL105-1
 4089 019e 0100     		.2byte	0x1
 4090 01a0 50       		.byte	0x50
 4091 01a1 19000000 		.4byte	.LVL105-1
 4092 01a5 30000000 		.4byte	.LVL106
 4093 01a9 0100     		.2byte	0x1
 4094 01ab 54       		.byte	0x54
 4095 01ac 30000000 		.4byte	.LVL106
 4096 01b0 32000000 		.4byte	.LVL108
 4097 01b4 0100     		.2byte	0x1
 4098 01b6 50       		.byte	0x50
 4099 01b7 32000000 		.4byte	.LVL108
 4100 01bb 44000000 		.4byte	.LFE145
 4101 01bf 0100     		.2byte	0x1
 4102 01c1 54       		.byte	0x54
 4103 01c2 00000000 		.4byte	0
 4104 01c6 00000000 		.4byte	0
 4105              	.LLST15:
 4106 01ca 00000000 		.4byte	.LVL51
 4107 01ce 0B000000 		.4byte	.LVL53-1
 4108 01d2 0100     		.2byte	0x1
 4109 01d4 50       		.byte	0x50
 4110 01d5 0B000000 		.4byte	.LVL53-1
 4111 01d9 28000000 		.4byte	.LVL56
 4112 01dd 0100     		.2byte	0x1
 4113 01df 55       		.byte	0x55
 4114 01e0 28000000 		.4byte	.LVL56
 4115 01e4 36000000 		.4byte	.LVL59
 4116 01e8 0100     		.2byte	0x1
 4117 01ea 52       		.byte	0x52
 4118 01eb 36000000 		.4byte	.LVL59
 4119 01ef 50000000 		.4byte	.LVL66
 4120 01f3 0100     		.2byte	0x1
 4121 01f5 55       		.byte	0x55
 4122 01f6 50000000 		.4byte	.LVL66
 4123 01fa 52000000 		.4byte	.LVL67
 4124 01fe 0400     		.2byte	0x4
 4125 0200 F3       		.byte	0xf3
 4126 0201 01       		.uleb128 0x1
 4127 0202 50       		.byte	0x50
 4128 0203 9F       		.byte	0x9f
 4129 0204 52000000 		.4byte	.LVL67
 4130 0208 54000000 		.4byte	.LVL68
 4131 020c 0100     		.2byte	0x1
 4132 020e 52       		.byte	0x52
 4133 020f 54000000 		.4byte	.LVL68
 4134 0213 70000000 		.4byte	.LFE144
 4135 0217 0100     		.2byte	0x1
 4136 0219 55       		.byte	0x55
 4137 021a 00000000 		.4byte	0
 4138 021e 00000000 		.4byte	0
 4139              	.LLST16:
ARM GAS  /var/folders/t8/16hdwfmd2fg_d3q6dgx6bpmw0000gn/T//cc30os3f.s 			page 74


 4140 0222 08000000 		.4byte	.LVL52
 4141 0226 48000000 		.4byte	.LVL63
 4142 022a 0100     		.2byte	0x1
 4143 022c 54       		.byte	0x54
 4144 022d 52000000 		.4byte	.LVL67
 4145 0231 70000000 		.4byte	.LFE144
 4146 0235 0100     		.2byte	0x1
 4147 0237 54       		.byte	0x54
 4148 0238 00000000 		.4byte	0
 4149 023c 00000000 		.4byte	0
 4150              	.LLST17:
 4151 0240 48000000 		.4byte	.LVL63
 4152 0244 50000000 		.4byte	.LVL65
 4153 0248 0100     		.2byte	0x1
 4154 024a 54       		.byte	0x54
 4155 024b 50000000 		.4byte	.LVL65
 4156 024f 52000000 		.4byte	.LVL67
 4157 0253 0100     		.2byte	0x1
 4158 0255 50       		.byte	0x50
 4159 0256 00000000 		.4byte	0
 4160 025a 00000000 		.4byte	0
 4161              	.LLST18:
 4162 025e 24000000 		.4byte	.LVL55
 4163 0262 36000000 		.4byte	.LVL59
 4164 0266 0100     		.2byte	0x1
 4165 0268 52       		.byte	0x52
 4166 0269 36000000 		.4byte	.LVL59
 4167 026d 42000000 		.4byte	.LVL61
 4168 0271 0100     		.2byte	0x1
 4169 0273 55       		.byte	0x55
 4170 0274 52000000 		.4byte	.LVL67
 4171 0278 54000000 		.4byte	.LVL68
 4172 027c 0100     		.2byte	0x1
 4173 027e 52       		.byte	0x52
 4174 027f 54000000 		.4byte	.LVL68
 4175 0283 56000000 		.4byte	.LVL69
 4176 0287 0100     		.2byte	0x1
 4177 0289 55       		.byte	0x55
 4178 028a 00000000 		.4byte	0
 4179 028e 00000000 		.4byte	0
 4180              	.LLST19:
 4181 0292 24000000 		.4byte	.LVL55
 4182 0296 42000000 		.4byte	.LVL61
 4183 029a 0100     		.2byte	0x1
 4184 029c 54       		.byte	0x54
 4185 029d 52000000 		.4byte	.LVL67
 4186 02a1 56000000 		.4byte	.LVL69
 4187 02a5 0100     		.2byte	0x1
 4188 02a7 54       		.byte	0x54
 4189 02a8 00000000 		.4byte	0
 4190 02ac 00000000 		.4byte	0
 4191              	.LLST20:
 4192 02b0 28000000 		.4byte	.LVL56
 4193 02b4 38000000 		.4byte	.LVL60
 4194 02b8 0100     		.2byte	0x1
 4195 02ba 53       		.byte	0x53
 4196 02bb 52000000 		.4byte	.LVL67
ARM GAS  /var/folders/t8/16hdwfmd2fg_d3q6dgx6bpmw0000gn/T//cc30os3f.s 			page 75


 4197 02bf 56000000 		.4byte	.LVL69
 4198 02c3 0100     		.2byte	0x1
 4199 02c5 53       		.byte	0x53
 4200 02c6 00000000 		.4byte	0
 4201 02ca 00000000 		.4byte	0
 4202              	.LLST21:
 4203 02ce 00000000 		.4byte	.LVL72
 4204 02d2 09000000 		.4byte	.LVL73-1
 4205 02d6 0100     		.2byte	0x1
 4206 02d8 50       		.byte	0x50
 4207 02d9 09000000 		.4byte	.LVL73-1
 4208 02dd 12000000 		.4byte	.LVL75
 4209 02e1 0100     		.2byte	0x1
 4210 02e3 54       		.byte	0x54
 4211 02e4 12000000 		.4byte	.LVL75
 4212 02e8 40000000 		.4byte	.LFE143
 4213 02ec 0400     		.2byte	0x4
 4214 02ee F3       		.byte	0xf3
 4215 02ef 01       		.uleb128 0x1
 4216 02f0 50       		.byte	0x50
 4217 02f1 9F       		.byte	0x9f
 4218 02f2 00000000 		.4byte	0
 4219 02f6 00000000 		.4byte	0
 4220              	.LLST22:
 4221 02fa 12000000 		.4byte	.LVL75
 4222 02fe 15000000 		.4byte	.LVL76-1
 4223 0302 0100     		.2byte	0x1
 4224 0304 50       		.byte	0x50
 4225 0305 15000000 		.4byte	.LVL76-1
 4226 0309 2C000000 		.4byte	.LVL77
 4227 030d 0100     		.2byte	0x1
 4228 030f 54       		.byte	0x54
 4229 0310 2C000000 		.4byte	.LVL77
 4230 0314 2E000000 		.4byte	.LVL78
 4231 0318 0100     		.2byte	0x1
 4232 031a 50       		.byte	0x50
 4233 031b 2E000000 		.4byte	.LVL78
 4234 031f 40000000 		.4byte	.LFE143
 4235 0323 0100     		.2byte	0x1
 4236 0325 54       		.byte	0x54
 4237 0326 00000000 		.4byte	0
 4238 032a 00000000 		.4byte	0
 4239              	.LLST10:
 4240 032e 00000000 		.4byte	.LVL31
 4241 0332 07000000 		.4byte	.LVL32-1
 4242 0336 0100     		.2byte	0x1
 4243 0338 50       		.byte	0x50
 4244 0339 07000000 		.4byte	.LVL32-1
 4245 033d 28000000 		.4byte	.LVL40
 4246 0341 0100     		.2byte	0x1
 4247 0343 54       		.byte	0x54
 4248 0344 28000000 		.4byte	.LVL40
 4249 0348 2A000000 		.4byte	.LVL41
 4250 034c 0400     		.2byte	0x4
 4251 034e F3       		.byte	0xf3
 4252 034f 01       		.uleb128 0x1
 4253 0350 50       		.byte	0x50
ARM GAS  /var/folders/t8/16hdwfmd2fg_d3q6dgx6bpmw0000gn/T//cc30os3f.s 			page 76


 4254 0351 9F       		.byte	0x9f
 4255 0352 2A000000 		.4byte	.LVL41
 4256 0356 38000000 		.4byte	.LFE142
 4257 035a 0100     		.2byte	0x1
 4258 035c 54       		.byte	0x54
 4259 035d 00000000 		.4byte	0
 4260 0361 00000000 		.4byte	0
 4261              	.LLST11:
 4262 0365 0C000000 		.4byte	.LVL33
 4263 0369 0E000000 		.4byte	.LVL34
 4264 036d 0100     		.2byte	0x1
 4265 036f 54       		.byte	0x54
 4266 0370 22000000 		.4byte	.LVL38
 4267 0374 24000000 		.4byte	.LVL39
 4268 0378 0100     		.2byte	0x1
 4269 037a 54       		.byte	0x54
 4270 037b 00000000 		.4byte	0
 4271 037f 00000000 		.4byte	0
 4272              	.LLST12:
 4273 0383 16000000 		.4byte	.LVL35
 4274 0387 1C000000 		.4byte	.LVL36
 4275 038b 0100     		.2byte	0x1
 4276 038d 54       		.byte	0x54
 4277 038e 00000000 		.4byte	0
 4278 0392 00000000 		.4byte	0
 4279              	.LLST13:
 4280 0396 16000000 		.4byte	.LVL35
 4281 039a 1C000000 		.4byte	.LVL36
 4282 039e 0100     		.2byte	0x1
 4283 03a0 50       		.byte	0x50
 4284 03a1 00000000 		.4byte	0
 4285 03a5 00000000 		.4byte	0
 4286              	.LLST14:
 4287 03a9 00000000 		.4byte	.LVL43
 4288 03ad 09000000 		.4byte	.LVL44-1
 4289 03b1 0100     		.2byte	0x1
 4290 03b3 50       		.byte	0x50
 4291 03b4 09000000 		.4byte	.LVL44-1
 4292 03b8 2C000000 		.4byte	.LVL48
 4293 03bc 0100     		.2byte	0x1
 4294 03be 54       		.byte	0x54
 4295 03bf 2C000000 		.4byte	.LVL48
 4296 03c3 2E000000 		.4byte	.LVL49
 4297 03c7 0400     		.2byte	0x4
 4298 03c9 F3       		.byte	0xf3
 4299 03ca 01       		.uleb128 0x1
 4300 03cb 50       		.byte	0x50
 4301 03cc 9F       		.byte	0x9f
 4302 03cd 2E000000 		.4byte	.LVL49
 4303 03d1 40000000 		.4byte	.LFE141
 4304 03d5 0100     		.2byte	0x1
 4305 03d7 54       		.byte	0x54
 4306 03d8 00000000 		.4byte	0
 4307 03dc 00000000 		.4byte	0
 4308              	.LLST6:
 4309 03e0 00000000 		.4byte	.LVL21
 4310 03e4 07000000 		.4byte	.LVL22-1
ARM GAS  /var/folders/t8/16hdwfmd2fg_d3q6dgx6bpmw0000gn/T//cc30os3f.s 			page 77


 4311 03e8 0100     		.2byte	0x1
 4312 03ea 50       		.byte	0x50
 4313 03eb 07000000 		.4byte	.LVL22-1
 4314 03ef 20000000 		.4byte	.LVL28
 4315 03f3 0100     		.2byte	0x1
 4316 03f5 54       		.byte	0x54
 4317 03f6 20000000 		.4byte	.LVL28
 4318 03fa 22000000 		.4byte	.LVL29
 4319 03fe 0400     		.2byte	0x4
 4320 0400 F3       		.byte	0xf3
 4321 0401 01       		.uleb128 0x1
 4322 0402 50       		.byte	0x50
 4323 0403 9F       		.byte	0x9f
 4324 0404 22000000 		.4byte	.LVL29
 4325 0408 30000000 		.4byte	.LFE140
 4326 040c 0100     		.2byte	0x1
 4327 040e 54       		.byte	0x54
 4328 040f 00000000 		.4byte	0
 4329 0413 00000000 		.4byte	0
 4330              	.LLST8:
 4331 0417 12000000 		.4byte	.LVL25
 4332 041b 18000000 		.4byte	.LVL26
 4333 041f 0100     		.2byte	0x1
 4334 0421 54       		.byte	0x54
 4335 0422 00000000 		.4byte	0
 4336 0426 00000000 		.4byte	0
 4337              	.LLST9:
 4338 042a 12000000 		.4byte	.LVL25
 4339 042e 18000000 		.4byte	.LVL26
 4340 0432 0100     		.2byte	0x1
 4341 0434 50       		.byte	0x50
 4342 0435 00000000 		.4byte	0
 4343 0439 00000000 		.4byte	0
 4344              	.LLST7:
 4345 043d 0C000000 		.4byte	.LVL23
 4346 0441 0E000000 		.4byte	.LVL24
 4347 0445 0100     		.2byte	0x1
 4348 0447 54       		.byte	0x54
 4349 0448 00000000 		.4byte	0
 4350 044c 00000000 		.4byte	0
 4351              	.LLST2:
 4352 0450 00000000 		.4byte	.LVL7
 4353 0454 06000000 		.4byte	.LVL8
 4354 0458 0100     		.2byte	0x1
 4355 045a 50       		.byte	0x50
 4356 045b 06000000 		.4byte	.LVL8
 4357 045f 36000000 		.4byte	.LVL15
 4358 0463 0100     		.2byte	0x1
 4359 0465 54       		.byte	0x54
 4360 0466 36000000 		.4byte	.LVL15
 4361 046a 38000000 		.4byte	.LVL16
 4362 046e 0400     		.2byte	0x4
 4363 0470 F3       		.byte	0xf3
 4364 0471 01       		.uleb128 0x1
 4365 0472 50       		.byte	0x50
 4366 0473 9F       		.byte	0x9f
 4367 0474 38000000 		.4byte	.LVL16
ARM GAS  /var/folders/t8/16hdwfmd2fg_d3q6dgx6bpmw0000gn/T//cc30os3f.s 			page 78


 4368 0478 40000000 		.4byte	.LVL18
 4369 047c 0100     		.2byte	0x1
 4370 047e 54       		.byte	0x54
 4371 047f 40000000 		.4byte	.LVL18
 4372 0483 42000000 		.4byte	.LVL19
 4373 0487 0100     		.2byte	0x1
 4374 0489 50       		.byte	0x50
 4375 048a 42000000 		.4byte	.LVL19
 4376 048e 54000000 		.4byte	.LFE139
 4377 0492 0100     		.2byte	0x1
 4378 0494 54       		.byte	0x54
 4379 0495 00000000 		.4byte	0
 4380 0499 00000000 		.4byte	0
 4381              	.LLST3:
 4382 049d 0C000000 		.4byte	.LVL9
 4383 04a1 0E000000 		.4byte	.LVL10
 4384 04a5 0100     		.2byte	0x1
 4385 04a7 54       		.byte	0x54
 4386 04a8 00000000 		.4byte	0
 4387 04ac 00000000 		.4byte	0
 4388              	.LLST4:
 4389 04b0 12000000 		.4byte	.LVL11
 4390 04b4 1A000000 		.4byte	.LVL12
 4391 04b8 0100     		.2byte	0x1
 4392 04ba 54       		.byte	0x54
 4393 04bb 00000000 		.4byte	0
 4394 04bf 00000000 		.4byte	0
 4395              	.LLST5:
 4396 04c3 12000000 		.4byte	.LVL11
 4397 04c7 1A000000 		.4byte	.LVL12
 4398 04cb 0100     		.2byte	0x1
 4399 04cd 50       		.byte	0x50
 4400 04ce 00000000 		.4byte	0
 4401 04d2 00000000 		.4byte	0
 4402              	.LLST0:
 4403 04d6 00000000 		.4byte	.LVL0
 4404 04da 06000000 		.4byte	.LVL1
 4405 04de 0100     		.2byte	0x1
 4406 04e0 50       		.byte	0x50
 4407 04e1 06000000 		.4byte	.LVL1
 4408 04e5 0A000000 		.4byte	.LVL3
 4409 04e9 0100     		.2byte	0x1
 4410 04eb 54       		.byte	0x54
 4411 04ec 0A000000 		.4byte	.LVL3
 4412 04f0 0C000000 		.4byte	.LVL4
 4413 04f4 0400     		.2byte	0x4
 4414 04f6 F3       		.byte	0xf3
 4415 04f7 01       		.uleb128 0x1
 4416 04f8 50       		.byte	0x50
 4417 04f9 9F       		.byte	0x9f
 4418 04fa 0C000000 		.4byte	.LVL4
 4419 04fe 0E000000 		.4byte	.LVL5
 4420 0502 0100     		.2byte	0x1
 4421 0504 50       		.byte	0x50
 4422 0505 0E000000 		.4byte	.LVL5
 4423 0509 18000000 		.4byte	.LFE138
 4424 050d 0100     		.2byte	0x1
ARM GAS  /var/folders/t8/16hdwfmd2fg_d3q6dgx6bpmw0000gn/T//cc30os3f.s 			page 79


 4425 050f 54       		.byte	0x54
 4426 0510 00000000 		.4byte	0
 4427 0514 00000000 		.4byte	0
 4428              	.LLST1:
 4429 0518 06000000 		.4byte	.LVL1
 4430 051c 0A000000 		.4byte	.LVL2
 4431 0520 0100     		.2byte	0x1
 4432 0522 54       		.byte	0x54
 4433 0523 00000000 		.4byte	0
 4434 0527 00000000 		.4byte	0
 4435              		.section	.debug_aranges,"",%progbits
 4436 0000 5C000000 		.4byte	0x5c
 4437 0004 0200     		.2byte	0x2
 4438 0006 00000000 		.4byte	.Ldebug_info0
 4439 000a 04       		.byte	0x4
 4440 000b 00       		.byte	0
 4441 000c 0000     		.2byte	0
 4442 000e 0000     		.2byte	0
 4443 0010 00000000 		.4byte	.LFB138
 4444 0014 18000000 		.4byte	.LFE138-.LFB138
 4445 0018 00000000 		.4byte	.LFB139
 4446 001c 54000000 		.4byte	.LFE139-.LFB139
 4447 0020 00000000 		.4byte	.LFB140
 4448 0024 30000000 		.4byte	.LFE140-.LFB140
 4449 0028 00000000 		.4byte	.LFB142
 4450 002c 38000000 		.4byte	.LFE142-.LFB142
 4451 0030 00000000 		.4byte	.LFB141
 4452 0034 40000000 		.4byte	.LFE141-.LFB141
 4453 0038 00000000 		.4byte	.LFB144
 4454 003c 70000000 		.4byte	.LFE144-.LFB144
 4455 0040 00000000 		.4byte	.LFB143
 4456 0044 40000000 		.4byte	.LFE143-.LFB143
 4457 0048 00000000 		.4byte	.LFB146
 4458 004c 84000000 		.4byte	.LFE146-.LFB146
 4459 0050 00000000 		.4byte	.LFB145
 4460 0054 44000000 		.4byte	.LFE145-.LFB145
 4461 0058 00000000 		.4byte	0
 4462 005c 00000000 		.4byte	0
 4463              		.section	.debug_ranges,"",%progbits
 4464              	.Ldebug_ranges0:
 4465 0000 12000000 		.4byte	.LBB86
 4466 0004 14000000 		.4byte	.LBE86
 4467 0008 16000000 		.4byte	.LBB89
 4468 000c 1A000000 		.4byte	.LBE89
 4469 0010 00000000 		.4byte	0
 4470 0014 00000000 		.4byte	0
 4471 0018 1E000000 		.4byte	.LBB90
 4472 001c 36000000 		.4byte	.LBE90
 4473 0020 38000000 		.4byte	.LBB96
 4474 0024 40000000 		.4byte	.LBE96
 4475 0028 00000000 		.4byte	0
 4476 002c 00000000 		.4byte	0
 4477 0030 0C000000 		.4byte	.LBB102
 4478 0034 0E000000 		.4byte	.LBE102
 4479 0038 22000000 		.4byte	.LBB107
 4480 003c 24000000 		.4byte	.LBE107
 4481 0040 00000000 		.4byte	0
ARM GAS  /var/folders/t8/16hdwfmd2fg_d3q6dgx6bpmw0000gn/T//cc30os3f.s 			page 80


 4482 0044 00000000 		.4byte	0
 4483 0048 14000000 		.4byte	.LBB123
 4484 004c 2C000000 		.4byte	.LBE123
 4485 0050 2E000000 		.4byte	.LBB129
 4486 0054 40000000 		.4byte	.LBE129
 4487 0058 00000000 		.4byte	0
 4488 005c 00000000 		.4byte	0
 4489 0060 28000000 		.4byte	.LBB132
 4490 0064 3C000000 		.4byte	.LBE132
 4491 0068 3E000000 		.4byte	.LBB136
 4492 006c 42000000 		.4byte	.LBE136
 4493 0070 52000000 		.4byte	.LBB137
 4494 0074 56000000 		.4byte	.LBE137
 4495 0078 00000000 		.4byte	0
 4496 007c 00000000 		.4byte	0
 4497 0080 12000000 		.4byte	.LBB153
 4498 0084 2A000000 		.4byte	.LBE153
 4499 0088 2E000000 		.4byte	.LBB159
 4500 008c 40000000 		.4byte	.LBE159
 4501 0090 00000000 		.4byte	0
 4502 0094 00000000 		.4byte	0
 4503 0098 2C000000 		.4byte	.LBB160
 4504 009c 40000000 		.4byte	.LBE160
 4505 00a0 42000000 		.4byte	.LBB164
 4506 00a4 46000000 		.4byte	.LBE164
 4507 00a8 78000000 		.4byte	.LBB165
 4508 00ac 84000000 		.4byte	.LBE165
 4509 00b0 00000000 		.4byte	0
 4510 00b4 00000000 		.4byte	0
 4511 00b8 16000000 		.4byte	.LBB181
 4512 00bc 2E000000 		.4byte	.LBE181
 4513 00c0 32000000 		.4byte	.LBB187
 4514 00c4 44000000 		.4byte	.LBE187
 4515 00c8 00000000 		.4byte	0
 4516 00cc 00000000 		.4byte	0
 4517 00d0 00000000 		.4byte	.LFB138
 4518 00d4 18000000 		.4byte	.LFE138
 4519 00d8 00000000 		.4byte	.LFB139
 4520 00dc 54000000 		.4byte	.LFE139
 4521 00e0 00000000 		.4byte	.LFB140
 4522 00e4 30000000 		.4byte	.LFE140
 4523 00e8 00000000 		.4byte	.LFB142
 4524 00ec 38000000 		.4byte	.LFE142
 4525 00f0 00000000 		.4byte	.LFB141
 4526 00f4 40000000 		.4byte	.LFE141
 4527 00f8 00000000 		.4byte	.LFB144
 4528 00fc 70000000 		.4byte	.LFE144
 4529 0100 00000000 		.4byte	.LFB143
 4530 0104 40000000 		.4byte	.LFE143
 4531 0108 00000000 		.4byte	.LFB146
 4532 010c 84000000 		.4byte	.LFE146
 4533 0110 00000000 		.4byte	.LFB145
 4534 0114 44000000 		.4byte	.LFE145
 4535 0118 00000000 		.4byte	0
 4536 011c 00000000 		.4byte	0
 4537              		.section	.debug_line,"",%progbits
 4538              	.Ldebug_line0:
ARM GAS  /var/folders/t8/16hdwfmd2fg_d3q6dgx6bpmw0000gn/T//cc30os3f.s 			page 81


 4539 0000 6B050000 		.section	.debug_str,"MS",%progbits,1
 4539      0200F702 
 4539      00000201 
 4539      FB0E0D00 
 4539      01010101 
 4540              	.LASF48:
 4541 0000 63685F74 		.ascii	"ch_threads_list\000"
 4541      68726561 
 4541      64735F6C 
 4541      69737400 
 4542              	.LASF96:
 4543 0010 74696D65 		.ascii	"timesize\000"
 4543      73697A65 
 4543      00
 4544              	.LASF150:
 4545 0019 474E5520 		.ascii	"GNU C99 7.2.1 20170904 (release) [ARM/embedded-7-br"
 4545      43393920 
 4545      372E322E 
 4545      31203230 
 4545      31373039 
 4546 004c 616E6368 		.ascii	"anch revision 255204] -mcpu=cortex-m0plus -mno-thum"
 4546      20726576 
 4546      6973696F 
 4546      6E203235 
 4546      35323034 
 4547 007f 622D696E 		.ascii	"b-interwork -mthumb -ggdb -O2 -std=gnu99 -fomit-fra"
 4547      74657277 
 4547      6F726B20 
 4547      2D6D7468 
 4547      756D6220 
 4548 00b2 6D652D70 		.ascii	"me-pointer -falign-functions=16 -ffunction-sections"
 4548      6F696E74 
 4548      6572202D 
 4548      66616C69 
 4548      676E2D66 
 4549 00e5 202D6664 		.ascii	" -fdata-sections -fno-common\000"
 4549      6174612D 
 4549      73656374 
 4549      696F6E73 
 4549      202D666E 
 4550              	.LASF84:
 4551 0102 77746D74 		.ascii	"wtmtxp\000"
 4551      787000
 4552              	.LASF144:
 4553 0109 5F646267 		.ascii	"_dbg_check_unlock\000"
 4553      5F636865 
 4553      636B5F75 
 4553      6E6C6F63 
 4553      6B00
 4554              	.LASF122:
 4555 011b 6368436F 		.ascii	"chCondSignalI\000"
 4555      6E645369 
 4555      676E616C 
 4555      4900
 4556              	.LASF74:
 4557 0129 72656761 		.ascii	"regarm_t\000"
 4557      726D5F74 
ARM GAS  /var/folders/t8/16hdwfmd2fg_d3q6dgx6bpmw0000gn/T//cc30os3f.s 			page 82


 4557      00
 4558              	.LASF36:
 4559 0132 666C6167 		.ascii	"flags\000"
 4559      7300
 4560              	.LASF27:
 4561 0138 73797374 		.ascii	"systime_t\000"
 4561      696D655F 
 4561      7400
 4562              	.LASF43:
 4563 0142 7265616C 		.ascii	"realprio\000"
 4563      7072696F 
 4563      00
 4564              	.LASF113:
 4565 014b 636F6E64 		.ascii	"condition_variable_t\000"
 4565      6974696F 
 4565      6E5F7661 
 4565      72696162 
 4565      6C655F74 
 4566              	.LASF41:
 4567 0160 6570656E 		.ascii	"epending\000"
 4567      64696E67 
 4567      00
 4568              	.LASF0:
 4569 0169 756E7369 		.ascii	"unsigned int\000"
 4569      676E6564 
 4569      20696E74 
 4569      00
 4570              	.LASF49:
 4571 0176 6E657874 		.ascii	"next\000"
 4571      00
 4572              	.LASF94:
 4573 017b 76657273 		.ascii	"version\000"
 4573      696F6E00 
 4574              	.LASF46:
 4575 0183 74687265 		.ascii	"threads_list_t\000"
 4575      6164735F 
 4575      6C697374 
 4575      5F7400
 4576              	.LASF7:
 4577 0192 5F5F696E 		.ascii	"__int32_t\000"
 4577      7433325F 
 4577      7400
 4578              	.LASF37:
 4579 019c 72656673 		.ascii	"refs\000"
 4579      00
 4580              	.LASF108:
 4581 01a1 6F66665F 		.ascii	"off_time\000"
 4581      74696D65 
 4581      00
 4582              	.LASF80:
 4583 01aa 77746F62 		.ascii	"wtobjp\000"
 4583      6A7000
 4584              	.LASF135:
 4585 01b1 706F7274 		.ascii	"port_lock\000"
 4585      5F6C6F63 
 4585      6B00
 4586              	.LASF72:
ARM GAS  /var/folders/t8/16hdwfmd2fg_d3q6dgx6bpmw0000gn/T//cc30os3f.s 			page 83


 4587 01bb 76746C69 		.ascii	"vtlist\000"
 4587      737400
 4588              	.LASF76:
 4589 01c2 706F7274 		.ascii	"port_context\000"
 4589      5F636F6E 
 4589      74657874 
 4589      00
 4590              	.LASF54:
 4591 01cf 63685F72 		.ascii	"ch_ready_list\000"
 4591      65616479 
 4591      5F6C6973 
 4591      7400
 4592              	.LASF60:
 4593 01dd 66756E63 		.ascii	"func\000"
 4593      00
 4594              	.LASF85:
 4595 01e2 65776D61 		.ascii	"ewmask\000"
 4595      736B00
 4596              	.LASF52:
 4597 01e9 70726576 		.ascii	"prev\000"
 4597      00
 4598              	.LASF51:
 4599 01ee 63685F74 		.ascii	"ch_threads_queue\000"
 4599      68726561 
 4599      64735F71 
 4599      75657565 
 4599      00
 4600              	.LASF100:
 4601 01ff 6F66665F 		.ascii	"off_newer\000"
 4601      6E657765 
 4601      7200
 4602              	.LASF56:
 4603 0209 76746675 		.ascii	"vtfunc_t\000"
 4603      6E635F74 
 4603      00
 4604              	.LASF147:
 4605 0212 63685363 		.ascii	"chSchReadyI\000"
 4605      68526561 
 4605      64794900 
 4606              	.LASF65:
 4607 021e 63685F73 		.ascii	"ch_system_debug\000"
 4607      79737465 
 4607      6D5F6465 
 4607      62756700 
 4608              	.LASF124:
 4609 022e 6368436F 		.ascii	"chCondObjectInit\000"
 4609      6E644F62 
 4609      6A656374 
 4609      496E6974 
 4609      00
 4610              	.LASF17:
 4611 023f 75696E74 		.ascii	"uint32_t\000"
 4611      33325F74 
 4611      00
 4612              	.LASF82:
 4613 0248 73656E74 		.ascii	"sentmsg\000"
 4613      6D736700 
ARM GAS  /var/folders/t8/16hdwfmd2fg_d3q6dgx6bpmw0000gn/T//cc30os3f.s 			page 84


 4614              	.LASF25:
 4615 0250 6576656E 		.ascii	"eventmask_t\000"
 4615      746D6173 
 4615      6B5F7400 
 4616              	.LASF97:
 4617 025c 74687265 		.ascii	"threadsize\000"
 4617      61647369 
 4617      7A6500
 4618              	.LASF86:
 4619 0267 63685F73 		.ascii	"ch_semaphore\000"
 4619      656D6170 
 4619      686F7265 
 4619      00
 4620              	.LASF23:
 4621 0274 74707269 		.ascii	"tprio_t\000"
 4621      6F5F7400 
 4622              	.LASF58:
 4623 027c 63685F76 		.ascii	"ch_virtual_timer\000"
 4623      69727475 
 4623      616C5F74 
 4623      696D6572 
 4623      00
 4624              	.LASF119:
 4625 028d 6368436F 		.ascii	"chCondWait\000"
 4625      6E645761 
 4625      697400
 4626              	.LASF13:
 4627 0298 6C6F6E67 		.ascii	"long long unsigned int\000"
 4627      206C6F6E 
 4627      6720756E 
 4627      7369676E 
 4627      65642069 
 4628              	.LASF5:
 4629 02af 5F5F7569 		.ascii	"__uint16_t\000"
 4629      6E743136 
 4629      5F7400
 4630              	.LASF26:
 4631 02ba 636E745F 		.ascii	"cnt_t\000"
 4631      7400
 4632              	.LASF103:
 4633 02c0 6F66665F 		.ascii	"off_stklimit\000"
 4633      73746B6C 
 4633      696D6974 
 4633      00
 4634              	.LASF114:
 4635 02cd 74696D65 		.ascii	"time\000"
 4635      00
 4636              	.LASF67:
 4637 02d2 6973725F 		.ascii	"isr_cnt\000"
 4637      636E7400 
 4638              	.LASF126:
 4639 02da 63685468 		.ascii	"chThdGetSelfX\000"
 4639      64476574 
 4639      53656C66 
 4639      5800
 4640              	.LASF88:
 4641 02e8 6F776E65 		.ascii	"owner\000"
ARM GAS  /var/folders/t8/16hdwfmd2fg_d3q6dgx6bpmw0000gn/T//cc30os3f.s 			page 85


 4641      7200
 4642              	.LASF50:
 4643 02ee 74687265 		.ascii	"threads_queue_t\000"
 4643      6164735F 
 4643      71756575 
 4643      655F7400 
 4644              	.LASF42:
 4645 02fe 6D74786C 		.ascii	"mtxlist\000"
 4645      69737400 
 4646              	.LASF62:
 4647 0306 63685F76 		.ascii	"ch_virtual_timers_list\000"
 4647      69727475 
 4647      616C5F74 
 4647      696D6572 
 4647      735F6C69 
 4648              	.LASF28:
 4649 031d 74687265 		.ascii	"thread_t\000"
 4649      61645F74 
 4649      00
 4650              	.LASF101:
 4651 0326 6F66665F 		.ascii	"off_older\000"
 4651      6F6C6465 
 4651      7200
 4652              	.LASF104:
 4653 0330 6F66665F 		.ascii	"off_state\000"
 4653      73746174 
 4653      6500
 4654              	.LASF78:
 4655 033a 7264796D 		.ascii	"rdymsg\000"
 4655      736700
 4656              	.LASF136:
 4657 0341 5F5F6469 		.ascii	"__disable_irq\000"
 4657      7361626C 
 4657      655F6972 
 4657      7100
 4658              	.LASF131:
 4659 034f 5F426F6F 		.ascii	"_Bool\000"
 4659      6C00
 4660              	.LASF112:
 4661 0355 636F6E64 		.ascii	"condition_variable\000"
 4661      6974696F 
 4661      6E5F7661 
 4661      72696162 
 4661      6C6500
 4662              	.LASF87:
 4663 0368 63685F6D 		.ascii	"ch_mutex\000"
 4663      75746578 
 4663      00
 4664              	.LASF12:
 4665 0371 5F5F7569 		.ascii	"__uint64_t\000"
 4665      6E743634 
 4665      5F7400
 4666              	.LASF99:
 4667 037c 6F66665F 		.ascii	"off_ctx\000"
 4667      63747800 
 4668              	.LASF148:
 4669 0384 63685363 		.ascii	"chSchRescheduleS\000"
ARM GAS  /var/folders/t8/16hdwfmd2fg_d3q6dgx6bpmw0000gn/T//cc30os3f.s 			page 86


 4669      68526573 
 4669      63686564 
 4669      756C6553 
 4669      00
 4670              	.LASF121:
 4671 0395 6368436F 		.ascii	"chCondBroadcast\000"
 4671      6E644272 
 4671      6F616463 
 4671      61737400 
 4672              	.LASF133:
 4673 03a5 63685379 		.ascii	"chSysLock\000"
 4673      734C6F63 
 4673      6B00
 4674              	.LASF105:
 4675 03af 6F66665F 		.ascii	"off_flags\000"
 4675      666C6167 
 4675      7300
 4676              	.LASF30:
 4677 03b9 7072696F 		.ascii	"prio\000"
 4677      00
 4678              	.LASF128:
 4679 03be 71756575 		.ascii	"queue_prio_insert\000"
 4679      655F7072 
 4679      696F5F69 
 4679      6E736572 
 4679      7400
 4680              	.LASF89:
 4681 03d0 63686172 		.ascii	"char\000"
 4681      00
 4682              	.LASF120:
 4683 03d5 6368436F 		.ascii	"chCondBroadcastI\000"
 4683      6E644272 
 4683      6F616463 
 4683      61737449 
 4683      00
 4684              	.LASF117:
 4685 03e6 6368436F 		.ascii	"chCondWaitTimeout\000"
 4685      6E645761 
 4685      69745469 
 4685      6D656F75 
 4685      7400
 4686              	.LASF45:
 4687 03f8 74687265 		.ascii	"thread_reference_t\000"
 4687      61645F72 
 4687      65666572 
 4687      656E6365 
 4687      5F7400
 4688              	.LASF34:
 4689 040b 77616261 		.ascii	"wabase\000"
 4689      736500
 4690              	.LASF90:
 4691 0412 63685F69 		.ascii	"ch_idle_thread_wa\000"
 4691      646C655F 
 4691      74687265 
 4691      61645F77 
 4691      6100
 4692              	.LASF130:
ARM GAS  /var/folders/t8/16hdwfmd2fg_d3q6dgx6bpmw0000gn/T//cc30os3f.s 			page 87


 4693 0424 71756575 		.ascii	"queue_notempty\000"
 4693      655F6E6F 
 4693      74656D70 
 4693      747900
 4694              	.LASF20:
 4695 0433 74737461 		.ascii	"tstate_t\000"
 4695      74655F74 
 4695      00
 4696              	.LASF14:
 4697 043c 75696E74 		.ascii	"uint8_t\000"
 4697      385F7400 
 4698              	.LASF40:
 4699 0444 6D736771 		.ascii	"msgqueue\000"
 4699      75657565 
 4699      00
 4700              	.LASF47:
 4701 044d 63685F74 		.ascii	"ch_thread\000"
 4701      68726561 
 4701      6400
 4702              	.LASF102:
 4703 0457 6F66665F 		.ascii	"off_name\000"
 4703      6E616D65 
 4703      00
 4704              	.LASF64:
 4705 0460 73797374 		.ascii	"system_debug_t\000"
 4705      656D5F64 
 4705      65627567 
 4705      5F7400
 4706              	.LASF143:
 4707 046f 5F646267 		.ascii	"_dbg_check_lock\000"
 4707      5F636865 
 4707      636B5F6C 
 4707      6F636B00 
 4708              	.LASF11:
 4709 047f 6C6F6E67 		.ascii	"long long int\000"
 4709      206C6F6E 
 4709      6720696E 
 4709      7400
 4710              	.LASF92:
 4711 048d 7A65726F 		.ascii	"zero\000"
 4711      00
 4712              	.LASF24:
 4713 0492 6D73675F 		.ascii	"msg_t\000"
 4713      7400
 4714              	.LASF151:
 4715 0498 2E2E2F2E 		.ascii	"../../tmk_core/tool/chibios/ChibiOS/os/rt/src/chcon"
 4715      2E2F746D 
 4715      6B5F636F 
 4715      72652F74 
 4715      6F6F6C2F 
 4716 04cb 642E6300 		.ascii	"d.c\000"
 4717              	.LASF57:
 4718 04cf 76697274 		.ascii	"virtual_timer_t\000"
 4718      75616C5F 
 4718      74696D65 
 4718      725F7400 
 4719              	.LASF123:
ARM GAS  /var/folders/t8/16hdwfmd2fg_d3q6dgx6bpmw0000gn/T//cc30os3f.s 			page 88


 4720 04df 6368436F 		.ascii	"chCondSignal\000"
 4720      6E645369 
 4720      676E616C 
 4720      00
 4721              	.LASF129:
 4722 04ec 71756575 		.ascii	"queue_fifo_remove\000"
 4722      655F6669 
 4722      666F5F72 
 4722      656D6F76 
 4722      6500
 4723              	.LASF93:
 4724 04fe 73697A65 		.ascii	"size\000"
 4724      00
 4725              	.LASF95:
 4726 0503 70747273 		.ascii	"ptrsize\000"
 4726      697A6500 
 4727              	.LASF146:
 4728 050b 63684462 		.ascii	"chDbgCheckClassI\000"
 4728      67436865 
 4728      636B436C 
 4728      61737349 
 4728      00
 4729              	.LASF22:
 4730 051c 74736C69 		.ascii	"tslices_t\000"
 4730      6365735F 
 4730      7400
 4731              	.LASF138:
 4732 0526 63684462 		.ascii	"chDbgCheckClassS\000"
 4732      67436865 
 4732      636B436C 
 4732      61737353 
 4732      00
 4733              	.LASF152:
 4734 0537 2F557365 		.ascii	"/Users/jpablobr/tmp/tmk/di0ib-tmk_keyboard/keyboard"
 4734      72732F6A 
 4734      7061626C 
 4734      6F62722F 
 4734      746D702F 
 4735 056a 2F746565 		.ascii	"/teensy_lc_menelaus\000"
 4735      6E73795F 
 4735      6C635F6D 
 4735      656E656C 
 4735      61757300 
 4736              	.LASF66:
 4737 057e 70616E69 		.ascii	"panic_msg\000"
 4737      635F6D73 
 4737      6700
 4738              	.LASF19:
 4739 0588 746D6F64 		.ascii	"tmode_t\000"
 4739      655F7400 
 4740              	.LASF63:
 4741 0590 73797374 		.ascii	"systime\000"
 4741      696D6500 
 4742              	.LASF73:
 4743 0598 6D61696E 		.ascii	"mainthread\000"
 4743      74687265 
 4743      616400
ARM GAS  /var/folders/t8/16hdwfmd2fg_d3q6dgx6bpmw0000gn/T//cc30os3f.s 			page 89


 4744              	.LASF15:
 4745 05a3 75696E74 		.ascii	"uint16_t\000"
 4745      31365F74 
 4745      00
 4746              	.LASF109:
 4747 05ac 63686465 		.ascii	"chdebug_t\000"
 4747      6275675F 
 4747      7400
 4748              	.LASF98:
 4749 05b6 6F66665F 		.ascii	"off_prio\000"
 4749      7072696F 
 4749      00
 4750              	.LASF68:
 4751 05bf 6C6F636B 		.ascii	"lock_cnt\000"
 4751      5F636E74 
 4751      00
 4752              	.LASF3:
 4753 05c8 73686F72 		.ascii	"short int\000"
 4753      7420696E 
 4753      7400
 4754              	.LASF8:
 4755 05d2 6C6F6E67 		.ascii	"long int\000"
 4755      20696E74 
 4755      00
 4756              	.LASF77:
 4757 05db 706F7274 		.ascii	"port_intctx\000"
 4757      5F696E74 
 4757      63747800 
 4758              	.LASF38:
 4759 05e7 70726565 		.ascii	"preempt\000"
 4759      6D707400 
 4760              	.LASF137:
 4761 05ef 5F5F656E 		.ascii	"__enable_irq\000"
 4761      61626C65 
 4761      5F697271 
 4761      00
 4762              	.LASF70:
 4763 05fc 63685F73 		.ascii	"ch_system\000"
 4763      79737465 
 4763      6D00
 4764              	.LASF18:
 4765 0606 75696E74 		.ascii	"uint64_t\000"
 4765      36345F74 
 4765      00
 4766              	.LASF71:
 4767 060f 726C6973 		.ascii	"rlist\000"
 4767      7400
 4768              	.LASF4:
 4769 0615 5F5F7569 		.ascii	"__uint8_t\000"
 4769      6E74385F 
 4769      7400
 4770              	.LASF33:
 4771 061f 6E616D65 		.ascii	"name\000"
 4771      00
 4772              	.LASF145:
 4773 0624 63685363 		.ascii	"chSchGoSleepS\000"
 4773      68476F53 
ARM GAS  /var/folders/t8/16hdwfmd2fg_d3q6dgx6bpmw0000gn/T//cc30os3f.s 			page 90


 4773      6C656570 
 4773      5300
 4774              	.LASF91:
 4775 0632 6964656E 		.ascii	"identifier\000"
 4775      74696669 
 4775      657200
 4776              	.LASF139:
 4777 063d 63684D74 		.ascii	"chMtxUnlockS\000"
 4777      78556E6C 
 4777      6F636B53 
 4777      00
 4778              	.LASF118:
 4779 064a 6368436F 		.ascii	"chCondWaitS\000"
 4779      6E645761 
 4779      69745300 
 4780              	.LASF141:
 4781 0656 63684D74 		.ascii	"chMtxLockS\000"
 4781      784C6F63 
 4781      6B5300
 4782              	.LASF107:
 4783 0661 6F66665F 		.ascii	"off_preempt\000"
 4783      70726565 
 4783      6D707400 
 4784              	.LASF127:
 4785 066d 63685379 		.ascii	"chSysUnlock\000"
 4785      73556E6C 
 4785      6F636B00 
 4786              	.LASF21:
 4787 0679 74726566 		.ascii	"trefs_t\000"
 4787      735F7400 
 4788              	.LASF10:
 4789 0681 6C6F6E67 		.ascii	"long unsigned int\000"
 4789      20756E73 
 4789      69676E65 
 4789      6420696E 
 4789      7400
 4790              	.LASF53:
 4791 0693 72656164 		.ascii	"ready_list_t\000"
 4791      795F6C69 
 4791      73745F74 
 4791      00
 4792              	.LASF140:
 4793 06a0 63685363 		.ascii	"chSchGoSleepTimeoutS\000"
 4793      68476F53 
 4793      6C656570 
 4793      54696D65 
 4793      6F757453 
 4794              	.LASF29:
 4795 06b5 71756575 		.ascii	"queue\000"
 4795      6500
 4796              	.LASF16:
 4797 06bb 696E7433 		.ascii	"int32_t\000"
 4797      325F7400 
 4798              	.LASF83:
 4799 06c3 77747365 		.ascii	"wtsemp\000"
 4799      6D7000
 4800              	.LASF111:
ARM GAS  /var/folders/t8/16hdwfmd2fg_d3q6dgx6bpmw0000gn/T//cc30os3f.s 			page 91


 4801 06ca 6D757465 		.ascii	"mutex_t\000"
 4801      785F7400 
 4802              	.LASF31:
 4803 06d2 6E657765 		.ascii	"newer\000"
 4803      7200
 4804              	.LASF132:
 4805 06d8 71756575 		.ascii	"queue_init\000"
 4805      655F696E 
 4805      697400
 4806              	.LASF2:
 4807 06e3 756E7369 		.ascii	"unsigned char\000"
 4807      676E6564 
 4807      20636861 
 4807      7200
 4808              	.LASF9:
 4809 06f1 5F5F7569 		.ascii	"__uint32_t\000"
 4809      6E743332 
 4809      5F7400
 4810              	.LASF39:
 4811 06fc 77616974 		.ascii	"waiting\000"
 4811      696E6700 
 4812              	.LASF61:
 4813 0704 76697274 		.ascii	"virtual_timers_list_t\000"
 4813      75616C5F 
 4813      74696D65 
 4813      72735F6C 
 4813      6973745F 
 4814              	.LASF125:
 4815 071a 63684D74 		.ascii	"chMtxGetNextMutexS\000"
 4815      78476574 
 4815      4E657874 
 4815      4D757465 
 4815      785300
 4816              	.LASF149:
 4817 072d 63685363 		.ascii	"chSchWakeupS\000"
 4817      6857616B 
 4817      65757053 
 4817      00
 4818              	.LASF35:
 4819 073a 73746174 		.ascii	"state\000"
 4819      6500
 4820              	.LASF142:
 4821 0740 63685379 		.ascii	"chSysHalt\000"
 4821      7348616C 
 4821      7400
 4822              	.LASF69:
 4823 074a 63685F73 		.ascii	"ch_system_t\000"
 4823      79737465 
 4823      6D5F7400 
 4824              	.LASF81:
 4825 0756 77747472 		.ascii	"wttrp\000"
 4825      7000
 4826              	.LASF1:
 4827 075c 7369676E 		.ascii	"signed char\000"
 4827      65642063 
 4827      68617200 
 4828              	.LASF59:
ARM GAS  /var/folders/t8/16hdwfmd2fg_d3q6dgx6bpmw0000gn/T//cc30os3f.s 			page 92


 4829 0768 64656C74 		.ascii	"delta\000"
 4829      6100
 4830              	.LASF6:
 4831 076e 73686F72 		.ascii	"short unsigned int\000"
 4831      7420756E 
 4831      7369676E 
 4831      65642069 
 4831      6E7400
 4832              	.LASF75:
 4833 0781 73746B61 		.ascii	"stkalign_t\000"
 4833      6C69676E 
 4833      5F7400
 4834              	.LASF106:
 4835 078c 6F66665F 		.ascii	"off_refs\000"
 4835      72656673 
 4835      00
 4836              	.LASF116:
 4837 0795 6368436F 		.ascii	"chCondWaitTimeoutS\000"
 4837      6E645761 
 4837      69745469 
 4837      6D656F75 
 4837      745300
 4838              	.LASF55:
 4839 07a8 63757272 		.ascii	"current\000"
 4839      656E7400 
 4840              	.LASF115:
 4841 07b0 5F5F6675 		.ascii	"__func__\000"
 4841      6E635F5F 
 4841      00
 4842              	.LASF110:
 4843 07b9 63685F64 		.ascii	"ch_debug\000"
 4843      65627567 
 4843      00
 4844              	.LASF134:
 4845 07c2 706F7274 		.ascii	"port_unlock\000"
 4845      5F756E6C 
 4845      6F636B00 
 4846              	.LASF32:
 4847 07ce 6F6C6465 		.ascii	"older\000"
 4847      7200
 4848              	.LASF79:
 4849 07d4 65786974 		.ascii	"exitcode\000"
 4849      636F6465 
 4849      00
 4850              	.LASF44:
 4851 07dd 6D706F6F 		.ascii	"mpool\000"
 4851      6C00
 4852              		.ident	"GCC: (GNU Tools for Arm Embedded Processors 7-2017-q4-major) 7.2.1 20170904 (release) [ARM
ARM GAS  /var/folders/t8/16hdwfmd2fg_d3q6dgx6bpmw0000gn/T//cc30os3f.s 			page 93


DEFINED SYMBOLS
                            *ABS*:0000000000000000 chcond.c
/var/folders/t8/16hdwfmd2fg_d3q6dgx6bpmw0000gn/T//cc30os3f.s:16     .text.chCondObjectInit:0000000000000000 $t
/var/folders/t8/16hdwfmd2fg_d3q6dgx6bpmw0000gn/T//cc30os3f.s:24     .text.chCondObjectInit:0000000000000000 chCondObjectInit
/var/folders/t8/16hdwfmd2fg_d3q6dgx6bpmw0000gn/T//cc30os3f.s:67     .text.chCondObjectInit:0000000000000014 $d
/var/folders/t8/16hdwfmd2fg_d3q6dgx6bpmw0000gn/T//cc30os3f.s:72     .text.chCondSignal:0000000000000000 $t
/var/folders/t8/16hdwfmd2fg_d3q6dgx6bpmw0000gn/T//cc30os3f.s:80     .text.chCondSignal:0000000000000000 chCondSignal
/var/folders/t8/16hdwfmd2fg_d3q6dgx6bpmw0000gn/T//cc30os3f.s:208    .text.chCondSignal:0000000000000048 $d
/var/folders/t8/16hdwfmd2fg_d3q6dgx6bpmw0000gn/T//cc30os3f.s:215    .text.chCondSignalI:0000000000000000 $t
/var/folders/t8/16hdwfmd2fg_d3q6dgx6bpmw0000gn/T//cc30os3f.s:223    .text.chCondSignalI:0000000000000000 chCondSignalI
/var/folders/t8/16hdwfmd2fg_d3q6dgx6bpmw0000gn/T//cc30os3f.s:288    .text.chCondSignalI:000000000000002c $d
/var/folders/t8/16hdwfmd2fg_d3q6dgx6bpmw0000gn/T//cc30os3f.s:293    .text.chCondBroadcastI:0000000000000000 $t
/var/folders/t8/16hdwfmd2fg_d3q6dgx6bpmw0000gn/T//cc30os3f.s:301    .text.chCondBroadcastI:0000000000000000 chCondBroadcastI
/var/folders/t8/16hdwfmd2fg_d3q6dgx6bpmw0000gn/T//cc30os3f.s:379    .text.chCondBroadcastI:0000000000000034 $d
/var/folders/t8/16hdwfmd2fg_d3q6dgx6bpmw0000gn/T//cc30os3f.s:384    .text.chCondBroadcast:0000000000000000 $t
/var/folders/t8/16hdwfmd2fg_d3q6dgx6bpmw0000gn/T//cc30os3f.s:392    .text.chCondBroadcast:0000000000000000 chCondBroadcast
/var/folders/t8/16hdwfmd2fg_d3q6dgx6bpmw0000gn/T//cc30os3f.s:479    .text.chCondBroadcast:0000000000000038 $d
/var/folders/t8/16hdwfmd2fg_d3q6dgx6bpmw0000gn/T//cc30os3f.s:487    .text.chCondWaitS:0000000000000000 $t
/var/folders/t8/16hdwfmd2fg_d3q6dgx6bpmw0000gn/T//cc30os3f.s:495    .text.chCondWaitS:0000000000000000 chCondWaitS
/var/folders/t8/16hdwfmd2fg_d3q6dgx6bpmw0000gn/T//cc30os3f.s:627    .text.chCondWaitS:0000000000000068 $d
/var/folders/t8/16hdwfmd2fg_d3q6dgx6bpmw0000gn/T//cc30os3f.s:633    .text.chCondWait:0000000000000000 $t
/var/folders/t8/16hdwfmd2fg_d3q6dgx6bpmw0000gn/T//cc30os3f.s:641    .text.chCondWait:0000000000000000 chCondWait
/var/folders/t8/16hdwfmd2fg_d3q6dgx6bpmw0000gn/T//cc30os3f.s:728    .text.chCondWait:0000000000000038 $d
/var/folders/t8/16hdwfmd2fg_d3q6dgx6bpmw0000gn/T//cc30os3f.s:736    .text.chCondWaitTimeoutS:0000000000000000 $t
/var/folders/t8/16hdwfmd2fg_d3q6dgx6bpmw0000gn/T//cc30os3f.s:744    .text.chCondWaitTimeoutS:0000000000000000 chCondWaitTimeoutS
/var/folders/t8/16hdwfmd2fg_d3q6dgx6bpmw0000gn/T//cc30os3f.s:883    .text.chCondWaitTimeoutS:000000000000007c $d
/var/folders/t8/16hdwfmd2fg_d3q6dgx6bpmw0000gn/T//cc30os3f.s:891    .text.chCondWaitTimeout:0000000000000000 $t
/var/folders/t8/16hdwfmd2fg_d3q6dgx6bpmw0000gn/T//cc30os3f.s:899    .text.chCondWaitTimeout:0000000000000000 chCondWaitTimeout
/var/folders/t8/16hdwfmd2fg_d3q6dgx6bpmw0000gn/T//cc30os3f.s:991    .text.chCondWaitTimeout:000000000000003c $d
/var/folders/t8/16hdwfmd2fg_d3q6dgx6bpmw0000gn/T//cc30os3f.s:999    .rodata.__func__.5043:0000000000000000 $d
/var/folders/t8/16hdwfmd2fg_d3q6dgx6bpmw0000gn/T//cc30os3f.s:1003   .rodata.__func__.5043:0000000000000000 __func__.5043
/var/folders/t8/16hdwfmd2fg_d3q6dgx6bpmw0000gn/T//cc30os3f.s:1006   .rodata.__func__.5717:0000000000000000 $d
/var/folders/t8/16hdwfmd2fg_d3q6dgx6bpmw0000gn/T//cc30os3f.s:1010   .rodata.__func__.5717:0000000000000000 __func__.5717
/var/folders/t8/16hdwfmd2fg_d3q6dgx6bpmw0000gn/T//cc30os3f.s:1013   .rodata.__func__.5721:0000000000000000 $d
/var/folders/t8/16hdwfmd2fg_d3q6dgx6bpmw0000gn/T//cc30os3f.s:1017   .rodata.__func__.5721:0000000000000000 __func__.5721
/var/folders/t8/16hdwfmd2fg_d3q6dgx6bpmw0000gn/T//cc30os3f.s:1020   .rodata.__func__.5725:0000000000000000 $d
/var/folders/t8/16hdwfmd2fg_d3q6dgx6bpmw0000gn/T//cc30os3f.s:1024   .rodata.__func__.5725:0000000000000000 __func__.5725
/var/folders/t8/16hdwfmd2fg_d3q6dgx6bpmw0000gn/T//cc30os3f.s:1027   .rodata.__func__.5733:0000000000000000 $d
/var/folders/t8/16hdwfmd2fg_d3q6dgx6bpmw0000gn/T//cc30os3f.s:1031   .rodata.__func__.5733:0000000000000000 __func__.5733
/var/folders/t8/16hdwfmd2fg_d3q6dgx6bpmw0000gn/T//cc30os3f.s:1034   .rodata.__func__.5747:0000000000000000 $d
/var/folders/t8/16hdwfmd2fg_d3q6dgx6bpmw0000gn/T//cc30os3f.s:1038   .rodata.__func__.5747:0000000000000000 __func__.5747
/var/folders/t8/16hdwfmd2fg_d3q6dgx6bpmw0000gn/T//cc30os3f.s:1041   .rodata.__func__.5759:0000000000000000 $d
/var/folders/t8/16hdwfmd2fg_d3q6dgx6bpmw0000gn/T//cc30os3f.s:1045   .rodata.__func__.5759:0000000000000000 __func__.5759

UNDEFINED SYMBOLS
chSysHalt
_dbg_check_lock
chSchWakeupS
_dbg_check_unlock
ch
chDbgCheckClassI
chSchReadyI
chSchRescheduleS
chDbgCheckClassS
chMtxUnlockS
chSchGoSleepS
chMtxLockS
ARM GAS  /var/folders/t8/16hdwfmd2fg_d3q6dgx6bpmw0000gn/T//cc30os3f.s 			page 94


chSchGoSleepTimeoutS
