ARM GAS  /var/folders/t8/16hdwfmd2fg_d3q6dgx6bpmw0000gn/T//ccop2MDO.s 			page 1


   1              		.cpu cortex-m0plus
   2              		.eabi_attribute 20, 1
   3              		.eabi_attribute 21, 1
   4              		.eabi_attribute 23, 3
   5              		.eabi_attribute 24, 1
   6              		.eabi_attribute 25, 1
   7              		.eabi_attribute 26, 1
   8              		.eabi_attribute 30, 2
   9              		.eabi_attribute 34, 0
  10              		.eabi_attribute 18, 4
  11              		.file	"chcore_v6m.c"
  12              		.text
  13              	.Ltext0:
  14              		.cfi_sections	.debug_frame
  15              		.section	.text.NMI_Handler,"ax",%progbits
  16              		.align	1
  17              		.p2align 4,,15
  18              		.global	NMI_Handler
  19              		.syntax unified
  20              		.code	16
  21              		.thumb_func
  22              		.fpu softvfp
  23              		.type	NMI_Handler, %function
  24              	NMI_Handler:
  25              	.LFB138:
  26              		.file 1 "../../tmk_core/tool/chibios/ChibiOS/os/common/ports/ARMCMx/chcore_v6m.c"
  27              		.loc 1 61 0
  28              		.cfi_startproc
  29              		@ args = 0, pretend = 0, frame = 0
  30              		@ frame_needed = 1, uses_anonymous_args = 0
  31 0000 80B5     		push	{r7, lr}
  32              		.cfi_def_cfa_offset 8
  33              		.cfi_offset 7, -8
  34              		.cfi_offset 14, -4
  35 0002 00AF     		add	r7, sp, #0
  36              		.cfi_def_cfa_register 7
  37              	.LBB42:
  38              	.LBB43:
  39              		.file 2 "../../tmk_core/tool/chibios/ChibiOS/os/common/ext/CMSIS/include/cmsis_gcc.h"
  40              		.loc 2 152 0
  41              		.syntax divided
  42              	@ 152 "../../tmk_core/tool/chibios/ChibiOS/os/common/ext/CMSIS/include/cmsis_gcc.h" 1
  43 0004 EFF30983 		MRS r3, psp
  44              	
  45              	@ 0 "" 2
  46              	.LVL0:
  47              		.thumb
  48              		.syntax unified
  49              	.LBE43:
  50              	.LBE42:
  51              		.loc 1 69 0
  52 0008 2033     		adds	r3, r3, #32
  53              	.LVL1:
  54              	.LBB44:
  55              	.LBB45:
  56              		.loc 2 164 0
  57              		.syntax divided
ARM GAS  /var/folders/t8/16hdwfmd2fg_d3q6dgx6bpmw0000gn/T//ccop2MDO.s 			page 2


  58              	@ 164 "../../tmk_core/tool/chibios/ChibiOS/os/common/ext/CMSIS/include/cmsis_gcc.h" 1
  59 000a 83F30988 		MSR psp, r3
  60              	
  61              	@ 0 "" 2
  62              	.LVL2:
  63              		.thumb
  64              		.syntax unified
  65              	.LBE45:
  66              	.LBE44:
  67              	.LBB46:
  68              	.LBB47:
  69              	.LBB48:
  70              	.LBB49:
  71              		.loc 2 60 0
  72              		.syntax divided
  73              	@ 60 "../../tmk_core/tool/chibios/ChibiOS/os/common/ext/CMSIS/include/cmsis_gcc.h" 1
  74 000e 62B6     		cpsie i
  75              	@ 0 "" 2
  76              		.thumb
  77              		.syntax unified
  78              	.LBE49:
  79              	.LBE48:
  80              	.LBE47:
  81              	.LBE46:
  82              		.loc 1 76 0
  83 0010 BD46     		mov	sp, r7
  84              		@ sp needed
  85 0012 80BD     		pop	{r7, pc}
  86              		.cfi_endproc
  87              	.LFE138:
  88              		.size	NMI_Handler, .-NMI_Handler
  89              		.section	.text._port_irq_epilogue,"ax",%progbits
  90              		.align	1
  91              		.p2align 4,,15
  92              		.global	_port_irq_epilogue
  93              		.syntax unified
  94              		.code	16
  95              		.thumb_func
  96              		.fpu softvfp
  97              		.type	_port_irq_epilogue, %function
  98              	_port_irq_epilogue:
  99              	.LFB139:
 100              		.loc 1 110 0
 101              		.cfi_startproc
 102              		@ args = 0, pretend = 0, frame = 0
 103              		@ frame_needed = 1, uses_anonymous_args = 0
 104              	.LVL3:
 105 0000 B0B5     		push	{r4, r5, r7, lr}
 106              		.cfi_def_cfa_offset 16
 107              		.cfi_offset 4, -16
 108              		.cfi_offset 5, -12
 109              		.cfi_offset 7, -8
 110              		.cfi_offset 14, -4
 111 0002 00AF     		add	r7, sp, #0
 112              		.cfi_def_cfa_register 7
 113              		.loc 1 112 0
 114 0004 0F30     		adds	r0, r0, #15
ARM GAS  /var/folders/t8/16hdwfmd2fg_d3q6dgx6bpmw0000gn/T//ccop2MDO.s 			page 3


 115 0006 0ED0     		beq	.L3
 116              	.LVL4:
 117              	.LBB50:
 118              	.LBB51:
 119              	.LBB52:
 120              	.LBB53:
 121              	.LBB54:
 122              		.loc 2 71 0
 123              		.syntax divided
 124              	@ 71 "../../tmk_core/tool/chibios/ChibiOS/os/common/ext/CMSIS/include/cmsis_gcc.h" 1
 125 0008 72B6     		cpsid i
 126              	@ 0 "" 2
 127              		.thumb
 128              		.syntax unified
 129              	.LBE54:
 130              	.LBE53:
 131              	.LBE52:
 132              	.LBE51:
 133              	.LBB55:
 134              	.LBB56:
 135              		.loc 2 152 0
 136              		.syntax divided
 137              	@ 152 "../../tmk_core/tool/chibios/ChibiOS/os/common/ext/CMSIS/include/cmsis_gcc.h" 1
 138 000a EFF30984 		MRS r4, psp
 139              	
 140              	@ 0 "" 2
 141              	.LVL5:
 142              		.thumb
 143              		.syntax unified
 144              	.LBE56:
 145              	.LBE55:
 146              		.loc 1 122 0
 147 000e 203C     		subs	r4, r4, #32
 148              	.LVL6:
 149              	.LBB57:
 150              	.LBB58:
 151              		.loc 2 164 0
 152              		.syntax divided
 153              	@ 164 "../../tmk_core/tool/chibios/ChibiOS/os/common/ext/CMSIS/include/cmsis_gcc.h" 1
 154 0010 84F30988 		MSR psp, r4
 155              	
 156              	@ 0 "" 2
 157              	.LVL7:
 158              		.thumb
 159              		.syntax unified
 160              	.LBE58:
 161              	.LBE57:
 162              		.loc 1 128 0
 163 0014 8023     		movs	r3, #128
 164 0016 5B04     		lsls	r3, r3, #17
 165 0018 E361     		str	r3, [r4, #28]
 166              		.loc 1 132 0
 167 001a FFF7FEFF 		bl	chSchIsPreemptionRequired
 168              	.LVL8:
 169 001e 0028     		cmp	r0, #0
 170 0020 03D1     		bne	.L9
 171              		.loc 1 139 0
ARM GAS  /var/folders/t8/16hdwfmd2fg_d3q6dgx6bpmw0000gn/T//ccop2MDO.s 			page 4


 172 0022 034B     		ldr	r3, .L10
 173 0024 A361     		str	r3, [r4, #24]
 174              	.LVL9:
 175              	.L3:
 176              	.LBE50:
 177              		.loc 1 145 0
 178 0026 BD46     		mov	sp, r7
 179              		@ sp needed
 180 0028 B0BD     		pop	{r4, r5, r7, pc}
 181              	.LVL10:
 182              	.L9:
 183              	.LBB59:
 184              		.loc 1 134 0
 185 002a 024B     		ldr	r3, .L10+4
 186 002c A361     		str	r3, [r4, #24]
 187 002e FAE7     		b	.L3
 188              	.L11:
 189              		.align	2
 190              	.L10:
 191 0030 00000000 		.word	_port_exit_from_isr
 192 0034 00000000 		.word	_port_switch_from_isr
 193              	.LBE59:
 194              		.cfi_endproc
 195              	.LFE139:
 196              		.size	_port_irq_epilogue, .-_port_irq_epilogue
 197              		.text
 198              	.Letext0:
 199              		.file 3 "/usr/local/Caskroom/gcc-arm-embedded/7-2017-q4-major/gcc-arm-none-eabi-7-2017-q4-major/ar
 200              		.file 4 "/usr/local/Caskroom/gcc-arm-embedded/7-2017-q4-major/gcc-arm-none-eabi-7-2017-q4-major/ar
 201              		.file 5 "../../tmk_core/tool/chibios/ChibiOS/os/common/ports/ARMCMx/compilers/GCC/chtypes.h"
 202              		.file 6 "../../tmk_core/tool/chibios/ChibiOS/os/rt/include/chsystypes.h"
 203              		.file 7 "../../tmk_core/tool/chibios/ChibiOS/os/rt/include/chschd.h"
 204              		.file 8 "../../tmk_core/tool/chibios/ChibiOS/os/common/ports/ARMCMx/chcore.h"
 205              		.file 9 "../../tmk_core/tool/chibios/ChibiOS/os/common/ports/ARMCMx/chcore_v6m.h"
 206              		.file 10 "../../tmk_core/tool/chibios/ChibiOS/os/rt/include/chsem.h"
 207              		.file 11 "../../tmk_core/tool/chibios/ChibiOS/os/rt/include/chmtx.h"
 208              		.file 12 "../../tmk_core/tool/chibios/ChibiOS/os/rt/include/chregistry.h"
 209              		.file 13 "../../tmk_core/tool/chibios/ChibiOS/os/rt/include/chsys.h"
 210              		.section	.debug_info,"",%progbits
 211              	.Ldebug_info0:
 212 0000 53090000 		.4byte	0x953
 213 0004 0400     		.2byte	0x4
 214 0006 00000000 		.4byte	.Ldebug_abbrev0
 215 000a 04       		.byte	0x4
 216 000b 01       		.uleb128 0x1
 217 000c 19000000 		.4byte	.LASF124
 218 0010 0C       		.byte	0xc
 219 0011 95040000 		.4byte	.LASF125
 220 0015 FA030000 		.4byte	.LASF126
 221 0019 18000000 		.4byte	.Ldebug_ranges0+0x18
 222 001d 00000000 		.4byte	0
 223 0021 00000000 		.4byte	.Ldebug_line0
 224 0025 02       		.uleb128 0x2
 225 0026 04       		.byte	0x4
 226 0027 05       		.byte	0x5
 227 0028 696E7400 		.ascii	"int\000"
 228 002c 03       		.uleb128 0x3
ARM GAS  /var/folders/t8/16hdwfmd2fg_d3q6dgx6bpmw0000gn/T//ccop2MDO.s 			page 5


 229 002d 04       		.byte	0x4
 230 002e 07       		.byte	0x7
 231 002f 34010000 		.4byte	.LASF0
 232 0033 03       		.uleb128 0x3
 233 0034 01       		.byte	0x1
 234 0035 06       		.byte	0x6
 235 0036 3A060000 		.4byte	.LASF1
 236 003a 04       		.uleb128 0x4
 237 003b 2F050000 		.4byte	.LASF4
 238 003f 03       		.byte	0x3
 239 0040 2B       		.byte	0x2b
 240 0041 45000000 		.4byte	0x45
 241 0045 03       		.uleb128 0x3
 242 0046 01       		.byte	0x1
 243 0047 08       		.byte	0x8
 244 0048 C5050000 		.4byte	.LASF2
 245 004c 03       		.uleb128 0x3
 246 004d 02       		.byte	0x2
 247 004e 05       		.byte	0x5
 248 004f DD040000 		.4byte	.LASF3
 249 0053 04       		.uleb128 0x4
 250 0054 86020000 		.4byte	.LASF5
 251 0058 03       		.byte	0x3
 252 0059 39       		.byte	0x39
 253 005a 5E000000 		.4byte	0x5e
 254 005e 03       		.uleb128 0x3
 255 005f 02       		.byte	0x2
 256 0060 07       		.byte	0x7
 257 0061 4C060000 		.4byte	.LASF6
 258 0065 04       		.uleb128 0x4
 259 0066 5D010000 		.4byte	.LASF7
 260 006a 03       		.byte	0x3
 261 006b 4D       		.byte	0x4d
 262 006c 70000000 		.4byte	0x70
 263 0070 03       		.uleb128 0x3
 264 0071 04       		.byte	0x4
 265 0072 05       		.byte	0x5
 266 0073 EC040000 		.4byte	.LASF8
 267 0077 04       		.uleb128 0x4
 268 0078 D3050000 		.4byte	.LASF9
 269 007c 03       		.byte	0x3
 270 007d 4F       		.byte	0x4f
 271 007e 82000000 		.4byte	0x82
 272 0082 03       		.uleb128 0x3
 273 0083 04       		.byte	0x4
 274 0084 07       		.byte	0x7
 275 0085 6E050000 		.4byte	.LASF10
 276 0089 03       		.uleb128 0x3
 277 008a 08       		.byte	0x8
 278 008b 05       		.byte	0x5
 279 008c BA030000 		.4byte	.LASF11
 280 0090 04       		.uleb128 0x4
 281 0091 2B030000 		.4byte	.LASF12
 282 0095 03       		.byte	0x3
 283 0096 69       		.byte	0x69
 284 0097 9B000000 		.4byte	0x9b
 285 009b 03       		.uleb128 0x3
ARM GAS  /var/folders/t8/16hdwfmd2fg_d3q6dgx6bpmw0000gn/T//ccop2MDO.s 			page 6


 286 009c 08       		.byte	0x8
 287 009d 07       		.byte	0x7
 288 009e 55020000 		.4byte	.LASF13
 289 00a2 04       		.uleb128 0x4
 290 00a3 87030000 		.4byte	.LASF14
 291 00a7 04       		.byte	0x4
 292 00a8 18       		.byte	0x18
 293 00a9 3A000000 		.4byte	0x3a
 294 00ad 04       		.uleb128 0x4
 295 00ae 66040000 		.4byte	.LASF15
 296 00b2 04       		.byte	0x4
 297 00b3 24       		.byte	0x24
 298 00b4 53000000 		.4byte	0x53
 299 00b8 04       		.uleb128 0x4
 300 00b9 93050000 		.4byte	.LASF16
 301 00bd 04       		.byte	0x4
 302 00be 2C       		.byte	0x2c
 303 00bf 65000000 		.4byte	0x65
 304 00c3 04       		.uleb128 0x4
 305 00c4 00020000 		.4byte	.LASF17
 306 00c8 04       		.byte	0x4
 307 00c9 30       		.byte	0x30
 308 00ca 77000000 		.4byte	0x77
 309 00ce 04       		.uleb128 0x4
 310 00cf 20050000 		.4byte	.LASF18
 311 00d3 04       		.byte	0x4
 312 00d4 3C       		.byte	0x3c
 313 00d5 90000000 		.4byte	0x90
 314 00d9 04       		.uleb128 0x4
 315 00da 4B040000 		.4byte	.LASF19
 316 00de 05       		.byte	0x5
 317 00df 3C       		.byte	0x3c
 318 00e0 A2000000 		.4byte	0xa2
 319 00e4 04       		.uleb128 0x4
 320 00e5 7E030000 		.4byte	.LASF20
 321 00e9 05       		.byte	0x5
 322 00ea 3D       		.byte	0x3d
 323 00eb A2000000 		.4byte	0xa2
 324 00ef 04       		.uleb128 0x4
 325 00f0 66050000 		.4byte	.LASF21
 326 00f4 05       		.byte	0x5
 327 00f5 3E       		.byte	0x3e
 328 00f6 A2000000 		.4byte	0xa2
 329 00fa 04       		.uleb128 0x4
 330 00fb F0030000 		.4byte	.LASF22
 331 00ff 05       		.byte	0x5
 332 0100 3F       		.byte	0x3f
 333 0101 A2000000 		.4byte	0xa2
 334 0105 04       		.uleb128 0x4
 335 0106 35020000 		.4byte	.LASF23
 336 010a 05       		.byte	0x5
 337 010b 40       		.byte	0x40
 338 010c C3000000 		.4byte	0xc3
 339 0110 04       		.uleb128 0x4
 340 0111 CD030000 		.4byte	.LASF24
 341 0115 05       		.byte	0x5
 342 0116 41       		.byte	0x41
ARM GAS  /var/folders/t8/16hdwfmd2fg_d3q6dgx6bpmw0000gn/T//ccop2MDO.s 			page 7


 343 0117 B8000000 		.4byte	0xb8
 344 011b 04       		.uleb128 0x4
 345 011c 11020000 		.4byte	.LASF25
 346 0120 05       		.byte	0x5
 347 0121 43       		.byte	0x43
 348 0122 C3000000 		.4byte	0xc3
 349 0126 04       		.uleb128 0x4
 350 0127 91020000 		.4byte	.LASF26
 351 012b 05       		.byte	0x5
 352 012c 45       		.byte	0x45
 353 012d B8000000 		.4byte	0xb8
 354 0131 04       		.uleb128 0x4
 355 0132 18010000 		.4byte	.LASF27
 356 0136 06       		.byte	0x6
 357 0137 33       		.byte	0x33
 358 0138 C3000000 		.4byte	0xc3
 359 013c 05       		.uleb128 0x5
 360 013d 31010000 		.4byte	0x131
 361 0141 04       		.uleb128 0x4
 362 0142 F0020000 		.4byte	.LASF28
 363 0146 06       		.byte	0x6
 364 0147 3F       		.byte	0x3f
 365 0148 4C010000 		.4byte	0x14c
 366 014c 06       		.uleb128 0x6
 367 014d 98030000 		.4byte	.LASF47
 368 0151 44       		.byte	0x44
 369 0152 07       		.byte	0x7
 370 0153 9A       		.byte	0x9a
 371 0154 36020000 		.4byte	0x236
 372 0158 07       		.uleb128 0x7
 373 0159 8D050000 		.4byte	.LASF29
 374 015d 07       		.byte	0x7
 375 015e 9B       		.byte	0x9b
 376 015f 6B020000 		.4byte	0x26b
 377 0163 00       		.byte	0
 378 0164 07       		.uleb128 0x7
 379 0165 48030000 		.4byte	.LASF30
 380 0169 07       		.byte	0x7
 381 016a 9C       		.byte	0x9c
 382 016b 05010000 		.4byte	0x105
 383 016f 08       		.byte	0x8
 384 0170 08       		.uleb128 0x8
 385 0171 63747800 		.ascii	"ctx\000"
 386 0175 07       		.byte	0x7
 387 0176 9D       		.byte	0x9d
 388 0177 6A040000 		.4byte	0x46a
 389 017b 0C       		.byte	0xc
 390 017c 07       		.uleb128 0x7
 391 017d AA050000 		.4byte	.LASF31
 392 0181 07       		.byte	0x7
 393 0182 9F       		.byte	0x9f
 394 0183 41020000 		.4byte	0x241
 395 0187 10       		.byte	0x10
 396 0188 07       		.uleb128 0x7
 397 0189 90060000 		.4byte	.LASF32
 398 018d 07       		.byte	0x7
 399 018e A0       		.byte	0xa0
ARM GAS  /var/folders/t8/16hdwfmd2fg_d3q6dgx6bpmw0000gn/T//ccop2MDO.s 			page 8


 400 018f 41020000 		.4byte	0x241
 401 0193 14       		.byte	0x14
 402 0194 07       		.uleb128 0x7
 403 0195 45050000 		.4byte	.LASF33
 404 0199 07       		.byte	0x7
 405 019a A7       		.byte	0xa7
 406 019b 2D060000 		.4byte	0x62d
 407 019f 18       		.byte	0x18
 408 01a0 07       		.uleb128 0x7
 409 01a1 65030000 		.4byte	.LASF34
 410 01a5 07       		.byte	0x7
 411 01a6 B0       		.byte	0xb0
 412 01a7 44060000 		.4byte	0x644
 413 01ab 1C       		.byte	0x1c
 414 01ac 07       		.uleb128 0x7
 415 01ad 1B060000 		.4byte	.LASF35
 416 01b1 07       		.byte	0x7
 417 01b2 B5       		.byte	0xb5
 418 01b3 E4000000 		.4byte	0xe4
 419 01b7 20       		.byte	0x20
 420 01b8 07       		.uleb128 0x7
 421 01b9 12010000 		.4byte	.LASF36
 422 01bd 07       		.byte	0x7
 423 01be B9       		.byte	0xb9
 424 01bf D9000000 		.4byte	0xd9
 425 01c3 21       		.byte	0x21
 426 01c4 07       		.uleb128 0x7
 427 01c5 67010000 		.4byte	.LASF37
 428 01c9 07       		.byte	0x7
 429 01ca BE       		.byte	0xbe
 430 01cb EF000000 		.4byte	0xef
 431 01cf 22       		.byte	0x22
 432 01d0 07       		.uleb128 0x7
 433 01d1 01050000 		.4byte	.LASF38
 434 01d5 07       		.byte	0x7
 435 01d6 C4       		.byte	0xc4
 436 01d7 FA000000 		.4byte	0xfa
 437 01db 23       		.byte	0x23
 438 01dc 09       		.uleb128 0x9
 439 01dd 7500     		.ascii	"u\000"
 440 01df 07       		.byte	0x7
 441 01e0 0F01     		.2byte	0x10f
 442 01e2 62050000 		.4byte	0x562
 443 01e6 24       		.byte	0x24
 444 01e7 0A       		.uleb128 0xa
 445 01e8 DE050000 		.4byte	.LASF39
 446 01ec 07       		.byte	0x7
 447 01ed 1401     		.2byte	0x114
 448 01ef 47020000 		.4byte	0x247
 449 01f3 28       		.byte	0x28
 450 01f4 0A       		.uleb128 0xa
 451 01f5 8F030000 		.4byte	.LASF40
 452 01f9 07       		.byte	0x7
 453 01fa 1A01     		.2byte	0x11a
 454 01fc 6B020000 		.4byte	0x26b
 455 0200 2C       		.byte	0x2c
 456 0201 0A       		.uleb128 0xa
ARM GAS  /var/folders/t8/16hdwfmd2fg_d3q6dgx6bpmw0000gn/T//ccop2MDO.s 			page 9


 457 0202 2B010000 		.4byte	.LASF41
 458 0206 07       		.byte	0x7
 459 0207 2001     		.2byte	0x120
 460 0209 1B010000 		.4byte	0x11b
 461 020d 34       		.byte	0x34
 462 020e 0A       		.uleb128 0xa
 463 020f D1020000 		.4byte	.LASF42
 464 0213 07       		.byte	0x7
 465 0214 2701     		.2byte	0x127
 466 0216 27060000 		.4byte	0x627
 467 021a 38       		.byte	0x38
 468 021b 0A       		.uleb128 0xa
 469 021c 22010000 		.4byte	.LASF43
 470 0220 07       		.byte	0x7
 471 0221 2B01     		.2byte	0x12b
 472 0223 05010000 		.4byte	0x105
 473 0227 3C       		.byte	0x3c
 474 0228 0A       		.uleb128 0xa
 475 0229 9F060000 		.4byte	.LASF44
 476 022d 07       		.byte	0x7
 477 022e 3201     		.2byte	0x132
 478 0230 1E030000 		.4byte	0x31e
 479 0234 40       		.byte	0x40
 480 0235 00       		.byte	0
 481 0236 04       		.uleb128 0x4
 482 0237 52030000 		.4byte	.LASF45
 483 023b 06       		.byte	0x6
 484 023c 44       		.byte	0x44
 485 023d 41020000 		.4byte	0x241
 486 0241 0B       		.uleb128 0xb
 487 0242 04       		.byte	0x4
 488 0243 41010000 		.4byte	0x141
 489 0247 04       		.uleb128 0x4
 490 0248 4E010000 		.4byte	.LASF46
 491 024c 06       		.byte	0x6
 492 024d 49       		.byte	0x49
 493 024e 52020000 		.4byte	0x252
 494 0252 06       		.uleb128 0x6
 495 0253 00000000 		.4byte	.LASF48
 496 0257 04       		.byte	0x4
 497 0258 07       		.byte	0x7
 498 0259 88       		.byte	0x88
 499 025a 6B020000 		.4byte	0x26b
 500 025e 07       		.uleb128 0x7
 501 025f 41010000 		.4byte	.LASF49
 502 0263 07       		.byte	0x7
 503 0264 89       		.byte	0x89
 504 0265 41020000 		.4byte	0x241
 505 0269 00       		.byte	0
 506 026a 00       		.byte	0
 507 026b 04       		.uleb128 0x4
 508 026c B2020000 		.4byte	.LASF50
 509 0270 06       		.byte	0x6
 510 0271 50       		.byte	0x50
 511 0272 76020000 		.4byte	0x276
 512 0276 06       		.uleb128 0x6
 513 0277 CC010000 		.4byte	.LASF51
ARM GAS  /var/folders/t8/16hdwfmd2fg_d3q6dgx6bpmw0000gn/T//ccop2MDO.s 			page 10


 514 027b 08       		.byte	0x8
 515 027c 07       		.byte	0x7
 516 027d 8F       		.byte	0x8f
 517 027e 9B020000 		.4byte	0x29b
 518 0282 07       		.uleb128 0x7
 519 0283 41010000 		.4byte	.LASF49
 520 0287 07       		.byte	0x7
 521 0288 90       		.byte	0x90
 522 0289 41020000 		.4byte	0x241
 523 028d 00       		.byte	0
 524 028e 07       		.uleb128 0x7
 525 028f C7010000 		.4byte	.LASF52
 526 0293 07       		.byte	0x7
 527 0294 91       		.byte	0x91
 528 0295 41020000 		.4byte	0x241
 529 0299 04       		.byte	0x4
 530 029a 00       		.byte	0
 531 029b 04       		.uleb128 0x4
 532 029c 80050000 		.4byte	.LASF53
 533 02a0 06       		.byte	0x6
 534 02a1 57       		.byte	0x57
 535 02a2 A6020000 		.4byte	0x2a6
 536 02a6 0C       		.uleb128 0xc
 537 02a7 AD010000 		.4byte	.LASF54
 538 02ab 1C       		.byte	0x1c
 539 02ac 07       		.byte	0x7
 540 02ad 6A01     		.2byte	0x16a
 541 02af 02030000 		.4byte	0x302
 542 02b3 0A       		.uleb128 0xa
 543 02b4 8D050000 		.4byte	.LASF29
 544 02b8 07       		.byte	0x7
 545 02b9 6B01     		.2byte	0x16b
 546 02bb 6B020000 		.4byte	0x26b
 547 02bf 00       		.byte	0
 548 02c0 0A       		.uleb128 0xa
 549 02c1 48030000 		.4byte	.LASF30
 550 02c5 07       		.byte	0x7
 551 02c6 6C01     		.2byte	0x16c
 552 02c8 05010000 		.4byte	0x105
 553 02cc 08       		.byte	0x8
 554 02cd 09       		.uleb128 0x9
 555 02ce 63747800 		.ascii	"ctx\000"
 556 02d2 07       		.byte	0x7
 557 02d3 6E01     		.2byte	0x16e
 558 02d5 6A040000 		.4byte	0x46a
 559 02d9 0C       		.byte	0xc
 560 02da 0A       		.uleb128 0xa
 561 02db AA050000 		.4byte	.LASF31
 562 02df 07       		.byte	0x7
 563 02e0 7101     		.2byte	0x171
 564 02e2 41020000 		.4byte	0x241
 565 02e6 10       		.byte	0x10
 566 02e7 0A       		.uleb128 0xa
 567 02e8 90060000 		.4byte	.LASF32
 568 02ec 07       		.byte	0x7
 569 02ed 7201     		.2byte	0x172
 570 02ef 41020000 		.4byte	0x241
ARM GAS  /var/folders/t8/16hdwfmd2fg_d3q6dgx6bpmw0000gn/T//ccop2MDO.s 			page 11


 571 02f3 14       		.byte	0x14
 572 02f4 0A       		.uleb128 0xa
 573 02f5 73060000 		.4byte	.LASF55
 574 02f9 07       		.byte	0x7
 575 02fa 7501     		.2byte	0x175
 576 02fc 41020000 		.4byte	0x241
 577 0300 18       		.byte	0x18
 578 0301 00       		.byte	0
 579 0302 04       		.uleb128 0x4
 580 0303 E7010000 		.4byte	.LASF56
 581 0307 06       		.byte	0x6
 582 0308 5C       		.byte	0x5c
 583 0309 0D030000 		.4byte	0x30d
 584 030d 0B       		.uleb128 0xb
 585 030e 04       		.byte	0x4
 586 030f 13030000 		.4byte	0x313
 587 0313 0D       		.uleb128 0xd
 588 0314 1E030000 		.4byte	0x31e
 589 0318 0E       		.uleb128 0xe
 590 0319 1E030000 		.4byte	0x31e
 591 031d 00       		.byte	0
 592 031e 0F       		.uleb128 0xf
 593 031f 04       		.byte	0x4
 594 0320 04       		.uleb128 0x4
 595 0321 D3030000 		.4byte	.LASF57
 596 0325 06       		.byte	0x6
 597 0326 61       		.byte	0x61
 598 0327 2B030000 		.4byte	0x32b
 599 032b 0C       		.uleb128 0xc
 600 032c 3D020000 		.4byte	.LASF58
 601 0330 14       		.byte	0x14
 602 0331 07       		.byte	0x7
 603 0332 4501     		.2byte	0x145
 604 0334 7A030000 		.4byte	0x37a
 605 0338 0A       		.uleb128 0xa
 606 0339 41010000 		.4byte	.LASF49
 607 033d 07       		.byte	0x7
 608 033e 4601     		.2byte	0x146
 609 0340 4A060000 		.4byte	0x64a
 610 0344 00       		.byte	0
 611 0345 0A       		.uleb128 0xa
 612 0346 C7010000 		.4byte	.LASF52
 613 034a 07       		.byte	0x7
 614 034b 4701     		.2byte	0x147
 615 034d 4A060000 		.4byte	0x64a
 616 0351 04       		.byte	0x4
 617 0352 0A       		.uleb128 0xa
 618 0353 46060000 		.4byte	.LASF59
 619 0357 07       		.byte	0x7
 620 0358 4801     		.2byte	0x148
 621 035a 31010000 		.4byte	0x131
 622 035e 08       		.byte	0x8
 623 035f 0A       		.uleb128 0xa
 624 0360 BB010000 		.4byte	.LASF60
 625 0364 07       		.byte	0x7
 626 0365 4901     		.2byte	0x149
 627 0367 02030000 		.4byte	0x302
ARM GAS  /var/folders/t8/16hdwfmd2fg_d3q6dgx6bpmw0000gn/T//ccop2MDO.s 			page 12


 628 036b 0C       		.byte	0xc
 629 036c 09       		.uleb128 0x9
 630 036d 70617200 		.ascii	"par\000"
 631 0371 07       		.byte	0x7
 632 0372 4B01     		.2byte	0x14b
 633 0374 1E030000 		.4byte	0x31e
 634 0378 10       		.byte	0x10
 635 0379 00       		.byte	0
 636 037a 04       		.uleb128 0x4
 637 037b E6050000 		.4byte	.LASF61
 638 037f 06       		.byte	0x6
 639 0380 66       		.byte	0x66
 640 0381 85030000 		.4byte	0x385
 641 0385 0C       		.uleb128 0xc
 642 0386 D9020000 		.4byte	.LASF62
 643 038a 10       		.byte	0x10
 644 038b 07       		.byte	0x7
 645 038c 5501     		.2byte	0x155
 646 038e C7030000 		.4byte	0x3c7
 647 0392 0A       		.uleb128 0xa
 648 0393 41010000 		.4byte	.LASF49
 649 0397 07       		.byte	0x7
 650 0398 5601     		.2byte	0x156
 651 039a 4A060000 		.4byte	0x64a
 652 039e 00       		.byte	0
 653 039f 0A       		.uleb128 0xa
 654 03a0 C7010000 		.4byte	.LASF52
 655 03a4 07       		.byte	0x7
 656 03a5 5801     		.2byte	0x158
 657 03a7 4A060000 		.4byte	0x64a
 658 03ab 04       		.byte	0x4
 659 03ac 0A       		.uleb128 0xa
 660 03ad 46060000 		.4byte	.LASF59
 661 03b1 07       		.byte	0x7
 662 03b2 5A01     		.2byte	0x15a
 663 03b4 31010000 		.4byte	0x131
 664 03b8 08       		.byte	0x8
 665 03b9 0A       		.uleb128 0xa
 666 03ba 53040000 		.4byte	.LASF63
 667 03be 07       		.byte	0x7
 668 03bf 5C01     		.2byte	0x15c
 669 03c1 3C010000 		.4byte	0x13c
 670 03c5 0C       		.byte	0xc
 671 03c6 00       		.byte	0
 672 03c7 04       		.uleb128 0x4
 673 03c8 AB030000 		.4byte	.LASF64
 674 03cc 06       		.byte	0x6
 675 03cd 6B       		.byte	0x6b
 676 03ce D2030000 		.4byte	0x3d2
 677 03d2 0C       		.uleb128 0xc
 678 03d3 F0010000 		.4byte	.LASF65
 679 03d7 0C       		.byte	0xc
 680 03d8 07       		.byte	0x7
 681 03d9 7C01     		.2byte	0x17c
 682 03db 07040000 		.4byte	0x407
 683 03df 0A       		.uleb128 0xa
 684 03e0 41040000 		.4byte	.LASF66
ARM GAS  /var/folders/t8/16hdwfmd2fg_d3q6dgx6bpmw0000gn/T//ccop2MDO.s 			page 13


 685 03e4 07       		.byte	0x7
 686 03e5 8401     		.2byte	0x184
 687 03e7 33060000 		.4byte	0x633
 688 03eb 00       		.byte	0
 689 03ec 0A       		.uleb128 0xa
 690 03ed A4020000 		.4byte	.LASF67
 691 03f1 07       		.byte	0x7
 692 03f2 8901     		.2byte	0x189
 693 03f4 26010000 		.4byte	0x126
 694 03f8 04       		.byte	0x4
 695 03f9 0A       		.uleb128 0xa
 696 03fa 82040000 		.4byte	.LASF68
 697 03fe 07       		.byte	0x7
 698 03ff 8D01     		.2byte	0x18d
 699 0401 26010000 		.4byte	0x126
 700 0405 08       		.byte	0x8
 701 0406 00       		.byte	0
 702 0407 04       		.uleb128 0x4
 703 0408 28060000 		.4byte	.LASF69
 704 040c 06       		.byte	0x6
 705 040d 70       		.byte	0x70
 706 040e 12040000 		.4byte	0x412
 707 0412 0C       		.uleb128 0xc
 708 0413 16050000 		.4byte	.LASF70
 709 0417 7C       		.byte	0x7c
 710 0418 07       		.byte	0x7
 711 0419 9C01     		.2byte	0x19c
 712 041b 54040000 		.4byte	0x454
 713 041f 0A       		.uleb128 0xa
 714 0420 29050000 		.4byte	.LASF71
 715 0424 07       		.byte	0x7
 716 0425 A001     		.2byte	0x1a0
 717 0427 9B020000 		.4byte	0x29b
 718 042b 00       		.byte	0
 719 042c 0A       		.uleb128 0xa
 720 042d 86010000 		.4byte	.LASF72
 721 0431 07       		.byte	0x7
 722 0432 A401     		.2byte	0x1a4
 723 0434 7A030000 		.4byte	0x37a
 724 0438 1C       		.byte	0x1c
 725 0439 09       		.uleb128 0x9
 726 043a 64626700 		.ascii	"dbg\000"
 727 043e 07       		.byte	0x7
 728 043f A801     		.2byte	0x1a8
 729 0441 C7030000 		.4byte	0x3c7
 730 0445 2C       		.byte	0x2c
 731 0446 0A       		.uleb128 0xa
 732 0447 5B040000 		.4byte	.LASF73
 733 044b 07       		.byte	0x7
 734 044c AC01     		.2byte	0x1ac
 735 044e 41010000 		.4byte	0x141
 736 0452 38       		.byte	0x38
 737 0453 00       		.byte	0
 738 0454 04       		.uleb128 0x4
 739 0455 09010000 		.4byte	.LASF74
 740 0459 08       		.byte	0x8
 741 045a 65       		.byte	0x65
ARM GAS  /var/folders/t8/16hdwfmd2fg_d3q6dgx6bpmw0000gn/T//ccop2MDO.s 			page 14


 742 045b 1E030000 		.4byte	0x31e
 743 045f 04       		.uleb128 0x4
 744 0460 5F060000 		.4byte	.LASF75
 745 0464 08       		.byte	0x8
 746 0465 6D       		.byte	0x6d
 747 0466 CE000000 		.4byte	0xce
 748 046a 06       		.uleb128 0x6
 749 046b 8D010000 		.4byte	.LASF76
 750 046f 04       		.byte	0x4
 751 0470 08       		.byte	0x8
 752 0471 89       		.byte	0x89
 753 0472 82040000 		.4byte	0x482
 754 0476 08       		.uleb128 0x8
 755 0477 737000   		.ascii	"sp\000"
 756 047a 08       		.byte	0x8
 757 047b 8A       		.byte	0x8a
 758 047c F4040000 		.4byte	0x4f4
 759 0480 00       		.byte	0
 760 0481 00       		.byte	0
 761 0482 06       		.uleb128 0x6
 762 0483 F5040000 		.4byte	.LASF77
 763 0487 24       		.byte	0x24
 764 0488 09       		.byte	0x9
 765 0489 C3       		.byte	0xc3
 766 048a F4040000 		.4byte	0x4f4
 767 048e 08       		.uleb128 0x8
 768 048f 723800   		.ascii	"r8\000"
 769 0492 09       		.byte	0x9
 770 0493 C4       		.byte	0xc4
 771 0494 54040000 		.4byte	0x454
 772 0498 00       		.byte	0
 773 0499 08       		.uleb128 0x8
 774 049a 723900   		.ascii	"r9\000"
 775 049d 09       		.byte	0x9
 776 049e C5       		.byte	0xc5
 777 049f 54040000 		.4byte	0x454
 778 04a3 04       		.byte	0x4
 779 04a4 08       		.uleb128 0x8
 780 04a5 72313000 		.ascii	"r10\000"
 781 04a9 09       		.byte	0x9
 782 04aa C6       		.byte	0xc6
 783 04ab 54040000 		.4byte	0x454
 784 04af 08       		.byte	0x8
 785 04b0 08       		.uleb128 0x8
 786 04b1 72313100 		.ascii	"r11\000"
 787 04b5 09       		.byte	0x9
 788 04b6 C7       		.byte	0xc7
 789 04b7 54040000 		.4byte	0x454
 790 04bb 0C       		.byte	0xc
 791 04bc 08       		.uleb128 0x8
 792 04bd 723400   		.ascii	"r4\000"
 793 04c0 09       		.byte	0x9
 794 04c1 C8       		.byte	0xc8
 795 04c2 54040000 		.4byte	0x454
 796 04c6 10       		.byte	0x10
 797 04c7 08       		.uleb128 0x8
 798 04c8 723500   		.ascii	"r5\000"
ARM GAS  /var/folders/t8/16hdwfmd2fg_d3q6dgx6bpmw0000gn/T//ccop2MDO.s 			page 15


 799 04cb 09       		.byte	0x9
 800 04cc C9       		.byte	0xc9
 801 04cd 54040000 		.4byte	0x454
 802 04d1 14       		.byte	0x14
 803 04d2 08       		.uleb128 0x8
 804 04d3 723600   		.ascii	"r6\000"
 805 04d6 09       		.byte	0x9
 806 04d7 CA       		.byte	0xca
 807 04d8 54040000 		.4byte	0x454
 808 04dc 18       		.byte	0x18
 809 04dd 08       		.uleb128 0x8
 810 04de 723700   		.ascii	"r7\000"
 811 04e1 09       		.byte	0x9
 812 04e2 CB       		.byte	0xcb
 813 04e3 54040000 		.4byte	0x454
 814 04e7 1C       		.byte	0x1c
 815 04e8 08       		.uleb128 0x8
 816 04e9 6C7200   		.ascii	"lr\000"
 817 04ec 09       		.byte	0x9
 818 04ed CC       		.byte	0xcc
 819 04ee 54040000 		.4byte	0x454
 820 04f2 20       		.byte	0x20
 821 04f3 00       		.byte	0
 822 04f4 0B       		.uleb128 0xb
 823 04f5 04       		.byte	0x4
 824 04f6 82040000 		.4byte	0x482
 825 04fa 06       		.uleb128 0x6
 826 04fb 39050000 		.4byte	.LASF78
 827 04ff 20       		.byte	0x20
 828 0500 09       		.byte	0x9
 829 0501 B8       		.byte	0xb8
 830 0502 62050000 		.4byte	0x562
 831 0506 08       		.uleb128 0x8
 832 0507 723000   		.ascii	"r0\000"
 833 050a 09       		.byte	0x9
 834 050b B9       		.byte	0xb9
 835 050c 54040000 		.4byte	0x454
 836 0510 00       		.byte	0
 837 0511 08       		.uleb128 0x8
 838 0512 723100   		.ascii	"r1\000"
 839 0515 09       		.byte	0x9
 840 0516 BA       		.byte	0xba
 841 0517 54040000 		.4byte	0x454
 842 051b 04       		.byte	0x4
 843 051c 08       		.uleb128 0x8
 844 051d 723200   		.ascii	"r2\000"
 845 0520 09       		.byte	0x9
 846 0521 BB       		.byte	0xbb
 847 0522 54040000 		.4byte	0x454
 848 0526 08       		.byte	0x8
 849 0527 08       		.uleb128 0x8
 850 0528 723300   		.ascii	"r3\000"
 851 052b 09       		.byte	0x9
 852 052c BC       		.byte	0xbc
 853 052d 54040000 		.4byte	0x454
 854 0531 0C       		.byte	0xc
 855 0532 08       		.uleb128 0x8
ARM GAS  /var/folders/t8/16hdwfmd2fg_d3q6dgx6bpmw0000gn/T//ccop2MDO.s 			page 16


 856 0533 72313200 		.ascii	"r12\000"
 857 0537 09       		.byte	0x9
 858 0538 BD       		.byte	0xbd
 859 0539 54040000 		.4byte	0x454
 860 053d 10       		.byte	0x10
 861 053e 07       		.uleb128 0x7
 862 053f 21060000 		.4byte	.LASF79
 863 0543 09       		.byte	0x9
 864 0544 BE       		.byte	0xbe
 865 0545 54040000 		.4byte	0x454
 866 0549 14       		.byte	0x14
 867 054a 08       		.uleb128 0x8
 868 054b 706300   		.ascii	"pc\000"
 869 054e 09       		.byte	0x9
 870 054f BF       		.byte	0xbf
 871 0550 54040000 		.4byte	0x454
 872 0554 18       		.byte	0x18
 873 0555 07       		.uleb128 0x7
 874 0556 61050000 		.4byte	.LASF80
 875 055a 09       		.byte	0x9
 876 055b C0       		.byte	0xc0
 877 055c 54040000 		.4byte	0x454
 878 0560 1C       		.byte	0x1c
 879 0561 00       		.byte	0
 880 0562 10       		.uleb128 0x10
 881 0563 04       		.byte	0x4
 882 0564 07       		.byte	0x7
 883 0565 D2       		.byte	0xd2
 884 0566 C5050000 		.4byte	0x5c5
 885 056a 11       		.uleb128 0x11
 886 056b 0D030000 		.4byte	.LASF81
 887 056f 07       		.byte	0x7
 888 0570 D9       		.byte	0xd9
 889 0571 10010000 		.4byte	0x110
 890 0575 11       		.uleb128 0x11
 891 0576 96060000 		.4byte	.LASF82
 892 057a 07       		.byte	0x7
 893 057b E0       		.byte	0xe0
 894 057c 10010000 		.4byte	0x110
 895 0580 11       		.uleb128 0x11
 896 0581 75010000 		.4byte	.LASF83
 897 0585 07       		.byte	0x7
 898 0586 E7       		.byte	0xe7
 899 0587 1E030000 		.4byte	0x31e
 900 058b 11       		.uleb128 0x11
 901 058c 34060000 		.4byte	.LASF84
 902 0590 07       		.byte	0x7
 903 0591 EE       		.byte	0xee
 904 0592 C5050000 		.4byte	0x5c5
 905 0596 11       		.uleb128 0x11
 906 0597 09020000 		.4byte	.LASF85
 907 059b 07       		.byte	0x7
 908 059c F3       		.byte	0xf3
 909 059d 10010000 		.4byte	0x110
 910 05a1 11       		.uleb128 0x11
 911 05a2 9B050000 		.4byte	.LASF86
 912 05a6 07       		.byte	0x7
ARM GAS  /var/folders/t8/16hdwfmd2fg_d3q6dgx6bpmw0000gn/T//ccop2MDO.s 			page 17


 913 05a7 FC       		.byte	0xfc
 914 05a8 F0050000 		.4byte	0x5f0
 915 05ac 12       		.uleb128 0x12
 916 05ad 02010000 		.4byte	.LASF87
 917 05b1 07       		.byte	0x7
 918 05b2 0501     		.2byte	0x105
 919 05b4 27060000 		.4byte	0x627
 920 05b8 12       		.uleb128 0x12
 921 05b9 C0010000 		.4byte	.LASF88
 922 05bd 07       		.byte	0x7
 923 05be 0D01     		.2byte	0x10d
 924 05c0 1B010000 		.4byte	0x11b
 925 05c4 00       		.byte	0
 926 05c5 0B       		.uleb128 0xb
 927 05c6 04       		.byte	0x4
 928 05c7 36020000 		.4byte	0x236
 929 05cb 06       		.uleb128 0x6
 930 05cc 28020000 		.4byte	.LASF89
 931 05d0 0C       		.byte	0xc
 932 05d1 0A       		.byte	0xa
 933 05d2 34       		.byte	0x34
 934 05d3 F0050000 		.4byte	0x5f0
 935 05d7 07       		.uleb128 0x7
 936 05d8 8D050000 		.4byte	.LASF29
 937 05dc 0A       		.byte	0xa
 938 05dd 35       		.byte	0x35
 939 05de 6B020000 		.4byte	0x26b
 940 05e2 00       		.byte	0
 941 05e3 08       		.uleb128 0x8
 942 05e4 636E7400 		.ascii	"cnt\000"
 943 05e8 0A       		.byte	0xa
 944 05e9 37       		.byte	0x37
 945 05ea 26010000 		.4byte	0x126
 946 05ee 08       		.byte	0x8
 947 05ef 00       		.byte	0
 948 05f0 0B       		.uleb128 0xb
 949 05f1 04       		.byte	0x4
 950 05f2 CB050000 		.4byte	0x5cb
 951 05f6 06       		.uleb128 0x6
 952 05f7 22030000 		.4byte	.LASF90
 953 05fb 10       		.byte	0x10
 954 05fc 0B       		.byte	0xb
 955 05fd 39       		.byte	0x39
 956 05fe 27060000 		.4byte	0x627
 957 0602 07       		.uleb128 0x7
 958 0603 8D050000 		.4byte	.LASF29
 959 0607 0B       		.byte	0xb
 960 0608 3A       		.byte	0x3a
 961 0609 6B020000 		.4byte	0x26b
 962 060d 00       		.byte	0
 963 060e 07       		.uleb128 0x7
 964 060f AC020000 		.4byte	.LASF91
 965 0613 0B       		.byte	0xb
 966 0614 3C       		.byte	0x3c
 967 0615 41020000 		.4byte	0x241
 968 0619 08       		.byte	0x8
 969 061a 07       		.uleb128 0x7
ARM GAS  /var/folders/t8/16hdwfmd2fg_d3q6dgx6bpmw0000gn/T//ccop2MDO.s 			page 18


 970 061b 41010000 		.4byte	.LASF49
 971 061f 0B       		.byte	0xb
 972 0620 3E       		.byte	0x3e
 973 0621 89070000 		.4byte	0x789
 974 0625 0C       		.byte	0xc
 975 0626 00       		.byte	0
 976 0627 0B       		.uleb128 0xb
 977 0628 04       		.byte	0x4
 978 0629 F6050000 		.4byte	0x5f6
 979 062d 0B       		.uleb128 0xb
 980 062e 04       		.byte	0x4
 981 062f 3F060000 		.4byte	0x63f
 982 0633 05       		.uleb128 0x5
 983 0634 2D060000 		.4byte	0x62d
 984 0638 03       		.uleb128 0x3
 985 0639 01       		.byte	0x1
 986 063a 08       		.byte	0x8
 987 063b 4D030000 		.4byte	.LASF92
 988 063f 13       		.uleb128 0x13
 989 0640 38060000 		.4byte	0x638
 990 0644 0B       		.uleb128 0xb
 991 0645 04       		.byte	0x4
 992 0646 5F040000 		.4byte	0x45f
 993 064a 0B       		.uleb128 0xb
 994 064b 04       		.byte	0x4
 995 064c 20030000 		.4byte	0x320
 996 0650 14       		.uleb128 0x14
 997 0651 636800   		.ascii	"ch\000"
 998 0654 07       		.byte	0x7
 999 0655 D201     		.2byte	0x1d2
 1000 0657 07040000 		.4byte	0x407
 1001 065b 15       		.uleb128 0x15
 1002 065c 5F040000 		.4byte	0x45f
 1003 0660 66060000 		.4byte	0x666
 1004 0664 16       		.uleb128 0x16
 1005 0665 00       		.byte	0
 1006 0666 17       		.uleb128 0x17
 1007 0667 6C030000 		.4byte	.LASF93
 1008 066b 0D       		.byte	0xd
 1009 066c 2B01     		.2byte	0x12b
 1010 066e 5B060000 		.4byte	0x65b
 1011 0672 18       		.uleb128 0x18
 1012 0673 16       		.byte	0x16
 1013 0674 0C       		.byte	0xc
 1014 0675 34       		.byte	0x34
 1015 0676 53070000 		.4byte	0x753
 1016 067a 07       		.uleb128 0x7
 1017 067b 4A050000 		.4byte	.LASF94
 1018 067f 0C       		.byte	0xc
 1019 0680 35       		.byte	0x35
 1020 0681 53070000 		.4byte	0x753
 1021 0685 00       		.byte	0
 1022 0686 07       		.uleb128 0x7
 1023 0687 C8030000 		.4byte	.LASF95
 1024 068b 0C       		.byte	0xc
 1025 068c 36       		.byte	0x36
 1026 068d A2000000 		.4byte	0xa2
ARM GAS  /var/folders/t8/16hdwfmd2fg_d3q6dgx6bpmw0000gn/T//ccop2MDO.s 			page 19


 1027 0691 04       		.byte	0x4
 1028 0692 07       		.uleb128 0x7
 1029 0693 E3030000 		.4byte	.LASF96
 1030 0697 0C       		.byte	0xc
 1031 0698 37       		.byte	0x37
 1032 0699 A2000000 		.4byte	0xa2
 1033 069d 05       		.byte	0x5
 1034 069e 07       		.uleb128 0x7
 1035 069f 46010000 		.4byte	.LASF97
 1036 06a3 0C       		.byte	0xc
 1037 06a4 38       		.byte	0x38
 1038 06a5 AD000000 		.4byte	0xad
 1039 06a9 06       		.byte	0x6
 1040 06aa 07       		.uleb128 0x7
 1041 06ab E8030000 		.4byte	.LASF98
 1042 06af 0C       		.byte	0xc
 1043 06b0 39       		.byte	0x39
 1044 06b1 A2000000 		.4byte	0xa2
 1045 06b5 08       		.byte	0x8
 1046 06b6 07       		.uleb128 0x7
 1047 06b7 10000000 		.4byte	.LASF99
 1048 06bb 0C       		.byte	0xc
 1049 06bc 3A       		.byte	0x3a
 1050 06bd A2000000 		.4byte	0xa2
 1051 06c1 09       		.byte	0x9
 1052 06c2 07       		.uleb128 0x7
 1053 06c3 1D020000 		.4byte	.LASF100
 1054 06c7 0C       		.byte	0xc
 1055 06c8 3B       		.byte	0x3b
 1056 06c9 A2000000 		.4byte	0xa2
 1057 06cd 0A       		.byte	0xa
 1058 06ce 07       		.uleb128 0x7
 1059 06cf 79040000 		.4byte	.LASF101
 1060 06d3 0C       		.byte	0xc
 1061 06d4 3C       		.byte	0x3c
 1062 06d5 A2000000 		.4byte	0xa2
 1063 06d9 0B       		.byte	0xb
 1064 06da 07       		.uleb128 0x7
 1065 06db 36030000 		.4byte	.LASF102
 1066 06df 0C       		.byte	0xc
 1067 06e0 3D       		.byte	0x3d
 1068 06e1 A2000000 		.4byte	0xa2
 1069 06e5 0C       		.byte	0xc
 1070 06e6 07       		.uleb128 0x7
 1071 06e7 DD010000 		.4byte	.LASF103
 1072 06eb 0C       		.byte	0xc
 1073 06ec 3E       		.byte	0x3e
 1074 06ed A2000000 		.4byte	0xa2
 1075 06f1 0D       		.byte	0xd
 1076 06f2 07       		.uleb128 0x7
 1077 06f3 F9020000 		.4byte	.LASF104
 1078 06f7 0C       		.byte	0xc
 1079 06f8 3F       		.byte	0x3f
 1080 06f9 A2000000 		.4byte	0xa2
 1081 06fd 0E       		.byte	0xe
 1082 06fe 07       		.uleb128 0x7
 1083 06ff A2030000 		.4byte	.LASF105
ARM GAS  /var/folders/t8/16hdwfmd2fg_d3q6dgx6bpmw0000gn/T//ccop2MDO.s 			page 20


 1084 0703 0C       		.byte	0xc
 1085 0704 40       		.byte	0x40
 1086 0705 A2000000 		.4byte	0xa2
 1087 0709 0F       		.byte	0xf
 1088 070a 07       		.uleb128 0x7
 1089 070b 97020000 		.4byte	.LASF106
 1090 070f 0C       		.byte	0xc
 1091 0710 41       		.byte	0x41
 1092 0711 A2000000 		.4byte	0xa2
 1093 0715 10       		.byte	0x10
 1094 0716 07       		.uleb128 0x7
 1095 0717 03030000 		.4byte	.LASF107
 1096 071b 0C       		.byte	0xc
 1097 071c 42       		.byte	0x42
 1098 071d A2000000 		.4byte	0xa2
 1099 0721 11       		.byte	0x11
 1100 0722 07       		.uleb128 0x7
 1101 0723 3E030000 		.4byte	.LASF108
 1102 0727 0C       		.byte	0xc
 1103 0728 43       		.byte	0x43
 1104 0729 A2000000 		.4byte	0xa2
 1105 072d 12       		.byte	0x12
 1106 072e 07       		.uleb128 0x7
 1107 072f 6A060000 		.4byte	.LASF109
 1108 0733 0C       		.byte	0xc
 1109 0734 44       		.byte	0x44
 1110 0735 A2000000 		.4byte	0xa2
 1111 0739 13       		.byte	0x13
 1112 073a 07       		.uleb128 0x7
 1113 073b 55050000 		.4byte	.LASF110
 1114 073f 0C       		.byte	0xc
 1115 0740 45       		.byte	0x45
 1116 0741 A2000000 		.4byte	0xa2
 1117 0745 14       		.byte	0x14
 1118 0746 07       		.uleb128 0x7
 1119 0747 6C010000 		.4byte	.LASF111
 1120 074b 0C       		.byte	0xc
 1121 074c 46       		.byte	0x46
 1122 074d A2000000 		.4byte	0xa2
 1123 0751 15       		.byte	0x15
 1124 0752 00       		.byte	0
 1125 0753 15       		.uleb128 0x15
 1126 0754 38060000 		.4byte	0x638
 1127 0758 63070000 		.4byte	0x763
 1128 075c 19       		.uleb128 0x19
 1129 075d 2C000000 		.4byte	0x2c
 1130 0761 03       		.byte	0x3
 1131 0762 00       		.byte	0
 1132 0763 04       		.uleb128 0x4
 1133 0764 6F040000 		.4byte	.LASF112
 1134 0768 0C       		.byte	0xc
 1135 0769 47       		.byte	0x47
 1136 076a 72060000 		.4byte	0x672
 1137 076e 13       		.uleb128 0x13
 1138 076f 63070000 		.4byte	0x763
 1139 0773 1A       		.uleb128 0x1a
 1140 0774 7B060000 		.4byte	.LASF113
ARM GAS  /var/folders/t8/16hdwfmd2fg_d3q6dgx6bpmw0000gn/T//ccop2MDO.s 			page 21


 1141 0778 0C       		.byte	0xc
 1142 0779 6C       		.byte	0x6c
 1143 077a 6E070000 		.4byte	0x76e
 1144 077e 04       		.uleb128 0x4
 1145 077f A2050000 		.4byte	.LASF114
 1146 0783 0B       		.byte	0xb
 1147 0784 34       		.byte	0x34
 1148 0785 F6050000 		.4byte	0x5f6
 1149 0789 0B       		.uleb128 0xb
 1150 078a 04       		.byte	0x4
 1151 078b 7E070000 		.4byte	0x77e
 1152 078f 1B       		.uleb128 0x1b
 1153 0790 FC050000 		.4byte	.LASF115
 1154 0794 01       		.byte	0x1
 1155 0795 6E       		.byte	0x6e
 1156 0796 00000000 		.4byte	.LFB139
 1157 079a 38000000 		.4byte	.LFE139-.LFB139
 1158 079e 01       		.uleb128 0x1
 1159 079f 9C       		.byte	0x9c
 1160 07a0 46080000 		.4byte	0x846
 1161 07a4 1C       		.uleb128 0x1c
 1162 07a5 6C7200   		.ascii	"lr\000"
 1163 07a8 01       		.byte	0x1
 1164 07a9 6E       		.byte	0x6e
 1165 07aa 54040000 		.4byte	0x454
 1166 07ae 00000000 		.4byte	.LLST2
 1167 07b2 1D       		.uleb128 0x1d
 1168 07b3 00000000 		.4byte	.Ldebug_ranges0+0
 1169 07b7 1E       		.uleb128 0x1e
 1170 07b8 E7040000 		.4byte	.LASF117
 1171 07bc 01       		.byte	0x1
 1172 07bd 71       		.byte	0x71
 1173 07be 46080000 		.4byte	0x846
 1174 07c2 13000000 		.4byte	.LLST3
 1175 07c6 1F       		.uleb128 0x1f
 1176 07c7 EB080000 		.4byte	0x8eb
 1177 07cb 08000000 		.4byte	.LBB51
 1178 07cf 02000000 		.4byte	.LBE51-.LBB51
 1179 07d3 01       		.byte	0x1
 1180 07d4 73       		.byte	0x73
 1181 07d5 FB070000 		.4byte	0x7fb
 1182 07d9 20       		.uleb128 0x20
 1183 07da FD080000 		.4byte	0x8fd
 1184 07de 08000000 		.4byte	.LBB52
 1185 07e2 02000000 		.4byte	.LBE52-.LBB52
 1186 07e6 09       		.byte	0x9
 1187 07e7 8801     		.2byte	0x188
 1188 07e9 21       		.uleb128 0x21
 1189 07ea 3A090000 		.4byte	0x93a
 1190 07ee 08000000 		.4byte	.LBB53
 1191 07f2 02000000 		.4byte	.LBE53-.LBB53
 1192 07f6 09       		.byte	0x9
 1193 07f7 7501     		.2byte	0x175
 1194 07f9 00       		.byte	0
 1195 07fa 00       		.byte	0
 1196 07fb 1F       		.uleb128 0x1f
 1197 07fc 1E090000 		.4byte	0x91e
ARM GAS  /var/folders/t8/16hdwfmd2fg_d3q6dgx6bpmw0000gn/T//ccop2MDO.s 			page 22


 1198 0800 0A000000 		.4byte	.LBB55
 1199 0804 04000000 		.4byte	.LBE55-.LBB55
 1200 0808 01       		.byte	0x1
 1201 0809 76       		.byte	0x76
 1202 080a 1E080000 		.4byte	0x81e
 1203 080e 22       		.uleb128 0x22
 1204 080f 0A000000 		.4byte	.LBB56
 1205 0813 04000000 		.4byte	.LBE56-.LBB56
 1206 0817 23       		.uleb128 0x23
 1207 0818 2E090000 		.4byte	0x92e
 1208 081c 00       		.byte	0
 1209 081d 00       		.byte	0
 1210 081e 1F       		.uleb128 0x1f
 1211 081f 06090000 		.4byte	0x906
 1212 0823 10000000 		.4byte	.LBB57
 1213 0827 04000000 		.4byte	.LBE57-.LBB57
 1214 082b 01       		.byte	0x1
 1215 082c 7D       		.byte	0x7d
 1216 082d 3B080000 		.4byte	0x83b
 1217 0831 24       		.uleb128 0x24
 1218 0832 12090000 		.4byte	0x912
 1219 0836 3E000000 		.4byte	.LLST4
 1220 083a 00       		.byte	0
 1221 083b 25       		.uleb128 0x25
 1222 083c 1E000000 		.4byte	.LVL8
 1223 0840 4A090000 		.4byte	0x94a
 1224 0844 00       		.byte	0
 1225 0845 00       		.byte	0
 1226 0846 0B       		.uleb128 0xb
 1227 0847 04       		.byte	0x4
 1228 0848 FA040000 		.4byte	0x4fa
 1229 084c 1B       		.uleb128 0x1b
 1230 084d 0F060000 		.4byte	.LASF116
 1231 0851 01       		.byte	0x1
 1232 0852 3D       		.byte	0x3d
 1233 0853 00000000 		.4byte	.LFB138
 1234 0857 14000000 		.4byte	.LFE138-.LFB138
 1235 085b 01       		.uleb128 0x1
 1236 085c 9C       		.byte	0x9c
 1237 085d E2080000 		.4byte	0x8e2
 1238 0861 1E       		.uleb128 0x1e
 1239 0862 E7040000 		.4byte	.LASF117
 1240 0866 01       		.byte	0x1
 1241 0867 41       		.byte	0x41
 1242 0868 46080000 		.4byte	0x846
 1243 086c 5E000000 		.4byte	.LLST0
 1244 0870 1F       		.uleb128 0x1f
 1245 0871 1E090000 		.4byte	0x91e
 1246 0875 04000000 		.4byte	.LBB42
 1247 0879 04000000 		.4byte	.LBE42-.LBB42
 1248 087d 01       		.byte	0x1
 1249 087e 41       		.byte	0x41
 1250 087f 93080000 		.4byte	0x893
 1251 0883 22       		.uleb128 0x22
 1252 0884 04000000 		.4byte	.LBB43
 1253 0888 04000000 		.4byte	.LBE43-.LBB43
 1254 088c 23       		.uleb128 0x23
ARM GAS  /var/folders/t8/16hdwfmd2fg_d3q6dgx6bpmw0000gn/T//ccop2MDO.s 			page 23


 1255 088d 2E090000 		.4byte	0x92e
 1256 0891 00       		.byte	0
 1257 0892 00       		.byte	0
 1258 0893 1F       		.uleb128 0x1f
 1259 0894 06090000 		.4byte	0x906
 1260 0898 0A000000 		.4byte	.LBB44
 1261 089c 04000000 		.4byte	.LBE44-.LBB44
 1262 08a0 01       		.byte	0x1
 1263 08a1 48       		.byte	0x48
 1264 08a2 B0080000 		.4byte	0x8b0
 1265 08a6 24       		.uleb128 0x24
 1266 08a7 12090000 		.4byte	0x912
 1267 08ab 7E000000 		.4byte	.LLST1
 1268 08af 00       		.byte	0
 1269 08b0 26       		.uleb128 0x26
 1270 08b1 E2080000 		.4byte	0x8e2
 1271 08b5 0E000000 		.4byte	.LBB46
 1272 08b9 02000000 		.4byte	.LBE46-.LBB46
 1273 08bd 01       		.byte	0x1
 1274 08be 4B       		.byte	0x4b
 1275 08bf 20       		.uleb128 0x20
 1276 08c0 F4080000 		.4byte	0x8f4
 1277 08c4 0E000000 		.4byte	.LBB47
 1278 08c8 02000000 		.4byte	.LBE47-.LBB47
 1279 08cc 09       		.byte	0x9
 1280 08cd 9201     		.2byte	0x192
 1281 08cf 21       		.uleb128 0x21
 1282 08d0 42090000 		.4byte	0x942
 1283 08d4 0E000000 		.4byte	.LBB48
 1284 08d8 02000000 		.4byte	.LBE48-.LBB48
 1285 08dc 09       		.byte	0x9
 1286 08dd 7E01     		.2byte	0x17e
 1287 08df 00       		.byte	0
 1288 08e0 00       		.byte	0
 1289 08e1 00       		.byte	0
 1290 08e2 27       		.uleb128 0x27
 1291 08e3 B0050000 		.4byte	.LASF118
 1292 08e7 09       		.byte	0x9
 1293 08e8 9001     		.2byte	0x190
 1294 08ea 03       		.byte	0x3
 1295 08eb 27       		.uleb128 0x27
 1296 08ec 9A010000 		.4byte	.LASF119
 1297 08f0 09       		.byte	0x9
 1298 08f1 8601     		.2byte	0x186
 1299 08f3 03       		.byte	0x3
 1300 08f4 27       		.uleb128 0x27
 1301 08f5 84060000 		.4byte	.LASF120
 1302 08f9 09       		.byte	0x9
 1303 08fa 7C01     		.2byte	0x17c
 1304 08fc 03       		.byte	0x3
 1305 08fd 27       		.uleb128 0x27
 1306 08fe 7C010000 		.4byte	.LASF121
 1307 0902 09       		.byte	0x9
 1308 0903 7301     		.2byte	0x173
 1309 0905 03       		.byte	0x3
 1310 0906 28       		.uleb128 0x28
 1311 0907 8B040000 		.4byte	.LASF127
ARM GAS  /var/folders/t8/16hdwfmd2fg_d3q6dgx6bpmw0000gn/T//ccop2MDO.s 			page 24


 1312 090b 02       		.byte	0x2
 1313 090c A2       		.byte	0xa2
 1314 090d 03       		.byte	0x3
 1315 090e 1E090000 		.4byte	0x91e
 1316 0912 29       		.uleb128 0x29
 1317 0913 C2020000 		.4byte	.LASF128
 1318 0917 02       		.byte	0x2
 1319 0918 A2       		.byte	0xa2
 1320 0919 C3000000 		.4byte	0xc3
 1321 091d 00       		.byte	0
 1322 091e 2A       		.uleb128 0x2a
 1323 091f A5060000 		.4byte	.LASF129
 1324 0923 02       		.byte	0x2
 1325 0924 94       		.byte	0x94
 1326 0925 C3000000 		.4byte	0xc3
 1327 0929 03       		.byte	0x3
 1328 092a 3A090000 		.4byte	0x93a
 1329 092e 2B       		.uleb128 0x2b
 1330 092f 4E020000 		.4byte	.LASF130
 1331 0933 02       		.byte	0x2
 1332 0934 96       		.byte	0x96
 1333 0935 C3000000 		.4byte	0xc3
 1334 0939 00       		.byte	0
 1335 093a 2C       		.uleb128 0x2c
 1336 093b 14030000 		.4byte	.LASF122
 1337 093f 02       		.byte	0x2
 1338 0940 45       		.byte	0x45
 1339 0941 03       		.byte	0x3
 1340 0942 2C       		.uleb128 0x2c
 1341 0943 09050000 		.4byte	.LASF123
 1342 0947 02       		.byte	0x2
 1343 0948 3A       		.byte	0x3a
 1344 0949 03       		.byte	0x3
 1345 094a 2D       		.uleb128 0x2d
 1346 094b 6C020000 		.4byte	.LASF131
 1347 094f 6C020000 		.4byte	.LASF131
 1348 0953 07       		.byte	0x7
 1349 0954 E201     		.2byte	0x1e2
 1350 0956 00       		.byte	0
 1351              		.section	.debug_abbrev,"",%progbits
 1352              	.Ldebug_abbrev0:
 1353 0000 01       		.uleb128 0x1
 1354 0001 11       		.uleb128 0x11
 1355 0002 01       		.byte	0x1
 1356 0003 25       		.uleb128 0x25
 1357 0004 0E       		.uleb128 0xe
 1358 0005 13       		.uleb128 0x13
 1359 0006 0B       		.uleb128 0xb
 1360 0007 03       		.uleb128 0x3
 1361 0008 0E       		.uleb128 0xe
 1362 0009 1B       		.uleb128 0x1b
 1363 000a 0E       		.uleb128 0xe
 1364 000b 55       		.uleb128 0x55
 1365 000c 17       		.uleb128 0x17
 1366 000d 11       		.uleb128 0x11
 1367 000e 01       		.uleb128 0x1
 1368 000f 10       		.uleb128 0x10
ARM GAS  /var/folders/t8/16hdwfmd2fg_d3q6dgx6bpmw0000gn/T//ccop2MDO.s 			page 25


 1369 0010 17       		.uleb128 0x17
 1370 0011 00       		.byte	0
 1371 0012 00       		.byte	0
 1372 0013 02       		.uleb128 0x2
 1373 0014 24       		.uleb128 0x24
 1374 0015 00       		.byte	0
 1375 0016 0B       		.uleb128 0xb
 1376 0017 0B       		.uleb128 0xb
 1377 0018 3E       		.uleb128 0x3e
 1378 0019 0B       		.uleb128 0xb
 1379 001a 03       		.uleb128 0x3
 1380 001b 08       		.uleb128 0x8
 1381 001c 00       		.byte	0
 1382 001d 00       		.byte	0
 1383 001e 03       		.uleb128 0x3
 1384 001f 24       		.uleb128 0x24
 1385 0020 00       		.byte	0
 1386 0021 0B       		.uleb128 0xb
 1387 0022 0B       		.uleb128 0xb
 1388 0023 3E       		.uleb128 0x3e
 1389 0024 0B       		.uleb128 0xb
 1390 0025 03       		.uleb128 0x3
 1391 0026 0E       		.uleb128 0xe
 1392 0027 00       		.byte	0
 1393 0028 00       		.byte	0
 1394 0029 04       		.uleb128 0x4
 1395 002a 16       		.uleb128 0x16
 1396 002b 00       		.byte	0
 1397 002c 03       		.uleb128 0x3
 1398 002d 0E       		.uleb128 0xe
 1399 002e 3A       		.uleb128 0x3a
 1400 002f 0B       		.uleb128 0xb
 1401 0030 3B       		.uleb128 0x3b
 1402 0031 0B       		.uleb128 0xb
 1403 0032 49       		.uleb128 0x49
 1404 0033 13       		.uleb128 0x13
 1405 0034 00       		.byte	0
 1406 0035 00       		.byte	0
 1407 0036 05       		.uleb128 0x5
 1408 0037 35       		.uleb128 0x35
 1409 0038 00       		.byte	0
 1410 0039 49       		.uleb128 0x49
 1411 003a 13       		.uleb128 0x13
 1412 003b 00       		.byte	0
 1413 003c 00       		.byte	0
 1414 003d 06       		.uleb128 0x6
 1415 003e 13       		.uleb128 0x13
 1416 003f 01       		.byte	0x1
 1417 0040 03       		.uleb128 0x3
 1418 0041 0E       		.uleb128 0xe
 1419 0042 0B       		.uleb128 0xb
 1420 0043 0B       		.uleb128 0xb
 1421 0044 3A       		.uleb128 0x3a
 1422 0045 0B       		.uleb128 0xb
 1423 0046 3B       		.uleb128 0x3b
 1424 0047 0B       		.uleb128 0xb
 1425 0048 01       		.uleb128 0x1
ARM GAS  /var/folders/t8/16hdwfmd2fg_d3q6dgx6bpmw0000gn/T//ccop2MDO.s 			page 26


 1426 0049 13       		.uleb128 0x13
 1427 004a 00       		.byte	0
 1428 004b 00       		.byte	0
 1429 004c 07       		.uleb128 0x7
 1430 004d 0D       		.uleb128 0xd
 1431 004e 00       		.byte	0
 1432 004f 03       		.uleb128 0x3
 1433 0050 0E       		.uleb128 0xe
 1434 0051 3A       		.uleb128 0x3a
 1435 0052 0B       		.uleb128 0xb
 1436 0053 3B       		.uleb128 0x3b
 1437 0054 0B       		.uleb128 0xb
 1438 0055 49       		.uleb128 0x49
 1439 0056 13       		.uleb128 0x13
 1440 0057 38       		.uleb128 0x38
 1441 0058 0B       		.uleb128 0xb
 1442 0059 00       		.byte	0
 1443 005a 00       		.byte	0
 1444 005b 08       		.uleb128 0x8
 1445 005c 0D       		.uleb128 0xd
 1446 005d 00       		.byte	0
 1447 005e 03       		.uleb128 0x3
 1448 005f 08       		.uleb128 0x8
 1449 0060 3A       		.uleb128 0x3a
 1450 0061 0B       		.uleb128 0xb
 1451 0062 3B       		.uleb128 0x3b
 1452 0063 0B       		.uleb128 0xb
 1453 0064 49       		.uleb128 0x49
 1454 0065 13       		.uleb128 0x13
 1455 0066 38       		.uleb128 0x38
 1456 0067 0B       		.uleb128 0xb
 1457 0068 00       		.byte	0
 1458 0069 00       		.byte	0
 1459 006a 09       		.uleb128 0x9
 1460 006b 0D       		.uleb128 0xd
 1461 006c 00       		.byte	0
 1462 006d 03       		.uleb128 0x3
 1463 006e 08       		.uleb128 0x8
 1464 006f 3A       		.uleb128 0x3a
 1465 0070 0B       		.uleb128 0xb
 1466 0071 3B       		.uleb128 0x3b
 1467 0072 05       		.uleb128 0x5
 1468 0073 49       		.uleb128 0x49
 1469 0074 13       		.uleb128 0x13
 1470 0075 38       		.uleb128 0x38
 1471 0076 0B       		.uleb128 0xb
 1472 0077 00       		.byte	0
 1473 0078 00       		.byte	0
 1474 0079 0A       		.uleb128 0xa
 1475 007a 0D       		.uleb128 0xd
 1476 007b 00       		.byte	0
 1477 007c 03       		.uleb128 0x3
 1478 007d 0E       		.uleb128 0xe
 1479 007e 3A       		.uleb128 0x3a
 1480 007f 0B       		.uleb128 0xb
 1481 0080 3B       		.uleb128 0x3b
 1482 0081 05       		.uleb128 0x5
ARM GAS  /var/folders/t8/16hdwfmd2fg_d3q6dgx6bpmw0000gn/T//ccop2MDO.s 			page 27


 1483 0082 49       		.uleb128 0x49
 1484 0083 13       		.uleb128 0x13
 1485 0084 38       		.uleb128 0x38
 1486 0085 0B       		.uleb128 0xb
 1487 0086 00       		.byte	0
 1488 0087 00       		.byte	0
 1489 0088 0B       		.uleb128 0xb
 1490 0089 0F       		.uleb128 0xf
 1491 008a 00       		.byte	0
 1492 008b 0B       		.uleb128 0xb
 1493 008c 0B       		.uleb128 0xb
 1494 008d 49       		.uleb128 0x49
 1495 008e 13       		.uleb128 0x13
 1496 008f 00       		.byte	0
 1497 0090 00       		.byte	0
 1498 0091 0C       		.uleb128 0xc
 1499 0092 13       		.uleb128 0x13
 1500 0093 01       		.byte	0x1
 1501 0094 03       		.uleb128 0x3
 1502 0095 0E       		.uleb128 0xe
 1503 0096 0B       		.uleb128 0xb
 1504 0097 0B       		.uleb128 0xb
 1505 0098 3A       		.uleb128 0x3a
 1506 0099 0B       		.uleb128 0xb
 1507 009a 3B       		.uleb128 0x3b
 1508 009b 05       		.uleb128 0x5
 1509 009c 01       		.uleb128 0x1
 1510 009d 13       		.uleb128 0x13
 1511 009e 00       		.byte	0
 1512 009f 00       		.byte	0
 1513 00a0 0D       		.uleb128 0xd
 1514 00a1 15       		.uleb128 0x15
 1515 00a2 01       		.byte	0x1
 1516 00a3 27       		.uleb128 0x27
 1517 00a4 19       		.uleb128 0x19
 1518 00a5 01       		.uleb128 0x1
 1519 00a6 13       		.uleb128 0x13
 1520 00a7 00       		.byte	0
 1521 00a8 00       		.byte	0
 1522 00a9 0E       		.uleb128 0xe
 1523 00aa 05       		.uleb128 0x5
 1524 00ab 00       		.byte	0
 1525 00ac 49       		.uleb128 0x49
 1526 00ad 13       		.uleb128 0x13
 1527 00ae 00       		.byte	0
 1528 00af 00       		.byte	0
 1529 00b0 0F       		.uleb128 0xf
 1530 00b1 0F       		.uleb128 0xf
 1531 00b2 00       		.byte	0
 1532 00b3 0B       		.uleb128 0xb
 1533 00b4 0B       		.uleb128 0xb
 1534 00b5 00       		.byte	0
 1535 00b6 00       		.byte	0
 1536 00b7 10       		.uleb128 0x10
 1537 00b8 17       		.uleb128 0x17
 1538 00b9 01       		.byte	0x1
 1539 00ba 0B       		.uleb128 0xb
ARM GAS  /var/folders/t8/16hdwfmd2fg_d3q6dgx6bpmw0000gn/T//ccop2MDO.s 			page 28


 1540 00bb 0B       		.uleb128 0xb
 1541 00bc 3A       		.uleb128 0x3a
 1542 00bd 0B       		.uleb128 0xb
 1543 00be 3B       		.uleb128 0x3b
 1544 00bf 0B       		.uleb128 0xb
 1545 00c0 01       		.uleb128 0x1
 1546 00c1 13       		.uleb128 0x13
 1547 00c2 00       		.byte	0
 1548 00c3 00       		.byte	0
 1549 00c4 11       		.uleb128 0x11
 1550 00c5 0D       		.uleb128 0xd
 1551 00c6 00       		.byte	0
 1552 00c7 03       		.uleb128 0x3
 1553 00c8 0E       		.uleb128 0xe
 1554 00c9 3A       		.uleb128 0x3a
 1555 00ca 0B       		.uleb128 0xb
 1556 00cb 3B       		.uleb128 0x3b
 1557 00cc 0B       		.uleb128 0xb
 1558 00cd 49       		.uleb128 0x49
 1559 00ce 13       		.uleb128 0x13
 1560 00cf 00       		.byte	0
 1561 00d0 00       		.byte	0
 1562 00d1 12       		.uleb128 0x12
 1563 00d2 0D       		.uleb128 0xd
 1564 00d3 00       		.byte	0
 1565 00d4 03       		.uleb128 0x3
 1566 00d5 0E       		.uleb128 0xe
 1567 00d6 3A       		.uleb128 0x3a
 1568 00d7 0B       		.uleb128 0xb
 1569 00d8 3B       		.uleb128 0x3b
 1570 00d9 05       		.uleb128 0x5
 1571 00da 49       		.uleb128 0x49
 1572 00db 13       		.uleb128 0x13
 1573 00dc 00       		.byte	0
 1574 00dd 00       		.byte	0
 1575 00de 13       		.uleb128 0x13
 1576 00df 26       		.uleb128 0x26
 1577 00e0 00       		.byte	0
 1578 00e1 49       		.uleb128 0x49
 1579 00e2 13       		.uleb128 0x13
 1580 00e3 00       		.byte	0
 1581 00e4 00       		.byte	0
 1582 00e5 14       		.uleb128 0x14
 1583 00e6 34       		.uleb128 0x34
 1584 00e7 00       		.byte	0
 1585 00e8 03       		.uleb128 0x3
 1586 00e9 08       		.uleb128 0x8
 1587 00ea 3A       		.uleb128 0x3a
 1588 00eb 0B       		.uleb128 0xb
 1589 00ec 3B       		.uleb128 0x3b
 1590 00ed 05       		.uleb128 0x5
 1591 00ee 49       		.uleb128 0x49
 1592 00ef 13       		.uleb128 0x13
 1593 00f0 3F       		.uleb128 0x3f
 1594 00f1 19       		.uleb128 0x19
 1595 00f2 3C       		.uleb128 0x3c
 1596 00f3 19       		.uleb128 0x19
ARM GAS  /var/folders/t8/16hdwfmd2fg_d3q6dgx6bpmw0000gn/T//ccop2MDO.s 			page 29


 1597 00f4 00       		.byte	0
 1598 00f5 00       		.byte	0
 1599 00f6 15       		.uleb128 0x15
 1600 00f7 01       		.uleb128 0x1
 1601 00f8 01       		.byte	0x1
 1602 00f9 49       		.uleb128 0x49
 1603 00fa 13       		.uleb128 0x13
 1604 00fb 01       		.uleb128 0x1
 1605 00fc 13       		.uleb128 0x13
 1606 00fd 00       		.byte	0
 1607 00fe 00       		.byte	0
 1608 00ff 16       		.uleb128 0x16
 1609 0100 21       		.uleb128 0x21
 1610 0101 00       		.byte	0
 1611 0102 00       		.byte	0
 1612 0103 00       		.byte	0
 1613 0104 17       		.uleb128 0x17
 1614 0105 34       		.uleb128 0x34
 1615 0106 00       		.byte	0
 1616 0107 03       		.uleb128 0x3
 1617 0108 0E       		.uleb128 0xe
 1618 0109 3A       		.uleb128 0x3a
 1619 010a 0B       		.uleb128 0xb
 1620 010b 3B       		.uleb128 0x3b
 1621 010c 05       		.uleb128 0x5
 1622 010d 49       		.uleb128 0x49
 1623 010e 13       		.uleb128 0x13
 1624 010f 3F       		.uleb128 0x3f
 1625 0110 19       		.uleb128 0x19
 1626 0111 3C       		.uleb128 0x3c
 1627 0112 19       		.uleb128 0x19
 1628 0113 00       		.byte	0
 1629 0114 00       		.byte	0
 1630 0115 18       		.uleb128 0x18
 1631 0116 13       		.uleb128 0x13
 1632 0117 01       		.byte	0x1
 1633 0118 0B       		.uleb128 0xb
 1634 0119 0B       		.uleb128 0xb
 1635 011a 3A       		.uleb128 0x3a
 1636 011b 0B       		.uleb128 0xb
 1637 011c 3B       		.uleb128 0x3b
 1638 011d 0B       		.uleb128 0xb
 1639 011e 01       		.uleb128 0x1
 1640 011f 13       		.uleb128 0x13
 1641 0120 00       		.byte	0
 1642 0121 00       		.byte	0
 1643 0122 19       		.uleb128 0x19
 1644 0123 21       		.uleb128 0x21
 1645 0124 00       		.byte	0
 1646 0125 49       		.uleb128 0x49
 1647 0126 13       		.uleb128 0x13
 1648 0127 2F       		.uleb128 0x2f
 1649 0128 0B       		.uleb128 0xb
 1650 0129 00       		.byte	0
 1651 012a 00       		.byte	0
 1652 012b 1A       		.uleb128 0x1a
 1653 012c 34       		.uleb128 0x34
ARM GAS  /var/folders/t8/16hdwfmd2fg_d3q6dgx6bpmw0000gn/T//ccop2MDO.s 			page 30


 1654 012d 00       		.byte	0
 1655 012e 03       		.uleb128 0x3
 1656 012f 0E       		.uleb128 0xe
 1657 0130 3A       		.uleb128 0x3a
 1658 0131 0B       		.uleb128 0xb
 1659 0132 3B       		.uleb128 0x3b
 1660 0133 0B       		.uleb128 0xb
 1661 0134 49       		.uleb128 0x49
 1662 0135 13       		.uleb128 0x13
 1663 0136 3F       		.uleb128 0x3f
 1664 0137 19       		.uleb128 0x19
 1665 0138 3C       		.uleb128 0x3c
 1666 0139 19       		.uleb128 0x19
 1667 013a 00       		.byte	0
 1668 013b 00       		.byte	0
 1669 013c 1B       		.uleb128 0x1b
 1670 013d 2E       		.uleb128 0x2e
 1671 013e 01       		.byte	0x1
 1672 013f 3F       		.uleb128 0x3f
 1673 0140 19       		.uleb128 0x19
 1674 0141 03       		.uleb128 0x3
 1675 0142 0E       		.uleb128 0xe
 1676 0143 3A       		.uleb128 0x3a
 1677 0144 0B       		.uleb128 0xb
 1678 0145 3B       		.uleb128 0x3b
 1679 0146 0B       		.uleb128 0xb
 1680 0147 27       		.uleb128 0x27
 1681 0148 19       		.uleb128 0x19
 1682 0149 11       		.uleb128 0x11
 1683 014a 01       		.uleb128 0x1
 1684 014b 12       		.uleb128 0x12
 1685 014c 06       		.uleb128 0x6
 1686 014d 40       		.uleb128 0x40
 1687 014e 18       		.uleb128 0x18
 1688 014f 9742     		.uleb128 0x2117
 1689 0151 19       		.uleb128 0x19
 1690 0152 01       		.uleb128 0x1
 1691 0153 13       		.uleb128 0x13
 1692 0154 00       		.byte	0
 1693 0155 00       		.byte	0
 1694 0156 1C       		.uleb128 0x1c
 1695 0157 05       		.uleb128 0x5
 1696 0158 00       		.byte	0
 1697 0159 03       		.uleb128 0x3
 1698 015a 08       		.uleb128 0x8
 1699 015b 3A       		.uleb128 0x3a
 1700 015c 0B       		.uleb128 0xb
 1701 015d 3B       		.uleb128 0x3b
 1702 015e 0B       		.uleb128 0xb
 1703 015f 49       		.uleb128 0x49
 1704 0160 13       		.uleb128 0x13
 1705 0161 02       		.uleb128 0x2
 1706 0162 17       		.uleb128 0x17
 1707 0163 00       		.byte	0
 1708 0164 00       		.byte	0
 1709 0165 1D       		.uleb128 0x1d
 1710 0166 0B       		.uleb128 0xb
ARM GAS  /var/folders/t8/16hdwfmd2fg_d3q6dgx6bpmw0000gn/T//ccop2MDO.s 			page 31


 1711 0167 01       		.byte	0x1
 1712 0168 55       		.uleb128 0x55
 1713 0169 17       		.uleb128 0x17
 1714 016a 00       		.byte	0
 1715 016b 00       		.byte	0
 1716 016c 1E       		.uleb128 0x1e
 1717 016d 34       		.uleb128 0x34
 1718 016e 00       		.byte	0
 1719 016f 03       		.uleb128 0x3
 1720 0170 0E       		.uleb128 0xe
 1721 0171 3A       		.uleb128 0x3a
 1722 0172 0B       		.uleb128 0xb
 1723 0173 3B       		.uleb128 0x3b
 1724 0174 0B       		.uleb128 0xb
 1725 0175 49       		.uleb128 0x49
 1726 0176 13       		.uleb128 0x13
 1727 0177 02       		.uleb128 0x2
 1728 0178 17       		.uleb128 0x17
 1729 0179 00       		.byte	0
 1730 017a 00       		.byte	0
 1731 017b 1F       		.uleb128 0x1f
 1732 017c 1D       		.uleb128 0x1d
 1733 017d 01       		.byte	0x1
 1734 017e 31       		.uleb128 0x31
 1735 017f 13       		.uleb128 0x13
 1736 0180 11       		.uleb128 0x11
 1737 0181 01       		.uleb128 0x1
 1738 0182 12       		.uleb128 0x12
 1739 0183 06       		.uleb128 0x6
 1740 0184 58       		.uleb128 0x58
 1741 0185 0B       		.uleb128 0xb
 1742 0186 59       		.uleb128 0x59
 1743 0187 0B       		.uleb128 0xb
 1744 0188 01       		.uleb128 0x1
 1745 0189 13       		.uleb128 0x13
 1746 018a 00       		.byte	0
 1747 018b 00       		.byte	0
 1748 018c 20       		.uleb128 0x20
 1749 018d 1D       		.uleb128 0x1d
 1750 018e 01       		.byte	0x1
 1751 018f 31       		.uleb128 0x31
 1752 0190 13       		.uleb128 0x13
 1753 0191 11       		.uleb128 0x11
 1754 0192 01       		.uleb128 0x1
 1755 0193 12       		.uleb128 0x12
 1756 0194 06       		.uleb128 0x6
 1757 0195 58       		.uleb128 0x58
 1758 0196 0B       		.uleb128 0xb
 1759 0197 59       		.uleb128 0x59
 1760 0198 05       		.uleb128 0x5
 1761 0199 00       		.byte	0
 1762 019a 00       		.byte	0
 1763 019b 21       		.uleb128 0x21
 1764 019c 1D       		.uleb128 0x1d
 1765 019d 00       		.byte	0
 1766 019e 31       		.uleb128 0x31
 1767 019f 13       		.uleb128 0x13
ARM GAS  /var/folders/t8/16hdwfmd2fg_d3q6dgx6bpmw0000gn/T//ccop2MDO.s 			page 32


 1768 01a0 11       		.uleb128 0x11
 1769 01a1 01       		.uleb128 0x1
 1770 01a2 12       		.uleb128 0x12
 1771 01a3 06       		.uleb128 0x6
 1772 01a4 58       		.uleb128 0x58
 1773 01a5 0B       		.uleb128 0xb
 1774 01a6 59       		.uleb128 0x59
 1775 01a7 05       		.uleb128 0x5
 1776 01a8 00       		.byte	0
 1777 01a9 00       		.byte	0
 1778 01aa 22       		.uleb128 0x22
 1779 01ab 0B       		.uleb128 0xb
 1780 01ac 01       		.byte	0x1
 1781 01ad 11       		.uleb128 0x11
 1782 01ae 01       		.uleb128 0x1
 1783 01af 12       		.uleb128 0x12
 1784 01b0 06       		.uleb128 0x6
 1785 01b1 00       		.byte	0
 1786 01b2 00       		.byte	0
 1787 01b3 23       		.uleb128 0x23
 1788 01b4 34       		.uleb128 0x34
 1789 01b5 00       		.byte	0
 1790 01b6 31       		.uleb128 0x31
 1791 01b7 13       		.uleb128 0x13
 1792 01b8 00       		.byte	0
 1793 01b9 00       		.byte	0
 1794 01ba 24       		.uleb128 0x24
 1795 01bb 05       		.uleb128 0x5
 1796 01bc 00       		.byte	0
 1797 01bd 31       		.uleb128 0x31
 1798 01be 13       		.uleb128 0x13
 1799 01bf 02       		.uleb128 0x2
 1800 01c0 17       		.uleb128 0x17
 1801 01c1 00       		.byte	0
 1802 01c2 00       		.byte	0
 1803 01c3 25       		.uleb128 0x25
 1804 01c4 898201   		.uleb128 0x4109
 1805 01c7 00       		.byte	0
 1806 01c8 11       		.uleb128 0x11
 1807 01c9 01       		.uleb128 0x1
 1808 01ca 31       		.uleb128 0x31
 1809 01cb 13       		.uleb128 0x13
 1810 01cc 00       		.byte	0
 1811 01cd 00       		.byte	0
 1812 01ce 26       		.uleb128 0x26
 1813 01cf 1D       		.uleb128 0x1d
 1814 01d0 01       		.byte	0x1
 1815 01d1 31       		.uleb128 0x31
 1816 01d2 13       		.uleb128 0x13
 1817 01d3 11       		.uleb128 0x11
 1818 01d4 01       		.uleb128 0x1
 1819 01d5 12       		.uleb128 0x12
 1820 01d6 06       		.uleb128 0x6
 1821 01d7 58       		.uleb128 0x58
 1822 01d8 0B       		.uleb128 0xb
 1823 01d9 59       		.uleb128 0x59
 1824 01da 0B       		.uleb128 0xb
ARM GAS  /var/folders/t8/16hdwfmd2fg_d3q6dgx6bpmw0000gn/T//ccop2MDO.s 			page 33


 1825 01db 00       		.byte	0
 1826 01dc 00       		.byte	0
 1827 01dd 27       		.uleb128 0x27
 1828 01de 2E       		.uleb128 0x2e
 1829 01df 00       		.byte	0
 1830 01e0 03       		.uleb128 0x3
 1831 01e1 0E       		.uleb128 0xe
 1832 01e2 3A       		.uleb128 0x3a
 1833 01e3 0B       		.uleb128 0xb
 1834 01e4 3B       		.uleb128 0x3b
 1835 01e5 05       		.uleb128 0x5
 1836 01e6 27       		.uleb128 0x27
 1837 01e7 19       		.uleb128 0x19
 1838 01e8 20       		.uleb128 0x20
 1839 01e9 0B       		.uleb128 0xb
 1840 01ea 00       		.byte	0
 1841 01eb 00       		.byte	0
 1842 01ec 28       		.uleb128 0x28
 1843 01ed 2E       		.uleb128 0x2e
 1844 01ee 01       		.byte	0x1
 1845 01ef 03       		.uleb128 0x3
 1846 01f0 0E       		.uleb128 0xe
 1847 01f1 3A       		.uleb128 0x3a
 1848 01f2 0B       		.uleb128 0xb
 1849 01f3 3B       		.uleb128 0x3b
 1850 01f4 0B       		.uleb128 0xb
 1851 01f5 27       		.uleb128 0x27
 1852 01f6 19       		.uleb128 0x19
 1853 01f7 20       		.uleb128 0x20
 1854 01f8 0B       		.uleb128 0xb
 1855 01f9 01       		.uleb128 0x1
 1856 01fa 13       		.uleb128 0x13
 1857 01fb 00       		.byte	0
 1858 01fc 00       		.byte	0
 1859 01fd 29       		.uleb128 0x29
 1860 01fe 05       		.uleb128 0x5
 1861 01ff 00       		.byte	0
 1862 0200 03       		.uleb128 0x3
 1863 0201 0E       		.uleb128 0xe
 1864 0202 3A       		.uleb128 0x3a
 1865 0203 0B       		.uleb128 0xb
 1866 0204 3B       		.uleb128 0x3b
 1867 0205 0B       		.uleb128 0xb
 1868 0206 49       		.uleb128 0x49
 1869 0207 13       		.uleb128 0x13
 1870 0208 00       		.byte	0
 1871 0209 00       		.byte	0
 1872 020a 2A       		.uleb128 0x2a
 1873 020b 2E       		.uleb128 0x2e
 1874 020c 01       		.byte	0x1
 1875 020d 03       		.uleb128 0x3
 1876 020e 0E       		.uleb128 0xe
 1877 020f 3A       		.uleb128 0x3a
 1878 0210 0B       		.uleb128 0xb
 1879 0211 3B       		.uleb128 0x3b
 1880 0212 0B       		.uleb128 0xb
 1881 0213 27       		.uleb128 0x27
ARM GAS  /var/folders/t8/16hdwfmd2fg_d3q6dgx6bpmw0000gn/T//ccop2MDO.s 			page 34


 1882 0214 19       		.uleb128 0x19
 1883 0215 49       		.uleb128 0x49
 1884 0216 13       		.uleb128 0x13
 1885 0217 20       		.uleb128 0x20
 1886 0218 0B       		.uleb128 0xb
 1887 0219 01       		.uleb128 0x1
 1888 021a 13       		.uleb128 0x13
 1889 021b 00       		.byte	0
 1890 021c 00       		.byte	0
 1891 021d 2B       		.uleb128 0x2b
 1892 021e 34       		.uleb128 0x34
 1893 021f 00       		.byte	0
 1894 0220 03       		.uleb128 0x3
 1895 0221 0E       		.uleb128 0xe
 1896 0222 3A       		.uleb128 0x3a
 1897 0223 0B       		.uleb128 0xb
 1898 0224 3B       		.uleb128 0x3b
 1899 0225 0B       		.uleb128 0xb
 1900 0226 49       		.uleb128 0x49
 1901 0227 13       		.uleb128 0x13
 1902 0228 00       		.byte	0
 1903 0229 00       		.byte	0
 1904 022a 2C       		.uleb128 0x2c
 1905 022b 2E       		.uleb128 0x2e
 1906 022c 00       		.byte	0
 1907 022d 03       		.uleb128 0x3
 1908 022e 0E       		.uleb128 0xe
 1909 022f 3A       		.uleb128 0x3a
 1910 0230 0B       		.uleb128 0xb
 1911 0231 3B       		.uleb128 0x3b
 1912 0232 0B       		.uleb128 0xb
 1913 0233 27       		.uleb128 0x27
 1914 0234 19       		.uleb128 0x19
 1915 0235 20       		.uleb128 0x20
 1916 0236 0B       		.uleb128 0xb
 1917 0237 00       		.byte	0
 1918 0238 00       		.byte	0
 1919 0239 2D       		.uleb128 0x2d
 1920 023a 2E       		.uleb128 0x2e
 1921 023b 00       		.byte	0
 1922 023c 3F       		.uleb128 0x3f
 1923 023d 19       		.uleb128 0x19
 1924 023e 3C       		.uleb128 0x3c
 1925 023f 19       		.uleb128 0x19
 1926 0240 6E       		.uleb128 0x6e
 1927 0241 0E       		.uleb128 0xe
 1928 0242 03       		.uleb128 0x3
 1929 0243 0E       		.uleb128 0xe
 1930 0244 3A       		.uleb128 0x3a
 1931 0245 0B       		.uleb128 0xb
 1932 0246 3B       		.uleb128 0x3b
 1933 0247 05       		.uleb128 0x5
 1934 0248 00       		.byte	0
 1935 0249 00       		.byte	0
 1936 024a 00       		.byte	0
 1937              		.section	.debug_loc,"",%progbits
 1938              	.Ldebug_loc0:
ARM GAS  /var/folders/t8/16hdwfmd2fg_d3q6dgx6bpmw0000gn/T//ccop2MDO.s 			page 35


 1939              	.LLST2:
 1940 0000 00000000 		.4byte	.LVL3
 1941 0004 08000000 		.4byte	.LVL4
 1942 0008 0100     		.2byte	0x1
 1943 000a 50       		.byte	0x50
 1944 000b 00000000 		.4byte	0
 1945 000f 00000000 		.4byte	0
 1946              	.LLST3:
 1947 0013 0E000000 		.4byte	.LVL5
 1948 0017 10000000 		.4byte	.LVL6
 1949 001b 0300     		.2byte	0x3
 1950 001d 74       		.byte	0x74
 1951 001e 60       		.sleb128 -32
 1952 001f 9F       		.byte	0x9f
 1953 0020 10000000 		.4byte	.LVL6
 1954 0024 26000000 		.4byte	.LVL9
 1955 0028 0100     		.2byte	0x1
 1956 002a 54       		.byte	0x54
 1957 002b 2A000000 		.4byte	.LVL10
 1958 002f 38000000 		.4byte	.LFE139
 1959 0033 0100     		.2byte	0x1
 1960 0035 54       		.byte	0x54
 1961 0036 00000000 		.4byte	0
 1962 003a 00000000 		.4byte	0
 1963              	.LLST4:
 1964 003e 0E000000 		.4byte	.LVL5
 1965 0042 10000000 		.4byte	.LVL6
 1966 0046 0300     		.2byte	0x3
 1967 0048 74       		.byte	0x74
 1968 0049 60       		.sleb128 -32
 1969 004a 9F       		.byte	0x9f
 1970 004b 10000000 		.4byte	.LVL6
 1971 004f 14000000 		.4byte	.LVL7
 1972 0053 0100     		.2byte	0x1
 1973 0055 54       		.byte	0x54
 1974 0056 00000000 		.4byte	0
 1975 005a 00000000 		.4byte	0
 1976              	.LLST0:
 1977 005e 08000000 		.4byte	.LVL0
 1978 0062 0A000000 		.4byte	.LVL1
 1979 0066 0300     		.2byte	0x3
 1980 0068 73       		.byte	0x73
 1981 0069 20       		.sleb128 32
 1982 006a 9F       		.byte	0x9f
 1983 006b 0A000000 		.4byte	.LVL1
 1984 006f 14000000 		.4byte	.LFE138
 1985 0073 0100     		.2byte	0x1
 1986 0075 53       		.byte	0x53
 1987 0076 00000000 		.4byte	0
 1988 007a 00000000 		.4byte	0
 1989              	.LLST1:
 1990 007e 08000000 		.4byte	.LVL0
 1991 0082 0A000000 		.4byte	.LVL1
 1992 0086 0300     		.2byte	0x3
 1993 0088 73       		.byte	0x73
 1994 0089 20       		.sleb128 32
 1995 008a 9F       		.byte	0x9f
ARM GAS  /var/folders/t8/16hdwfmd2fg_d3q6dgx6bpmw0000gn/T//ccop2MDO.s 			page 36


 1996 008b 0A000000 		.4byte	.LVL1
 1997 008f 0E000000 		.4byte	.LVL2
 1998 0093 0100     		.2byte	0x1
 1999 0095 53       		.byte	0x53
 2000 0096 00000000 		.4byte	0
 2001 009a 00000000 		.4byte	0
 2002              		.section	.debug_aranges,"",%progbits
 2003 0000 24000000 		.4byte	0x24
 2004 0004 0200     		.2byte	0x2
 2005 0006 00000000 		.4byte	.Ldebug_info0
 2006 000a 04       		.byte	0x4
 2007 000b 00       		.byte	0
 2008 000c 0000     		.2byte	0
 2009 000e 0000     		.2byte	0
 2010 0010 00000000 		.4byte	.LFB138
 2011 0014 14000000 		.4byte	.LFE138-.LFB138
 2012 0018 00000000 		.4byte	.LFB139
 2013 001c 38000000 		.4byte	.LFE139-.LFB139
 2014 0020 00000000 		.4byte	0
 2015 0024 00000000 		.4byte	0
 2016              		.section	.debug_ranges,"",%progbits
 2017              	.Ldebug_ranges0:
 2018 0000 08000000 		.4byte	.LBB50
 2019 0004 26000000 		.4byte	.LBE50
 2020 0008 2A000000 		.4byte	.LBB59
 2021 000c 38000000 		.4byte	.LBE59
 2022 0010 00000000 		.4byte	0
 2023 0014 00000000 		.4byte	0
 2024 0018 00000000 		.4byte	.LFB138
 2025 001c 14000000 		.4byte	.LFE138
 2026 0020 00000000 		.4byte	.LFB139
 2027 0024 38000000 		.4byte	.LFE139
 2028 0028 00000000 		.4byte	0
 2029 002c 00000000 		.4byte	0
 2030              		.section	.debug_line,"",%progbits
 2031              	.Ldebug_line0:
 2032 0000 04030000 		.section	.debug_str,"MS",%progbits,1
 2032      0200A502 
 2032      00000201 
 2032      FB0E0D00 
 2032      01010101 
 2033              	.LASF48:
 2034 0000 63685F74 		.ascii	"ch_threads_list\000"
 2034      68726561 
 2034      64735F6C 
 2034      69737400 
 2035              	.LASF99:
 2036 0010 74696D65 		.ascii	"timesize\000"
 2036      73697A65 
 2036      00
 2037              	.LASF124:
 2038 0019 474E5520 		.ascii	"GNU C99 7.2.1 20170904 (release) [ARM/embedded-7-br"
 2038      43393920 
 2038      372E322E 
 2038      31203230 
 2038      31373039 
 2039 004c 616E6368 		.ascii	"anch revision 255204] -mcpu=cortex-m0plus -mno-thum"
ARM GAS  /var/folders/t8/16hdwfmd2fg_d3q6dgx6bpmw0000gn/T//ccop2MDO.s 			page 37


 2039      20726576 
 2039      6973696F 
 2039      6E203235 
 2039      35323034 
 2040 007f 622D696E 		.ascii	"b-interwork -mthumb -ggdb -O2 -std=gnu99 -fomit-fra"
 2040      74657277 
 2040      6F726B20 
 2040      2D6D7468 
 2040      756D6220 
 2041 00b2 6D652D70 		.ascii	"me-pointer -falign-functions=16 -ffunction-sections"
 2041      6F696E74 
 2041      6572202D 
 2041      66616C69 
 2041      676E2D66 
 2042 00e5 202D6664 		.ascii	" -fdata-sections -fno-common\000"
 2042      6174612D 
 2042      73656374 
 2042      696F6E73 
 2042      202D666E 
 2043              	.LASF87:
 2044 0102 77746D74 		.ascii	"wtmtxp\000"
 2044      787000
 2045              	.LASF74:
 2046 0109 72656761 		.ascii	"regarm_t\000"
 2046      726D5F74 
 2046      00
 2047              	.LASF36:
 2048 0112 666C6167 		.ascii	"flags\000"
 2048      7300
 2049              	.LASF27:
 2050 0118 73797374 		.ascii	"systime_t\000"
 2050      696D655F 
 2050      7400
 2051              	.LASF43:
 2052 0122 7265616C 		.ascii	"realprio\000"
 2052      7072696F 
 2052      00
 2053              	.LASF41:
 2054 012b 6570656E 		.ascii	"epending\000"
 2054      64696E67 
 2054      00
 2055              	.LASF0:
 2056 0134 756E7369 		.ascii	"unsigned int\000"
 2056      676E6564 
 2056      20696E74 
 2056      00
 2057              	.LASF49:
 2058 0141 6E657874 		.ascii	"next\000"
 2058      00
 2059              	.LASF97:
 2060 0146 76657273 		.ascii	"version\000"
 2060      696F6E00 
 2061              	.LASF46:
 2062 014e 74687265 		.ascii	"threads_list_t\000"
 2062      6164735F 
 2062      6C697374 
 2062      5F7400
ARM GAS  /var/folders/t8/16hdwfmd2fg_d3q6dgx6bpmw0000gn/T//ccop2MDO.s 			page 38


 2063              	.LASF7:
 2064 015d 5F5F696E 		.ascii	"__int32_t\000"
 2064      7433325F 
 2064      7400
 2065              	.LASF37:
 2066 0167 72656673 		.ascii	"refs\000"
 2066      00
 2067              	.LASF111:
 2068 016c 6F66665F 		.ascii	"off_time\000"
 2068      74696D65 
 2068      00
 2069              	.LASF83:
 2070 0175 77746F62 		.ascii	"wtobjp\000"
 2070      6A7000
 2071              	.LASF121:
 2072 017c 706F7274 		.ascii	"port_lock\000"
 2072      5F6C6F63 
 2072      6B00
 2073              	.LASF72:
 2074 0186 76746C69 		.ascii	"vtlist\000"
 2074      737400
 2075              	.LASF76:
 2076 018d 706F7274 		.ascii	"port_context\000"
 2076      5F636F6E 
 2076      74657874 
 2076      00
 2077              	.LASF119:
 2078 019a 706F7274 		.ascii	"port_lock_from_isr\000"
 2078      5F6C6F63 
 2078      6B5F6672 
 2078      6F6D5F69 
 2078      737200
 2079              	.LASF54:
 2080 01ad 63685F72 		.ascii	"ch_ready_list\000"
 2080      65616479 
 2080      5F6C6973 
 2080      7400
 2081              	.LASF60:
 2082 01bb 66756E63 		.ascii	"func\000"
 2082      00
 2083              	.LASF88:
 2084 01c0 65776D61 		.ascii	"ewmask\000"
 2084      736B00
 2085              	.LASF52:
 2086 01c7 70726576 		.ascii	"prev\000"
 2086      00
 2087              	.LASF51:
 2088 01cc 63685F74 		.ascii	"ch_threads_queue\000"
 2088      68726561 
 2088      64735F71 
 2088      75657565 
 2088      00
 2089              	.LASF103:
 2090 01dd 6F66665F 		.ascii	"off_newer\000"
 2090      6E657765 
 2090      7200
 2091              	.LASF56:
ARM GAS  /var/folders/t8/16hdwfmd2fg_d3q6dgx6bpmw0000gn/T//ccop2MDO.s 			page 39


 2092 01e7 76746675 		.ascii	"vtfunc_t\000"
 2092      6E635F74 
 2092      00
 2093              	.LASF65:
 2094 01f0 63685F73 		.ascii	"ch_system_debug\000"
 2094      79737465 
 2094      6D5F6465 
 2094      62756700 
 2095              	.LASF17:
 2096 0200 75696E74 		.ascii	"uint32_t\000"
 2096      33325F74 
 2096      00
 2097              	.LASF85:
 2098 0209 73656E74 		.ascii	"sentmsg\000"
 2098      6D736700 
 2099              	.LASF25:
 2100 0211 6576656E 		.ascii	"eventmask_t\000"
 2100      746D6173 
 2100      6B5F7400 
 2101              	.LASF100:
 2102 021d 74687265 		.ascii	"threadsize\000"
 2102      61647369 
 2102      7A6500
 2103              	.LASF89:
 2104 0228 63685F73 		.ascii	"ch_semaphore\000"
 2104      656D6170 
 2104      686F7265 
 2104      00
 2105              	.LASF23:
 2106 0235 74707269 		.ascii	"tprio_t\000"
 2106      6F5F7400 
 2107              	.LASF58:
 2108 023d 63685F76 		.ascii	"ch_virtual_timer\000"
 2108      69727475 
 2108      616C5F74 
 2108      696D6572 
 2108      00
 2109              	.LASF130:
 2110 024e 72657375 		.ascii	"result\000"
 2110      6C7400
 2111              	.LASF13:
 2112 0255 6C6F6E67 		.ascii	"long long unsigned int\000"
 2112      206C6F6E 
 2112      6720756E 
 2112      7369676E 
 2112      65642069 
 2113              	.LASF131:
 2114 026c 63685363 		.ascii	"chSchIsPreemptionRequired\000"
 2114      68497350 
 2114      7265656D 
 2114      7074696F 
 2114      6E526571 
 2115              	.LASF5:
 2116 0286 5F5F7569 		.ascii	"__uint16_t\000"
 2116      6E743136 
 2116      5F7400
 2117              	.LASF26:
ARM GAS  /var/folders/t8/16hdwfmd2fg_d3q6dgx6bpmw0000gn/T//ccop2MDO.s 			page 40


 2118 0291 636E745F 		.ascii	"cnt_t\000"
 2118      7400
 2119              	.LASF106:
 2120 0297 6F66665F 		.ascii	"off_stklimit\000"
 2120      73746B6C 
 2120      696D6974 
 2120      00
 2121              	.LASF67:
 2122 02a4 6973725F 		.ascii	"isr_cnt\000"
 2122      636E7400 
 2123              	.LASF91:
 2124 02ac 6F776E65 		.ascii	"owner\000"
 2124      7200
 2125              	.LASF50:
 2126 02b2 74687265 		.ascii	"threads_queue_t\000"
 2126      6164735F 
 2126      71756575 
 2126      655F7400 
 2127              	.LASF128:
 2128 02c2 746F704F 		.ascii	"topOfProcStack\000"
 2128      6650726F 
 2128      63537461 
 2128      636B00
 2129              	.LASF42:
 2130 02d1 6D74786C 		.ascii	"mtxlist\000"
 2130      69737400 
 2131              	.LASF62:
 2132 02d9 63685F76 		.ascii	"ch_virtual_timers_list\000"
 2132      69727475 
 2132      616C5F74 
 2132      696D6572 
 2132      735F6C69 
 2133              	.LASF28:
 2134 02f0 74687265 		.ascii	"thread_t\000"
 2134      61645F74 
 2134      00
 2135              	.LASF104:
 2136 02f9 6F66665F 		.ascii	"off_older\000"
 2136      6F6C6465 
 2136      7200
 2137              	.LASF107:
 2138 0303 6F66665F 		.ascii	"off_state\000"
 2138      73746174 
 2138      6500
 2139              	.LASF81:
 2140 030d 7264796D 		.ascii	"rdymsg\000"
 2140      736700
 2141              	.LASF122:
 2142 0314 5F5F6469 		.ascii	"__disable_irq\000"
 2142      7361626C 
 2142      655F6972 
 2142      7100
 2143              	.LASF90:
 2144 0322 63685F6D 		.ascii	"ch_mutex\000"
 2144      75746578 
 2144      00
 2145              	.LASF12:
ARM GAS  /var/folders/t8/16hdwfmd2fg_d3q6dgx6bpmw0000gn/T//ccop2MDO.s 			page 41


 2146 032b 5F5F7569 		.ascii	"__uint64_t\000"
 2146      6E743634 
 2146      5F7400
 2147              	.LASF102:
 2148 0336 6F66665F 		.ascii	"off_ctx\000"
 2148      63747800 
 2149              	.LASF108:
 2150 033e 6F66665F 		.ascii	"off_flags\000"
 2150      666C6167 
 2150      7300
 2151              	.LASF30:
 2152 0348 7072696F 		.ascii	"prio\000"
 2152      00
 2153              	.LASF92:
 2154 034d 63686172 		.ascii	"char\000"
 2154      00
 2155              	.LASF45:
 2156 0352 74687265 		.ascii	"thread_reference_t\000"
 2156      61645F72 
 2156      65666572 
 2156      656E6365 
 2156      5F7400
 2157              	.LASF34:
 2158 0365 77616261 		.ascii	"wabase\000"
 2158      736500
 2159              	.LASF93:
 2160 036c 63685F69 		.ascii	"ch_idle_thread_wa\000"
 2160      646C655F 
 2160      74687265 
 2160      61645F77 
 2160      6100
 2161              	.LASF20:
 2162 037e 74737461 		.ascii	"tstate_t\000"
 2162      74655F74 
 2162      00
 2163              	.LASF14:
 2164 0387 75696E74 		.ascii	"uint8_t\000"
 2164      385F7400 
 2165              	.LASF40:
 2166 038f 6D736771 		.ascii	"msgqueue\000"
 2166      75657565 
 2166      00
 2167              	.LASF47:
 2168 0398 63685F74 		.ascii	"ch_thread\000"
 2168      68726561 
 2168      6400
 2169              	.LASF105:
 2170 03a2 6F66665F 		.ascii	"off_name\000"
 2170      6E616D65 
 2170      00
 2171              	.LASF64:
 2172 03ab 73797374 		.ascii	"system_debug_t\000"
 2172      656D5F64 
 2172      65627567 
 2172      5F7400
 2173              	.LASF11:
 2174 03ba 6C6F6E67 		.ascii	"long long int\000"
ARM GAS  /var/folders/t8/16hdwfmd2fg_d3q6dgx6bpmw0000gn/T//ccop2MDO.s 			page 42


 2174      206C6F6E 
 2174      6720696E 
 2174      7400
 2175              	.LASF95:
 2176 03c8 7A65726F 		.ascii	"zero\000"
 2176      00
 2177              	.LASF24:
 2178 03cd 6D73675F 		.ascii	"msg_t\000"
 2178      7400
 2179              	.LASF57:
 2180 03d3 76697274 		.ascii	"virtual_timer_t\000"
 2180      75616C5F 
 2180      74696D65 
 2180      725F7400 
 2181              	.LASF96:
 2182 03e3 73697A65 		.ascii	"size\000"
 2182      00
 2183              	.LASF98:
 2184 03e8 70747273 		.ascii	"ptrsize\000"
 2184      697A6500 
 2185              	.LASF22:
 2186 03f0 74736C69 		.ascii	"tslices_t\000"
 2186      6365735F 
 2186      7400
 2187              	.LASF126:
 2188 03fa 2F557365 		.ascii	"/Users/jpablobr/tmp/tmk/di0ib-tmk_keyboard/keyboard"
 2188      72732F6A 
 2188      7061626C 
 2188      6F62722F 
 2188      746D702F 
 2189 042d 2F746565 		.ascii	"/teensy_lc_menelaus\000"
 2189      6E73795F 
 2189      6C635F6D 
 2189      656E656C 
 2189      61757300 
 2190              	.LASF66:
 2191 0441 70616E69 		.ascii	"panic_msg\000"
 2191      635F6D73 
 2191      6700
 2192              	.LASF19:
 2193 044b 746D6F64 		.ascii	"tmode_t\000"
 2193      655F7400 
 2194              	.LASF63:
 2195 0453 73797374 		.ascii	"systime\000"
 2195      696D6500 
 2196              	.LASF73:
 2197 045b 6D61696E 		.ascii	"mainthread\000"
 2197      74687265 
 2197      616400
 2198              	.LASF15:
 2199 0466 75696E74 		.ascii	"uint16_t\000"
 2199      31365F74 
 2199      00
 2200              	.LASF112:
 2201 046f 63686465 		.ascii	"chdebug_t\000"
 2201      6275675F 
 2201      7400
ARM GAS  /var/folders/t8/16hdwfmd2fg_d3q6dgx6bpmw0000gn/T//ccop2MDO.s 			page 43


 2202              	.LASF101:
 2203 0479 6F66665F 		.ascii	"off_prio\000"
 2203      7072696F 
 2203      00
 2204              	.LASF68:
 2205 0482 6C6F636B 		.ascii	"lock_cnt\000"
 2205      5F636E74 
 2205      00
 2206              	.LASF127:
 2207 048b 5F5F7365 		.ascii	"__set_PSP\000"
 2207      745F5053 
 2207      5000
 2208              	.LASF125:
 2209 0495 2E2E2F2E 		.ascii	"../../tmk_core/tool/chibios/ChibiOS/os/common/ports"
 2209      2E2F746D 
 2209      6B5F636F 
 2209      72652F74 
 2209      6F6F6C2F 
 2210 04c8 2F41524D 		.ascii	"/ARMCMx/chcore_v6m.c\000"
 2210      434D782F 
 2210      6368636F 
 2210      72655F76 
 2210      366D2E63 
 2211              	.LASF3:
 2212 04dd 73686F72 		.ascii	"short int\000"
 2212      7420696E 
 2212      7400
 2213              	.LASF117:
 2214 04e7 63747870 		.ascii	"ctxp\000"
 2214      00
 2215              	.LASF8:
 2216 04ec 6C6F6E67 		.ascii	"long int\000"
 2216      20696E74 
 2216      00
 2217              	.LASF77:
 2218 04f5 706F7274 		.ascii	"port_intctx\000"
 2218      5F696E74 
 2218      63747800 
 2219              	.LASF38:
 2220 0501 70726565 		.ascii	"preempt\000"
 2220      6D707400 
 2221              	.LASF123:
 2222 0509 5F5F656E 		.ascii	"__enable_irq\000"
 2222      61626C65 
 2222      5F697271 
 2222      00
 2223              	.LASF70:
 2224 0516 63685F73 		.ascii	"ch_system\000"
 2224      79737465 
 2224      6D00
 2225              	.LASF18:
 2226 0520 75696E74 		.ascii	"uint64_t\000"
 2226      36345F74 
 2226      00
 2227              	.LASF71:
 2228 0529 726C6973 		.ascii	"rlist\000"
 2228      7400
ARM GAS  /var/folders/t8/16hdwfmd2fg_d3q6dgx6bpmw0000gn/T//ccop2MDO.s 			page 44


 2229              	.LASF4:
 2230 052f 5F5F7569 		.ascii	"__uint8_t\000"
 2230      6E74385F 
 2230      7400
 2231              	.LASF78:
 2232 0539 706F7274 		.ascii	"port_extctx\000"
 2232      5F657874 
 2232      63747800 
 2233              	.LASF33:
 2234 0545 6E616D65 		.ascii	"name\000"
 2234      00
 2235              	.LASF94:
 2236 054a 6964656E 		.ascii	"identifier\000"
 2236      74696669 
 2236      657200
 2237              	.LASF110:
 2238 0555 6F66665F 		.ascii	"off_preempt\000"
 2238      70726565 
 2238      6D707400 
 2239              	.LASF80:
 2240 0561 78707372 		.ascii	"xpsr\000"
 2240      00
 2241              	.LASF21:
 2242 0566 74726566 		.ascii	"trefs_t\000"
 2242      735F7400 
 2243              	.LASF10:
 2244 056e 6C6F6E67 		.ascii	"long unsigned int\000"
 2244      20756E73 
 2244      69676E65 
 2244      6420696E 
 2244      7400
 2245              	.LASF53:
 2246 0580 72656164 		.ascii	"ready_list_t\000"
 2246      795F6C69 
 2246      73745F74 
 2246      00
 2247              	.LASF29:
 2248 058d 71756575 		.ascii	"queue\000"
 2248      6500
 2249              	.LASF16:
 2250 0593 696E7433 		.ascii	"int32_t\000"
 2250      325F7400 
 2251              	.LASF86:
 2252 059b 77747365 		.ascii	"wtsemp\000"
 2252      6D7000
 2253              	.LASF114:
 2254 05a2 6D757465 		.ascii	"mutex_t\000"
 2254      785F7400 
 2255              	.LASF31:
 2256 05aa 6E657765 		.ascii	"newer\000"
 2256      7200
 2257              	.LASF118:
 2258 05b0 706F7274 		.ascii	"port_unlock_from_isr\000"
 2258      5F756E6C 
 2258      6F636B5F 
 2258      66726F6D 
 2258      5F697372 
ARM GAS  /var/folders/t8/16hdwfmd2fg_d3q6dgx6bpmw0000gn/T//ccop2MDO.s 			page 45


 2259              	.LASF2:
 2260 05c5 756E7369 		.ascii	"unsigned char\000"
 2260      676E6564 
 2260      20636861 
 2260      7200
 2261              	.LASF9:
 2262 05d3 5F5F7569 		.ascii	"__uint32_t\000"
 2262      6E743332 
 2262      5F7400
 2263              	.LASF39:
 2264 05de 77616974 		.ascii	"waiting\000"
 2264      696E6700 
 2265              	.LASF61:
 2266 05e6 76697274 		.ascii	"virtual_timers_list_t\000"
 2266      75616C5F 
 2266      74696D65 
 2266      72735F6C 
 2266      6973745F 
 2267              	.LASF115:
 2268 05fc 5F706F72 		.ascii	"_port_irq_epilogue\000"
 2268      745F6972 
 2268      715F6570 
 2268      696C6F67 
 2268      756500
 2269              	.LASF116:
 2270 060f 4E4D495F 		.ascii	"NMI_Handler\000"
 2270      48616E64 
 2270      6C657200 
 2271              	.LASF35:
 2272 061b 73746174 		.ascii	"state\000"
 2272      6500
 2273              	.LASF79:
 2274 0621 6C725F74 		.ascii	"lr_thd\000"
 2274      686400
 2275              	.LASF69:
 2276 0628 63685F73 		.ascii	"ch_system_t\000"
 2276      79737465 
 2276      6D5F7400 
 2277              	.LASF84:
 2278 0634 77747472 		.ascii	"wttrp\000"
 2278      7000
 2279              	.LASF1:
 2280 063a 7369676E 		.ascii	"signed char\000"
 2280      65642063 
 2280      68617200 
 2281              	.LASF59:
 2282 0646 64656C74 		.ascii	"delta\000"
 2282      6100
 2283              	.LASF6:
 2284 064c 73686F72 		.ascii	"short unsigned int\000"
 2284      7420756E 
 2284      7369676E 
 2284      65642069 
 2284      6E7400
 2285              	.LASF75:
 2286 065f 73746B61 		.ascii	"stkalign_t\000"
 2286      6C69676E 
ARM GAS  /var/folders/t8/16hdwfmd2fg_d3q6dgx6bpmw0000gn/T//ccop2MDO.s 			page 46


 2286      5F7400
 2287              	.LASF109:
 2288 066a 6F66665F 		.ascii	"off_refs\000"
 2288      72656673 
 2288      00
 2289              	.LASF55:
 2290 0673 63757272 		.ascii	"current\000"
 2290      656E7400 
 2291              	.LASF113:
 2292 067b 63685F64 		.ascii	"ch_debug\000"
 2292      65627567 
 2292      00
 2293              	.LASF120:
 2294 0684 706F7274 		.ascii	"port_unlock\000"
 2294      5F756E6C 
 2294      6F636B00 
 2295              	.LASF32:
 2296 0690 6F6C6465 		.ascii	"older\000"
 2296      7200
 2297              	.LASF82:
 2298 0696 65786974 		.ascii	"exitcode\000"
 2298      636F6465 
 2298      00
 2299              	.LASF44:
 2300 069f 6D706F6F 		.ascii	"mpool\000"
 2300      6C00
 2301              	.LASF129:
 2302 06a5 5F5F6765 		.ascii	"__get_PSP\000"
 2302      745F5053 
 2302      5000
 2303              		.ident	"GCC: (GNU Tools for Arm Embedded Processors 7-2017-q4-major) 7.2.1 20170904 (release) [ARM
ARM GAS  /var/folders/t8/16hdwfmd2fg_d3q6dgx6bpmw0000gn/T//ccop2MDO.s 			page 47


DEFINED SYMBOLS
                            *ABS*:0000000000000000 chcore_v6m.c
/var/folders/t8/16hdwfmd2fg_d3q6dgx6bpmw0000gn/T//ccop2MDO.s:16     .text.NMI_Handler:0000000000000000 $t
/var/folders/t8/16hdwfmd2fg_d3q6dgx6bpmw0000gn/T//ccop2MDO.s:24     .text.NMI_Handler:0000000000000000 NMI_Handler
/var/folders/t8/16hdwfmd2fg_d3q6dgx6bpmw0000gn/T//ccop2MDO.s:90     .text._port_irq_epilogue:0000000000000000 $t
/var/folders/t8/16hdwfmd2fg_d3q6dgx6bpmw0000gn/T//ccop2MDO.s:98     .text._port_irq_epilogue:0000000000000000 _port_irq_epilogue
/var/folders/t8/16hdwfmd2fg_d3q6dgx6bpmw0000gn/T//ccop2MDO.s:191    .text._port_irq_epilogue:0000000000000030 $d

UNDEFINED SYMBOLS
chSchIsPreemptionRequired
_port_exit_from_isr
_port_switch_from_isr
