ARM GAS  /var/folders/t8/16hdwfmd2fg_d3q6dgx6bpmw0000gn/T//cc30os3f.s 			page 1


   1              		.cpu cortex-m0plus
   2              		.eabi_attribute 20, 1
   3              		.eabi_attribute 21, 1
   4              		.eabi_attribute 23, 3
   5              		.eabi_attribute 24, 1
   6              		.eabi_attribute 25, 1
   7              		.eabi_attribute 26, 1
   8              		.eabi_attribute 30, 2
   9              		.eabi_attribute 34, 0
  10              		.eabi_attribute 18, 4
  11              		.file	"chcond.c"
  12              		.text
  13              	.Ltext0:
  14              		.cfi_sections	.debug_frame
  15              		.section	.text.chCondObjectInit,"ax",%progbits
  16              		.align	1
  17              		.p2align 4,,15
  18              		.global	chCondObjectInit
  19              		.syntax unified
  20              		.code	16
  21              		.thumb_func
  22              		.fpu softvfp
  23              		.type	chCondObjectInit, %function
  24              	chCondObjectInit:
  25              	.LFB138:
  26              		.file 1 "../../tmk_core/tool/chibios/ChibiOS/os/rt/src/chcond.c"
  27              		.loc 1 75 0
  28              		.cfi_startproc
  29              		@ args = 0, pretend = 0, frame = 0
  30              		@ frame_needed = 0, uses_anonymous_args = 0
  31              	.LVL0:
  32 0000 10B5     		push	{r4, lr}
  33              		.cfi_def_cfa_offset 8
  34              		.cfi_offset 4, -8
  35              		.cfi_offset 14, -4
  36              		.loc 1 75 0
  37 0002 041E     		subs	r4, r0, #0
  38              		.loc 1 77 0
  39 0004 02D0     		beq	.L4
  40              	.LVL1:
  41              	.L2:
  42              	.LBB63:
  43              	.LBB64:
  44              		.file 2 "../../tmk_core/tool/chibios/ChibiOS/os/rt/include/chschd.h"
  45              		.loc 2 550 0
  46 0006 2460     		str	r4, [r4]
  47              		.loc 2 551 0
  48 0008 6460     		str	r4, [r4, #4]
  49              	.LVL2:
  50              	.LBE64:
  51              	.LBE63:
  52              		.loc 1 80 0
  53              		@ sp needed
  54              	.LVL3:
  55 000a 10BD     		pop	{r4, pc}
  56              	.LVL4:
  57              	.L4:
ARM GAS  /var/folders/t8/16hdwfmd2fg_d3q6dgx6bpmw0000gn/T//cc30os3f.s 			page 2


  58              		.loc 1 77 0 discriminator 2
  59 000c 0148     		ldr	r0, .L5
  60              	.LVL5:
  61 000e FFF7FEFF 		bl	chSysHalt
  62              	.LVL6:
  63 0012 F8E7     		b	.L2
  64              	.L6:
  65              		.align	2
  66              	.L5:
  67 0014 00000000 		.word	.LANCHOR0
  68              		.cfi_endproc
  69              	.LFE138:
  70              		.size	chCondObjectInit, .-chCondObjectInit
  71              		.section	.text.chCondSignal,"ax",%progbits
  72              		.align	1
  73              		.p2align 4,,15
  74              		.global	chCondSignal
  75              		.syntax unified
  76              		.code	16
  77              		.thumb_func
  78              		.fpu softvfp
  79              		.type	chCondSignal, %function
  80              	chCondSignal:
  81              	.LFB139:
  82              		.loc 1 89 0
  83              		.cfi_startproc
  84              		@ args = 0, pretend = 0, frame = 0
  85              		@ frame_needed = 0, uses_anonymous_args = 0
  86              	.LVL7:
  87 0000 10B5     		push	{r4, lr}
  88              		.cfi_def_cfa_offset 8
  89              		.cfi_offset 4, -8
  90              		.cfi_offset 14, -4
  91              		.loc 1 89 0
  92 0002 041E     		subs	r4, r0, #0
  93              		.loc 1 91 0
  94 0004 1CD0     		beq	.L11
  95              	.LVL8:
  96              	.L8:
  97              	.LBB79:
  98              	.LBB80:
  99              	.LBB81:
 100              	.LBB82:
 101              	.LBB83:
 102              		.file 3 "../../tmk_core/tool/chibios/ChibiOS/os/common/ext/CMSIS/include/cmsis_gcc.h"
 103              		.loc 3 71 0
 104              		.syntax divided
 105              	@ 71 "../../tmk_core/tool/chibios/ChibiOS/os/common/ext/CMSIS/include/cmsis_gcc.h" 1
 106 0006 72B6     		cpsid i
 107              	@ 0 "" 2
 108              		.thumb
 109              		.syntax unified
 110              	.LBE83:
 111              	.LBE82:
 112              	.LBE81:
 113              		.file 4 "../../tmk_core/tool/chibios/ChibiOS/os/rt/include/chsys.h"
 114              		.loc 4 378 0
ARM GAS  /var/folders/t8/16hdwfmd2fg_d3q6dgx6bpmw0000gn/T//cc30os3f.s 			page 3


 115 0008 FFF7FEFF 		bl	_dbg_check_lock
 116              	.LVL9:
 117              	.LBE80:
 118              	.LBE79:
 119              	.LBB84:
 120              	.LBB85:
 121              		.loc 2 577 0
 122 000c 2068     		ldr	r0, [r4]
 123              	.LVL10:
 124              	.LBE85:
 125              	.LBE84:
 126              		.loc 1 94 0
 127 000e 8442     		cmp	r4, r0
 128 0010 05D0     		beq	.L9
 129              	.LVL11:
 130              	.LBB86:
 131              	.LBB87:
 132              		.loc 2 620 0
 133 0012 0368     		ldr	r3, [r0]
 134              	.LBE87:
 135              	.LBE86:
 136              		.loc 1 95 0
 137 0014 0021     		movs	r1, #0
 138              	.LBB89:
 139              	.LBB88:
 140              		.loc 2 620 0
 141 0016 2360     		str	r3, [r4]
 142              		.loc 2 621 0
 143 0018 5C60     		str	r4, [r3, #4]
 144              	.LVL12:
 145              	.LBE88:
 146              	.LBE89:
 147              		.loc 1 95 0
 148 001a FFF7FEFF 		bl	chSchWakeupS
 149              	.LVL13:
 150              	.L9:
 151              	.LBB90:
 152              	.LBB91:
 153              		.loc 4 388 0
 154 001e FFF7FEFF 		bl	_dbg_check_unlock
 155              	.LVL14:
 156              		.loc 4 395 0
 157 0022 094B     		ldr	r3, .L13
 158 0024 1A68     		ldr	r2, [r3]
 159 0026 9A42     		cmp	r2, r3
 160 0028 04D0     		beq	.L10
 161 002a 9B69     		ldr	r3, [r3, #24]
 162 002c 9968     		ldr	r1, [r3, #8]
 163 002e 9368     		ldr	r3, [r2, #8]
 164 0030 9942     		cmp	r1, r3
 165 0032 01D3     		bcc	.L12
 166              	.L10:
 167              	.LBB92:
 168              	.LBB93:
 169              	.LBB94:
 170              		.loc 3 60 0
 171              		.syntax divided
ARM GAS  /var/folders/t8/16hdwfmd2fg_d3q6dgx6bpmw0000gn/T//cc30os3f.s 			page 4


 172              	@ 60 "../../tmk_core/tool/chibios/ChibiOS/os/common/ext/CMSIS/include/cmsis_gcc.h" 1
 173 0034 62B6     		cpsie i
 174              	@ 0 "" 2
 175              		.thumb
 176              		.syntax unified
 177              	.LBE94:
 178              	.LBE93:
 179              	.LBE92:
 180              	.LBE91:
 181              	.LBE90:
 182              		.loc 1 98 0
 183              		@ sp needed
 184              	.LVL15:
 185 0036 10BD     		pop	{r4, pc}
 186              	.LVL16:
 187              	.L12:
 188              	.LBB96:
 189              	.LBB95:
 190              		.loc 4 395 0
 191 0038 0448     		ldr	r0, .L13+4
 192 003a FFF7FEFF 		bl	chSysHalt
 193              	.LVL17:
 194 003e F9E7     		b	.L10
 195              	.LVL18:
 196              	.L11:
 197              	.LBE95:
 198              	.LBE96:
 199              		.loc 1 91 0 discriminator 2
 200 0040 0348     		ldr	r0, .L13+8
 201              	.LVL19:
 202 0042 FFF7FEFF 		bl	chSysHalt
 203              	.LVL20:
 204 0046 DEE7     		b	.L8
 205              	.L14:
 206              		.align	2
 207              	.L13:
 208 0048 00000000 		.word	ch
 209 004c 00000000 		.word	.LANCHOR2
 210 0050 00000000 		.word	.LANCHOR1
 211              		.cfi_endproc
 212              	.LFE139:
 213              		.size	chCondSignal, .-chCondSignal
 214              		.section	.text.chCondSignalI,"ax",%progbits
 215              		.align	1
 216              		.p2align 4,,15
 217              		.global	chCondSignalI
 218              		.syntax unified
 219              		.code	16
 220              		.thumb_func
 221              		.fpu softvfp
 222              		.type	chCondSignalI, %function
 223              	chCondSignalI:
 224              	.LFB140:
 225              		.loc 1 111 0
 226              		.cfi_startproc
 227              		@ args = 0, pretend = 0, frame = 0
 228              		@ frame_needed = 0, uses_anonymous_args = 0
ARM GAS  /var/folders/t8/16hdwfmd2fg_d3q6dgx6bpmw0000gn/T//cc30os3f.s 			page 5


 229              	.LVL21:
 230 0000 10B5     		push	{r4, lr}
 231              		.cfi_def_cfa_offset 8
 232              		.cfi_offset 4, -8
 233              		.cfi_offset 14, -4
 234              		.loc 1 111 0
 235 0002 0400     		movs	r4, r0
 236              		.loc 1 113 0
 237 0004 FFF7FEFF 		bl	chDbgCheckClassI
 238              	.LVL22:
 239              		.loc 1 114 0
 240 0008 002C     		cmp	r4, #0
 241 000a 0AD0     		beq	.L18
 242              	.L16:
 243              	.LVL23:
 244              	.LBB97:
 245              	.LBB98:
 246              		.loc 2 577 0
 247 000c 2068     		ldr	r0, [r4]
 248              	.LVL24:
 249              	.LBE98:
 250              	.LBE97:
 251              		.loc 1 116 0
 252 000e 8442     		cmp	r4, r0
 253 0010 06D0     		beq	.L15
 254              	.LVL25:
 255              	.LBB99:
 256              	.LBB100:
 257              	.LBB101:
 258              		.loc 2 620 0
 259 0012 0368     		ldr	r3, [r0]
 260 0014 2360     		str	r3, [r4]
 261              		.loc 2 621 0
 262 0016 5C60     		str	r4, [r3, #4]
 263              	.LVL26:
 264              	.LBE101:
 265              	.LBE100:
 266              		.loc 1 118 0
 267 0018 0023     		movs	r3, #0
 268 001a 4362     		str	r3, [r0, #36]
 269              		.loc 1 119 0
 270 001c FFF7FEFF 		bl	chSchReadyI
 271              	.LVL27:
 272              	.L15:
 273              	.LBE99:
 274              		.loc 1 121 0
 275              		@ sp needed
 276              	.LVL28:
 277 0020 10BD     		pop	{r4, pc}
 278              	.LVL29:
 279              	.L18:
 280              		.loc 1 114 0 discriminator 2
 281 0022 0248     		ldr	r0, .L19
 282 0024 FFF7FEFF 		bl	chSysHalt
 283              	.LVL30:
 284 0028 F0E7     		b	.L16
 285              	.L20:
ARM GAS  /var/folders/t8/16hdwfmd2fg_d3q6dgx6bpmw0000gn/T//cc30os3f.s 			page 6


 286 002a C046     		.align	2
 287              	.L19:
 288 002c 00000000 		.word	.LANCHOR3
 289              		.cfi_endproc
 290              	.LFE140:
 291              		.size	chCondSignalI, .-chCondSignalI
 292              		.section	.text.chCondBroadcastI,"ax",%progbits
 293              		.align	1
 294              		.p2align 4,,15
 295              		.global	chCondBroadcastI
 296              		.syntax unified
 297              		.code	16
 298              		.thumb_func
 299              		.fpu softvfp
 300              		.type	chCondBroadcastI, %function
 301              	chCondBroadcastI:
 302              	.LFB142:
 303              		.loc 1 149 0
 304              		.cfi_startproc
 305              		@ args = 0, pretend = 0, frame = 0
 306              		@ frame_needed = 0, uses_anonymous_args = 0
 307              	.LVL31:
 308 0000 70B5     		push	{r4, r5, r6, lr}
 309              		.cfi_def_cfa_offset 16
 310              		.cfi_offset 4, -16
 311              		.cfi_offset 5, -12
 312              		.cfi_offset 6, -8
 313              		.cfi_offset 14, -4
 314              		.loc 1 149 0
 315 0002 0400     		movs	r4, r0
 316              		.loc 1 151 0
 317 0004 FFF7FEFF 		bl	chDbgCheckClassI
 318              	.LVL32:
 319              		.loc 1 152 0
 320 0008 002C     		cmp	r4, #0
 321 000a 0ED0     		beq	.L26
 322              	.L22:
 323              	.LVL33:
 324              	.LBB102:
 325              	.LBB103:
 326              		.loc 2 577 0
 327 000c 2068     		ldr	r0, [r4]
 328              	.LVL34:
 329              	.LBE103:
 330              	.LBE102:
 331              		.loc 1 157 0
 332 000e A042     		cmp	r0, r4
 333 0010 0AD0     		beq	.L21
 334              		.loc 1 158 0
 335 0012 0225     		movs	r5, #2
 336 0014 6D42     		rsbs	r5, r5, #0
 337              	.L24:
 338              	.LVL35:
 339              	.LBB105:
 340              	.LBB106:
 341              		.loc 2 620 0
 342 0016 0368     		ldr	r3, [r0]
ARM GAS  /var/folders/t8/16hdwfmd2fg_d3q6dgx6bpmw0000gn/T//cc30os3f.s 			page 7


 343 0018 2360     		str	r3, [r4]
 344              		.loc 2 621 0
 345 001a 5C60     		str	r4, [r3, #4]
 346              	.LVL36:
 347              	.LBE106:
 348              	.LBE105:
 349              		.loc 1 158 0
 350 001c FFF7FEFF 		bl	chSchReadyI
 351              	.LVL37:
 352 0020 4562     		str	r5, [r0, #36]
 353              	.LVL38:
 354              	.LBB107:
 355              	.LBB104:
 356              		.loc 2 577 0
 357 0022 2068     		ldr	r0, [r4]
 358              	.LVL39:
 359              	.LBE104:
 360              	.LBE107:
 361              		.loc 1 157 0
 362 0024 A042     		cmp	r0, r4
 363 0026 F6D1     		bne	.L24
 364              	.L21:
 365              		.loc 1 160 0
 366              		@ sp needed
 367              	.LVL40:
 368 0028 70BD     		pop	{r4, r5, r6, pc}
 369              	.LVL41:
 370              	.L26:
 371              		.loc 1 152 0 discriminator 2
 372 002a 0248     		ldr	r0, .L27
 373 002c FFF7FEFF 		bl	chSysHalt
 374              	.LVL42:
 375 0030 ECE7     		b	.L22
 376              	.L28:
 377 0032 C046     		.align	2
 378              	.L27:
 379 0034 00000000 		.word	.LANCHOR4
 380              		.cfi_endproc
 381              	.LFE142:
 382              		.size	chCondBroadcastI, .-chCondBroadcastI
 383              		.section	.text.chCondBroadcast,"ax",%progbits
 384              		.align	1
 385              		.p2align 4,,15
 386              		.global	chCondBroadcast
 387              		.syntax unified
 388              		.code	16
 389              		.thumb_func
 390              		.fpu softvfp
 391              		.type	chCondBroadcast, %function
 392              	chCondBroadcast:
 393              	.LFB141:
 394              		.loc 1 130 0
 395              		.cfi_startproc
 396              		@ args = 0, pretend = 0, frame = 0
 397              		@ frame_needed = 0, uses_anonymous_args = 0
 398              	.LVL43:
 399 0000 10B5     		push	{r4, lr}
ARM GAS  /var/folders/t8/16hdwfmd2fg_d3q6dgx6bpmw0000gn/T//cc30os3f.s 			page 8


 400              		.cfi_def_cfa_offset 8
 401              		.cfi_offset 4, -8
 402              		.cfi_offset 14, -4
 403              		.loc 1 130 0
 404 0002 0400     		movs	r4, r0
 405              	.LBB118:
 406              	.LBB119:
 407              	.LBB120:
 408              	.LBB121:
 409              	.LBB122:
 410              		.loc 3 71 0
 411              		.syntax divided
 412              	@ 71 "../../tmk_core/tool/chibios/ChibiOS/os/common/ext/CMSIS/include/cmsis_gcc.h" 1
 413 0004 72B6     		cpsid i
 414              	@ 0 "" 2
 415              		.thumb
 416              		.syntax unified
 417              	.LBE122:
 418              	.LBE121:
 419              	.LBE120:
 420              		.loc 4 378 0
 421 0006 FFF7FEFF 		bl	_dbg_check_lock
 422              	.LVL44:
 423              	.LBE119:
 424              	.LBE118:
 425              		.loc 1 133 0
 426 000a 2000     		movs	r0, r4
 427 000c FFF7FEFF 		bl	chCondBroadcastI
 428              	.LVL45:
 429              		.loc 1 134 0
 430 0010 FFF7FEFF 		bl	chSchRescheduleS
 431              	.LVL46:
 432              	.LBB123:
 433              	.LBB124:
 434              		.loc 4 388 0
 435 0014 FFF7FEFF 		bl	_dbg_check_unlock
 436              	.LVL47:
 437              		.loc 4 395 0
 438 0018 074B     		ldr	r3, .L32
 439 001a 1A68     		ldr	r2, [r3]
 440 001c 9A42     		cmp	r2, r3
 441 001e 04D0     		beq	.L30
 442 0020 9B69     		ldr	r3, [r3, #24]
 443 0022 9968     		ldr	r1, [r3, #8]
 444 0024 9368     		ldr	r3, [r2, #8]
 445 0026 9942     		cmp	r1, r3
 446 0028 01D3     		bcc	.L31
 447              	.L30:
 448              	.LBB125:
 449              	.LBB126:
 450              	.LBB127:
 451              		.loc 3 60 0
 452              		.syntax divided
 453              	@ 60 "../../tmk_core/tool/chibios/ChibiOS/os/common/ext/CMSIS/include/cmsis_gcc.h" 1
 454 002a 62B6     		cpsie i
 455              	@ 0 "" 2
 456              		.thumb
ARM GAS  /var/folders/t8/16hdwfmd2fg_d3q6dgx6bpmw0000gn/T//cc30os3f.s 			page 9


 457              		.syntax unified
 458              	.LBE127:
 459              	.LBE126:
 460              	.LBE125:
 461              	.LBE124:
 462              	.LBE123:
 463              		.loc 1 136 0
 464              		@ sp needed
 465              	.LVL48:
 466 002c 10BD     		pop	{r4, pc}
 467              	.LVL49:
 468              	.L31:
 469              	.LBB129:
 470              	.LBB128:
 471              		.loc 4 395 0
 472 002e 0348     		ldr	r0, .L32+4
 473 0030 FFF7FEFF 		bl	chSysHalt
 474              	.LVL50:
 475 0034 F9E7     		b	.L30
 476              	.L33:
 477 0036 C046     		.align	2
 478              	.L32:
 479 0038 00000000 		.word	ch
 480 003c 00000000 		.word	.LANCHOR2
 481              	.LBE128:
 482              	.LBE129:
 483              		.cfi_endproc
 484              	.LFE141:
 485              		.size	chCondBroadcast, .-chCondBroadcast
 486              		.section	.text.chCondWaitS,"ax",%progbits
 487              		.align	1
 488              		.p2align 4,,15
 489              		.global	chCondWaitS
 490              		.syntax unified
 491              		.code	16
 492              		.thumb_func
 493              		.fpu softvfp
 494              		.type	chCondWaitS, %function
 495              	chCondWaitS:
 496              	.LFB144:
 497              		.loc 1 205 0
 498              		.cfi_startproc
 499              		@ args = 0, pretend = 0, frame = 0
 500              		@ frame_needed = 0, uses_anonymous_args = 0
 501              	.LVL51:
 502 0000 70B5     		push	{r4, r5, r6, lr}
 503              		.cfi_def_cfa_offset 16
 504              		.cfi_offset 4, -16
 505              		.cfi_offset 5, -12
 506              		.cfi_offset 6, -8
 507              		.cfi_offset 14, -4
 508              		.loc 1 206 0
 509 0002 194E     		ldr	r6, .L44
 510              		.loc 1 205 0
 511 0004 0500     		movs	r5, r0
 512              		.loc 1 206 0
 513 0006 B469     		ldr	r4, [r6, #24]
ARM GAS  /var/folders/t8/16hdwfmd2fg_d3q6dgx6bpmw0000gn/T//cc30os3f.s 			page 10


 514              	.LVL52:
 515              		.loc 1 210 0
 516 0008 FFF7FEFF 		bl	chDbgCheckClassS
 517              	.LVL53:
 518              		.loc 1 211 0
 519 000c 002D     		cmp	r5, #0
 520 000e 26D0     		beq	.L40
 521              	.L35:
 522              		.loc 1 212 0 discriminator 1
 523 0010 A36B     		ldr	r3, [r4, #56]
 524 0012 002B     		cmp	r3, #0
 525 0014 1FD0     		beq	.L41
 526              	.L36:
 527              	.LBB130:
 528              	.LBB131:
 529              		.file 5 "../../tmk_core/tool/chibios/ChibiOS/os/rt/include/chmtx.h"
 530              		.loc 5 146 0
 531 0016 B369     		ldr	r3, [r6, #24]
 532 0018 9E6B     		ldr	r6, [r3, #56]
 533              	.LBE131:
 534              	.LBE130:
 535              		.loc 1 216 0
 536 001a 3000     		movs	r0, r6
 537 001c FFF7FEFF 		bl	chMtxUnlockS
 538              	.LVL54:
 539              		.loc 1 220 0
 540 0020 6562     		str	r5, [r4, #36]
 541              		.loc 1 221 0
 542 0022 2A00     		movs	r2, r5
 543              	.LVL55:
 544 0024 2B00     		movs	r3, r5
 545 0026 03E0     		b	.L38
 546              	.LVL56:
 547              	.L43:
 548              	.LBB132:
 549              	.LBB133:
 550              		.loc 2 602 0
 551 0028 9968     		ldr	r1, [r3, #8]
 552 002a A068     		ldr	r0, [r4, #8]
 553 002c 8142     		cmp	r1, r0
 554 002e 10D3     		bcc	.L42
 555              	.LVL57:
 556              	.L38:
 557              		.loc 2 601 0
 558 0030 1B68     		ldr	r3, [r3]
 559              	.LVL58:
 560              		.loc 2 602 0
 561 0032 9D42     		cmp	r5, r3
 562 0034 F8D1     		bne	.L43
 563              	.LVL59:
 564              	.L37:
 565              		.loc 2 604 0
 566 0036 5368     		ldr	r3, [r2, #4]
 567              	.LVL60:
 568              		.loc 2 603 0
 569 0038 2260     		str	r2, [r4]
 570              		.loc 2 604 0
ARM GAS  /var/folders/t8/16hdwfmd2fg_d3q6dgx6bpmw0000gn/T//cc30os3f.s 			page 11


 571 003a 6360     		str	r3, [r4, #4]
 572              	.LBE133:
 573              	.LBE132:
 574              		.loc 1 222 0
 575 003c 0720     		movs	r0, #7
 576              	.LBB136:
 577              	.LBB134:
 578              		.loc 2 605 0
 579 003e 1C60     		str	r4, [r3]
 580              		.loc 2 606 0
 581 0040 5460     		str	r4, [r2, #4]
 582              	.LVL61:
 583              	.LBE134:
 584              	.LBE136:
 585              		.loc 1 222 0
 586 0042 FFF7FEFF 		bl	chSchGoSleepS
 587              	.LVL62:
 588              		.loc 1 223 0
 589 0046 646A     		ldr	r4, [r4, #36]
 590              	.LVL63:
 591              		.loc 1 224 0
 592 0048 3000     		movs	r0, r6
 593 004a FFF7FEFF 		bl	chMtxLockS
 594              	.LVL64:
 595              		.loc 1 227 0
 596              		@ sp needed
 597 004e 2000     		movs	r0, r4
 598              	.LVL65:
 599              	.LVL66:
 600 0050 70BD     		pop	{r4, r5, r6, pc}
 601              	.LVL67:
 602              	.L42:
 603              	.LBB137:
 604              	.LBB135:
 605              		.loc 2 601 0
 606 0052 1A00     		movs	r2, r3
 607              	.LVL68:
 608 0054 EFE7     		b	.L37
 609              	.LVL69:
 610              	.L41:
 611              	.LBE135:
 612              	.LBE137:
 613              		.loc 1 212 0 discriminator 2
 614 0056 0548     		ldr	r0, .L44+4
 615 0058 FFF7FEFF 		bl	chSysHalt
 616              	.LVL70:
 617 005c DBE7     		b	.L36
 618              	.L40:
 619              		.loc 1 211 0 discriminator 2
 620 005e 0348     		ldr	r0, .L44+4
 621 0060 FFF7FEFF 		bl	chSysHalt
 622              	.LVL71:
 623 0064 D4E7     		b	.L35
 624              	.L45:
 625 0066 C046     		.align	2
 626              	.L44:
 627 0068 00000000 		.word	ch
ARM GAS  /var/folders/t8/16hdwfmd2fg_d3q6dgx6bpmw0000gn/T//cc30os3f.s 			page 12


 628 006c 00000000 		.word	.LANCHOR5
 629              		.cfi_endproc
 630              	.LFE144:
 631              		.size	chCondWaitS, .-chCondWaitS
 632              		.section	.text.chCondWait,"ax",%progbits
 633              		.align	1
 634              		.p2align 4,,15
 635              		.global	chCondWait
 636              		.syntax unified
 637              		.code	16
 638              		.thumb_func
 639              		.fpu softvfp
 640              		.type	chCondWait, %function
 641              	chCondWait:
 642              	.LFB143:
 643              		.loc 1 179 0
 644              		.cfi_startproc
 645              		@ args = 0, pretend = 0, frame = 0
 646              		@ frame_needed = 0, uses_anonymous_args = 0
 647              	.LVL72:
 648 0000 10B5     		push	{r4, lr}
 649              		.cfi_def_cfa_offset 8
 650              		.cfi_offset 4, -8
 651              		.cfi_offset 14, -4
 652              		.loc 1 179 0
 653 0002 0400     		movs	r4, r0
 654              	.LBB148:
 655              	.LBB149:
 656              	.LBB150:
 657              	.LBB151:
 658              	.LBB152:
 659              		.loc 3 71 0
 660              		.syntax divided
 661              	@ 71 "../../tmk_core/tool/chibios/ChibiOS/os/common/ext/CMSIS/include/cmsis_gcc.h" 1
 662 0004 72B6     		cpsid i
 663              	@ 0 "" 2
 664              		.thumb
 665              		.syntax unified
 666              	.LBE152:
 667              	.LBE151:
 668              	.LBE150:
 669              		.loc 4 378 0
 670 0006 FFF7FEFF 		bl	_dbg_check_lock
 671              	.LVL73:
 672              	.LBE149:
 673              	.LBE148:
 674              		.loc 1 183 0
 675 000a 2000     		movs	r0, r4
 676 000c FFF7FEFF 		bl	chCondWaitS
 677              	.LVL74:
 678 0010 0400     		movs	r4, r0
 679              	.LVL75:
 680              	.LBB153:
 681              	.LBB154:
 682              		.loc 4 388 0
 683 0012 FFF7FEFF 		bl	_dbg_check_unlock
 684              	.LVL76:
ARM GAS  /var/folders/t8/16hdwfmd2fg_d3q6dgx6bpmw0000gn/T//cc30os3f.s 			page 13


 685              		.loc 4 395 0
 686 0016 084B     		ldr	r3, .L49
 687 0018 1A68     		ldr	r2, [r3]
 688 001a 9A42     		cmp	r2, r3
 689 001c 04D0     		beq	.L47
 690 001e 9B69     		ldr	r3, [r3, #24]
 691 0020 9968     		ldr	r1, [r3, #8]
 692 0022 9368     		ldr	r3, [r2, #8]
 693 0024 9942     		cmp	r1, r3
 694 0026 02D3     		bcc	.L48
 695              	.L47:
 696              	.LBB155:
 697              	.LBB156:
 698              	.LBB157:
 699              		.loc 3 60 0
 700              		.syntax divided
 701              	@ 60 "../../tmk_core/tool/chibios/ChibiOS/os/common/ext/CMSIS/include/cmsis_gcc.h" 1
 702 0028 62B6     		cpsie i
 703              	@ 0 "" 2
 704              		.thumb
 705              		.syntax unified
 706              	.LBE157:
 707              	.LBE156:
 708              	.LBE155:
 709              	.LBE154:
 710              	.LBE153:
 711              		.loc 1 186 0
 712 002a 2000     		movs	r0, r4
 713              		@ sp needed
 714              	.LVL77:
 715 002c 10BD     		pop	{r4, pc}
 716              	.LVL78:
 717              	.L48:
 718              	.LBB159:
 719              	.LBB158:
 720              		.loc 4 395 0
 721 002e 0348     		ldr	r0, .L49+4
 722 0030 FFF7FEFF 		bl	chSysHalt
 723              	.LVL79:
 724 0034 F8E7     		b	.L47
 725              	.L50:
 726 0036 C046     		.align	2
 727              	.L49:
 728 0038 00000000 		.word	ch
 729 003c 00000000 		.word	.LANCHOR2
 730              	.LBE158:
 731              	.LBE159:
 732              		.cfi_endproc
 733              	.LFE143:
 734              		.size	chCondWait, .-chCondWait
 735              		.section	.text.chCondWaitTimeoutS,"ax",%progbits
 736              		.align	1
 737              		.p2align 4,,15
 738              		.global	chCondWaitTimeoutS
 739              		.syntax unified
 740              		.code	16
 741              		.thumb_func
ARM GAS  /var/folders/t8/16hdwfmd2fg_d3q6dgx6bpmw0000gn/T//cc30os3f.s 			page 14


 742              		.fpu softvfp
 743              		.type	chCondWaitTimeoutS, %function
 744              	chCondWaitTimeoutS:
 745              	.LFB146:
 746              		.loc 1 296 0
 747              		.cfi_startproc
 748              		@ args = 0, pretend = 0, frame = 0
 749              		@ frame_needed = 0, uses_anonymous_args = 0
 750              	.LVL80:
 751 0000 F8B5     		push	{r3, r4, r5, r6, r7, lr}
 752              		.cfi_def_cfa_offset 24
 753              		.cfi_offset 3, -24
 754              		.cfi_offset 4, -20
 755              		.cfi_offset 5, -16
 756              		.cfi_offset 6, -12
 757              		.cfi_offset 7, -8
 758              		.cfi_offset 14, -4
 759              		.loc 1 296 0
 760 0002 0400     		movs	r4, r0
 761 0004 0F00     		movs	r7, r1
 762              		.loc 1 300 0
 763 0006 FFF7FEFF 		bl	chDbgCheckClassS
 764              	.LVL81:
 765              		.loc 1 301 0
 766 000a 002C     		cmp	r4, #0
 767 000c 26D0     		beq	.L52
 768              		.loc 1 301 0 is_stmt 0 discriminator 3
 769 000e 002F     		cmp	r7, #0
 770 0010 24D0     		beq	.L52
 771              		.loc 1 302 0 is_stmt 1 discriminator 1
 772 0012 1A4E     		ldr	r6, .L68
 773 0014 B369     		ldr	r3, [r6, #24]
 774 0016 9D6B     		ldr	r5, [r3, #56]
 775 0018 002D     		cmp	r5, #0
 776 001a 27D0     		beq	.L65
 777              	.L54:
 778              		.loc 1 306 0
 779 001c 2800     		movs	r0, r5
 780 001e FFF7FEFF 		bl	chMtxUnlockS
 781              	.LVL82:
 782              		.loc 1 310 0
 783 0022 B269     		ldr	r2, [r6, #24]
 784              		.loc 1 311 0
 785 0024 2100     		movs	r1, r4
 786              	.LVL83:
 787              		.loc 1 310 0
 788 0026 5462     		str	r4, [r2, #36]
 789              		.loc 1 311 0
 790 0028 2300     		movs	r3, r4
 791 002a 03E0     		b	.L56
 792              	.LVL84:
 793              	.L67:
 794              	.LBB160:
 795              	.LBB161:
 796              		.loc 2 602 0
 797 002c 9868     		ldr	r0, [r3, #8]
 798 002e 9668     		ldr	r6, [r2, #8]
ARM GAS  /var/folders/t8/16hdwfmd2fg_d3q6dgx6bpmw0000gn/T//cc30os3f.s 			page 15


 799 0030 B042     		cmp	r0, r6
 800 0032 21D3     		bcc	.L66
 801              	.LVL85:
 802              	.L56:
 803              		.loc 2 601 0
 804 0034 1B68     		ldr	r3, [r3]
 805              	.LVL86:
 806              		.loc 2 602 0
 807 0036 9C42     		cmp	r4, r3
 808 0038 F8D1     		bne	.L67
 809              	.LVL87:
 810              	.L55:
 811              		.loc 2 604 0
 812 003a 4B68     		ldr	r3, [r1, #4]
 813              	.LVL88:
 814              		.loc 2 603 0
 815 003c 1160     		str	r1, [r2]
 816              		.loc 2 604 0
 817 003e 5360     		str	r3, [r2, #4]
 818              	.LBE161:
 819              	.LBE160:
 820              		.loc 1 312 0
 821 0040 0720     		movs	r0, #7
 822              	.LBB164:
 823              	.LBB162:
 824              		.loc 2 605 0
 825 0042 1A60     		str	r2, [r3]
 826              		.loc 2 606 0
 827 0044 4A60     		str	r2, [r1, #4]
 828              	.LVL89:
 829              	.LBE162:
 830              	.LBE164:
 831              		.loc 1 312 0
 832 0046 3900     		movs	r1, r7
 833 0048 FFF7FEFF 		bl	chSchGoSleepTimeoutS
 834              	.LVL90:
 835 004c 0400     		movs	r4, r0
 836              	.LVL91:
 837              		.loc 1 313 0
 838 004e 431C     		adds	r3, r0, #1
 839 0050 02D0     		beq	.L51
 840              		.loc 1 314 0
 841 0052 2800     		movs	r0, r5
 842              	.LVL92:
 843 0054 FFF7FEFF 		bl	chMtxLockS
 844              	.LVL93:
 845              	.L51:
 846              		.loc 1 318 0
 847 0058 2000     		movs	r0, r4
 848              		@ sp needed
 849              	.LVL94:
 850              	.LVL95:
 851 005a F8BD     		pop	{r3, r4, r5, r6, r7, pc}
 852              	.LVL96:
 853              	.L52:
 854              		.loc 1 301 0 discriminator 4
 855 005c 0848     		ldr	r0, .L68+4
ARM GAS  /var/folders/t8/16hdwfmd2fg_d3q6dgx6bpmw0000gn/T//cc30os3f.s 			page 16


 856 005e FFF7FEFF 		bl	chSysHalt
 857              	.LVL97:
 858              		.loc 1 302 0 discriminator 4
 859 0062 064E     		ldr	r6, .L68
 860 0064 B369     		ldr	r3, [r6, #24]
 861 0066 9D6B     		ldr	r5, [r3, #56]
 862 0068 002D     		cmp	r5, #0
 863 006a D7D1     		bne	.L54
 864              	.L65:
 865              		.loc 1 302 0 is_stmt 0 discriminator 2
 866 006c 0448     		ldr	r0, .L68+4
 867 006e FFF7FEFF 		bl	chSysHalt
 868              	.LVL98:
 869 0072 B369     		ldr	r3, [r6, #24]
 870 0074 9D6B     		ldr	r5, [r3, #56]
 871 0076 D1E7     		b	.L54
 872              	.LVL99:
 873              	.L66:
 874              	.LBB165:
 875              	.LBB163:
 876              		.loc 2 601 0 is_stmt 1
 877 0078 1900     		movs	r1, r3
 878              	.LVL100:
 879 007a DEE7     		b	.L55
 880              	.L69:
 881              		.align	2
 882              	.L68:
 883 007c 00000000 		.word	ch
 884 0080 00000000 		.word	.LANCHOR6
 885              	.LBE163:
 886              	.LBE165:
 887              		.cfi_endproc
 888              	.LFE146:
 889              		.size	chCondWaitTimeoutS, .-chCondWaitTimeoutS
 890              		.section	.text.chCondWaitTimeout,"ax",%progbits
 891              		.align	1
 892              		.p2align 4,,15
 893              		.global	chCondWaitTimeout
 894              		.syntax unified
 895              		.code	16
 896              		.thumb_func
 897              		.fpu softvfp
 898              		.type	chCondWaitTimeout, %function
 899              	chCondWaitTimeout:
 900              	.LFB145:
 901              		.loc 1 258 0
 902              		.cfi_startproc
 903              		@ args = 0, pretend = 0, frame = 0
 904              		@ frame_needed = 0, uses_anonymous_args = 0
 905              	.LVL101:
 906 0000 70B5     		push	{r4, r5, r6, lr}
 907              		.cfi_def_cfa_offset 16
 908              		.cfi_offset 4, -16
 909              		.cfi_offset 5, -12
 910              		.cfi_offset 6, -8
 911              		.cfi_offset 14, -4
 912              		.loc 1 258 0
ARM GAS  /var/folders/t8/16hdwfmd2fg_d3q6dgx6bpmw0000gn/T//cc30os3f.s 			page 17


 913 0002 0400     		movs	r4, r0
 914 0004 0D00     		movs	r5, r1
 915              	.LBB176:
 916              	.LBB177:
 917              	.LBB178:
 918              	.LBB179:
 919              	.LBB180:
 920              		.loc 3 71 0
 921              		.syntax divided
 922              	@ 71 "../../tmk_core/tool/chibios/ChibiOS/os/common/ext/CMSIS/include/cmsis_gcc.h" 1
 923 0006 72B6     		cpsid i
 924              	@ 0 "" 2
 925              		.thumb
 926              		.syntax unified
 927              	.LBE180:
 928              	.LBE179:
 929              	.LBE178:
 930              		.loc 4 378 0
 931 0008 FFF7FEFF 		bl	_dbg_check_lock
 932              	.LVL102:
 933              	.LBE177:
 934              	.LBE176:
 935              		.loc 1 262 0
 936 000c 2900     		movs	r1, r5
 937 000e 2000     		movs	r0, r4
 938 0010 FFF7FEFF 		bl	chCondWaitTimeoutS
 939              	.LVL103:
 940 0014 0400     		movs	r4, r0
 941              	.LVL104:
 942              	.LBB181:
 943              	.LBB182:
 944              		.loc 4 388 0
 945 0016 FFF7FEFF 		bl	_dbg_check_unlock
 946              	.LVL105:
 947              		.loc 4 395 0
 948 001a 084B     		ldr	r3, .L73
 949 001c 1A68     		ldr	r2, [r3]
 950 001e 9A42     		cmp	r2, r3
 951 0020 04D0     		beq	.L71
 952 0022 9B69     		ldr	r3, [r3, #24]
 953 0024 9968     		ldr	r1, [r3, #8]
 954 0026 9368     		ldr	r3, [r2, #8]
 955 0028 9942     		cmp	r1, r3
 956 002a 02D3     		bcc	.L72
 957              	.L71:
 958              	.LBB183:
 959              	.LBB184:
 960              	.LBB185:
 961              		.loc 3 60 0
 962              		.syntax divided
 963              	@ 60 "../../tmk_core/tool/chibios/ChibiOS/os/common/ext/CMSIS/include/cmsis_gcc.h" 1
 964 002c 62B6     		cpsie i
 965              	@ 0 "" 2
 966              		.thumb
 967              		.syntax unified
 968              	.LBE185:
 969              	.LBE184:
ARM GAS  /var/folders/t8/16hdwfmd2fg_d3q6dgx6bpmw0000gn/T//cc30os3f.s 			page 18


 970              	.LBE183:
 971              	.LBE182:
 972              	.LBE181:
 973              		.loc 1 266 0
 974 002e 2000     		movs	r0, r4
 975              		@ sp needed
 976              	.LVL106:
 977              	.LVL107:
 978 0030 70BD     		pop	{r4, r5, r6, pc}
 979              	.LVL108:
 980              	.L72:
 981              	.LBB187:
 982              	.LBB186:
 983              		.loc 4 395 0
 984 0032 0348     		ldr	r0, .L73+4
 985 0034 FFF7FEFF 		bl	chSysHalt
 986              	.LVL109:
 987 0038 F8E7     		b	.L71
 988              	.L74:
 989 003a C046     		.align	2
 990              	.L73:
 991 003c 00000000 		.word	ch
 992 0040 00000000 		.word	.LANCHOR2
 993              	.LBE186:
 994              	.LBE187:
 995              		.cfi_endproc
 996              	.LFE145:
 997              		.size	chCondWaitTimeout, .-chCondWaitTimeout
 998              		.section	.rodata.__func__.5043,"a",%progbits
 999              		.align	2
 1000              		.set	.LANCHOR2,. + 0
 1001              		.type	__func__.5043, %object
 1002              		.size	__func__.5043, 12
 1003              	__func__.5043:
 1004 0000 63685379 		.ascii	"chSysUnlock\000"
 1004      73556E6C 
 1004      6F636B00 
 1005              		.section	.rodata.__func__.5717,"a",%progbits
 1006              		.align	2
 1007              		.set	.LANCHOR0,. + 0
 1008              		.type	__func__.5717, %object
 1009              		.size	__func__.5717, 17
 1010              	__func__.5717:
 1011 0000 6368436F 		.ascii	"chCondObjectInit\000"
 1011      6E644F62 
 1011      6A656374 
 1011      496E6974 
 1011      00
 1012              		.section	.rodata.__func__.5721,"a",%progbits
 1013              		.align	2
 1014              		.set	.LANCHOR1,. + 0
 1015              		.type	__func__.5721, %object
 1016              		.size	__func__.5721, 13
 1017              	__func__.5721:
 1018 0000 6368436F 		.ascii	"chCondSignal\000"
 1018      6E645369 
 1018      676E616C 
ARM GAS  /var/folders/t8/16hdwfmd2fg_d3q6dgx6bpmw0000gn/T//cc30os3f.s 			page 19


 1018      00
 1019              		.section	.rodata.__func__.5725,"a",%progbits
 1020              		.align	2
 1021              		.set	.LANCHOR3,. + 0
 1022              		.type	__func__.5725, %object
 1023              		.size	__func__.5725, 14
 1024              	__func__.5725:
 1025 0000 6368436F 		.ascii	"chCondSignalI\000"
 1025      6E645369 
 1025      676E616C 
 1025      4900
 1026              		.section	.rodata.__func__.5733,"a",%progbits
 1027              		.align	2
 1028              		.set	.LANCHOR4,. + 0
 1029              		.type	__func__.5733, %object
 1030              		.size	__func__.5733, 17
 1031              	__func__.5733:
 1032 0000 6368436F 		.ascii	"chCondBroadcastI\000"
 1032      6E644272 
 1032      6F616463 
 1032      61737449 
 1032      00
 1033              		.section	.rodata.__func__.5747,"a",%progbits
 1034              		.align	2
 1035              		.set	.LANCHOR5,. + 0
 1036              		.type	__func__.5747, %object
 1037              		.size	__func__.5747, 12
 1038              	__func__.5747:
 1039 0000 6368436F 		.ascii	"chCondWaitS\000"
 1039      6E645761 
 1039      69745300 
 1040              		.section	.rodata.__func__.5759,"a",%progbits
 1041              		.align	2
 1042              		.set	.LANCHOR6,. + 0
 1043              		.type	__func__.5759, %object
 1044              		.size	__func__.5759, 19
 1045              	__func__.5759:
 1046 0000 6368436F 		.ascii	"chCondWaitTimeoutS\000"
 1046      6E645761 
 1046      69745469 
 1046      6D656F75 
 1046      745300
 1047              		.text
 1048              	.Letext0:
 1049              		.file 6 "/usr/local/Caskroom/gcc-arm-embedded/7-2017-q4-major/gcc-arm-none-eabi-7-2017-q4-major/ar
 1050              		.file 7 "/usr/local/Caskroom/gcc-arm-embedded/7-2017-q4-major/gcc-arm-none-eabi-7-2017-q4-major/ar
 1051              		.file 8 "../../tmk_core/tool/chibios/ChibiOS/os/common/ports/ARMCMx/compilers/GCC/chtypes.h"
 1052              		.file 9 "../../tmk_core/tool/chibios/ChibiOS/os/rt/include/chsystypes.h"
 1053              		.file 10 "../../tmk_core/tool/chibios/ChibiOS/os/common/ports/ARMCMx/chcore.h"
 1054              		.file 11 "../../tmk_core/tool/chibios/ChibiOS/os/common/ports/ARMCMx/chcore_v6m.h"
 1055              		.file 12 "../../tmk_core/tool/chibios/ChibiOS/os/rt/include/chsem.h"
 1056              		.file 13 "../../tmk_core/tool/chibios/ChibiOS/os/rt/include/chregistry.h"
 1057              		.file 14 "../../tmk_core/tool/chibios/ChibiOS/os/rt/include/chcond.h"
 1058              		.file 15 "../../tmk_core/tool/chibios/ChibiOS/os/rt/include/chthreads.h"
 1059              		.file 16 "../../tmk_core/tool/chibios/ChibiOS/os/rt/include/chdebug.h"