ARM GAS  /var/folders/t8/16hdwfmd2fg_d3q6dgx6bpmw0000gn/T//ccop2MDO.s 			page 1


   1              		.cpu cortex-m0plus
   2              		.eabi_attribute 20, 1
   3              		.eabi_attribute 21, 1
   4              		.eabi_attribute 23, 3
   5              		.eabi_attribute 24, 1
   6              		.eabi_attribute 25, 1
   7              		.eabi_attribute 26, 1
   8              		.eabi_attribute 30, 2
   9              		.eabi_attribute 34, 0
  10              		.eabi_attribute 18, 4
  11              		.file	"chcore_v6m.c"
  12              		.text
  13              	.Ltext0:
  14              		.cfi_sections	.debug_frame
  15              		.section	.text.NMI_Handler,"ax",%progbits
  16              		.align	1
  17              		.p2align 4,,15
  18              		.global	NMI_Handler
  19              		.syntax unified
  20              		.code	16
  21              		.thumb_func
  22              		.fpu softvfp
  23              		.type	NMI_Handler, %function
  24              	NMI_Handler:
  25              	.LFB138:
  26              		.file 1 "../../tmk_core/tool/chibios/ChibiOS/os/common/ports/ARMCMx/chcore_v6m.c"
  27              		.loc 1 61 0
  28              		.cfi_startproc
  29              		@ args = 0, pretend = 0, frame = 0
  30              		@ frame_needed = 1, uses_anonymous_args = 0
  31 0000 80B5     		push	{r7, lr}
  32              		.cfi_def_cfa_offset 8
  33              		.cfi_offset 7, -8
  34              		.cfi_offset 14, -4
  35 0002 00AF     		add	r7, sp, #0
  36              		.cfi_def_cfa_register 7
  37              	.LBB42:
  38              	.LBB43:
  39              		.file 2 "../../tmk_core/tool/chibios/ChibiOS/os/common/ext/CMSIS/include/cmsis_gcc.h"
  40              		.loc 2 152 0
  41              		.syntax divided
  42              	@ 152 "../../tmk_core/tool/chibios/ChibiOS/os/common/ext/CMSIS/include/cmsis_gcc.h" 1
  43 0004 EFF30983 		MRS r3, psp
  44              	
  45              	@ 0 "" 2
  46              	.LVL0:
  47              		.thumb
  48              		.syntax unified
  49              	.LBE43:
  50              	.LBE42:
  51              		.loc 1 69 0
  52 0008 2033     		adds	r3, r3, #32
  53              	.LVL1:
  54              	.LBB44:
  55              	.LBB45:
  56              		.loc 2 164 0
  57              		.syntax divided
ARM GAS  /var/folders/t8/16hdwfmd2fg_d3q6dgx6bpmw0000gn/T//ccop2MDO.s 			page 2


  58              	@ 164 "../../tmk_core/tool/chibios/ChibiOS/os/common/ext/CMSIS/include/cmsis_gcc.h" 1
  59 000a 83F30988 		MSR psp, r3
  60              	
  61              	@ 0 "" 2
  62              	.LVL2:
  63              		.thumb
  64              		.syntax unified
  65              	.LBE45:
  66              	.LBE44:
  67              	.LBB46:
  68              	.LBB47:
  69              	.LBB48:
  70              	.LBB49:
  71              		.loc 2 60 0
  72              		.syntax divided
  73              	@ 60 "../../tmk_core/tool/chibios/ChibiOS/os/common/ext/CMSIS/include/cmsis_gcc.h" 1
  74 000e 62B6     		cpsie i
  75              	@ 0 "" 2
  76              		.thumb
  77              		.syntax unified
  78              	.LBE49:
  79              	.LBE48:
  80              	.LBE47:
  81              	.LBE46:
  82              		.loc 1 76 0
  83 0010 BD46     		mov	sp, r7
  84              		@ sp needed
  85 0012 80BD     		pop	{r7, pc}
  86              		.cfi_endproc
  87              	.LFE138:
  88              		.size	NMI_Handler, .-NMI_Handler
  89              		.section	.text._port_irq_epilogue,"ax",%progbits
  90              		.align	1
  91              		.p2align 4,,15
  92              		.global	_port_irq_epilogue
  93              		.syntax unified
  94              		.code	16
  95              		.thumb_func
  96              		.fpu softvfp
  97              		.type	_port_irq_epilogue, %function
  98              	_port_irq_epilogue:
  99              	.LFB139:
 100              		.loc 1 110 0
 101              		.cfi_startproc
 102              		@ args = 0, pretend = 0, frame = 0
 103              		@ frame_needed = 1, uses_anonymous_args = 0
 104              	.LVL3:
 105 0000 B0B5     		push	{r4, r5, r7, lr}
 106              		.cfi_def_cfa_offset 16
 107              		.cfi_offset 4, -16
 108              		.cfi_offset 5, -12
 109              		.cfi_offset 7, -8
 110              		.cfi_offset 14, -4
 111 0002 00AF     		add	r7, sp, #0
 112              		.cfi_def_cfa_register 7
 113              		.loc 1 112 0
 114 0004 0F30     		adds	r0, r0, #15
ARM GAS  /var/folders/t8/16hdwfmd2fg_d3q6dgx6bpmw0000gn/T//ccop2MDO.s 			page 3


 115 0006 0ED0     		beq	.L3
 116              	.LVL4:
 117              	.LBB50:
 118              	.LBB51:
 119              	.LBB52:
 120              	.LBB53:
 121              	.LBB54:
 122              		.loc 2 71 0
 123              		.syntax divided
 124              	@ 71 "../../tmk_core/tool/chibios/ChibiOS/os/common/ext/CMSIS/include/cmsis_gcc.h" 1
 125 0008 72B6     		cpsid i
 126              	@ 0 "" 2
 127              		.thumb
 128              		.syntax unified
 129              	.LBE54:
 130              	.LBE53:
 131              	.LBE52:
 132              	.LBE51:
 133              	.LBB55:
 134              	.LBB56:
 135              		.loc 2 152 0
 136              		.syntax divided
 137              	@ 152 "../../tmk_core/tool/chibios/ChibiOS/os/common/ext/CMSIS/include/cmsis_gcc.h" 1
 138 000a EFF30984 		MRS r4, psp
 139              	
 140              	@ 0 "" 2
 141              	.LVL5:
 142              		.thumb
 143              		.syntax unified
 144              	.LBE56:
 145              	.LBE55:
 146              		.loc 1 122 0
 147 000e 203C     		subs	r4, r4, #32
 148              	.LVL6:
 149              	.LBB57:
 150              	.LBB58:
 151              		.loc 2 164 0
 152              		.syntax divided
 153              	@ 164 "../../tmk_core/tool/chibios/ChibiOS/os/common/ext/CMSIS/include/cmsis_gcc.h" 1
 154 0010 84F30988 		MSR psp, r4
 155              	
 156              	@ 0 "" 2
 157              	.LVL7:
 158              		.thumb
 159              		.syntax unified
 160              	.LBE58:
 161              	.LBE57:
 162              		.loc 1 128 0
 163 0014 8023     		movs	r3, #128
 164 0016 5B04     		lsls	r3, r3, #17
 165 0018 E361     		str	r3, [r4, #28]
 166              		.loc 1 132 0
 167 001a FFF7FEFF 		bl	chSchIsPreemptionRequired
 168              	.LVL8:
 169 001e 0028     		cmp	r0, #0
 170 0020 03D1     		bne	.L9
 171              		.loc 1 139 0
ARM GAS  /var/folders/t8/16hdwfmd2fg_d3q6dgx6bpmw0000gn/T//ccop2MDO.s 			page 4


 172 0022 034B     		ldr	r3, .L10
 173 0024 A361     		str	r3, [r4, #24]
 174              	.LVL9:
 175              	.L3:
 176              	.LBE50:
 177              		.loc 1 145 0
 178 0026 BD46     		mov	sp, r7
 179              		@ sp needed
 180 0028 B0BD     		pop	{r4, r5, r7, pc}
 181              	.LVL10:
 182              	.L9:
 183              	.LBB59:
 184              		.loc 1 134 0
 185 002a 024B     		ldr	r3, .L10+4
 186 002c A361     		str	r3, [r4, #24]
 187 002e FAE7     		b	.L3
 188              	.L11:
 189              		.align	2
 190              	.L10:
 191 0030 00000000 		.word	_port_exit_from_isr
 192 0034 00000000 		.word	_port_switch_from_isr
 193              	.LBE59:
 194              		.cfi_endproc
 195              	.LFE139:
 196              		.size	_port_irq_epilogue, .-_port_irq_epilogue
 197              		.text
 198              	.Letext0:
 199              		.file 3 "/usr/local/Caskroom/gcc-arm-embedded/7-2017-q4-major/gcc-arm-none-eabi-7-2017-q4-major/ar
 200              		.file 4 "/usr/local/Caskroom/gcc-arm-embedded/7-2017-q4-major/gcc-arm-none-eabi-7-2017-q4-major/ar
 201              		.file 5 "../../tmk_core/tool/chibios/ChibiOS/os/common/ports/ARMCMx/compilers/GCC/chtypes.h"
 202              		.file 6 "../../tmk_core/tool/chibios/ChibiOS/os/rt/include/chsystypes.h"
 203              		.file 7 "../../tmk_core/tool/chibios/ChibiOS/os/rt/include/chschd.h"
 204              		.file 8 "../../tmk_core/tool/chibios/ChibiOS/os/common/ports/ARMCMx/chcore.h"
 205              		.file 9 "../../tmk_core/tool/chibios/ChibiOS/os/common/ports/ARMCMx/chcore_v6m.h"
 206              		.file 10 "../../tmk_core/tool/chibios/ChibiOS/os/rt/include/chsem.h"
 207              		.file 11 "../../tmk_core/tool/chibios/ChibiOS/os/rt/include/chmtx.h"
 208              		.file 12 "../../tmk_core/tool/chibios/ChibiOS/os/rt/include/chregistry.h"
 209              		.file 13 "../../tmk_core/tool/chibios/ChibiOS/os/rt/include/chsys.h"