ARM GAS  /var/folders/t8/16hdwfmd2fg_d3q6dgx6bpmw0000gn/T//ccc8Synq.s 			page 1


   1              		.cpu cortex-m0plus
   2              		.eabi_attribute 20, 1
   3              		.eabi_attribute 21, 1
   4              		.eabi_attribute 23, 3
   5              		.eabi_attribute 24, 1
   6              		.eabi_attribute 25, 1
   7              		.eabi_attribute 26, 1
   8              		.eabi_attribute 30, 2
   9              		.eabi_attribute 34, 0
  10              		.eabi_attribute 18, 4
  11              		.file	"chdebug.c"
  12              		.text
  13              	.Ltext0:
  14              		.cfi_sections	.debug_frame
  15              		.section	.text._dbg_check_disable,"ax",%progbits
  16              		.align	1
  17              		.p2align 4,,15
  18              		.global	_dbg_check_disable
  19              		.syntax unified
  20              		.code	16
  21              		.thumb_func
  22              		.fpu softvfp
  23              		.type	_dbg_check_disable, %function
  24              	_dbg_check_disable:
  25              	.LFB138:
  26              		.file 1 "../../tmk_core/tool/chibios/ChibiOS/os/rt/src/chdebug.c"
  27              		.loc 1 114 0
  28              		.cfi_startproc
  29              		@ args = 0, pretend = 0, frame = 0
  30              		@ frame_needed = 0, uses_anonymous_args = 0
  31              		.loc 1 116 0
  32 0000 054B     		ldr	r3, .L8
  33              		.loc 1 114 0
  34 0002 10B5     		push	{r4, lr}
  35              		.cfi_def_cfa_offset 8
  36              		.cfi_offset 4, -8
  37              		.cfi_offset 14, -4
  38              		.loc 1 116 0
  39 0004 1A6B     		ldr	r2, [r3, #48]
  40 0006 002A     		cmp	r2, #0
  41 0008 02D1     		bne	.L2
  42              		.loc 1 116 0 is_stmt 0 discriminator 1
  43 000a 5B6B     		ldr	r3, [r3, #52]
  44 000c 002B     		cmp	r3, #0
  45 000e 02D0     		beq	.L1
  46              	.L2:
  47              		.loc 1 117 0 is_stmt 1
  48 0010 0248     		ldr	r0, .L8+4
  49 0012 FFF7FEFF 		bl	chSysHalt
  50              	.LVL0:
  51              	.L1:
  52              		.loc 1 119 0
  53              		@ sp needed
  54 0016 10BD     		pop	{r4, pc}
  55              	.L9:
  56              		.align	2
  57              	.L8:
ARM GAS  /var/folders/t8/16hdwfmd2fg_d3q6dgx6bpmw0000gn/T//ccc8Synq.s 			page 2


  58 0018 00000000 		.word	ch
  59 001c 00000000 		.word	.LC1
  60              		.cfi_endproc
  61              	.LFE138:
  62              		.size	_dbg_check_disable, .-_dbg_check_disable
  63              		.section	.text._dbg_check_suspend,"ax",%progbits
  64              		.align	1
  65              		.p2align 4,,15
  66              		.global	_dbg_check_suspend
  67              		.syntax unified
  68              		.code	16
  69              		.thumb_func
  70              		.fpu softvfp
  71              		.type	_dbg_check_suspend, %function
  72              	_dbg_check_suspend:
  73              	.LFB139:
  74              		.loc 1 126 0
  75              		.cfi_startproc
  76              		@ args = 0, pretend = 0, frame = 0
  77              		@ frame_needed = 0, uses_anonymous_args = 0
  78              		.loc 1 128 0
  79 0000 054B     		ldr	r3, .L16
  80              		.loc 1 126 0
  81 0002 10B5     		push	{r4, lr}
  82              		.cfi_def_cfa_offset 8
  83              		.cfi_offset 4, -8
  84              		.cfi_offset 14, -4
  85              		.loc 1 128 0
  86 0004 1A6B     		ldr	r2, [r3, #48]
  87 0006 002A     		cmp	r2, #0
  88 0008 02D1     		bne	.L11
  89              		.loc 1 128 0 is_stmt 0 discriminator 1
  90 000a 5B6B     		ldr	r3, [r3, #52]
  91 000c 002B     		cmp	r3, #0
  92 000e 02D0     		beq	.L10
  93              	.L11:
  94              		.loc 1 129 0 is_stmt 1
  95 0010 0248     		ldr	r0, .L16+4
  96 0012 FFF7FEFF 		bl	chSysHalt
  97              	.LVL1:
  98              	.L10:
  99              		.loc 1 131 0
 100              		@ sp needed
 101 0016 10BD     		pop	{r4, pc}
 102              	.L17:
 103              		.align	2
 104              	.L16:
 105 0018 00000000 		.word	ch
 106 001c 00000000 		.word	.LC4
 107              		.cfi_endproc
 108              	.LFE139:
 109              		.size	_dbg_check_suspend, .-_dbg_check_suspend
 110              		.section	.text._dbg_check_enable,"ax",%progbits
 111              		.align	1
 112              		.p2align 4,,15
 113              		.global	_dbg_check_enable
 114              		.syntax unified
ARM GAS  /var/folders/t8/16hdwfmd2fg_d3q6dgx6bpmw0000gn/T//ccc8Synq.s 			page 3


 115              		.code	16
 116              		.thumb_func
 117              		.fpu softvfp
 118              		.type	_dbg_check_enable, %function
 119              	_dbg_check_enable:
 120              	.LFB140:
 121              		.loc 1 138 0
 122              		.cfi_startproc
 123              		@ args = 0, pretend = 0, frame = 0
 124              		@ frame_needed = 0, uses_anonymous_args = 0
 125              		.loc 1 140 0
 126 0000 054B     		ldr	r3, .L24
 127              		.loc 1 138 0
 128 0002 10B5     		push	{r4, lr}
 129              		.cfi_def_cfa_offset 8
 130              		.cfi_offset 4, -8
 131              		.cfi_offset 14, -4
 132              		.loc 1 140 0
 133 0004 1A6B     		ldr	r2, [r3, #48]
 134 0006 002A     		cmp	r2, #0
 135 0008 02D1     		bne	.L19
 136              		.loc 1 140 0 is_stmt 0 discriminator 1
 137 000a 5B6B     		ldr	r3, [r3, #52]
 138 000c 002B     		cmp	r3, #0
 139 000e 02D0     		beq	.L18
 140              	.L19:
 141              		.loc 1 141 0 is_stmt 1
 142 0010 0248     		ldr	r0, .L24+4
 143 0012 FFF7FEFF 		bl	chSysHalt
 144              	.LVL2:
 145              	.L18:
 146              		.loc 1 143 0
 147              		@ sp needed
 148 0016 10BD     		pop	{r4, pc}
 149              	.L25:
 150              		.align	2
 151              	.L24:
 152 0018 00000000 		.word	ch
 153 001c 00000000 		.word	.LC7
 154              		.cfi_endproc
 155              	.LFE140:
 156              		.size	_dbg_check_enable, .-_dbg_check_enable
 157              		.section	.text._dbg_check_lock,"ax",%progbits
 158              		.align	1
 159              		.p2align 4,,15
 160              		.global	_dbg_check_lock
 161              		.syntax unified
 162              		.code	16
 163              		.thumb_func
 164              		.fpu softvfp
 165              		.type	_dbg_check_lock, %function
 166              	_dbg_check_lock:
 167              	.LFB141:
 168              		.loc 1 150 0
 169              		.cfi_startproc
 170              		@ args = 0, pretend = 0, frame = 0
 171              		@ frame_needed = 0, uses_anonymous_args = 0
ARM GAS  /var/folders/t8/16hdwfmd2fg_d3q6dgx6bpmw0000gn/T//ccc8Synq.s 			page 4


 172 0000 10B5     		push	{r4, lr}
 173              		.cfi_def_cfa_offset 8
 174              		.cfi_offset 4, -8
 175              		.cfi_offset 14, -4
 176              		.loc 1 152 0
 177 0002 064C     		ldr	r4, .L32
 178 0004 236B     		ldr	r3, [r4, #48]
 179 0006 002B     		cmp	r3, #0
 180 0008 02D1     		bne	.L27
 181              		.loc 1 152 0 is_stmt 0 discriminator 1
 182 000a 636B     		ldr	r3, [r4, #52]
 183 000c 002B     		cmp	r3, #0
 184 000e 02D0     		beq	.L28
 185              	.L27:
 186              		.loc 1 153 0 is_stmt 1
 187 0010 0348     		ldr	r0, .L32+4
 188 0012 FFF7FEFF 		bl	chSysHalt
 189              	.LVL3:
 190              	.L28:
 191              		.loc 1 155 0
 192 0016 0123     		movs	r3, #1
 193              		.loc 1 156 0
 194              		@ sp needed
 195              		.loc 1 155 0
 196 0018 6363     		str	r3, [r4, #52]
 197              		.loc 1 156 0
 198 001a 10BD     		pop	{r4, pc}
 199              	.L33:
 200              		.align	2
 201              	.L32:
 202 001c 00000000 		.word	ch
 203 0020 00000000 		.word	.LC10
 204              		.cfi_endproc
 205              	.LFE141:
 206              		.size	_dbg_check_lock, .-_dbg_check_lock
 207              		.section	.text._dbg_check_unlock,"ax",%progbits
 208              		.align	1
 209              		.p2align 4,,15
 210              		.global	_dbg_check_unlock
 211              		.syntax unified
 212              		.code	16
 213              		.thumb_func
 214              		.fpu softvfp
 215              		.type	_dbg_check_unlock, %function
 216              	_dbg_check_unlock:
 217              	.LFB142:
 218              		.loc 1 163 0
 219              		.cfi_startproc
 220              		@ args = 0, pretend = 0, frame = 0
 221              		@ frame_needed = 0, uses_anonymous_args = 0
 222 0000 10B5     		push	{r4, lr}
 223              		.cfi_def_cfa_offset 8
 224              		.cfi_offset 4, -8
 225              		.cfi_offset 14, -4
 226              		.loc 1 165 0
 227 0002 074C     		ldr	r4, .L37
 228 0004 236B     		ldr	r3, [r4, #48]
ARM GAS  /var/folders/t8/16hdwfmd2fg_d3q6dgx6bpmw0000gn/T//ccc8Synq.s 			page 5


 229 0006 002B     		cmp	r3, #0
 230 0008 05D1     		bne	.L35
 231              		.loc 1 165 0 is_stmt 0 discriminator 1
 232 000a 636B     		ldr	r3, [r4, #52]
 233 000c 002B     		cmp	r3, #0
 234 000e 02DD     		ble	.L35
 235              	.L36:
 236              		.loc 1 168 0 is_stmt 1
 237 0010 0023     		movs	r3, #0
 238              		.loc 1 169 0
 239              		@ sp needed
 240              		.loc 1 168 0
 241 0012 6363     		str	r3, [r4, #52]
 242              		.loc 1 169 0
 243 0014 10BD     		pop	{r4, pc}
 244              	.L35:
 245              		.loc 1 166 0
 246 0016 0348     		ldr	r0, .L37+4
 247 0018 FFF7FEFF 		bl	chSysHalt
 248              	.LVL4:
 249 001c F8E7     		b	.L36
 250              	.L38:
 251 001e C046     		.align	2
 252              	.L37:
 253 0020 00000000 		.word	ch
 254 0024 00000000 		.word	.LC13
 255              		.cfi_endproc
 256              	.LFE142:
 257              		.size	_dbg_check_unlock, .-_dbg_check_unlock
 258              		.section	.text._dbg_check_lock_from_isr,"ax",%progbits
 259              		.align	1
 260              		.p2align 4,,15
 261              		.global	_dbg_check_lock_from_isr
 262              		.syntax unified
 263              		.code	16
 264              		.thumb_func
 265              		.fpu softvfp
 266              		.type	_dbg_check_lock_from_isr, %function
 267              	_dbg_check_lock_from_isr:
 268              	.LFB143:
 269              		.loc 1 176 0
 270              		.cfi_startproc
 271              		@ args = 0, pretend = 0, frame = 0
 272              		@ frame_needed = 0, uses_anonymous_args = 0
 273 0000 10B5     		push	{r4, lr}
 274              		.cfi_def_cfa_offset 8
 275              		.cfi_offset 4, -8
 276              		.cfi_offset 14, -4
 277              		.loc 1 178 0
 278 0002 064C     		ldr	r4, .L45
 279 0004 236B     		ldr	r3, [r4, #48]
 280 0006 002B     		cmp	r3, #0
 281 0008 02DD     		ble	.L40
 282              		.loc 1 178 0 is_stmt 0 discriminator 1
 283 000a 636B     		ldr	r3, [r4, #52]
 284 000c 002B     		cmp	r3, #0
 285 000e 02D0     		beq	.L41
ARM GAS  /var/folders/t8/16hdwfmd2fg_d3q6dgx6bpmw0000gn/T//ccc8Synq.s 			page 6


 286              	.L40:
 287              		.loc 1 179 0 is_stmt 1
 288 0010 0348     		ldr	r0, .L45+4
 289 0012 FFF7FEFF 		bl	chSysHalt
 290              	.LVL5:
 291              	.L41:
 292              		.loc 1 181 0
 293 0016 0123     		movs	r3, #1
 294              		.loc 1 182 0
 295              		@ sp needed
 296              		.loc 1 181 0
 297 0018 6363     		str	r3, [r4, #52]
 298              		.loc 1 182 0
 299 001a 10BD     		pop	{r4, pc}
 300              	.L46:
 301              		.align	2
 302              	.L45:
 303 001c 00000000 		.word	ch
 304 0020 00000000 		.word	.LC16
 305              		.cfi_endproc
 306              	.LFE143:
 307              		.size	_dbg_check_lock_from_isr, .-_dbg_check_lock_from_isr
 308              		.section	.text._dbg_check_unlock_from_isr,"ax",%progbits
 309              		.align	1
 310              		.p2align 4,,15
 311              		.global	_dbg_check_unlock_from_isr
 312              		.syntax unified
 313              		.code	16
 314              		.thumb_func
 315              		.fpu softvfp
 316              		.type	_dbg_check_unlock_from_isr, %function
 317              	_dbg_check_unlock_from_isr:
 318              	.LFB144:
 319              		.loc 1 189 0
 320              		.cfi_startproc
 321              		@ args = 0, pretend = 0, frame = 0
 322              		@ frame_needed = 0, uses_anonymous_args = 0
 323 0000 10B5     		push	{r4, lr}
 324              		.cfi_def_cfa_offset 8
 325              		.cfi_offset 4, -8
 326              		.cfi_offset 14, -4
 327              		.loc 1 191 0
 328 0002 074C     		ldr	r4, .L50
 329 0004 236B     		ldr	r3, [r4, #48]
 330 0006 002B     		cmp	r3, #0
 331 0008 05DD     		ble	.L48
 332              		.loc 1 191 0 is_stmt 0 discriminator 1
 333 000a 636B     		ldr	r3, [r4, #52]
 334 000c 002B     		cmp	r3, #0
 335 000e 02DD     		ble	.L48
 336              	.L49:
 337              		.loc 1 194 0 is_stmt 1
 338 0010 0023     		movs	r3, #0
 339              		.loc 1 195 0
 340              		@ sp needed
 341              		.loc 1 194 0
 342 0012 6363     		str	r3, [r4, #52]
ARM GAS  /var/folders/t8/16hdwfmd2fg_d3q6dgx6bpmw0000gn/T//ccc8Synq.s 			page 7


 343              		.loc 1 195 0
 344 0014 10BD     		pop	{r4, pc}
 345              	.L48:
 346              		.loc 1 192 0
 347 0016 0348     		ldr	r0, .L50+4
 348 0018 FFF7FEFF 		bl	chSysHalt
 349              	.LVL6:
 350 001c F8E7     		b	.L49
 351              	.L51:
 352 001e C046     		.align	2
 353              	.L50:
 354 0020 00000000 		.word	ch
 355 0024 00000000 		.word	.LC19
 356              		.cfi_endproc
 357              	.LFE144:
 358              		.size	_dbg_check_unlock_from_isr, .-_dbg_check_unlock_from_isr
 359              		.section	.text._dbg_check_enter_isr,"ax",%progbits
 360              		.align	1
 361              		.p2align 4,,15
 362              		.global	_dbg_check_enter_isr
 363              		.syntax unified
 364              		.code	16
 365              		.thumb_func
 366              		.fpu softvfp
 367              		.type	_dbg_check_enter_isr, %function
 368              	_dbg_check_enter_isr:
 369              	.LFB145:
 370              		.loc 1 202 0
 371              		.cfi_startproc
 372              		@ args = 0, pretend = 0, frame = 0
 373              		@ frame_needed = 0, uses_anonymous_args = 0
 374 0000 10B5     		push	{r4, lr}
 375              		.cfi_def_cfa_offset 8
 376              		.cfi_offset 4, -8
 377              		.cfi_offset 14, -4
 378              	.LBB34:
 379              	.LBB35:
 380              	.LBB36:
 381              	.LBB37:
 382              		.file 2 "../../tmk_core/tool/chibios/ChibiOS/os/common/ext/CMSIS/include/cmsis_gcc.h"
 383              		.loc 2 71 0
 384              		.syntax divided
 385              	@ 71 "../../tmk_core/tool/chibios/ChibiOS/os/common/ext/CMSIS/include/cmsis_gcc.h" 1
 386 0002 72B6     		cpsid i
 387              	@ 0 "" 2
 388              		.thumb
 389              		.syntax unified
 390              	.LBE37:
 391              	.LBE36:
 392              	.LBE35:
 393              	.LBE34:
 394              		.loc 1 205 0
 395 0004 074C     		ldr	r4, .L58
 396 0006 236B     		ldr	r3, [r4, #48]
 397 0008 002B     		cmp	r3, #0
 398 000a 02DB     		blt	.L53
 399              		.loc 1 205 0 is_stmt 0 discriminator 1
ARM GAS  /var/folders/t8/16hdwfmd2fg_d3q6dgx6bpmw0000gn/T//ccc8Synq.s 			page 8


 400 000c 626B     		ldr	r2, [r4, #52]
 401 000e 002A     		cmp	r2, #0
 402 0010 03D0     		beq	.L54
 403              	.L53:
 404              		.loc 1 206 0 is_stmt 1
 405 0012 0548     		ldr	r0, .L58+4
 406 0014 FFF7FEFF 		bl	chSysHalt
 407              	.LVL7:
 408 0018 236B     		ldr	r3, [r4, #48]
 409              	.L54:
 410              		.loc 1 208 0
 411 001a 0133     		adds	r3, r3, #1
 412 001c 2363     		str	r3, [r4, #48]
 413              	.LBB38:
 414              	.LBB39:
 415              	.LBB40:
 416              	.LBB41:
 417              		.loc 2 60 0
 418              		.syntax divided
 419              	@ 60 "../../tmk_core/tool/chibios/ChibiOS/os/common/ext/CMSIS/include/cmsis_gcc.h" 1
 420 001e 62B6     		cpsie i
 421              	@ 0 "" 2
 422              		.thumb
 423              		.syntax unified
 424              	.LBE41:
 425              	.LBE40:
 426              	.LBE39:
 427              	.LBE38:
 428              		.loc 1 210 0
 429              		@ sp needed
 430 0020 10BD     		pop	{r4, pc}
 431              	.L59:
 432 0022 C046     		.align	2
 433              	.L58:
 434 0024 00000000 		.word	ch
 435 0028 00000000 		.word	.LC22
 436              		.cfi_endproc
 437              	.LFE145:
 438              		.size	_dbg_check_enter_isr, .-_dbg_check_enter_isr
 439              		.section	.text._dbg_check_leave_isr,"ax",%progbits
 440              		.align	1
 441              		.p2align 4,,15
 442              		.global	_dbg_check_leave_isr
 443              		.syntax unified
 444              		.code	16
 445              		.thumb_func
 446              		.fpu softvfp
 447              		.type	_dbg_check_leave_isr, %function
 448              	_dbg_check_leave_isr:
 449              	.LFB146:
 450              		.loc 1 217 0
 451              		.cfi_startproc
 452              		@ args = 0, pretend = 0, frame = 0
 453              		@ frame_needed = 0, uses_anonymous_args = 0
 454 0000 10B5     		push	{r4, lr}
 455              		.cfi_def_cfa_offset 8
 456              		.cfi_offset 4, -8
ARM GAS  /var/folders/t8/16hdwfmd2fg_d3q6dgx6bpmw0000gn/T//ccc8Synq.s 			page 9


 457              		.cfi_offset 14, -4
 458              	.LBB42:
 459              	.LBB43:
 460              	.LBB44:
 461              	.LBB45:
 462              		.loc 2 71 0
 463              		.syntax divided
 464              	@ 71 "../../tmk_core/tool/chibios/ChibiOS/os/common/ext/CMSIS/include/cmsis_gcc.h" 1
 465 0002 72B6     		cpsid i
 466              	@ 0 "" 2
 467              		.thumb
 468              		.syntax unified
 469              	.LBE45:
 470              	.LBE44:
 471              	.LBE43:
 472              	.LBE42:
 473              		.loc 1 220 0
 474 0004 074C     		ldr	r4, .L66
 475 0006 236B     		ldr	r3, [r4, #48]
 476 0008 002B     		cmp	r3, #0
 477 000a 02DD     		ble	.L61
 478              		.loc 1 220 0 is_stmt 0 discriminator 1
 479 000c 626B     		ldr	r2, [r4, #52]
 480 000e 002A     		cmp	r2, #0
 481 0010 03D0     		beq	.L62
 482              	.L61:
 483              		.loc 1 221 0 is_stmt 1
 484 0012 0548     		ldr	r0, .L66+4
 485 0014 FFF7FEFF 		bl	chSysHalt
 486              	.LVL8:
 487 0018 236B     		ldr	r3, [r4, #48]
 488              	.L62:
 489              		.loc 1 223 0
 490 001a 013B     		subs	r3, r3, #1
 491 001c 2363     		str	r3, [r4, #48]
 492              	.LBB46:
 493              	.LBB47:
 494              	.LBB48:
 495              	.LBB49:
 496              		.loc 2 60 0
 497              		.syntax divided
 498              	@ 60 "../../tmk_core/tool/chibios/ChibiOS/os/common/ext/CMSIS/include/cmsis_gcc.h" 1
 499 001e 62B6     		cpsie i
 500              	@ 0 "" 2
 501              		.thumb
 502              		.syntax unified
 503              	.LBE49:
 504              	.LBE48:
 505              	.LBE47:
 506              	.LBE46:
 507              		.loc 1 225 0
 508              		@ sp needed
 509 0020 10BD     		pop	{r4, pc}
 510              	.L67:
 511 0022 C046     		.align	2
 512              	.L66:
 513 0024 00000000 		.word	ch
ARM GAS  /var/folders/t8/16hdwfmd2fg_d3q6dgx6bpmw0000gn/T//ccc8Synq.s 			page 10


 514 0028 00000000 		.word	.LC25
 515              		.cfi_endproc
 516              	.LFE146:
 517              		.size	_dbg_check_leave_isr, .-_dbg_check_leave_isr
 518              		.section	.text.chDbgCheckClassI,"ax",%progbits
 519              		.align	1
 520              		.p2align 4,,15
 521              		.global	chDbgCheckClassI
 522              		.syntax unified
 523              		.code	16
 524              		.thumb_func
 525              		.fpu softvfp
 526              		.type	chDbgCheckClassI, %function
 527              	chDbgCheckClassI:
 528              	.LFB147:
 529              		.loc 1 235 0
 530              		.cfi_startproc
 531              		@ args = 0, pretend = 0, frame = 0
 532              		@ frame_needed = 0, uses_anonymous_args = 0
 533              		.loc 1 237 0
 534 0000 064B     		ldr	r3, .L71
 535              		.loc 1 235 0
 536 0002 10B5     		push	{r4, lr}
 537              		.cfi_def_cfa_offset 8
 538              		.cfi_offset 4, -8
 539              		.cfi_offset 14, -4
 540              		.loc 1 237 0
 541 0004 1A6B     		ldr	r2, [r3, #48]
 542 0006 002A     		cmp	r2, #0
 543 0008 03DB     		blt	.L69
 544              		.loc 1 237 0 is_stmt 0 discriminator 1
 545 000a 5B6B     		ldr	r3, [r3, #52]
 546 000c 002B     		cmp	r3, #0
 547 000e 00DD     		ble	.L69
 548              	.L68:
 549              		.loc 1 240 0 is_stmt 1
 550              		@ sp needed
 551 0010 10BD     		pop	{r4, pc}
 552              	.L69:
 553              		.loc 1 238 0
 554 0012 0348     		ldr	r0, .L71+4
 555 0014 FFF7FEFF 		bl	chSysHalt
 556              	.LVL9:
 557              		.loc 1 240 0
 558 0018 FAE7     		b	.L68
 559              	.L72:
 560 001a C046     		.align	2
 561              	.L71:
 562 001c 00000000 		.word	ch
 563 0020 00000000 		.word	.LC28
 564              		.cfi_endproc
 565              	.LFE147:
 566              		.size	chDbgCheckClassI, .-chDbgCheckClassI
 567              		.section	.text.chDbgCheckClassS,"ax",%progbits
 568              		.align	1
 569              		.p2align 4,,15
 570              		.global	chDbgCheckClassS
ARM GAS  /var/folders/t8/16hdwfmd2fg_d3q6dgx6bpmw0000gn/T//ccc8Synq.s 			page 11


 571              		.syntax unified
 572              		.code	16
 573              		.thumb_func
 574              		.fpu softvfp
 575              		.type	chDbgCheckClassS, %function
 576              	chDbgCheckClassS:
 577              	.LFB148:
 578              		.loc 1 250 0
 579              		.cfi_startproc
 580              		@ args = 0, pretend = 0, frame = 0
 581              		@ frame_needed = 0, uses_anonymous_args = 0
 582              		.loc 1 252 0
 583 0000 064B     		ldr	r3, .L76
 584              		.loc 1 250 0
 585 0002 10B5     		push	{r4, lr}
 586              		.cfi_def_cfa_offset 8
 587              		.cfi_offset 4, -8
 588              		.cfi_offset 14, -4
 589              		.loc 1 252 0
 590 0004 1A6B     		ldr	r2, [r3, #48]
 591 0006 002A     		cmp	r2, #0
 592 0008 03D1     		bne	.L74
 593              		.loc 1 252 0 is_stmt 0 discriminator 1
 594 000a 5B6B     		ldr	r3, [r3, #52]
 595 000c 002B     		cmp	r3, #0
 596 000e 00DD     		ble	.L74
 597              	.L73:
 598              		.loc 1 255 0 is_stmt 1
 599              		@ sp needed
 600 0010 10BD     		pop	{r4, pc}
 601              	.L74:
 602              		.loc 1 253 0
 603 0012 0348     		ldr	r0, .L76+4
 604 0014 FFF7FEFF 		bl	chSysHalt
 605              	.LVL10:
 606              		.loc 1 255 0
 607 0018 FAE7     		b	.L73
 608              	.L77:
 609 001a C046     		.align	2
 610              	.L76:
 611 001c 00000000 		.word	ch
 612 0020 00000000 		.word	.LC31
 613              		.cfi_endproc
 614              	.LFE148:
 615              		.size	chDbgCheckClassS, .-chDbgCheckClassS
 616              		.section	.rodata._dbg_check_disable.str1.4,"aMS",%progbits,1
 617              		.align	2
 618              	.LC1:
 619 0000 53562331 		.ascii	"SV#1\000"
 619      00
 620              		.section	.rodata._dbg_check_enable.str1.4,"aMS",%progbits,1
 621              		.align	2
 622              	.LC7:
 623 0000 53562333 		.ascii	"SV#3\000"
 623      00
 624              		.section	.rodata._dbg_check_enter_isr.str1.4,"aMS",%progbits,1
 625              		.align	2
ARM GAS  /var/folders/t8/16hdwfmd2fg_d3q6dgx6bpmw0000gn/T//ccc8Synq.s 			page 12


 626              	.LC22:
 627 0000 53562338 		.ascii	"SV#8\000"
 627      00
 628              		.section	.rodata._dbg_check_leave_isr.str1.4,"aMS",%progbits,1
 629              		.align	2
 630              	.LC25:
 631 0000 53562339 		.ascii	"SV#9\000"
 631      00
 632              		.section	.rodata._dbg_check_lock.str1.4,"aMS",%progbits,1
 633              		.align	2
 634              	.LC10:
 635 0000 53562334 		.ascii	"SV#4\000"
 635      00
 636              		.section	.rodata._dbg_check_lock_from_isr.str1.4,"aMS",%progbits,1
 637              		.align	2
 638              	.LC16:
 639 0000 53562336 		.ascii	"SV#6\000"
 639      00
 640              		.section	.rodata._dbg_check_suspend.str1.4,"aMS",%progbits,1
 641              		.align	2
 642              	.LC4:
 643 0000 53562332 		.ascii	"SV#2\000"
 643      00
 644              		.section	.rodata._dbg_check_unlock.str1.4,"aMS",%progbits,1
 645              		.align	2
 646              	.LC13:
 647 0000 53562335 		.ascii	"SV#5\000"
 647      00
 648              		.section	.rodata._dbg_check_unlock_from_isr.str1.4,"aMS",%progbits,1
 649              		.align	2
 650              	.LC19:
 651 0000 53562337 		.ascii	"SV#7\000"
 651      00
 652              		.section	.rodata.chDbgCheckClassI.str1.4,"aMS",%progbits,1
 653              		.align	2
 654              	.LC28:
 655 0000 53562331 		.ascii	"SV#10\000"
 655      3000
 656              		.section	.rodata.chDbgCheckClassS.str1.4,"aMS",%progbits,1
 657              		.align	2
 658              	.LC31:
 659 0000 53562331 		.ascii	"SV#11\000"
 659      3100
 660              		.text
 661              	.Letext0:
 662              		.file 3 "/usr/local/Caskroom/gcc-arm-embedded/7-2017-q4-major/gcc-arm-none-eabi-7-2017-q4-major/ar
 663              		.file 4 "/usr/local/Caskroom/gcc-arm-embedded/7-2017-q4-major/gcc-arm-none-eabi-7-2017-q4-major/ar
 664              		.file 5 "../../tmk_core/tool/chibios/ChibiOS/os/common/ports/ARMCMx/compilers/GCC/chtypes.h"
 665              		.file 6 "../../tmk_core/tool/chibios/ChibiOS/os/rt/include/chsystypes.h"
 666              		.file 7 "../../tmk_core/tool/chibios/ChibiOS/os/rt/include/chschd.h"
 667              		.file 8 "../../tmk_core/tool/chibios/ChibiOS/os/common/ports/ARMCMx/chcore.h"
 668              		.file 9 "../../tmk_core/tool/chibios/ChibiOS/os/common/ports/ARMCMx/chcore_v6m.h"
 669              		.file 10 "../../tmk_core/tool/chibios/ChibiOS/os/rt/include/chsem.h"
 670              		.file 11 "../../tmk_core/tool/chibios/ChibiOS/os/rt/include/chmtx.h"
 671              		.file 12 "../../tmk_core/tool/chibios/ChibiOS/os/rt/include/chregistry.h"
 672              		.file 13 "../../tmk_core/tool/chibios/ChibiOS/os/rt/include/chsys.h"