ARM GAS  /var/folders/t8/16hdwfmd2fg_d3q6dgx6bpmw0000gn/T//ccqtMZcN.s 			page 1


   1              		.cpu cortex-m0plus
   2              		.eabi_attribute 20, 1
   3              		.eabi_attribute 21, 1
   4              		.eabi_attribute 23, 3
   5              		.eabi_attribute 24, 1
   6              		.eabi_attribute 25, 1
   7              		.eabi_attribute 26, 1
   8              		.eabi_attribute 30, 2
   9              		.eabi_attribute 34, 0
  10              		.eabi_attribute 18, 4
  11              		.file	"chdynamic.c"
  12              		.text
  13              	.Ltext0:
  14              		.cfi_sections	.debug_frame
  15              		.section	.text.chThdCreateFromHeap,"ax",%progbits
  16              		.align	1
  17              		.p2align 4,,15
  18              		.global	chThdCreateFromHeap
  19              		.syntax unified
  20              		.code	16
  21              		.thumb_func
  22              		.fpu softvfp
  23              		.type	chThdCreateFromHeap, %function
  24              	chThdCreateFromHeap:
  25              	.LFB138:
  26              		.file 1 "../../tmk_core/tool/chibios/ChibiOS/os/rt/src/chdynamic.c"
  27              		.loc 1 84 0
  28              		.cfi_startproc
  29              		@ args = 8, pretend = 0, frame = 24
  30              		@ frame_needed = 0, uses_anonymous_args = 0
  31              	.LVL0:
  32 0000 70B5     		push	{r4, r5, r6, lr}
  33              		.cfi_def_cfa_offset 16
  34              		.cfi_offset 4, -16
  35              		.cfi_offset 5, -12
  36              		.cfi_offset 6, -8
  37              		.cfi_offset 14, -4
  38 0002 1600     		movs	r6, r2
  39 0004 86B0     		sub	sp, sp, #24
  40              		.cfi_def_cfa_offset 40
  41              		.loc 1 88 0
  42 0006 0822     		movs	r2, #8
  43              	.LVL1:
  44              		.loc 1 84 0
  45 0008 0C00     		movs	r4, r1
  46 000a 1D00     		movs	r5, r3
  47              		.loc 1 88 0
  48 000c FFF7FEFF 		bl	chHeapAllocAligned
  49              	.LVL2:
  50              		.loc 1 89 0
  51 0010 0028     		cmp	r0, #0
  52 0012 2BD0     		beq	.L4
  53              		.loc 1 93 0
  54 0014 0A9B     		ldr	r3, [sp, #40]
  55              		.loc 1 96 0
  56 0016 0119     		adds	r1, r0, r4
  57              		.loc 1 93 0
ARM GAS  /var/folders/t8/16hdwfmd2fg_d3q6dgx6bpmw0000gn/T//ccqtMZcN.s 			page 2


  58 0018 0493     		str	r3, [sp, #16]
  59 001a 0B9B     		ldr	r3, [sp, #44]
  60              		.loc 1 103 0
  61 001c 5522     		movs	r2, #85
  62              		.loc 1 93 0
  63 001e 0096     		str	r6, [sp]
  64 0020 0190     		str	r0, [sp, #4]
  65 0022 0291     		str	r1, [sp, #8]
  66 0024 0395     		str	r5, [sp, #12]
  67 0026 0593     		str	r3, [sp, #20]
  68              		.loc 1 103 0
  69 0028 FFF7FEFF 		bl	_thread_memfill
  70              	.LVL3:
  71              	.LBB34:
  72              	.LBB35:
  73              	.LBB36:
  74              	.LBB37:
  75              	.LBB38:
  76              		.file 2 "../../tmk_core/tool/chibios/ChibiOS/os/common/ext/CMSIS/include/cmsis_gcc.h"
  77              		.loc 2 71 0
  78              		.syntax divided
  79              	@ 71 "../../tmk_core/tool/chibios/ChibiOS/os/common/ext/CMSIS/include/cmsis_gcc.h" 1
  80 002c 72B6     		cpsid i
  81              	@ 0 "" 2
  82              		.thumb
  83              		.syntax unified
  84              	.LBE38:
  85              	.LBE37:
  86              	.LBE36:
  87              		.file 3 "../../tmk_core/tool/chibios/ChibiOS/os/rt/include/chsys.h"
  88              		.loc 3 378 0
  89 002e FFF7FEFF 		bl	_dbg_check_lock
  90              	.LVL4:
  91              	.LBE35:
  92              	.LBE34:
  93              		.loc 1 109 0
  94 0032 6846     		mov	r0, sp
  95 0034 FFF7FEFF 		bl	chThdCreateSuspendedI
  96              	.LVL5:
  97              		.loc 1 110 0
  98 0038 2123     		movs	r3, #33
  99 003a 0122     		movs	r2, #1
 100              		.loc 1 111 0
 101 003c 0021     		movs	r1, #0
 102              		.loc 1 110 0
 103 003e C254     		strb	r2, [r0, r3]
 104              		.loc 1 109 0
 105 0040 0400     		movs	r4, r0
 106              	.LVL6:
 107              		.loc 1 111 0
 108 0042 FFF7FEFF 		bl	chSchWakeupS
 109              	.LVL7:
 110              	.LBB39:
 111              	.LBB40:
 112              		.loc 3 388 0
 113 0046 FFF7FEFF 		bl	_dbg_check_unlock
 114              	.LVL8:
ARM GAS  /var/folders/t8/16hdwfmd2fg_d3q6dgx6bpmw0000gn/T//ccqtMZcN.s 			page 3


 115              		.loc 3 395 0
 116 004a 094B     		ldr	r3, .L7
 117 004c 1A68     		ldr	r2, [r3]
 118 004e 9A42     		cmp	r2, r3
 119 0050 04D0     		beq	.L3
 120 0052 9B69     		ldr	r3, [r3, #24]
 121 0054 9968     		ldr	r1, [r3, #8]
 122 0056 9368     		ldr	r3, [r2, #8]
 123 0058 9942     		cmp	r1, r3
 124 005a 03D3     		bcc	.L6
 125              	.L3:
 126              	.LBB41:
 127              	.LBB42:
 128              	.LBB43:
 129              		.loc 2 60 0
 130              		.syntax divided
 131              	@ 60 "../../tmk_core/tool/chibios/ChibiOS/os/common/ext/CMSIS/include/cmsis_gcc.h" 1
 132 005c 62B6     		cpsie i
 133              	@ 0 "" 2
 134              	.LVL9:
 135              		.thumb
 136              		.syntax unified
 137              	.L1:
 138              	.LBE43:
 139              	.LBE42:
 140              	.LBE41:
 141              	.LBE40:
 142              	.LBE39:
 143              		.loc 1 115 0
 144 005e 2000     		movs	r0, r4
 145 0060 06B0     		add	sp, sp, #24
 146              		@ sp needed
 147              	.LVL10:
 148              	.LVL11:
 149 0062 70BD     		pop	{r4, r5, r6, pc}
 150              	.LVL12:
 151              	.L6:
 152              	.LBB45:
 153              	.LBB44:
 154              		.loc 3 395 0
 155 0064 0348     		ldr	r0, .L7+4
 156 0066 FFF7FEFF 		bl	chSysHalt
 157              	.LVL13:
 158 006a F7E7     		b	.L3
 159              	.LVL14:
 160              	.L4:
 161              	.LBE44:
 162              	.LBE45:
 163              		.loc 1 90 0
 164 006c 0024     		movs	r4, #0
 165              	.LVL15:
 166 006e F6E7     		b	.L1
 167              	.L8:
 168              		.align	2
 169              	.L7:
 170 0070 00000000 		.word	ch
 171 0074 00000000 		.word	.LANCHOR0
ARM GAS  /var/folders/t8/16hdwfmd2fg_d3q6dgx6bpmw0000gn/T//ccqtMZcN.s 			page 4


 172              		.cfi_endproc
 173              	.LFE138:
 174              		.size	chThdCreateFromHeap, .-chThdCreateFromHeap
 175              		.section	.text.chThdCreateFromMemoryPool,"ax",%progbits
 176              		.align	1
 177              		.p2align 4,,15
 178              		.global	chThdCreateFromMemoryPool
 179              		.syntax unified
 180              		.code	16
 181              		.thumb_func
 182              		.fpu softvfp
 183              		.type	chThdCreateFromMemoryPool, %function
 184              	chThdCreateFromMemoryPool:
 185              	.LFB139:
 186              		.loc 1 146 0
 187              		.cfi_startproc
 188              		@ args = 4, pretend = 0, frame = 24
 189              		@ frame_needed = 0, uses_anonymous_args = 0
 190              	.LVL16:
 191 0000 F0B5     		push	{r4, r5, r6, r7, lr}
 192              		.cfi_def_cfa_offset 20
 193              		.cfi_offset 4, -20
 194              		.cfi_offset 5, -16
 195              		.cfi_offset 6, -12
 196              		.cfi_offset 7, -8
 197              		.cfi_offset 14, -4
 198 0002 0400     		movs	r4, r0
 199 0004 87B0     		sub	sp, sp, #28
 200              		.cfi_def_cfa_offset 48
 201              		.loc 1 146 0
 202 0006 0F00     		movs	r7, r1
 203 0008 1600     		movs	r6, r2
 204 000a 1D00     		movs	r5, r3
 205              		.loc 1 150 0
 206 000c 0028     		cmp	r0, #0
 207 000e 31D0     		beq	.L14
 208              	.LVL17:
 209              	.L10:
 210              		.loc 1 152 0
 211 0010 2000     		movs	r0, r4
 212 0012 FFF7FEFF 		bl	chPoolAlloc
 213              	.LVL18:
 214              		.loc 1 153 0
 215 0016 0028     		cmp	r0, #0
 216 0018 30D0     		beq	.L13
 217              		.loc 1 160 0
 218 001a 6368     		ldr	r3, [r4, #4]
 219              		.loc 1 167 0
 220 001c 5522     		movs	r2, #85
 221              		.loc 1 160 0
 222 001e C118     		adds	r1, r0, r3
 223              		.loc 1 157 0
 224 0020 0C9B     		ldr	r3, [sp, #48]
 225 0022 0097     		str	r7, [sp]
 226 0024 0190     		str	r0, [sp, #4]
 227 0026 0291     		str	r1, [sp, #8]
 228 0028 0396     		str	r6, [sp, #12]
ARM GAS  /var/folders/t8/16hdwfmd2fg_d3q6dgx6bpmw0000gn/T//ccqtMZcN.s 			page 5


 229 002a 0495     		str	r5, [sp, #16]
 230 002c 0593     		str	r3, [sp, #20]
 231              		.loc 1 167 0
 232 002e FFF7FEFF 		bl	_thread_memfill
 233              	.LVL19:
 234              	.LBB56:
 235              	.LBB57:
 236              	.LBB58:
 237              	.LBB59:
 238              	.LBB60:
 239              		.loc 2 71 0
 240              		.syntax divided
 241              	@ 71 "../../tmk_core/tool/chibios/ChibiOS/os/common/ext/CMSIS/include/cmsis_gcc.h" 1
 242 0032 72B6     		cpsid i
 243              	@ 0 "" 2
 244              		.thumb
 245              		.syntax unified
 246              	.LBE60:
 247              	.LBE59:
 248              	.LBE58:
 249              		.loc 3 378 0
 250 0034 FFF7FEFF 		bl	_dbg_check_lock
 251              	.LVL20:
 252              	.LBE57:
 253              	.LBE56:
 254              		.loc 1 173 0
 255 0038 6846     		mov	r0, sp
 256 003a FFF7FEFF 		bl	chThdCreateSuspendedI
 257              	.LVL21:
 258              		.loc 1 174 0
 259 003e 2123     		movs	r3, #33
 260 0040 0222     		movs	r2, #2
 261              		.loc 1 176 0
 262 0042 0021     		movs	r1, #0
 263              		.loc 1 174 0
 264 0044 C254     		strb	r2, [r0, r3]
 265              		.loc 1 175 0
 266 0046 0464     		str	r4, [r0, #64]
 267              		.loc 1 173 0
 268 0048 0500     		movs	r5, r0
 269              	.LVL22:
 270              		.loc 1 176 0
 271 004a FFF7FEFF 		bl	chSchWakeupS
 272              	.LVL23:
 273              	.LBB61:
 274              	.LBB62:
 275              		.loc 3 388 0
 276 004e FFF7FEFF 		bl	_dbg_check_unlock
 277              	.LVL24:
 278              		.loc 3 395 0
 279 0052 0B4B     		ldr	r3, .L16
 280 0054 1A68     		ldr	r2, [r3]
 281 0056 9A42     		cmp	r2, r3
 282 0058 04D0     		beq	.L12
 283 005a 9B69     		ldr	r3, [r3, #24]
 284 005c 9968     		ldr	r1, [r3, #8]
 285 005e 9368     		ldr	r3, [r2, #8]
ARM GAS  /var/folders/t8/16hdwfmd2fg_d3q6dgx6bpmw0000gn/T//ccqtMZcN.s 			page 6


 286 0060 9942     		cmp	r1, r3
 287 0062 03D3     		bcc	.L15
 288              	.L12:
 289              	.LBB63:
 290              	.LBB64:
 291              	.LBB65:
 292              		.loc 2 60 0
 293              		.syntax divided
 294              	@ 60 "../../tmk_core/tool/chibios/ChibiOS/os/common/ext/CMSIS/include/cmsis_gcc.h" 1
 295 0064 62B6     		cpsie i
 296              	@ 0 "" 2
 297              	.LVL25:
 298              		.thumb
 299              		.syntax unified
 300              	.L9:
 301              	.LBE65:
 302              	.LBE64:
 303              	.LBE63:
 304              	.LBE62:
 305              	.LBE61:
 306              		.loc 1 180 0
 307 0066 2800     		movs	r0, r5
 308 0068 07B0     		add	sp, sp, #28
 309              		@ sp needed
 310              	.LVL26:
 311              	.LVL27:
 312              	.LVL28:
 313 006a F0BD     		pop	{r4, r5, r6, r7, pc}
 314              	.LVL29:
 315              	.L15:
 316              	.LBB67:
 317              	.LBB66:
 318              		.loc 3 395 0
 319 006c 0548     		ldr	r0, .L16+4
 320 006e FFF7FEFF 		bl	chSysHalt
 321              	.LVL30:
 322 0072 F7E7     		b	.L12
 323              	.LVL31:
 324              	.L14:
 325              	.LBE66:
 326              	.LBE67:
 327              		.loc 1 150 0 discriminator 2
 328 0074 0448     		ldr	r0, .L16+8
 329              	.LVL32:
 330 0076 FFF7FEFF 		bl	chSysHalt
 331              	.LVL33:
 332 007a C9E7     		b	.L10
 333              	.LVL34:
 334              	.L13:
 335              		.loc 1 154 0
 336 007c 0025     		movs	r5, #0
 337              	.LVL35:
 338 007e F2E7     		b	.L9
 339              	.L17:
 340              		.align	2
 341              	.L16:
 342 0080 00000000 		.word	ch
ARM GAS  /var/folders/t8/16hdwfmd2fg_d3q6dgx6bpmw0000gn/T//ccqtMZcN.s 			page 7


 343 0084 00000000 		.word	.LANCHOR0
 344 0088 00000000 		.word	.LANCHOR1
 345              		.cfi_endproc
 346              	.LFE139:
 347              		.size	chThdCreateFromMemoryPool, .-chThdCreateFromMemoryPool
 348              		.section	.rodata.__func__.5043,"a",%progbits
 349              		.align	2
 350              		.set	.LANCHOR0,. + 0
 351              		.type	__func__.5043, %object
 352              		.size	__func__.5043, 12
 353              	__func__.5043:
 354 0000 63685379 		.ascii	"chSysUnlock\000"
 354      73556E6C 
 354      6F636B00 
 355              		.section	.rodata.__func__.5734,"a",%progbits
 356              		.align	2
 357              		.set	.LANCHOR1,. + 0
 358              		.type	__func__.5734, %object
 359              		.size	__func__.5734, 26
 360              	__func__.5734:
 361 0000 63685468 		.ascii	"chThdCreateFromMemoryPool\000"
 361      64437265 
 361      61746546 
 361      726F6D4D 
 361      656D6F72 
 362              		.text
 363              	.Letext0:
 364              		.file 4 "/usr/local/Caskroom/gcc-arm-embedded/7-2017-q4-major/gcc-arm-none-eabi-7-2017-q4-major/li
 365              		.file 5 "/usr/local/Caskroom/gcc-arm-embedded/7-2017-q4-major/gcc-arm-none-eabi-7-2017-q4-major/ar
 366              		.file 6 "/usr/local/Caskroom/gcc-arm-embedded/7-2017-q4-major/gcc-arm-none-eabi-7-2017-q4-major/ar
 367              		.file 7 "../../tmk_core/tool/chibios/ChibiOS/os/common/ports/ARMCMx/compilers/GCC/chtypes.h"
 368              		.file 8 "../../tmk_core/tool/chibios/ChibiOS/os/rt/include/chsystypes.h"
 369              		.file 9 "../../tmk_core/tool/chibios/ChibiOS/os/rt/include/chschd.h"
 370              		.file 10 "../../tmk_core/tool/chibios/ChibiOS/os/common/ports/ARMCMx/chcore.h"
 371              		.file 11 "../../tmk_core/tool/chibios/ChibiOS/os/common/ports/ARMCMx/chcore_v6m.h"
 372              		.file 12 "../../tmk_core/tool/chibios/ChibiOS/os/rt/include/chsem.h"
 373              		.file 13 "../../tmk_core/tool/chibios/ChibiOS/os/rt/include/chmtx.h"
 374              		.file 14 "../../tmk_core/tool/chibios/ChibiOS/os/rt/include/chthreads.h"
 375              		.file 15 "../../tmk_core/tool/chibios/ChibiOS/os/rt/include/chregistry.h"
 376              		.file 16 "../../tmk_core/tool/chibios/ChibiOS/os/common/oslib/include/chmemcore.h"
 377              		.file 17 "../../tmk_core/tool/chibios/ChibiOS/os/common/oslib/include/chheap.h"
 378              		.file 18 "../../tmk_core/tool/chibios/ChibiOS/os/common/oslib/include/chmempools.h"
 379              		.file 19 "../../tmk_core/tool/chibios/ChibiOS/os/rt/include/chdebug.h"