ARM GAS  /var/folders/t8/16hdwfmd2fg_d3q6dgx6bpmw0000gn/T//ccqtMZcN.s 			page 1


   1              		.cpu cortex-m0plus
   2              		.eabi_attribute 20, 1
   3              		.eabi_attribute 21, 1
   4              		.eabi_attribute 23, 3
   5              		.eabi_attribute 24, 1
   6              		.eabi_attribute 25, 1
   7              		.eabi_attribute 26, 1
   8              		.eabi_attribute 30, 2
   9              		.eabi_attribute 34, 0
  10              		.eabi_attribute 18, 4
  11              		.file	"chdynamic.c"
  12              		.text
  13              	.Ltext0:
  14              		.cfi_sections	.debug_frame
  15              		.section	.text.chThdCreateFromHeap,"ax",%progbits
  16              		.align	1
  17              		.p2align 4,,15
  18              		.global	chThdCreateFromHeap
  19              		.syntax unified
  20              		.code	16
  21              		.thumb_func
  22              		.fpu softvfp
  23              		.type	chThdCreateFromHeap, %function
  24              	chThdCreateFromHeap:
  25              	.LFB138:
  26              		.file 1 "../../tmk_core/tool/chibios/ChibiOS/os/rt/src/chdynamic.c"
  27              		.loc 1 84 0
  28              		.cfi_startproc
  29              		@ args = 8, pretend = 0, frame = 24
  30              		@ frame_needed = 0, uses_anonymous_args = 0
  31              	.LVL0:
  32 0000 70B5     		push	{r4, r5, r6, lr}
  33              		.cfi_def_cfa_offset 16
  34              		.cfi_offset 4, -16
  35              		.cfi_offset 5, -12
  36              		.cfi_offset 6, -8
  37              		.cfi_offset 14, -4
  38 0002 1600     		movs	r6, r2
  39 0004 86B0     		sub	sp, sp, #24
  40              		.cfi_def_cfa_offset 40
  41              		.loc 1 88 0
  42 0006 0822     		movs	r2, #8
  43              	.LVL1:
  44              		.loc 1 84 0
  45 0008 0C00     		movs	r4, r1
  46 000a 1D00     		movs	r5, r3
  47              		.loc 1 88 0
  48 000c FFF7FEFF 		bl	chHeapAllocAligned
  49              	.LVL2:
  50              		.loc 1 89 0
  51 0010 0028     		cmp	r0, #0
  52 0012 2BD0     		beq	.L4
  53              		.loc 1 93 0
  54 0014 0A9B     		ldr	r3, [sp, #40]
  55              		.loc 1 96 0
  56 0016 0119     		adds	r1, r0, r4
  57              		.loc 1 93 0
ARM GAS  /var/folders/t8/16hdwfmd2fg_d3q6dgx6bpmw0000gn/T//ccqtMZcN.s 			page 2


  58 0018 0493     		str	r3, [sp, #16]
  59 001a 0B9B     		ldr	r3, [sp, #44]
  60              		.loc 1 103 0
  61 001c 5522     		movs	r2, #85
  62              		.loc 1 93 0
  63 001e 0096     		str	r6, [sp]
  64 0020 0190     		str	r0, [sp, #4]
  65 0022 0291     		str	r1, [sp, #8]
  66 0024 0395     		str	r5, [sp, #12]
  67 0026 0593     		str	r3, [sp, #20]
  68              		.loc 1 103 0
  69 0028 FFF7FEFF 		bl	_thread_memfill
  70              	.LVL3:
  71              	.LBB34:
  72              	.LBB35:
  73              	.LBB36:
  74              	.LBB37:
  75              	.LBB38:
  76              		.file 2 "../../tmk_core/tool/chibios/ChibiOS/os/common/ext/CMSIS/include/cmsis_gcc.h"
  77              		.loc 2 71 0
  78              		.syntax divided
  79              	@ 71 "../../tmk_core/tool/chibios/ChibiOS/os/common/ext/CMSIS/include/cmsis_gcc.h" 1
  80 002c 72B6     		cpsid i
  81              	@ 0 "" 2
  82              		.thumb
  83              		.syntax unified
  84              	.LBE38:
  85              	.LBE37:
  86              	.LBE36:
  87              		.file 3 "../../tmk_core/tool/chibios/ChibiOS/os/rt/include/chsys.h"
  88              		.loc 3 378 0
  89 002e FFF7FEFF 		bl	_dbg_check_lock
  90              	.LVL4:
  91              	.LBE35:
  92              	.LBE34:
  93              		.loc 1 109 0
  94 0032 6846     		mov	r0, sp
  95 0034 FFF7FEFF 		bl	chThdCreateSuspendedI
  96              	.LVL5:
  97              		.loc 1 110 0
  98 0038 2123     		movs	r3, #33
  99 003a 0122     		movs	r2, #1
 100              		.loc 1 111 0
 101 003c 0021     		movs	r1, #0
 102              		.loc 1 110 0
 103 003e C254     		strb	r2, [r0, r3]
 104              		.loc 1 109 0
 105 0040 0400     		movs	r4, r0
 106              	.LVL6:
 107              		.loc 1 111 0
 108 0042 FFF7FEFF 		bl	chSchWakeupS
 109              	.LVL7:
 110              	.LBB39:
 111              	.LBB40:
 112              		.loc 3 388 0
 113 0046 FFF7FEFF 		bl	_dbg_check_unlock
 114              	.LVL8:
ARM GAS  /var/folders/t8/16hdwfmd2fg_d3q6dgx6bpmw0000gn/T//ccqtMZcN.s 			page 3


 115              		.loc 3 395 0
 116 004a 094B     		ldr	r3, .L7
 117 004c 1A68     		ldr	r2, [r3]
 118 004e 9A42     		cmp	r2, r3
 119 0050 04D0     		beq	.L3
 120 0052 9B69     		ldr	r3, [r3, #24]
 121 0054 9968     		ldr	r1, [r3, #8]
 122 0056 9368     		ldr	r3, [r2, #8]
 123 0058 9942     		cmp	r1, r3
 124 005a 03D3     		bcc	.L6
 125              	.L3:
 126              	.LBB41:
 127              	.LBB42:
 128              	.LBB43:
 129              		.loc 2 60 0
 130              		.syntax divided
 131              	@ 60 "../../tmk_core/tool/chibios/ChibiOS/os/common/ext/CMSIS/include/cmsis_gcc.h" 1
 132 005c 62B6     		cpsie i
 133              	@ 0 "" 2
 134              	.LVL9:
 135              		.thumb
 136              		.syntax unified
 137              	.L1:
 138              	.LBE43:
 139              	.LBE42:
 140              	.LBE41:
 141              	.LBE40:
 142              	.LBE39:
 143              		.loc 1 115 0
 144 005e 2000     		movs	r0, r4
 145 0060 06B0     		add	sp, sp, #24
 146              		@ sp needed
 147              	.LVL10:
 148              	.LVL11:
 149 0062 70BD     		pop	{r4, r5, r6, pc}
 150              	.LVL12:
 151              	.L6:
 152              	.LBB45:
 153              	.LBB44:
 154              		.loc 3 395 0
 155 0064 0348     		ldr	r0, .L7+4
 156 0066 FFF7FEFF 		bl	chSysHalt
 157              	.LVL13:
 158 006a F7E7     		b	.L3
 159              	.LVL14:
 160              	.L4:
 161              	.LBE44:
 162              	.LBE45:
 163              		.loc 1 90 0
 164 006c 0024     		movs	r4, #0
 165              	.LVL15:
 166 006e F6E7     		b	.L1
 167              	.L8:
 168              		.align	2
 169              	.L7:
 170 0070 00000000 		.word	ch
 171 0074 00000000 		.word	.LANCHOR0
ARM GAS  /var/folders/t8/16hdwfmd2fg_d3q6dgx6bpmw0000gn/T//ccqtMZcN.s 			page 4


 172              		.cfi_endproc
 173              	.LFE138:
 174              		.size	chThdCreateFromHeap, .-chThdCreateFromHeap
 175              		.section	.text.chThdCreateFromMemoryPool,"ax",%progbits
 176              		.align	1
 177              		.p2align 4,,15
 178              		.global	chThdCreateFromMemoryPool
 179              		.syntax unified
 180              		.code	16
 181              		.thumb_func
 182              		.fpu softvfp
 183              		.type	chThdCreateFromMemoryPool, %function
 184              	chThdCreateFromMemoryPool:
 185              	.LFB139:
 186              		.loc 1 146 0
 187              		.cfi_startproc
 188              		@ args = 4, pretend = 0, frame = 24
 189              		@ frame_needed = 0, uses_anonymous_args = 0
 190              	.LVL16:
 191 0000 F0B5     		push	{r4, r5, r6, r7, lr}
 192              		.cfi_def_cfa_offset 20
 193              		.cfi_offset 4, -20
 194              		.cfi_offset 5, -16
 195              		.cfi_offset 6, -12
 196              		.cfi_offset 7, -8
 197              		.cfi_offset 14, -4
 198 0002 0400     		movs	r4, r0
 199 0004 87B0     		sub	sp, sp, #28
 200              		.cfi_def_cfa_offset 48
 201              		.loc 1 146 0
 202 0006 0F00     		movs	r7, r1
 203 0008 1600     		movs	r6, r2
 204 000a 1D00     		movs	r5, r3
 205              		.loc 1 150 0
 206 000c 0028     		cmp	r0, #0
 207 000e 31D0     		beq	.L14
 208              	.LVL17:
 209              	.L10:
 210              		.loc 1 152 0
 211 0010 2000     		movs	r0, r4
 212 0012 FFF7FEFF 		bl	chPoolAlloc
 213              	.LVL18:
 214              		.loc 1 153 0
 215 0016 0028     		cmp	r0, #0
 216 0018 30D0     		beq	.L13
 217              		.loc 1 160 0
 218 001a 6368     		ldr	r3, [r4, #4]
 219              		.loc 1 167 0
 220 001c 5522     		movs	r2, #85
 221              		.loc 1 160 0
 222 001e C118     		adds	r1, r0, r3
 223              		.loc 1 157 0
 224 0020 0C9B     		ldr	r3, [sp, #48]
 225 0022 0097     		str	r7, [sp]
 226 0024 0190     		str	r0, [sp, #4]
 227 0026 0291     		str	r1, [sp, #8]
 228 0028 0396     		str	r6, [sp, #12]
ARM GAS  /var/folders/t8/16hdwfmd2fg_d3q6dgx6bpmw0000gn/T//ccqtMZcN.s 			page 5


 229 002a 0495     		str	r5, [sp, #16]
 230 002c 0593     		str	r3, [sp, #20]
 231              		.loc 1 167 0
 232 002e FFF7FEFF 		bl	_thread_memfill
 233              	.LVL19:
 234              	.LBB56:
 235              	.LBB57:
 236              	.LBB58:
 237              	.LBB59:
 238              	.LBB60:
 239              		.loc 2 71 0
 240              		.syntax divided
 241              	@ 71 "../../tmk_core/tool/chibios/ChibiOS/os/common/ext/CMSIS/include/cmsis_gcc.h" 1
 242 0032 72B6     		cpsid i
 243              	@ 0 "" 2
 244              		.thumb
 245              		.syntax unified
 246              	.LBE60:
 247              	.LBE59:
 248              	.LBE58:
 249              		.loc 3 378 0
 250 0034 FFF7FEFF 		bl	_dbg_check_lock
 251              	.LVL20:
 252              	.LBE57:
 253              	.LBE56:
 254              		.loc 1 173 0
 255 0038 6846     		mov	r0, sp
 256 003a FFF7FEFF 		bl	chThdCreateSuspendedI
 257              	.LVL21:
 258              		.loc 1 174 0
 259 003e 2123     		movs	r3, #33
 260 0040 0222     		movs	r2, #2
 261              		.loc 1 176 0
 262 0042 0021     		movs	r1, #0
 263              		.loc 1 174 0
 264 0044 C254     		strb	r2, [r0, r3]
 265              		.loc 1 175 0
 266 0046 0464     		str	r4, [r0, #64]
 267              		.loc 1 173 0
 268 0048 0500     		movs	r5, r0
 269              	.LVL22:
 270              		.loc 1 176 0
 271 004a FFF7FEFF 		bl	chSchWakeupS
 272              	.LVL23:
 273              	.LBB61:
 274              	.LBB62:
 275              		.loc 3 388 0
 276 004e FFF7FEFF 		bl	_dbg_check_unlock
 277              	.LVL24:
 278              		.loc 3 395 0
 279 0052 0B4B     		ldr	r3, .L16
 280 0054 1A68     		ldr	r2, [r3]
 281 0056 9A42     		cmp	r2, r3
 282 0058 04D0     		beq	.L12
 283 005a 9B69     		ldr	r3, [r3, #24]
 284 005c 9968     		ldr	r1, [r3, #8]
 285 005e 9368     		ldr	r3, [r2, #8]
ARM GAS  /var/folders/t8/16hdwfmd2fg_d3q6dgx6bpmw0000gn/T//ccqtMZcN.s 			page 6


 286 0060 9942     		cmp	r1, r3
 287 0062 03D3     		bcc	.L15
 288              	.L12:
 289              	.LBB63:
 290              	.LBB64:
 291              	.LBB65:
 292              		.loc 2 60 0
 293              		.syntax divided
 294              	@ 60 "../../tmk_core/tool/chibios/ChibiOS/os/common/ext/CMSIS/include/cmsis_gcc.h" 1
 295 0064 62B6     		cpsie i
 296              	@ 0 "" 2
 297              	.LVL25:
 298              		.thumb
 299              		.syntax unified
 300              	.L9:
 301              	.LBE65:
 302              	.LBE64:
 303              	.LBE63:
 304              	.LBE62:
 305              	.LBE61:
 306              		.loc 1 180 0
 307 0066 2800     		movs	r0, r5
 308 0068 07B0     		add	sp, sp, #28
 309              		@ sp needed
 310              	.LVL26:
 311              	.LVL27:
 312              	.LVL28:
 313 006a F0BD     		pop	{r4, r5, r6, r7, pc}
 314              	.LVL29:
 315              	.L15:
 316              	.LBB67:
 317              	.LBB66:
 318              		.loc 3 395 0
 319 006c 0548     		ldr	r0, .L16+4
 320 006e FFF7FEFF 		bl	chSysHalt
 321              	.LVL30:
 322 0072 F7E7     		b	.L12
 323              	.LVL31:
 324              	.L14:
 325              	.LBE66:
 326              	.LBE67:
 327              		.loc 1 150 0 discriminator 2
 328 0074 0448     		ldr	r0, .L16+8
 329              	.LVL32:
 330 0076 FFF7FEFF 		bl	chSysHalt
 331              	.LVL33:
 332 007a C9E7     		b	.L10
 333              	.LVL34:
 334              	.L13:
 335              		.loc 1 154 0
 336 007c 0025     		movs	r5, #0
 337              	.LVL35:
 338 007e F2E7     		b	.L9
 339              	.L17:
 340              		.align	2
 341              	.L16:
 342 0080 00000000 		.word	ch
ARM GAS  /var/folders/t8/16hdwfmd2fg_d3q6dgx6bpmw0000gn/T//ccqtMZcN.s 			page 7


 343 0084 00000000 		.word	.LANCHOR0
 344 0088 00000000 		.word	.LANCHOR1
 345              		.cfi_endproc
 346              	.LFE139:
 347              		.size	chThdCreateFromMemoryPool, .-chThdCreateFromMemoryPool
 348              		.section	.rodata.__func__.5043,"a",%progbits
 349              		.align	2
 350              		.set	.LANCHOR0,. + 0
 351              		.type	__func__.5043, %object
 352              		.size	__func__.5043, 12
 353              	__func__.5043:
 354 0000 63685379 		.ascii	"chSysUnlock\000"
 354      73556E6C 
 354      6F636B00 
 355              		.section	.rodata.__func__.5734,"a",%progbits
 356              		.align	2
 357              		.set	.LANCHOR1,. + 0
 358              		.type	__func__.5734, %object
 359              		.size	__func__.5734, 26
 360              	__func__.5734:
 361 0000 63685468 		.ascii	"chThdCreateFromMemoryPool\000"
 361      64437265 
 361      61746546 
 361      726F6D4D 
 361      656D6F72 
 362              		.text
 363              	.Letext0:
 364              		.file 4 "/usr/local/Caskroom/gcc-arm-embedded/7-2017-q4-major/gcc-arm-none-eabi-7-2017-q4-major/li
 365              		.file 5 "/usr/local/Caskroom/gcc-arm-embedded/7-2017-q4-major/gcc-arm-none-eabi-7-2017-q4-major/ar
 366              		.file 6 "/usr/local/Caskroom/gcc-arm-embedded/7-2017-q4-major/gcc-arm-none-eabi-7-2017-q4-major/ar
 367              		.file 7 "../../tmk_core/tool/chibios/ChibiOS/os/common/ports/ARMCMx/compilers/GCC/chtypes.h"
 368              		.file 8 "../../tmk_core/tool/chibios/ChibiOS/os/rt/include/chsystypes.h"
 369              		.file 9 "../../tmk_core/tool/chibios/ChibiOS/os/rt/include/chschd.h"
 370              		.file 10 "../../tmk_core/tool/chibios/ChibiOS/os/common/ports/ARMCMx/chcore.h"
 371              		.file 11 "../../tmk_core/tool/chibios/ChibiOS/os/common/ports/ARMCMx/chcore_v6m.h"
 372              		.file 12 "../../tmk_core/tool/chibios/ChibiOS/os/rt/include/chsem.h"
 373              		.file 13 "../../tmk_core/tool/chibios/ChibiOS/os/rt/include/chmtx.h"
 374              		.file 14 "../../tmk_core/tool/chibios/ChibiOS/os/rt/include/chthreads.h"
 375              		.file 15 "../../tmk_core/tool/chibios/ChibiOS/os/rt/include/chregistry.h"
 376              		.file 16 "../../tmk_core/tool/chibios/ChibiOS/os/common/oslib/include/chmemcore.h"
 377              		.file 17 "../../tmk_core/tool/chibios/ChibiOS/os/common/oslib/include/chheap.h"
 378              		.file 18 "../../tmk_core/tool/chibios/ChibiOS/os/common/oslib/include/chmempools.h"
 379              		.file 19 "../../tmk_core/tool/chibios/ChibiOS/os/rt/include/chdebug.h"
 380              		.section	.debug_info,"",%progbits
 381              	.Ldebug_info0:
 382 0000 E40C0000 		.4byte	0xce4
 383 0004 0400     		.2byte	0x4
 384 0006 00000000 		.4byte	.Ldebug_abbrev0
 385 000a 04       		.byte	0x4
 386 000b 01       		.uleb128 0x1
 387 000c 19000000 		.4byte	.LASF149
 388 0010 0C       		.byte	0xc
 389 0011 3F050000 		.4byte	.LASF150
 390 0015 70040000 		.4byte	.LASF151
 391 0019 30000000 		.4byte	.Ldebug_ranges0+0x30
 392 001d 00000000 		.4byte	0
 393 0021 00000000 		.4byte	.Ldebug_line0
ARM GAS  /var/folders/t8/16hdwfmd2fg_d3q6dgx6bpmw0000gn/T//ccqtMZcN.s 			page 8


 394 0025 02       		.uleb128 0x2
 395 0026 04       		.byte	0x4
 396 0027 05       		.byte	0x5
 397 0028 696E7400 		.ascii	"int\000"
 398 002c 03       		.uleb128 0x3
 399 002d 22030000 		.4byte	.LASF2
 400 0031 04       		.byte	0x4
 401 0032 D8       		.byte	0xd8
 402 0033 37000000 		.4byte	0x37
 403 0037 04       		.uleb128 0x4
 404 0038 04       		.byte	0x4
 405 0039 07       		.byte	0x7
 406 003a 5A010000 		.4byte	.LASF0
 407 003e 04       		.uleb128 0x4
 408 003f 01       		.byte	0x1
 409 0040 06       		.byte	0x6
 410 0041 F8060000 		.4byte	.LASF1
 411 0045 03       		.uleb128 0x3
 412 0046 E7050000 		.4byte	.LASF3
 413 004a 05       		.byte	0x5
 414 004b 2B       		.byte	0x2b
 415 004c 50000000 		.4byte	0x50
 416 0050 04       		.uleb128 0x4
 417 0051 01       		.byte	0x1
 418 0052 08       		.byte	0x8
 419 0053 84060000 		.4byte	.LASF4
 420 0057 04       		.uleb128 0x4
 421 0058 02       		.byte	0x2
 422 0059 05       		.byte	0x5
 423 005a 79050000 		.4byte	.LASF5
 424 005e 03       		.uleb128 0x3
 425 005f 99020000 		.4byte	.LASF6
 426 0063 05       		.byte	0x5
 427 0064 39       		.byte	0x39
 428 0065 69000000 		.4byte	0x69
 429 0069 04       		.uleb128 0x4
 430 006a 02       		.byte	0x2
 431 006b 07       		.byte	0x7
 432 006c 0A070000 		.4byte	.LASF7
 433 0070 03       		.uleb128 0x3
 434 0071 83010000 		.4byte	.LASF8
 435 0075 05       		.byte	0x5
 436 0076 4D       		.byte	0x4d
 437 0077 7B000000 		.4byte	0x7b
 438 007b 04       		.uleb128 0x4
 439 007c 04       		.byte	0x4
 440 007d 05       		.byte	0x5
 441 007e 8F050000 		.4byte	.LASF9
 442 0082 03       		.uleb128 0x3
 443 0083 92060000 		.4byte	.LASF10
 444 0087 05       		.byte	0x5
 445 0088 4F       		.byte	0x4f
 446 0089 8D000000 		.4byte	0x8d
 447 008d 04       		.uleb128 0x4
 448 008e 04       		.byte	0x4
 449 008f 07       		.byte	0x7
 450 0090 2E060000 		.4byte	.LASF11
ARM GAS  /var/folders/t8/16hdwfmd2fg_d3q6dgx6bpmw0000gn/T//ccqtMZcN.s 			page 9


 451 0094 04       		.uleb128 0x4
 452 0095 08       		.byte	0x8
 453 0096 05       		.byte	0x5
 454 0097 30040000 		.4byte	.LASF12
 455 009b 03       		.uleb128 0x3
 456 009c 58030000 		.4byte	.LASF13
 457 00a0 05       		.byte	0x5
 458 00a1 69       		.byte	0x69
 459 00a2 A6000000 		.4byte	0xa6
 460 00a6 04       		.uleb128 0x4
 461 00a7 08       		.byte	0x8
 462 00a8 07       		.byte	0x7
 463 00a9 82020000 		.4byte	.LASF14
 464 00ad 03       		.uleb128 0x3
 465 00ae E2030000 		.4byte	.LASF15
 466 00b2 06       		.byte	0x6
 467 00b3 18       		.byte	0x18
 468 00b4 45000000 		.4byte	0x45
 469 00b8 03       		.uleb128 0x3
 470 00b9 07050000 		.4byte	.LASF16
 471 00bd 06       		.byte	0x6
 472 00be 24       		.byte	0x24
 473 00bf 5E000000 		.4byte	0x5e
 474 00c3 03       		.uleb128 0x3
 475 00c4 53060000 		.4byte	.LASF17
 476 00c8 06       		.byte	0x6
 477 00c9 2C       		.byte	0x2c
 478 00ca 70000000 		.4byte	0x70
 479 00ce 03       		.uleb128 0x3
 480 00cf 18020000 		.4byte	.LASF18
 481 00d3 06       		.byte	0x6
 482 00d4 30       		.byte	0x30
 483 00d5 82000000 		.4byte	0x82
 484 00d9 03       		.uleb128 0x3
 485 00da CC050000 		.4byte	.LASF19
 486 00de 06       		.byte	0x6
 487 00df 3C       		.byte	0x3c
 488 00e0 9B000000 		.4byte	0x9b
 489 00e4 03       		.uleb128 0x3
 490 00e5 EC040000 		.4byte	.LASF20
 491 00e9 07       		.byte	0x7
 492 00ea 3C       		.byte	0x3c
 493 00eb AD000000 		.4byte	0xad
 494 00ef 03       		.uleb128 0x3
 495 00f0 D9030000 		.4byte	.LASF21
 496 00f4 07       		.byte	0x7
 497 00f5 3D       		.byte	0x3d
 498 00f6 AD000000 		.4byte	0xad
 499 00fa 03       		.uleb128 0x3
 500 00fb 26060000 		.4byte	.LASF22
 501 00ff 07       		.byte	0x7
 502 0100 3E       		.byte	0x3e
 503 0101 AD000000 		.4byte	0xad
 504 0105 03       		.uleb128 0x3
 505 0106 66040000 		.4byte	.LASF23
 506 010a 07       		.byte	0x7
 507 010b 3F       		.byte	0x3f
ARM GAS  /var/folders/t8/16hdwfmd2fg_d3q6dgx6bpmw0000gn/T//ccqtMZcN.s 			page 10


 508 010c AD000000 		.4byte	0xad
 509 0110 03       		.uleb128 0x3
 510 0111 61020000 		.4byte	.LASF24
 511 0115 07       		.byte	0x7
 512 0116 40       		.byte	0x40
 513 0117 CE000000 		.4byte	0xce
 514 011b 03       		.uleb128 0x3
 515 011c 43040000 		.4byte	.LASF25
 516 0120 07       		.byte	0x7
 517 0121 41       		.byte	0x41
 518 0122 C3000000 		.4byte	0xc3
 519 0126 03       		.uleb128 0x3
 520 0127 29020000 		.4byte	.LASF26
 521 012b 07       		.byte	0x7
 522 012c 43       		.byte	0x43
 523 012d CE000000 		.4byte	0xce
 524 0131 03       		.uleb128 0x3
 525 0132 A4020000 		.4byte	.LASF27
 526 0136 07       		.byte	0x7
 527 0137 45       		.byte	0x45
 528 0138 C3000000 		.4byte	0xc3
 529 013c 03       		.uleb128 0x3
 530 013d 3E010000 		.4byte	.LASF28
 531 0141 08       		.byte	0x8
 532 0142 33       		.byte	0x33
 533 0143 CE000000 		.4byte	0xce
 534 0147 05       		.uleb128 0x5
 535 0148 3C010000 		.4byte	0x13c
 536 014c 03       		.uleb128 0x3
 537 014d F9020000 		.4byte	.LASF29
 538 0151 08       		.byte	0x8
 539 0152 3F       		.byte	0x3f
 540 0153 57010000 		.4byte	0x157
 541 0157 06       		.uleb128 0x6
 542 0158 F3030000 		.4byte	.LASF48
 543 015c 44       		.byte	0x44
 544 015d 09       		.byte	0x9
 545 015e 9A       		.byte	0x9a
 546 015f 41020000 		.4byte	0x241
 547 0163 07       		.uleb128 0x7
 548 0164 4D060000 		.4byte	.LASF30
 549 0168 09       		.byte	0x9
 550 0169 9B       		.byte	0x9b
 551 016a 76020000 		.4byte	0x276
 552 016e 00       		.byte	0
 553 016f 07       		.uleb128 0x7
 554 0170 7F030000 		.4byte	.LASF31
 555 0174 09       		.byte	0x9
 556 0175 9C       		.byte	0x9c
 557 0176 10010000 		.4byte	0x110
 558 017a 08       		.byte	0x8
 559 017b 08       		.uleb128 0x8
 560 017c 63747800 		.ascii	"ctx\000"
 561 0180 09       		.byte	0x9
 562 0181 9D       		.byte	0x9d
 563 0182 75040000 		.4byte	0x475
 564 0186 0C       		.byte	0xc
ARM GAS  /var/folders/t8/16hdwfmd2fg_d3q6dgx6bpmw0000gn/T//ccqtMZcN.s 			page 11


 565 0187 07       		.uleb128 0x7
 566 0188 7E060000 		.4byte	.LASF32
 567 018c 09       		.byte	0x9
 568 018d 9F       		.byte	0x9f
 569 018e 4C020000 		.4byte	0x24c
 570 0192 10       		.byte	0x10
 571 0193 07       		.uleb128 0x7
 572 0194 5D070000 		.4byte	.LASF33
 573 0198 09       		.byte	0x9
 574 0199 A0       		.byte	0xa0
 575 019a 4C020000 		.4byte	0x24c
 576 019e 14       		.byte	0x14
 577 019f 07       		.uleb128 0x7
 578 01a0 FE050000 		.4byte	.LASF34
 579 01a4 09       		.byte	0x9
 580 01a5 A7       		.byte	0xa7
 581 01a6 D0050000 		.4byte	0x5d0
 582 01aa 18       		.byte	0x18
 583 01ab 07       		.uleb128 0x7
 584 01ac 9C030000 		.4byte	.LASF35
 585 01b0 09       		.byte	0x9
 586 01b1 B0       		.byte	0xb0
 587 01b2 E7050000 		.4byte	0x5e7
 588 01b6 1C       		.byte	0x1c
 589 01b7 07       		.uleb128 0x7
 590 01b8 CE060000 		.4byte	.LASF36
 591 01bc 09       		.byte	0x9
 592 01bd B5       		.byte	0xb5
 593 01be EF000000 		.4byte	0xef
 594 01c2 20       		.byte	0x20
 595 01c3 07       		.uleb128 0x7
 596 01c4 38010000 		.4byte	.LASF37
 597 01c8 09       		.byte	0x9
 598 01c9 B9       		.byte	0xb9
 599 01ca E4000000 		.4byte	0xe4
 600 01ce 21       		.byte	0x21
 601 01cf 07       		.uleb128 0x7
 602 01d0 8D010000 		.4byte	.LASF38
 603 01d4 09       		.byte	0x9
 604 01d5 BE       		.byte	0xbe
 605 01d6 FA000000 		.4byte	0xfa
 606 01da 22       		.byte	0x22
 607 01db 07       		.uleb128 0x7
 608 01dc A4050000 		.4byte	.LASF39
 609 01e0 09       		.byte	0x9
 610 01e1 C4       		.byte	0xc4
 611 01e2 05010000 		.4byte	0x105
 612 01e6 23       		.byte	0x23
 613 01e7 09       		.uleb128 0x9
 614 01e8 7500     		.ascii	"u\000"
 615 01ea 09       		.byte	0x9
 616 01eb 0F01     		.2byte	0x10f
 617 01ed 05050000 		.4byte	0x505
 618 01f1 24       		.byte	0x24
 619 01f2 0A       		.uleb128 0xa
 620 01f3 9D060000 		.4byte	.LASF40
 621 01f7 09       		.byte	0x9
ARM GAS  /var/folders/t8/16hdwfmd2fg_d3q6dgx6bpmw0000gn/T//ccqtMZcN.s 			page 12


 622 01f8 1401     		.2byte	0x114
 623 01fa 52020000 		.4byte	0x252
 624 01fe 28       		.byte	0x28
 625 01ff 0A       		.uleb128 0xa
 626 0200 EA030000 		.4byte	.LASF41
 627 0204 09       		.byte	0x9
 628 0205 1A01     		.2byte	0x11a
 629 0207 76020000 		.4byte	0x276
 630 020b 2C       		.byte	0x2c
 631 020c 0A       		.uleb128 0xa
 632 020d 51010000 		.4byte	.LASF42
 633 0211 09       		.byte	0x9
 634 0212 2001     		.2byte	0x120
 635 0214 26010000 		.4byte	0x126
 636 0218 34       		.byte	0x34
 637 0219 0A       		.uleb128 0xa
 638 021a D5020000 		.4byte	.LASF43
 639 021e 09       		.byte	0x9
 640 021f 2701     		.2byte	0x127
 641 0221 CA050000 		.4byte	0x5ca
 642 0225 38       		.byte	0x38
 643 0226 0A       		.uleb128 0xa
 644 0227 48010000 		.4byte	.LASF44
 645 022b 09       		.byte	0x9
 646 022c 2B01     		.2byte	0x12b
 647 022e 10010000 		.4byte	0x110
 648 0232 3C       		.byte	0x3c
 649 0233 0A       		.uleb128 0xa
 650 0234 8A070000 		.4byte	.LASF45
 651 0238 09       		.byte	0x9
 652 0239 3201     		.2byte	0x132
 653 023b 29030000 		.4byte	0x329
 654 023f 40       		.byte	0x40
 655 0240 00       		.byte	0
 656 0241 03       		.uleb128 0x3
 657 0242 89030000 		.4byte	.LASF46
 658 0246 08       		.byte	0x8
 659 0247 44       		.byte	0x44
 660 0248 4C020000 		.4byte	0x24c
 661 024c 0B       		.uleb128 0xb
 662 024d 04       		.byte	0x4
 663 024e 4C010000 		.4byte	0x14c
 664 0252 03       		.uleb128 0x3
 665 0253 74010000 		.4byte	.LASF47
 666 0257 08       		.byte	0x8
 667 0258 49       		.byte	0x49
 668 0259 5D020000 		.4byte	0x25d
 669 025d 06       		.uleb128 0x6
 670 025e 00000000 		.4byte	.LASF49
 671 0262 04       		.byte	0x4
 672 0263 09       		.byte	0x9
 673 0264 88       		.byte	0x88
 674 0265 76020000 		.4byte	0x276
 675 0269 07       		.uleb128 0x7
 676 026a 67010000 		.4byte	.LASF50
 677 026e 09       		.byte	0x9
 678 026f 89       		.byte	0x89
ARM GAS  /var/folders/t8/16hdwfmd2fg_d3q6dgx6bpmw0000gn/T//ccqtMZcN.s 			page 13


 679 0270 4C020000 		.4byte	0x24c
 680 0274 00       		.byte	0
 681 0275 00       		.byte	0
 682 0276 03       		.uleb128 0x3
 683 0277 C5020000 		.4byte	.LASF51
 684 027b 08       		.byte	0x8
 685 027c 50       		.byte	0x50
 686 027d 81020000 		.4byte	0x281
 687 0281 06       		.uleb128 0x6
 688 0282 E4010000 		.4byte	.LASF52
 689 0286 08       		.byte	0x8
 690 0287 09       		.byte	0x9
 691 0288 8F       		.byte	0x8f
 692 0289 A6020000 		.4byte	0x2a6
 693 028d 07       		.uleb128 0x7
 694 028e 67010000 		.4byte	.LASF50
 695 0292 09       		.byte	0x9
 696 0293 90       		.byte	0x90
 697 0294 4C020000 		.4byte	0x24c
 698 0298 00       		.byte	0
 699 0299 07       		.uleb128 0x7
 700 029a DF010000 		.4byte	.LASF53
 701 029e 09       		.byte	0x9
 702 029f 91       		.byte	0x91
 703 02a0 4C020000 		.4byte	0x24c
 704 02a4 04       		.byte	0x4
 705 02a5 00       		.byte	0
 706 02a6 03       		.uleb128 0x3
 707 02a7 40060000 		.4byte	.LASF54
 708 02ab 08       		.byte	0x8
 709 02ac 57       		.byte	0x57
 710 02ad B1020000 		.4byte	0x2b1
 711 02b1 0C       		.uleb128 0xc
 712 02b2 C5010000 		.4byte	.LASF55
 713 02b6 1C       		.byte	0x1c
 714 02b7 09       		.byte	0x9
 715 02b8 6A01     		.2byte	0x16a
 716 02ba 0D030000 		.4byte	0x30d
 717 02be 0A       		.uleb128 0xa
 718 02bf 4D060000 		.4byte	.LASF30
 719 02c3 09       		.byte	0x9
 720 02c4 6B01     		.2byte	0x16b
 721 02c6 76020000 		.4byte	0x276
 722 02ca 00       		.byte	0
 723 02cb 0A       		.uleb128 0xa
 724 02cc 7F030000 		.4byte	.LASF31
 725 02d0 09       		.byte	0x9
 726 02d1 6C01     		.2byte	0x16c
 727 02d3 10010000 		.4byte	0x110
 728 02d7 08       		.byte	0x8
 729 02d8 09       		.uleb128 0x9
 730 02d9 63747800 		.ascii	"ctx\000"
 731 02dd 09       		.byte	0x9
 732 02de 6E01     		.2byte	0x16e
 733 02e0 75040000 		.4byte	0x475
 734 02e4 0C       		.byte	0xc
 735 02e5 0A       		.uleb128 0xa
ARM GAS  /var/folders/t8/16hdwfmd2fg_d3q6dgx6bpmw0000gn/T//ccqtMZcN.s 			page 14


 736 02e6 7E060000 		.4byte	.LASF32
 737 02ea 09       		.byte	0x9
 738 02eb 7101     		.2byte	0x171
 739 02ed 4C020000 		.4byte	0x24c
 740 02f1 10       		.byte	0x10
 741 02f2 0A       		.uleb128 0xa
 742 02f3 5D070000 		.4byte	.LASF33
 743 02f7 09       		.byte	0x9
 744 02f8 7201     		.2byte	0x172
 745 02fa 4C020000 		.4byte	0x24c
 746 02fe 14       		.byte	0x14
 747 02ff 0A       		.uleb128 0xa
 748 0300 31070000 		.4byte	.LASF56
 749 0304 09       		.byte	0x9
 750 0305 7501     		.2byte	0x175
 751 0307 4C020000 		.4byte	0x24c
 752 030b 18       		.byte	0x18
 753 030c 00       		.byte	0
 754 030d 03       		.uleb128 0x3
 755 030e FF010000 		.4byte	.LASF57
 756 0312 08       		.byte	0x8
 757 0313 5C       		.byte	0x5c
 758 0314 18030000 		.4byte	0x318
 759 0318 0B       		.uleb128 0xb
 760 0319 04       		.byte	0x4
 761 031a 1E030000 		.4byte	0x31e
 762 031e 0D       		.uleb128 0xd
 763 031f 29030000 		.4byte	0x329
 764 0323 0E       		.uleb128 0xe
 765 0324 29030000 		.4byte	0x329
 766 0328 00       		.byte	0
 767 0329 0F       		.uleb128 0xf
 768 032a 04       		.byte	0x4
 769 032b 03       		.uleb128 0x3
 770 032c 49040000 		.4byte	.LASF58
 771 0330 08       		.byte	0x8
 772 0331 61       		.byte	0x61
 773 0332 36030000 		.4byte	0x336
 774 0336 0C       		.uleb128 0xc
 775 0337 69020000 		.4byte	.LASF59
 776 033b 14       		.byte	0x14
 777 033c 09       		.byte	0x9
 778 033d 4501     		.2byte	0x145
 779 033f 85030000 		.4byte	0x385
 780 0343 0A       		.uleb128 0xa
 781 0344 67010000 		.4byte	.LASF50
 782 0348 09       		.byte	0x9
 783 0349 4601     		.2byte	0x146
 784 034b ED050000 		.4byte	0x5ed
 785 034f 00       		.byte	0
 786 0350 0A       		.uleb128 0xa
 787 0351 DF010000 		.4byte	.LASF53
 788 0355 09       		.byte	0x9
 789 0356 4701     		.2byte	0x147
 790 0358 ED050000 		.4byte	0x5ed
 791 035c 04       		.byte	0x4
 792 035d 0A       		.uleb128 0xa
ARM GAS  /var/folders/t8/16hdwfmd2fg_d3q6dgx6bpmw0000gn/T//ccqtMZcN.s 			page 15


 793 035e 04070000 		.4byte	.LASF60
 794 0362 09       		.byte	0x9
 795 0363 4801     		.2byte	0x148
 796 0365 3C010000 		.4byte	0x13c
 797 0369 08       		.byte	0x8
 798 036a 0A       		.uleb128 0xa
 799 036b D3010000 		.4byte	.LASF61
 800 036f 09       		.byte	0x9
 801 0370 4901     		.2byte	0x149
 802 0372 0D030000 		.4byte	0x30d
 803 0376 0C       		.byte	0xc
 804 0377 09       		.uleb128 0x9
 805 0378 70617200 		.ascii	"par\000"
 806 037c 09       		.byte	0x9
 807 037d 4B01     		.2byte	0x14b
 808 037f 29030000 		.4byte	0x329
 809 0383 10       		.byte	0x10
 810 0384 00       		.byte	0
 811 0385 03       		.uleb128 0x3
 812 0386 AB060000 		.4byte	.LASF62
 813 038a 08       		.byte	0x8
 814 038b 66       		.byte	0x66
 815 038c 90030000 		.4byte	0x390
 816 0390 0C       		.uleb128 0xc
 817 0391 DD020000 		.4byte	.LASF63
 818 0395 10       		.byte	0x10
 819 0396 09       		.byte	0x9
 820 0397 5501     		.2byte	0x155
 821 0399 D2030000 		.4byte	0x3d2
 822 039d 0A       		.uleb128 0xa
 823 039e 67010000 		.4byte	.LASF50
 824 03a2 09       		.byte	0x9
 825 03a3 5601     		.2byte	0x156
 826 03a5 ED050000 		.4byte	0x5ed
 827 03a9 00       		.byte	0
 828 03aa 0A       		.uleb128 0xa
 829 03ab DF010000 		.4byte	.LASF53
 830 03af 09       		.byte	0x9
 831 03b0 5801     		.2byte	0x158
 832 03b2 ED050000 		.4byte	0x5ed
 833 03b6 04       		.byte	0x4
 834 03b7 0A       		.uleb128 0xa
 835 03b8 04070000 		.4byte	.LASF60
 836 03bc 09       		.byte	0x9
 837 03bd 5A01     		.2byte	0x15a
 838 03bf 3C010000 		.4byte	0x13c
 839 03c3 08       		.byte	0x8
 840 03c4 0A       		.uleb128 0xa
 841 03c5 F4040000 		.4byte	.LASF64
 842 03c9 09       		.byte	0x9
 843 03ca 5C01     		.2byte	0x15c
 844 03cc 47010000 		.4byte	0x147
 845 03d0 0C       		.byte	0xc
 846 03d1 00       		.byte	0
 847 03d2 03       		.uleb128 0x3
 848 03d3 0C040000 		.4byte	.LASF65
 849 03d7 08       		.byte	0x8
ARM GAS  /var/folders/t8/16hdwfmd2fg_d3q6dgx6bpmw0000gn/T//ccqtMZcN.s 			page 16


 850 03d8 6B       		.byte	0x6b
 851 03d9 DD030000 		.4byte	0x3dd
 852 03dd 0C       		.uleb128 0xc
 853 03de 08020000 		.4byte	.LASF66
 854 03e2 0C       		.byte	0xc
 855 03e3 09       		.byte	0x9
 856 03e4 7C01     		.2byte	0x17c
 857 03e6 12040000 		.4byte	0x412
 858 03ea 0A       		.uleb128 0xa
 859 03eb E2040000 		.4byte	.LASF67
 860 03ef 09       		.byte	0x9
 861 03f0 8401     		.2byte	0x184
 862 03f2 D6050000 		.4byte	0x5d6
 863 03f6 00       		.byte	0
 864 03f7 0A       		.uleb128 0xa
 865 03f8 B7020000 		.4byte	.LASF68
 866 03fc 09       		.byte	0x9
 867 03fd 8901     		.2byte	0x189
 868 03ff 31010000 		.4byte	0x131
 869 0403 04       		.byte	0x4
 870 0404 0A       		.uleb128 0xa
 871 0405 36050000 		.4byte	.LASF69
 872 0409 09       		.byte	0x9
 873 040a 8D01     		.2byte	0x18d
 874 040c 31010000 		.4byte	0x131
 875 0410 08       		.byte	0x8
 876 0411 00       		.byte	0
 877 0412 03       		.uleb128 0x3
 878 0413 E0060000 		.4byte	.LASF70
 879 0417 08       		.byte	0x8
 880 0418 70       		.byte	0x70
 881 0419 1D040000 		.4byte	0x41d
 882 041d 0C       		.uleb128 0xc
 883 041e B9050000 		.4byte	.LASF71
 884 0422 7C       		.byte	0x7c
 885 0423 09       		.byte	0x9
 886 0424 9C01     		.2byte	0x19c
 887 0426 5F040000 		.4byte	0x45f
 888 042a 0A       		.uleb128 0xa
 889 042b D5050000 		.4byte	.LASF72
 890 042f 09       		.byte	0x9
 891 0430 A001     		.2byte	0x1a0
 892 0432 A6020000 		.4byte	0x2a6
 893 0436 00       		.byte	0
 894 0437 0A       		.uleb128 0xa
 895 0438 B1010000 		.4byte	.LASF73
 896 043c 09       		.byte	0x9
 897 043d A401     		.2byte	0x1a4
 898 043f 85030000 		.4byte	0x385
 899 0443 1C       		.byte	0x1c
 900 0444 09       		.uleb128 0x9
 901 0445 64626700 		.ascii	"dbg\000"
 902 0449 09       		.byte	0x9
 903 044a A801     		.2byte	0x1a8
 904 044c D2030000 		.4byte	0x3d2
 905 0450 2C       		.byte	0x2c
 906 0451 0A       		.uleb128 0xa
ARM GAS  /var/folders/t8/16hdwfmd2fg_d3q6dgx6bpmw0000gn/T//ccqtMZcN.s 			page 17


 907 0452 FC040000 		.4byte	.LASF74
 908 0456 09       		.byte	0x9
 909 0457 AC01     		.2byte	0x1ac
 910 0459 4C010000 		.4byte	0x14c
 911 045d 38       		.byte	0x38
 912 045e 00       		.byte	0
 913 045f 03       		.uleb128 0x3
 914 0460 2F010000 		.4byte	.LASF75
 915 0464 0A       		.byte	0xa
 916 0465 65       		.byte	0x65
 917 0466 29030000 		.4byte	0x329
 918 046a 03       		.uleb128 0x3
 919 046b 1D070000 		.4byte	.LASF76
 920 046f 0A       		.byte	0xa
 921 0470 6D       		.byte	0x6d
 922 0471 D9000000 		.4byte	0xd9
 923 0475 06       		.uleb128 0x6
 924 0476 B8010000 		.4byte	.LASF77
 925 047a 04       		.byte	0x4
 926 047b 0A       		.byte	0xa
 927 047c 89       		.byte	0x89
 928 047d 8D040000 		.4byte	0x48d
 929 0481 08       		.uleb128 0x8
 930 0482 737000   		.ascii	"sp\000"
 931 0485 0A       		.byte	0xa
 932 0486 8A       		.byte	0x8a
 933 0487 FF040000 		.4byte	0x4ff
 934 048b 00       		.byte	0
 935 048c 00       		.byte	0
 936 048d 06       		.uleb128 0x6
 937 048e 98050000 		.4byte	.LASF78
 938 0492 24       		.byte	0x24
 939 0493 0B       		.byte	0xb
 940 0494 C3       		.byte	0xc3
 941 0495 FF040000 		.4byte	0x4ff
 942 0499 08       		.uleb128 0x8
 943 049a 723800   		.ascii	"r8\000"
 944 049d 0B       		.byte	0xb
 945 049e C4       		.byte	0xc4
 946 049f 5F040000 		.4byte	0x45f
 947 04a3 00       		.byte	0
 948 04a4 08       		.uleb128 0x8
 949 04a5 723900   		.ascii	"r9\000"
 950 04a8 0B       		.byte	0xb
 951 04a9 C5       		.byte	0xc5
 952 04aa 5F040000 		.4byte	0x45f
 953 04ae 04       		.byte	0x4
 954 04af 08       		.uleb128 0x8
 955 04b0 72313000 		.ascii	"r10\000"
 956 04b4 0B       		.byte	0xb
 957 04b5 C6       		.byte	0xc6
 958 04b6 5F040000 		.4byte	0x45f
 959 04ba 08       		.byte	0x8
 960 04bb 08       		.uleb128 0x8
 961 04bc 72313100 		.ascii	"r11\000"
 962 04c0 0B       		.byte	0xb
 963 04c1 C7       		.byte	0xc7
ARM GAS  /var/folders/t8/16hdwfmd2fg_d3q6dgx6bpmw0000gn/T//ccqtMZcN.s 			page 18


 964 04c2 5F040000 		.4byte	0x45f
 965 04c6 0C       		.byte	0xc
 966 04c7 08       		.uleb128 0x8
 967 04c8 723400   		.ascii	"r4\000"
 968 04cb 0B       		.byte	0xb
 969 04cc C8       		.byte	0xc8
 970 04cd 5F040000 		.4byte	0x45f
 971 04d1 10       		.byte	0x10
 972 04d2 08       		.uleb128 0x8
 973 04d3 723500   		.ascii	"r5\000"
 974 04d6 0B       		.byte	0xb
 975 04d7 C9       		.byte	0xc9
 976 04d8 5F040000 		.4byte	0x45f
 977 04dc 14       		.byte	0x14
 978 04dd 08       		.uleb128 0x8
 979 04de 723600   		.ascii	"r6\000"
 980 04e1 0B       		.byte	0xb
 981 04e2 CA       		.byte	0xca
 982 04e3 5F040000 		.4byte	0x45f
 983 04e7 18       		.byte	0x18
 984 04e8 08       		.uleb128 0x8
 985 04e9 723700   		.ascii	"r7\000"
 986 04ec 0B       		.byte	0xb
 987 04ed CB       		.byte	0xcb
 988 04ee 5F040000 		.4byte	0x45f
 989 04f2 1C       		.byte	0x1c
 990 04f3 08       		.uleb128 0x8
 991 04f4 6C7200   		.ascii	"lr\000"
 992 04f7 0B       		.byte	0xb
 993 04f8 CC       		.byte	0xcc
 994 04f9 5F040000 		.4byte	0x45f
 995 04fd 20       		.byte	0x20
 996 04fe 00       		.byte	0
 997 04ff 0B       		.uleb128 0xb
 998 0500 04       		.byte	0x4
 999 0501 8D040000 		.4byte	0x48d
 1000 0505 10       		.uleb128 0x10
 1001 0506 04       		.byte	0x4
 1002 0507 09       		.byte	0x9
 1003 0508 D2       		.byte	0xd2
 1004 0509 68050000 		.4byte	0x568
 1005 050d 11       		.uleb128 0x11
 1006 050e 29030000 		.4byte	.LASF79
 1007 0512 09       		.byte	0x9
 1008 0513 D9       		.byte	0xd9
 1009 0514 1B010000 		.4byte	0x11b
 1010 0518 11       		.uleb128 0x11
 1011 0519 63070000 		.4byte	.LASF80
 1012 051d 09       		.byte	0x9
 1013 051e E0       		.byte	0xe0
 1014 051f 1B010000 		.4byte	0x11b
 1015 0523 11       		.uleb128 0x11
 1016 0524 A0010000 		.4byte	.LASF81
 1017 0528 09       		.byte	0x9
 1018 0529 E7       		.byte	0xe7
 1019 052a 29030000 		.4byte	0x329
 1020 052e 11       		.uleb128 0x11
ARM GAS  /var/folders/t8/16hdwfmd2fg_d3q6dgx6bpmw0000gn/T//ccqtMZcN.s 			page 19


 1021 052f EC060000 		.4byte	.LASF82
 1022 0533 09       		.byte	0x9
 1023 0534 EE       		.byte	0xee
 1024 0535 68050000 		.4byte	0x568
 1025 0539 11       		.uleb128 0x11
 1026 053a 21020000 		.4byte	.LASF83
 1027 053e 09       		.byte	0x9
 1028 053f F3       		.byte	0xf3
 1029 0540 1B010000 		.4byte	0x11b
 1030 0544 11       		.uleb128 0x11
 1031 0545 5B060000 		.4byte	.LASF84
 1032 0549 09       		.byte	0x9
 1033 054a FC       		.byte	0xfc
 1034 054b 93050000 		.4byte	0x593
 1035 054f 12       		.uleb128 0x12
 1036 0550 02010000 		.4byte	.LASF85
 1037 0554 09       		.byte	0x9
 1038 0555 0501     		.2byte	0x105
 1039 0557 CA050000 		.4byte	0x5ca
 1040 055b 12       		.uleb128 0x12
 1041 055c D8010000 		.4byte	.LASF86
 1042 0560 09       		.byte	0x9
 1043 0561 0D01     		.2byte	0x10d
 1044 0563 26010000 		.4byte	0x126
 1045 0567 00       		.byte	0
 1046 0568 0B       		.uleb128 0xb
 1047 0569 04       		.byte	0x4
 1048 056a 41020000 		.4byte	0x241
 1049 056e 06       		.uleb128 0x6
 1050 056f 54020000 		.4byte	.LASF87
 1051 0573 0C       		.byte	0xc
 1052 0574 0C       		.byte	0xc
 1053 0575 34       		.byte	0x34
 1054 0576 93050000 		.4byte	0x593
 1055 057a 07       		.uleb128 0x7
 1056 057b 4D060000 		.4byte	.LASF30
 1057 057f 0C       		.byte	0xc
 1058 0580 35       		.byte	0x35
 1059 0581 76020000 		.4byte	0x276
 1060 0585 00       		.byte	0
 1061 0586 08       		.uleb128 0x8
 1062 0587 636E7400 		.ascii	"cnt\000"
 1063 058b 0C       		.byte	0xc
 1064 058c 37       		.byte	0x37
 1065 058d 31010000 		.4byte	0x131
 1066 0591 08       		.byte	0x8
 1067 0592 00       		.byte	0
 1068 0593 0B       		.uleb128 0xb
 1069 0594 04       		.byte	0x4
 1070 0595 6E050000 		.4byte	0x56e
 1071 0599 06       		.uleb128 0x6
 1072 059a 4A030000 		.4byte	.LASF88
 1073 059e 10       		.byte	0x10
 1074 059f 0D       		.byte	0xd
 1075 05a0 39       		.byte	0x39
 1076 05a1 CA050000 		.4byte	0x5ca
 1077 05a5 07       		.uleb128 0x7
ARM GAS  /var/folders/t8/16hdwfmd2fg_d3q6dgx6bpmw0000gn/T//ccqtMZcN.s 			page 20


 1078 05a6 4D060000 		.4byte	.LASF30
 1079 05aa 0D       		.byte	0xd
 1080 05ab 3A       		.byte	0x3a
 1081 05ac 76020000 		.4byte	0x276
 1082 05b0 00       		.byte	0
 1083 05b1 07       		.uleb128 0x7
 1084 05b2 BF020000 		.4byte	.LASF89
 1085 05b6 0D       		.byte	0xd
 1086 05b7 3C       		.byte	0x3c
 1087 05b8 4C020000 		.4byte	0x24c
 1088 05bc 08       		.byte	0x8
 1089 05bd 07       		.uleb128 0x7
 1090 05be 67010000 		.4byte	.LASF50
 1091 05c2 0D       		.byte	0xd
 1092 05c3 3E       		.byte	0x3e
 1093 05c4 93070000 		.4byte	0x793
 1094 05c8 0C       		.byte	0xc
 1095 05c9 00       		.byte	0
 1096 05ca 0B       		.uleb128 0xb
 1097 05cb 04       		.byte	0x4
 1098 05cc 99050000 		.4byte	0x599
 1099 05d0 0B       		.uleb128 0xb
 1100 05d1 04       		.byte	0x4
 1101 05d2 E2050000 		.4byte	0x5e2
 1102 05d6 05       		.uleb128 0x5
 1103 05d7 D0050000 		.4byte	0x5d0
 1104 05db 04       		.uleb128 0x4
 1105 05dc 01       		.byte	0x1
 1106 05dd 08       		.byte	0x8
 1107 05de 84030000 		.4byte	.LASF90
 1108 05e2 13       		.uleb128 0x13
 1109 05e3 DB050000 		.4byte	0x5db
 1110 05e7 0B       		.uleb128 0xb
 1111 05e8 04       		.byte	0x4
 1112 05e9 6A040000 		.4byte	0x46a
 1113 05ed 0B       		.uleb128 0xb
 1114 05ee 04       		.byte	0x4
 1115 05ef 2B030000 		.4byte	0x32b
 1116 05f3 14       		.uleb128 0x14
 1117 05f4 636800   		.ascii	"ch\000"
 1118 05f7 09       		.byte	0x9
 1119 05f8 D201     		.2byte	0x1d2
 1120 05fa 12040000 		.4byte	0x412
 1121 05fe 15       		.uleb128 0x15
 1122 05ff 6A040000 		.4byte	0x46a
 1123 0603 09060000 		.4byte	0x609
 1124 0607 16       		.uleb128 0x16
 1125 0608 00       		.byte	0
 1126 0609 17       		.uleb128 0x17
 1127 060a A3030000 		.4byte	.LASF91
 1128 060e 03       		.byte	0x3
 1129 060f 2B01     		.2byte	0x12b
 1130 0611 FE050000 		.4byte	0x5fe
 1131 0615 03       		.uleb128 0x3
 1132 0616 7A020000 		.4byte	.LASF92
 1133 061a 0E       		.byte	0xe
 1134 061b 40       		.byte	0x40
ARM GAS  /var/folders/t8/16hdwfmd2fg_d3q6dgx6bpmw0000gn/T//ccqtMZcN.s 			page 21


 1135 061c 18030000 		.4byte	0x318
 1136 0620 18       		.uleb128 0x18
 1137 0621 18       		.byte	0x18
 1138 0622 0E       		.byte	0xe
 1139 0623 45       		.byte	0x45
 1140 0624 71060000 		.4byte	0x671
 1141 0628 07       		.uleb128 0x7
 1142 0629 FE050000 		.4byte	.LASF34
 1143 062d 0E       		.byte	0xe
 1144 062e 49       		.byte	0x49
 1145 062f D0050000 		.4byte	0x5d0
 1146 0633 00       		.byte	0
 1147 0634 07       		.uleb128 0x7
 1148 0635 29010000 		.4byte	.LASF93
 1149 0639 0E       		.byte	0xe
 1150 063a 4D       		.byte	0x4d
 1151 063b E7050000 		.4byte	0x5e7
 1152 063f 04       		.byte	0x4
 1153 0640 07       		.uleb128 0x7
 1154 0641 2B040000 		.4byte	.LASF94
 1155 0645 0E       		.byte	0xe
 1156 0646 51       		.byte	0x51
 1157 0647 E7050000 		.4byte	0x5e7
 1158 064b 08       		.byte	0x8
 1159 064c 07       		.uleb128 0x7
 1160 064d 7F030000 		.4byte	.LASF31
 1161 0651 0E       		.byte	0xe
 1162 0652 55       		.byte	0x55
 1163 0653 10010000 		.4byte	0x110
 1164 0657 0C       		.byte	0xc
 1165 0658 07       		.uleb128 0x7
 1166 0659 A5060000 		.4byte	.LASF95
 1167 065d 0E       		.byte	0xe
 1168 065e 59       		.byte	0x59
 1169 065f 15060000 		.4byte	0x615
 1170 0663 10       		.byte	0x10
 1171 0664 08       		.uleb128 0x8
 1172 0665 61726700 		.ascii	"arg\000"
 1173 0669 0E       		.byte	0xe
 1174 066a 5D       		.byte	0x5d
 1175 066b 29030000 		.4byte	0x329
 1176 066f 14       		.byte	0x14
 1177 0670 00       		.byte	0
 1178 0671 03       		.uleb128 0x3
 1179 0672 35020000 		.4byte	.LASF96
 1180 0676 0E       		.byte	0xe
 1181 0677 5E       		.byte	0x5e
 1182 0678 20060000 		.4byte	0x620
 1183 067c 18       		.uleb128 0x18
 1184 067d 16       		.byte	0x16
 1185 067e 0F       		.byte	0xf
 1186 067f 34       		.byte	0x34
 1187 0680 5D070000 		.4byte	0x75d
 1188 0684 07       		.uleb128 0x7
 1189 0685 03060000 		.4byte	.LASF97
 1190 0689 0F       		.byte	0xf
 1191 068a 35       		.byte	0x35
ARM GAS  /var/folders/t8/16hdwfmd2fg_d3q6dgx6bpmw0000gn/T//ccqtMZcN.s 			page 22


 1192 068b 5D070000 		.4byte	0x75d
 1193 068f 00       		.byte	0
 1194 0690 07       		.uleb128 0x7
 1195 0691 3E040000 		.4byte	.LASF98
 1196 0695 0F       		.byte	0xf
 1197 0696 36       		.byte	0x36
 1198 0697 AD000000 		.4byte	0xad
 1199 069b 04       		.byte	0x4
 1200 069c 07       		.uleb128 0x7
 1201 069d 59040000 		.4byte	.LASF99
 1202 06a1 0F       		.byte	0xf
 1203 06a2 37       		.byte	0x37
 1204 06a3 AD000000 		.4byte	0xad
 1205 06a7 05       		.byte	0x5
 1206 06a8 07       		.uleb128 0x7
 1207 06a9 6C010000 		.4byte	.LASF100
 1208 06ad 0F       		.byte	0xf
 1209 06ae 38       		.byte	0x38
 1210 06af B8000000 		.4byte	0xb8
 1211 06b3 06       		.byte	0x6
 1212 06b4 07       		.uleb128 0x7
 1213 06b5 5E040000 		.4byte	.LASF101
 1214 06b9 0F       		.byte	0xf
 1215 06ba 39       		.byte	0x39
 1216 06bb AD000000 		.4byte	0xad
 1217 06bf 08       		.byte	0x8
 1218 06c0 07       		.uleb128 0x7
 1219 06c1 10000000 		.4byte	.LASF102
 1220 06c5 0F       		.byte	0xf
 1221 06c6 3A       		.byte	0x3a
 1222 06c7 AD000000 		.4byte	0xad
 1223 06cb 09       		.byte	0x9
 1224 06cc 07       		.uleb128 0x7
 1225 06cd 49020000 		.4byte	.LASF103
 1226 06d1 0F       		.byte	0xf
 1227 06d2 3B       		.byte	0x3b
 1228 06d3 AD000000 		.4byte	0xad
 1229 06d7 0A       		.byte	0xa
 1230 06d8 07       		.uleb128 0x7
 1231 06d9 1A050000 		.4byte	.LASF104
 1232 06dd 0F       		.byte	0xf
 1233 06de 3C       		.byte	0x3c
 1234 06df AD000000 		.4byte	0xad
 1235 06e3 0B       		.byte	0xb
 1236 06e4 07       		.uleb128 0x7
 1237 06e5 63030000 		.4byte	.LASF105
 1238 06e9 0F       		.byte	0xf
 1239 06ea 3D       		.byte	0x3d
 1240 06eb AD000000 		.4byte	0xad
 1241 06ef 0C       		.byte	0xc
 1242 06f0 07       		.uleb128 0x7
 1243 06f1 F5010000 		.4byte	.LASF106
 1244 06f5 0F       		.byte	0xf
 1245 06f6 3E       		.byte	0x3e
 1246 06f7 AD000000 		.4byte	0xad
 1247 06fb 0D       		.byte	0xd
 1248 06fc 07       		.uleb128 0x7
ARM GAS  /var/folders/t8/16hdwfmd2fg_d3q6dgx6bpmw0000gn/T//ccqtMZcN.s 			page 23


 1249 06fd 02030000 		.4byte	.LASF107
 1250 0701 0F       		.byte	0xf
 1251 0702 3F       		.byte	0x3f
 1252 0703 AD000000 		.4byte	0xad
 1253 0707 0E       		.byte	0xe
 1254 0708 07       		.uleb128 0x7
 1255 0709 03040000 		.4byte	.LASF108
 1256 070d 0F       		.byte	0xf
 1257 070e 40       		.byte	0x40
 1258 070f AD000000 		.4byte	0xad
 1259 0713 0F       		.byte	0xf
 1260 0714 07       		.uleb128 0x7
 1261 0715 AA020000 		.4byte	.LASF109
 1262 0719 0F       		.byte	0xf
 1263 071a 41       		.byte	0x41
 1264 071b AD000000 		.4byte	0xad
 1265 071f 10       		.byte	0x10
 1266 0720 07       		.uleb128 0x7
 1267 0721 0C030000 		.4byte	.LASF110
 1268 0725 0F       		.byte	0xf
 1269 0726 42       		.byte	0x42
 1270 0727 AD000000 		.4byte	0xad
 1271 072b 11       		.byte	0x11
 1272 072c 07       		.uleb128 0x7
 1273 072d 75030000 		.4byte	.LASF111
 1274 0731 0F       		.byte	0xf
 1275 0732 43       		.byte	0x43
 1276 0733 AD000000 		.4byte	0xad
 1277 0737 12       		.byte	0x12
 1278 0738 07       		.uleb128 0x7
 1279 0739 28070000 		.4byte	.LASF112
 1280 073d 0F       		.byte	0xf
 1281 073e 44       		.byte	0x44
 1282 073f AD000000 		.4byte	0xad
 1283 0743 13       		.byte	0x13
 1284 0744 07       		.uleb128 0x7
 1285 0745 0E060000 		.4byte	.LASF113
 1286 0749 0F       		.byte	0xf
 1287 074a 45       		.byte	0x45
 1288 074b AD000000 		.4byte	0xad
 1289 074f 14       		.byte	0x14
 1290 0750 07       		.uleb128 0x7
 1291 0751 97010000 		.4byte	.LASF114
 1292 0755 0F       		.byte	0xf
 1293 0756 46       		.byte	0x46
 1294 0757 AD000000 		.4byte	0xad
 1295 075b 15       		.byte	0x15
 1296 075c 00       		.byte	0
 1297 075d 15       		.uleb128 0x15
 1298 075e DB050000 		.4byte	0x5db
 1299 0762 6D070000 		.4byte	0x76d
 1300 0766 19       		.uleb128 0x19
 1301 0767 37000000 		.4byte	0x37
 1302 076b 03       		.byte	0x3
 1303 076c 00       		.byte	0
 1304 076d 03       		.uleb128 0x3
 1305 076e 10050000 		.4byte	.LASF115
ARM GAS  /var/folders/t8/16hdwfmd2fg_d3q6dgx6bpmw0000gn/T//ccqtMZcN.s 			page 24


 1306 0772 0F       		.byte	0xf
 1307 0773 47       		.byte	0x47
 1308 0774 7C060000 		.4byte	0x67c
 1309 0778 13       		.uleb128 0x13
 1310 0779 6D070000 		.4byte	0x76d
 1311 077d 1A       		.uleb128 0x1a
 1312 077e 42070000 		.4byte	.LASF116
 1313 0782 0F       		.byte	0xf
 1314 0783 6C       		.byte	0x6c
 1315 0784 78070000 		.4byte	0x778
 1316 0788 03       		.uleb128 0x3
 1317 0789 76060000 		.4byte	.LASF117
 1318 078d 0D       		.byte	0xd
 1319 078e 34       		.byte	0x34
 1320 078f 99050000 		.4byte	0x599
 1321 0793 0B       		.uleb128 0xb
 1322 0794 04       		.byte	0x4
 1323 0795 88070000 		.4byte	0x788
 1324 0799 03       		.uleb128 0x3
 1325 079a F1050000 		.4byte	.LASF118
 1326 079e 10       		.byte	0x10
 1327 079f 47       		.byte	0x47
 1328 07a0 A4070000 		.4byte	0x7a4
 1329 07a4 0B       		.uleb128 0xb
 1330 07a5 04       		.byte	0x4
 1331 07a6 AA070000 		.4byte	0x7aa
 1332 07aa 1B       		.uleb128 0x1b
 1333 07ab 29030000 		.4byte	0x329
 1334 07af BE070000 		.4byte	0x7be
 1335 07b3 0E       		.uleb128 0xe
 1336 07b4 2C000000 		.4byte	0x2c
 1337 07b8 0E       		.uleb128 0xe
 1338 07b9 37000000 		.4byte	0x37
 1339 07bd 00       		.byte	0
 1340 07be 03       		.uleb128 0x3
 1341 07bf BE040000 		.4byte	.LASF119
 1342 07c3 11       		.byte	0x11
 1343 07c4 48       		.byte	0x48
 1344 07c5 C9070000 		.4byte	0x7c9
 1345 07c9 06       		.uleb128 0x6
 1346 07ca 83050000 		.4byte	.LASF120
 1347 07ce 20       		.byte	0x20
 1348 07cf 11       		.byte	0x11
 1349 07d0 61       		.byte	0x61
 1350 07d1 FA070000 		.4byte	0x7fa
 1351 07d5 07       		.uleb128 0x7
 1352 07d6 C3050000 		.4byte	.LASF121
 1353 07da 11       		.byte	0x11
 1354 07db 62       		.byte	0x62
 1355 07dc 99070000 		.4byte	0x799
 1356 07e0 00       		.byte	0
 1357 07e1 07       		.uleb128 0x7
 1358 07e2 B7040000 		.4byte	.LASF122
 1359 07e6 11       		.byte	0x11
 1360 07e7 64       		.byte	0x64
 1361 07e8 FA070000 		.4byte	0x7fa
 1362 07ec 08       		.byte	0x8
ARM GAS  /var/folders/t8/16hdwfmd2fg_d3q6dgx6bpmw0000gn/T//ccqtMZcN.s 			page 25


 1363 07ed 08       		.uleb128 0x8
 1364 07ee 6D747800 		.ascii	"mtx\000"
 1365 07f2 11       		.byte	0x11
 1366 07f3 66       		.byte	0x66
 1367 07f4 88070000 		.4byte	0x788
 1368 07f8 10       		.byte	0x10
 1369 07f9 00       		.byte	0
 1370 07fa 03       		.uleb128 0x3
 1371 07fb 6C070000 		.4byte	.LASF123
 1372 07ff 11       		.byte	0x11
 1373 0800 4D       		.byte	0x4d
 1374 0801 05080000 		.4byte	0x805
 1375 0805 1C       		.uleb128 0x1c
 1376 0806 16030000 		.4byte	.LASF152
 1377 080a 08       		.byte	0x8
 1378 080b 11       		.byte	0x11
 1379 080c 52       		.byte	0x52
 1380 080d 33080000 		.4byte	0x833
 1381 0811 11       		.uleb128 0x11
 1382 0812 57070000 		.4byte	.LASF124
 1383 0816 11       		.byte	0x11
 1384 0817 53       		.byte	0x53
 1385 0818 6A040000 		.4byte	0x46a
 1386 081c 11       		.uleb128 0x11
 1387 081d 53030000 		.4byte	.LASF125
 1388 0821 11       		.byte	0x11
 1389 0822 57       		.byte	0x57
 1390 0823 33080000 		.4byte	0x833
 1391 0827 11       		.uleb128 0x11
 1392 0828 F4020000 		.4byte	.LASF126
 1393 082c 11       		.byte	0x11
 1394 082d 5B       		.byte	0x5b
 1395 082e 5A080000 		.4byte	0x85a
 1396 0832 00       		.byte	0
 1397 0833 18       		.uleb128 0x18
 1398 0834 08       		.byte	0x8
 1399 0835 11       		.byte	0x11
 1400 0836 54       		.byte	0x54
 1401 0837 54080000 		.4byte	0x854
 1402 083b 07       		.uleb128 0x7
 1403 083c 67010000 		.4byte	.LASF50
 1404 0840 11       		.byte	0x11
 1405 0841 55       		.byte	0x55
 1406 0842 54080000 		.4byte	0x854
 1407 0846 00       		.byte	0
 1408 0847 07       		.uleb128 0x7
 1409 0848 FD030000 		.4byte	.LASF127
 1410 084c 11       		.byte	0x11
 1411 084d 56       		.byte	0x56
 1412 084e 2C000000 		.4byte	0x2c
 1413 0852 04       		.byte	0x4
 1414 0853 00       		.byte	0
 1415 0854 0B       		.uleb128 0xb
 1416 0855 04       		.byte	0x4
 1417 0856 FA070000 		.4byte	0x7fa
 1418 085a 18       		.uleb128 0x18
 1419 085b 08       		.byte	0x8
ARM GAS  /var/folders/t8/16hdwfmd2fg_d3q6dgx6bpmw0000gn/T//ccqtMZcN.s 			page 26


 1420 085c 11       		.byte	0x11
 1421 085d 58       		.byte	0x58
 1422 085e 7B080000 		.4byte	0x87b
 1423 0862 07       		.uleb128 0x7
 1424 0863 92010000 		.4byte	.LASF128
 1425 0867 11       		.byte	0x11
 1426 0868 59       		.byte	0x59
 1427 0869 7B080000 		.4byte	0x87b
 1428 086d 00       		.byte	0
 1429 086e 07       		.uleb128 0x7
 1430 086f 59040000 		.4byte	.LASF99
 1431 0873 11       		.byte	0x11
 1432 0874 5A       		.byte	0x5a
 1433 0875 2C000000 		.4byte	0x2c
 1434 0879 04       		.byte	0x4
 1435 087a 00       		.byte	0
 1436 087b 0B       		.uleb128 0xb
 1437 087c 04       		.byte	0x4
 1438 087d BE070000 		.4byte	0x7be
 1439 0881 06       		.uleb128 0x6
 1440 0882 D4060000 		.4byte	.LASF129
 1441 0886 04       		.byte	0x4
 1442 0887 12       		.byte	0x12
 1443 0888 38       		.byte	0x38
 1444 0889 9A080000 		.4byte	0x89a
 1445 088d 07       		.uleb128 0x7
 1446 088e 67010000 		.4byte	.LASF50
 1447 0892 12       		.byte	0x12
 1448 0893 39       		.byte	0x39
 1449 0894 9A080000 		.4byte	0x89a
 1450 0898 00       		.byte	0
 1451 0899 00       		.byte	0
 1452 089a 0B       		.uleb128 0xb
 1453 089b 04       		.byte	0x4
 1454 089c 81080000 		.4byte	0x881
 1455 08a0 18       		.uleb128 0x18
 1456 08a1 0C       		.byte	0xc
 1457 08a2 12       		.byte	0x12
 1458 08a3 40       		.byte	0x40
 1459 08a4 CD080000 		.4byte	0x8cd
 1460 08a8 07       		.uleb128 0x7
 1461 08a9 67010000 		.4byte	.LASF50
 1462 08ad 12       		.byte	0x12
 1463 08ae 41       		.byte	0x41
 1464 08af 9A080000 		.4byte	0x89a
 1465 08b3 00       		.byte	0
 1466 08b4 07       		.uleb128 0x7
 1467 08b5 30030000 		.4byte	.LASF130
 1468 08b9 12       		.byte	0x12
 1469 08ba 42       		.byte	0x42
 1470 08bb 2C000000 		.4byte	0x2c
 1471 08bf 04       		.byte	0x4
 1472 08c0 07       		.uleb128 0x7
 1473 08c1 C3050000 		.4byte	.LASF121
 1474 08c5 12       		.byte	0x12
 1475 08c6 44       		.byte	0x44
 1476 08c7 99070000 		.4byte	0x799
ARM GAS  /var/folders/t8/16hdwfmd2fg_d3q6dgx6bpmw0000gn/T//ccqtMZcN.s 			page 27


 1477 08cb 08       		.byte	0x8
 1478 08cc 00       		.byte	0
 1479 08cd 03       		.uleb128 0x3
 1480 08ce 1B010000 		.4byte	.LASF131
 1481 08d2 12       		.byte	0x12
 1482 08d3 46       		.byte	0x46
 1483 08d4 A0080000 		.4byte	0x8a0
 1484 08d8 1D       		.uleb128 0x1d
 1485 08d9 BF030000 		.4byte	.LASF132
 1486 08dd 01       		.byte	0x1
 1487 08de 91       		.byte	0x91
 1488 08df 4C020000 		.4byte	0x24c
 1489 08e3 00000000 		.4byte	.LFB139
 1490 08e7 8C000000 		.4byte	.LFE139-.LFB139
 1491 08eb 01       		.uleb128 0x1
 1492 08ec 9C       		.byte	0x9c
 1493 08ed 7D0A0000 		.4byte	0xa7d
 1494 08f1 1E       		.uleb128 0x1e
 1495 08f2 6D7000   		.ascii	"mp\000"
 1496 08f5 01       		.byte	0x1
 1497 08f6 91       		.byte	0x91
 1498 08f7 7D0A0000 		.4byte	0xa7d
 1499 08fb 00000000 		.4byte	.LLST6
 1500 08ff 1F       		.uleb128 0x1f
 1501 0900 FE050000 		.4byte	.LASF34
 1502 0904 01       		.byte	0x1
 1503 0905 91       		.byte	0x91
 1504 0906 D0050000 		.4byte	0x5d0
 1505 090a 4D000000 		.4byte	.LLST7
 1506 090e 1F       		.uleb128 0x1f
 1507 090f 7F030000 		.4byte	.LASF31
 1508 0913 01       		.byte	0x1
 1509 0914 92       		.byte	0x92
 1510 0915 10010000 		.4byte	0x110
 1511 0919 9A000000 		.4byte	.LLST8
 1512 091d 1E       		.uleb128 0x1e
 1513 091e 706600   		.ascii	"pf\000"
 1514 0921 01       		.byte	0x1
 1515 0922 92       		.byte	0x92
 1516 0923 15060000 		.4byte	0x615
 1517 0927 E7000000 		.4byte	.LLST9
 1518 092b 20       		.uleb128 0x20
 1519 092c 61726700 		.ascii	"arg\000"
 1520 0930 01       		.byte	0x1
 1521 0931 92       		.byte	0x92
 1522 0932 29030000 		.4byte	0x329
 1523 0936 02       		.uleb128 0x2
 1524 0937 91       		.byte	0x91
 1525 0938 00       		.sleb128 0
 1526 0939 21       		.uleb128 0x21
 1527 093a 747000   		.ascii	"tp\000"
 1528 093d 01       		.byte	0x1
 1529 093e 93       		.byte	0x93
 1530 093f 4C020000 		.4byte	0x24c
 1531 0943 37010000 		.4byte	.LLST10
 1532 0947 21       		.uleb128 0x21
 1533 0948 77737000 		.ascii	"wsp\000"
ARM GAS  /var/folders/t8/16hdwfmd2fg_d3q6dgx6bpmw0000gn/T//ccqtMZcN.s 			page 28


 1534 094c 01       		.byte	0x1
 1535 094d 94       		.byte	0x94
 1536 094e 29030000 		.4byte	0x329
 1537 0952 60010000 		.4byte	.LLST11
 1538 0956 22       		.uleb128 0x22
 1539 0957 39070000 		.4byte	.LASF135
 1540 095b 930A0000 		.4byte	0xa93
 1541 095f 05       		.uleb128 0x5
 1542 0960 03       		.byte	0x3
 1543 0961 00000000 		.4byte	__func__.5734
 1544 0965 23       		.uleb128 0x23
 1545 0966 746400   		.ascii	"td\000"
 1546 0969 01       		.byte	0x1
 1547 096a 9D       		.byte	0x9d
 1548 096b 71060000 		.4byte	0x671
 1549 096f 02       		.uleb128 0x2
 1550 0970 91       		.byte	0x91
 1551 0971 50       		.sleb128 -48
 1552 0972 24       		.uleb128 0x24
 1553 0973 620C0000 		.4byte	0xc62
 1554 0977 32000000 		.4byte	.LBB56
 1555 097b 06000000 		.4byte	.LBE56-.LBB56
 1556 097f 01       		.byte	0x1
 1557 0980 AC       		.byte	0xac
 1558 0981 B4090000 		.4byte	0x9b4
 1559 0985 25       		.uleb128 0x25
 1560 0986 740C0000 		.4byte	0xc74
 1561 098a 32000000 		.4byte	.LBB58
 1562 098e 02000000 		.4byte	.LBE58-.LBB58
 1563 0992 03       		.byte	0x3
 1564 0993 7801     		.2byte	0x178
 1565 0995 AA090000 		.4byte	0x9aa
 1566 0999 26       		.uleb128 0x26
 1567 099a 7D0C0000 		.4byte	0xc7d
 1568 099e 32000000 		.4byte	.LBB59
 1569 09a2 02000000 		.4byte	.LBE59-.LBB59
 1570 09a6 0B       		.byte	0xb
 1571 09a7 7501     		.2byte	0x175
 1572 09a9 00       		.byte	0
 1573 09aa 27       		.uleb128 0x27
 1574 09ab 38000000 		.4byte	.LVL20
 1575 09af 8D0C0000 		.4byte	0xc8d
 1576 09b3 00       		.byte	0
 1577 09b4 28       		.uleb128 0x28
 1578 09b5 320C0000 		.4byte	0xc32
 1579 09b9 4E000000 		.4byte	.LBB61
 1580 09bd 18000000 		.4byte	.Ldebug_ranges0+0x18
 1581 09c1 01       		.byte	0x1
 1582 09c2 B1       		.byte	0xb1
 1583 09c3 140A0000 		.4byte	0xa14
 1584 09c7 29       		.uleb128 0x29
 1585 09c8 18000000 		.4byte	.Ldebug_ranges0+0x18
 1586 09cc 2A       		.uleb128 0x2a
 1587 09cd 3F0C0000 		.4byte	0xc3f
 1588 09d1 25       		.uleb128 0x25
 1589 09d2 6B0C0000 		.4byte	0xc6b
 1590 09d6 64000000 		.4byte	.LBB63
ARM GAS  /var/folders/t8/16hdwfmd2fg_d3q6dgx6bpmw0000gn/T//ccqtMZcN.s 			page 29


 1591 09da 02000000 		.4byte	.LBE63-.LBB63
 1592 09de 03       		.byte	0x3
 1593 09df 8F01     		.2byte	0x18f
 1594 09e1 F6090000 		.4byte	0x9f6
 1595 09e5 26       		.uleb128 0x26
 1596 09e6 850C0000 		.4byte	0xc85
 1597 09ea 64000000 		.4byte	.LBB64
 1598 09ee 02000000 		.4byte	.LBE64-.LBB64
 1599 09f2 0B       		.byte	0xb
 1600 09f3 7E01     		.2byte	0x17e
 1601 09f5 00       		.byte	0
 1602 09f6 27       		.uleb128 0x27
 1603 09f7 52000000 		.4byte	.LVL24
 1604 09fb 980C0000 		.4byte	0xc98
 1605 09ff 2B       		.uleb128 0x2b
 1606 0a00 72000000 		.4byte	.LVL30
 1607 0a04 A30C0000 		.4byte	0xca3
 1608 0a08 2C       		.uleb128 0x2c
 1609 0a09 01       		.uleb128 0x1
 1610 0a0a 50       		.byte	0x50
 1611 0a0b 05       		.uleb128 0x5
 1612 0a0c 03       		.byte	0x3
 1613 0a0d 00000000 		.4byte	.LANCHOR0
 1614 0a11 00       		.byte	0
 1615 0a12 00       		.byte	0
 1616 0a13 00       		.byte	0
 1617 0a14 2D       		.uleb128 0x2d
 1618 0a15 16000000 		.4byte	.LVL18
 1619 0a19 AF0C0000 		.4byte	0xcaf
 1620 0a1d 280A0000 		.4byte	0xa28
 1621 0a21 2C       		.uleb128 0x2c
 1622 0a22 01       		.uleb128 0x1
 1623 0a23 50       		.byte	0x50
 1624 0a24 02       		.uleb128 0x2
 1625 0a25 74       		.byte	0x74
 1626 0a26 00       		.sleb128 0
 1627 0a27 00       		.byte	0
 1628 0a28 2D       		.uleb128 0x2d
 1629 0a29 32000000 		.4byte	.LVL19
 1630 0a2d BA0C0000 		.4byte	0xcba
 1631 0a31 3C0A0000 		.4byte	0xa3c
 1632 0a35 2C       		.uleb128 0x2c
 1633 0a36 01       		.uleb128 0x1
 1634 0a37 52       		.byte	0x52
 1635 0a38 02       		.uleb128 0x2
 1636 0a39 08       		.byte	0x8
 1637 0a3a 55       		.byte	0x55
 1638 0a3b 00       		.byte	0
 1639 0a3c 2D       		.uleb128 0x2d
 1640 0a3d 3E000000 		.4byte	.LVL21
 1641 0a41 C50C0000 		.4byte	0xcc5
 1642 0a45 500A0000 		.4byte	0xa50
 1643 0a49 2C       		.uleb128 0x2c
 1644 0a4a 01       		.uleb128 0x1
 1645 0a4b 50       		.byte	0x50
 1646 0a4c 02       		.uleb128 0x2
 1647 0a4d 7D       		.byte	0x7d
ARM GAS  /var/folders/t8/16hdwfmd2fg_d3q6dgx6bpmw0000gn/T//ccqtMZcN.s 			page 30


 1648 0a4e 00       		.sleb128 0
 1649 0a4f 00       		.byte	0
 1650 0a50 2D       		.uleb128 0x2d
 1651 0a51 4E000000 		.4byte	.LVL23
 1652 0a55 D00C0000 		.4byte	0xcd0
 1653 0a59 690A0000 		.4byte	0xa69
 1654 0a5d 2C       		.uleb128 0x2c
 1655 0a5e 01       		.uleb128 0x1
 1656 0a5f 50       		.byte	0x50
 1657 0a60 02       		.uleb128 0x2
 1658 0a61 75       		.byte	0x75
 1659 0a62 00       		.sleb128 0
 1660 0a63 2C       		.uleb128 0x2c
 1661 0a64 01       		.uleb128 0x1
 1662 0a65 51       		.byte	0x51
 1663 0a66 01       		.uleb128 0x1
 1664 0a67 30       		.byte	0x30
 1665 0a68 00       		.byte	0
 1666 0a69 2B       		.uleb128 0x2b
 1667 0a6a 7A000000 		.4byte	.LVL33
 1668 0a6e A30C0000 		.4byte	0xca3
 1669 0a72 2C       		.uleb128 0x2c
 1670 0a73 01       		.uleb128 0x1
 1671 0a74 50       		.byte	0x50
 1672 0a75 05       		.uleb128 0x5
 1673 0a76 03       		.byte	0x3
 1674 0a77 00000000 		.4byte	.LANCHOR1
 1675 0a7b 00       		.byte	0
 1676 0a7c 00       		.byte	0
 1677 0a7d 0B       		.uleb128 0xb
 1678 0a7e 04       		.byte	0x4
 1679 0a7f CD080000 		.4byte	0x8cd
 1680 0a83 15       		.uleb128 0x15
 1681 0a84 E2050000 		.4byte	0x5e2
 1682 0a88 930A0000 		.4byte	0xa93
 1683 0a8c 19       		.uleb128 0x19
 1684 0a8d 37000000 		.4byte	0x37
 1685 0a91 19       		.byte	0x19
 1686 0a92 00       		.byte	0
 1687 0a93 13       		.uleb128 0x13
 1688 0a94 830A0000 		.4byte	0xa83
 1689 0a98 1D       		.uleb128 0x1d
 1690 0a99 62060000 		.4byte	.LASF133
 1691 0a9d 01       		.byte	0x1
 1692 0a9e 52       		.byte	0x52
 1693 0a9f 4C020000 		.4byte	0x24c
 1694 0aa3 00000000 		.4byte	.LFB138
 1695 0aa7 78000000 		.4byte	.LFE138-.LFB138
 1696 0aab 01       		.uleb128 0x1
 1697 0aac 9C       		.byte	0x9c
 1698 0aad 320C0000 		.4byte	0xc32
 1699 0ab1 1F       		.uleb128 0x1f
 1700 0ab2 F2060000 		.4byte	.LASF134
 1701 0ab6 01       		.byte	0x1
 1702 0ab7 52       		.byte	0x52
 1703 0ab8 7B080000 		.4byte	0x87b
 1704 0abc 7E010000 		.4byte	.LLST0
ARM GAS  /var/folders/t8/16hdwfmd2fg_d3q6dgx6bpmw0000gn/T//ccqtMZcN.s 			page 31


 1705 0ac0 1F       		.uleb128 0x1f
 1706 0ac1 59040000 		.4byte	.LASF99
 1707 0ac5 01       		.byte	0x1
 1708 0ac6 52       		.byte	0x52
 1709 0ac7 2C000000 		.4byte	0x2c
 1710 0acb 9F010000 		.4byte	.LLST1
 1711 0acf 1F       		.uleb128 0x1f
 1712 0ad0 FE050000 		.4byte	.LASF34
 1713 0ad4 01       		.byte	0x1
 1714 0ad5 53       		.byte	0x53
 1715 0ad6 D0050000 		.4byte	0x5d0
 1716 0ada E4010000 		.4byte	.LLST2
 1717 0ade 1F       		.uleb128 0x1f
 1718 0adf 7F030000 		.4byte	.LASF31
 1719 0ae3 01       		.byte	0x1
 1720 0ae4 53       		.byte	0x53
 1721 0ae5 10010000 		.4byte	0x110
 1722 0ae9 1B020000 		.4byte	.LLST3
 1723 0aed 20       		.uleb128 0x20
 1724 0aee 706600   		.ascii	"pf\000"
 1725 0af1 01       		.byte	0x1
 1726 0af2 54       		.byte	0x54
 1727 0af3 15060000 		.4byte	0x615
 1728 0af7 02       		.uleb128 0x2
 1729 0af8 91       		.byte	0x91
 1730 0af9 00       		.sleb128 0
 1731 0afa 20       		.uleb128 0x20
 1732 0afb 61726700 		.ascii	"arg\000"
 1733 0aff 01       		.byte	0x1
 1734 0b00 54       		.byte	0x54
 1735 0b01 29030000 		.4byte	0x329
 1736 0b05 02       		.uleb128 0x2
 1737 0b06 91       		.byte	0x91
 1738 0b07 04       		.sleb128 4
 1739 0b08 21       		.uleb128 0x21
 1740 0b09 747000   		.ascii	"tp\000"
 1741 0b0c 01       		.byte	0x1
 1742 0b0d 55       		.byte	0x55
 1743 0b0e 4C020000 		.4byte	0x24c
 1744 0b12 52020000 		.4byte	.LLST4
 1745 0b16 21       		.uleb128 0x21
 1746 0b17 77737000 		.ascii	"wsp\000"
 1747 0b1b 01       		.byte	0x1
 1748 0b1c 56       		.byte	0x56
 1749 0b1d 29030000 		.4byte	0x329
 1750 0b21 7B020000 		.4byte	.LLST5
 1751 0b25 23       		.uleb128 0x23
 1752 0b26 746400   		.ascii	"td\000"
 1753 0b29 01       		.byte	0x1
 1754 0b2a 5D       		.byte	0x5d
 1755 0b2b 71060000 		.4byte	0x671
 1756 0b2f 02       		.uleb128 0x2
 1757 0b30 91       		.byte	0x91
 1758 0b31 58       		.sleb128 -40
 1759 0b32 24       		.uleb128 0x24
 1760 0b33 620C0000 		.4byte	0xc62
 1761 0b37 2C000000 		.4byte	.LBB34
ARM GAS  /var/folders/t8/16hdwfmd2fg_d3q6dgx6bpmw0000gn/T//ccqtMZcN.s 			page 32


 1762 0b3b 06000000 		.4byte	.LBE34-.LBB34
 1763 0b3f 01       		.byte	0x1
 1764 0b40 6C       		.byte	0x6c
 1765 0b41 740B0000 		.4byte	0xb74
 1766 0b45 25       		.uleb128 0x25
 1767 0b46 740C0000 		.4byte	0xc74
 1768 0b4a 2C000000 		.4byte	.LBB36
 1769 0b4e 02000000 		.4byte	.LBE36-.LBB36
 1770 0b52 03       		.byte	0x3
 1771 0b53 7801     		.2byte	0x178
 1772 0b55 6A0B0000 		.4byte	0xb6a
 1773 0b59 26       		.uleb128 0x26
 1774 0b5a 7D0C0000 		.4byte	0xc7d
 1775 0b5e 2C000000 		.4byte	.LBB37
 1776 0b62 02000000 		.4byte	.LBE37-.LBB37
 1777 0b66 0B       		.byte	0xb
 1778 0b67 7501     		.2byte	0x175
 1779 0b69 00       		.byte	0
 1780 0b6a 27       		.uleb128 0x27
 1781 0b6b 32000000 		.4byte	.LVL4
 1782 0b6f 8D0C0000 		.4byte	0xc8d
 1783 0b73 00       		.byte	0
 1784 0b74 28       		.uleb128 0x28
 1785 0b75 320C0000 		.4byte	0xc32
 1786 0b79 46000000 		.4byte	.LBB39
 1787 0b7d 00000000 		.4byte	.Ldebug_ranges0+0
 1788 0b81 01       		.byte	0x1
 1789 0b82 70       		.byte	0x70
 1790 0b83 D40B0000 		.4byte	0xbd4
 1791 0b87 29       		.uleb128 0x29
 1792 0b88 00000000 		.4byte	.Ldebug_ranges0+0
 1793 0b8c 2A       		.uleb128 0x2a
 1794 0b8d 3F0C0000 		.4byte	0xc3f
 1795 0b91 25       		.uleb128 0x25
 1796 0b92 6B0C0000 		.4byte	0xc6b
 1797 0b96 5C000000 		.4byte	.LBB41
 1798 0b9a 02000000 		.4byte	.LBE41-.LBB41
 1799 0b9e 03       		.byte	0x3
 1800 0b9f 8F01     		.2byte	0x18f
 1801 0ba1 B60B0000 		.4byte	0xbb6
 1802 0ba5 26       		.uleb128 0x26
 1803 0ba6 850C0000 		.4byte	0xc85
 1804 0baa 5C000000 		.4byte	.LBB42
 1805 0bae 02000000 		.4byte	.LBE42-.LBB42
 1806 0bb2 0B       		.byte	0xb
 1807 0bb3 7E01     		.2byte	0x17e
 1808 0bb5 00       		.byte	0
 1809 0bb6 27       		.uleb128 0x27
 1810 0bb7 4A000000 		.4byte	.LVL8
 1811 0bbb 980C0000 		.4byte	0xc98
 1812 0bbf 2B       		.uleb128 0x2b
 1813 0bc0 6A000000 		.4byte	.LVL13
 1814 0bc4 A30C0000 		.4byte	0xca3
 1815 0bc8 2C       		.uleb128 0x2c
 1816 0bc9 01       		.uleb128 0x1
 1817 0bca 50       		.byte	0x50
 1818 0bcb 05       		.uleb128 0x5
ARM GAS  /var/folders/t8/16hdwfmd2fg_d3q6dgx6bpmw0000gn/T//ccqtMZcN.s 			page 33


 1819 0bcc 03       		.byte	0x3
 1820 0bcd 00000000 		.4byte	.LANCHOR0
 1821 0bd1 00       		.byte	0
 1822 0bd2 00       		.byte	0
 1823 0bd3 00       		.byte	0
 1824 0bd4 2D       		.uleb128 0x2d
 1825 0bd5 10000000 		.4byte	.LVL2
 1826 0bd9 DC0C0000 		.4byte	0xcdc
 1827 0bdd F40B0000 		.4byte	0xbf4
 1828 0be1 2C       		.uleb128 0x2c
 1829 0be2 01       		.uleb128 0x1
 1830 0be3 50       		.byte	0x50
 1831 0be4 03       		.uleb128 0x3
 1832 0be5 F3       		.byte	0xf3
 1833 0be6 01       		.uleb128 0x1
 1834 0be7 50       		.byte	0x50
 1835 0be8 2C       		.uleb128 0x2c
 1836 0be9 01       		.uleb128 0x1
 1837 0bea 51       		.byte	0x51
 1838 0beb 02       		.uleb128 0x2
 1839 0bec 74       		.byte	0x74
 1840 0bed 00       		.sleb128 0
 1841 0bee 2C       		.uleb128 0x2c
 1842 0bef 01       		.uleb128 0x1
 1843 0bf0 52       		.byte	0x52
 1844 0bf1 01       		.uleb128 0x1
 1845 0bf2 38       		.byte	0x38
 1846 0bf3 00       		.byte	0
 1847 0bf4 2D       		.uleb128 0x2d
 1848 0bf5 2C000000 		.4byte	.LVL3
 1849 0bf9 BA0C0000 		.4byte	0xcba
 1850 0bfd 080C0000 		.4byte	0xc08
 1851 0c01 2C       		.uleb128 0x2c
 1852 0c02 01       		.uleb128 0x1
 1853 0c03 52       		.byte	0x52
 1854 0c04 02       		.uleb128 0x2
 1855 0c05 08       		.byte	0x8
 1856 0c06 55       		.byte	0x55
 1857 0c07 00       		.byte	0
 1858 0c08 2D       		.uleb128 0x2d
 1859 0c09 38000000 		.4byte	.LVL5
 1860 0c0d C50C0000 		.4byte	0xcc5
 1861 0c11 1C0C0000 		.4byte	0xc1c
 1862 0c15 2C       		.uleb128 0x2c
 1863 0c16 01       		.uleb128 0x1
 1864 0c17 50       		.byte	0x50
 1865 0c18 02       		.uleb128 0x2
 1866 0c19 7D       		.byte	0x7d
 1867 0c1a 00       		.sleb128 0
 1868 0c1b 00       		.byte	0
 1869 0c1c 2B       		.uleb128 0x2b
 1870 0c1d 46000000 		.4byte	.LVL7
 1871 0c21 D00C0000 		.4byte	0xcd0
 1872 0c25 2C       		.uleb128 0x2c
 1873 0c26 01       		.uleb128 0x1
 1874 0c27 50       		.byte	0x50
 1875 0c28 02       		.uleb128 0x2
ARM GAS  /var/folders/t8/16hdwfmd2fg_d3q6dgx6bpmw0000gn/T//ccqtMZcN.s 			page 34


 1876 0c29 74       		.byte	0x74
 1877 0c2a 00       		.sleb128 0
 1878 0c2b 2C       		.uleb128 0x2c
 1879 0c2c 01       		.uleb128 0x1
 1880 0c2d 51       		.byte	0x51
 1881 0c2e 01       		.uleb128 0x1
 1882 0c2f 30       		.byte	0x30
 1883 0c30 00       		.byte	0
 1884 0c31 00       		.byte	0
 1885 0c32 2E       		.uleb128 0x2e
 1886 0c33 1A060000 		.4byte	.LASF153
 1887 0c37 03       		.byte	0x3
 1888 0c38 8201     		.2byte	0x182
 1889 0c3a 03       		.byte	0x3
 1890 0c3b 4D0C0000 		.4byte	0xc4d
 1891 0c3f 2F       		.uleb128 0x2f
 1892 0c40 39070000 		.4byte	.LASF135
 1893 0c44 5D0C0000 		.4byte	0xc5d
 1894 0c48 1A060000 		.4byte	.LASF153
 1895 0c4c 00       		.byte	0
 1896 0c4d 15       		.uleb128 0x15
 1897 0c4e E2050000 		.4byte	0x5e2
 1898 0c52 5D0C0000 		.4byte	0xc5d
 1899 0c56 19       		.uleb128 0x19
 1900 0c57 37000000 		.4byte	0x37
 1901 0c5b 0B       		.byte	0xb
 1902 0c5c 00       		.byte	0
 1903 0c5d 13       		.uleb128 0x13
 1904 0c5e 4D0C0000 		.4byte	0xc4d
 1905 0c62 30       		.uleb128 0x30
 1906 0c63 6B030000 		.4byte	.LASF136
 1907 0c67 03       		.byte	0x3
 1908 0c68 7601     		.2byte	0x176
 1909 0c6a 03       		.byte	0x3
 1910 0c6b 30       		.uleb128 0x30
 1911 0c6c 4B070000 		.4byte	.LASF137
 1912 0c70 0B       		.byte	0xb
 1913 0c71 7C01     		.2byte	0x17c
 1914 0c73 03       		.byte	0x3
 1915 0c74 30       		.uleb128 0x30
 1916 0c75 A7010000 		.4byte	.LASF138
 1917 0c79 0B       		.byte	0xb
 1918 0c7a 7301     		.2byte	0x173
 1919 0c7c 03       		.byte	0x3
 1920 0c7d 31       		.uleb128 0x31
 1921 0c7e 3C030000 		.4byte	.LASF139
 1922 0c82 02       		.byte	0x2
 1923 0c83 45       		.byte	0x45
 1924 0c84 03       		.byte	0x3
 1925 0c85 31       		.uleb128 0x31
 1926 0c86 AC050000 		.4byte	.LASF140
 1927 0c8a 02       		.byte	0x2
 1928 0c8b 3A       		.byte	0x3a
 1929 0c8c 03       		.byte	0x3
 1930 0c8d 32       		.uleb128 0x32
 1931 0c8e 1B040000 		.4byte	.LASF141
 1932 0c92 1B040000 		.4byte	.LASF141
ARM GAS  /var/folders/t8/16hdwfmd2fg_d3q6dgx6bpmw0000gn/T//ccqtMZcN.s 			page 35


 1933 0c96 13       		.byte	0x13
 1934 0c97 96       		.byte	0x96
 1935 0c98 32       		.uleb128 0x32
 1936 0c99 09010000 		.4byte	.LASF142
 1937 0c9d 09010000 		.4byte	.LASF142
 1938 0ca1 13       		.byte	0x13
 1939 0ca2 97       		.byte	0x97
 1940 0ca3 33       		.uleb128 0x33
 1941 0ca4 B5030000 		.4byte	.LASF143
 1942 0ca8 B5030000 		.4byte	.LASF143
 1943 0cac 03       		.byte	0x3
 1944 0cad 3201     		.2byte	0x132
 1945 0caf 32       		.uleb128 0x32
 1946 0cb0 DB050000 		.4byte	.LASF144
 1947 0cb4 DB050000 		.4byte	.LASF144
 1948 0cb8 12       		.byte	0x12
 1949 0cb9 94       		.byte	0x94
 1950 0cba 32       		.uleb128 0x32
 1951 0cbb 7A070000 		.4byte	.LASF145
 1952 0cbf 7A070000 		.4byte	.LASF145
 1953 0cc3 0E       		.byte	0xe
 1954 0cc4 E4       		.byte	0xe4
 1955 0cc5 32       		.uleb128 0x32
 1956 0cc6 CC040000 		.4byte	.LASF146
 1957 0cca CC040000 		.4byte	.LASF146
 1958 0cce 0E       		.byte	0xe
 1959 0ccf E6       		.byte	0xe6
 1960 0cd0 33       		.uleb128 0x33
 1961 0cd1 C1060000 		.4byte	.LASF147
 1962 0cd5 C1060000 		.4byte	.LASF147
 1963 0cd9 09       		.byte	0x9
 1964 0cda E001     		.2byte	0x1e0
 1965 0cdc 32       		.uleb128 0x32
 1966 0cdd 23050000 		.4byte	.LASF148
 1967 0ce1 23050000 		.4byte	.LASF148
 1968 0ce5 11       		.byte	0x11
 1969 0ce6 80       		.byte	0x80
 1970 0ce7 00       		.byte	0
 1971              		.section	.debug_abbrev,"",%progbits
 1972              	.Ldebug_abbrev0:
 1973 0000 01       		.uleb128 0x1
 1974 0001 11       		.uleb128 0x11
 1975 0002 01       		.byte	0x1
 1976 0003 25       		.uleb128 0x25
 1977 0004 0E       		.uleb128 0xe
 1978 0005 13       		.uleb128 0x13
 1979 0006 0B       		.uleb128 0xb
 1980 0007 03       		.uleb128 0x3
 1981 0008 0E       		.uleb128 0xe
 1982 0009 1B       		.uleb128 0x1b
 1983 000a 0E       		.uleb128 0xe
 1984 000b 55       		.uleb128 0x55
 1985 000c 17       		.uleb128 0x17
 1986 000d 11       		.uleb128 0x11
 1987 000e 01       		.uleb128 0x1
 1988 000f 10       		.uleb128 0x10
 1989 0010 17       		.uleb128 0x17
ARM GAS  /var/folders/t8/16hdwfmd2fg_d3q6dgx6bpmw0000gn/T//ccqtMZcN.s 			page 36


 1990 0011 00       		.byte	0
 1991 0012 00       		.byte	0
 1992 0013 02       		.uleb128 0x2
 1993 0014 24       		.uleb128 0x24
 1994 0015 00       		.byte	0
 1995 0016 0B       		.uleb128 0xb
 1996 0017 0B       		.uleb128 0xb
 1997 0018 3E       		.uleb128 0x3e
 1998 0019 0B       		.uleb128 0xb
 1999 001a 03       		.uleb128 0x3
 2000 001b 08       		.uleb128 0x8
 2001 001c 00       		.byte	0
 2002 001d 00       		.byte	0
 2003 001e 03       		.uleb128 0x3
 2004 001f 16       		.uleb128 0x16
 2005 0020 00       		.byte	0
 2006 0021 03       		.uleb128 0x3
 2007 0022 0E       		.uleb128 0xe
 2008 0023 3A       		.uleb128 0x3a
 2009 0024 0B       		.uleb128 0xb
 2010 0025 3B       		.uleb128 0x3b
 2011 0026 0B       		.uleb128 0xb
 2012 0027 49       		.uleb128 0x49
 2013 0028 13       		.uleb128 0x13
 2014 0029 00       		.byte	0
 2015 002a 00       		.byte	0
 2016 002b 04       		.uleb128 0x4
 2017 002c 24       		.uleb128 0x24
 2018 002d 00       		.byte	0
 2019 002e 0B       		.uleb128 0xb
 2020 002f 0B       		.uleb128 0xb
 2021 0030 3E       		.uleb128 0x3e
 2022 0031 0B       		.uleb128 0xb
 2023 0032 03       		.uleb128 0x3
 2024 0033 0E       		.uleb128 0xe
 2025 0034 00       		.byte	0
 2026 0035 00       		.byte	0
 2027 0036 05       		.uleb128 0x5
 2028 0037 35       		.uleb128 0x35
 2029 0038 00       		.byte	0
 2030 0039 49       		.uleb128 0x49
 2031 003a 13       		.uleb128 0x13
 2032 003b 00       		.byte	0
 2033 003c 00       		.byte	0
 2034 003d 06       		.uleb128 0x6
 2035 003e 13       		.uleb128 0x13
 2036 003f 01       		.byte	0x1
 2037 0040 03       		.uleb128 0x3
 2038 0041 0E       		.uleb128 0xe
 2039 0042 0B       		.uleb128 0xb
 2040 0043 0B       		.uleb128 0xb
 2041 0044 3A       		.uleb128 0x3a
 2042 0045 0B       		.uleb128 0xb
 2043 0046 3B       		.uleb128 0x3b
 2044 0047 0B       		.uleb128 0xb
 2045 0048 01       		.uleb128 0x1
 2046 0049 13       		.uleb128 0x13
ARM GAS  /var/folders/t8/16hdwfmd2fg_d3q6dgx6bpmw0000gn/T//ccqtMZcN.s 			page 37


 2047 004a 00       		.byte	0
 2048 004b 00       		.byte	0
 2049 004c 07       		.uleb128 0x7
 2050 004d 0D       		.uleb128 0xd
 2051 004e 00       		.byte	0
 2052 004f 03       		.uleb128 0x3
 2053 0050 0E       		.uleb128 0xe
 2054 0051 3A       		.uleb128 0x3a
 2055 0052 0B       		.uleb128 0xb
 2056 0053 3B       		.uleb128 0x3b
 2057 0054 0B       		.uleb128 0xb
 2058 0055 49       		.uleb128 0x49
 2059 0056 13       		.uleb128 0x13
 2060 0057 38       		.uleb128 0x38
 2061 0058 0B       		.uleb128 0xb
 2062 0059 00       		.byte	0
 2063 005a 00       		.byte	0
 2064 005b 08       		.uleb128 0x8
 2065 005c 0D       		.uleb128 0xd
 2066 005d 00       		.byte	0
 2067 005e 03       		.uleb128 0x3
 2068 005f 08       		.uleb128 0x8
 2069 0060 3A       		.uleb128 0x3a
 2070 0061 0B       		.uleb128 0xb
 2071 0062 3B       		.uleb128 0x3b
 2072 0063 0B       		.uleb128 0xb
 2073 0064 49       		.uleb128 0x49
 2074 0065 13       		.uleb128 0x13
 2075 0066 38       		.uleb128 0x38
 2076 0067 0B       		.uleb128 0xb
 2077 0068 00       		.byte	0
 2078 0069 00       		.byte	0
 2079 006a 09       		.uleb128 0x9
 2080 006b 0D       		.uleb128 0xd
 2081 006c 00       		.byte	0
 2082 006d 03       		.uleb128 0x3
 2083 006e 08       		.uleb128 0x8
 2084 006f 3A       		.uleb128 0x3a
 2085 0070 0B       		.uleb128 0xb
 2086 0071 3B       		.uleb128 0x3b
 2087 0072 05       		.uleb128 0x5
 2088 0073 49       		.uleb128 0x49
 2089 0074 13       		.uleb128 0x13
 2090 0075 38       		.uleb128 0x38
 2091 0076 0B       		.uleb128 0xb
 2092 0077 00       		.byte	0
 2093 0078 00       		.byte	0
 2094 0079 0A       		.uleb128 0xa
 2095 007a 0D       		.uleb128 0xd
 2096 007b 00       		.byte	0
 2097 007c 03       		.uleb128 0x3
 2098 007d 0E       		.uleb128 0xe
 2099 007e 3A       		.uleb128 0x3a
 2100 007f 0B       		.uleb128 0xb
 2101 0080 3B       		.uleb128 0x3b
 2102 0081 05       		.uleb128 0x5
 2103 0082 49       		.uleb128 0x49
ARM GAS  /var/folders/t8/16hdwfmd2fg_d3q6dgx6bpmw0000gn/T//ccqtMZcN.s 			page 38


 2104 0083 13       		.uleb128 0x13
 2105 0084 38       		.uleb128 0x38
 2106 0085 0B       		.uleb128 0xb
 2107 0086 00       		.byte	0
 2108 0087 00       		.byte	0
 2109 0088 0B       		.uleb128 0xb
 2110 0089 0F       		.uleb128 0xf
 2111 008a 00       		.byte	0
 2112 008b 0B       		.uleb128 0xb
 2113 008c 0B       		.uleb128 0xb
 2114 008d 49       		.uleb128 0x49
 2115 008e 13       		.uleb128 0x13
 2116 008f 00       		.byte	0
 2117 0090 00       		.byte	0
 2118 0091 0C       		.uleb128 0xc
 2119 0092 13       		.uleb128 0x13
 2120 0093 01       		.byte	0x1
 2121 0094 03       		.uleb128 0x3
 2122 0095 0E       		.uleb128 0xe
 2123 0096 0B       		.uleb128 0xb
 2124 0097 0B       		.uleb128 0xb
 2125 0098 3A       		.uleb128 0x3a
 2126 0099 0B       		.uleb128 0xb
 2127 009a 3B       		.uleb128 0x3b
 2128 009b 05       		.uleb128 0x5
 2129 009c 01       		.uleb128 0x1
 2130 009d 13       		.uleb128 0x13
 2131 009e 00       		.byte	0
 2132 009f 00       		.byte	0
 2133 00a0 0D       		.uleb128 0xd
 2134 00a1 15       		.uleb128 0x15
 2135 00a2 01       		.byte	0x1
 2136 00a3 27       		.uleb128 0x27
 2137 00a4 19       		.uleb128 0x19
 2138 00a5 01       		.uleb128 0x1
 2139 00a6 13       		.uleb128 0x13
 2140 00a7 00       		.byte	0
 2141 00a8 00       		.byte	0
 2142 00a9 0E       		.uleb128 0xe
 2143 00aa 05       		.uleb128 0x5
 2144 00ab 00       		.byte	0
 2145 00ac 49       		.uleb128 0x49
 2146 00ad 13       		.uleb128 0x13
 2147 00ae 00       		.byte	0
 2148 00af 00       		.byte	0
 2149 00b0 0F       		.uleb128 0xf
 2150 00b1 0F       		.uleb128 0xf
 2151 00b2 00       		.byte	0
 2152 00b3 0B       		.uleb128 0xb
 2153 00b4 0B       		.uleb128 0xb
 2154 00b5 00       		.byte	0
 2155 00b6 00       		.byte	0
 2156 00b7 10       		.uleb128 0x10
 2157 00b8 17       		.uleb128 0x17
 2158 00b9 01       		.byte	0x1
 2159 00ba 0B       		.uleb128 0xb
 2160 00bb 0B       		.uleb128 0xb
ARM GAS  /var/folders/t8/16hdwfmd2fg_d3q6dgx6bpmw0000gn/T//ccqtMZcN.s 			page 39


 2161 00bc 3A       		.uleb128 0x3a
 2162 00bd 0B       		.uleb128 0xb
 2163 00be 3B       		.uleb128 0x3b
 2164 00bf 0B       		.uleb128 0xb
 2165 00c0 01       		.uleb128 0x1
 2166 00c1 13       		.uleb128 0x13
 2167 00c2 00       		.byte	0
 2168 00c3 00       		.byte	0
 2169 00c4 11       		.uleb128 0x11
 2170 00c5 0D       		.uleb128 0xd
 2171 00c6 00       		.byte	0
 2172 00c7 03       		.uleb128 0x3
 2173 00c8 0E       		.uleb128 0xe
 2174 00c9 3A       		.uleb128 0x3a
 2175 00ca 0B       		.uleb128 0xb
 2176 00cb 3B       		.uleb128 0x3b
 2177 00cc 0B       		.uleb128 0xb
 2178 00cd 49       		.uleb128 0x49
 2179 00ce 13       		.uleb128 0x13
 2180 00cf 00       		.byte	0
 2181 00d0 00       		.byte	0
 2182 00d1 12       		.uleb128 0x12
 2183 00d2 0D       		.uleb128 0xd
 2184 00d3 00       		.byte	0
 2185 00d4 03       		.uleb128 0x3
 2186 00d5 0E       		.uleb128 0xe
 2187 00d6 3A       		.uleb128 0x3a
 2188 00d7 0B       		.uleb128 0xb
 2189 00d8 3B       		.uleb128 0x3b
 2190 00d9 05       		.uleb128 0x5
 2191 00da 49       		.uleb128 0x49
 2192 00db 13       		.uleb128 0x13
 2193 00dc 00       		.byte	0
 2194 00dd 00       		.byte	0
 2195 00de 13       		.uleb128 0x13
 2196 00df 26       		.uleb128 0x26
 2197 00e0 00       		.byte	0
 2198 00e1 49       		.uleb128 0x49
 2199 00e2 13       		.uleb128 0x13
 2200 00e3 00       		.byte	0
 2201 00e4 00       		.byte	0
 2202 00e5 14       		.uleb128 0x14
 2203 00e6 34       		.uleb128 0x34
 2204 00e7 00       		.byte	0
 2205 00e8 03       		.uleb128 0x3
 2206 00e9 08       		.uleb128 0x8
 2207 00ea 3A       		.uleb128 0x3a
 2208 00eb 0B       		.uleb128 0xb
 2209 00ec 3B       		.uleb128 0x3b
 2210 00ed 05       		.uleb128 0x5
 2211 00ee 49       		.uleb128 0x49
 2212 00ef 13       		.uleb128 0x13
 2213 00f0 3F       		.uleb128 0x3f
 2214 00f1 19       		.uleb128 0x19
 2215 00f2 3C       		.uleb128 0x3c
 2216 00f3 19       		.uleb128 0x19
 2217 00f4 00       		.byte	0
ARM GAS  /var/folders/t8/16hdwfmd2fg_d3q6dgx6bpmw0000gn/T//ccqtMZcN.s 			page 40


 2218 00f5 00       		.byte	0
 2219 00f6 15       		.uleb128 0x15
 2220 00f7 01       		.uleb128 0x1
 2221 00f8 01       		.byte	0x1
 2222 00f9 49       		.uleb128 0x49
 2223 00fa 13       		.uleb128 0x13
 2224 00fb 01       		.uleb128 0x1
 2225 00fc 13       		.uleb128 0x13
 2226 00fd 00       		.byte	0
 2227 00fe 00       		.byte	0
 2228 00ff 16       		.uleb128 0x16
 2229 0100 21       		.uleb128 0x21
 2230 0101 00       		.byte	0
 2231 0102 00       		.byte	0
 2232 0103 00       		.byte	0
 2233 0104 17       		.uleb128 0x17
 2234 0105 34       		.uleb128 0x34
 2235 0106 00       		.byte	0
 2236 0107 03       		.uleb128 0x3
 2237 0108 0E       		.uleb128 0xe
 2238 0109 3A       		.uleb128 0x3a
 2239 010a 0B       		.uleb128 0xb
 2240 010b 3B       		.uleb128 0x3b
 2241 010c 05       		.uleb128 0x5
 2242 010d 49       		.uleb128 0x49
 2243 010e 13       		.uleb128 0x13
 2244 010f 3F       		.uleb128 0x3f
 2245 0110 19       		.uleb128 0x19
 2246 0111 3C       		.uleb128 0x3c
 2247 0112 19       		.uleb128 0x19
 2248 0113 00       		.byte	0
 2249 0114 00       		.byte	0
 2250 0115 18       		.uleb128 0x18
 2251 0116 13       		.uleb128 0x13
 2252 0117 01       		.byte	0x1
 2253 0118 0B       		.uleb128 0xb
 2254 0119 0B       		.uleb128 0xb
 2255 011a 3A       		.uleb128 0x3a
 2256 011b 0B       		.uleb128 0xb
 2257 011c 3B       		.uleb128 0x3b
 2258 011d 0B       		.uleb128 0xb
 2259 011e 01       		.uleb128 0x1
 2260 011f 13       		.uleb128 0x13
 2261 0120 00       		.byte	0
 2262 0121 00       		.byte	0
 2263 0122 19       		.uleb128 0x19
 2264 0123 21       		.uleb128 0x21
 2265 0124 00       		.byte	0
 2266 0125 49       		.uleb128 0x49
 2267 0126 13       		.uleb128 0x13
 2268 0127 2F       		.uleb128 0x2f
 2269 0128 0B       		.uleb128 0xb
 2270 0129 00       		.byte	0
 2271 012a 00       		.byte	0
 2272 012b 1A       		.uleb128 0x1a
 2273 012c 34       		.uleb128 0x34
 2274 012d 00       		.byte	0
ARM GAS  /var/folders/t8/16hdwfmd2fg_d3q6dgx6bpmw0000gn/T//ccqtMZcN.s 			page 41


 2275 012e 03       		.uleb128 0x3
 2276 012f 0E       		.uleb128 0xe
 2277 0130 3A       		.uleb128 0x3a
 2278 0131 0B       		.uleb128 0xb
 2279 0132 3B       		.uleb128 0x3b
 2280 0133 0B       		.uleb128 0xb
 2281 0134 49       		.uleb128 0x49
 2282 0135 13       		.uleb128 0x13
 2283 0136 3F       		.uleb128 0x3f
 2284 0137 19       		.uleb128 0x19
 2285 0138 3C       		.uleb128 0x3c
 2286 0139 19       		.uleb128 0x19
 2287 013a 00       		.byte	0
 2288 013b 00       		.byte	0
 2289 013c 1B       		.uleb128 0x1b
 2290 013d 15       		.uleb128 0x15
 2291 013e 01       		.byte	0x1
 2292 013f 27       		.uleb128 0x27
 2293 0140 19       		.uleb128 0x19
 2294 0141 49       		.uleb128 0x49
 2295 0142 13       		.uleb128 0x13
 2296 0143 01       		.uleb128 0x1
 2297 0144 13       		.uleb128 0x13
 2298 0145 00       		.byte	0
 2299 0146 00       		.byte	0
 2300 0147 1C       		.uleb128 0x1c
 2301 0148 17       		.uleb128 0x17
 2302 0149 01       		.byte	0x1
 2303 014a 03       		.uleb128 0x3
 2304 014b 0E       		.uleb128 0xe
 2305 014c 0B       		.uleb128 0xb
 2306 014d 0B       		.uleb128 0xb
 2307 014e 3A       		.uleb128 0x3a
 2308 014f 0B       		.uleb128 0xb
 2309 0150 3B       		.uleb128 0x3b
 2310 0151 0B       		.uleb128 0xb
 2311 0152 01       		.uleb128 0x1
 2312 0153 13       		.uleb128 0x13
 2313 0154 00       		.byte	0
 2314 0155 00       		.byte	0
 2315 0156 1D       		.uleb128 0x1d
 2316 0157 2E       		.uleb128 0x2e
 2317 0158 01       		.byte	0x1
 2318 0159 3F       		.uleb128 0x3f
 2319 015a 19       		.uleb128 0x19
 2320 015b 03       		.uleb128 0x3
 2321 015c 0E       		.uleb128 0xe
 2322 015d 3A       		.uleb128 0x3a
 2323 015e 0B       		.uleb128 0xb
 2324 015f 3B       		.uleb128 0x3b
 2325 0160 0B       		.uleb128 0xb
 2326 0161 27       		.uleb128 0x27
 2327 0162 19       		.uleb128 0x19
 2328 0163 49       		.uleb128 0x49
 2329 0164 13       		.uleb128 0x13
 2330 0165 11       		.uleb128 0x11
 2331 0166 01       		.uleb128 0x1
ARM GAS  /var/folders/t8/16hdwfmd2fg_d3q6dgx6bpmw0000gn/T//ccqtMZcN.s 			page 42


 2332 0167 12       		.uleb128 0x12
 2333 0168 06       		.uleb128 0x6
 2334 0169 40       		.uleb128 0x40
 2335 016a 18       		.uleb128 0x18
 2336 016b 9742     		.uleb128 0x2117
 2337 016d 19       		.uleb128 0x19
 2338 016e 01       		.uleb128 0x1
 2339 016f 13       		.uleb128 0x13
 2340 0170 00       		.byte	0
 2341 0171 00       		.byte	0
 2342 0172 1E       		.uleb128 0x1e
 2343 0173 05       		.uleb128 0x5
 2344 0174 00       		.byte	0
 2345 0175 03       		.uleb128 0x3
 2346 0176 08       		.uleb128 0x8
 2347 0177 3A       		.uleb128 0x3a
 2348 0178 0B       		.uleb128 0xb
 2349 0179 3B       		.uleb128 0x3b
 2350 017a 0B       		.uleb128 0xb
 2351 017b 49       		.uleb128 0x49
 2352 017c 13       		.uleb128 0x13
 2353 017d 02       		.uleb128 0x2
 2354 017e 17       		.uleb128 0x17
 2355 017f 00       		.byte	0
 2356 0180 00       		.byte	0
 2357 0181 1F       		.uleb128 0x1f
 2358 0182 05       		.uleb128 0x5
 2359 0183 00       		.byte	0
 2360 0184 03       		.uleb128 0x3
 2361 0185 0E       		.uleb128 0xe
 2362 0186 3A       		.uleb128 0x3a
 2363 0187 0B       		.uleb128 0xb
 2364 0188 3B       		.uleb128 0x3b
 2365 0189 0B       		.uleb128 0xb
 2366 018a 49       		.uleb128 0x49
 2367 018b 13       		.uleb128 0x13
 2368 018c 02       		.uleb128 0x2
 2369 018d 17       		.uleb128 0x17
 2370 018e 00       		.byte	0
 2371 018f 00       		.byte	0
 2372 0190 20       		.uleb128 0x20
 2373 0191 05       		.uleb128 0x5
 2374 0192 00       		.byte	0
 2375 0193 03       		.uleb128 0x3
 2376 0194 08       		.uleb128 0x8
 2377 0195 3A       		.uleb128 0x3a
 2378 0196 0B       		.uleb128 0xb
 2379 0197 3B       		.uleb128 0x3b
 2380 0198 0B       		.uleb128 0xb
 2381 0199 49       		.uleb128 0x49
 2382 019a 13       		.uleb128 0x13
 2383 019b 02       		.uleb128 0x2
 2384 019c 18       		.uleb128 0x18
 2385 019d 00       		.byte	0
 2386 019e 00       		.byte	0
 2387 019f 21       		.uleb128 0x21
 2388 01a0 34       		.uleb128 0x34
ARM GAS  /var/folders/t8/16hdwfmd2fg_d3q6dgx6bpmw0000gn/T//ccqtMZcN.s 			page 43


 2389 01a1 00       		.byte	0
 2390 01a2 03       		.uleb128 0x3
 2391 01a3 08       		.uleb128 0x8
 2392 01a4 3A       		.uleb128 0x3a
 2393 01a5 0B       		.uleb128 0xb
 2394 01a6 3B       		.uleb128 0x3b
 2395 01a7 0B       		.uleb128 0xb
 2396 01a8 49       		.uleb128 0x49
 2397 01a9 13       		.uleb128 0x13
 2398 01aa 02       		.uleb128 0x2
 2399 01ab 17       		.uleb128 0x17
 2400 01ac 00       		.byte	0
 2401 01ad 00       		.byte	0
 2402 01ae 22       		.uleb128 0x22
 2403 01af 34       		.uleb128 0x34
 2404 01b0 00       		.byte	0
 2405 01b1 03       		.uleb128 0x3
 2406 01b2 0E       		.uleb128 0xe
 2407 01b3 49       		.uleb128 0x49
 2408 01b4 13       		.uleb128 0x13
 2409 01b5 34       		.uleb128 0x34
 2410 01b6 19       		.uleb128 0x19
 2411 01b7 02       		.uleb128 0x2
 2412 01b8 18       		.uleb128 0x18
 2413 01b9 00       		.byte	0
 2414 01ba 00       		.byte	0
 2415 01bb 23       		.uleb128 0x23
 2416 01bc 34       		.uleb128 0x34
 2417 01bd 00       		.byte	0
 2418 01be 03       		.uleb128 0x3
 2419 01bf 08       		.uleb128 0x8
 2420 01c0 3A       		.uleb128 0x3a
 2421 01c1 0B       		.uleb128 0xb
 2422 01c2 3B       		.uleb128 0x3b
 2423 01c3 0B       		.uleb128 0xb
 2424 01c4 49       		.uleb128 0x49
 2425 01c5 13       		.uleb128 0x13
 2426 01c6 02       		.uleb128 0x2
 2427 01c7 18       		.uleb128 0x18
 2428 01c8 00       		.byte	0
 2429 01c9 00       		.byte	0
 2430 01ca 24       		.uleb128 0x24
 2431 01cb 1D       		.uleb128 0x1d
 2432 01cc 01       		.byte	0x1
 2433 01cd 31       		.uleb128 0x31
 2434 01ce 13       		.uleb128 0x13
 2435 01cf 11       		.uleb128 0x11
 2436 01d0 01       		.uleb128 0x1
 2437 01d1 12       		.uleb128 0x12
 2438 01d2 06       		.uleb128 0x6
 2439 01d3 58       		.uleb128 0x58
 2440 01d4 0B       		.uleb128 0xb
 2441 01d5 59       		.uleb128 0x59
 2442 01d6 0B       		.uleb128 0xb
 2443 01d7 01       		.uleb128 0x1
 2444 01d8 13       		.uleb128 0x13
 2445 01d9 00       		.byte	0
ARM GAS  /var/folders/t8/16hdwfmd2fg_d3q6dgx6bpmw0000gn/T//ccqtMZcN.s 			page 44


 2446 01da 00       		.byte	0
 2447 01db 25       		.uleb128 0x25
 2448 01dc 1D       		.uleb128 0x1d
 2449 01dd 01       		.byte	0x1
 2450 01de 31       		.uleb128 0x31
 2451 01df 13       		.uleb128 0x13
 2452 01e0 11       		.uleb128 0x11
 2453 01e1 01       		.uleb128 0x1
 2454 01e2 12       		.uleb128 0x12
 2455 01e3 06       		.uleb128 0x6
 2456 01e4 58       		.uleb128 0x58
 2457 01e5 0B       		.uleb128 0xb
 2458 01e6 59       		.uleb128 0x59
 2459 01e7 05       		.uleb128 0x5
 2460 01e8 01       		.uleb128 0x1
 2461 01e9 13       		.uleb128 0x13
 2462 01ea 00       		.byte	0
 2463 01eb 00       		.byte	0
 2464 01ec 26       		.uleb128 0x26
 2465 01ed 1D       		.uleb128 0x1d
 2466 01ee 00       		.byte	0
 2467 01ef 31       		.uleb128 0x31
 2468 01f0 13       		.uleb128 0x13
 2469 01f1 11       		.uleb128 0x11
 2470 01f2 01       		.uleb128 0x1
 2471 01f3 12       		.uleb128 0x12
 2472 01f4 06       		.uleb128 0x6
 2473 01f5 58       		.uleb128 0x58
 2474 01f6 0B       		.uleb128 0xb
 2475 01f7 59       		.uleb128 0x59
 2476 01f8 05       		.uleb128 0x5
 2477 01f9 00       		.byte	0
 2478 01fa 00       		.byte	0
 2479 01fb 27       		.uleb128 0x27
 2480 01fc 898201   		.uleb128 0x4109
 2481 01ff 00       		.byte	0
 2482 0200 11       		.uleb128 0x11
 2483 0201 01       		.uleb128 0x1
 2484 0202 31       		.uleb128 0x31
 2485 0203 13       		.uleb128 0x13
 2486 0204 00       		.byte	0
 2487 0205 00       		.byte	0
 2488 0206 28       		.uleb128 0x28
 2489 0207 1D       		.uleb128 0x1d
 2490 0208 01       		.byte	0x1
 2491 0209 31       		.uleb128 0x31
 2492 020a 13       		.uleb128 0x13
 2493 020b 52       		.uleb128 0x52
 2494 020c 01       		.uleb128 0x1
 2495 020d 55       		.uleb128 0x55
 2496 020e 17       		.uleb128 0x17
 2497 020f 58       		.uleb128 0x58
 2498 0210 0B       		.uleb128 0xb
 2499 0211 59       		.uleb128 0x59
 2500 0212 0B       		.uleb128 0xb
 2501 0213 01       		.uleb128 0x1
 2502 0214 13       		.uleb128 0x13
ARM GAS  /var/folders/t8/16hdwfmd2fg_d3q6dgx6bpmw0000gn/T//ccqtMZcN.s 			page 45


 2503 0215 00       		.byte	0
 2504 0216 00       		.byte	0
 2505 0217 29       		.uleb128 0x29
 2506 0218 0B       		.uleb128 0xb
 2507 0219 01       		.byte	0x1
 2508 021a 55       		.uleb128 0x55
 2509 021b 17       		.uleb128 0x17
 2510 021c 00       		.byte	0
 2511 021d 00       		.byte	0
 2512 021e 2A       		.uleb128 0x2a
 2513 021f 34       		.uleb128 0x34
 2514 0220 00       		.byte	0
 2515 0221 31       		.uleb128 0x31
 2516 0222 13       		.uleb128 0x13
 2517 0223 00       		.byte	0
 2518 0224 00       		.byte	0
 2519 0225 2B       		.uleb128 0x2b
 2520 0226 898201   		.uleb128 0x4109
 2521 0229 01       		.byte	0x1
 2522 022a 11       		.uleb128 0x11
 2523 022b 01       		.uleb128 0x1
 2524 022c 31       		.uleb128 0x31
 2525 022d 13       		.uleb128 0x13
 2526 022e 00       		.byte	0
 2527 022f 00       		.byte	0
 2528 0230 2C       		.uleb128 0x2c
 2529 0231 8A8201   		.uleb128 0x410a
 2530 0234 00       		.byte	0
 2531 0235 02       		.uleb128 0x2
 2532 0236 18       		.uleb128 0x18
 2533 0237 9142     		.uleb128 0x2111
 2534 0239 18       		.uleb128 0x18
 2535 023a 00       		.byte	0
 2536 023b 00       		.byte	0
 2537 023c 2D       		.uleb128 0x2d
 2538 023d 898201   		.uleb128 0x4109
 2539 0240 01       		.byte	0x1
 2540 0241 11       		.uleb128 0x11
 2541 0242 01       		.uleb128 0x1
 2542 0243 31       		.uleb128 0x31
 2543 0244 13       		.uleb128 0x13
 2544 0245 01       		.uleb128 0x1
 2545 0246 13       		.uleb128 0x13
 2546 0247 00       		.byte	0
 2547 0248 00       		.byte	0
 2548 0249 2E       		.uleb128 0x2e
 2549 024a 2E       		.uleb128 0x2e
 2550 024b 01       		.byte	0x1
 2551 024c 03       		.uleb128 0x3
 2552 024d 0E       		.uleb128 0xe
 2553 024e 3A       		.uleb128 0x3a
 2554 024f 0B       		.uleb128 0xb
 2555 0250 3B       		.uleb128 0x3b
 2556 0251 05       		.uleb128 0x5
 2557 0252 27       		.uleb128 0x27
 2558 0253 19       		.uleb128 0x19
 2559 0254 20       		.uleb128 0x20
ARM GAS  /var/folders/t8/16hdwfmd2fg_d3q6dgx6bpmw0000gn/T//ccqtMZcN.s 			page 46


 2560 0255 0B       		.uleb128 0xb
 2561 0256 01       		.uleb128 0x1
 2562 0257 13       		.uleb128 0x13
 2563 0258 00       		.byte	0
 2564 0259 00       		.byte	0
 2565 025a 2F       		.uleb128 0x2f
 2566 025b 34       		.uleb128 0x34
 2567 025c 00       		.byte	0
 2568 025d 03       		.uleb128 0x3
 2569 025e 0E       		.uleb128 0xe
 2570 025f 49       		.uleb128 0x49
 2571 0260 13       		.uleb128 0x13
 2572 0261 34       		.uleb128 0x34
 2573 0262 19       		.uleb128 0x19
 2574 0263 1C       		.uleb128 0x1c
 2575 0264 0E       		.uleb128 0xe
 2576 0265 00       		.byte	0
 2577 0266 00       		.byte	0
 2578 0267 30       		.uleb128 0x30
 2579 0268 2E       		.uleb128 0x2e
 2580 0269 00       		.byte	0
 2581 026a 03       		.uleb128 0x3
 2582 026b 0E       		.uleb128 0xe
 2583 026c 3A       		.uleb128 0x3a
 2584 026d 0B       		.uleb128 0xb
 2585 026e 3B       		.uleb128 0x3b
 2586 026f 05       		.uleb128 0x5
 2587 0270 27       		.uleb128 0x27
 2588 0271 19       		.uleb128 0x19
 2589 0272 20       		.uleb128 0x20
 2590 0273 0B       		.uleb128 0xb
 2591 0274 00       		.byte	0
 2592 0275 00       		.byte	0
 2593 0276 31       		.uleb128 0x31
 2594 0277 2E       		.uleb128 0x2e
 2595 0278 00       		.byte	0
 2596 0279 03       		.uleb128 0x3
 2597 027a 0E       		.uleb128 0xe
 2598 027b 3A       		.uleb128 0x3a
 2599 027c 0B       		.uleb128 0xb
 2600 027d 3B       		.uleb128 0x3b
 2601 027e 0B       		.uleb128 0xb
 2602 027f 27       		.uleb128 0x27
 2603 0280 19       		.uleb128 0x19
 2604 0281 20       		.uleb128 0x20
 2605 0282 0B       		.uleb128 0xb
 2606 0283 00       		.byte	0
 2607 0284 00       		.byte	0
 2608 0285 32       		.uleb128 0x32
 2609 0286 2E       		.uleb128 0x2e
 2610 0287 00       		.byte	0
 2611 0288 3F       		.uleb128 0x3f
 2612 0289 19       		.uleb128 0x19
 2613 028a 3C       		.uleb128 0x3c
 2614 028b 19       		.uleb128 0x19
 2615 028c 6E       		.uleb128 0x6e
 2616 028d 0E       		.uleb128 0xe
ARM GAS  /var/folders/t8/16hdwfmd2fg_d3q6dgx6bpmw0000gn/T//ccqtMZcN.s 			page 47


 2617 028e 03       		.uleb128 0x3
 2618 028f 0E       		.uleb128 0xe
 2619 0290 3A       		.uleb128 0x3a
 2620 0291 0B       		.uleb128 0xb
 2621 0292 3B       		.uleb128 0x3b
 2622 0293 0B       		.uleb128 0xb
 2623 0294 00       		.byte	0
 2624 0295 00       		.byte	0
 2625 0296 33       		.uleb128 0x33
 2626 0297 2E       		.uleb128 0x2e
 2627 0298 00       		.byte	0
 2628 0299 3F       		.uleb128 0x3f
 2629 029a 19       		.uleb128 0x19
 2630 029b 3C       		.uleb128 0x3c
 2631 029c 19       		.uleb128 0x19
 2632 029d 6E       		.uleb128 0x6e
 2633 029e 0E       		.uleb128 0xe
 2634 029f 03       		.uleb128 0x3
 2635 02a0 0E       		.uleb128 0xe
 2636 02a1 3A       		.uleb128 0x3a
 2637 02a2 0B       		.uleb128 0xb
 2638 02a3 3B       		.uleb128 0x3b
 2639 02a4 05       		.uleb128 0x5
 2640 02a5 00       		.byte	0
 2641 02a6 00       		.byte	0
 2642 02a7 00       		.byte	0
 2643              		.section	.debug_loc,"",%progbits
 2644              	.Ldebug_loc0:
 2645              	.LLST6:
 2646 0000 00000000 		.4byte	.LVL16
 2647 0004 10000000 		.4byte	.LVL17
 2648 0008 0100     		.2byte	0x1
 2649 000a 50       		.byte	0x50
 2650 000b 10000000 		.4byte	.LVL17
 2651 000f 6A000000 		.4byte	.LVL26
 2652 0013 0100     		.2byte	0x1
 2653 0015 54       		.byte	0x54
 2654 0016 6A000000 		.4byte	.LVL26
 2655 001a 6C000000 		.4byte	.LVL29
 2656 001e 0400     		.2byte	0x4
 2657 0020 F3       		.byte	0xf3
 2658 0021 01       		.uleb128 0x1
 2659 0022 50       		.byte	0x50
 2660 0023 9F       		.byte	0x9f
 2661 0024 6C000000 		.4byte	.LVL29
 2662 0028 74000000 		.4byte	.LVL31
 2663 002c 0100     		.2byte	0x1
 2664 002e 54       		.byte	0x54
 2665 002f 74000000 		.4byte	.LVL31
 2666 0033 76000000 		.4byte	.LVL32
 2667 0037 0100     		.2byte	0x1
 2668 0039 50       		.byte	0x50
 2669 003a 76000000 		.4byte	.LVL32
 2670 003e 8C000000 		.4byte	.LFE139
 2671 0042 0100     		.2byte	0x1
 2672 0044 54       		.byte	0x54
 2673 0045 00000000 		.4byte	0
ARM GAS  /var/folders/t8/16hdwfmd2fg_d3q6dgx6bpmw0000gn/T//ccqtMZcN.s 			page 48


 2674 0049 00000000 		.4byte	0
 2675              	.LLST7:
 2676 004d 00000000 		.4byte	.LVL16
 2677 0051 10000000 		.4byte	.LVL17
 2678 0055 0100     		.2byte	0x1
 2679 0057 51       		.byte	0x51
 2680 0058 10000000 		.4byte	.LVL17
 2681 005c 6A000000 		.4byte	.LVL28
 2682 0060 0100     		.2byte	0x1
 2683 0062 57       		.byte	0x57
 2684 0063 6A000000 		.4byte	.LVL28
 2685 0067 6C000000 		.4byte	.LVL29
 2686 006b 0400     		.2byte	0x4
 2687 006d F3       		.byte	0xf3
 2688 006e 01       		.uleb128 0x1
 2689 006f 51       		.byte	0x51
 2690 0070 9F       		.byte	0x9f
 2691 0071 6C000000 		.4byte	.LVL29
 2692 0075 74000000 		.4byte	.LVL31
 2693 0079 0100     		.2byte	0x1
 2694 007b 57       		.byte	0x57
 2695 007c 74000000 		.4byte	.LVL31
 2696 0080 79000000 		.4byte	.LVL33-1
 2697 0084 0100     		.2byte	0x1
 2698 0086 51       		.byte	0x51
 2699 0087 79000000 		.4byte	.LVL33-1
 2700 008b 8C000000 		.4byte	.LFE139
 2701 008f 0100     		.2byte	0x1
 2702 0091 57       		.byte	0x57
 2703 0092 00000000 		.4byte	0
 2704 0096 00000000 		.4byte	0
 2705              	.LLST8:
 2706 009a 00000000 		.4byte	.LVL16
 2707 009e 10000000 		.4byte	.LVL17
 2708 00a2 0100     		.2byte	0x1
 2709 00a4 52       		.byte	0x52
 2710 00a5 10000000 		.4byte	.LVL17
 2711 00a9 6A000000 		.4byte	.LVL27
 2712 00ad 0100     		.2byte	0x1
 2713 00af 56       		.byte	0x56
 2714 00b0 6A000000 		.4byte	.LVL27
 2715 00b4 6C000000 		.4byte	.LVL29
 2716 00b8 0400     		.2byte	0x4
 2717 00ba F3       		.byte	0xf3
 2718 00bb 01       		.uleb128 0x1
 2719 00bc 52       		.byte	0x52
 2720 00bd 9F       		.byte	0x9f
 2721 00be 6C000000 		.4byte	.LVL29
 2722 00c2 74000000 		.4byte	.LVL31
 2723 00c6 0100     		.2byte	0x1
 2724 00c8 56       		.byte	0x56
 2725 00c9 74000000 		.4byte	.LVL31
 2726 00cd 79000000 		.4byte	.LVL33-1
 2727 00d1 0100     		.2byte	0x1
 2728 00d3 52       		.byte	0x52
 2729 00d4 79000000 		.4byte	.LVL33-1
 2730 00d8 8C000000 		.4byte	.LFE139
ARM GAS  /var/folders/t8/16hdwfmd2fg_d3q6dgx6bpmw0000gn/T//ccqtMZcN.s 			page 49


 2731 00dc 0100     		.2byte	0x1
 2732 00de 56       		.byte	0x56
 2733 00df 00000000 		.4byte	0
 2734 00e3 00000000 		.4byte	0
 2735              	.LLST9:
 2736 00e7 00000000 		.4byte	.LVL16
 2737 00eb 10000000 		.4byte	.LVL17
 2738 00ef 0100     		.2byte	0x1
 2739 00f1 53       		.byte	0x53
 2740 00f2 10000000 		.4byte	.LVL17
 2741 00f6 4A000000 		.4byte	.LVL22
 2742 00fa 0100     		.2byte	0x1
 2743 00fc 55       		.byte	0x55
 2744 00fd 4A000000 		.4byte	.LVL22
 2745 0101 74000000 		.4byte	.LVL31
 2746 0105 0400     		.2byte	0x4
 2747 0107 F3       		.byte	0xf3
 2748 0108 01       		.uleb128 0x1
 2749 0109 53       		.byte	0x53
 2750 010a 9F       		.byte	0x9f
 2751 010b 74000000 		.4byte	.LVL31
 2752 010f 79000000 		.4byte	.LVL33-1
 2753 0113 0100     		.2byte	0x1
 2754 0115 53       		.byte	0x53
 2755 0116 79000000 		.4byte	.LVL33-1
 2756 011a 7E000000 		.4byte	.LVL35
 2757 011e 0100     		.2byte	0x1
 2758 0120 55       		.byte	0x55
 2759 0121 7E000000 		.4byte	.LVL35
 2760 0125 8C000000 		.4byte	.LFE139
 2761 0129 0400     		.2byte	0x4
 2762 012b F3       		.byte	0xf3
 2763 012c 01       		.uleb128 0x1
 2764 012d 53       		.byte	0x53
 2765 012e 9F       		.byte	0x9f
 2766 012f 00000000 		.4byte	0
 2767 0133 00000000 		.4byte	0
 2768              	.LLST10:
 2769 0137 4A000000 		.4byte	.LVL22
 2770 013b 4D000000 		.4byte	.LVL23-1
 2771 013f 0100     		.2byte	0x1
 2772 0141 50       		.byte	0x50
 2773 0142 4D000000 		.4byte	.LVL23-1
 2774 0146 66000000 		.4byte	.LVL25
 2775 014a 0100     		.2byte	0x1
 2776 014c 55       		.byte	0x55
 2777 014d 6C000000 		.4byte	.LVL29
 2778 0151 74000000 		.4byte	.LVL31
 2779 0155 0100     		.2byte	0x1
 2780 0157 55       		.byte	0x55
 2781 0158 00000000 		.4byte	0
 2782 015c 00000000 		.4byte	0
 2783              	.LLST11:
 2784 0160 16000000 		.4byte	.LVL18
 2785 0164 31000000 		.4byte	.LVL19-1
 2786 0168 0100     		.2byte	0x1
 2787 016a 50       		.byte	0x50
ARM GAS  /var/folders/t8/16hdwfmd2fg_d3q6dgx6bpmw0000gn/T//ccqtMZcN.s 			page 50


 2788 016b 7C000000 		.4byte	.LVL34
 2789 016f 8C000000 		.4byte	.LFE139
 2790 0173 0100     		.2byte	0x1
 2791 0175 50       		.byte	0x50
 2792 0176 00000000 		.4byte	0
 2793 017a 00000000 		.4byte	0
 2794              	.LLST0:
 2795 017e 00000000 		.4byte	.LVL0
 2796 0182 0F000000 		.4byte	.LVL2-1
 2797 0186 0100     		.2byte	0x1
 2798 0188 50       		.byte	0x50
 2799 0189 0F000000 		.4byte	.LVL2-1
 2800 018d 78000000 		.4byte	.LFE138
 2801 0191 0400     		.2byte	0x4
 2802 0193 F3       		.byte	0xf3
 2803 0194 01       		.uleb128 0x1
 2804 0195 50       		.byte	0x50
 2805 0196 9F       		.byte	0x9f
 2806 0197 00000000 		.4byte	0
 2807 019b 00000000 		.4byte	0
 2808              	.LLST1:
 2809 019f 00000000 		.4byte	.LVL0
 2810 01a3 0F000000 		.4byte	.LVL2-1
 2811 01a7 0100     		.2byte	0x1
 2812 01a9 51       		.byte	0x51
 2813 01aa 0F000000 		.4byte	.LVL2-1
 2814 01ae 42000000 		.4byte	.LVL6
 2815 01b2 0100     		.2byte	0x1
 2816 01b4 54       		.byte	0x54
 2817 01b5 42000000 		.4byte	.LVL6
 2818 01b9 6C000000 		.4byte	.LVL14
 2819 01bd 0400     		.2byte	0x4
 2820 01bf F3       		.byte	0xf3
 2821 01c0 01       		.uleb128 0x1
 2822 01c1 51       		.byte	0x51
 2823 01c2 9F       		.byte	0x9f
 2824 01c3 6C000000 		.4byte	.LVL14
 2825 01c7 6E000000 		.4byte	.LVL15
 2826 01cb 0100     		.2byte	0x1
 2827 01cd 54       		.byte	0x54
 2828 01ce 6E000000 		.4byte	.LVL15
 2829 01d2 78000000 		.4byte	.LFE138
 2830 01d6 0400     		.2byte	0x4
 2831 01d8 F3       		.byte	0xf3
 2832 01d9 01       		.uleb128 0x1
 2833 01da 51       		.byte	0x51
 2834 01db 9F       		.byte	0x9f
 2835 01dc 00000000 		.4byte	0
 2836 01e0 00000000 		.4byte	0
 2837              	.LLST2:
 2838 01e4 00000000 		.4byte	.LVL0
 2839 01e8 08000000 		.4byte	.LVL1
 2840 01ec 0100     		.2byte	0x1
 2841 01ee 52       		.byte	0x52
 2842 01ef 08000000 		.4byte	.LVL1
 2843 01f3 62000000 		.4byte	.LVL11
 2844 01f7 0100     		.2byte	0x1
ARM GAS  /var/folders/t8/16hdwfmd2fg_d3q6dgx6bpmw0000gn/T//ccqtMZcN.s 			page 51


 2845 01f9 56       		.byte	0x56
 2846 01fa 62000000 		.4byte	.LVL11
 2847 01fe 64000000 		.4byte	.LVL12
 2848 0202 0400     		.2byte	0x4
 2849 0204 F3       		.byte	0xf3
 2850 0205 01       		.uleb128 0x1
 2851 0206 52       		.byte	0x52
 2852 0207 9F       		.byte	0x9f
 2853 0208 64000000 		.4byte	.LVL12
 2854 020c 78000000 		.4byte	.LFE138
 2855 0210 0100     		.2byte	0x1
 2856 0212 56       		.byte	0x56
 2857 0213 00000000 		.4byte	0
 2858 0217 00000000 		.4byte	0
 2859              	.LLST3:
 2860 021b 00000000 		.4byte	.LVL0
 2861 021f 0F000000 		.4byte	.LVL2-1
 2862 0223 0100     		.2byte	0x1
 2863 0225 53       		.byte	0x53
 2864 0226 0F000000 		.4byte	.LVL2-1
 2865 022a 62000000 		.4byte	.LVL10
 2866 022e 0100     		.2byte	0x1
 2867 0230 55       		.byte	0x55
 2868 0231 62000000 		.4byte	.LVL10
 2869 0235 64000000 		.4byte	.LVL12
 2870 0239 0400     		.2byte	0x4
 2871 023b F3       		.byte	0xf3
 2872 023c 01       		.uleb128 0x1
 2873 023d 53       		.byte	0x53
 2874 023e 9F       		.byte	0x9f
 2875 023f 64000000 		.4byte	.LVL12
 2876 0243 78000000 		.4byte	.LFE138
 2877 0247 0100     		.2byte	0x1
 2878 0249 55       		.byte	0x55
 2879 024a 00000000 		.4byte	0
 2880 024e 00000000 		.4byte	0
 2881              	.LLST4:
 2882 0252 42000000 		.4byte	.LVL6
 2883 0256 45000000 		.4byte	.LVL7-1
 2884 025a 0100     		.2byte	0x1
 2885 025c 50       		.byte	0x50
 2886 025d 45000000 		.4byte	.LVL7-1
 2887 0261 5E000000 		.4byte	.LVL9
 2888 0265 0100     		.2byte	0x1
 2889 0267 54       		.byte	0x54
 2890 0268 64000000 		.4byte	.LVL12
 2891 026c 6C000000 		.4byte	.LVL14
 2892 0270 0100     		.2byte	0x1
 2893 0272 54       		.byte	0x54
 2894 0273 00000000 		.4byte	0
 2895 0277 00000000 		.4byte	0
 2896              	.LLST5:
 2897 027b 10000000 		.4byte	.LVL2
 2898 027f 2B000000 		.4byte	.LVL3-1
 2899 0283 0100     		.2byte	0x1
 2900 0285 50       		.byte	0x50
 2901 0286 6C000000 		.4byte	.LVL14
ARM GAS  /var/folders/t8/16hdwfmd2fg_d3q6dgx6bpmw0000gn/T//ccqtMZcN.s 			page 52


 2902 028a 78000000 		.4byte	.LFE138
 2903 028e 0100     		.2byte	0x1
 2904 0290 50       		.byte	0x50
 2905 0291 00000000 		.4byte	0
 2906 0295 00000000 		.4byte	0
 2907              		.section	.debug_aranges,"",%progbits
 2908 0000 24000000 		.4byte	0x24
 2909 0004 0200     		.2byte	0x2
 2910 0006 00000000 		.4byte	.Ldebug_info0
 2911 000a 04       		.byte	0x4
 2912 000b 00       		.byte	0
 2913 000c 0000     		.2byte	0
 2914 000e 0000     		.2byte	0
 2915 0010 00000000 		.4byte	.LFB138
 2916 0014 78000000 		.4byte	.LFE138-.LFB138
 2917 0018 00000000 		.4byte	.LFB139
 2918 001c 8C000000 		.4byte	.LFE139-.LFB139
 2919 0020 00000000 		.4byte	0
 2920 0024 00000000 		.4byte	0
 2921              		.section	.debug_ranges,"",%progbits
 2922              	.Ldebug_ranges0:
 2923 0000 46000000 		.4byte	.LBB39
 2924 0004 5E000000 		.4byte	.LBE39
 2925 0008 64000000 		.4byte	.LBB45
 2926 000c 6C000000 		.4byte	.LBE45
 2927 0010 00000000 		.4byte	0
 2928 0014 00000000 		.4byte	0
 2929 0018 4E000000 		.4byte	.LBB61
 2930 001c 66000000 		.4byte	.LBE61
 2931 0020 6C000000 		.4byte	.LBB67
 2932 0024 74000000 		.4byte	.LBE67
 2933 0028 00000000 		.4byte	0
 2934 002c 00000000 		.4byte	0
 2935 0030 00000000 		.4byte	.LFB138
 2936 0034 78000000 		.4byte	.LFE138
 2937 0038 00000000 		.4byte	.LFB139
 2938 003c 8C000000 		.4byte	.LFE139
 2939 0040 00000000 		.4byte	0
 2940 0044 00000000 		.4byte	0
 2941              		.section	.debug_line,"",%progbits
 2942              	.Ldebug_line0:
 2943 0000 8F040000 		.section	.debug_str,"MS",%progbits,1
 2943      0200DC03 
 2943      00000201 
 2943      FB0E0D00 
 2943      01010101 
 2944              	.LASF49:
 2945 0000 63685F74 		.ascii	"ch_threads_list\000"
 2945      68726561 
 2945      64735F6C 
 2945      69737400 
 2946              	.LASF102:
 2947 0010 74696D65 		.ascii	"timesize\000"
 2947      73697A65 
 2947      00
 2948              	.LASF149:
 2949 0019 474E5520 		.ascii	"GNU C99 7.2.1 20170904 (release) [ARM/embedded-7-br"
ARM GAS  /var/folders/t8/16hdwfmd2fg_d3q6dgx6bpmw0000gn/T//ccqtMZcN.s 			page 53


 2949      43393920 
 2949      372E322E 
 2949      31203230 
 2949      31373039 
 2950 004c 616E6368 		.ascii	"anch revision 255204] -mcpu=cortex-m0plus -mno-thum"
 2950      20726576 
 2950      6973696F 
 2950      6E203235 
 2950      35323034 
 2951 007f 622D696E 		.ascii	"b-interwork -mthumb -ggdb -O2 -std=gnu99 -fomit-fra"
 2951      74657277 
 2951      6F726B20 
 2951      2D6D7468 
 2951      756D6220 
 2952 00b2 6D652D70 		.ascii	"me-pointer -falign-functions=16 -ffunction-sections"
 2952      6F696E74 
 2952      6572202D 
 2952      66616C69 
 2952      676E2D66 
 2953 00e5 202D6664 		.ascii	" -fdata-sections -fno-common\000"
 2953      6174612D 
 2953      73656374 
 2953      696F6E73 
 2953      202D666E 
 2954              	.LASF85:
 2955 0102 77746D74 		.ascii	"wtmtxp\000"
 2955      787000
 2956              	.LASF142:
 2957 0109 5F646267 		.ascii	"_dbg_check_unlock\000"
 2957      5F636865 
 2957      636B5F75 
 2957      6E6C6F63 
 2957      6B00
 2958              	.LASF131:
 2959 011b 6D656D6F 		.ascii	"memory_pool_t\000"
 2959      72795F70 
 2959      6F6F6C5F 
 2959      7400
 2960              	.LASF93:
 2961 0129 77626173 		.ascii	"wbase\000"
 2961      6500
 2962              	.LASF75:
 2963 012f 72656761 		.ascii	"regarm_t\000"
 2963      726D5F74 
 2963      00
 2964              	.LASF37:
 2965 0138 666C6167 		.ascii	"flags\000"
 2965      7300
 2966              	.LASF28:
 2967 013e 73797374 		.ascii	"systime_t\000"
 2967      696D655F 
 2967      7400
 2968              	.LASF44:
 2969 0148 7265616C 		.ascii	"realprio\000"
 2969      7072696F 
 2969      00
 2970              	.LASF42:
ARM GAS  /var/folders/t8/16hdwfmd2fg_d3q6dgx6bpmw0000gn/T//ccqtMZcN.s 			page 54


 2971 0151 6570656E 		.ascii	"epending\000"
 2971      64696E67 
 2971      00
 2972              	.LASF0:
 2973 015a 756E7369 		.ascii	"unsigned int\000"
 2973      676E6564 
 2973      20696E74 
 2973      00
 2974              	.LASF50:
 2975 0167 6E657874 		.ascii	"next\000"
 2975      00
 2976              	.LASF100:
 2977 016c 76657273 		.ascii	"version\000"
 2977      696F6E00 
 2978              	.LASF47:
 2979 0174 74687265 		.ascii	"threads_list_t\000"
 2979      6164735F 
 2979      6C697374 
 2979      5F7400
 2980              	.LASF8:
 2981 0183 5F5F696E 		.ascii	"__int32_t\000"
 2981      7433325F 
 2981      7400
 2982              	.LASF38:
 2983 018d 72656673 		.ascii	"refs\000"
 2983      00
 2984              	.LASF128:
 2985 0192 68656170 		.ascii	"heap\000"
 2985      00
 2986              	.LASF114:
 2987 0197 6F66665F 		.ascii	"off_time\000"
 2987      74696D65 
 2987      00
 2988              	.LASF81:
 2989 01a0 77746F62 		.ascii	"wtobjp\000"
 2989      6A7000
 2990              	.LASF138:
 2991 01a7 706F7274 		.ascii	"port_lock\000"
 2991      5F6C6F63 
 2991      6B00
 2992              	.LASF73:
 2993 01b1 76746C69 		.ascii	"vtlist\000"
 2993      737400
 2994              	.LASF77:
 2995 01b8 706F7274 		.ascii	"port_context\000"
 2995      5F636F6E 
 2995      74657874 
 2995      00
 2996              	.LASF55:
 2997 01c5 63685F72 		.ascii	"ch_ready_list\000"
 2997      65616479 
 2997      5F6C6973 
 2997      7400
 2998              	.LASF61:
 2999 01d3 66756E63 		.ascii	"func\000"
 2999      00
 3000              	.LASF86:
ARM GAS  /var/folders/t8/16hdwfmd2fg_d3q6dgx6bpmw0000gn/T//ccqtMZcN.s 			page 55


 3001 01d8 65776D61 		.ascii	"ewmask\000"
 3001      736B00
 3002              	.LASF53:
 3003 01df 70726576 		.ascii	"prev\000"
 3003      00
 3004              	.LASF52:
 3005 01e4 63685F74 		.ascii	"ch_threads_queue\000"
 3005      68726561 
 3005      64735F71 
 3005      75657565 
 3005      00
 3006              	.LASF106:
 3007 01f5 6F66665F 		.ascii	"off_newer\000"
 3007      6E657765 
 3007      7200
 3008              	.LASF57:
 3009 01ff 76746675 		.ascii	"vtfunc_t\000"
 3009      6E635F74 
 3009      00
 3010              	.LASF66:
 3011 0208 63685F73 		.ascii	"ch_system_debug\000"
 3011      79737465 
 3011      6D5F6465 
 3011      62756700 
 3012              	.LASF18:
 3013 0218 75696E74 		.ascii	"uint32_t\000"
 3013      33325F74 
 3013      00
 3014              	.LASF83:
 3015 0221 73656E74 		.ascii	"sentmsg\000"
 3015      6D736700 
 3016              	.LASF26:
 3017 0229 6576656E 		.ascii	"eventmask_t\000"
 3017      746D6173 
 3017      6B5F7400 
 3018              	.LASF96:
 3019 0235 74687265 		.ascii	"thread_descriptor_t\000"
 3019      61645F64 
 3019      65736372 
 3019      6970746F 
 3019      725F7400 
 3020              	.LASF103:
 3021 0249 74687265 		.ascii	"threadsize\000"
 3021      61647369 
 3021      7A6500
 3022              	.LASF87:
 3023 0254 63685F73 		.ascii	"ch_semaphore\000"
 3023      656D6170 
 3023      686F7265 
 3023      00
 3024              	.LASF24:
 3025 0261 74707269 		.ascii	"tprio_t\000"
 3025      6F5F7400 
 3026              	.LASF59:
 3027 0269 63685F76 		.ascii	"ch_virtual_timer\000"
 3027      69727475 
 3027      616C5F74 
ARM GAS  /var/folders/t8/16hdwfmd2fg_d3q6dgx6bpmw0000gn/T//ccqtMZcN.s 			page 56


 3027      696D6572 
 3027      00
 3028              	.LASF92:
 3029 027a 7466756E 		.ascii	"tfunc_t\000"
 3029      635F7400 
 3030              	.LASF14:
 3031 0282 6C6F6E67 		.ascii	"long long unsigned int\000"
 3031      206C6F6E 
 3031      6720756E 
 3031      7369676E 
 3031      65642069 
 3032              	.LASF6:
 3033 0299 5F5F7569 		.ascii	"__uint16_t\000"
 3033      6E743136 
 3033      5F7400
 3034              	.LASF27:
 3035 02a4 636E745F 		.ascii	"cnt_t\000"
 3035      7400
 3036              	.LASF109:
 3037 02aa 6F66665F 		.ascii	"off_stklimit\000"
 3037      73746B6C 
 3037      696D6974 
 3037      00
 3038              	.LASF68:
 3039 02b7 6973725F 		.ascii	"isr_cnt\000"
 3039      636E7400 
 3040              	.LASF89:
 3041 02bf 6F776E65 		.ascii	"owner\000"
 3041      7200
 3042              	.LASF51:
 3043 02c5 74687265 		.ascii	"threads_queue_t\000"
 3043      6164735F 
 3043      71756575 
 3043      655F7400 
 3044              	.LASF43:
 3045 02d5 6D74786C 		.ascii	"mtxlist\000"
 3045      69737400 
 3046              	.LASF63:
 3047 02dd 63685F76 		.ascii	"ch_virtual_timers_list\000"
 3047      69727475 
 3047      616C5F74 
 3047      696D6572 
 3047      735F6C69 
 3048              	.LASF126:
 3049 02f4 75736564 		.ascii	"used\000"
 3049      00
 3050              	.LASF29:
 3051 02f9 74687265 		.ascii	"thread_t\000"
 3051      61645F74 
 3051      00
 3052              	.LASF107:
 3053 0302 6F66665F 		.ascii	"off_older\000"
 3053      6F6C6465 
 3053      7200
 3054              	.LASF110:
 3055 030c 6F66665F 		.ascii	"off_state\000"
 3055      73746174 
ARM GAS  /var/folders/t8/16hdwfmd2fg_d3q6dgx6bpmw0000gn/T//ccqtMZcN.s 			page 57


 3055      6500
 3056              	.LASF152:
 3057 0316 68656170 		.ascii	"heap_header\000"
 3057      5F686561 
 3057      64657200 
 3058              	.LASF2:
 3059 0322 73697A65 		.ascii	"size_t\000"
 3059      5F7400
 3060              	.LASF79:
 3061 0329 7264796D 		.ascii	"rdymsg\000"
 3061      736700
 3062              	.LASF130:
 3063 0330 6F626A65 		.ascii	"object_size\000"
 3063      63745F73 
 3063      697A6500 
 3064              	.LASF139:
 3065 033c 5F5F6469 		.ascii	"__disable_irq\000"
 3065      7361626C 
 3065      655F6972 
 3065      7100
 3066              	.LASF88:
 3067 034a 63685F6D 		.ascii	"ch_mutex\000"
 3067      75746578 
 3067      00
 3068              	.LASF125:
 3069 0353 66726565 		.ascii	"free\000"
 3069      00
 3070              	.LASF13:
 3071 0358 5F5F7569 		.ascii	"__uint64_t\000"
 3071      6E743634 
 3071      5F7400
 3072              	.LASF105:
 3073 0363 6F66665F 		.ascii	"off_ctx\000"
 3073      63747800 
 3074              	.LASF136:
 3075 036b 63685379 		.ascii	"chSysLock\000"
 3075      734C6F63 
 3075      6B00
 3076              	.LASF111:
 3077 0375 6F66665F 		.ascii	"off_flags\000"
 3077      666C6167 
 3077      7300
 3078              	.LASF31:
 3079 037f 7072696F 		.ascii	"prio\000"
 3079      00
 3080              	.LASF90:
 3081 0384 63686172 		.ascii	"char\000"
 3081      00
 3082              	.LASF46:
 3083 0389 74687265 		.ascii	"thread_reference_t\000"
 3083      61645F72 
 3083      65666572 
 3083      656E6365 
 3083      5F7400
 3084              	.LASF35:
 3085 039c 77616261 		.ascii	"wabase\000"
 3085      736500
ARM GAS  /var/folders/t8/16hdwfmd2fg_d3q6dgx6bpmw0000gn/T//ccqtMZcN.s 			page 58


 3086              	.LASF91:
 3087 03a3 63685F69 		.ascii	"ch_idle_thread_wa\000"
 3087      646C655F 
 3087      74687265 
 3087      61645F77 
 3087      6100
 3088              	.LASF143:
 3089 03b5 63685379 		.ascii	"chSysHalt\000"
 3089      7348616C 
 3089      7400
 3090              	.LASF132:
 3091 03bf 63685468 		.ascii	"chThdCreateFromMemoryPool\000"
 3091      64437265 
 3091      61746546 
 3091      726F6D4D 
 3091      656D6F72 
 3092              	.LASF21:
 3093 03d9 74737461 		.ascii	"tstate_t\000"
 3093      74655F74 
 3093      00
 3094              	.LASF15:
 3095 03e2 75696E74 		.ascii	"uint8_t\000"
 3095      385F7400 
 3096              	.LASF41:
 3097 03ea 6D736771 		.ascii	"msgqueue\000"
 3097      75657565 
 3097      00
 3098              	.LASF48:
 3099 03f3 63685F74 		.ascii	"ch_thread\000"
 3099      68726561 
 3099      6400
 3100              	.LASF127:
 3101 03fd 70616765 		.ascii	"pages\000"
 3101      7300
 3102              	.LASF108:
 3103 0403 6F66665F 		.ascii	"off_name\000"
 3103      6E616D65 
 3103      00
 3104              	.LASF65:
 3105 040c 73797374 		.ascii	"system_debug_t\000"
 3105      656D5F64 
 3105      65627567 
 3105      5F7400
 3106              	.LASF141:
 3107 041b 5F646267 		.ascii	"_dbg_check_lock\000"
 3107      5F636865 
 3107      636B5F6C 
 3107      6F636B00 
 3108              	.LASF94:
 3109 042b 77656E64 		.ascii	"wend\000"
 3109      00
 3110              	.LASF12:
 3111 0430 6C6F6E67 		.ascii	"long long int\000"
 3111      206C6F6E 
 3111      6720696E 
 3111      7400
 3112              	.LASF98:
ARM GAS  /var/folders/t8/16hdwfmd2fg_d3q6dgx6bpmw0000gn/T//ccqtMZcN.s 			page 59


 3113 043e 7A65726F 		.ascii	"zero\000"
 3113      00
 3114              	.LASF25:
 3115 0443 6D73675F 		.ascii	"msg_t\000"
 3115      7400
 3116              	.LASF58:
 3117 0449 76697274 		.ascii	"virtual_timer_t\000"
 3117      75616C5F 
 3117      74696D65 
 3117      725F7400 
 3118              	.LASF99:
 3119 0459 73697A65 		.ascii	"size\000"
 3119      00
 3120              	.LASF101:
 3121 045e 70747273 		.ascii	"ptrsize\000"
 3121      697A6500 
 3122              	.LASF23:
 3123 0466 74736C69 		.ascii	"tslices_t\000"
 3123      6365735F 
 3123      7400
 3124              	.LASF151:
 3125 0470 2F557365 		.ascii	"/Users/jpablobr/tmp/tmk/di0ib-tmk_keyboard/keyboard"
 3125      72732F6A 
 3125      7061626C 
 3125      6F62722F 
 3125      746D702F 
 3126 04a3 2F746565 		.ascii	"/teensy_lc_menelaus\000"
 3126      6E73795F 
 3126      6C635F6D 
 3126      656E656C 
 3126      61757300 
 3127              	.LASF122:
 3128 04b7 68656164 		.ascii	"header\000"
 3128      657200
 3129              	.LASF119:
 3130 04be 6D656D6F 		.ascii	"memory_heap_t\000"
 3130      72795F68 
 3130      6561705F 
 3130      7400
 3131              	.LASF146:
 3132 04cc 63685468 		.ascii	"chThdCreateSuspendedI\000"
 3132      64437265 
 3132      61746553 
 3132      75737065 
 3132      6E646564 
 3133              	.LASF67:
 3134 04e2 70616E69 		.ascii	"panic_msg\000"
 3134      635F6D73 
 3134      6700
 3135              	.LASF20:
 3136 04ec 746D6F64 		.ascii	"tmode_t\000"
 3136      655F7400 
 3137              	.LASF64:
 3138 04f4 73797374 		.ascii	"systime\000"
 3138      696D6500 
 3139              	.LASF74:
 3140 04fc 6D61696E 		.ascii	"mainthread\000"
ARM GAS  /var/folders/t8/16hdwfmd2fg_d3q6dgx6bpmw0000gn/T//ccqtMZcN.s 			page 60


 3140      74687265 
 3140      616400
 3141              	.LASF16:
 3142 0507 75696E74 		.ascii	"uint16_t\000"
 3142      31365F74 
 3142      00
 3143              	.LASF115:
 3144 0510 63686465 		.ascii	"chdebug_t\000"
 3144      6275675F 
 3144      7400
 3145              	.LASF104:
 3146 051a 6F66665F 		.ascii	"off_prio\000"
 3146      7072696F 
 3146      00
 3147              	.LASF148:
 3148 0523 63684865 		.ascii	"chHeapAllocAligned\000"
 3148      6170416C 
 3148      6C6F6341 
 3148      6C69676E 
 3148      656400
 3149              	.LASF69:
 3150 0536 6C6F636B 		.ascii	"lock_cnt\000"
 3150      5F636E74 
 3150      00
 3151              	.LASF150:
 3152 053f 2E2E2F2E 		.ascii	"../../tmk_core/tool/chibios/ChibiOS/os/rt/src/chdyn"
 3152      2E2F746D 
 3152      6B5F636F 
 3152      72652F74 
 3152      6F6F6C2F 
 3153 0572 616D6963 		.ascii	"amic.c\000"
 3153      2E6300
 3154              	.LASF5:
 3155 0579 73686F72 		.ascii	"short int\000"
 3155      7420696E 
 3155      7400
 3156              	.LASF120:
 3157 0583 6D656D6F 		.ascii	"memory_heap\000"
 3157      72795F68 
 3157      65617000 
 3158              	.LASF9:
 3159 058f 6C6F6E67 		.ascii	"long int\000"
 3159      20696E74 
 3159      00
 3160              	.LASF78:
 3161 0598 706F7274 		.ascii	"port_intctx\000"
 3161      5F696E74 
 3161      63747800 
 3162              	.LASF39:
 3163 05a4 70726565 		.ascii	"preempt\000"
 3163      6D707400 
 3164              	.LASF140:
 3165 05ac 5F5F656E 		.ascii	"__enable_irq\000"
 3165      61626C65 
 3165      5F697271 
 3165      00
 3166              	.LASF71:
ARM GAS  /var/folders/t8/16hdwfmd2fg_d3q6dgx6bpmw0000gn/T//ccqtMZcN.s 			page 61


 3167 05b9 63685F73 		.ascii	"ch_system\000"
 3167      79737465 
 3167      6D00
 3168              	.LASF121:
 3169 05c3 70726F76 		.ascii	"provider\000"
 3169      69646572 
 3169      00
 3170              	.LASF19:
 3171 05cc 75696E74 		.ascii	"uint64_t\000"
 3171      36345F74 
 3171      00
 3172              	.LASF72:
 3173 05d5 726C6973 		.ascii	"rlist\000"
 3173      7400
 3174              	.LASF144:
 3175 05db 6368506F 		.ascii	"chPoolAlloc\000"
 3175      6F6C416C 
 3175      6C6F6300 
 3176              	.LASF3:
 3177 05e7 5F5F7569 		.ascii	"__uint8_t\000"
 3177      6E74385F 
 3177      7400
 3178              	.LASF118:
 3179 05f1 6D656D67 		.ascii	"memgetfunc_t\000"
 3179      65746675 
 3179      6E635F74 
 3179      00
 3180              	.LASF34:
 3181 05fe 6E616D65 		.ascii	"name\000"
 3181      00
 3182              	.LASF97:
 3183 0603 6964656E 		.ascii	"identifier\000"
 3183      74696669 
 3183      657200
 3184              	.LASF113:
 3185 060e 6F66665F 		.ascii	"off_preempt\000"
 3185      70726565 
 3185      6D707400 
 3186              	.LASF153:
 3187 061a 63685379 		.ascii	"chSysUnlock\000"
 3187      73556E6C 
 3187      6F636B00 
 3188              	.LASF22:
 3189 0626 74726566 		.ascii	"trefs_t\000"
 3189      735F7400 
 3190              	.LASF11:
 3191 062e 6C6F6E67 		.ascii	"long unsigned int\000"
 3191      20756E73 
 3191      69676E65 
 3191      6420696E 
 3191      7400
 3192              	.LASF54:
 3193 0640 72656164 		.ascii	"ready_list_t\000"
 3193      795F6C69 
 3193      73745F74 
 3193      00
 3194              	.LASF30:
ARM GAS  /var/folders/t8/16hdwfmd2fg_d3q6dgx6bpmw0000gn/T//ccqtMZcN.s 			page 62


 3195 064d 71756575 		.ascii	"queue\000"
 3195      6500
 3196              	.LASF17:
 3197 0653 696E7433 		.ascii	"int32_t\000"
 3197      325F7400 
 3198              	.LASF84:
 3199 065b 77747365 		.ascii	"wtsemp\000"
 3199      6D7000
 3200              	.LASF133:
 3201 0662 63685468 		.ascii	"chThdCreateFromHeap\000"
 3201      64437265 
 3201      61746546 
 3201      726F6D48 
 3201      65617000 
 3202              	.LASF117:
 3203 0676 6D757465 		.ascii	"mutex_t\000"
 3203      785F7400 
 3204              	.LASF32:
 3205 067e 6E657765 		.ascii	"newer\000"
 3205      7200
 3206              	.LASF4:
 3207 0684 756E7369 		.ascii	"unsigned char\000"
 3207      676E6564 
 3207      20636861 
 3207      7200
 3208              	.LASF10:
 3209 0692 5F5F7569 		.ascii	"__uint32_t\000"
 3209      6E743332 
 3209      5F7400
 3210              	.LASF40:
 3211 069d 77616974 		.ascii	"waiting\000"
 3211      696E6700 
 3212              	.LASF95:
 3213 06a5 66756E63 		.ascii	"funcp\000"
 3213      7000
 3214              	.LASF62:
 3215 06ab 76697274 		.ascii	"virtual_timers_list_t\000"
 3215      75616C5F 
 3215      74696D65 
 3215      72735F6C 
 3215      6973745F 
 3216              	.LASF147:
 3217 06c1 63685363 		.ascii	"chSchWakeupS\000"
 3217      6857616B 
 3217      65757053 
 3217      00
 3218              	.LASF36:
 3219 06ce 73746174 		.ascii	"state\000"
 3219      6500
 3220              	.LASF129:
 3221 06d4 706F6F6C 		.ascii	"pool_header\000"
 3221      5F686561 
 3221      64657200 
 3222              	.LASF70:
 3223 06e0 63685F73 		.ascii	"ch_system_t\000"
 3223      79737465 
 3223      6D5F7400 
ARM GAS  /var/folders/t8/16hdwfmd2fg_d3q6dgx6bpmw0000gn/T//ccqtMZcN.s 			page 63


 3224              	.LASF82:
 3225 06ec 77747472 		.ascii	"wttrp\000"
 3225      7000
 3226              	.LASF134:
 3227 06f2 68656170 		.ascii	"heapp\000"
 3227      7000
 3228              	.LASF1:
 3229 06f8 7369676E 		.ascii	"signed char\000"
 3229      65642063 
 3229      68617200 
 3230              	.LASF60:
 3231 0704 64656C74 		.ascii	"delta\000"
 3231      6100
 3232              	.LASF7:
 3233 070a 73686F72 		.ascii	"short unsigned int\000"
 3233      7420756E 
 3233      7369676E 
 3233      65642069 
 3233      6E7400
 3234              	.LASF76:
 3235 071d 73746B61 		.ascii	"stkalign_t\000"
 3235      6C69676E 
 3235      5F7400
 3236              	.LASF112:
 3237 0728 6F66665F 		.ascii	"off_refs\000"
 3237      72656673 
 3237      00
 3238              	.LASF56:
 3239 0731 63757272 		.ascii	"current\000"
 3239      656E7400 
 3240              	.LASF135:
 3241 0739 5F5F6675 		.ascii	"__func__\000"
 3241      6E635F5F 
 3241      00
 3242              	.LASF116:
 3243 0742 63685F64 		.ascii	"ch_debug\000"
 3243      65627567 
 3243      00
 3244              	.LASF137:
 3245 074b 706F7274 		.ascii	"port_unlock\000"
 3245      5F756E6C 
 3245      6F636B00 
 3246              	.LASF124:
 3247 0757 616C6967 		.ascii	"align\000"
 3247      6E00
 3248              	.LASF33:
 3249 075d 6F6C6465 		.ascii	"older\000"
 3249      7200
 3250              	.LASF80:
 3251 0763 65786974 		.ascii	"exitcode\000"
 3251      636F6465 
 3251      00
 3252              	.LASF123:
 3253 076c 68656170 		.ascii	"heap_header_t\000"
 3253      5F686561 
 3253      6465725F 
 3253      7400
ARM GAS  /var/folders/t8/16hdwfmd2fg_d3q6dgx6bpmw0000gn/T//ccqtMZcN.s 			page 64


 3254              	.LASF145:
 3255 077a 5F746872 		.ascii	"_thread_memfill\000"
 3255      6561645F 
 3255      6D656D66 
 3255      696C6C00 
 3256              	.LASF45:
 3257 078a 6D706F6F 		.ascii	"mpool\000"
 3257      6C00
 3258              		.ident	"GCC: (GNU Tools for Arm Embedded Processors 7-2017-q4-major) 7.2.1 20170904 (release) [ARM
ARM GAS  /var/folders/t8/16hdwfmd2fg_d3q6dgx6bpmw0000gn/T//ccqtMZcN.s 			page 65


DEFINED SYMBOLS
                            *ABS*:0000000000000000 chdynamic.c
/var/folders/t8/16hdwfmd2fg_d3q6dgx6bpmw0000gn/T//ccqtMZcN.s:16     .text.chThdCreateFromHeap:0000000000000000 $t
/var/folders/t8/16hdwfmd2fg_d3q6dgx6bpmw0000gn/T//ccqtMZcN.s:24     .text.chThdCreateFromHeap:0000000000000000 chThdCreateFromHeap
/var/folders/t8/16hdwfmd2fg_d3q6dgx6bpmw0000gn/T//ccqtMZcN.s:170    .text.chThdCreateFromHeap:0000000000000070 $d
/var/folders/t8/16hdwfmd2fg_d3q6dgx6bpmw0000gn/T//ccqtMZcN.s:176    .text.chThdCreateFromMemoryPool:0000000000000000 $t
/var/folders/t8/16hdwfmd2fg_d3q6dgx6bpmw0000gn/T//ccqtMZcN.s:184    .text.chThdCreateFromMemoryPool:0000000000000000 chThdCreateFromMemoryPool
/var/folders/t8/16hdwfmd2fg_d3q6dgx6bpmw0000gn/T//ccqtMZcN.s:342    .text.chThdCreateFromMemoryPool:0000000000000080 $d
/var/folders/t8/16hdwfmd2fg_d3q6dgx6bpmw0000gn/T//ccqtMZcN.s:349    .rodata.__func__.5043:0000000000000000 $d
/var/folders/t8/16hdwfmd2fg_d3q6dgx6bpmw0000gn/T//ccqtMZcN.s:353    .rodata.__func__.5043:0000000000000000 __func__.5043
/var/folders/t8/16hdwfmd2fg_d3q6dgx6bpmw0000gn/T//ccqtMZcN.s:356    .rodata.__func__.5734:0000000000000000 $d
/var/folders/t8/16hdwfmd2fg_d3q6dgx6bpmw0000gn/T//ccqtMZcN.s:360    .rodata.__func__.5734:0000000000000000 __func__.5734

UNDEFINED SYMBOLS
chHeapAllocAligned
_thread_memfill
_dbg_check_lock
chThdCreateSuspendedI
chSchWakeupS
_dbg_check_unlock
chSysHalt
ch
chPoolAlloc
