ARM GAS  /var/folders/t8/16hdwfmd2fg_d3q6dgx6bpmw0000gn/T//ccgTUZMA.s 			page 1


   1              		.cpu cortex-m0plus
   2              		.eabi_attribute 20, 1
   3              		.eabi_attribute 21, 1
   4              		.eabi_attribute 23, 3
   5              		.eabi_attribute 24, 1
   6              		.eabi_attribute 25, 1
   7              		.eabi_attribute 26, 1
   8              		.eabi_attribute 30, 2
   9              		.eabi_attribute 34, 0
  10              		.eabi_attribute 18, 4
  11              		.file	"chheap.c"
  12              		.text
  13              	.Ltext0:
  14              		.cfi_sections	.debug_frame
  15              		.section	.text._heap_init,"ax",%progbits
  16              		.align	1
  17              		.p2align 4,,15
  18              		.global	_heap_init
  19              		.syntax unified
  20              		.code	16
  21              		.thumb_func
  22              		.fpu softvfp
  23              		.type	_heap_init, %function
  24              	_heap_init:
  25              	.LFB138:
  26              		.file 1 "../../tmk_core/tool/chibios/ChibiOS/os/common/oslib/src/chheap.c"
  27              		.loc 1 107 0
  28              		.cfi_startproc
  29              		@ args = 0, pretend = 0, frame = 0
  30              		@ frame_needed = 0, uses_anonymous_args = 0
  31              		.loc 1 109 0
  32 0000 0548     		ldr	r0, .L3
  33 0002 064B     		ldr	r3, .L3+4
  34              		.loc 1 107 0
  35 0004 10B5     		push	{r4, lr}
  36              		.cfi_def_cfa_offset 8
  37              		.cfi_offset 4, -8
  38              		.cfi_offset 14, -4
  39              		.loc 1 109 0
  40 0006 0360     		str	r3, [r0]
  41              		.loc 1 110 0
  42 0008 0023     		movs	r3, #0
  43 000a 8360     		str	r3, [r0, #8]
  44              		.loc 1 111 0
  45 000c C360     		str	r3, [r0, #12]
  46              		.loc 1 113 0
  47 000e 1030     		adds	r0, r0, #16
  48 0010 FFF7FEFF 		bl	chMtxObjectInit
  49              	.LVL0:
  50              		.loc 1 117 0
  51              		@ sp needed
  52 0014 10BD     		pop	{r4, pc}
  53              	.L4:
  54 0016 C046     		.align	2
  55              	.L3:
  56 0018 00000000 		.word	.LANCHOR0
  57 001c 00000000 		.word	chCoreAllocAligned
ARM GAS  /var/folders/t8/16hdwfmd2fg_d3q6dgx6bpmw0000gn/T//ccgTUZMA.s 			page 2


  58              		.cfi_endproc
  59              	.LFE138:
  60              		.size	_heap_init, .-_heap_init
  61              		.section	.text.chHeapObjectInit,"ax",%progbits
  62              		.align	1
  63              		.p2align 4,,15
  64              		.global	chHeapObjectInit
  65              		.syntax unified
  66              		.code	16
  67              		.thumb_func
  68              		.fpu softvfp
  69              		.type	chHeapObjectInit, %function
  70              	chHeapObjectInit:
  71              	.LFB139:
  72              		.loc 1 130 0
  73              		.cfi_startproc
  74              		@ args = 0, pretend = 0, frame = 0
  75              		@ frame_needed = 0, uses_anonymous_args = 0
  76              	.LVL1:
  77 0000 70B5     		push	{r4, r5, r6, lr}
  78              		.cfi_def_cfa_offset 16
  79              		.cfi_offset 4, -16
  80              		.cfi_offset 5, -12
  81              		.cfi_offset 6, -8
  82              		.cfi_offset 14, -4
  83              		.loc 1 130 0
  84 0002 0400     		movs	r4, r0
  85 0004 0E00     		movs	r6, r1
  86 0006 1500     		movs	r5, r2
  87              		.loc 1 133 0
  88 0008 0028     		cmp	r0, #0
  89 000a 01D0     		beq	.L6
  90              		.loc 1 133 0 is_stmt 0 discriminator 3
  91 000c 002A     		cmp	r2, #0
  92 000e 0FD1     		bne	.L17
  93              	.L6:
  94              		.loc 1 133 0 discriminator 8
  95 0010 0A48     		ldr	r0, .L18
  96              	.LVL2:
  97 0012 FFF7FEFF 		bl	chSysHalt
  98              	.LVL3:
  99              	.L7:
 100              		.loc 1 137 0 is_stmt 1
 101 0016 0023     		movs	r3, #0
 102              		.loc 1 143 0
 103 0018 2000     		movs	r0, r4
 104              		.loc 1 141 0
 105 001a 083D     		subs	r5, r5, #8
 106              	.LVL4:
 107 001c ED08     		lsrs	r5, r5, #3
 108              	.LVL5:
 109              		.loc 1 138 0
 110 001e A660     		str	r6, [r4, #8]
 111              		.loc 1 137 0
 112 0020 2360     		str	r3, [r4]
 113              		.loc 1 139 0
 114 0022 E360     		str	r3, [r4, #12]
ARM GAS  /var/folders/t8/16hdwfmd2fg_d3q6dgx6bpmw0000gn/T//ccgTUZMA.s 			page 3


 115              		.loc 1 143 0
 116 0024 1030     		adds	r0, r0, #16
 117              		.loc 1 141 0
 118 0026 7560     		str	r5, [r6, #4]
 119              		.loc 1 140 0
 120 0028 3360     		str	r3, [r6]
 121              		.loc 1 143 0
 122 002a FFF7FEFF 		bl	chMtxObjectInit
 123              	.LVL6:
 124              		.loc 1 147 0
 125              		@ sp needed
 126              	.LVL7:
 127              	.LVL8:
 128 002e 70BD     		pop	{r4, r5, r6, pc}
 129              	.LVL9:
 130              	.L17:
 131              		.loc 1 133 0 discriminator 5
 132 0030 0B00     		movs	r3, r1
 133 0032 1343     		orrs	r3, r2
 134 0034 5B07     		lsls	r3, r3, #29
 135 0036 EBD1     		bne	.L6
 136 0038 EDE7     		b	.L7
 137              	.L19:
 138 003a C046     		.align	2
 139              	.L18:
 140 003c 00000000 		.word	.LANCHOR1
 141              		.cfi_endproc
 142              	.LFE139:
 143              		.size	chHeapObjectInit, .-chHeapObjectInit
 144              		.section	.text.chHeapAllocAligned,"ax",%progbits
 145              		.align	1
 146              		.p2align 4,,15
 147              		.global	chHeapAllocAligned
 148              		.syntax unified
 149              		.code	16
 150              		.thumb_func
 151              		.fpu softvfp
 152              		.type	chHeapAllocAligned, %function
 153              	chHeapAllocAligned:
 154              	.LFB140:
 155              		.loc 1 166 0
 156              		.cfi_startproc
 157              		@ args = 0, pretend = 0, frame = 16
 158              		@ frame_needed = 0, uses_anonymous_args = 0
 159              	.LVL10:
 160 0000 F0B5     		push	{r4, r5, r6, r7, lr}
 161              		.cfi_def_cfa_offset 20
 162              		.cfi_offset 4, -20
 163              		.cfi_offset 5, -16
 164              		.cfi_offset 6, -12
 165              		.cfi_offset 7, -8
 166              		.cfi_offset 14, -4
 167 0002 4E46     		mov	r6, r9
 168 0004 DE46     		mov	lr, fp
 169 0006 5746     		mov	r7, r10
 170 0008 4546     		mov	r5, r8
 171 000a E0B5     		push	{r5, r6, r7, lr}
ARM GAS  /var/folders/t8/16hdwfmd2fg_d3q6dgx6bpmw0000gn/T//ccgTUZMA.s 			page 4


 172              		.cfi_def_cfa_offset 36
 173              		.cfi_offset 8, -36
 174              		.cfi_offset 9, -32
 175              		.cfi_offset 10, -28
 176              		.cfi_offset 11, -24
 177 000c 85B0     		sub	sp, sp, #20
 178              		.cfi_def_cfa_offset 56
 179              		.loc 1 166 0
 180 000e 8146     		mov	r9, r0
 181 0010 0291     		str	r1, [sp, #8]
 182 0012 1400     		movs	r4, r2
 183              		.loc 1 170 0
 184 0014 0029     		cmp	r1, #0
 185 0016 01D0     		beq	.L21
 186              		.loc 1 170 0 is_stmt 0 discriminator 3
 187 0018 002A     		cmp	r2, #0
 188 001a 55D1     		bne	.L48
 189              	.L21:
 190              		.loc 1 170 0 discriminator 6
 191 001c 4948     		ldr	r0, .L54
 192              	.LVL11:
 193 001e FFF7FEFF 		bl	chSysHalt
 194              	.LVL12:
 195              		.loc 1 173 0 is_stmt 1 discriminator 6
 196 0022 4B46     		mov	r3, r9
 197 0024 002B     		cmp	r3, #0
 198 0026 55D0     		beq	.L49
 199              	.LVL13:
 200              	.L23:
 201 0028 A046     		mov	r8, r4
 202 002a 082C     		cmp	r4, #8
 203 002c 01D2     		bcs	.L24
 204 002e 0823     		movs	r3, #8
 205 0030 9846     		mov	r8, r3
 206              	.L24:
 207              	.LVL14:
 208              		.loc 1 183 0
 209 0032 029B     		ldr	r3, [sp, #8]
 210              		.loc 1 189 0
 211 0034 4D46     		mov	r5, r9
 212              		.loc 1 183 0
 213 0036 DF1D     		adds	r7, r3, #7
 214 0038 FB08     		lsrs	r3, r7, #3
 215 003a 0193     		str	r3, [sp, #4]
 216              	.LVL15:
 217              		.loc 1 186 0
 218 003c 1023     		movs	r3, #16
 219              	.LVL16:
 220 003e 4B44     		add	r3, r3, r9
 221 0040 1800     		movs	r0, r3
 222 0042 0393     		str	r3, [sp, #12]
 223 0044 FFF7FEFF 		bl	chMtxLock
 224              	.LVL17:
 225              	.LBB2:
 226              		.loc 1 197 0
 227 0048 0123     		movs	r3, #1
 228 004a 5B42     		rsbs	r3, r3, #0
ARM GAS  /var/folders/t8/16hdwfmd2fg_d3q6dgx6bpmw0000gn/T//ccgTUZMA.s 			page 5


 229 004c 4344     		add	r3, r3, r8
 230 004e 9B46     		mov	fp, r3
 231 0050 4346     		mov	r3, r8
 232              	.LBE2:
 233              		.loc 1 189 0
 234 0052 0835     		adds	r5, r5, #8
 235              	.LVL18:
 236              		.loc 1 190 0
 237 0054 2968     		ldr	r1, [r5]
 238              	.LBB8:
 239              		.loc 1 197 0
 240 0056 5B42     		rsbs	r3, r3, #0
 241 0058 9A46     		mov	r10, r3
 242 005a 5E46     		mov	r6, fp
 243              	.LBE8:
 244              		.loc 1 190 0
 245 005c 0029     		cmp	r1, #0
 246 005e 17D0     		beq	.L50
 247              	.L31:
 248              	.LVL19:
 249              	.LBB9:
 250              		.loc 1 197 0
 251 0060 0A00     		movs	r2, r1
 252 0062 5346     		mov	r3, r10
 253 0064 0832     		adds	r2, r2, #8
 254 0066 9419     		adds	r4, r2, r6
 255 0068 1C40     		ands	r4, r3
 256 006a 2000     		movs	r0, r4
 257              		.loc 1 199 0
 258 006c 4F68     		ldr	r7, [r1, #4]
 259              		.loc 1 197 0
 260 006e 0838     		subs	r0, r0, #8
 261              	.LVL20:
 262              		.loc 1 199 0
 263 0070 7B1C     		adds	r3, r7, #1
 264 0072 DB00     		lsls	r3, r3, #3
 265 0074 CB18     		adds	r3, r1, r3
 266 0076 8342     		cmp	r3, r0
 267 0078 06D9     		bls	.L26
 268              		.loc 1 199 0 is_stmt 0 discriminator 1
 269 007a A446     		mov	ip, r4
 270 007c 1C1B     		subs	r4, r3, r4
 271 007e E410     		asrs	r4, r4, #3
 272 0080 A346     		mov	fp, r4
 273 0082 019C     		ldr	r4, [sp, #4]
 274 0084 A345     		cmp	fp, r4
 275 0086 28D2     		bcs	.L51
 276              	.L26:
 277              	.LBB3:
 278              		.loc 1 238 0 is_stmt 1
 279 0088 0D00     		movs	r5, r1
 280              	.LVL21:
 281              	.LBE3:
 282              	.LBE9:
 283              		.loc 1 190 0
 284 008a 2968     		ldr	r1, [r5]
 285              	.LVL22:
ARM GAS  /var/folders/t8/16hdwfmd2fg_d3q6dgx6bpmw0000gn/T//ccgTUZMA.s 			page 6


 286 008c 0029     		cmp	r1, #0
 287 008e E7D1     		bne	.L31
 288              	.LVL23:
 289              	.L50:
 290              		.loc 1 259 0
 291 0090 0398     		ldr	r0, [sp, #12]
 292 0092 FFF7FEFF 		bl	chMtxUnlock
 293              	.LVL24:
 294              		.loc 1 263 0
 295 0096 4B46     		mov	r3, r9
 296 0098 1B68     		ldr	r3, [r3]
 297 009a 002B     		cmp	r3, #0
 298 009c 4FD0     		beq	.L33
 299              		.loc 1 264 0
 300 009e 0198     		ldr	r0, [sp, #4]
 301 00a0 4146     		mov	r1, r8
 302 00a2 0130     		adds	r0, r0, #1
 303 00a4 C000     		lsls	r0, r0, #3
 304 00a6 9847     		blx	r3
 305              	.LVL25:
 306              		.loc 1 265 0
 307 00a8 0028     		cmp	r0, #0
 308 00aa 48D0     		beq	.L33
 309              		.loc 1 266 0
 310 00ac 4B46     		mov	r3, r9
 311 00ae 0360     		str	r3, [r0]
 312              		.loc 1 267 0
 313 00b0 029B     		ldr	r3, [sp, #8]
 314 00b2 4360     		str	r3, [r0, #4]
 315              		.loc 1 270 0
 316 00b4 0830     		adds	r0, r0, #8
 317              	.LVL26:
 318 00b6 0400     		movs	r4, r0
 319              	.LVL27:
 320              	.L20:
 321              		.loc 1 276 0
 322 00b8 2000     		movs	r0, r4
 323 00ba 05B0     		add	sp, sp, #20
 324              		@ sp needed
 325              	.LVL28:
 326              	.LVL29:
 327              	.LVL30:
 328              	.LVL31:
 329 00bc 3CBC     		pop	{r2, r3, r4, r5}
 330 00be 9046     		mov	r8, r2
 331 00c0 9946     		mov	r9, r3
 332 00c2 A246     		mov	r10, r4
 333 00c4 AB46     		mov	fp, r5
 334 00c6 F0BD     		pop	{r4, r5, r6, r7, pc}
 335              	.LVL32:
 336              	.L48:
 337              		.loc 1 170 0 discriminator 5
 338 00c8 531E     		subs	r3, r2, #1
 339 00ca 1A42     		tst	r2, r3
 340 00cc A6D1     		bne	.L21
 341              		.loc 1 173 0
 342 00ce 4B46     		mov	r3, r9
ARM GAS  /var/folders/t8/16hdwfmd2fg_d3q6dgx6bpmw0000gn/T//ccgTUZMA.s 			page 7


 343 00d0 002B     		cmp	r3, #0
 344 00d2 A9D1     		bne	.L23
 345              	.LVL33:
 346              	.L49:
 347              		.loc 1 174 0
 348 00d4 1C4B     		ldr	r3, .L54+4
 349              	.LVL34:
 350 00d6 9946     		mov	r9, r3
 351              	.LVL35:
 352 00d8 A6E7     		b	.L23
 353              	.LVL36:
 354              	.L51:
 355 00da 0600     		movs	r6, r0
 356 00dc 6446     		mov	r4, ip
 357 00de 5846     		mov	r0, fp
 358              	.LVL37:
 359              	.LBB10:
 360              		.loc 1 203 0
 361 00e0 B142     		cmp	r1, r6
 362 00e2 18D3     		bcc	.L52
 363              		.loc 1 227 0
 364 00e4 019C     		ldr	r4, [sp, #4]
 365 00e6 0868     		ldr	r0, [r1]
 366 00e8 A742     		cmp	r7, r4
 367 00ea 24D0     		beq	.L53
 368              	.LBB4:
 369              		.loc 1 235 0
 370 00ec 019F     		ldr	r7, [sp, #4]
 371              	.LBE4:
 372              		.loc 1 197 0
 373 00ee 1400     		movs	r4, r2
 374              	.LBB5:
 375              		.loc 1 235 0
 376 00f0 0137     		adds	r7, r7, #1
 377 00f2 FF00     		lsls	r7, r7, #3
 378 00f4 CF19     		adds	r7, r1, r7
 379              	.LVL38:
 380              		.loc 1 236 0
 381 00f6 3860     		str	r0, [r7]
 382              		.loc 1 237 0
 383 00f8 3800     		movs	r0, r7
 384              		.loc 1 238 0
 385 00fa 0E00     		movs	r6, r1
 386              	.LVL39:
 387              		.loc 1 237 0
 388 00fc 0830     		adds	r0, r0, #8
 389 00fe 1B1A     		subs	r3, r3, r0
 390 0100 DB10     		asrs	r3, r3, #3
 391 0102 7B60     		str	r3, [r7, #4]
 392              		.loc 1 238 0
 393 0104 2F60     		str	r7, [r5]
 394              	.LVL40:
 395              	.L28:
 396              	.LBE5:
 397              		.loc 1 243 0
 398 0106 029B     		ldr	r3, [sp, #8]
 399              		.loc 1 247 0
ARM GAS  /var/folders/t8/16hdwfmd2fg_d3q6dgx6bpmw0000gn/T//ccgTUZMA.s 			page 8


 400 0108 0398     		ldr	r0, [sp, #12]
 401              		.loc 1 243 0
 402 010a 7360     		str	r3, [r6, #4]
 403              		.loc 1 244 0
 404 010c 4B46     		mov	r3, r9
 405 010e 3360     		str	r3, [r6]
 406              		.loc 1 247 0
 407 0110 FFF7FEFF 		bl	chMtxUnlock
 408              	.LVL41:
 409              		.loc 1 250 0
 410 0114 D0E7     		b	.L20
 411              	.LVL42:
 412              	.L52:
 413              	.LBB6:
 414              		.loc 1 208 0
 415 0116 B21A     		subs	r2, r6, r2
 416 0118 D210     		asrs	r2, r2, #3
 417 011a 4A60     		str	r2, [r1, #4]
 418              		.loc 1 209 0
 419 011c 019A     		ldr	r2, [sp, #4]
 420 011e 9042     		cmp	r0, r2
 421 0120 F1D9     		bls	.L28
 422              	.LBB7:
 423              		.loc 1 215 0
 424 0122 D743     		mvns	r7, r2
 425              		.loc 1 214 0
 426 0124 531C     		adds	r3, r2, #1
 427 0126 DB00     		lsls	r3, r3, #3
 428              		.loc 1 218 0
 429 0128 0A68     		ldr	r2, [r1]
 430              		.loc 1 214 0
 431 012a F318     		adds	r3, r6, r3
 432              	.LVL43:
 433              		.loc 1 215 0
 434 012c 3818     		adds	r0, r7, r0
 435              	.LVL44:
 436 012e 5860     		str	r0, [r3, #4]
 437              		.loc 1 218 0
 438 0130 1A60     		str	r2, [r3]
 439              		.loc 1 219 0
 440 0132 0B60     		str	r3, [r1]
 441 0134 E7E7     		b	.L28
 442              	.LVL45:
 443              	.L53:
 444              	.LBE7:
 445              	.LBE6:
 446              		.loc 1 229 0
 447 0136 2860     		str	r0, [r5]
 448              		.loc 1 197 0
 449 0138 1400     		movs	r4, r2
 450 013a 0E00     		movs	r6, r1
 451              	.LVL46:
 452 013c E3E7     		b	.L28
 453              	.LVL47:
 454              	.L33:
 455              	.LBE10:
 456              		.loc 1 275 0
ARM GAS  /var/folders/t8/16hdwfmd2fg_d3q6dgx6bpmw0000gn/T//ccgTUZMA.s 			page 9


 457 013e 0024     		movs	r4, #0
 458 0140 BAE7     		b	.L20
 459              	.L55:
 460 0142 C046     		.align	2
 461              	.L54:
 462 0144 00000000 		.word	.LANCHOR2
 463 0148 00000000 		.word	.LANCHOR0
 464              		.cfi_endproc
 465              	.LFE140:
 466              		.size	chHeapAllocAligned, .-chHeapAllocAligned
 467              		.section	.text.chHeapFree,"ax",%progbits
 468              		.align	1
 469              		.p2align 4,,15
 470              		.global	chHeapFree
 471              		.syntax unified
 472              		.code	16
 473              		.thumb_func
 474              		.fpu softvfp
 475              		.type	chHeapFree, %function
 476              	chHeapFree:
 477              	.LFB141:
 478              		.loc 1 285 0
 479              		.cfi_startproc
 480              		@ args = 0, pretend = 0, frame = 0
 481              		@ frame_needed = 0, uses_anonymous_args = 0
 482              	.LVL48:
 483 0000 F0B5     		push	{r4, r5, r6, r7, lr}
 484              		.cfi_def_cfa_offset 20
 485              		.cfi_offset 4, -20
 486              		.cfi_offset 5, -16
 487              		.cfi_offset 6, -12
 488              		.cfi_offset 7, -8
 489              		.cfi_offset 14, -4
 490 0002 C646     		mov	lr, r8
 491 0004 0500     		movs	r5, r0
 492 0006 00B5     		push	{lr}
 493              		.cfi_def_cfa_offset 24
 494              		.cfi_offset 8, -24
 495              		.loc 1 289 0
 496 0008 0028     		cmp	r0, #0
 497 000a 38D0     		beq	.L57
 498              		.loc 1 289 0 is_stmt 0 discriminator 3
 499 000c 4307     		lsls	r3, r0, #29
 500 000e 36D1     		bne	.L57
 501              	.LVL49:
 502              	.L58:
 503              		.loc 1 292 0 is_stmt 1
 504 0010 083D     		subs	r5, r5, #8
 505              	.LVL50:
 506              		.loc 1 294 0
 507 0012 2F68     		ldr	r7, [r5]
 508              	.LVL51:
 509              		.loc 1 298 0
 510 0014 6B68     		ldr	r3, [r5, #4]
 511              		.loc 1 295 0
 512 0016 3E00     		movs	r6, r7
 513              		.loc 1 298 0
ARM GAS  /var/folders/t8/16hdwfmd2fg_d3q6dgx6bpmw0000gn/T//ccgTUZMA.s 			page 10


 514 0018 0733     		adds	r3, r3, #7
 515              		.loc 1 299 0
 516 001a DB08     		lsrs	r3, r3, #3
 517              		.loc 1 302 0
 518 001c 1037     		adds	r7, r7, #16
 519              	.LVL52:
 520              		.loc 1 298 0
 521 001e 6B60     		str	r3, [r5, #4]
 522              		.loc 1 302 0
 523 0020 3800     		movs	r0, r7
 524 0022 FFF7FEFF 		bl	chMtxLock
 525              	.LVL53:
 526              		.loc 1 305 0
 527 0026 234B     		ldr	r3, .L78
 528              		.loc 1 295 0
 529 0028 0836     		adds	r6, r6, #8
 530              	.LVL54:
 531 002a 3400     		movs	r4, r6
 532              		.loc 1 305 0
 533 002c 9846     		mov	r8, r3
 534              	.LVL55:
 535              	.L59:
 536              		.loc 1 305 0 is_stmt 0 discriminator 1
 537 002e AC42     		cmp	r4, r5
 538 0030 05D8     		bhi	.L60
 539              		.loc 1 305 0 discriminator 2
 540 0032 6368     		ldr	r3, [r4, #4]
 541 0034 0133     		adds	r3, r3, #1
 542 0036 DB00     		lsls	r3, r3, #3
 543 0038 E318     		adds	r3, r4, r3
 544 003a 9D42     		cmp	r5, r3
 545 003c 23D3     		bcc	.L75
 546              	.L60:
 547 003e 2368     		ldr	r3, [r4]
 548              		.loc 1 307 0 is_stmt 1
 549 0040 B442     		cmp	r4, r6
 550 0042 01D0     		beq	.L61
 551              		.loc 1 307 0 is_stmt 0 discriminator 2
 552 0044 AC42     		cmp	r4, r5
 553 0046 03D2     		bcs	.L62
 554              	.L61:
 555              		.loc 1 307 0 discriminator 3
 556 0048 002B     		cmp	r3, #0
 557 004a 03D0     		beq	.L63
 558              		.loc 1 308 0 is_stmt 1
 559 004c 9D42     		cmp	r5, r3
 560 004e 01D3     		bcc	.L63
 561              	.L62:
 562              		.loc 1 285 0 discriminator 1
 563 0050 1C00     		movs	r4, r3
 564              	.LVL56:
 565 0052 ECE7     		b	.L59
 566              	.LVL57:
 567              	.L63:
 568              		.loc 1 310 0
 569 0054 2B60     		str	r3, [r5]
 570              		.loc 1 313 0
ARM GAS  /var/folders/t8/16hdwfmd2fg_d3q6dgx6bpmw0000gn/T//ccgTUZMA.s 			page 11


 571 0056 6B68     		ldr	r3, [r5, #4]
 572              		.loc 1 311 0
 573 0058 2560     		str	r5, [r4]
 574              		.loc 1 313 0
 575 005a 5A1C     		adds	r2, r3, #1
 576 005c D300     		lsls	r3, r2, #3
 577 005e 2968     		ldr	r1, [r5]
 578 0060 EB18     		adds	r3, r5, r3
 579 0062 8B42     		cmp	r3, r1
 580 0064 13D0     		beq	.L76
 581              		.loc 1 318 0
 582 0066 6268     		ldr	r2, [r4, #4]
 583 0068 531C     		adds	r3, r2, #1
 584 006a DB00     		lsls	r3, r3, #3
 585 006c E318     		adds	r3, r4, r3
 586 006e 9D42     		cmp	r5, r3
 587 0070 19D0     		beq	.L77
 588              	.L65:
 589              		.loc 1 329 0
 590 0072 3800     		movs	r0, r7
 591 0074 FFF7FEFF 		bl	chMtxUnlock
 592              	.LVL58:
 593              		.loc 1 332 0
 594              		@ sp needed
 595              	.LVL59:
 596              	.LVL60:
 597              	.LVL61:
 598              	.LVL62:
 599 0078 04BC     		pop	{r2}
 600 007a 9046     		mov	r8, r2
 601 007c F0BD     		pop	{r4, r5, r6, r7, pc}
 602              	.LVL63:
 603              	.L57:
 604              		.loc 1 289 0 discriminator 4
 605 007e 0D48     		ldr	r0, .L78
 606              	.LVL64:
 607 0080 FFF7FEFF 		bl	chSysHalt
 608              	.LVL65:
 609 0084 C4E7     		b	.L58
 610              	.LVL66:
 611              	.L75:
 612              		.loc 1 305 0 discriminator 3
 613 0086 4046     		mov	r0, r8
 614 0088 FFF7FEFF 		bl	chSysHalt
 615              	.LVL67:
 616 008c D7E7     		b	.L60
 617              	.L76:
 618              		.loc 1 315 0
 619 008e 5968     		ldr	r1, [r3, #4]
 620              		.loc 1 316 0
 621 0090 1B68     		ldr	r3, [r3]
 622              		.loc 1 315 0
 623 0092 8C46     		mov	ip, r1
 624 0094 6244     		add	r2, r2, ip
 625 0096 6A60     		str	r2, [r5, #4]
 626              		.loc 1 318 0
 627 0098 6268     		ldr	r2, [r4, #4]
ARM GAS  /var/folders/t8/16hdwfmd2fg_d3q6dgx6bpmw0000gn/T//ccgTUZMA.s 			page 12


 628              		.loc 1 316 0
 629 009a 2B60     		str	r3, [r5]
 630              		.loc 1 318 0
 631 009c 531C     		adds	r3, r2, #1
 632 009e DB00     		lsls	r3, r3, #3
 633 00a0 E318     		adds	r3, r4, r3
 634 00a2 9D42     		cmp	r5, r3
 635 00a4 E5D1     		bne	.L65
 636              	.L77:
 637              		.loc 1 320 0
 638 00a6 6B68     		ldr	r3, [r5, #4]
 639 00a8 0133     		adds	r3, r3, #1
 640 00aa 9A18     		adds	r2, r3, r2
 641              		.loc 1 321 0
 642 00ac 2B68     		ldr	r3, [r5]
 643              		.loc 1 320 0
 644 00ae 6260     		str	r2, [r4, #4]
 645              		.loc 1 321 0
 646 00b0 2360     		str	r3, [r4]
 647 00b2 DEE7     		b	.L65
 648              	.L79:
 649              		.align	2
 650              	.L78:
 651 00b4 00000000 		.word	.LANCHOR3
 652              		.cfi_endproc
 653              	.LFE141:
 654              		.size	chHeapFree, .-chHeapFree
 655              		.section	.text.chHeapStatus,"ax",%progbits
 656              		.align	1
 657              		.p2align 4,,15
 658              		.global	chHeapStatus
 659              		.syntax unified
 660              		.code	16
 661              		.thumb_func
 662              		.fpu softvfp
 663              		.type	chHeapStatus, %function
 664              	chHeapStatus:
 665              	.LFB142:
 666              		.loc 1 349 0
 667              		.cfi_startproc
 668              		@ args = 0, pretend = 0, frame = 0
 669              		@ frame_needed = 0, uses_anonymous_args = 0
 670              	.LVL68:
 671 0000 F8B5     		push	{r3, r4, r5, r6, r7, lr}
 672              		.cfi_def_cfa_offset 24
 673              		.cfi_offset 3, -24
 674              		.cfi_offset 4, -20
 675              		.cfi_offset 5, -16
 676              		.cfi_offset 6, -12
 677              		.cfi_offset 7, -8
 678              		.cfi_offset 14, -4
 679              		.loc 1 349 0
 680 0002 0400     		movs	r4, r0
 681 0004 0F00     		movs	r7, r1
 682 0006 1600     		movs	r6, r2
 683              		.loc 1 353 0
 684 0008 0028     		cmp	r0, #0
ARM GAS  /var/folders/t8/16hdwfmd2fg_d3q6dgx6bpmw0000gn/T//ccgTUZMA.s 			page 13


 685 000a 20D0     		beq	.L95
 686              	.L81:
 687              	.LVL69:
 688              		.loc 1 357 0
 689 000c 2500     		movs	r5, r4
 690 000e 1035     		adds	r5, r5, #16
 691 0010 2800     		movs	r0, r5
 692 0012 FFF7FEFF 		bl	chMtxLock
 693              	.LVL70:
 694              		.loc 1 362 0
 695 0016 A368     		ldr	r3, [r4, #8]
 696              		.loc 1 359 0
 697 0018 0020     		movs	r0, #0
 698              		.loc 1 358 0
 699 001a 0021     		movs	r1, #0
 700              		.loc 1 360 0
 701 001c 0024     		movs	r4, #0
 702              	.LVL71:
 703              		.loc 1 362 0
 704 001e 002B     		cmp	r3, #0
 705 0020 08D0     		beq	.L82
 706              	.LVL72:
 707              	.L84:
 708              	.LBB11:
 709              		.loc 1 363 0
 710 0022 5A68     		ldr	r2, [r3, #4]
 711              	.LVL73:
 712              		.loc 1 366 0
 713 0024 0134     		adds	r4, r4, #1
 714              	.LVL74:
 715              		.loc 1 367 0
 716 0026 8918     		adds	r1, r1, r2
 717              	.LVL75:
 718 0028 9042     		cmp	r0, r2
 719 002a 00D2     		bcs	.L83
 720 002c 1000     		movs	r0, r2
 721              	.LVL76:
 722              	.L83:
 723              	.LBE11:
 724              		.loc 1 362 0
 725 002e 1B68     		ldr	r3, [r3]
 726              	.LVL77:
 727 0030 002B     		cmp	r3, #0
 728 0032 F6D1     		bne	.L84
 729              	.LVL78:
 730              	.L82:
 731              		.loc 1 376 0
 732 0034 002F     		cmp	r7, #0
 733 0036 01D0     		beq	.L85
 734              		.loc 1 377 0
 735 0038 C900     		lsls	r1, r1, #3
 736 003a 3960     		str	r1, [r7]
 737              	.L85:
 738              		.loc 1 381 0
 739 003c 002E     		cmp	r6, #0
 740 003e 01D0     		beq	.L86
 741              		.loc 1 382 0
ARM GAS  /var/folders/t8/16hdwfmd2fg_d3q6dgx6bpmw0000gn/T//ccgTUZMA.s 			page 14


 742 0040 C000     		lsls	r0, r0, #3
 743 0042 3060     		str	r0, [r6]
 744              	.L86:
 745              		.loc 1 384 0
 746 0044 2800     		movs	r0, r5
 747 0046 FFF7FEFF 		bl	chMtxUnlock
 748              	.LVL79:
 749              		.loc 1 387 0
 750              		@ sp needed
 751 004a 2000     		movs	r0, r4
 752              	.LVL80:
 753              	.LVL81:
 754              	.LVL82:
 755 004c F8BD     		pop	{r3, r4, r5, r6, r7, pc}
 756              	.LVL83:
 757              	.L95:
 758              		.loc 1 354 0
 759 004e 014C     		ldr	r4, .L96
 760 0050 DCE7     		b	.L81
 761              	.L97:
 762 0052 C046     		.align	2
 763              	.L96:
 764 0054 00000000 		.word	.LANCHOR0
 765              		.cfi_endproc
 766              	.LFE142:
 767              		.size	chHeapStatus, .-chHeapStatus
 768              		.section	.bss.default_heap,"aw",%nobits
 769              		.align	3
 770              		.set	.LANCHOR0,. + 0
 771              		.type	default_heap, %object
 772              		.size	default_heap, 32
 773              	default_heap:
 774 0000 00000000 		.space	32
 774      00000000 
 774      00000000 
 774      00000000 
 774      00000000 
 775              		.section	.rodata.__func__.5724,"a",%progbits
 776              		.align	2
 777              		.set	.LANCHOR1,. + 0
 778              		.type	__func__.5724, %object
 779              		.size	__func__.5724, 17
 780              	__func__.5724:
 781 0000 63684865 		.ascii	"chHeapObjectInit\000"
 781      61704F62 
 781      6A656374 
 781      496E6974 
 781      00
 782              		.section	.rodata.__func__.5733,"a",%progbits
 783              		.align	2
 784              		.set	.LANCHOR2,. + 0
 785              		.type	__func__.5733, %object
 786              		.size	__func__.5733, 19
 787              	__func__.5733:
 788 0000 63684865 		.ascii	"chHeapAllocAligned\000"
 788      6170416C 
 788      6C6F6341 
ARM GAS  /var/folders/t8/16hdwfmd2fg_d3q6dgx6bpmw0000gn/T//ccgTUZMA.s 			page 15


 788      6C69676E 
 788      656400
 789              		.section	.rodata.__func__.5747,"a",%progbits
 790              		.align	2
 791              		.set	.LANCHOR3,. + 0
 792              		.type	__func__.5747, %object
 793              		.size	__func__.5747, 11
 794              	__func__.5747:
 795 0000 63684865 		.ascii	"chHeapFree\000"
 795      61704672 
 795      656500
 796              		.text
 797              	.Letext0:
 798              		.file 2 "/usr/local/Caskroom/gcc-arm-embedded/7-2017-q4-major/gcc-arm-none-eabi-7-2017-q4-major/li
 799              		.file 3 "/usr/local/Caskroom/gcc-arm-embedded/7-2017-q4-major/gcc-arm-none-eabi-7-2017-q4-major/ar
 800              		.file 4 "/usr/local/Caskroom/gcc-arm-embedded/7-2017-q4-major/gcc-arm-none-eabi-7-2017-q4-major/ar
 801              		.file 5 "../../tmk_core/tool/chibios/ChibiOS/os/common/ports/ARMCMx/compilers/GCC/chtypes.h"
 802              		.file 6 "../../tmk_core/tool/chibios/ChibiOS/os/rt/include/chsystypes.h"
 803              		.file 7 "../../tmk_core/tool/chibios/ChibiOS/os/rt/include/chschd.h"
 804              		.file 8 "../../tmk_core/tool/chibios/ChibiOS/os/common/ports/ARMCMx/chcore.h"
 805              		.file 9 "../../tmk_core/tool/chibios/ChibiOS/os/common/ports/ARMCMx/chcore_v6m.h"
 806              		.file 10 "../../tmk_core/tool/chibios/ChibiOS/os/rt/include/chsem.h"
 807              		.file 11 "../../tmk_core/tool/chibios/ChibiOS/os/rt/include/chmtx.h"
 808              		.file 12 "../../tmk_core/tool/chibios/ChibiOS/os/rt/include/chregistry.h"
 809              		.file 13 "../../tmk_core/tool/chibios/ChibiOS/os/rt/include/chsys.h"
 810              		.file 14 "../../tmk_core/tool/chibios/ChibiOS/os/common/oslib/include/chmemcore.h"
 811              		.file 15 "../../tmk_core/tool/chibios/ChibiOS/os/common/oslib/include/chheap.h"
 812              		.section	.debug_info,"",%progbits
 813              	.Ldebug_info0:
 814 0000 150C0000 		.4byte	0xc15
 815 0004 0400     		.2byte	0x4
 816 0006 00000000 		.4byte	.Ldebug_abbrev0
 817 000a 04       		.byte	0x4
 818 000b 01       		.uleb128 0x1
 819 000c 19000000 		.4byte	.LASF141
 820 0010 0C       		.byte	0xc
 821 0011 90060000 		.4byte	.LASF142
 822 0015 34040000 		.4byte	.LASF143
 823 0019 48000000 		.4byte	.Ldebug_ranges0+0x48
 824 001d 00000000 		.4byte	0
 825 0021 00000000 		.4byte	.Ldebug_line0
 826 0025 02       		.uleb128 0x2
 827 0026 04       		.byte	0x4
 828 0027 05       		.byte	0x5
 829 0028 696E7400 		.ascii	"int\000"
 830 002c 03       		.uleb128 0x3
 831 002d 1C030000 		.4byte	.LASF2
 832 0031 02       		.byte	0x2
 833 0032 D8       		.byte	0xd8
 834 0033 37000000 		.4byte	0x37
 835 0037 04       		.uleb128 0x4
 836 0038 04       		.byte	0x4
 837 0039 07       		.byte	0x7
 838 003a 49010000 		.4byte	.LASF0
 839 003e 04       		.uleb128 0x4
 840 003f 01       		.byte	0x1
 841 0040 06       		.byte	0x6
ARM GAS  /var/folders/t8/16hdwfmd2fg_d3q6dgx6bpmw0000gn/T//ccgTUZMA.s 			page 16


 842 0041 3D060000 		.4byte	.LASF1
 843 0045 03       		.uleb128 0x3
 844 0046 61050000 		.4byte	.LASF3
 845 004a 03       		.byte	0x3
 846 004b 2B       		.byte	0x2b
 847 004c 50000000 		.4byte	0x50
 848 0050 04       		.uleb128 0x4
 849 0051 01       		.byte	0x1
 850 0052 08       		.byte	0x8
 851 0053 DE050000 		.4byte	.LASF4
 852 0057 04       		.uleb128 0x4
 853 0058 02       		.byte	0x2
 854 0059 05       		.byte	0x5
 855 005a 05050000 		.4byte	.LASF5
 856 005e 03       		.uleb128 0x3
 857 005f 8C020000 		.4byte	.LASF6
 858 0063 03       		.byte	0x3
 859 0064 39       		.byte	0x39
 860 0065 69000000 		.4byte	0x69
 861 0069 04       		.uleb128 0x4
 862 006a 02       		.byte	0x2
 863 006b 07       		.byte	0x7
 864 006c 4F060000 		.4byte	.LASF7
 865 0070 03       		.uleb128 0x3
 866 0071 72010000 		.4byte	.LASF8
 867 0075 03       		.byte	0x3
 868 0076 4D       		.byte	0x4d
 869 0077 7B000000 		.4byte	0x7b
 870 007b 04       		.uleb128 0x4
 871 007c 04       		.byte	0x4
 872 007d 05       		.byte	0x5
 873 007e 1B050000 		.4byte	.LASF9
 874 0082 03       		.uleb128 0x3
 875 0083 EC050000 		.4byte	.LASF10
 876 0087 03       		.byte	0x3
 877 0088 4F       		.byte	0x4f
 878 0089 8D000000 		.4byte	0x8d
 879 008d 04       		.uleb128 0x4
 880 008e 04       		.byte	0x4
 881 008f 07       		.byte	0x7
 882 0090 9C050000 		.4byte	.LASF11
 883 0094 04       		.uleb128 0x4
 884 0095 08       		.byte	0x8
 885 0096 05       		.byte	0x5
 886 0097 DF030000 		.4byte	.LASF12
 887 009b 03       		.uleb128 0x3
 888 009c 43030000 		.4byte	.LASF13
 889 00a0 03       		.byte	0x3
 890 00a1 69       		.byte	0x69
 891 00a2 A6000000 		.4byte	0xa6
 892 00a6 04       		.uleb128 0x4
 893 00a7 08       		.byte	0x8
 894 00a8 07       		.byte	0x7
 895 00a9 65020000 		.4byte	.LASF14
 896 00ad 03       		.uleb128 0x3
 897 00ae A6030000 		.4byte	.LASF15
 898 00b2 04       		.byte	0x4
ARM GAS  /var/folders/t8/16hdwfmd2fg_d3q6dgx6bpmw0000gn/T//ccgTUZMA.s 			page 17


 899 00b3 18       		.byte	0x18
 900 00b4 45000000 		.4byte	0x45
 901 00b8 03       		.uleb128 0x3
 902 00b9 C6040000 		.4byte	.LASF16
 903 00bd 04       		.byte	0x4
 904 00be 24       		.byte	0x24
 905 00bf 5E000000 		.4byte	0x5e
 906 00c3 03       		.uleb128 0x3
 907 00c4 C1050000 		.4byte	.LASF17
 908 00c8 04       		.byte	0x4
 909 00c9 2C       		.byte	0x2c
 910 00ca 70000000 		.4byte	0x70
 911 00ce 03       		.uleb128 0x3
 912 00cf 0A020000 		.4byte	.LASF18
 913 00d3 04       		.byte	0x4
 914 00d4 30       		.byte	0x30
 915 00d5 82000000 		.4byte	0x82
 916 00d9 03       		.uleb128 0x3
 917 00da 52050000 		.4byte	.LASF19
 918 00de 04       		.byte	0x4
 919 00df 3C       		.byte	0x3c
 920 00e0 9B000000 		.4byte	0x9b
 921 00e4 03       		.uleb128 0x3
 922 00e5 9A040000 		.4byte	.LASF20
 923 00e9 05       		.byte	0x5
 924 00ea 3C       		.byte	0x3c
 925 00eb AD000000 		.4byte	0xad
 926 00ef 03       		.uleb128 0x3
 927 00f0 9D030000 		.4byte	.LASF21
 928 00f4 05       		.byte	0x5
 929 00f5 3D       		.byte	0x3d
 930 00f6 AD000000 		.4byte	0xad
 931 00fa 03       		.uleb128 0x3
 932 00fb 94050000 		.4byte	.LASF22
 933 00ff 05       		.byte	0x5
 934 0100 3E       		.byte	0x3e
 935 0101 AD000000 		.4byte	0xad
 936 0105 03       		.uleb128 0x3
 937 0106 2A040000 		.4byte	.LASF23
 938 010a 05       		.byte	0x5
 939 010b 3F       		.byte	0x3f
 940 010c AD000000 		.4byte	0xad
 941 0110 03       		.uleb128 0x3
 942 0111 4C020000 		.4byte	.LASF24
 943 0115 05       		.byte	0x5
 944 0116 40       		.byte	0x40
 945 0117 CE000000 		.4byte	0xce
 946 011b 03       		.uleb128 0x3
 947 011c 07040000 		.4byte	.LASF25
 948 0120 05       		.byte	0x5
 949 0121 41       		.byte	0x41
 950 0122 C3000000 		.4byte	0xc3
 951 0126 03       		.uleb128 0x3
 952 0127 28020000 		.4byte	.LASF26
 953 012b 05       		.byte	0x5
 954 012c 43       		.byte	0x43
 955 012d CE000000 		.4byte	0xce
ARM GAS  /var/folders/t8/16hdwfmd2fg_d3q6dgx6bpmw0000gn/T//ccgTUZMA.s 			page 18


 956 0131 03       		.uleb128 0x3
 957 0132 97020000 		.4byte	.LASF27
 958 0136 05       		.byte	0x5
 959 0137 45       		.byte	0x45
 960 0138 C3000000 		.4byte	0xc3
 961 013c 03       		.uleb128 0x3
 962 013d 22010000 		.4byte	.LASF28
 963 0141 06       		.byte	0x6
 964 0142 33       		.byte	0x33
 965 0143 CE000000 		.4byte	0xce
 966 0147 05       		.uleb128 0x5
 967 0148 3C010000 		.4byte	0x13c
 968 014c 03       		.uleb128 0x3
 969 014d EC020000 		.4byte	.LASF29
 970 0151 06       		.byte	0x6
 971 0152 3F       		.byte	0x3f
 972 0153 57010000 		.4byte	0x157
 973 0157 06       		.uleb128 0x6
 974 0158 B7030000 		.4byte	.LASF48
 975 015c 44       		.byte	0x44
 976 015d 07       		.byte	0x7
 977 015e 9A       		.byte	0x9a
 978 015f 41020000 		.4byte	0x241
 979 0163 07       		.uleb128 0x7
 980 0164 BB050000 		.4byte	.LASF30
 981 0168 07       		.byte	0x7
 982 0169 9B       		.byte	0x9b
 983 016a 76020000 		.4byte	0x276
 984 016e 00       		.byte	0
 985 016f 07       		.uleb128 0x7
 986 0170 67030000 		.4byte	.LASF31
 987 0174 07       		.byte	0x7
 988 0175 9C       		.byte	0x9c
 989 0176 10010000 		.4byte	0x110
 990 017a 08       		.byte	0x8
 991 017b 08       		.uleb128 0x8
 992 017c 63747800 		.ascii	"ctx\000"
 993 0180 07       		.byte	0x7
 994 0181 9D       		.byte	0x9d
 995 0182 75040000 		.4byte	0x475
 996 0186 0C       		.byte	0xc
 997 0187 07       		.uleb128 0x7
 998 0188 D8050000 		.4byte	.LASF32
 999 018c 07       		.byte	0x7
 1000 018d 9F       		.byte	0x9f
 1001 018e 4C020000 		.4byte	0x24c
 1002 0192 10       		.byte	0x10
 1003 0193 07       		.uleb128 0x7
 1004 0194 D7060000 		.4byte	.LASF33
 1005 0198 07       		.byte	0x7
 1006 0199 A0       		.byte	0xa0
 1007 019a 4C020000 		.4byte	0x24c
 1008 019e 14       		.byte	0x14
 1009 019f 07       		.uleb128 0x7
 1010 01a0 78050000 		.4byte	.LASF34
 1011 01a4 07       		.byte	0x7
 1012 01a5 A7       		.byte	0xa7
ARM GAS  /var/folders/t8/16hdwfmd2fg_d3q6dgx6bpmw0000gn/T//ccgTUZMA.s 			page 19


 1013 01a6 D0050000 		.4byte	0x5d0
 1014 01aa 18       		.byte	0x18
 1015 01ab 07       		.uleb128 0x7
 1016 01ac 84030000 		.4byte	.LASF35
 1017 01b0 07       		.byte	0x7
 1018 01b1 B0       		.byte	0xb0
 1019 01b2 E7050000 		.4byte	0x5e7
 1020 01b6 1C       		.byte	0x1c
 1021 01b7 07       		.uleb128 0x7
 1022 01b8 15060000 		.4byte	.LASF36
 1023 01bc 07       		.byte	0x7
 1024 01bd B5       		.byte	0xb5
 1025 01be EF000000 		.4byte	0xef
 1026 01c2 20       		.byte	0x20
 1027 01c3 07       		.uleb128 0x7
 1028 01c4 1C010000 		.4byte	.LASF37
 1029 01c8 07       		.byte	0x7
 1030 01c9 B9       		.byte	0xb9
 1031 01ca E4000000 		.4byte	0xe4
 1032 01ce 21       		.byte	0x21
 1033 01cf 07       		.uleb128 0x7
 1034 01d0 7C010000 		.4byte	.LASF38
 1035 01d4 07       		.byte	0x7
 1036 01d5 BE       		.byte	0xbe
 1037 01d6 FA000000 		.4byte	0xfa
 1038 01da 22       		.byte	0x22
 1039 01db 07       		.uleb128 0x7
 1040 01dc 37050000 		.4byte	.LASF39
 1041 01e0 07       		.byte	0x7
 1042 01e1 C4       		.byte	0xc4
 1043 01e2 05010000 		.4byte	0x105
 1044 01e6 23       		.byte	0x23
 1045 01e7 09       		.uleb128 0x9
 1046 01e8 7500     		.ascii	"u\000"
 1047 01ea 07       		.byte	0x7
 1048 01eb 0F01     		.2byte	0x10f
 1049 01ed 05050000 		.4byte	0x505
 1050 01f1 24       		.byte	0x24
 1051 01f2 0A       		.uleb128 0xa
 1052 01f3 F7050000 		.4byte	.LASF40
 1053 01f7 07       		.byte	0x7
 1054 01f8 1401     		.2byte	0x114
 1055 01fa 52020000 		.4byte	0x252
 1056 01fe 28       		.byte	0x28
 1057 01ff 0A       		.uleb128 0xa
 1058 0200 AE030000 		.4byte	.LASF41
 1059 0204 07       		.byte	0x7
 1060 0205 1A01     		.2byte	0x11a
 1061 0207 76020000 		.4byte	0x276
 1062 020b 2C       		.byte	0x2c
 1063 020c 0A       		.uleb128 0xa
 1064 020d 40010000 		.4byte	.LASF42
 1065 0211 07       		.byte	0x7
 1066 0212 2001     		.2byte	0x120
 1067 0214 26010000 		.4byte	0x126
 1068 0218 34       		.byte	0x34
 1069 0219 0A       		.uleb128 0xa
ARM GAS  /var/folders/t8/16hdwfmd2fg_d3q6dgx6bpmw0000gn/T//ccgTUZMA.s 			page 20


 1070 021a C8020000 		.4byte	.LASF43
 1071 021e 07       		.byte	0x7
 1072 021f 2701     		.2byte	0x127
 1073 0221 CA050000 		.4byte	0x5ca
 1074 0225 38       		.byte	0x38
 1075 0226 0A       		.uleb128 0xa
 1076 0227 2C010000 		.4byte	.LASF44
 1077 022b 07       		.byte	0x7
 1078 022c 2B01     		.2byte	0x12b
 1079 022e 10010000 		.4byte	0x110
 1080 0232 3C       		.byte	0x3c
 1081 0233 0A       		.uleb128 0xa
 1082 0234 F4060000 		.4byte	.LASF45
 1083 0238 07       		.byte	0x7
 1084 0239 3201     		.2byte	0x132
 1085 023b 29030000 		.4byte	0x329
 1086 023f 40       		.byte	0x40
 1087 0240 00       		.byte	0
 1088 0241 03       		.uleb128 0x3
 1089 0242 71030000 		.4byte	.LASF46
 1090 0246 06       		.byte	0x6
 1091 0247 44       		.byte	0x44
 1092 0248 4C020000 		.4byte	0x24c
 1093 024c 0B       		.uleb128 0xb
 1094 024d 04       		.byte	0x4
 1095 024e 4C010000 		.4byte	0x14c
 1096 0252 03       		.uleb128 0x3
 1097 0253 63010000 		.4byte	.LASF47
 1098 0257 06       		.byte	0x6
 1099 0258 49       		.byte	0x49
 1100 0259 5D020000 		.4byte	0x25d
 1101 025d 06       		.uleb128 0x6
 1102 025e 00000000 		.4byte	.LASF49
 1103 0262 04       		.byte	0x4
 1104 0263 07       		.byte	0x7
 1105 0264 88       		.byte	0x88
 1106 0265 76020000 		.4byte	0x276
 1107 0269 07       		.uleb128 0x7
 1108 026a 56010000 		.4byte	.LASF50
 1109 026e 07       		.byte	0x7
 1110 026f 89       		.byte	0x89
 1111 0270 4C020000 		.4byte	0x24c
 1112 0274 00       		.byte	0
 1113 0275 00       		.byte	0
 1114 0276 03       		.uleb128 0x3
 1115 0277 B8020000 		.4byte	.LASF51
 1116 027b 06       		.byte	0x6
 1117 027c 50       		.byte	0x50
 1118 027d 81020000 		.4byte	0x281
 1119 0281 06       		.uleb128 0x6
 1120 0282 C9010000 		.4byte	.LASF52
 1121 0286 08       		.byte	0x8
 1122 0287 07       		.byte	0x7
 1123 0288 8F       		.byte	0x8f
 1124 0289 A6020000 		.4byte	0x2a6
 1125 028d 07       		.uleb128 0x7
 1126 028e 56010000 		.4byte	.LASF50
ARM GAS  /var/folders/t8/16hdwfmd2fg_d3q6dgx6bpmw0000gn/T//ccgTUZMA.s 			page 21


 1127 0292 07       		.byte	0x7
 1128 0293 90       		.byte	0x90
 1129 0294 4C020000 		.4byte	0x24c
 1130 0298 00       		.byte	0
 1131 0299 07       		.uleb128 0x7
 1132 029a C4010000 		.4byte	.LASF53
 1133 029e 07       		.byte	0x7
 1134 029f 91       		.byte	0x91
 1135 02a0 4C020000 		.4byte	0x24c
 1136 02a4 04       		.byte	0x4
 1137 02a5 00       		.byte	0
 1138 02a6 03       		.uleb128 0x3
 1139 02a7 AE050000 		.4byte	.LASF54
 1140 02ab 06       		.byte	0x6
 1141 02ac 57       		.byte	0x57
 1142 02ad B1020000 		.4byte	0x2b1
 1143 02b1 0C       		.uleb128 0xc
 1144 02b2 AA010000 		.4byte	.LASF55
 1145 02b6 1C       		.byte	0x1c
 1146 02b7 07       		.byte	0x7
 1147 02b8 6A01     		.2byte	0x16a
 1148 02ba 0D030000 		.4byte	0x30d
 1149 02be 0A       		.uleb128 0xa
 1150 02bf BB050000 		.4byte	.LASF30
 1151 02c3 07       		.byte	0x7
 1152 02c4 6B01     		.2byte	0x16b
 1153 02c6 76020000 		.4byte	0x276
 1154 02ca 00       		.byte	0
 1155 02cb 0A       		.uleb128 0xa
 1156 02cc 67030000 		.4byte	.LASF31
 1157 02d0 07       		.byte	0x7
 1158 02d1 6C01     		.2byte	0x16c
 1159 02d3 10010000 		.4byte	0x110
 1160 02d7 08       		.byte	0x8
 1161 02d8 09       		.uleb128 0x9
 1162 02d9 63747800 		.ascii	"ctx\000"
 1163 02dd 07       		.byte	0x7
 1164 02de 6E01     		.2byte	0x16e
 1165 02e0 75040000 		.4byte	0x475
 1166 02e4 0C       		.byte	0xc
 1167 02e5 0A       		.uleb128 0xa
 1168 02e6 D8050000 		.4byte	.LASF32
 1169 02ea 07       		.byte	0x7
 1170 02eb 7101     		.2byte	0x171
 1171 02ed 4C020000 		.4byte	0x24c
 1172 02f1 10       		.byte	0x10
 1173 02f2 0A       		.uleb128 0xa
 1174 02f3 D7060000 		.4byte	.LASF33
 1175 02f7 07       		.byte	0x7
 1176 02f8 7201     		.2byte	0x172
 1177 02fa 4C020000 		.4byte	0x24c
 1178 02fe 14       		.byte	0x14
 1179 02ff 0A       		.uleb128 0xa
 1180 0300 76060000 		.4byte	.LASF56
 1181 0304 07       		.byte	0x7
 1182 0305 7501     		.2byte	0x175
 1183 0307 4C020000 		.4byte	0x24c
ARM GAS  /var/folders/t8/16hdwfmd2fg_d3q6dgx6bpmw0000gn/T//ccgTUZMA.s 			page 22


 1184 030b 18       		.byte	0x18
 1185 030c 00       		.byte	0
 1186 030d 03       		.uleb128 0x3
 1187 030e E4010000 		.4byte	.LASF57
 1188 0312 06       		.byte	0x6
 1189 0313 5C       		.byte	0x5c
 1190 0314 18030000 		.4byte	0x318
 1191 0318 0B       		.uleb128 0xb
 1192 0319 04       		.byte	0x4
 1193 031a 1E030000 		.4byte	0x31e
 1194 031e 0D       		.uleb128 0xd
 1195 031f 29030000 		.4byte	0x329
 1196 0323 0E       		.uleb128 0xe
 1197 0324 29030000 		.4byte	0x329
 1198 0328 00       		.byte	0
 1199 0329 0F       		.uleb128 0xf
 1200 032a 04       		.byte	0x4
 1201 032b 03       		.uleb128 0x3
 1202 032c 0D040000 		.4byte	.LASF58
 1203 0330 06       		.byte	0x6
 1204 0331 61       		.byte	0x61
 1205 0332 36030000 		.4byte	0x336
 1206 0336 0C       		.uleb128 0xc
 1207 0337 54020000 		.4byte	.LASF59
 1208 033b 14       		.byte	0x14
 1209 033c 07       		.byte	0x7
 1210 033d 4501     		.2byte	0x145
 1211 033f 85030000 		.4byte	0x385
 1212 0343 0A       		.uleb128 0xa
 1213 0344 56010000 		.4byte	.LASF50
 1214 0348 07       		.byte	0x7
 1215 0349 4601     		.2byte	0x146
 1216 034b ED050000 		.4byte	0x5ed
 1217 034f 00       		.byte	0
 1218 0350 0A       		.uleb128 0xa
 1219 0351 C4010000 		.4byte	.LASF53
 1220 0355 07       		.byte	0x7
 1221 0356 4701     		.2byte	0x147
 1222 0358 ED050000 		.4byte	0x5ed
 1223 035c 04       		.byte	0x4
 1224 035d 0A       		.uleb128 0xa
 1225 035e 49060000 		.4byte	.LASF60
 1226 0362 07       		.byte	0x7
 1227 0363 4801     		.2byte	0x148
 1228 0365 3C010000 		.4byte	0x13c
 1229 0369 08       		.byte	0x8
 1230 036a 0A       		.uleb128 0xa
 1231 036b B8010000 		.4byte	.LASF61
 1232 036f 07       		.byte	0x7
 1233 0370 4901     		.2byte	0x149
 1234 0372 0D030000 		.4byte	0x30d
 1235 0376 0C       		.byte	0xc
 1236 0377 09       		.uleb128 0x9
 1237 0378 70617200 		.ascii	"par\000"
 1238 037c 07       		.byte	0x7
 1239 037d 4B01     		.2byte	0x14b
 1240 037f 29030000 		.4byte	0x329
ARM GAS  /var/folders/t8/16hdwfmd2fg_d3q6dgx6bpmw0000gn/T//ccgTUZMA.s 			page 23


 1241 0383 10       		.byte	0x10
 1242 0384 00       		.byte	0
 1243 0385 03       		.uleb128 0x3
 1244 0386 FF050000 		.4byte	.LASF62
 1245 038a 06       		.byte	0x6
 1246 038b 66       		.byte	0x66
 1247 038c 90030000 		.4byte	0x390
 1248 0390 0C       		.uleb128 0xc
 1249 0391 D0020000 		.4byte	.LASF63
 1250 0395 10       		.byte	0x10
 1251 0396 07       		.byte	0x7
 1252 0397 5501     		.2byte	0x155
 1253 0399 D2030000 		.4byte	0x3d2
 1254 039d 0A       		.uleb128 0xa
 1255 039e 56010000 		.4byte	.LASF50
 1256 03a2 07       		.byte	0x7
 1257 03a3 5601     		.2byte	0x156
 1258 03a5 ED050000 		.4byte	0x5ed
 1259 03a9 00       		.byte	0
 1260 03aa 0A       		.uleb128 0xa
 1261 03ab C4010000 		.4byte	.LASF53
 1262 03af 07       		.byte	0x7
 1263 03b0 5801     		.2byte	0x158
 1264 03b2 ED050000 		.4byte	0x5ed
 1265 03b6 04       		.byte	0x4
 1266 03b7 0A       		.uleb128 0xa
 1267 03b8 49060000 		.4byte	.LASF60
 1268 03bc 07       		.byte	0x7
 1269 03bd 5A01     		.2byte	0x15a
 1270 03bf 3C010000 		.4byte	0x13c
 1271 03c3 08       		.byte	0x8
 1272 03c4 0A       		.uleb128 0xa
 1273 03c5 A2040000 		.4byte	.LASF64
 1274 03c9 07       		.byte	0x7
 1275 03ca 5C01     		.2byte	0x15c
 1276 03cc 47010000 		.4byte	0x147
 1277 03d0 0C       		.byte	0xc
 1278 03d1 00       		.byte	0
 1279 03d2 03       		.uleb128 0x3
 1280 03d3 D0030000 		.4byte	.LASF65
 1281 03d7 06       		.byte	0x6
 1282 03d8 6B       		.byte	0x6b
 1283 03d9 DD030000 		.4byte	0x3dd
 1284 03dd 0C       		.uleb128 0xc
 1285 03de ED010000 		.4byte	.LASF66
 1286 03e2 0C       		.byte	0xc
 1287 03e3 07       		.byte	0x7
 1288 03e4 7C01     		.2byte	0x17c
 1289 03e6 12040000 		.4byte	0x412
 1290 03ea 0A       		.uleb128 0xa
 1291 03eb 90040000 		.4byte	.LASF67
 1292 03ef 07       		.byte	0x7
 1293 03f0 8401     		.2byte	0x184
 1294 03f2 D6050000 		.4byte	0x5d6
 1295 03f6 00       		.byte	0
 1296 03f7 0A       		.uleb128 0xa
 1297 03f8 AA020000 		.4byte	.LASF68
ARM GAS  /var/folders/t8/16hdwfmd2fg_d3q6dgx6bpmw0000gn/T//ccgTUZMA.s 			page 24


 1298 03fc 07       		.byte	0x7
 1299 03fd 8901     		.2byte	0x189
 1300 03ff 31010000 		.4byte	0x131
 1301 0403 04       		.byte	0x4
 1302 0404 0A       		.uleb128 0xa
 1303 0405 F5040000 		.4byte	.LASF69
 1304 0409 07       		.byte	0x7
 1305 040a 8D01     		.2byte	0x18d
 1306 040c 31010000 		.4byte	0x131
 1307 0410 08       		.byte	0x8
 1308 0411 00       		.byte	0
 1309 0412 03       		.uleb128 0x3
 1310 0413 25060000 		.4byte	.LASF70
 1311 0417 06       		.byte	0x6
 1312 0418 70       		.byte	0x70
 1313 0419 1D040000 		.4byte	0x41d
 1314 041d 0C       		.uleb128 0xc
 1315 041e 3F050000 		.4byte	.LASF71
 1316 0422 7C       		.byte	0x7c
 1317 0423 07       		.byte	0x7
 1318 0424 9C01     		.2byte	0x19c
 1319 0426 5F040000 		.4byte	0x45f
 1320 042a 0A       		.uleb128 0xa
 1321 042b 5B050000 		.4byte	.LASF72
 1322 042f 07       		.byte	0x7
 1323 0430 A001     		.2byte	0x1a0
 1324 0432 A6020000 		.4byte	0x2a6
 1325 0436 00       		.byte	0
 1326 0437 0A       		.uleb128 0xa
 1327 0438 96010000 		.4byte	.LASF73
 1328 043c 07       		.byte	0x7
 1329 043d A401     		.2byte	0x1a4
 1330 043f 85030000 		.4byte	0x385
 1331 0443 1C       		.byte	0x1c
 1332 0444 09       		.uleb128 0x9
 1333 0445 64626700 		.ascii	"dbg\000"
 1334 0449 07       		.byte	0x7
 1335 044a A801     		.2byte	0x1a8
 1336 044c D2030000 		.4byte	0x3d2
 1337 0450 2C       		.byte	0x2c
 1338 0451 0A       		.uleb128 0xa
 1339 0452 AA040000 		.4byte	.LASF74
 1340 0456 07       		.byte	0x7
 1341 0457 AC01     		.2byte	0x1ac
 1342 0459 4C010000 		.4byte	0x14c
 1343 045d 38       		.byte	0x38
 1344 045e 00       		.byte	0
 1345 045f 03       		.uleb128 0x3
 1346 0460 13010000 		.4byte	.LASF75
 1347 0464 08       		.byte	0x8
 1348 0465 65       		.byte	0x65
 1349 0466 29030000 		.4byte	0x329
 1350 046a 03       		.uleb128 0x3
 1351 046b 62060000 		.4byte	.LASF76
 1352 046f 08       		.byte	0x8
 1353 0470 6D       		.byte	0x6d
 1354 0471 D9000000 		.4byte	0xd9
ARM GAS  /var/folders/t8/16hdwfmd2fg_d3q6dgx6bpmw0000gn/T//ccgTUZMA.s 			page 25


 1355 0475 06       		.uleb128 0x6
 1356 0476 9D010000 		.4byte	.LASF77
 1357 047a 04       		.byte	0x4
 1358 047b 08       		.byte	0x8
 1359 047c 89       		.byte	0x89
 1360 047d 8D040000 		.4byte	0x48d
 1361 0481 08       		.uleb128 0x8
 1362 0482 737000   		.ascii	"sp\000"
 1363 0485 08       		.byte	0x8
 1364 0486 8A       		.byte	0x8a
 1365 0487 FF040000 		.4byte	0x4ff
 1366 048b 00       		.byte	0
 1367 048c 00       		.byte	0
 1368 048d 06       		.uleb128 0x6
 1369 048e 2B050000 		.4byte	.LASF78
 1370 0492 24       		.byte	0x24
 1371 0493 09       		.byte	0x9
 1372 0494 C3       		.byte	0xc3
 1373 0495 FF040000 		.4byte	0x4ff
 1374 0499 08       		.uleb128 0x8
 1375 049a 723800   		.ascii	"r8\000"
 1376 049d 09       		.byte	0x9
 1377 049e C4       		.byte	0xc4
 1378 049f 5F040000 		.4byte	0x45f
 1379 04a3 00       		.byte	0
 1380 04a4 08       		.uleb128 0x8
 1381 04a5 723900   		.ascii	"r9\000"
 1382 04a8 09       		.byte	0x9
 1383 04a9 C5       		.byte	0xc5
 1384 04aa 5F040000 		.4byte	0x45f
 1385 04ae 04       		.byte	0x4
 1386 04af 08       		.uleb128 0x8
 1387 04b0 72313000 		.ascii	"r10\000"
 1388 04b4 09       		.byte	0x9
 1389 04b5 C6       		.byte	0xc6
 1390 04b6 5F040000 		.4byte	0x45f
 1391 04ba 08       		.byte	0x8
 1392 04bb 08       		.uleb128 0x8
 1393 04bc 72313100 		.ascii	"r11\000"
 1394 04c0 09       		.byte	0x9
 1395 04c1 C7       		.byte	0xc7
 1396 04c2 5F040000 		.4byte	0x45f
 1397 04c6 0C       		.byte	0xc
 1398 04c7 08       		.uleb128 0x8
 1399 04c8 723400   		.ascii	"r4\000"
 1400 04cb 09       		.byte	0x9
 1401 04cc C8       		.byte	0xc8
 1402 04cd 5F040000 		.4byte	0x45f
 1403 04d1 10       		.byte	0x10
 1404 04d2 08       		.uleb128 0x8
 1405 04d3 723500   		.ascii	"r5\000"
 1406 04d6 09       		.byte	0x9
 1407 04d7 C9       		.byte	0xc9
 1408 04d8 5F040000 		.4byte	0x45f
 1409 04dc 14       		.byte	0x14
 1410 04dd 08       		.uleb128 0x8
 1411 04de 723600   		.ascii	"r6\000"
ARM GAS  /var/folders/t8/16hdwfmd2fg_d3q6dgx6bpmw0000gn/T//ccgTUZMA.s 			page 26


 1412 04e1 09       		.byte	0x9
 1413 04e2 CA       		.byte	0xca
 1414 04e3 5F040000 		.4byte	0x45f
 1415 04e7 18       		.byte	0x18
 1416 04e8 08       		.uleb128 0x8
 1417 04e9 723700   		.ascii	"r7\000"
 1418 04ec 09       		.byte	0x9
 1419 04ed CB       		.byte	0xcb
 1420 04ee 5F040000 		.4byte	0x45f
 1421 04f2 1C       		.byte	0x1c
 1422 04f3 08       		.uleb128 0x8
 1423 04f4 6C7200   		.ascii	"lr\000"
 1424 04f7 09       		.byte	0x9
 1425 04f8 CC       		.byte	0xcc
 1426 04f9 5F040000 		.4byte	0x45f
 1427 04fd 20       		.byte	0x20
 1428 04fe 00       		.byte	0
 1429 04ff 0B       		.uleb128 0xb
 1430 0500 04       		.byte	0x4
 1431 0501 8D040000 		.4byte	0x48d
 1432 0505 10       		.uleb128 0x10
 1433 0506 04       		.byte	0x4
 1434 0507 07       		.byte	0x7
 1435 0508 D2       		.byte	0xd2
 1436 0509 68050000 		.4byte	0x568
 1437 050d 11       		.uleb128 0x11
 1438 050e 23030000 		.4byte	.LASF79
 1439 0512 07       		.byte	0x7
 1440 0513 D9       		.byte	0xd9
 1441 0514 1B010000 		.4byte	0x11b
 1442 0518 11       		.uleb128 0x11
 1443 0519 DD060000 		.4byte	.LASF80
 1444 051d 07       		.byte	0x7
 1445 051e E0       		.byte	0xe0
 1446 051f 1B010000 		.4byte	0x11b
 1447 0523 11       		.uleb128 0x11
 1448 0524 8F010000 		.4byte	.LASF81
 1449 0528 07       		.byte	0x7
 1450 0529 E7       		.byte	0xe7
 1451 052a 29030000 		.4byte	0x329
 1452 052e 11       		.uleb128 0x11
 1453 052f 31060000 		.4byte	.LASF82
 1454 0533 07       		.byte	0x7
 1455 0534 EE       		.byte	0xee
 1456 0535 68050000 		.4byte	0x568
 1457 0539 11       		.uleb128 0x11
 1458 053a 13020000 		.4byte	.LASF83
 1459 053e 07       		.byte	0x7
 1460 053f F3       		.byte	0xf3
 1461 0540 1B010000 		.4byte	0x11b
 1462 0544 11       		.uleb128 0x11
 1463 0545 C9050000 		.4byte	.LASF84
 1464 0549 07       		.byte	0x7
 1465 054a FC       		.byte	0xfc
 1466 054b 93050000 		.4byte	0x593
 1467 054f 12       		.uleb128 0x12
 1468 0550 02010000 		.4byte	.LASF85
ARM GAS  /var/folders/t8/16hdwfmd2fg_d3q6dgx6bpmw0000gn/T//ccgTUZMA.s 			page 27


 1469 0554 07       		.byte	0x7
 1470 0555 0501     		.2byte	0x105
 1471 0557 CA050000 		.4byte	0x5ca
 1472 055b 12       		.uleb128 0x12
 1473 055c BD010000 		.4byte	.LASF86
 1474 0560 07       		.byte	0x7
 1475 0561 0D01     		.2byte	0x10d
 1476 0563 26010000 		.4byte	0x126
 1477 0567 00       		.byte	0
 1478 0568 0B       		.uleb128 0xb
 1479 0569 04       		.byte	0x4
 1480 056a 41020000 		.4byte	0x241
 1481 056e 06       		.uleb128 0x6
 1482 056f 3F020000 		.4byte	.LASF87
 1483 0573 0C       		.byte	0xc
 1484 0574 0A       		.byte	0xa
 1485 0575 34       		.byte	0x34
 1486 0576 93050000 		.4byte	0x593
 1487 057a 07       		.uleb128 0x7
 1488 057b BB050000 		.4byte	.LASF30
 1489 057f 0A       		.byte	0xa
 1490 0580 35       		.byte	0x35
 1491 0581 76020000 		.4byte	0x276
 1492 0585 00       		.byte	0
 1493 0586 08       		.uleb128 0x8
 1494 0587 636E7400 		.ascii	"cnt\000"
 1495 058b 0A       		.byte	0xa
 1496 058c 37       		.byte	0x37
 1497 058d 31010000 		.4byte	0x131
 1498 0591 08       		.byte	0x8
 1499 0592 00       		.byte	0
 1500 0593 0B       		.uleb128 0xb
 1501 0594 04       		.byte	0x4
 1502 0595 6E050000 		.4byte	0x56e
 1503 0599 06       		.uleb128 0x6
 1504 059a 35030000 		.4byte	.LASF88
 1505 059e 10       		.byte	0x10
 1506 059f 0B       		.byte	0xb
 1507 05a0 39       		.byte	0x39
 1508 05a1 CA050000 		.4byte	0x5ca
 1509 05a5 07       		.uleb128 0x7
 1510 05a6 BB050000 		.4byte	.LASF30
 1511 05aa 0B       		.byte	0xb
 1512 05ab 3A       		.byte	0x3a
 1513 05ac 76020000 		.4byte	0x276
 1514 05b0 00       		.byte	0
 1515 05b1 07       		.uleb128 0x7
 1516 05b2 B2020000 		.4byte	.LASF89
 1517 05b6 0B       		.byte	0xb
 1518 05b7 3C       		.byte	0x3c
 1519 05b8 4C020000 		.4byte	0x24c
 1520 05bc 08       		.byte	0x8
 1521 05bd 07       		.uleb128 0x7
 1522 05be 56010000 		.4byte	.LASF50
 1523 05c2 0B       		.byte	0xb
 1524 05c3 3E       		.byte	0x3e
 1525 05c4 2C070000 		.4byte	0x72c
ARM GAS  /var/folders/t8/16hdwfmd2fg_d3q6dgx6bpmw0000gn/T//ccgTUZMA.s 			page 28


 1526 05c8 0C       		.byte	0xc
 1527 05c9 00       		.byte	0
 1528 05ca 0B       		.uleb128 0xb
 1529 05cb 04       		.byte	0x4
 1530 05cc 99050000 		.4byte	0x599
 1531 05d0 0B       		.uleb128 0xb
 1532 05d1 04       		.byte	0x4
 1533 05d2 E2050000 		.4byte	0x5e2
 1534 05d6 05       		.uleb128 0x5
 1535 05d7 D0050000 		.4byte	0x5d0
 1536 05db 04       		.uleb128 0x4
 1537 05dc 01       		.byte	0x1
 1538 05dd 08       		.byte	0x8
 1539 05de 6C030000 		.4byte	.LASF90
 1540 05e2 13       		.uleb128 0x13
 1541 05e3 DB050000 		.4byte	0x5db
 1542 05e7 0B       		.uleb128 0xb
 1543 05e8 04       		.byte	0x4
 1544 05e9 6A040000 		.4byte	0x46a
 1545 05ed 0B       		.uleb128 0xb
 1546 05ee 04       		.byte	0x4
 1547 05ef 2B030000 		.4byte	0x32b
 1548 05f3 14       		.uleb128 0x14
 1549 05f4 636800   		.ascii	"ch\000"
 1550 05f7 07       		.byte	0x7
 1551 05f8 D201     		.2byte	0x1d2
 1552 05fa 12040000 		.4byte	0x412
 1553 05fe 15       		.uleb128 0x15
 1554 05ff 6A040000 		.4byte	0x46a
 1555 0603 09060000 		.4byte	0x609
 1556 0607 16       		.uleb128 0x16
 1557 0608 00       		.byte	0
 1558 0609 17       		.uleb128 0x17
 1559 060a 8B030000 		.4byte	.LASF91
 1560 060e 0D       		.byte	0xd
 1561 060f 2B01     		.2byte	0x12b
 1562 0611 FE050000 		.4byte	0x5fe
 1563 0615 18       		.uleb128 0x18
 1564 0616 16       		.byte	0x16
 1565 0617 0C       		.byte	0xc
 1566 0618 34       		.byte	0x34
 1567 0619 F6060000 		.4byte	0x6f6
 1568 061d 07       		.uleb128 0x7
 1569 061e 7D050000 		.4byte	.LASF92
 1570 0622 0C       		.byte	0xc
 1571 0623 35       		.byte	0x35
 1572 0624 F6060000 		.4byte	0x6f6
 1573 0628 00       		.byte	0
 1574 0629 07       		.uleb128 0x7
 1575 062a ED030000 		.4byte	.LASF93
 1576 062e 0C       		.byte	0xc
 1577 062f 36       		.byte	0x36
 1578 0630 AD000000 		.4byte	0xad
 1579 0634 04       		.byte	0x4
 1580 0635 07       		.uleb128 0x7
 1581 0636 1D040000 		.4byte	.LASF94
 1582 063a 0C       		.byte	0xc
ARM GAS  /var/folders/t8/16hdwfmd2fg_d3q6dgx6bpmw0000gn/T//ccgTUZMA.s 			page 29


 1583 063b 37       		.byte	0x37
 1584 063c AD000000 		.4byte	0xad
 1585 0640 05       		.byte	0x5
 1586 0641 07       		.uleb128 0x7
 1587 0642 5B010000 		.4byte	.LASF95
 1588 0646 0C       		.byte	0xc
 1589 0647 38       		.byte	0x38
 1590 0648 B8000000 		.4byte	0xb8
 1591 064c 06       		.byte	0x6
 1592 064d 07       		.uleb128 0x7
 1593 064e 22040000 		.4byte	.LASF96
 1594 0652 0C       		.byte	0xc
 1595 0653 39       		.byte	0x39
 1596 0654 AD000000 		.4byte	0xad
 1597 0658 08       		.byte	0x8
 1598 0659 07       		.uleb128 0x7
 1599 065a 10000000 		.4byte	.LASF97
 1600 065e 0C       		.byte	0xc
 1601 065f 3A       		.byte	0x3a
 1602 0660 AD000000 		.4byte	0xad
 1603 0664 09       		.byte	0x9
 1604 0665 07       		.uleb128 0x7
 1605 0666 34020000 		.4byte	.LASF98
 1606 066a 0C       		.byte	0xc
 1607 066b 3B       		.byte	0x3b
 1608 066c AD000000 		.4byte	0xad
 1609 0670 0A       		.byte	0xa
 1610 0671 07       		.uleb128 0x7
 1611 0672 D9040000 		.4byte	.LASF99
 1612 0676 0C       		.byte	0xc
 1613 0677 3C       		.byte	0x3c
 1614 0678 AD000000 		.4byte	0xad
 1615 067c 0B       		.byte	0xb
 1616 067d 07       		.uleb128 0x7
 1617 067e 4E030000 		.4byte	.LASF100
 1618 0682 0C       		.byte	0xc
 1619 0683 3D       		.byte	0x3d
 1620 0684 AD000000 		.4byte	0xad
 1621 0688 0C       		.byte	0xc
 1622 0689 07       		.uleb128 0x7
 1623 068a DA010000 		.4byte	.LASF101
 1624 068e 0C       		.byte	0xc
 1625 068f 3E       		.byte	0x3e
 1626 0690 AD000000 		.4byte	0xad
 1627 0694 0D       		.byte	0xd
 1628 0695 07       		.uleb128 0x7
 1629 0696 F5020000 		.4byte	.LASF102
 1630 069a 0C       		.byte	0xc
 1631 069b 3F       		.byte	0x3f
 1632 069c AD000000 		.4byte	0xad
 1633 06a0 0E       		.byte	0xe
 1634 06a1 07       		.uleb128 0x7
 1635 06a2 C7030000 		.4byte	.LASF103
 1636 06a6 0C       		.byte	0xc
 1637 06a7 40       		.byte	0x40
 1638 06a8 AD000000 		.4byte	0xad
 1639 06ac 0F       		.byte	0xf
ARM GAS  /var/folders/t8/16hdwfmd2fg_d3q6dgx6bpmw0000gn/T//ccgTUZMA.s 			page 30


 1640 06ad 07       		.uleb128 0x7
 1641 06ae 9D020000 		.4byte	.LASF104
 1642 06b2 0C       		.byte	0xc
 1643 06b3 41       		.byte	0x41
 1644 06b4 AD000000 		.4byte	0xad
 1645 06b8 10       		.byte	0x10
 1646 06b9 07       		.uleb128 0x7
 1647 06ba 06030000 		.4byte	.LASF105
 1648 06be 0C       		.byte	0xc
 1649 06bf 42       		.byte	0x42
 1650 06c0 AD000000 		.4byte	0xad
 1651 06c4 11       		.byte	0x11
 1652 06c5 07       		.uleb128 0x7
 1653 06c6 5D030000 		.4byte	.LASF106
 1654 06ca 0C       		.byte	0xc
 1655 06cb 43       		.byte	0x43
 1656 06cc AD000000 		.4byte	0xad
 1657 06d0 12       		.byte	0x12
 1658 06d1 07       		.uleb128 0x7
 1659 06d2 6D060000 		.4byte	.LASF107
 1660 06d6 0C       		.byte	0xc
 1661 06d7 44       		.byte	0x44
 1662 06d8 AD000000 		.4byte	0xad
 1663 06dc 13       		.byte	0x13
 1664 06dd 07       		.uleb128 0x7
 1665 06de 88050000 		.4byte	.LASF108
 1666 06e2 0C       		.byte	0xc
 1667 06e3 45       		.byte	0x45
 1668 06e4 AD000000 		.4byte	0xad
 1669 06e8 14       		.byte	0x14
 1670 06e9 07       		.uleb128 0x7
 1671 06ea 86010000 		.4byte	.LASF109
 1672 06ee 0C       		.byte	0xc
 1673 06ef 46       		.byte	0x46
 1674 06f0 AD000000 		.4byte	0xad
 1675 06f4 15       		.byte	0x15
 1676 06f5 00       		.byte	0
 1677 06f6 15       		.uleb128 0x15
 1678 06f7 DB050000 		.4byte	0x5db
 1679 06fb 06070000 		.4byte	0x706
 1680 06ff 19       		.uleb128 0x19
 1681 0700 37000000 		.4byte	0x37
 1682 0704 03       		.byte	0x3
 1683 0705 00       		.byte	0
 1684 0706 03       		.uleb128 0x3
 1685 0707 CF040000 		.4byte	.LASF110
 1686 070b 0C       		.byte	0xc
 1687 070c 47       		.byte	0x47
 1688 070d 15060000 		.4byte	0x615
 1689 0711 13       		.uleb128 0x13
 1690 0712 06070000 		.4byte	0x706
 1691 0716 1A       		.uleb128 0x1a
 1692 0717 87060000 		.4byte	.LASF111
 1693 071b 0C       		.byte	0xc
 1694 071c 6C       		.byte	0x6c
 1695 071d 11070000 		.4byte	0x711
 1696 0721 03       		.uleb128 0x3
ARM GAS  /var/folders/t8/16hdwfmd2fg_d3q6dgx6bpmw0000gn/T//ccgTUZMA.s 			page 31


 1697 0722 D0050000 		.4byte	.LASF112
 1698 0726 0B       		.byte	0xb
 1699 0727 34       		.byte	0x34
 1700 0728 99050000 		.4byte	0x599
 1701 072c 0B       		.uleb128 0xb
 1702 072d 04       		.byte	0x4
 1703 072e 21070000 		.4byte	0x721
 1704 0732 03       		.uleb128 0x3
 1705 0733 6B050000 		.4byte	.LASF113
 1706 0737 0E       		.byte	0xe
 1707 0738 47       		.byte	0x47
 1708 0739 3D070000 		.4byte	0x73d
 1709 073d 0B       		.uleb128 0xb
 1710 073e 04       		.byte	0x4
 1711 073f 43070000 		.4byte	0x743
 1712 0743 1B       		.uleb128 0x1b
 1713 0744 29030000 		.4byte	0x329
 1714 0748 57070000 		.4byte	0x757
 1715 074c 0E       		.uleb128 0xe
 1716 074d 2C000000 		.4byte	0x2c
 1717 0751 0E       		.uleb128 0xe
 1718 0752 37000000 		.4byte	0x37
 1719 0756 00       		.byte	0
 1720 0757 03       		.uleb128 0x3
 1721 0758 82040000 		.4byte	.LASF114
 1722 075c 0F       		.byte	0xf
 1723 075d 48       		.byte	0x48
 1724 075e 62070000 		.4byte	0x762
 1725 0762 06       		.uleb128 0x6
 1726 0763 0F050000 		.4byte	.LASF115
 1727 0767 20       		.byte	0x20
 1728 0768 0F       		.byte	0xf
 1729 0769 61       		.byte	0x61
 1730 076a 93070000 		.4byte	0x793
 1731 076e 07       		.uleb128 0x7
 1732 076f 49050000 		.4byte	.LASF116
 1733 0773 0F       		.byte	0xf
 1734 0774 62       		.byte	0x62
 1735 0775 32070000 		.4byte	0x732
 1736 0779 00       		.byte	0
 1737 077a 07       		.uleb128 0x7
 1738 077b 7B040000 		.4byte	.LASF117
 1739 077f 0F       		.byte	0xf
 1740 0780 64       		.byte	0x64
 1741 0781 93070000 		.4byte	0x793
 1742 0785 08       		.byte	0x8
 1743 0786 08       		.uleb128 0x8
 1744 0787 6D747800 		.ascii	"mtx\000"
 1745 078b 0F       		.byte	0xf
 1746 078c 66       		.byte	0x66
 1747 078d 21070000 		.4byte	0x721
 1748 0791 10       		.byte	0x10
 1749 0792 00       		.byte	0
 1750 0793 03       		.uleb128 0x3
 1751 0794 E6060000 		.4byte	.LASF118
 1752 0798 0F       		.byte	0xf
 1753 0799 4D       		.byte	0x4d
ARM GAS  /var/folders/t8/16hdwfmd2fg_d3q6dgx6bpmw0000gn/T//ccgTUZMA.s 			page 32


 1754 079a 9E070000 		.4byte	0x79e
 1755 079e 1C       		.uleb128 0x1c
 1756 079f 10030000 		.4byte	.LASF144
 1757 07a3 08       		.byte	0x8
 1758 07a4 0F       		.byte	0xf
 1759 07a5 52       		.byte	0x52
 1760 07a6 CC070000 		.4byte	0x7cc
 1761 07aa 11       		.uleb128 0x11
 1762 07ab D1060000 		.4byte	.LASF119
 1763 07af 0F       		.byte	0xf
 1764 07b0 53       		.byte	0x53
 1765 07b1 6A040000 		.4byte	0x46a
 1766 07b5 11       		.uleb128 0x11
 1767 07b6 3E030000 		.4byte	.LASF120
 1768 07ba 0F       		.byte	0xf
 1769 07bb 57       		.byte	0x57
 1770 07bc CC070000 		.4byte	0x7cc
 1771 07c0 11       		.uleb128 0x11
 1772 07c1 E7020000 		.4byte	.LASF121
 1773 07c5 0F       		.byte	0xf
 1774 07c6 5B       		.byte	0x5b
 1775 07c7 F3070000 		.4byte	0x7f3
 1776 07cb 00       		.byte	0
 1777 07cc 18       		.uleb128 0x18
 1778 07cd 08       		.byte	0x8
 1779 07ce 0F       		.byte	0xf
 1780 07cf 54       		.byte	0x54
 1781 07d0 ED070000 		.4byte	0x7ed
 1782 07d4 07       		.uleb128 0x7
 1783 07d5 56010000 		.4byte	.LASF50
 1784 07d9 0F       		.byte	0xf
 1785 07da 55       		.byte	0x55
 1786 07db ED070000 		.4byte	0x7ed
 1787 07df 00       		.byte	0
 1788 07e0 07       		.uleb128 0x7
 1789 07e1 C1030000 		.4byte	.LASF122
 1790 07e5 0F       		.byte	0xf
 1791 07e6 56       		.byte	0x56
 1792 07e7 2C000000 		.4byte	0x2c
 1793 07eb 04       		.byte	0x4
 1794 07ec 00       		.byte	0
 1795 07ed 0B       		.uleb128 0xb
 1796 07ee 04       		.byte	0x4
 1797 07ef 93070000 		.4byte	0x793
 1798 07f3 18       		.uleb128 0x18
 1799 07f4 08       		.byte	0x8
 1800 07f5 0F       		.byte	0xf
 1801 07f6 58       		.byte	0x58
 1802 07f7 14080000 		.4byte	0x814
 1803 07fb 07       		.uleb128 0x7
 1804 07fc 81010000 		.4byte	.LASF123
 1805 0800 0F       		.byte	0xf
 1806 0801 59       		.byte	0x59
 1807 0802 14080000 		.4byte	0x814
 1808 0806 00       		.byte	0
 1809 0807 07       		.uleb128 0x7
 1810 0808 1D040000 		.4byte	.LASF94
ARM GAS  /var/folders/t8/16hdwfmd2fg_d3q6dgx6bpmw0000gn/T//ccgTUZMA.s 			page 33


 1811 080c 0F       		.byte	0xf
 1812 080d 5A       		.byte	0x5a
 1813 080e 2C000000 		.4byte	0x2c
 1814 0812 04       		.byte	0x4
 1815 0813 00       		.byte	0
 1816 0814 0B       		.uleb128 0xb
 1817 0815 04       		.byte	0x4
 1818 0816 57070000 		.4byte	0x757
 1819 081a 1D       		.uleb128 0x1d
 1820 081b FD010000 		.4byte	.LASF127
 1821 081f 01       		.byte	0x1
 1822 0820 5C       		.byte	0x5c
 1823 0821 57070000 		.4byte	0x757
 1824 0825 05       		.uleb128 0x5
 1825 0826 03       		.byte	0x3
 1826 0827 00000000 		.4byte	default_heap
 1827 082b 1E       		.uleb128 0x1e
 1828 082c 1B020000 		.4byte	.LASF130
 1829 0830 01       		.byte	0x1
 1830 0831 5D01     		.2byte	0x15d
 1831 0833 2C000000 		.4byte	0x2c
 1832 0837 00000000 		.4byte	.LFB142
 1833 083b 58000000 		.4byte	.LFE142-.LFB142
 1834 083f 01       		.uleb128 0x1
 1835 0840 9C       		.byte	0x9c
 1836 0841 F5080000 		.4byte	0x8f5
 1837 0845 1F       		.uleb128 0x1f
 1838 0846 37060000 		.4byte	.LASF124
 1839 084a 01       		.byte	0x1
 1840 084b 5D01     		.2byte	0x15d
 1841 084d 14080000 		.4byte	0x814
 1842 0851 00000000 		.4byte	.LLST18
 1843 0855 1F       		.uleb128 0x1f
 1844 0856 FE040000 		.4byte	.LASF125
 1845 085a 01       		.byte	0x1
 1846 085b 5D01     		.2byte	0x15d
 1847 085d F5080000 		.4byte	0x8f5
 1848 0861 36000000 		.4byte	.LLST19
 1849 0865 1F       		.uleb128 0x1f
 1850 0866 F2030000 		.4byte	.LASF126
 1851 086a 01       		.byte	0x1
 1852 086b 5D01     		.2byte	0x15d
 1853 086d F5080000 		.4byte	0x8f5
 1854 0871 6D000000 		.4byte	.LLST20
 1855 0875 20       		.uleb128 0x20
 1856 0876 717000   		.ascii	"qp\000"
 1857 0879 01       		.byte	0x1
 1858 087a 5E01     		.2byte	0x15e
 1859 087c ED070000 		.4byte	0x7ed
 1860 0880 A4000000 		.4byte	.LLST21
 1861 0884 20       		.uleb128 0x20
 1862 0885 6E00     		.ascii	"n\000"
 1863 0887 01       		.byte	0x1
 1864 0888 5F01     		.2byte	0x15f
 1865 088a 2C000000 		.4byte	0x2c
 1866 088e D1000000 		.4byte	.LLST22
 1867 0892 21       		.uleb128 0x21
ARM GAS  /var/folders/t8/16hdwfmd2fg_d3q6dgx6bpmw0000gn/T//ccgTUZMA.s 			page 34


 1868 0893 24050000 		.4byte	.LASF128
 1869 0897 01       		.byte	0x1
 1870 0898 5F01     		.2byte	0x15f
 1871 089a 2C000000 		.4byte	0x2c
 1872 089e F0000000 		.4byte	.LLST23
 1873 08a2 21       		.uleb128 0x21
 1874 08a3 56030000 		.4byte	.LASF129
 1875 08a7 01       		.byte	0x1
 1876 08a8 5F01     		.2byte	0x15f
 1877 08aa 2C000000 		.4byte	0x2c
 1878 08ae 0F010000 		.4byte	.LLST24
 1879 08b2 22       		.uleb128 0x22
 1880 08b3 22000000 		.4byte	.LBB11
 1881 08b7 0C000000 		.4byte	.LBE11-.LBB11
 1882 08bb D0080000 		.4byte	0x8d0
 1883 08bf 21       		.uleb128 0x21
 1884 08c0 C1030000 		.4byte	.LASF122
 1885 08c4 01       		.byte	0x1
 1886 08c5 6B01     		.2byte	0x16b
 1887 08c7 2C000000 		.4byte	0x2c
 1888 08cb 2E010000 		.4byte	.LLST25
 1889 08cf 00       		.byte	0
 1890 08d0 23       		.uleb128 0x23
 1891 08d1 16000000 		.4byte	.LVL70
 1892 08d5 EB0B0000 		.4byte	0xbeb
 1893 08d9 E4080000 		.4byte	0x8e4
 1894 08dd 24       		.uleb128 0x24
 1895 08de 01       		.uleb128 0x1
 1896 08df 50       		.byte	0x50
 1897 08e0 02       		.uleb128 0x2
 1898 08e1 75       		.byte	0x75
 1899 08e2 00       		.sleb128 0
 1900 08e3 00       		.byte	0
 1901 08e4 25       		.uleb128 0x25
 1902 08e5 4A000000 		.4byte	.LVL79
 1903 08e9 F60B0000 		.4byte	0xbf6
 1904 08ed 24       		.uleb128 0x24
 1905 08ee 01       		.uleb128 0x1
 1906 08ef 50       		.byte	0x50
 1907 08f0 02       		.uleb128 0x2
 1908 08f1 75       		.byte	0x75
 1909 08f2 00       		.sleb128 0
 1910 08f3 00       		.byte	0
 1911 08f4 00       		.byte	0
 1912 08f5 0B       		.uleb128 0xb
 1913 08f6 04       		.byte	0x4
 1914 08f7 2C000000 		.4byte	0x2c
 1915 08fb 26       		.uleb128 0x26
 1916 08fc 35010000 		.4byte	.LASF134
 1917 0900 01       		.byte	0x1
 1918 0901 1D01     		.2byte	0x11d
 1919 0903 00000000 		.4byte	.LFB141
 1920 0907 B8000000 		.4byte	.LFE141-.LFB141
 1921 090b 01       		.uleb128 0x1
 1922 090c 9C       		.byte	0x9c
 1923 090d AC090000 		.4byte	0x9ac
 1924 0911 27       		.uleb128 0x27
ARM GAS  /var/folders/t8/16hdwfmd2fg_d3q6dgx6bpmw0000gn/T//ccgTUZMA.s 			page 35


 1925 0912 7000     		.ascii	"p\000"
 1926 0914 01       		.byte	0x1
 1927 0915 1D01     		.2byte	0x11d
 1928 0917 29030000 		.4byte	0x329
 1929 091b 41010000 		.4byte	.LLST14
 1930 091f 20       		.uleb128 0x20
 1931 0920 717000   		.ascii	"qp\000"
 1932 0923 01       		.byte	0x1
 1933 0924 1E01     		.2byte	0x11e
 1934 0926 ED070000 		.4byte	0x7ed
 1935 092a 9D010000 		.4byte	.LLST15
 1936 092e 20       		.uleb128 0x20
 1937 092f 687000   		.ascii	"hp\000"
 1938 0932 01       		.byte	0x1
 1939 0933 1E01     		.2byte	0x11e
 1940 0935 ED070000 		.4byte	0x7ed
 1941 0939 D1010000 		.4byte	.LLST16
 1942 093d 21       		.uleb128 0x21
 1943 093e 37060000 		.4byte	.LASF124
 1944 0942 01       		.byte	0x1
 1945 0943 1F01     		.2byte	0x11f
 1946 0945 14080000 		.4byte	0x814
 1947 0949 FF010000 		.4byte	.LLST17
 1948 094d 28       		.uleb128 0x28
 1949 094e 7E060000 		.4byte	.LASF132
 1950 0952 BC090000 		.4byte	0x9bc
 1951 0956 05       		.uleb128 0x5
 1952 0957 03       		.byte	0x3
 1953 0958 00000000 		.4byte	__func__.5747
 1954 095c 23       		.uleb128 0x23
 1955 095d 26000000 		.4byte	.LVL53
 1956 0961 EB0B0000 		.4byte	0xbeb
 1957 0965 70090000 		.4byte	0x970
 1958 0969 24       		.uleb128 0x24
 1959 096a 01       		.uleb128 0x1
 1960 096b 50       		.byte	0x50
 1961 096c 02       		.uleb128 0x2
 1962 096d 77       		.byte	0x77
 1963 096e 00       		.sleb128 0
 1964 096f 00       		.byte	0
 1965 0970 23       		.uleb128 0x23
 1966 0971 78000000 		.4byte	.LVL58
 1967 0975 F60B0000 		.4byte	0xbf6
 1968 0979 84090000 		.4byte	0x984
 1969 097d 24       		.uleb128 0x24
 1970 097e 01       		.uleb128 0x1
 1971 097f 50       		.byte	0x50
 1972 0980 02       		.uleb128 0x2
 1973 0981 77       		.byte	0x77
 1974 0982 00       		.sleb128 0
 1975 0983 00       		.byte	0
 1976 0984 23       		.uleb128 0x23
 1977 0985 84000000 		.4byte	.LVL65
 1978 0989 010C0000 		.4byte	0xc01
 1979 098d 9B090000 		.4byte	0x99b
 1980 0991 24       		.uleb128 0x24
 1981 0992 01       		.uleb128 0x1
ARM GAS  /var/folders/t8/16hdwfmd2fg_d3q6dgx6bpmw0000gn/T//ccgTUZMA.s 			page 36


 1982 0993 50       		.byte	0x50
 1983 0994 05       		.uleb128 0x5
 1984 0995 03       		.byte	0x3
 1985 0996 00000000 		.4byte	.LANCHOR3
 1986 099a 00       		.byte	0
 1987 099b 25       		.uleb128 0x25
 1988 099c 8C000000 		.4byte	.LVL67
 1989 09a0 010C0000 		.4byte	0xc01
 1990 09a4 24       		.uleb128 0x24
 1991 09a5 01       		.uleb128 0x1
 1992 09a6 50       		.byte	0x50
 1993 09a7 02       		.uleb128 0x2
 1994 09a8 78       		.byte	0x78
 1995 09a9 00       		.sleb128 0
 1996 09aa 00       		.byte	0
 1997 09ab 00       		.byte	0
 1998 09ac 15       		.uleb128 0x15
 1999 09ad E2050000 		.4byte	0x5e2
 2000 09b1 BC090000 		.4byte	0x9bc
 2001 09b5 19       		.uleb128 0x19
 2002 09b6 37000000 		.4byte	0x37
 2003 09ba 0A       		.byte	0xa
 2004 09bb 00       		.byte	0
 2005 09bc 13       		.uleb128 0x13
 2006 09bd AC090000 		.4byte	0x9ac
 2007 09c1 29       		.uleb128 0x29
 2008 09c2 E2040000 		.4byte	.LASF131
 2009 09c6 01       		.byte	0x1
 2010 09c7 A6       		.byte	0xa6
 2011 09c8 29030000 		.4byte	0x329
 2012 09cc 00000000 		.4byte	.LFB140
 2013 09d0 4C010000 		.4byte	.LFE140-.LFB140
 2014 09d4 01       		.uleb128 0x1
 2015 09d5 9C       		.byte	0x9c
 2016 09d6 110B0000 		.4byte	0xb11
 2017 09da 2A       		.uleb128 0x2a
 2018 09db 37060000 		.4byte	.LASF124
 2019 09df 01       		.byte	0x1
 2020 09e0 A6       		.byte	0xa6
 2021 09e1 14080000 		.4byte	0x814
 2022 09e5 44020000 		.4byte	.LLST4
 2023 09e9 2A       		.uleb128 0x2a
 2024 09ea 1D040000 		.4byte	.LASF94
 2025 09ee 01       		.byte	0x1
 2026 09ef A6       		.byte	0xa6
 2027 09f0 2C000000 		.4byte	0x2c
 2028 09f4 9C020000 		.4byte	.LLST5
 2029 09f8 2A       		.uleb128 0x2a
 2030 09f9 D1060000 		.4byte	.LASF119
 2031 09fd 01       		.byte	0x1
 2032 09fe A6       		.byte	0xa6
 2033 09ff 37000000 		.4byte	0x37
 2034 0a03 D2020000 		.4byte	.LLST6
 2035 0a07 2B       		.uleb128 0x2b
 2036 0a08 717000   		.ascii	"qp\000"
 2037 0a0b 01       		.byte	0x1
 2038 0a0c A7       		.byte	0xa7
ARM GAS  /var/folders/t8/16hdwfmd2fg_d3q6dgx6bpmw0000gn/T//ccgTUZMA.s 			page 37


 2039 0a0d ED070000 		.4byte	0x7ed
 2040 0a11 2A030000 		.4byte	.LLST7
 2041 0a15 2B       		.uleb128 0x2b
 2042 0a16 687000   		.ascii	"hp\000"
 2043 0a19 01       		.byte	0x1
 2044 0a1a A7       		.byte	0xa7
 2045 0a1b ED070000 		.4byte	0x7ed
 2046 0a1f 48030000 		.4byte	.LLST8
 2047 0a23 2C       		.uleb128 0x2c
 2048 0a24 C1030000 		.4byte	.LASF122
 2049 0a28 01       		.byte	0x1
 2050 0a29 A8       		.byte	0xa8
 2051 0a2a 2C000000 		.4byte	0x2c
 2052 0a2e 9F030000 		.4byte	.LLST9
 2053 0a32 28       		.uleb128 0x28
 2054 0a33 7E060000 		.4byte	.LASF132
 2055 0a37 210B0000 		.4byte	0xb21
 2056 0a3b 05       		.uleb128 0x5
 2057 0a3c 03       		.byte	0x3
 2058 0a3d 00000000 		.4byte	__func__.5733
 2059 0a41 2D       		.uleb128 0x2d
 2060 0a42 00000000 		.4byte	.Ldebug_ranges0+0
 2061 0a46 B80A0000 		.4byte	0xab8
 2062 0a4a 2B       		.uleb128 0x2b
 2063 0a4b 61687000 		.ascii	"ahp\000"
 2064 0a4f 01       		.byte	0x1
 2065 0a50 BF       		.byte	0xbf
 2066 0a51 ED070000 		.4byte	0x7ed
 2067 0a55 CA030000 		.4byte	.LLST10
 2068 0a59 22       		.uleb128 0x22
 2069 0a5a 16010000 		.4byte	.LBB6
 2070 0a5e 20000000 		.4byte	.LBE6-.LBB6
 2071 0a62 8E0A0000 		.4byte	0xa8e
 2072 0a66 2C       		.uleb128 0x2c
 2073 0a67 FF020000 		.4byte	.LASF133
 2074 0a6b 01       		.byte	0x1
 2075 0a6c CD       		.byte	0xcd
 2076 0a6d 2C000000 		.4byte	0x2c
 2077 0a71 18040000 		.4byte	.LLST12
 2078 0a75 2E       		.uleb128 0x2e
 2079 0a76 22010000 		.4byte	.LBB7
 2080 0a7a 14000000 		.4byte	.LBE7-.LBB7
 2081 0a7e 2B       		.uleb128 0x2b
 2082 0a7f 667000   		.ascii	"fp\000"
 2083 0a82 01       		.byte	0x1
 2084 0a83 D3       		.byte	0xd3
 2085 0a84 ED070000 		.4byte	0x7ed
 2086 0a88 36040000 		.4byte	.LLST13
 2087 0a8c 00       		.byte	0
 2088 0a8d 00       		.byte	0
 2089 0a8e 2D       		.uleb128 0x2d
 2090 0a8f 28000000 		.4byte	.Ldebug_ranges0+0x28
 2091 0a93 A60A0000 		.4byte	0xaa6
 2092 0a97 2B       		.uleb128 0x2b
 2093 0a98 667000   		.ascii	"fp\000"
 2094 0a9b 01       		.byte	0x1
 2095 0a9c E9       		.byte	0xe9
ARM GAS  /var/folders/t8/16hdwfmd2fg_d3q6dgx6bpmw0000gn/T//ccgTUZMA.s 			page 38


 2096 0a9d ED070000 		.4byte	0x7ed
 2097 0aa1 49040000 		.4byte	.LLST11
 2098 0aa5 00       		.byte	0
 2099 0aa6 25       		.uleb128 0x25
 2100 0aa7 14010000 		.4byte	.LVL41
 2101 0aab F60B0000 		.4byte	0xbf6
 2102 0aaf 24       		.uleb128 0x24
 2103 0ab0 01       		.uleb128 0x1
 2104 0ab1 50       		.byte	0x50
 2105 0ab2 03       		.uleb128 0x3
 2106 0ab3 91       		.byte	0x91
 2107 0ab4 54       		.sleb128 -44
 2108 0ab5 06       		.byte	0x6
 2109 0ab6 00       		.byte	0
 2110 0ab7 00       		.byte	0
 2111 0ab8 23       		.uleb128 0x23
 2112 0ab9 22000000 		.4byte	.LVL12
 2113 0abd 010C0000 		.4byte	0xc01
 2114 0ac1 CF0A0000 		.4byte	0xacf
 2115 0ac5 24       		.uleb128 0x24
 2116 0ac6 01       		.uleb128 0x1
 2117 0ac7 50       		.byte	0x50
 2118 0ac8 05       		.uleb128 0x5
 2119 0ac9 03       		.byte	0x3
 2120 0aca 00000000 		.4byte	.LANCHOR2
 2121 0ace 00       		.byte	0
 2122 0acf 23       		.uleb128 0x23
 2123 0ad0 48000000 		.4byte	.LVL17
 2124 0ad4 EB0B0000 		.4byte	0xbeb
 2125 0ad8 E40A0000 		.4byte	0xae4
 2126 0adc 24       		.uleb128 0x24
 2127 0add 01       		.uleb128 0x1
 2128 0ade 50       		.byte	0x50
 2129 0adf 03       		.uleb128 0x3
 2130 0ae0 91       		.byte	0x91
 2131 0ae1 54       		.sleb128 -44
 2132 0ae2 06       		.byte	0x6
 2133 0ae3 00       		.byte	0
 2134 0ae4 23       		.uleb128 0x23
 2135 0ae5 96000000 		.4byte	.LVL24
 2136 0ae9 F60B0000 		.4byte	0xbf6
 2137 0aed F90A0000 		.4byte	0xaf9
 2138 0af1 24       		.uleb128 0x24
 2139 0af2 01       		.uleb128 0x1
 2140 0af3 50       		.byte	0x50
 2141 0af4 03       		.uleb128 0x3
 2142 0af5 91       		.byte	0x91
 2143 0af6 54       		.sleb128 -44
 2144 0af7 06       		.byte	0x6
 2145 0af8 00       		.byte	0
 2146 0af9 2F       		.uleb128 0x2f
 2147 0afa A8000000 		.4byte	.LVL25
 2148 0afe 24       		.uleb128 0x24
 2149 0aff 01       		.uleb128 0x1
 2150 0b00 50       		.byte	0x50
 2151 0b01 07       		.uleb128 0x7
 2152 0b02 91       		.byte	0x91
ARM GAS  /var/folders/t8/16hdwfmd2fg_d3q6dgx6bpmw0000gn/T//ccgTUZMA.s 			page 39


 2153 0b03 4C       		.sleb128 -52
 2154 0b04 06       		.byte	0x6
 2155 0b05 23       		.byte	0x23
 2156 0b06 01       		.uleb128 0x1
 2157 0b07 33       		.byte	0x33
 2158 0b08 24       		.byte	0x24
 2159 0b09 24       		.uleb128 0x24
 2160 0b0a 01       		.uleb128 0x1
 2161 0b0b 51       		.byte	0x51
 2162 0b0c 02       		.uleb128 0x2
 2163 0b0d 78       		.byte	0x78
 2164 0b0e 00       		.sleb128 0
 2165 0b0f 00       		.byte	0
 2166 0b10 00       		.byte	0
 2167 0b11 15       		.uleb128 0x15
 2168 0b12 E2050000 		.4byte	0x5e2
 2169 0b16 210B0000 		.4byte	0xb21
 2170 0b1a 19       		.uleb128 0x19
 2171 0b1b 37000000 		.4byte	0x37
 2172 0b1f 12       		.byte	0x12
 2173 0b20 00       		.byte	0
 2174 0b21 13       		.uleb128 0x13
 2175 0b22 110B0000 		.4byte	0xb11
 2176 0b26 30       		.uleb128 0x30
 2177 0b27 B5040000 		.4byte	.LASF135
 2178 0b2b 01       		.byte	0x1
 2179 0b2c 82       		.byte	0x82
 2180 0b2d 00000000 		.4byte	.LFB139
 2181 0b31 40000000 		.4byte	.LFE139-.LFB139
 2182 0b35 01       		.uleb128 0x1
 2183 0b36 9C       		.byte	0x9c
 2184 0b37 AD0B0000 		.4byte	0xbad
 2185 0b3b 2A       		.uleb128 0x2a
 2186 0b3c 37060000 		.4byte	.LASF124
 2187 0b40 01       		.byte	0x1
 2188 0b41 82       		.byte	0x82
 2189 0b42 14080000 		.4byte	0x814
 2190 0b46 5C040000 		.4byte	.LLST0
 2191 0b4a 31       		.uleb128 0x31
 2192 0b4b 62756600 		.ascii	"buf\000"
 2193 0b4f 01       		.byte	0x1
 2194 0b50 82       		.byte	0x82
 2195 0b51 29030000 		.4byte	0x329
 2196 0b55 93040000 		.4byte	.LLST1
 2197 0b59 2A       		.uleb128 0x2a
 2198 0b5a 1D040000 		.4byte	.LASF94
 2199 0b5e 01       		.byte	0x1
 2200 0b5f 82       		.byte	0x82
 2201 0b60 2C000000 		.4byte	0x2c
 2202 0b64 CA040000 		.4byte	.LLST2
 2203 0b68 2B       		.uleb128 0x2b
 2204 0b69 687000   		.ascii	"hp\000"
 2205 0b6c 01       		.byte	0x1
 2206 0b6d 83       		.byte	0x83
 2207 0b6e ED070000 		.4byte	0x7ed
 2208 0b72 0E050000 		.4byte	.LLST3
 2209 0b76 28       		.uleb128 0x28
ARM GAS  /var/folders/t8/16hdwfmd2fg_d3q6dgx6bpmw0000gn/T//ccgTUZMA.s 			page 40


 2210 0b77 7E060000 		.4byte	.LASF132
 2211 0b7b BD0B0000 		.4byte	0xbbd
 2212 0b7f 05       		.uleb128 0x5
 2213 0b80 03       		.byte	0x3
 2214 0b81 00000000 		.4byte	__func__.5724
 2215 0b85 23       		.uleb128 0x23
 2216 0b86 16000000 		.4byte	.LVL3
 2217 0b8a 010C0000 		.4byte	0xc01
 2218 0b8e 9C0B0000 		.4byte	0xb9c
 2219 0b92 24       		.uleb128 0x24
 2220 0b93 01       		.uleb128 0x1
 2221 0b94 50       		.byte	0x50
 2222 0b95 05       		.uleb128 0x5
 2223 0b96 03       		.byte	0x3
 2224 0b97 00000000 		.4byte	.LANCHOR1
 2225 0b9b 00       		.byte	0
 2226 0b9c 25       		.uleb128 0x25
 2227 0b9d 2E000000 		.4byte	.LVL6
 2228 0ba1 0D0C0000 		.4byte	0xc0d
 2229 0ba5 24       		.uleb128 0x24
 2230 0ba6 01       		.uleb128 0x1
 2231 0ba7 50       		.byte	0x50
 2232 0ba8 02       		.uleb128 0x2
 2233 0ba9 74       		.byte	0x74
 2234 0baa 10       		.sleb128 16
 2235 0bab 00       		.byte	0
 2236 0bac 00       		.byte	0
 2237 0bad 15       		.uleb128 0x15
 2238 0bae E2050000 		.4byte	0x5e2
 2239 0bb2 BD0B0000 		.4byte	0xbbd
 2240 0bb6 19       		.uleb128 0x19
 2241 0bb7 37000000 		.4byte	0x37
 2242 0bbb 10       		.byte	0x10
 2243 0bbc 00       		.byte	0
 2244 0bbd 13       		.uleb128 0x13
 2245 0bbe AD0B0000 		.4byte	0xbad
 2246 0bc2 30       		.uleb128 0x30
 2247 0bc3 2A030000 		.4byte	.LASF136
 2248 0bc7 01       		.byte	0x1
 2249 0bc8 6B       		.byte	0x6b
 2250 0bc9 00000000 		.4byte	.LFB138
 2251 0bcd 20000000 		.4byte	.LFE138-.LFB138
 2252 0bd1 01       		.uleb128 0x1
 2253 0bd2 9C       		.byte	0x9c
 2254 0bd3 EB0B0000 		.4byte	0xbeb
 2255 0bd7 25       		.uleb128 0x25
 2256 0bd8 14000000 		.4byte	.LVL0
 2257 0bdc 0D0C0000 		.4byte	0xc0d
 2258 0be0 24       		.uleb128 0x24
 2259 0be1 01       		.uleb128 0x1
 2260 0be2 50       		.byte	0x50
 2261 0be3 05       		.uleb128 0x5
 2262 0be4 03       		.byte	0x3
 2263 0be5 10000000 		.4byte	.LANCHOR0+16
 2264 0be9 00       		.byte	0
 2265 0bea 00       		.byte	0
 2266 0beb 32       		.uleb128 0x32
ARM GAS  /var/folders/t8/16hdwfmd2fg_d3q6dgx6bpmw0000gn/T//ccgTUZMA.s 			page 41


 2267 0bec 09010000 		.4byte	.LASF137
 2268 0bf0 09010000 		.4byte	.LASF137
 2269 0bf4 0B       		.byte	0xb
 2270 0bf5 67       		.byte	0x67
 2271 0bf6 32       		.uleb128 0x32
 2272 0bf7 FB030000 		.4byte	.LASF138
 2273 0bfb FB030000 		.4byte	.LASF138
 2274 0bff 0B       		.byte	0xb
 2275 0c00 6B       		.byte	0x6b
 2276 0c01 33       		.uleb128 0x33
 2277 0c02 1B060000 		.4byte	.LASF139
 2278 0c06 1B060000 		.4byte	.LASF139
 2279 0c0a 0D       		.byte	0xd
 2280 0c0b 3201     		.2byte	0x132
 2281 0c0d 32       		.uleb128 0x32
 2282 0c0e 7C020000 		.4byte	.LASF140
 2283 0c12 7C020000 		.4byte	.LASF140
 2284 0c16 0B       		.byte	0xb
 2285 0c17 66       		.byte	0x66
 2286 0c18 00       		.byte	0
 2287              		.section	.debug_abbrev,"",%progbits
 2288              	.Ldebug_abbrev0:
 2289 0000 01       		.uleb128 0x1
 2290 0001 11       		.uleb128 0x11
 2291 0002 01       		.byte	0x1
 2292 0003 25       		.uleb128 0x25
 2293 0004 0E       		.uleb128 0xe
 2294 0005 13       		.uleb128 0x13
 2295 0006 0B       		.uleb128 0xb
 2296 0007 03       		.uleb128 0x3
 2297 0008 0E       		.uleb128 0xe
 2298 0009 1B       		.uleb128 0x1b
 2299 000a 0E       		.uleb128 0xe
 2300 000b 55       		.uleb128 0x55
 2301 000c 17       		.uleb128 0x17
 2302 000d 11       		.uleb128 0x11
 2303 000e 01       		.uleb128 0x1
 2304 000f 10       		.uleb128 0x10
 2305 0010 17       		.uleb128 0x17
 2306 0011 00       		.byte	0
 2307 0012 00       		.byte	0
 2308 0013 02       		.uleb128 0x2
 2309 0014 24       		.uleb128 0x24
 2310 0015 00       		.byte	0
 2311 0016 0B       		.uleb128 0xb
 2312 0017 0B       		.uleb128 0xb
 2313 0018 3E       		.uleb128 0x3e
 2314 0019 0B       		.uleb128 0xb
 2315 001a 03       		.uleb128 0x3
 2316 001b 08       		.uleb128 0x8
 2317 001c 00       		.byte	0
 2318 001d 00       		.byte	0
 2319 001e 03       		.uleb128 0x3
 2320 001f 16       		.uleb128 0x16
 2321 0020 00       		.byte	0
 2322 0021 03       		.uleb128 0x3
 2323 0022 0E       		.uleb128 0xe
ARM GAS  /var/folders/t8/16hdwfmd2fg_d3q6dgx6bpmw0000gn/T//ccgTUZMA.s 			page 42


 2324 0023 3A       		.uleb128 0x3a
 2325 0024 0B       		.uleb128 0xb
 2326 0025 3B       		.uleb128 0x3b
 2327 0026 0B       		.uleb128 0xb
 2328 0027 49       		.uleb128 0x49
 2329 0028 13       		.uleb128 0x13
 2330 0029 00       		.byte	0
 2331 002a 00       		.byte	0
 2332 002b 04       		.uleb128 0x4
 2333 002c 24       		.uleb128 0x24
 2334 002d 00       		.byte	0
 2335 002e 0B       		.uleb128 0xb
 2336 002f 0B       		.uleb128 0xb
 2337 0030 3E       		.uleb128 0x3e
 2338 0031 0B       		.uleb128 0xb
 2339 0032 03       		.uleb128 0x3
 2340 0033 0E       		.uleb128 0xe
 2341 0034 00       		.byte	0
 2342 0035 00       		.byte	0
 2343 0036 05       		.uleb128 0x5
 2344 0037 35       		.uleb128 0x35
 2345 0038 00       		.byte	0
 2346 0039 49       		.uleb128 0x49
 2347 003a 13       		.uleb128 0x13
 2348 003b 00       		.byte	0
 2349 003c 00       		.byte	0
 2350 003d 06       		.uleb128 0x6
 2351 003e 13       		.uleb128 0x13
 2352 003f 01       		.byte	0x1
 2353 0040 03       		.uleb128 0x3
 2354 0041 0E       		.uleb128 0xe
 2355 0042 0B       		.uleb128 0xb
 2356 0043 0B       		.uleb128 0xb
 2357 0044 3A       		.uleb128 0x3a
 2358 0045 0B       		.uleb128 0xb
 2359 0046 3B       		.uleb128 0x3b
 2360 0047 0B       		.uleb128 0xb
 2361 0048 01       		.uleb128 0x1
 2362 0049 13       		.uleb128 0x13
 2363 004a 00       		.byte	0
 2364 004b 00       		.byte	0
 2365 004c 07       		.uleb128 0x7
 2366 004d 0D       		.uleb128 0xd
 2367 004e 00       		.byte	0
 2368 004f 03       		.uleb128 0x3
 2369 0050 0E       		.uleb128 0xe
 2370 0051 3A       		.uleb128 0x3a
 2371 0052 0B       		.uleb128 0xb
 2372 0053 3B       		.uleb128 0x3b
 2373 0054 0B       		.uleb128 0xb
 2374 0055 49       		.uleb128 0x49
 2375 0056 13       		.uleb128 0x13
 2376 0057 38       		.uleb128 0x38
 2377 0058 0B       		.uleb128 0xb
 2378 0059 00       		.byte	0
 2379 005a 00       		.byte	0
 2380 005b 08       		.uleb128 0x8
ARM GAS  /var/folders/t8/16hdwfmd2fg_d3q6dgx6bpmw0000gn/T//ccgTUZMA.s 			page 43


 2381 005c 0D       		.uleb128 0xd
 2382 005d 00       		.byte	0
 2383 005e 03       		.uleb128 0x3
 2384 005f 08       		.uleb128 0x8
 2385 0060 3A       		.uleb128 0x3a
 2386 0061 0B       		.uleb128 0xb
 2387 0062 3B       		.uleb128 0x3b
 2388 0063 0B       		.uleb128 0xb
 2389 0064 49       		.uleb128 0x49
 2390 0065 13       		.uleb128 0x13
 2391 0066 38       		.uleb128 0x38
 2392 0067 0B       		.uleb128 0xb
 2393 0068 00       		.byte	0
 2394 0069 00       		.byte	0
 2395 006a 09       		.uleb128 0x9
 2396 006b 0D       		.uleb128 0xd
 2397 006c 00       		.byte	0
 2398 006d 03       		.uleb128 0x3
 2399 006e 08       		.uleb128 0x8
 2400 006f 3A       		.uleb128 0x3a
 2401 0070 0B       		.uleb128 0xb
 2402 0071 3B       		.uleb128 0x3b
 2403 0072 05       		.uleb128 0x5
 2404 0073 49       		.uleb128 0x49
 2405 0074 13       		.uleb128 0x13
 2406 0075 38       		.uleb128 0x38
 2407 0076 0B       		.uleb128 0xb
 2408 0077 00       		.byte	0
 2409 0078 00       		.byte	0
 2410 0079 0A       		.uleb128 0xa
 2411 007a 0D       		.uleb128 0xd
 2412 007b 00       		.byte	0
 2413 007c 03       		.uleb128 0x3
 2414 007d 0E       		.uleb128 0xe
 2415 007e 3A       		.uleb128 0x3a
 2416 007f 0B       		.uleb128 0xb
 2417 0080 3B       		.uleb128 0x3b
 2418 0081 05       		.uleb128 0x5
 2419 0082 49       		.uleb128 0x49
 2420 0083 13       		.uleb128 0x13
 2421 0084 38       		.uleb128 0x38
 2422 0085 0B       		.uleb128 0xb
 2423 0086 00       		.byte	0
 2424 0087 00       		.byte	0
 2425 0088 0B       		.uleb128 0xb
 2426 0089 0F       		.uleb128 0xf
 2427 008a 00       		.byte	0
 2428 008b 0B       		.uleb128 0xb
 2429 008c 0B       		.uleb128 0xb
 2430 008d 49       		.uleb128 0x49
 2431 008e 13       		.uleb128 0x13
 2432 008f 00       		.byte	0
 2433 0090 00       		.byte	0
 2434 0091 0C       		.uleb128 0xc
 2435 0092 13       		.uleb128 0x13
 2436 0093 01       		.byte	0x1
 2437 0094 03       		.uleb128 0x3
ARM GAS  /var/folders/t8/16hdwfmd2fg_d3q6dgx6bpmw0000gn/T//ccgTUZMA.s 			page 44


 2438 0095 0E       		.uleb128 0xe
 2439 0096 0B       		.uleb128 0xb
 2440 0097 0B       		.uleb128 0xb
 2441 0098 3A       		.uleb128 0x3a
 2442 0099 0B       		.uleb128 0xb
 2443 009a 3B       		.uleb128 0x3b
 2444 009b 05       		.uleb128 0x5
 2445 009c 01       		.uleb128 0x1
 2446 009d 13       		.uleb128 0x13
 2447 009e 00       		.byte	0
 2448 009f 00       		.byte	0
 2449 00a0 0D       		.uleb128 0xd
 2450 00a1 15       		.uleb128 0x15
 2451 00a2 01       		.byte	0x1
 2452 00a3 27       		.uleb128 0x27
 2453 00a4 19       		.uleb128 0x19
 2454 00a5 01       		.uleb128 0x1
 2455 00a6 13       		.uleb128 0x13
 2456 00a7 00       		.byte	0
 2457 00a8 00       		.byte	0
 2458 00a9 0E       		.uleb128 0xe
 2459 00aa 05       		.uleb128 0x5
 2460 00ab 00       		.byte	0
 2461 00ac 49       		.uleb128 0x49
 2462 00ad 13       		.uleb128 0x13
 2463 00ae 00       		.byte	0
 2464 00af 00       		.byte	0
 2465 00b0 0F       		.uleb128 0xf
 2466 00b1 0F       		.uleb128 0xf
 2467 00b2 00       		.byte	0
 2468 00b3 0B       		.uleb128 0xb
 2469 00b4 0B       		.uleb128 0xb
 2470 00b5 00       		.byte	0
 2471 00b6 00       		.byte	0
 2472 00b7 10       		.uleb128 0x10
 2473 00b8 17       		.uleb128 0x17
 2474 00b9 01       		.byte	0x1
 2475 00ba 0B       		.uleb128 0xb
 2476 00bb 0B       		.uleb128 0xb
 2477 00bc 3A       		.uleb128 0x3a
 2478 00bd 0B       		.uleb128 0xb
 2479 00be 3B       		.uleb128 0x3b
 2480 00bf 0B       		.uleb128 0xb
 2481 00c0 01       		.uleb128 0x1
 2482 00c1 13       		.uleb128 0x13
 2483 00c2 00       		.byte	0
 2484 00c3 00       		.byte	0
 2485 00c4 11       		.uleb128 0x11
 2486 00c5 0D       		.uleb128 0xd
 2487 00c6 00       		.byte	0
 2488 00c7 03       		.uleb128 0x3
 2489 00c8 0E       		.uleb128 0xe
 2490 00c9 3A       		.uleb128 0x3a
 2491 00ca 0B       		.uleb128 0xb
 2492 00cb 3B       		.uleb128 0x3b
 2493 00cc 0B       		.uleb128 0xb
 2494 00cd 49       		.uleb128 0x49
ARM GAS  /var/folders/t8/16hdwfmd2fg_d3q6dgx6bpmw0000gn/T//ccgTUZMA.s 			page 45


 2495 00ce 13       		.uleb128 0x13
 2496 00cf 00       		.byte	0
 2497 00d0 00       		.byte	0
 2498 00d1 12       		.uleb128 0x12
 2499 00d2 0D       		.uleb128 0xd
 2500 00d3 00       		.byte	0
 2501 00d4 03       		.uleb128 0x3
 2502 00d5 0E       		.uleb128 0xe
 2503 00d6 3A       		.uleb128 0x3a
 2504 00d7 0B       		.uleb128 0xb
 2505 00d8 3B       		.uleb128 0x3b
 2506 00d9 05       		.uleb128 0x5
 2507 00da 49       		.uleb128 0x49
 2508 00db 13       		.uleb128 0x13
 2509 00dc 00       		.byte	0
 2510 00dd 00       		.byte	0
 2511 00de 13       		.uleb128 0x13
 2512 00df 26       		.uleb128 0x26
 2513 00e0 00       		.byte	0
 2514 00e1 49       		.uleb128 0x49
 2515 00e2 13       		.uleb128 0x13
 2516 00e3 00       		.byte	0
 2517 00e4 00       		.byte	0
 2518 00e5 14       		.uleb128 0x14
 2519 00e6 34       		.uleb128 0x34
 2520 00e7 00       		.byte	0
 2521 00e8 03       		.uleb128 0x3
 2522 00e9 08       		.uleb128 0x8
 2523 00ea 3A       		.uleb128 0x3a
 2524 00eb 0B       		.uleb128 0xb
 2525 00ec 3B       		.uleb128 0x3b
 2526 00ed 05       		.uleb128 0x5
 2527 00ee 49       		.uleb128 0x49
 2528 00ef 13       		.uleb128 0x13
 2529 00f0 3F       		.uleb128 0x3f
 2530 00f1 19       		.uleb128 0x19
 2531 00f2 3C       		.uleb128 0x3c
 2532 00f3 19       		.uleb128 0x19
 2533 00f4 00       		.byte	0
 2534 00f5 00       		.byte	0
 2535 00f6 15       		.uleb128 0x15
 2536 00f7 01       		.uleb128 0x1
 2537 00f8 01       		.byte	0x1
 2538 00f9 49       		.uleb128 0x49
 2539 00fa 13       		.uleb128 0x13
 2540 00fb 01       		.uleb128 0x1
 2541 00fc 13       		.uleb128 0x13
 2542 00fd 00       		.byte	0
 2543 00fe 00       		.byte	0
 2544 00ff 16       		.uleb128 0x16
 2545 0100 21       		.uleb128 0x21
 2546 0101 00       		.byte	0
 2547 0102 00       		.byte	0
 2548 0103 00       		.byte	0
 2549 0104 17       		.uleb128 0x17
 2550 0105 34       		.uleb128 0x34
 2551 0106 00       		.byte	0
ARM GAS  /var/folders/t8/16hdwfmd2fg_d3q6dgx6bpmw0000gn/T//ccgTUZMA.s 			page 46


 2552 0107 03       		.uleb128 0x3
 2553 0108 0E       		.uleb128 0xe
 2554 0109 3A       		.uleb128 0x3a
 2555 010a 0B       		.uleb128 0xb
 2556 010b 3B       		.uleb128 0x3b
 2557 010c 05       		.uleb128 0x5
 2558 010d 49       		.uleb128 0x49
 2559 010e 13       		.uleb128 0x13
 2560 010f 3F       		.uleb128 0x3f
 2561 0110 19       		.uleb128 0x19
 2562 0111 3C       		.uleb128 0x3c
 2563 0112 19       		.uleb128 0x19
 2564 0113 00       		.byte	0
 2565 0114 00       		.byte	0
 2566 0115 18       		.uleb128 0x18
 2567 0116 13       		.uleb128 0x13
 2568 0117 01       		.byte	0x1
 2569 0118 0B       		.uleb128 0xb
 2570 0119 0B       		.uleb128 0xb
 2571 011a 3A       		.uleb128 0x3a
 2572 011b 0B       		.uleb128 0xb
 2573 011c 3B       		.uleb128 0x3b
 2574 011d 0B       		.uleb128 0xb
 2575 011e 01       		.uleb128 0x1
 2576 011f 13       		.uleb128 0x13
 2577 0120 00       		.byte	0
 2578 0121 00       		.byte	0
 2579 0122 19       		.uleb128 0x19
 2580 0123 21       		.uleb128 0x21
 2581 0124 00       		.byte	0
 2582 0125 49       		.uleb128 0x49
 2583 0126 13       		.uleb128 0x13
 2584 0127 2F       		.uleb128 0x2f
 2585 0128 0B       		.uleb128 0xb
 2586 0129 00       		.byte	0
 2587 012a 00       		.byte	0
 2588 012b 1A       		.uleb128 0x1a
 2589 012c 34       		.uleb128 0x34
 2590 012d 00       		.byte	0
 2591 012e 03       		.uleb128 0x3
 2592 012f 0E       		.uleb128 0xe
 2593 0130 3A       		.uleb128 0x3a
 2594 0131 0B       		.uleb128 0xb
 2595 0132 3B       		.uleb128 0x3b
 2596 0133 0B       		.uleb128 0xb
 2597 0134 49       		.uleb128 0x49
 2598 0135 13       		.uleb128 0x13
 2599 0136 3F       		.uleb128 0x3f
 2600 0137 19       		.uleb128 0x19
 2601 0138 3C       		.uleb128 0x3c
 2602 0139 19       		.uleb128 0x19
 2603 013a 00       		.byte	0
 2604 013b 00       		.byte	0
 2605 013c 1B       		.uleb128 0x1b
 2606 013d 15       		.uleb128 0x15
 2607 013e 01       		.byte	0x1
 2608 013f 27       		.uleb128 0x27
ARM GAS  /var/folders/t8/16hdwfmd2fg_d3q6dgx6bpmw0000gn/T//ccgTUZMA.s 			page 47


 2609 0140 19       		.uleb128 0x19
 2610 0141 49       		.uleb128 0x49
 2611 0142 13       		.uleb128 0x13
 2612 0143 01       		.uleb128 0x1
 2613 0144 13       		.uleb128 0x13
 2614 0145 00       		.byte	0
 2615 0146 00       		.byte	0
 2616 0147 1C       		.uleb128 0x1c
 2617 0148 17       		.uleb128 0x17
 2618 0149 01       		.byte	0x1
 2619 014a 03       		.uleb128 0x3
 2620 014b 0E       		.uleb128 0xe
 2621 014c 0B       		.uleb128 0xb
 2622 014d 0B       		.uleb128 0xb
 2623 014e 3A       		.uleb128 0x3a
 2624 014f 0B       		.uleb128 0xb
 2625 0150 3B       		.uleb128 0x3b
 2626 0151 0B       		.uleb128 0xb
 2627 0152 01       		.uleb128 0x1
 2628 0153 13       		.uleb128 0x13
 2629 0154 00       		.byte	0
 2630 0155 00       		.byte	0
 2631 0156 1D       		.uleb128 0x1d
 2632 0157 34       		.uleb128 0x34
 2633 0158 00       		.byte	0
 2634 0159 03       		.uleb128 0x3
 2635 015a 0E       		.uleb128 0xe
 2636 015b 3A       		.uleb128 0x3a
 2637 015c 0B       		.uleb128 0xb
 2638 015d 3B       		.uleb128 0x3b
 2639 015e 0B       		.uleb128 0xb
 2640 015f 49       		.uleb128 0x49
 2641 0160 13       		.uleb128 0x13
 2642 0161 02       		.uleb128 0x2
 2643 0162 18       		.uleb128 0x18
 2644 0163 00       		.byte	0
 2645 0164 00       		.byte	0
 2646 0165 1E       		.uleb128 0x1e
 2647 0166 2E       		.uleb128 0x2e
 2648 0167 01       		.byte	0x1
 2649 0168 3F       		.uleb128 0x3f
 2650 0169 19       		.uleb128 0x19
 2651 016a 03       		.uleb128 0x3
 2652 016b 0E       		.uleb128 0xe
 2653 016c 3A       		.uleb128 0x3a
 2654 016d 0B       		.uleb128 0xb
 2655 016e 3B       		.uleb128 0x3b
 2656 016f 05       		.uleb128 0x5
 2657 0170 27       		.uleb128 0x27
 2658 0171 19       		.uleb128 0x19
 2659 0172 49       		.uleb128 0x49
 2660 0173 13       		.uleb128 0x13
 2661 0174 11       		.uleb128 0x11
 2662 0175 01       		.uleb128 0x1
 2663 0176 12       		.uleb128 0x12
 2664 0177 06       		.uleb128 0x6
 2665 0178 40       		.uleb128 0x40
ARM GAS  /var/folders/t8/16hdwfmd2fg_d3q6dgx6bpmw0000gn/T//ccgTUZMA.s 			page 48


 2666 0179 18       		.uleb128 0x18
 2667 017a 9742     		.uleb128 0x2117
 2668 017c 19       		.uleb128 0x19
 2669 017d 01       		.uleb128 0x1
 2670 017e 13       		.uleb128 0x13
 2671 017f 00       		.byte	0
 2672 0180 00       		.byte	0
 2673 0181 1F       		.uleb128 0x1f
 2674 0182 05       		.uleb128 0x5
 2675 0183 00       		.byte	0
 2676 0184 03       		.uleb128 0x3
 2677 0185 0E       		.uleb128 0xe
 2678 0186 3A       		.uleb128 0x3a
 2679 0187 0B       		.uleb128 0xb
 2680 0188 3B       		.uleb128 0x3b
 2681 0189 05       		.uleb128 0x5
 2682 018a 49       		.uleb128 0x49
 2683 018b 13       		.uleb128 0x13
 2684 018c 02       		.uleb128 0x2
 2685 018d 17       		.uleb128 0x17
 2686 018e 00       		.byte	0
 2687 018f 00       		.byte	0
 2688 0190 20       		.uleb128 0x20
 2689 0191 34       		.uleb128 0x34
 2690 0192 00       		.byte	0
 2691 0193 03       		.uleb128 0x3
 2692 0194 08       		.uleb128 0x8
 2693 0195 3A       		.uleb128 0x3a
 2694 0196 0B       		.uleb128 0xb
 2695 0197 3B       		.uleb128 0x3b
 2696 0198 05       		.uleb128 0x5
 2697 0199 49       		.uleb128 0x49
 2698 019a 13       		.uleb128 0x13
 2699 019b 02       		.uleb128 0x2
 2700 019c 17       		.uleb128 0x17
 2701 019d 00       		.byte	0
 2702 019e 00       		.byte	0
 2703 019f 21       		.uleb128 0x21
 2704 01a0 34       		.uleb128 0x34
 2705 01a1 00       		.byte	0
 2706 01a2 03       		.uleb128 0x3
 2707 01a3 0E       		.uleb128 0xe
 2708 01a4 3A       		.uleb128 0x3a
 2709 01a5 0B       		.uleb128 0xb
 2710 01a6 3B       		.uleb128 0x3b
 2711 01a7 05       		.uleb128 0x5
 2712 01a8 49       		.uleb128 0x49
 2713 01a9 13       		.uleb128 0x13
 2714 01aa 02       		.uleb128 0x2
 2715 01ab 17       		.uleb128 0x17
 2716 01ac 00       		.byte	0
 2717 01ad 00       		.byte	0
 2718 01ae 22       		.uleb128 0x22
 2719 01af 0B       		.uleb128 0xb
 2720 01b0 01       		.byte	0x1
 2721 01b1 11       		.uleb128 0x11
 2722 01b2 01       		.uleb128 0x1
ARM GAS  /var/folders/t8/16hdwfmd2fg_d3q6dgx6bpmw0000gn/T//ccgTUZMA.s 			page 49


 2723 01b3 12       		.uleb128 0x12
 2724 01b4 06       		.uleb128 0x6
 2725 01b5 01       		.uleb128 0x1
 2726 01b6 13       		.uleb128 0x13
 2727 01b7 00       		.byte	0
 2728 01b8 00       		.byte	0
 2729 01b9 23       		.uleb128 0x23
 2730 01ba 898201   		.uleb128 0x4109
 2731 01bd 01       		.byte	0x1
 2732 01be 11       		.uleb128 0x11
 2733 01bf 01       		.uleb128 0x1
 2734 01c0 31       		.uleb128 0x31
 2735 01c1 13       		.uleb128 0x13
 2736 01c2 01       		.uleb128 0x1
 2737 01c3 13       		.uleb128 0x13
 2738 01c4 00       		.byte	0
 2739 01c5 00       		.byte	0
 2740 01c6 24       		.uleb128 0x24
 2741 01c7 8A8201   		.uleb128 0x410a
 2742 01ca 00       		.byte	0
 2743 01cb 02       		.uleb128 0x2
 2744 01cc 18       		.uleb128 0x18
 2745 01cd 9142     		.uleb128 0x2111
 2746 01cf 18       		.uleb128 0x18
 2747 01d0 00       		.byte	0
 2748 01d1 00       		.byte	0
 2749 01d2 25       		.uleb128 0x25
 2750 01d3 898201   		.uleb128 0x4109
 2751 01d6 01       		.byte	0x1
 2752 01d7 11       		.uleb128 0x11
 2753 01d8 01       		.uleb128 0x1
 2754 01d9 31       		.uleb128 0x31
 2755 01da 13       		.uleb128 0x13
 2756 01db 00       		.byte	0
 2757 01dc 00       		.byte	0
 2758 01dd 26       		.uleb128 0x26
 2759 01de 2E       		.uleb128 0x2e
 2760 01df 01       		.byte	0x1
 2761 01e0 3F       		.uleb128 0x3f
 2762 01e1 19       		.uleb128 0x19
 2763 01e2 03       		.uleb128 0x3
 2764 01e3 0E       		.uleb128 0xe
 2765 01e4 3A       		.uleb128 0x3a
 2766 01e5 0B       		.uleb128 0xb
 2767 01e6 3B       		.uleb128 0x3b
 2768 01e7 05       		.uleb128 0x5
 2769 01e8 27       		.uleb128 0x27
 2770 01e9 19       		.uleb128 0x19
 2771 01ea 11       		.uleb128 0x11
 2772 01eb 01       		.uleb128 0x1
 2773 01ec 12       		.uleb128 0x12
 2774 01ed 06       		.uleb128 0x6
 2775 01ee 40       		.uleb128 0x40
 2776 01ef 18       		.uleb128 0x18
 2777 01f0 9742     		.uleb128 0x2117
 2778 01f2 19       		.uleb128 0x19
 2779 01f3 01       		.uleb128 0x1
ARM GAS  /var/folders/t8/16hdwfmd2fg_d3q6dgx6bpmw0000gn/T//ccgTUZMA.s 			page 50


 2780 01f4 13       		.uleb128 0x13
 2781 01f5 00       		.byte	0
 2782 01f6 00       		.byte	0
 2783 01f7 27       		.uleb128 0x27
 2784 01f8 05       		.uleb128 0x5
 2785 01f9 00       		.byte	0
 2786 01fa 03       		.uleb128 0x3
 2787 01fb 08       		.uleb128 0x8
 2788 01fc 3A       		.uleb128 0x3a
 2789 01fd 0B       		.uleb128 0xb
 2790 01fe 3B       		.uleb128 0x3b
 2791 01ff 05       		.uleb128 0x5
 2792 0200 49       		.uleb128 0x49
 2793 0201 13       		.uleb128 0x13
 2794 0202 02       		.uleb128 0x2
 2795 0203 17       		.uleb128 0x17
 2796 0204 00       		.byte	0
 2797 0205 00       		.byte	0
 2798 0206 28       		.uleb128 0x28
 2799 0207 34       		.uleb128 0x34
 2800 0208 00       		.byte	0
 2801 0209 03       		.uleb128 0x3
 2802 020a 0E       		.uleb128 0xe
 2803 020b 49       		.uleb128 0x49
 2804 020c 13       		.uleb128 0x13
 2805 020d 34       		.uleb128 0x34
 2806 020e 19       		.uleb128 0x19
 2807 020f 02       		.uleb128 0x2
 2808 0210 18       		.uleb128 0x18
 2809 0211 00       		.byte	0
 2810 0212 00       		.byte	0
 2811 0213 29       		.uleb128 0x29
 2812 0214 2E       		.uleb128 0x2e
 2813 0215 01       		.byte	0x1
 2814 0216 3F       		.uleb128 0x3f
 2815 0217 19       		.uleb128 0x19
 2816 0218 03       		.uleb128 0x3
 2817 0219 0E       		.uleb128 0xe
 2818 021a 3A       		.uleb128 0x3a
 2819 021b 0B       		.uleb128 0xb
 2820 021c 3B       		.uleb128 0x3b
 2821 021d 0B       		.uleb128 0xb
 2822 021e 27       		.uleb128 0x27
 2823 021f 19       		.uleb128 0x19
 2824 0220 49       		.uleb128 0x49
 2825 0221 13       		.uleb128 0x13
 2826 0222 11       		.uleb128 0x11
 2827 0223 01       		.uleb128 0x1
 2828 0224 12       		.uleb128 0x12
 2829 0225 06       		.uleb128 0x6
 2830 0226 40       		.uleb128 0x40
 2831 0227 18       		.uleb128 0x18
 2832 0228 9742     		.uleb128 0x2117
 2833 022a 19       		.uleb128 0x19
 2834 022b 01       		.uleb128 0x1
 2835 022c 13       		.uleb128 0x13
 2836 022d 00       		.byte	0
ARM GAS  /var/folders/t8/16hdwfmd2fg_d3q6dgx6bpmw0000gn/T//ccgTUZMA.s 			page 51


 2837 022e 00       		.byte	0
 2838 022f 2A       		.uleb128 0x2a
 2839 0230 05       		.uleb128 0x5
 2840 0231 00       		.byte	0
 2841 0232 03       		.uleb128 0x3
 2842 0233 0E       		.uleb128 0xe
 2843 0234 3A       		.uleb128 0x3a
 2844 0235 0B       		.uleb128 0xb
 2845 0236 3B       		.uleb128 0x3b
 2846 0237 0B       		.uleb128 0xb
 2847 0238 49       		.uleb128 0x49
 2848 0239 13       		.uleb128 0x13
 2849 023a 02       		.uleb128 0x2
 2850 023b 17       		.uleb128 0x17
 2851 023c 00       		.byte	0
 2852 023d 00       		.byte	0
 2853 023e 2B       		.uleb128 0x2b
 2854 023f 34       		.uleb128 0x34
 2855 0240 00       		.byte	0
 2856 0241 03       		.uleb128 0x3
 2857 0242 08       		.uleb128 0x8
 2858 0243 3A       		.uleb128 0x3a
 2859 0244 0B       		.uleb128 0xb
 2860 0245 3B       		.uleb128 0x3b
 2861 0246 0B       		.uleb128 0xb
 2862 0247 49       		.uleb128 0x49
 2863 0248 13       		.uleb128 0x13
 2864 0249 02       		.uleb128 0x2
 2865 024a 17       		.uleb128 0x17
 2866 024b 00       		.byte	0
 2867 024c 00       		.byte	0
 2868 024d 2C       		.uleb128 0x2c
 2869 024e 34       		.uleb128 0x34
 2870 024f 00       		.byte	0
 2871 0250 03       		.uleb128 0x3
 2872 0251 0E       		.uleb128 0xe
 2873 0252 3A       		.uleb128 0x3a
 2874 0253 0B       		.uleb128 0xb
 2875 0254 3B       		.uleb128 0x3b
 2876 0255 0B       		.uleb128 0xb
 2877 0256 49       		.uleb128 0x49
 2878 0257 13       		.uleb128 0x13
 2879 0258 02       		.uleb128 0x2
 2880 0259 17       		.uleb128 0x17
 2881 025a 00       		.byte	0
 2882 025b 00       		.byte	0
 2883 025c 2D       		.uleb128 0x2d
 2884 025d 0B       		.uleb128 0xb
 2885 025e 01       		.byte	0x1
 2886 025f 55       		.uleb128 0x55
 2887 0260 17       		.uleb128 0x17
 2888 0261 01       		.uleb128 0x1
 2889 0262 13       		.uleb128 0x13
 2890 0263 00       		.byte	0
 2891 0264 00       		.byte	0
 2892 0265 2E       		.uleb128 0x2e
 2893 0266 0B       		.uleb128 0xb
ARM GAS  /var/folders/t8/16hdwfmd2fg_d3q6dgx6bpmw0000gn/T//ccgTUZMA.s 			page 52


 2894 0267 01       		.byte	0x1
 2895 0268 11       		.uleb128 0x11
 2896 0269 01       		.uleb128 0x1
 2897 026a 12       		.uleb128 0x12
 2898 026b 06       		.uleb128 0x6
 2899 026c 00       		.byte	0
 2900 026d 00       		.byte	0
 2901 026e 2F       		.uleb128 0x2f
 2902 026f 898201   		.uleb128 0x4109
 2903 0272 01       		.byte	0x1
 2904 0273 11       		.uleb128 0x11
 2905 0274 01       		.uleb128 0x1
 2906 0275 00       		.byte	0
 2907 0276 00       		.byte	0
 2908 0277 30       		.uleb128 0x30
 2909 0278 2E       		.uleb128 0x2e
 2910 0279 01       		.byte	0x1
 2911 027a 3F       		.uleb128 0x3f
 2912 027b 19       		.uleb128 0x19
 2913 027c 03       		.uleb128 0x3
 2914 027d 0E       		.uleb128 0xe
 2915 027e 3A       		.uleb128 0x3a
 2916 027f 0B       		.uleb128 0xb
 2917 0280 3B       		.uleb128 0x3b
 2918 0281 0B       		.uleb128 0xb
 2919 0282 27       		.uleb128 0x27
 2920 0283 19       		.uleb128 0x19
 2921 0284 11       		.uleb128 0x11
 2922 0285 01       		.uleb128 0x1
 2923 0286 12       		.uleb128 0x12
 2924 0287 06       		.uleb128 0x6
 2925 0288 40       		.uleb128 0x40
 2926 0289 18       		.uleb128 0x18
 2927 028a 9742     		.uleb128 0x2117
 2928 028c 19       		.uleb128 0x19
 2929 028d 01       		.uleb128 0x1
 2930 028e 13       		.uleb128 0x13
 2931 028f 00       		.byte	0
 2932 0290 00       		.byte	0
 2933 0291 31       		.uleb128 0x31
 2934 0292 05       		.uleb128 0x5
 2935 0293 00       		.byte	0
 2936 0294 03       		.uleb128 0x3
 2937 0295 08       		.uleb128 0x8
 2938 0296 3A       		.uleb128 0x3a
 2939 0297 0B       		.uleb128 0xb
 2940 0298 3B       		.uleb128 0x3b
 2941 0299 0B       		.uleb128 0xb
 2942 029a 49       		.uleb128 0x49
 2943 029b 13       		.uleb128 0x13
 2944 029c 02       		.uleb128 0x2
 2945 029d 17       		.uleb128 0x17
 2946 029e 00       		.byte	0
 2947 029f 00       		.byte	0
 2948 02a0 32       		.uleb128 0x32
 2949 02a1 2E       		.uleb128 0x2e
 2950 02a2 00       		.byte	0
ARM GAS  /var/folders/t8/16hdwfmd2fg_d3q6dgx6bpmw0000gn/T//ccgTUZMA.s 			page 53


 2951 02a3 3F       		.uleb128 0x3f
 2952 02a4 19       		.uleb128 0x19
 2953 02a5 3C       		.uleb128 0x3c
 2954 02a6 19       		.uleb128 0x19
 2955 02a7 6E       		.uleb128 0x6e
 2956 02a8 0E       		.uleb128 0xe
 2957 02a9 03       		.uleb128 0x3
 2958 02aa 0E       		.uleb128 0xe
 2959 02ab 3A       		.uleb128 0x3a
 2960 02ac 0B       		.uleb128 0xb
 2961 02ad 3B       		.uleb128 0x3b
 2962 02ae 0B       		.uleb128 0xb
 2963 02af 00       		.byte	0
 2964 02b0 00       		.byte	0
 2965 02b1 33       		.uleb128 0x33
 2966 02b2 2E       		.uleb128 0x2e
 2967 02b3 00       		.byte	0
 2968 02b4 3F       		.uleb128 0x3f
 2969 02b5 19       		.uleb128 0x19
 2970 02b6 3C       		.uleb128 0x3c
 2971 02b7 19       		.uleb128 0x19
 2972 02b8 6E       		.uleb128 0x6e
 2973 02b9 0E       		.uleb128 0xe
 2974 02ba 03       		.uleb128 0x3
 2975 02bb 0E       		.uleb128 0xe
 2976 02bc 3A       		.uleb128 0x3a
 2977 02bd 0B       		.uleb128 0xb
 2978 02be 3B       		.uleb128 0x3b
 2979 02bf 05       		.uleb128 0x5
 2980 02c0 00       		.byte	0
 2981 02c1 00       		.byte	0
 2982 02c2 00       		.byte	0
 2983              		.section	.debug_loc,"",%progbits
 2984              	.Ldebug_loc0:
 2985              	.LLST18:
 2986 0000 00000000 		.4byte	.LVL68
 2987 0004 0C000000 		.4byte	.LVL69
 2988 0008 0100     		.2byte	0x1
 2989 000a 50       		.byte	0x50
 2990 000b 0C000000 		.4byte	.LVL69
 2991 000f 1E000000 		.4byte	.LVL71
 2992 0013 0100     		.2byte	0x1
 2993 0015 54       		.byte	0x54
 2994 0016 1E000000 		.4byte	.LVL71
 2995 001a 4C000000 		.4byte	.LVL80
 2996 001e 0300     		.2byte	0x3
 2997 0020 75       		.byte	0x75
 2998 0021 70       		.sleb128 -16
 2999 0022 9F       		.byte	0x9f
 3000 0023 4E000000 		.4byte	.LVL83
 3001 0027 58000000 		.4byte	.LFE142
 3002 002b 0100     		.2byte	0x1
 3003 002d 50       		.byte	0x50
 3004 002e 00000000 		.4byte	0
 3005 0032 00000000 		.4byte	0
 3006              	.LLST19:
 3007 0036 00000000 		.4byte	.LVL68
ARM GAS  /var/folders/t8/16hdwfmd2fg_d3q6dgx6bpmw0000gn/T//ccgTUZMA.s 			page 54


 3008 003a 15000000 		.4byte	.LVL70-1
 3009 003e 0100     		.2byte	0x1
 3010 0040 51       		.byte	0x51
 3011 0041 15000000 		.4byte	.LVL70-1
 3012 0045 4C000000 		.4byte	.LVL82
 3013 0049 0100     		.2byte	0x1
 3014 004b 57       		.byte	0x57
 3015 004c 4C000000 		.4byte	.LVL82
 3016 0050 4E000000 		.4byte	.LVL83
 3017 0054 0400     		.2byte	0x4
 3018 0056 F3       		.byte	0xf3
 3019 0057 01       		.uleb128 0x1
 3020 0058 51       		.byte	0x51
 3021 0059 9F       		.byte	0x9f
 3022 005a 4E000000 		.4byte	.LVL83
 3023 005e 58000000 		.4byte	.LFE142
 3024 0062 0100     		.2byte	0x1
 3025 0064 51       		.byte	0x51
 3026 0065 00000000 		.4byte	0
 3027 0069 00000000 		.4byte	0
 3028              	.LLST20:
 3029 006d 00000000 		.4byte	.LVL68
 3030 0071 15000000 		.4byte	.LVL70-1
 3031 0075 0100     		.2byte	0x1
 3032 0077 52       		.byte	0x52
 3033 0078 15000000 		.4byte	.LVL70-1
 3034 007c 4C000000 		.4byte	.LVL81
 3035 0080 0100     		.2byte	0x1
 3036 0082 56       		.byte	0x56
 3037 0083 4C000000 		.4byte	.LVL81
 3038 0087 4E000000 		.4byte	.LVL83
 3039 008b 0400     		.2byte	0x4
 3040 008d F3       		.byte	0xf3
 3041 008e 01       		.uleb128 0x1
 3042 008f 52       		.byte	0x52
 3043 0090 9F       		.byte	0x9f
 3044 0091 4E000000 		.4byte	.LVL83
 3045 0095 58000000 		.4byte	.LFE142
 3046 0099 0100     		.2byte	0x1
 3047 009b 52       		.byte	0x52
 3048 009c 00000000 		.4byte	0
 3049 00a0 00000000 		.4byte	0
 3050              	.LLST21:
 3051 00a4 16000000 		.4byte	.LVL70
 3052 00a8 1E000000 		.4byte	.LVL71
 3053 00ac 0300     		.2byte	0x3
 3054 00ae 74       		.byte	0x74
 3055 00af 08       		.sleb128 8
 3056 00b0 9F       		.byte	0x9f
 3057 00b1 1E000000 		.4byte	.LVL71
 3058 00b5 2E000000 		.4byte	.LVL76
 3059 00b9 0300     		.2byte	0x3
 3060 00bb 75       		.byte	0x75
 3061 00bc 78       		.sleb128 -8
 3062 00bd 9F       		.byte	0x9f
 3063 00be 2E000000 		.4byte	.LVL76
 3064 00c2 30000000 		.4byte	.LVL77
ARM GAS  /var/folders/t8/16hdwfmd2fg_d3q6dgx6bpmw0000gn/T//ccgTUZMA.s 			page 55


 3065 00c6 0100     		.2byte	0x1
 3066 00c8 53       		.byte	0x53
 3067 00c9 00000000 		.4byte	0
 3068 00cd 00000000 		.4byte	0
 3069              	.LLST22:
 3070 00d1 16000000 		.4byte	.LVL70
 3071 00d5 22000000 		.4byte	.LVL72
 3072 00d9 0200     		.2byte	0x2
 3073 00db 30       		.byte	0x30
 3074 00dc 9F       		.byte	0x9f
 3075 00dd 22000000 		.4byte	.LVL72
 3076 00e1 34000000 		.4byte	.LVL78
 3077 00e5 0100     		.2byte	0x1
 3078 00e7 54       		.byte	0x54
 3079 00e8 00000000 		.4byte	0
 3080 00ec 00000000 		.4byte	0
 3081              	.LLST23:
 3082 00f0 16000000 		.4byte	.LVL70
 3083 00f4 22000000 		.4byte	.LVL72
 3084 00f8 0200     		.2byte	0x2
 3085 00fa 30       		.byte	0x30
 3086 00fb 9F       		.byte	0x9f
 3087 00fc 22000000 		.4byte	.LVL72
 3088 0100 34000000 		.4byte	.LVL78
 3089 0104 0100     		.2byte	0x1
 3090 0106 51       		.byte	0x51
 3091 0107 00000000 		.4byte	0
 3092 010b 00000000 		.4byte	0
 3093              	.LLST24:
 3094 010f 16000000 		.4byte	.LVL70
 3095 0113 22000000 		.4byte	.LVL72
 3096 0117 0200     		.2byte	0x2
 3097 0119 30       		.byte	0x30
 3098 011a 9F       		.byte	0x9f
 3099 011b 22000000 		.4byte	.LVL72
 3100 011f 34000000 		.4byte	.LVL78
 3101 0123 0100     		.2byte	0x1
 3102 0125 50       		.byte	0x50
 3103 0126 00000000 		.4byte	0
 3104 012a 00000000 		.4byte	0
 3105              	.LLST25:
 3106 012e 24000000 		.4byte	.LVL73
 3107 0132 34000000 		.4byte	.LVL78
 3108 0136 0100     		.2byte	0x1
 3109 0138 52       		.byte	0x52
 3110 0139 00000000 		.4byte	0
 3111 013d 00000000 		.4byte	0
 3112              	.LLST14:
 3113 0141 00000000 		.4byte	.LVL48
 3114 0145 10000000 		.4byte	.LVL49
 3115 0149 0100     		.2byte	0x1
 3116 014b 50       		.byte	0x50
 3117 014c 10000000 		.4byte	.LVL49
 3118 0150 12000000 		.4byte	.LVL50
 3119 0154 0100     		.2byte	0x1
 3120 0156 55       		.byte	0x55
 3121 0157 12000000 		.4byte	.LVL50
ARM GAS  /var/folders/t8/16hdwfmd2fg_d3q6dgx6bpmw0000gn/T//ccgTUZMA.s 			page 56


 3122 015b 78000000 		.4byte	.LVL60
 3123 015f 0300     		.2byte	0x3
 3124 0161 75       		.byte	0x75
 3125 0162 08       		.sleb128 8
 3126 0163 9F       		.byte	0x9f
 3127 0164 78000000 		.4byte	.LVL60
 3128 0168 7E000000 		.4byte	.LVL63
 3129 016c 0400     		.2byte	0x4
 3130 016e F3       		.byte	0xf3
 3131 016f 01       		.uleb128 0x1
 3132 0170 50       		.byte	0x50
 3133 0171 9F       		.byte	0x9f
 3134 0172 7E000000 		.4byte	.LVL63
 3135 0176 80000000 		.4byte	.LVL64
 3136 017a 0100     		.2byte	0x1
 3137 017c 50       		.byte	0x50
 3138 017d 80000000 		.4byte	.LVL64
 3139 0181 86000000 		.4byte	.LVL66
 3140 0185 0100     		.2byte	0x1
 3141 0187 55       		.byte	0x55
 3142 0188 86000000 		.4byte	.LVL66
 3143 018c B8000000 		.4byte	.LFE141
 3144 0190 0300     		.2byte	0x3
 3145 0192 75       		.byte	0x75
 3146 0193 08       		.sleb128 8
 3147 0194 9F       		.byte	0x9f
 3148 0195 00000000 		.4byte	0
 3149 0199 00000000 		.4byte	0
 3150              	.LLST15:
 3151 019d 2A000000 		.4byte	.LVL54
 3152 01a1 2E000000 		.4byte	.LVL55
 3153 01a5 0100     		.2byte	0x1
 3154 01a7 56       		.byte	0x56
 3155 01a8 2E000000 		.4byte	.LVL55
 3156 01ac 52000000 		.4byte	.LVL56
 3157 01b0 0100     		.2byte	0x1
 3158 01b2 54       		.byte	0x54
 3159 01b3 54000000 		.4byte	.LVL57
 3160 01b7 78000000 		.4byte	.LVL59
 3161 01bb 0100     		.2byte	0x1
 3162 01bd 54       		.byte	0x54
 3163 01be 86000000 		.4byte	.LVL66
 3164 01c2 B8000000 		.4byte	.LFE141
 3165 01c6 0100     		.2byte	0x1
 3166 01c8 54       		.byte	0x54
 3167 01c9 00000000 		.4byte	0
 3168 01cd 00000000 		.4byte	0
 3169              	.LLST16:
 3170 01d1 12000000 		.4byte	.LVL50
 3171 01d5 78000000 		.4byte	.LVL60
 3172 01d9 0100     		.2byte	0x1
 3173 01db 55       		.byte	0x55
 3174 01dc 78000000 		.4byte	.LVL60
 3175 01e0 7E000000 		.4byte	.LVL63
 3176 01e4 0600     		.2byte	0x6
 3177 01e6 F3       		.byte	0xf3
 3178 01e7 01       		.uleb128 0x1
ARM GAS  /var/folders/t8/16hdwfmd2fg_d3q6dgx6bpmw0000gn/T//ccgTUZMA.s 			page 57


 3179 01e8 50       		.byte	0x50
 3180 01e9 38       		.byte	0x38
 3181 01ea 1C       		.byte	0x1c
 3182 01eb 9F       		.byte	0x9f
 3183 01ec 86000000 		.4byte	.LVL66
 3184 01f0 B8000000 		.4byte	.LFE141
 3185 01f4 0100     		.2byte	0x1
 3186 01f6 55       		.byte	0x55
 3187 01f7 00000000 		.4byte	0
 3188 01fb 00000000 		.4byte	0
 3189              	.LLST17:
 3190 01ff 14000000 		.4byte	.LVL51
 3191 0203 1E000000 		.4byte	.LVL52
 3192 0207 0100     		.2byte	0x1
 3193 0209 57       		.byte	0x57
 3194 020a 1E000000 		.4byte	.LVL52
 3195 020e 2A000000 		.4byte	.LVL54
 3196 0212 0100     		.2byte	0x1
 3197 0214 56       		.byte	0x56
 3198 0215 2A000000 		.4byte	.LVL54
 3199 0219 78000000 		.4byte	.LVL61
 3200 021d 0300     		.2byte	0x3
 3201 021f 76       		.byte	0x76
 3202 0220 78       		.sleb128 -8
 3203 0221 9F       		.byte	0x9f
 3204 0222 78000000 		.4byte	.LVL61
 3205 0226 78000000 		.4byte	.LVL62
 3206 022a 0300     		.2byte	0x3
 3207 022c 77       		.byte	0x77
 3208 022d 70       		.sleb128 -16
 3209 022e 9F       		.byte	0x9f
 3210 022f 86000000 		.4byte	.LVL66
 3211 0233 B8000000 		.4byte	.LFE141
 3212 0237 0300     		.2byte	0x3
 3213 0239 76       		.byte	0x76
 3214 023a 78       		.sleb128 -8
 3215 023b 9F       		.byte	0x9f
 3216 023c 00000000 		.4byte	0
 3217 0240 00000000 		.4byte	0
 3218              	.LLST4:
 3219 0244 00000000 		.4byte	.LVL10
 3220 0248 1E000000 		.4byte	.LVL11
 3221 024c 0100     		.2byte	0x1
 3222 024e 50       		.byte	0x50
 3223 024f 1E000000 		.4byte	.LVL11
 3224 0253 BC000000 		.4byte	.LVL30
 3225 0257 0100     		.2byte	0x1
 3226 0259 59       		.byte	0x59
 3227 025a C8000000 		.4byte	.LVL32
 3228 025e D4000000 		.4byte	.LVL33
 3229 0262 0100     		.2byte	0x1
 3230 0264 50       		.byte	0x50
 3231 0265 D4000000 		.4byte	.LVL33
 3232 0269 D6000000 		.4byte	.LVL34
 3233 026d 0100     		.2byte	0x1
 3234 026f 53       		.byte	0x53
 3235 0270 D6000000 		.4byte	.LVL34
ARM GAS  /var/folders/t8/16hdwfmd2fg_d3q6dgx6bpmw0000gn/T//ccgTUZMA.s 			page 58


 3236 0274 D8000000 		.4byte	.LVL35
 3237 0278 0100     		.2byte	0x1
 3238 027a 59       		.byte	0x59
 3239 027b D8000000 		.4byte	.LVL35
 3240 027f DA000000 		.4byte	.LVL36
 3241 0283 0400     		.2byte	0x4
 3242 0285 F3       		.byte	0xf3
 3243 0286 01       		.uleb128 0x1
 3244 0287 50       		.byte	0x50
 3245 0288 9F       		.byte	0x9f
 3246 0289 DA000000 		.4byte	.LVL36
 3247 028d 4C010000 		.4byte	.LFE140
 3248 0291 0100     		.2byte	0x1
 3249 0293 59       		.byte	0x59
 3250 0294 00000000 		.4byte	0
 3251 0298 00000000 		.4byte	0
 3252              	.LLST5:
 3253 029c 00000000 		.4byte	.LVL10
 3254 02a0 21000000 		.4byte	.LVL12-1
 3255 02a4 0100     		.2byte	0x1
 3256 02a6 51       		.byte	0x51
 3257 02a7 21000000 		.4byte	.LVL12-1
 3258 02ab C8000000 		.4byte	.LVL32
 3259 02af 0200     		.2byte	0x2
 3260 02b1 91       		.byte	0x91
 3261 02b2 50       		.sleb128 -48
 3262 02b3 C8000000 		.4byte	.LVL32
 3263 02b7 D4000000 		.4byte	.LVL33
 3264 02bb 0100     		.2byte	0x1
 3265 02bd 51       		.byte	0x51
 3266 02be D4000000 		.4byte	.LVL33
 3267 02c2 4C010000 		.4byte	.LFE140
 3268 02c6 0200     		.2byte	0x2
 3269 02c8 91       		.byte	0x91
 3270 02c9 50       		.sleb128 -48
 3271 02ca 00000000 		.4byte	0
 3272 02ce 00000000 		.4byte	0
 3273              	.LLST6:
 3274 02d2 00000000 		.4byte	.LVL10
 3275 02d6 21000000 		.4byte	.LVL12-1
 3276 02da 0100     		.2byte	0x1
 3277 02dc 52       		.byte	0x52
 3278 02dd 21000000 		.4byte	.LVL12-1
 3279 02e1 32000000 		.4byte	.LVL14
 3280 02e5 0100     		.2byte	0x1
 3281 02e7 54       		.byte	0x54
 3282 02e8 32000000 		.4byte	.LVL14
 3283 02ec BC000000 		.4byte	.LVL29
 3284 02f0 0100     		.2byte	0x1
 3285 02f2 58       		.byte	0x58
 3286 02f3 BC000000 		.4byte	.LVL29
 3287 02f7 BC000000 		.4byte	.LVL31
 3288 02fb 0400     		.2byte	0x4
 3289 02fd 7A       		.byte	0x7a
 3290 02fe 00       		.sleb128 0
 3291 02ff 1F       		.byte	0x1f
 3292 0300 9F       		.byte	0x9f
ARM GAS  /var/folders/t8/16hdwfmd2fg_d3q6dgx6bpmw0000gn/T//ccgTUZMA.s 			page 59


 3293 0301 C8000000 		.4byte	.LVL32
 3294 0305 D4000000 		.4byte	.LVL33
 3295 0309 0100     		.2byte	0x1
 3296 030b 52       		.byte	0x52
 3297 030c D4000000 		.4byte	.LVL33
 3298 0310 DA000000 		.4byte	.LVL36
 3299 0314 0100     		.2byte	0x1
 3300 0316 54       		.byte	0x54
 3301 0317 DA000000 		.4byte	.LVL36
 3302 031b 4C010000 		.4byte	.LFE140
 3303 031f 0100     		.2byte	0x1
 3304 0321 58       		.byte	0x58
 3305 0322 00000000 		.4byte	0
 3306 0326 00000000 		.4byte	0
 3307              	.LLST7:
 3308 032a 54000000 		.4byte	.LVL18
 3309 032e BC000000 		.4byte	.LVL28
 3310 0332 0100     		.2byte	0x1
 3311 0334 55       		.byte	0x55
 3312 0335 DA000000 		.4byte	.LVL36
 3313 0339 4C010000 		.4byte	.LFE140
 3314 033d 0100     		.2byte	0x1
 3315 033f 55       		.byte	0x55
 3316 0340 00000000 		.4byte	0
 3317 0344 00000000 		.4byte	0
 3318              	.LLST8:
 3319 0348 60000000 		.4byte	.LVL19
 3320 034c 8C000000 		.4byte	.LVL22
 3321 0350 0100     		.2byte	0x1
 3322 0352 51       		.byte	0x51
 3323 0353 8C000000 		.4byte	.LVL22
 3324 0357 90000000 		.4byte	.LVL23
 3325 035b 0100     		.2byte	0x1
 3326 035d 55       		.byte	0x55
 3327 035e A8000000 		.4byte	.LVL25
 3328 0362 B6000000 		.4byte	.LVL26
 3329 0366 0100     		.2byte	0x1
 3330 0368 50       		.byte	0x50
 3331 0369 B6000000 		.4byte	.LVL26
 3332 036d B8000000 		.4byte	.LVL27
 3333 0371 0300     		.2byte	0x3
 3334 0373 70       		.byte	0x70
 3335 0374 78       		.sleb128 -8
 3336 0375 9F       		.byte	0x9f
 3337 0376 DA000000 		.4byte	.LVL36
 3338 037a 06010000 		.4byte	.LVL40
 3339 037e 0100     		.2byte	0x1
 3340 0380 51       		.byte	0x51
 3341 0381 06010000 		.4byte	.LVL40
 3342 0385 16010000 		.4byte	.LVL42
 3343 0389 0100     		.2byte	0x1
 3344 038b 56       		.byte	0x56
 3345 038c 16010000 		.4byte	.LVL42
 3346 0390 3E010000 		.4byte	.LVL47
 3347 0394 0100     		.2byte	0x1
 3348 0396 51       		.byte	0x51
 3349 0397 00000000 		.4byte	0
ARM GAS  /var/folders/t8/16hdwfmd2fg_d3q6dgx6bpmw0000gn/T//ccgTUZMA.s 			page 60


 3350 039b 00000000 		.4byte	0
 3351              	.LLST9:
 3352 039f 3C000000 		.4byte	.LVL15
 3353 03a3 3E000000 		.4byte	.LVL16
 3354 03a7 0100     		.2byte	0x1
 3355 03a9 53       		.byte	0x53
 3356 03aa 3E000000 		.4byte	.LVL16
 3357 03ae C8000000 		.4byte	.LVL32
 3358 03b2 0200     		.2byte	0x2
 3359 03b4 91       		.byte	0x91
 3360 03b5 4C       		.sleb128 -52
 3361 03b6 DA000000 		.4byte	.LVL36
 3362 03ba 4C010000 		.4byte	.LFE140
 3363 03be 0200     		.2byte	0x2
 3364 03c0 91       		.byte	0x91
 3365 03c1 4C       		.sleb128 -52
 3366 03c2 00000000 		.4byte	0
 3367 03c6 00000000 		.4byte	0
 3368              	.LLST10:
 3369 03ca 70000000 		.4byte	.LVL20
 3370 03ce 90000000 		.4byte	.LVL23
 3371 03d2 0100     		.2byte	0x1
 3372 03d4 50       		.byte	0x50
 3373 03d5 DA000000 		.4byte	.LVL36
 3374 03d9 E0000000 		.4byte	.LVL37
 3375 03dd 0100     		.2byte	0x1
 3376 03df 50       		.byte	0x50
 3377 03e0 E0000000 		.4byte	.LVL37
 3378 03e4 FC000000 		.4byte	.LVL39
 3379 03e8 0100     		.2byte	0x1
 3380 03ea 56       		.byte	0x56
 3381 03eb FC000000 		.4byte	.LVL39
 3382 03ef 13010000 		.4byte	.LVL41-1
 3383 03f3 0300     		.2byte	0x3
 3384 03f5 7C       		.byte	0x7c
 3385 03f6 78       		.sleb128 -8
 3386 03f7 9F       		.byte	0x9f
 3387 03f8 16010000 		.4byte	.LVL42
 3388 03fc 3C010000 		.4byte	.LVL46
 3389 0400 0100     		.2byte	0x1
 3390 0402 56       		.byte	0x56
 3391 0403 3C010000 		.4byte	.LVL46
 3392 0407 3E010000 		.4byte	.LVL47
 3393 040b 0300     		.2byte	0x3
 3394 040d 7C       		.byte	0x7c
 3395 040e 78       		.sleb128 -8
 3396 040f 9F       		.byte	0x9f
 3397 0410 00000000 		.4byte	0
 3398 0414 00000000 		.4byte	0
 3399              	.LLST12:
 3400 0418 16010000 		.4byte	.LVL42
 3401 041c 2E010000 		.4byte	.LVL44
 3402 0420 0100     		.2byte	0x1
 3403 0422 50       		.byte	0x50
 3404 0423 2E010000 		.4byte	.LVL44
 3405 0427 36010000 		.4byte	.LVL45
 3406 042b 0100     		.2byte	0x1
ARM GAS  /var/folders/t8/16hdwfmd2fg_d3q6dgx6bpmw0000gn/T//ccgTUZMA.s 			page 61


 3407 042d 5B       		.byte	0x5b
 3408 042e 00000000 		.4byte	0
 3409 0432 00000000 		.4byte	0
 3410              	.LLST13:
 3411 0436 2C010000 		.4byte	.LVL43
 3412 043a 36010000 		.4byte	.LVL45
 3413 043e 0100     		.2byte	0x1
 3414 0440 53       		.byte	0x53
 3415 0441 00000000 		.4byte	0
 3416 0445 00000000 		.4byte	0
 3417              	.LLST11:
 3418 0449 F6000000 		.4byte	.LVL38
 3419 044d 06010000 		.4byte	.LVL40
 3420 0451 0100     		.2byte	0x1
 3421 0453 57       		.byte	0x57
 3422 0454 00000000 		.4byte	0
 3423 0458 00000000 		.4byte	0
 3424              	.LLST0:
 3425 045c 00000000 		.4byte	.LVL1
 3426 0460 12000000 		.4byte	.LVL2
 3427 0464 0100     		.2byte	0x1
 3428 0466 50       		.byte	0x50
 3429 0467 12000000 		.4byte	.LVL2
 3430 046b 2E000000 		.4byte	.LVL7
 3431 046f 0100     		.2byte	0x1
 3432 0471 54       		.byte	0x54
 3433 0472 2E000000 		.4byte	.LVL7
 3434 0476 30000000 		.4byte	.LVL9
 3435 047a 0400     		.2byte	0x4
 3436 047c F3       		.byte	0xf3
 3437 047d 01       		.uleb128 0x1
 3438 047e 50       		.byte	0x50
 3439 047f 9F       		.byte	0x9f
 3440 0480 30000000 		.4byte	.LVL9
 3441 0484 40000000 		.4byte	.LFE139
 3442 0488 0100     		.2byte	0x1
 3443 048a 50       		.byte	0x50
 3444 048b 00000000 		.4byte	0
 3445 048f 00000000 		.4byte	0
 3446              	.LLST1:
 3447 0493 00000000 		.4byte	.LVL1
 3448 0497 15000000 		.4byte	.LVL3-1
 3449 049b 0100     		.2byte	0x1
 3450 049d 51       		.byte	0x51
 3451 049e 15000000 		.4byte	.LVL3-1
 3452 04a2 2E000000 		.4byte	.LVL8
 3453 04a6 0100     		.2byte	0x1
 3454 04a8 56       		.byte	0x56
 3455 04a9 2E000000 		.4byte	.LVL8
 3456 04ad 30000000 		.4byte	.LVL9
 3457 04b1 0400     		.2byte	0x4
 3458 04b3 F3       		.byte	0xf3
 3459 04b4 01       		.uleb128 0x1
 3460 04b5 51       		.byte	0x51
 3461 04b6 9F       		.byte	0x9f
 3462 04b7 30000000 		.4byte	.LVL9
 3463 04bb 40000000 		.4byte	.LFE139
ARM GAS  /var/folders/t8/16hdwfmd2fg_d3q6dgx6bpmw0000gn/T//ccgTUZMA.s 			page 62


 3464 04bf 0100     		.2byte	0x1
 3465 04c1 51       		.byte	0x51
 3466 04c2 00000000 		.4byte	0
 3467 04c6 00000000 		.4byte	0
 3468              	.LLST2:
 3469 04ca 00000000 		.4byte	.LVL1
 3470 04ce 15000000 		.4byte	.LVL3-1
 3471 04d2 0100     		.2byte	0x1
 3472 04d4 52       		.byte	0x52
 3473 04d5 15000000 		.4byte	.LVL3-1
 3474 04d9 1C000000 		.4byte	.LVL4
 3475 04dd 0100     		.2byte	0x1
 3476 04df 55       		.byte	0x55
 3477 04e0 1C000000 		.4byte	.LVL4
 3478 04e4 1E000000 		.4byte	.LVL5
 3479 04e8 0300     		.2byte	0x3
 3480 04ea 75       		.byte	0x75
 3481 04eb 08       		.sleb128 8
 3482 04ec 9F       		.byte	0x9f
 3483 04ed 1E000000 		.4byte	.LVL5
 3484 04f1 30000000 		.4byte	.LVL9
 3485 04f5 0400     		.2byte	0x4
 3486 04f7 F3       		.byte	0xf3
 3487 04f8 01       		.uleb128 0x1
 3488 04f9 52       		.byte	0x52
 3489 04fa 9F       		.byte	0x9f
 3490 04fb 30000000 		.4byte	.LVL9
 3491 04ff 40000000 		.4byte	.LFE139
 3492 0503 0100     		.2byte	0x1
 3493 0505 52       		.byte	0x52
 3494 0506 00000000 		.4byte	0
 3495 050a 00000000 		.4byte	0
 3496              	.LLST3:
 3497 050e 00000000 		.4byte	.LVL1
 3498 0512 15000000 		.4byte	.LVL3-1
 3499 0516 0100     		.2byte	0x1
 3500 0518 51       		.byte	0x51
 3501 0519 15000000 		.4byte	.LVL3-1
 3502 051d 2E000000 		.4byte	.LVL8
 3503 0521 0100     		.2byte	0x1
 3504 0523 56       		.byte	0x56
 3505 0524 2E000000 		.4byte	.LVL8
 3506 0528 30000000 		.4byte	.LVL9
 3507 052c 0400     		.2byte	0x4
 3508 052e F3       		.byte	0xf3
 3509 052f 01       		.uleb128 0x1
 3510 0530 51       		.byte	0x51
 3511 0531 9F       		.byte	0x9f
 3512 0532 30000000 		.4byte	.LVL9
 3513 0536 40000000 		.4byte	.LFE139
 3514 053a 0100     		.2byte	0x1
 3515 053c 51       		.byte	0x51
 3516 053d 00000000 		.4byte	0
 3517 0541 00000000 		.4byte	0
 3518              		.section	.debug_aranges,"",%progbits
 3519 0000 3C000000 		.4byte	0x3c
 3520 0004 0200     		.2byte	0x2
ARM GAS  /var/folders/t8/16hdwfmd2fg_d3q6dgx6bpmw0000gn/T//ccgTUZMA.s 			page 63


 3521 0006 00000000 		.4byte	.Ldebug_info0
 3522 000a 04       		.byte	0x4
 3523 000b 00       		.byte	0
 3524 000c 0000     		.2byte	0
 3525 000e 0000     		.2byte	0
 3526 0010 00000000 		.4byte	.LFB138
 3527 0014 20000000 		.4byte	.LFE138-.LFB138
 3528 0018 00000000 		.4byte	.LFB139
 3529 001c 40000000 		.4byte	.LFE139-.LFB139
 3530 0020 00000000 		.4byte	.LFB140
 3531 0024 4C010000 		.4byte	.LFE140-.LFB140
 3532 0028 00000000 		.4byte	.LFB141
 3533 002c B8000000 		.4byte	.LFE141-.LFB141
 3534 0030 00000000 		.4byte	.LFB142
 3535 0034 58000000 		.4byte	.LFE142-.LFB142
 3536 0038 00000000 		.4byte	0
 3537 003c 00000000 		.4byte	0
 3538              		.section	.debug_ranges,"",%progbits
 3539              	.Ldebug_ranges0:
 3540 0000 48000000 		.4byte	.LBB2
 3541 0004 52000000 		.4byte	.LBE2
 3542 0008 56000000 		.4byte	.LBB8
 3543 000c 5C000000 		.4byte	.LBE8
 3544 0010 60000000 		.4byte	.LBB9
 3545 0014 8A000000 		.4byte	.LBE9
 3546 0018 E0000000 		.4byte	.LBB10
 3547 001c 3E010000 		.4byte	.LBE10
 3548 0020 00000000 		.4byte	0
 3549 0024 00000000 		.4byte	0
 3550 0028 88000000 		.4byte	.LBB3
 3551 002c 8A000000 		.4byte	.LBE3
 3552 0030 EC000000 		.4byte	.LBB4
 3553 0034 EE000000 		.4byte	.LBE4
 3554 0038 F0000000 		.4byte	.LBB5
 3555 003c 06010000 		.4byte	.LBE5
 3556 0040 00000000 		.4byte	0
 3557 0044 00000000 		.4byte	0
 3558 0048 00000000 		.4byte	.LFB138
 3559 004c 20000000 		.4byte	.LFE138
 3560 0050 00000000 		.4byte	.LFB139
 3561 0054 40000000 		.4byte	.LFE139
 3562 0058 00000000 		.4byte	.LFB140
 3563 005c 4C010000 		.4byte	.LFE140
 3564 0060 00000000 		.4byte	.LFB141
 3565 0064 B8000000 		.4byte	.LFE141
 3566 0068 00000000 		.4byte	.LFB142
 3567 006c 58000000 		.4byte	.LFE142
 3568 0070 00000000 		.4byte	0
 3569 0074 00000000 		.4byte	0
 3570              		.section	.debug_line,"",%progbits
 3571              	.Ldebug_line0:
 3572 0000 D3040000 		.section	.debug_str,"MS",%progbits,1
 3572      02006803 
 3572      00000201 
 3572      FB0E0D00 
 3572      01010101 
 3573              	.LASF49:
ARM GAS  /var/folders/t8/16hdwfmd2fg_d3q6dgx6bpmw0000gn/T//ccgTUZMA.s 			page 64


 3574 0000 63685F74 		.ascii	"ch_threads_list\000"
 3574      68726561 
 3574      64735F6C 
 3574      69737400 
 3575              	.LASF97:
 3576 0010 74696D65 		.ascii	"timesize\000"
 3576      73697A65 
 3576      00
 3577              	.LASF141:
 3578 0019 474E5520 		.ascii	"GNU C99 7.2.1 20170904 (release) [ARM/embedded-7-br"
 3578      43393920 
 3578      372E322E 
 3578      31203230 
 3578      31373039 
 3579 004c 616E6368 		.ascii	"anch revision 255204] -mcpu=cortex-m0plus -mno-thum"
 3579      20726576 
 3579      6973696F 
 3579      6E203235 
 3579      35323034 
 3580 007f 622D696E 		.ascii	"b-interwork -mthumb -ggdb -O2 -std=gnu99 -fomit-fra"
 3580      74657277 
 3580      6F726B20 
 3580      2D6D7468 
 3580      756D6220 
 3581 00b2 6D652D70 		.ascii	"me-pointer -falign-functions=16 -ffunction-sections"
 3581      6F696E74 
 3581      6572202D 
 3581      66616C69 
 3581      676E2D66 
 3582 00e5 202D6664 		.ascii	" -fdata-sections -fno-common\000"
 3582      6174612D 
 3582      73656374 
 3582      696F6E73 
 3582      202D666E 
 3583              	.LASF85:
 3584 0102 77746D74 		.ascii	"wtmtxp\000"
 3584      787000
 3585              	.LASF137:
 3586 0109 63684D74 		.ascii	"chMtxLock\000"
 3586      784C6F63 
 3586      6B00
 3587              	.LASF75:
 3588 0113 72656761 		.ascii	"regarm_t\000"
 3588      726D5F74 
 3588      00
 3589              	.LASF37:
 3590 011c 666C6167 		.ascii	"flags\000"
 3590      7300
 3591              	.LASF28:
 3592 0122 73797374 		.ascii	"systime_t\000"
 3592      696D655F 
 3592      7400
 3593              	.LASF44:
 3594 012c 7265616C 		.ascii	"realprio\000"
 3594      7072696F 
 3594      00
 3595              	.LASF134:
ARM GAS  /var/folders/t8/16hdwfmd2fg_d3q6dgx6bpmw0000gn/T//ccgTUZMA.s 			page 65


 3596 0135 63684865 		.ascii	"chHeapFree\000"
 3596      61704672 
 3596      656500
 3597              	.LASF42:
 3598 0140 6570656E 		.ascii	"epending\000"
 3598      64696E67 
 3598      00
 3599              	.LASF0:
 3600 0149 756E7369 		.ascii	"unsigned int\000"
 3600      676E6564 
 3600      20696E74 
 3600      00
 3601              	.LASF50:
 3602 0156 6E657874 		.ascii	"next\000"
 3602      00
 3603              	.LASF95:
 3604 015b 76657273 		.ascii	"version\000"
 3604      696F6E00 
 3605              	.LASF47:
 3606 0163 74687265 		.ascii	"threads_list_t\000"
 3606      6164735F 
 3606      6C697374 
 3606      5F7400
 3607              	.LASF8:
 3608 0172 5F5F696E 		.ascii	"__int32_t\000"
 3608      7433325F 
 3608      7400
 3609              	.LASF38:
 3610 017c 72656673 		.ascii	"refs\000"
 3610      00
 3611              	.LASF123:
 3612 0181 68656170 		.ascii	"heap\000"
 3612      00
 3613              	.LASF109:
 3614 0186 6F66665F 		.ascii	"off_time\000"
 3614      74696D65 
 3614      00
 3615              	.LASF81:
 3616 018f 77746F62 		.ascii	"wtobjp\000"
 3616      6A7000
 3617              	.LASF73:
 3618 0196 76746C69 		.ascii	"vtlist\000"
 3618      737400
 3619              	.LASF77:
 3620 019d 706F7274 		.ascii	"port_context\000"
 3620      5F636F6E 
 3620      74657874 
 3620      00
 3621              	.LASF55:
 3622 01aa 63685F72 		.ascii	"ch_ready_list\000"
 3622      65616479 
 3622      5F6C6973 
 3622      7400
 3623              	.LASF61:
 3624 01b8 66756E63 		.ascii	"func\000"
 3624      00
 3625              	.LASF86:
ARM GAS  /var/folders/t8/16hdwfmd2fg_d3q6dgx6bpmw0000gn/T//ccgTUZMA.s 			page 66


 3626 01bd 65776D61 		.ascii	"ewmask\000"
 3626      736B00
 3627              	.LASF53:
 3628 01c4 70726576 		.ascii	"prev\000"
 3628      00
 3629              	.LASF52:
 3630 01c9 63685F74 		.ascii	"ch_threads_queue\000"
 3630      68726561 
 3630      64735F71 
 3630      75657565 
 3630      00
 3631              	.LASF101:
 3632 01da 6F66665F 		.ascii	"off_newer\000"
 3632      6E657765 
 3632      7200
 3633              	.LASF57:
 3634 01e4 76746675 		.ascii	"vtfunc_t\000"
 3634      6E635F74 
 3634      00
 3635              	.LASF66:
 3636 01ed 63685F73 		.ascii	"ch_system_debug\000"
 3636      79737465 
 3636      6D5F6465 
 3636      62756700 
 3637              	.LASF127:
 3638 01fd 64656661 		.ascii	"default_heap\000"
 3638      756C745F 
 3638      68656170 
 3638      00
 3639              	.LASF18:
 3640 020a 75696E74 		.ascii	"uint32_t\000"
 3640      33325F74 
 3640      00
 3641              	.LASF83:
 3642 0213 73656E74 		.ascii	"sentmsg\000"
 3642      6D736700 
 3643              	.LASF130:
 3644 021b 63684865 		.ascii	"chHeapStatus\000"
 3644      61705374 
 3644      61747573 
 3644      00
 3645              	.LASF26:
 3646 0228 6576656E 		.ascii	"eventmask_t\000"
 3646      746D6173 
 3646      6B5F7400 
 3647              	.LASF98:
 3648 0234 74687265 		.ascii	"threadsize\000"
 3648      61647369 
 3648      7A6500
 3649              	.LASF87:
 3650 023f 63685F73 		.ascii	"ch_semaphore\000"
 3650      656D6170 
 3650      686F7265 
 3650      00
 3651              	.LASF24:
 3652 024c 74707269 		.ascii	"tprio_t\000"
 3652      6F5F7400 
ARM GAS  /var/folders/t8/16hdwfmd2fg_d3q6dgx6bpmw0000gn/T//ccgTUZMA.s 			page 67


 3653              	.LASF59:
 3654 0254 63685F76 		.ascii	"ch_virtual_timer\000"
 3654      69727475 
 3654      616C5F74 
 3654      696D6572 
 3654      00
 3655              	.LASF14:
 3656 0265 6C6F6E67 		.ascii	"long long unsigned int\000"
 3656      206C6F6E 
 3656      6720756E 
 3656      7369676E 
 3656      65642069 
 3657              	.LASF140:
 3658 027c 63684D74 		.ascii	"chMtxObjectInit\000"
 3658      784F626A 
 3658      65637449 
 3658      6E697400 
 3659              	.LASF6:
 3660 028c 5F5F7569 		.ascii	"__uint16_t\000"
 3660      6E743136 
 3660      5F7400
 3661              	.LASF27:
 3662 0297 636E745F 		.ascii	"cnt_t\000"
 3662      7400
 3663              	.LASF104:
 3664 029d 6F66665F 		.ascii	"off_stklimit\000"
 3664      73746B6C 
 3664      696D6974 
 3664      00
 3665              	.LASF68:
 3666 02aa 6973725F 		.ascii	"isr_cnt\000"
 3666      636E7400 
 3667              	.LASF89:
 3668 02b2 6F776E65 		.ascii	"owner\000"
 3668      7200
 3669              	.LASF51:
 3670 02b8 74687265 		.ascii	"threads_queue_t\000"
 3670      6164735F 
 3670      71756575 
 3670      655F7400 
 3671              	.LASF43:
 3672 02c8 6D74786C 		.ascii	"mtxlist\000"
 3672      69737400 
 3673              	.LASF63:
 3674 02d0 63685F76 		.ascii	"ch_virtual_timers_list\000"
 3674      69727475 
 3674      616C5F74 
 3674      696D6572 
 3674      735F6C69 
 3675              	.LASF121:
 3676 02e7 75736564 		.ascii	"used\000"
 3676      00
 3677              	.LASF29:
 3678 02ec 74687265 		.ascii	"thread_t\000"
 3678      61645F74 
 3678      00
 3679              	.LASF102:
ARM GAS  /var/folders/t8/16hdwfmd2fg_d3q6dgx6bpmw0000gn/T//ccgTUZMA.s 			page 68


 3680 02f5 6F66665F 		.ascii	"off_older\000"
 3680      6F6C6465 
 3680      7200
 3681              	.LASF133:
 3682 02ff 62706167 		.ascii	"bpages\000"
 3682      657300
 3683              	.LASF105:
 3684 0306 6F66665F 		.ascii	"off_state\000"
 3684      73746174 
 3684      6500
 3685              	.LASF144:
 3686 0310 68656170 		.ascii	"heap_header\000"
 3686      5F686561 
 3686      64657200 
 3687              	.LASF2:
 3688 031c 73697A65 		.ascii	"size_t\000"
 3688      5F7400
 3689              	.LASF79:
 3690 0323 7264796D 		.ascii	"rdymsg\000"
 3690      736700
 3691              	.LASF136:
 3692 032a 5F686561 		.ascii	"_heap_init\000"
 3692      705F696E 
 3692      697400
 3693              	.LASF88:
 3694 0335 63685F6D 		.ascii	"ch_mutex\000"
 3694      75746578 
 3694      00
 3695              	.LASF120:
 3696 033e 66726565 		.ascii	"free\000"
 3696      00
 3697              	.LASF13:
 3698 0343 5F5F7569 		.ascii	"__uint64_t\000"
 3698      6E743634 
 3698      5F7400
 3699              	.LASF100:
 3700 034e 6F66665F 		.ascii	"off_ctx\000"
 3700      63747800 
 3701              	.LASF129:
 3702 0356 6C706167 		.ascii	"lpages\000"
 3702      657300
 3703              	.LASF106:
 3704 035d 6F66665F 		.ascii	"off_flags\000"
 3704      666C6167 
 3704      7300
 3705              	.LASF31:
 3706 0367 7072696F 		.ascii	"prio\000"
 3706      00
 3707              	.LASF90:
 3708 036c 63686172 		.ascii	"char\000"
 3708      00
 3709              	.LASF46:
 3710 0371 74687265 		.ascii	"thread_reference_t\000"
 3710      61645F72 
 3710      65666572 
 3710      656E6365 
 3710      5F7400
ARM GAS  /var/folders/t8/16hdwfmd2fg_d3q6dgx6bpmw0000gn/T//ccgTUZMA.s 			page 69


 3711              	.LASF35:
 3712 0384 77616261 		.ascii	"wabase\000"
 3712      736500
 3713              	.LASF91:
 3714 038b 63685F69 		.ascii	"ch_idle_thread_wa\000"
 3714      646C655F 
 3714      74687265 
 3714      61645F77 
 3714      6100
 3715              	.LASF21:
 3716 039d 74737461 		.ascii	"tstate_t\000"
 3716      74655F74 
 3716      00
 3717              	.LASF15:
 3718 03a6 75696E74 		.ascii	"uint8_t\000"
 3718      385F7400 
 3719              	.LASF41:
 3720 03ae 6D736771 		.ascii	"msgqueue\000"
 3720      75657565 
 3720      00
 3721              	.LASF48:
 3722 03b7 63685F74 		.ascii	"ch_thread\000"
 3722      68726561 
 3722      6400
 3723              	.LASF122:
 3724 03c1 70616765 		.ascii	"pages\000"
 3724      7300
 3725              	.LASF103:
 3726 03c7 6F66665F 		.ascii	"off_name\000"
 3726      6E616D65 
 3726      00
 3727              	.LASF65:
 3728 03d0 73797374 		.ascii	"system_debug_t\000"
 3728      656D5F64 
 3728      65627567 
 3728      5F7400
 3729              	.LASF12:
 3730 03df 6C6F6E67 		.ascii	"long long int\000"
 3730      206C6F6E 
 3730      6720696E 
 3730      7400
 3731              	.LASF93:
 3732 03ed 7A65726F 		.ascii	"zero\000"
 3732      00
 3733              	.LASF126:
 3734 03f2 6C617267 		.ascii	"largestp\000"
 3734      65737470 
 3734      00
 3735              	.LASF138:
 3736 03fb 63684D74 		.ascii	"chMtxUnlock\000"
 3736      78556E6C 
 3736      6F636B00 
 3737              	.LASF25:
 3738 0407 6D73675F 		.ascii	"msg_t\000"
 3738      7400
 3739              	.LASF58:
 3740 040d 76697274 		.ascii	"virtual_timer_t\000"
ARM GAS  /var/folders/t8/16hdwfmd2fg_d3q6dgx6bpmw0000gn/T//ccgTUZMA.s 			page 70


 3740      75616C5F 
 3740      74696D65 
 3740      725F7400 
 3741              	.LASF94:
 3742 041d 73697A65 		.ascii	"size\000"
 3742      00
 3743              	.LASF96:
 3744 0422 70747273 		.ascii	"ptrsize\000"
 3744      697A6500 
 3745              	.LASF23:
 3746 042a 74736C69 		.ascii	"tslices_t\000"
 3746      6365735F 
 3746      7400
 3747              	.LASF143:
 3748 0434 2F557365 		.ascii	"/Users/jpablobr/tmp/tmk/di0ib-tmk_keyboard/keyboard"
 3748      72732F6A 
 3748      7061626C 
 3748      6F62722F 
 3748      746D702F 
 3749 0467 2F746565 		.ascii	"/teensy_lc_menelaus\000"
 3749      6E73795F 
 3749      6C635F6D 
 3749      656E656C 
 3749      61757300 
 3750              	.LASF117:
 3751 047b 68656164 		.ascii	"header\000"
 3751      657200
 3752              	.LASF114:
 3753 0482 6D656D6F 		.ascii	"memory_heap_t\000"
 3753      72795F68 
 3753      6561705F 
 3753      7400
 3754              	.LASF67:
 3755 0490 70616E69 		.ascii	"panic_msg\000"
 3755      635F6D73 
 3755      6700
 3756              	.LASF20:
 3757 049a 746D6F64 		.ascii	"tmode_t\000"
 3757      655F7400 
 3758              	.LASF64:
 3759 04a2 73797374 		.ascii	"systime\000"
 3759      696D6500 
 3760              	.LASF74:
 3761 04aa 6D61696E 		.ascii	"mainthread\000"
 3761      74687265 
 3761      616400
 3762              	.LASF135:
 3763 04b5 63684865 		.ascii	"chHeapObjectInit\000"
 3763      61704F62 
 3763      6A656374 
 3763      496E6974 
 3763      00
 3764              	.LASF16:
 3765 04c6 75696E74 		.ascii	"uint16_t\000"
 3765      31365F74 
 3765      00
 3766              	.LASF110:
ARM GAS  /var/folders/t8/16hdwfmd2fg_d3q6dgx6bpmw0000gn/T//ccgTUZMA.s 			page 71


 3767 04cf 63686465 		.ascii	"chdebug_t\000"
 3767      6275675F 
 3767      7400
 3768              	.LASF99:
 3769 04d9 6F66665F 		.ascii	"off_prio\000"
 3769      7072696F 
 3769      00
 3770              	.LASF131:
 3771 04e2 63684865 		.ascii	"chHeapAllocAligned\000"
 3771      6170416C 
 3771      6C6F6341 
 3771      6C69676E 
 3771      656400
 3772              	.LASF69:
 3773 04f5 6C6F636B 		.ascii	"lock_cnt\000"
 3773      5F636E74 
 3773      00
 3774              	.LASF125:
 3775 04fe 746F7461 		.ascii	"totalp\000"
 3775      6C7000
 3776              	.LASF5:
 3777 0505 73686F72 		.ascii	"short int\000"
 3777      7420696E 
 3777      7400
 3778              	.LASF115:
 3779 050f 6D656D6F 		.ascii	"memory_heap\000"
 3779      72795F68 
 3779      65617000 
 3780              	.LASF9:
 3781 051b 6C6F6E67 		.ascii	"long int\000"
 3781      20696E74 
 3781      00
 3782              	.LASF128:
 3783 0524 74706167 		.ascii	"tpages\000"
 3783      657300
 3784              	.LASF78:
 3785 052b 706F7274 		.ascii	"port_intctx\000"
 3785      5F696E74 
 3785      63747800 
 3786              	.LASF39:
 3787 0537 70726565 		.ascii	"preempt\000"
 3787      6D707400 
 3788              	.LASF71:
 3789 053f 63685F73 		.ascii	"ch_system\000"
 3789      79737465 
 3789      6D00
 3790              	.LASF116:
 3791 0549 70726F76 		.ascii	"provider\000"
 3791      69646572 
 3791      00
 3792              	.LASF19:
 3793 0552 75696E74 		.ascii	"uint64_t\000"
 3793      36345F74 
 3793      00
 3794              	.LASF72:
 3795 055b 726C6973 		.ascii	"rlist\000"
 3795      7400
ARM GAS  /var/folders/t8/16hdwfmd2fg_d3q6dgx6bpmw0000gn/T//ccgTUZMA.s 			page 72


 3796              	.LASF3:
 3797 0561 5F5F7569 		.ascii	"__uint8_t\000"
 3797      6E74385F 
 3797      7400
 3798              	.LASF113:
 3799 056b 6D656D67 		.ascii	"memgetfunc_t\000"
 3799      65746675 
 3799      6E635F74 
 3799      00
 3800              	.LASF34:
 3801 0578 6E616D65 		.ascii	"name\000"
 3801      00
 3802              	.LASF92:
 3803 057d 6964656E 		.ascii	"identifier\000"
 3803      74696669 
 3803      657200
 3804              	.LASF108:
 3805 0588 6F66665F 		.ascii	"off_preempt\000"
 3805      70726565 
 3805      6D707400 
 3806              	.LASF22:
 3807 0594 74726566 		.ascii	"trefs_t\000"
 3807      735F7400 
 3808              	.LASF11:
 3809 059c 6C6F6E67 		.ascii	"long unsigned int\000"
 3809      20756E73 
 3809      69676E65 
 3809      6420696E 
 3809      7400
 3810              	.LASF54:
 3811 05ae 72656164 		.ascii	"ready_list_t\000"
 3811      795F6C69 
 3811      73745F74 
 3811      00
 3812              	.LASF30:
 3813 05bb 71756575 		.ascii	"queue\000"
 3813      6500
 3814              	.LASF17:
 3815 05c1 696E7433 		.ascii	"int32_t\000"
 3815      325F7400 
 3816              	.LASF84:
 3817 05c9 77747365 		.ascii	"wtsemp\000"
 3817      6D7000
 3818              	.LASF112:
 3819 05d0 6D757465 		.ascii	"mutex_t\000"
 3819      785F7400 
 3820              	.LASF32:
 3821 05d8 6E657765 		.ascii	"newer\000"
 3821      7200
 3822              	.LASF4:
 3823 05de 756E7369 		.ascii	"unsigned char\000"
 3823      676E6564 
 3823      20636861 
 3823      7200
 3824              	.LASF10:
 3825 05ec 5F5F7569 		.ascii	"__uint32_t\000"
 3825      6E743332 
ARM GAS  /var/folders/t8/16hdwfmd2fg_d3q6dgx6bpmw0000gn/T//ccgTUZMA.s 			page 73


 3825      5F7400
 3826              	.LASF40:
 3827 05f7 77616974 		.ascii	"waiting\000"
 3827      696E6700 
 3828              	.LASF62:
 3829 05ff 76697274 		.ascii	"virtual_timers_list_t\000"
 3829      75616C5F 
 3829      74696D65 
 3829      72735F6C 
 3829      6973745F 
 3830              	.LASF36:
 3831 0615 73746174 		.ascii	"state\000"
 3831      6500
 3832              	.LASF139:
 3833 061b 63685379 		.ascii	"chSysHalt\000"
 3833      7348616C 
 3833      7400
 3834              	.LASF70:
 3835 0625 63685F73 		.ascii	"ch_system_t\000"
 3835      79737465 
 3835      6D5F7400 
 3836              	.LASF82:
 3837 0631 77747472 		.ascii	"wttrp\000"
 3837      7000
 3838              	.LASF124:
 3839 0637 68656170 		.ascii	"heapp\000"
 3839      7000
 3840              	.LASF1:
 3841 063d 7369676E 		.ascii	"signed char\000"
 3841      65642063 
 3841      68617200 
 3842              	.LASF60:
 3843 0649 64656C74 		.ascii	"delta\000"
 3843      6100
 3844              	.LASF7:
 3845 064f 73686F72 		.ascii	"short unsigned int\000"
 3845      7420756E 
 3845      7369676E 
 3845      65642069 
 3845      6E7400
 3846              	.LASF76:
 3847 0662 73746B61 		.ascii	"stkalign_t\000"
 3847      6C69676E 
 3847      5F7400
 3848              	.LASF107:
 3849 066d 6F66665F 		.ascii	"off_refs\000"
 3849      72656673 
 3849      00
 3850              	.LASF56:
 3851 0676 63757272 		.ascii	"current\000"
 3851      656E7400 
 3852              	.LASF132:
 3853 067e 5F5F6675 		.ascii	"__func__\000"
 3853      6E635F5F 
 3853      00
 3854              	.LASF111:
 3855 0687 63685F64 		.ascii	"ch_debug\000"
ARM GAS  /var/folders/t8/16hdwfmd2fg_d3q6dgx6bpmw0000gn/T//ccgTUZMA.s 			page 74


 3855      65627567 
 3855      00
 3856              	.LASF142:
 3857 0690 2E2E2F2E 		.ascii	"../../tmk_core/tool/chibios/ChibiOS/os/common/oslib"
 3857      2E2F746D 
 3857      6B5F636F 
 3857      72652F74 
 3857      6F6F6C2F 
 3858 06c3 2F737263 		.ascii	"/src/chheap.c\000"
 3858      2F636868 
 3858      6561702E 
 3858      6300
 3859              	.LASF119:
 3860 06d1 616C6967 		.ascii	"align\000"
 3860      6E00
 3861              	.LASF33:
 3862 06d7 6F6C6465 		.ascii	"older\000"
 3862      7200
 3863              	.LASF80:
 3864 06dd 65786974 		.ascii	"exitcode\000"
 3864      636F6465 
 3864      00
 3865              	.LASF118:
 3866 06e6 68656170 		.ascii	"heap_header_t\000"
 3866      5F686561 
 3866      6465725F 
 3866      7400
 3867              	.LASF45:
 3868 06f4 6D706F6F 		.ascii	"mpool\000"
 3868      6C00
 3869              		.ident	"GCC: (GNU Tools for Arm Embedded Processors 7-2017-q4-major) 7.2.1 20170904 (release) [ARM
ARM GAS  /var/folders/t8/16hdwfmd2fg_d3q6dgx6bpmw0000gn/T//ccgTUZMA.s 			page 75


DEFINED SYMBOLS
                            *ABS*:0000000000000000 chheap.c
/var/folders/t8/16hdwfmd2fg_d3q6dgx6bpmw0000gn/T//ccgTUZMA.s:16     .text._heap_init:0000000000000000 $t
/var/folders/t8/16hdwfmd2fg_d3q6dgx6bpmw0000gn/T//ccgTUZMA.s:24     .text._heap_init:0000000000000000 _heap_init
/var/folders/t8/16hdwfmd2fg_d3q6dgx6bpmw0000gn/T//ccgTUZMA.s:56     .text._heap_init:0000000000000018 $d
/var/folders/t8/16hdwfmd2fg_d3q6dgx6bpmw0000gn/T//ccgTUZMA.s:62     .text.chHeapObjectInit:0000000000000000 $t
/var/folders/t8/16hdwfmd2fg_d3q6dgx6bpmw0000gn/T//ccgTUZMA.s:70     .text.chHeapObjectInit:0000000000000000 chHeapObjectInit
/var/folders/t8/16hdwfmd2fg_d3q6dgx6bpmw0000gn/T//ccgTUZMA.s:140    .text.chHeapObjectInit:000000000000003c $d
/var/folders/t8/16hdwfmd2fg_d3q6dgx6bpmw0000gn/T//ccgTUZMA.s:145    .text.chHeapAllocAligned:0000000000000000 $t
/var/folders/t8/16hdwfmd2fg_d3q6dgx6bpmw0000gn/T//ccgTUZMA.s:153    .text.chHeapAllocAligned:0000000000000000 chHeapAllocAligned
/var/folders/t8/16hdwfmd2fg_d3q6dgx6bpmw0000gn/T//ccgTUZMA.s:462    .text.chHeapAllocAligned:0000000000000144 $d
/var/folders/t8/16hdwfmd2fg_d3q6dgx6bpmw0000gn/T//ccgTUZMA.s:468    .text.chHeapFree:0000000000000000 $t
/var/folders/t8/16hdwfmd2fg_d3q6dgx6bpmw0000gn/T//ccgTUZMA.s:476    .text.chHeapFree:0000000000000000 chHeapFree
/var/folders/t8/16hdwfmd2fg_d3q6dgx6bpmw0000gn/T//ccgTUZMA.s:651    .text.chHeapFree:00000000000000b4 $d
/var/folders/t8/16hdwfmd2fg_d3q6dgx6bpmw0000gn/T//ccgTUZMA.s:656    .text.chHeapStatus:0000000000000000 $t
/var/folders/t8/16hdwfmd2fg_d3q6dgx6bpmw0000gn/T//ccgTUZMA.s:664    .text.chHeapStatus:0000000000000000 chHeapStatus
/var/folders/t8/16hdwfmd2fg_d3q6dgx6bpmw0000gn/T//ccgTUZMA.s:764    .text.chHeapStatus:0000000000000054 $d
/var/folders/t8/16hdwfmd2fg_d3q6dgx6bpmw0000gn/T//ccgTUZMA.s:769    .bss.default_heap:0000000000000000 $d
/var/folders/t8/16hdwfmd2fg_d3q6dgx6bpmw0000gn/T//ccgTUZMA.s:773    .bss.default_heap:0000000000000000 default_heap
/var/folders/t8/16hdwfmd2fg_d3q6dgx6bpmw0000gn/T//ccgTUZMA.s:776    .rodata.__func__.5724:0000000000000000 $d
/var/folders/t8/16hdwfmd2fg_d3q6dgx6bpmw0000gn/T//ccgTUZMA.s:780    .rodata.__func__.5724:0000000000000000 __func__.5724
/var/folders/t8/16hdwfmd2fg_d3q6dgx6bpmw0000gn/T//ccgTUZMA.s:783    .rodata.__func__.5733:0000000000000000 $d
/var/folders/t8/16hdwfmd2fg_d3q6dgx6bpmw0000gn/T//ccgTUZMA.s:787    .rodata.__func__.5733:0000000000000000 __func__.5733
/var/folders/t8/16hdwfmd2fg_d3q6dgx6bpmw0000gn/T//ccgTUZMA.s:790    .rodata.__func__.5747:0000000000000000 $d
/var/folders/t8/16hdwfmd2fg_d3q6dgx6bpmw0000gn/T//ccgTUZMA.s:794    .rodata.__func__.5747:0000000000000000 __func__.5747

UNDEFINED SYMBOLS
chMtxObjectInit
chCoreAllocAligned
chSysHalt
chMtxLock
chMtxUnlock
