ARM GAS  /var/folders/t8/16hdwfmd2fg_d3q6dgx6bpmw0000gn/T//ccgTUZMA.s 			page 1


   1              		.cpu cortex-m0plus
   2              		.eabi_attribute 20, 1
   3              		.eabi_attribute 21, 1
   4              		.eabi_attribute 23, 3
   5              		.eabi_attribute 24, 1
   6              		.eabi_attribute 25, 1
   7              		.eabi_attribute 26, 1
   8              		.eabi_attribute 30, 2
   9              		.eabi_attribute 34, 0
  10              		.eabi_attribute 18, 4
  11              		.file	"chheap.c"
  12              		.text
  13              	.Ltext0:
  14              		.cfi_sections	.debug_frame
  15              		.section	.text._heap_init,"ax",%progbits
  16              		.align	1
  17              		.p2align 4,,15
  18              		.global	_heap_init
  19              		.syntax unified
  20              		.code	16
  21              		.thumb_func
  22              		.fpu softvfp
  23              		.type	_heap_init, %function
  24              	_heap_init:
  25              	.LFB138:
  26              		.file 1 "../../tmk_core/tool/chibios/ChibiOS/os/common/oslib/src/chheap.c"
  27              		.loc 1 107 0
  28              		.cfi_startproc
  29              		@ args = 0, pretend = 0, frame = 0
  30              		@ frame_needed = 0, uses_anonymous_args = 0
  31              		.loc 1 109 0
  32 0000 0548     		ldr	r0, .L3
  33 0002 064B     		ldr	r3, .L3+4
  34              		.loc 1 107 0
  35 0004 10B5     		push	{r4, lr}
  36              		.cfi_def_cfa_offset 8
  37              		.cfi_offset 4, -8
  38              		.cfi_offset 14, -4
  39              		.loc 1 109 0
  40 0006 0360     		str	r3, [r0]
  41              		.loc 1 110 0
  42 0008 0023     		movs	r3, #0
  43 000a 8360     		str	r3, [r0, #8]
  44              		.loc 1 111 0
  45 000c C360     		str	r3, [r0, #12]
  46              		.loc 1 113 0
  47 000e 1030     		adds	r0, r0, #16
  48 0010 FFF7FEFF 		bl	chMtxObjectInit
  49              	.LVL0:
  50              		.loc 1 117 0
  51              		@ sp needed
  52 0014 10BD     		pop	{r4, pc}
  53              	.L4:
  54 0016 C046     		.align	2
  55              	.L3:
  56 0018 00000000 		.word	.LANCHOR0
  57 001c 00000000 		.word	chCoreAllocAligned
ARM GAS  /var/folders/t8/16hdwfmd2fg_d3q6dgx6bpmw0000gn/T//ccgTUZMA.s 			page 2


  58              		.cfi_endproc
  59              	.LFE138:
  60              		.size	_heap_init, .-_heap_init
  61              		.section	.text.chHeapObjectInit,"ax",%progbits
  62              		.align	1
  63              		.p2align 4,,15
  64              		.global	chHeapObjectInit
  65              		.syntax unified
  66              		.code	16
  67              		.thumb_func
  68              		.fpu softvfp
  69              		.type	chHeapObjectInit, %function
  70              	chHeapObjectInit:
  71              	.LFB139:
  72              		.loc 1 130 0
  73              		.cfi_startproc
  74              		@ args = 0, pretend = 0, frame = 0
  75              		@ frame_needed = 0, uses_anonymous_args = 0
  76              	.LVL1:
  77 0000 70B5     		push	{r4, r5, r6, lr}
  78              		.cfi_def_cfa_offset 16
  79              		.cfi_offset 4, -16
  80              		.cfi_offset 5, -12
  81              		.cfi_offset 6, -8
  82              		.cfi_offset 14, -4
  83              		.loc 1 130 0
  84 0002 0400     		movs	r4, r0
  85 0004 0E00     		movs	r6, r1
  86 0006 1500     		movs	r5, r2
  87              		.loc 1 133 0
  88 0008 0028     		cmp	r0, #0
  89 000a 01D0     		beq	.L6
  90              		.loc 1 133 0 is_stmt 0 discriminator 3
  91 000c 002A     		cmp	r2, #0
  92 000e 0FD1     		bne	.L17
  93              	.L6:
  94              		.loc 1 133 0 discriminator 8
  95 0010 0A48     		ldr	r0, .L18
  96              	.LVL2:
  97 0012 FFF7FEFF 		bl	chSysHalt
  98              	.LVL3:
  99              	.L7:
 100              		.loc 1 137 0 is_stmt 1
 101 0016 0023     		movs	r3, #0
 102              		.loc 1 143 0
 103 0018 2000     		movs	r0, r4
 104              		.loc 1 141 0
 105 001a 083D     		subs	r5, r5, #8
 106              	.LVL4:
 107 001c ED08     		lsrs	r5, r5, #3
 108              	.LVL5:
 109              		.loc 1 138 0
 110 001e A660     		str	r6, [r4, #8]
 111              		.loc 1 137 0
 112 0020 2360     		str	r3, [r4]
 113              		.loc 1 139 0
 114 0022 E360     		str	r3, [r4, #12]
ARM GAS  /var/folders/t8/16hdwfmd2fg_d3q6dgx6bpmw0000gn/T//ccgTUZMA.s 			page 3


 115              		.loc 1 143 0
 116 0024 1030     		adds	r0, r0, #16
 117              		.loc 1 141 0
 118 0026 7560     		str	r5, [r6, #4]
 119              		.loc 1 140 0
 120 0028 3360     		str	r3, [r6]
 121              		.loc 1 143 0
 122 002a FFF7FEFF 		bl	chMtxObjectInit
 123              	.LVL6:
 124              		.loc 1 147 0
 125              		@ sp needed
 126              	.LVL7:
 127              	.LVL8:
 128 002e 70BD     		pop	{r4, r5, r6, pc}
 129              	.LVL9:
 130              	.L17:
 131              		.loc 1 133 0 discriminator 5
 132 0030 0B00     		movs	r3, r1
 133 0032 1343     		orrs	r3, r2
 134 0034 5B07     		lsls	r3, r3, #29
 135 0036 EBD1     		bne	.L6
 136 0038 EDE7     		b	.L7
 137              	.L19:
 138 003a C046     		.align	2
 139              	.L18:
 140 003c 00000000 		.word	.LANCHOR1
 141              		.cfi_endproc
 142              	.LFE139:
 143              		.size	chHeapObjectInit, .-chHeapObjectInit
 144              		.section	.text.chHeapAllocAligned,"ax",%progbits
 145              		.align	1
 146              		.p2align 4,,15
 147              		.global	chHeapAllocAligned
 148              		.syntax unified
 149              		.code	16
 150              		.thumb_func
 151              		.fpu softvfp
 152              		.type	chHeapAllocAligned, %function
 153              	chHeapAllocAligned:
 154              	.LFB140:
 155              		.loc 1 166 0
 156              		.cfi_startproc
 157              		@ args = 0, pretend = 0, frame = 16
 158              		@ frame_needed = 0, uses_anonymous_args = 0
 159              	.LVL10:
 160 0000 F0B5     		push	{r4, r5, r6, r7, lr}
 161              		.cfi_def_cfa_offset 20
 162              		.cfi_offset 4, -20
 163              		.cfi_offset 5, -16
 164              		.cfi_offset 6, -12
 165              		.cfi_offset 7, -8
 166              		.cfi_offset 14, -4
 167 0002 4E46     		mov	r6, r9
 168 0004 DE46     		mov	lr, fp
 169 0006 5746     		mov	r7, r10
 170 0008 4546     		mov	r5, r8
 171 000a E0B5     		push	{r5, r6, r7, lr}
ARM GAS  /var/folders/t8/16hdwfmd2fg_d3q6dgx6bpmw0000gn/T//ccgTUZMA.s 			page 4


 172              		.cfi_def_cfa_offset 36
 173              		.cfi_offset 8, -36
 174              		.cfi_offset 9, -32
 175              		.cfi_offset 10, -28
 176              		.cfi_offset 11, -24
 177 000c 85B0     		sub	sp, sp, #20
 178              		.cfi_def_cfa_offset 56
 179              		.loc 1 166 0
 180 000e 8146     		mov	r9, r0
 181 0010 0291     		str	r1, [sp, #8]
 182 0012 1400     		movs	r4, r2
 183              		.loc 1 170 0
 184 0014 0029     		cmp	r1, #0
 185 0016 01D0     		beq	.L21
 186              		.loc 1 170 0 is_stmt 0 discriminator 3
 187 0018 002A     		cmp	r2, #0
 188 001a 55D1     		bne	.L48
 189              	.L21:
 190              		.loc 1 170 0 discriminator 6
 191 001c 4948     		ldr	r0, .L54
 192              	.LVL11:
 193 001e FFF7FEFF 		bl	chSysHalt
 194              	.LVL12:
 195              		.loc 1 173 0 is_stmt 1 discriminator 6
 196 0022 4B46     		mov	r3, r9
 197 0024 002B     		cmp	r3, #0
 198 0026 55D0     		beq	.L49
 199              	.LVL13:
 200              	.L23:
 201 0028 A046     		mov	r8, r4
 202 002a 082C     		cmp	r4, #8
 203 002c 01D2     		bcs	.L24
 204 002e 0823     		movs	r3, #8
 205 0030 9846     		mov	r8, r3
 206              	.L24:
 207              	.LVL14:
 208              		.loc 1 183 0
 209 0032 029B     		ldr	r3, [sp, #8]
 210              		.loc 1 189 0
 211 0034 4D46     		mov	r5, r9
 212              		.loc 1 183 0
 213 0036 DF1D     		adds	r7, r3, #7
 214 0038 FB08     		lsrs	r3, r7, #3
 215 003a 0193     		str	r3, [sp, #4]
 216              	.LVL15:
 217              		.loc 1 186 0
 218 003c 1023     		movs	r3, #16
 219              	.LVL16:
 220 003e 4B44     		add	r3, r3, r9
 221 0040 1800     		movs	r0, r3
 222 0042 0393     		str	r3, [sp, #12]
 223 0044 FFF7FEFF 		bl	chMtxLock
 224              	.LVL17:
 225              	.LBB2:
 226              		.loc 1 197 0
 227 0048 0123     		movs	r3, #1
 228 004a 5B42     		rsbs	r3, r3, #0
ARM GAS  /var/folders/t8/16hdwfmd2fg_d3q6dgx6bpmw0000gn/T//ccgTUZMA.s 			page 5


 229 004c 4344     		add	r3, r3, r8
 230 004e 9B46     		mov	fp, r3
 231 0050 4346     		mov	r3, r8
 232              	.LBE2:
 233              		.loc 1 189 0
 234 0052 0835     		adds	r5, r5, #8
 235              	.LVL18:
 236              		.loc 1 190 0
 237 0054 2968     		ldr	r1, [r5]
 238              	.LBB8:
 239              		.loc 1 197 0
 240 0056 5B42     		rsbs	r3, r3, #0
 241 0058 9A46     		mov	r10, r3
 242 005a 5E46     		mov	r6, fp
 243              	.LBE8:
 244              		.loc 1 190 0
 245 005c 0029     		cmp	r1, #0
 246 005e 17D0     		beq	.L50
 247              	.L31:
 248              	.LVL19:
 249              	.LBB9:
 250              		.loc 1 197 0
 251 0060 0A00     		movs	r2, r1
 252 0062 5346     		mov	r3, r10
 253 0064 0832     		adds	r2, r2, #8
 254 0066 9419     		adds	r4, r2, r6
 255 0068 1C40     		ands	r4, r3
 256 006a 2000     		movs	r0, r4
 257              		.loc 1 199 0
 258 006c 4F68     		ldr	r7, [r1, #4]
 259              		.loc 1 197 0
 260 006e 0838     		subs	r0, r0, #8
 261              	.LVL20:
 262              		.loc 1 199 0
 263 0070 7B1C     		adds	r3, r7, #1
 264 0072 DB00     		lsls	r3, r3, #3
 265 0074 CB18     		adds	r3, r1, r3
 266 0076 8342     		cmp	r3, r0
 267 0078 06D9     		bls	.L26
 268              		.loc 1 199 0 is_stmt 0 discriminator 1
 269 007a A446     		mov	ip, r4
 270 007c 1C1B     		subs	r4, r3, r4
 271 007e E410     		asrs	r4, r4, #3
 272 0080 A346     		mov	fp, r4
 273 0082 019C     		ldr	r4, [sp, #4]
 274 0084 A345     		cmp	fp, r4
 275 0086 28D2     		bcs	.L51
 276              	.L26:
 277              	.LBB3:
 278              		.loc 1 238 0 is_stmt 1
 279 0088 0D00     		movs	r5, r1
 280              	.LVL21:
 281              	.LBE3:
 282              	.LBE9:
 283              		.loc 1 190 0
 284 008a 2968     		ldr	r1, [r5]
 285              	.LVL22:
ARM GAS  /var/folders/t8/16hdwfmd2fg_d3q6dgx6bpmw0000gn/T//ccgTUZMA.s 			page 6


 286 008c 0029     		cmp	r1, #0
 287 008e E7D1     		bne	.L31
 288              	.LVL23:
 289              	.L50:
 290              		.loc 1 259 0
 291 0090 0398     		ldr	r0, [sp, #12]
 292 0092 FFF7FEFF 		bl	chMtxUnlock
 293              	.LVL24:
 294              		.loc 1 263 0
 295 0096 4B46     		mov	r3, r9
 296 0098 1B68     		ldr	r3, [r3]
 297 009a 002B     		cmp	r3, #0
 298 009c 4FD0     		beq	.L33
 299              		.loc 1 264 0
 300 009e 0198     		ldr	r0, [sp, #4]
 301 00a0 4146     		mov	r1, r8
 302 00a2 0130     		adds	r0, r0, #1
 303 00a4 C000     		lsls	r0, r0, #3
 304 00a6 9847     		blx	r3
 305              	.LVL25:
 306              		.loc 1 265 0
 307 00a8 0028     		cmp	r0, #0
 308 00aa 48D0     		beq	.L33
 309              		.loc 1 266 0
 310 00ac 4B46     		mov	r3, r9
 311 00ae 0360     		str	r3, [r0]
 312              		.loc 1 267 0
 313 00b0 029B     		ldr	r3, [sp, #8]
 314 00b2 4360     		str	r3, [r0, #4]
 315              		.loc 1 270 0
 316 00b4 0830     		adds	r0, r0, #8
 317              	.LVL26:
 318 00b6 0400     		movs	r4, r0
 319              	.LVL27:
 320              	.L20:
 321              		.loc 1 276 0
 322 00b8 2000     		movs	r0, r4
 323 00ba 05B0     		add	sp, sp, #20
 324              		@ sp needed
 325              	.LVL28:
 326              	.LVL29:
 327              	.LVL30:
 328              	.LVL31:
 329 00bc 3CBC     		pop	{r2, r3, r4, r5}
 330 00be 9046     		mov	r8, r2
 331 00c0 9946     		mov	r9, r3
 332 00c2 A246     		mov	r10, r4
 333 00c4 AB46     		mov	fp, r5
 334 00c6 F0BD     		pop	{r4, r5, r6, r7, pc}
 335              	.LVL32:
 336              	.L48:
 337              		.loc 1 170 0 discriminator 5
 338 00c8 531E     		subs	r3, r2, #1
 339 00ca 1A42     		tst	r2, r3
 340 00cc A6D1     		bne	.L21
 341              		.loc 1 173 0
 342 00ce 4B46     		mov	r3, r9
ARM GAS  /var/folders/t8/16hdwfmd2fg_d3q6dgx6bpmw0000gn/T//ccgTUZMA.s 			page 7


 343 00d0 002B     		cmp	r3, #0
 344 00d2 A9D1     		bne	.L23
 345              	.LVL33:
 346              	.L49:
 347              		.loc 1 174 0
 348 00d4 1C4B     		ldr	r3, .L54+4
 349              	.LVL34:
 350 00d6 9946     		mov	r9, r3
 351              	.LVL35:
 352 00d8 A6E7     		b	.L23
 353              	.LVL36:
 354              	.L51:
 355 00da 0600     		movs	r6, r0
 356 00dc 6446     		mov	r4, ip
 357 00de 5846     		mov	r0, fp
 358              	.LVL37:
 359              	.LBB10:
 360              		.loc 1 203 0
 361 00e0 B142     		cmp	r1, r6
 362 00e2 18D3     		bcc	.L52
 363              		.loc 1 227 0
 364 00e4 019C     		ldr	r4, [sp, #4]
 365 00e6 0868     		ldr	r0, [r1]
 366 00e8 A742     		cmp	r7, r4
 367 00ea 24D0     		beq	.L53
 368              	.LBB4:
 369              		.loc 1 235 0
 370 00ec 019F     		ldr	r7, [sp, #4]
 371              	.LBE4:
 372              		.loc 1 197 0
 373 00ee 1400     		movs	r4, r2
 374              	.LBB5:
 375              		.loc 1 235 0
 376 00f0 0137     		adds	r7, r7, #1
 377 00f2 FF00     		lsls	r7, r7, #3
 378 00f4 CF19     		adds	r7, r1, r7
 379              	.LVL38:
 380              		.loc 1 236 0
 381 00f6 3860     		str	r0, [r7]
 382              		.loc 1 237 0
 383 00f8 3800     		movs	r0, r7
 384              		.loc 1 238 0
 385 00fa 0E00     		movs	r6, r1
 386              	.LVL39:
 387              		.loc 1 237 0
 388 00fc 0830     		adds	r0, r0, #8
 389 00fe 1B1A     		subs	r3, r3, r0
 390 0100 DB10     		asrs	r3, r3, #3
 391 0102 7B60     		str	r3, [r7, #4]
 392              		.loc 1 238 0
 393 0104 2F60     		str	r7, [r5]
 394              	.LVL40:
 395              	.L28:
 396              	.LBE5:
 397              		.loc 1 243 0
 398 0106 029B     		ldr	r3, [sp, #8]
 399              		.loc 1 247 0
ARM GAS  /var/folders/t8/16hdwfmd2fg_d3q6dgx6bpmw0000gn/T//ccgTUZMA.s 			page 8


 400 0108 0398     		ldr	r0, [sp, #12]
 401              		.loc 1 243 0
 402 010a 7360     		str	r3, [r6, #4]
 403              		.loc 1 244 0
 404 010c 4B46     		mov	r3, r9
 405 010e 3360     		str	r3, [r6]
 406              		.loc 1 247 0
 407 0110 FFF7FEFF 		bl	chMtxUnlock
 408              	.LVL41:
 409              		.loc 1 250 0
 410 0114 D0E7     		b	.L20
 411              	.LVL42:
 412              	.L52:
 413              	.LBB6:
 414              		.loc 1 208 0
 415 0116 B21A     		subs	r2, r6, r2
 416 0118 D210     		asrs	r2, r2, #3
 417 011a 4A60     		str	r2, [r1, #4]
 418              		.loc 1 209 0
 419 011c 019A     		ldr	r2, [sp, #4]
 420 011e 9042     		cmp	r0, r2
 421 0120 F1D9     		bls	.L28
 422              	.LBB7:
 423              		.loc 1 215 0
 424 0122 D743     		mvns	r7, r2
 425              		.loc 1 214 0
 426 0124 531C     		adds	r3, r2, #1
 427 0126 DB00     		lsls	r3, r3, #3
 428              		.loc 1 218 0
 429 0128 0A68     		ldr	r2, [r1]
 430              		.loc 1 214 0
 431 012a F318     		adds	r3, r6, r3
 432              	.LVL43:
 433              		.loc 1 215 0
 434 012c 3818     		adds	r0, r7, r0
 435              	.LVL44:
 436 012e 5860     		str	r0, [r3, #4]
 437              		.loc 1 218 0
 438 0130 1A60     		str	r2, [r3]
 439              		.loc 1 219 0
 440 0132 0B60     		str	r3, [r1]
 441 0134 E7E7     		b	.L28
 442              	.LVL45:
 443              	.L53:
 444              	.LBE7:
 445              	.LBE6:
 446              		.loc 1 229 0
 447 0136 2860     		str	r0, [r5]
 448              		.loc 1 197 0
 449 0138 1400     		movs	r4, r2
 450 013a 0E00     		movs	r6, r1
 451              	.LVL46:
 452 013c E3E7     		b	.L28
 453              	.LVL47:
 454              	.L33:
 455              	.LBE10:
 456              		.loc 1 275 0
ARM GAS  /var/folders/t8/16hdwfmd2fg_d3q6dgx6bpmw0000gn/T//ccgTUZMA.s 			page 9


 457 013e 0024     		movs	r4, #0
 458 0140 BAE7     		b	.L20
 459              	.L55:
 460 0142 C046     		.align	2
 461              	.L54:
 462 0144 00000000 		.word	.LANCHOR2
 463 0148 00000000 		.word	.LANCHOR0
 464              		.cfi_endproc
 465              	.LFE140:
 466              		.size	chHeapAllocAligned, .-chHeapAllocAligned
 467              		.section	.text.chHeapFree,"ax",%progbits
 468              		.align	1
 469              		.p2align 4,,15
 470              		.global	chHeapFree
 471              		.syntax unified
 472              		.code	16
 473              		.thumb_func
 474              		.fpu softvfp
 475              		.type	chHeapFree, %function
 476              	chHeapFree:
 477              	.LFB141:
 478              		.loc 1 285 0
 479              		.cfi_startproc
 480              		@ args = 0, pretend = 0, frame = 0
 481              		@ frame_needed = 0, uses_anonymous_args = 0
 482              	.LVL48:
 483 0000 F0B5     		push	{r4, r5, r6, r7, lr}
 484              		.cfi_def_cfa_offset 20
 485              		.cfi_offset 4, -20
 486              		.cfi_offset 5, -16
 487              		.cfi_offset 6, -12
 488              		.cfi_offset 7, -8
 489              		.cfi_offset 14, -4
 490 0002 C646     		mov	lr, r8
 491 0004 0500     		movs	r5, r0
 492 0006 00B5     		push	{lr}
 493              		.cfi_def_cfa_offset 24
 494              		.cfi_offset 8, -24
 495              		.loc 1 289 0
 496 0008 0028     		cmp	r0, #0
 497 000a 38D0     		beq	.L57
 498              		.loc 1 289 0 is_stmt 0 discriminator 3
 499 000c 4307     		lsls	r3, r0, #29
 500 000e 36D1     		bne	.L57
 501              	.LVL49:
 502              	.L58:
 503              		.loc 1 292 0 is_stmt 1
 504 0010 083D     		subs	r5, r5, #8
 505              	.LVL50:
 506              		.loc 1 294 0
 507 0012 2F68     		ldr	r7, [r5]
 508              	.LVL51:
 509              		.loc 1 298 0
 510 0014 6B68     		ldr	r3, [r5, #4]
 511              		.loc 1 295 0
 512 0016 3E00     		movs	r6, r7
 513              		.loc 1 298 0
ARM GAS  /var/folders/t8/16hdwfmd2fg_d3q6dgx6bpmw0000gn/T//ccgTUZMA.s 			page 10


 514 0018 0733     		adds	r3, r3, #7
 515              		.loc 1 299 0
 516 001a DB08     		lsrs	r3, r3, #3
 517              		.loc 1 302 0
 518 001c 1037     		adds	r7, r7, #16
 519              	.LVL52:
 520              		.loc 1 298 0
 521 001e 6B60     		str	r3, [r5, #4]
 522              		.loc 1 302 0
 523 0020 3800     		movs	r0, r7
 524 0022 FFF7FEFF 		bl	chMtxLock
 525              	.LVL53:
 526              		.loc 1 305 0
 527 0026 234B     		ldr	r3, .L78
 528              		.loc 1 295 0
 529 0028 0836     		adds	r6, r6, #8
 530              	.LVL54:
 531 002a 3400     		movs	r4, r6
 532              		.loc 1 305 0
 533 002c 9846     		mov	r8, r3
 534              	.LVL55:
 535              	.L59:
 536              		.loc 1 305 0 is_stmt 0 discriminator 1
 537 002e AC42     		cmp	r4, r5
 538 0030 05D8     		bhi	.L60
 539              		.loc 1 305 0 discriminator 2
 540 0032 6368     		ldr	r3, [r4, #4]
 541 0034 0133     		adds	r3, r3, #1
 542 0036 DB00     		lsls	r3, r3, #3
 543 0038 E318     		adds	r3, r4, r3
 544 003a 9D42     		cmp	r5, r3
 545 003c 23D3     		bcc	.L75
 546              	.L60:
 547 003e 2368     		ldr	r3, [r4]
 548              		.loc 1 307 0 is_stmt 1
 549 0040 B442     		cmp	r4, r6
 550 0042 01D0     		beq	.L61
 551              		.loc 1 307 0 is_stmt 0 discriminator 2
 552 0044 AC42     		cmp	r4, r5
 553 0046 03D2     		bcs	.L62
 554              	.L61:
 555              		.loc 1 307 0 discriminator 3
 556 0048 002B     		cmp	r3, #0
 557 004a 03D0     		beq	.L63
 558              		.loc 1 308 0 is_stmt 1
 559 004c 9D42     		cmp	r5, r3
 560 004e 01D3     		bcc	.L63
 561              	.L62:
 562              		.loc 1 285 0 discriminator 1
 563 0050 1C00     		movs	r4, r3
 564              	.LVL56:
 565 0052 ECE7     		b	.L59
 566              	.LVL57:
 567              	.L63:
 568              		.loc 1 310 0
 569 0054 2B60     		str	r3, [r5]
 570              		.loc 1 313 0
ARM GAS  /var/folders/t8/16hdwfmd2fg_d3q6dgx6bpmw0000gn/T//ccgTUZMA.s 			page 11


 571 0056 6B68     		ldr	r3, [r5, #4]
 572              		.loc 1 311 0
 573 0058 2560     		str	r5, [r4]
 574              		.loc 1 313 0
 575 005a 5A1C     		adds	r2, r3, #1
 576 005c D300     		lsls	r3, r2, #3
 577 005e 2968     		ldr	r1, [r5]
 578 0060 EB18     		adds	r3, r5, r3
 579 0062 8B42     		cmp	r3, r1
 580 0064 13D0     		beq	.L76
 581              		.loc 1 318 0
 582 0066 6268     		ldr	r2, [r4, #4]
 583 0068 531C     		adds	r3, r2, #1
 584 006a DB00     		lsls	r3, r3, #3
 585 006c E318     		adds	r3, r4, r3
 586 006e 9D42     		cmp	r5, r3
 587 0070 19D0     		beq	.L77
 588              	.L65:
 589              		.loc 1 329 0
 590 0072 3800     		movs	r0, r7
 591 0074 FFF7FEFF 		bl	chMtxUnlock
 592              	.LVL58:
 593              		.loc 1 332 0
 594              		@ sp needed
 595              	.LVL59:
 596              	.LVL60:
 597              	.LVL61:
 598              	.LVL62:
 599 0078 04BC     		pop	{r2}
 600 007a 9046     		mov	r8, r2
 601 007c F0BD     		pop	{r4, r5, r6, r7, pc}
 602              	.LVL63:
 603              	.L57:
 604              		.loc 1 289 0 discriminator 4
 605 007e 0D48     		ldr	r0, .L78
 606              	.LVL64:
 607 0080 FFF7FEFF 		bl	chSysHalt
 608              	.LVL65:
 609 0084 C4E7     		b	.L58
 610              	.LVL66:
 611              	.L75:
 612              		.loc 1 305 0 discriminator 3
 613 0086 4046     		mov	r0, r8
 614 0088 FFF7FEFF 		bl	chSysHalt
 615              	.LVL67:
 616 008c D7E7     		b	.L60
 617              	.L76:
 618              		.loc 1 315 0
 619 008e 5968     		ldr	r1, [r3, #4]
 620              		.loc 1 316 0
 621 0090 1B68     		ldr	r3, [r3]
 622              		.loc 1 315 0
 623 0092 8C46     		mov	ip, r1
 624 0094 6244     		add	r2, r2, ip
 625 0096 6A60     		str	r2, [r5, #4]
 626              		.loc 1 318 0
 627 0098 6268     		ldr	r2, [r4, #4]
ARM GAS  /var/folders/t8/16hdwfmd2fg_d3q6dgx6bpmw0000gn/T//ccgTUZMA.s 			page 12


 628              		.loc 1 316 0
 629 009a 2B60     		str	r3, [r5]
 630              		.loc 1 318 0
 631 009c 531C     		adds	r3, r2, #1
 632 009e DB00     		lsls	r3, r3, #3
 633 00a0 E318     		adds	r3, r4, r3
 634 00a2 9D42     		cmp	r5, r3
 635 00a4 E5D1     		bne	.L65
 636              	.L77:
 637              		.loc 1 320 0
 638 00a6 6B68     		ldr	r3, [r5, #4]
 639 00a8 0133     		adds	r3, r3, #1
 640 00aa 9A18     		adds	r2, r3, r2
 641              		.loc 1 321 0
 642 00ac 2B68     		ldr	r3, [r5]
 643              		.loc 1 320 0
 644 00ae 6260     		str	r2, [r4, #4]
 645              		.loc 1 321 0
 646 00b0 2360     		str	r3, [r4]
 647 00b2 DEE7     		b	.L65
 648              	.L79:
 649              		.align	2
 650              	.L78:
 651 00b4 00000000 		.word	.LANCHOR3
 652              		.cfi_endproc
 653              	.LFE141:
 654              		.size	chHeapFree, .-chHeapFree
 655              		.section	.text.chHeapStatus,"ax",%progbits
 656              		.align	1
 657              		.p2align 4,,15
 658              		.global	chHeapStatus
 659              		.syntax unified
 660              		.code	16
 661              		.thumb_func
 662              		.fpu softvfp
 663              		.type	chHeapStatus, %function
 664              	chHeapStatus:
 665              	.LFB142:
 666              		.loc 1 349 0
 667              		.cfi_startproc
 668              		@ args = 0, pretend = 0, frame = 0
 669              		@ frame_needed = 0, uses_anonymous_args = 0
 670              	.LVL68:
 671 0000 F8B5     		push	{r3, r4, r5, r6, r7, lr}
 672              		.cfi_def_cfa_offset 24
 673              		.cfi_offset 3, -24
 674              		.cfi_offset 4, -20
 675              		.cfi_offset 5, -16
 676              		.cfi_offset 6, -12
 677              		.cfi_offset 7, -8
 678              		.cfi_offset 14, -4
 679              		.loc 1 349 0
 680 0002 0400     		movs	r4, r0
 681 0004 0F00     		movs	r7, r1
 682 0006 1600     		movs	r6, r2
 683              		.loc 1 353 0
 684 0008 0028     		cmp	r0, #0
ARM GAS  /var/folders/t8/16hdwfmd2fg_d3q6dgx6bpmw0000gn/T//ccgTUZMA.s 			page 13


 685 000a 20D0     		beq	.L95
 686              	.L81:
 687              	.LVL69:
 688              		.loc 1 357 0
 689 000c 2500     		movs	r5, r4
 690 000e 1035     		adds	r5, r5, #16
 691 0010 2800     		movs	r0, r5
 692 0012 FFF7FEFF 		bl	chMtxLock
 693              	.LVL70:
 694              		.loc 1 362 0
 695 0016 A368     		ldr	r3, [r4, #8]
 696              		.loc 1 359 0
 697 0018 0020     		movs	r0, #0
 698              		.loc 1 358 0
 699 001a 0021     		movs	r1, #0
 700              		.loc 1 360 0
 701 001c 0024     		movs	r4, #0
 702              	.LVL71:
 703              		.loc 1 362 0
 704 001e 002B     		cmp	r3, #0
 705 0020 08D0     		beq	.L82
 706              	.LVL72:
 707              	.L84:
 708              	.LBB11:
 709              		.loc 1 363 0
 710 0022 5A68     		ldr	r2, [r3, #4]
 711              	.LVL73:
 712              		.loc 1 366 0
 713 0024 0134     		adds	r4, r4, #1
 714              	.LVL74:
 715              		.loc 1 367 0
 716 0026 8918     		adds	r1, r1, r2
 717              	.LVL75:
 718 0028 9042     		cmp	r0, r2
 719 002a 00D2     		bcs	.L83
 720 002c 1000     		movs	r0, r2
 721              	.LVL76:
 722              	.L83:
 723              	.LBE11:
 724              		.loc 1 362 0
 725 002e 1B68     		ldr	r3, [r3]
 726              	.LVL77:
 727 0030 002B     		cmp	r3, #0
 728 0032 F6D1     		bne	.L84
 729              	.LVL78:
 730              	.L82:
 731              		.loc 1 376 0
 732 0034 002F     		cmp	r7, #0
 733 0036 01D0     		beq	.L85
 734              		.loc 1 377 0
 735 0038 C900     		lsls	r1, r1, #3
 736 003a 3960     		str	r1, [r7]
 737              	.L85:
 738              		.loc 1 381 0
 739 003c 002E     		cmp	r6, #0
 740 003e 01D0     		beq	.L86
 741              		.loc 1 382 0
ARM GAS  /var/folders/t8/16hdwfmd2fg_d3q6dgx6bpmw0000gn/T//ccgTUZMA.s 			page 14


 742 0040 C000     		lsls	r0, r0, #3
 743 0042 3060     		str	r0, [r6]
 744              	.L86:
 745              		.loc 1 384 0
 746 0044 2800     		movs	r0, r5
 747 0046 FFF7FEFF 		bl	chMtxUnlock
 748              	.LVL79:
 749              		.loc 1 387 0
 750              		@ sp needed
 751 004a 2000     		movs	r0, r4
 752              	.LVL80:
 753              	.LVL81:
 754              	.LVL82:
 755 004c F8BD     		pop	{r3, r4, r5, r6, r7, pc}
 756              	.LVL83:
 757              	.L95:
 758              		.loc 1 354 0
 759 004e 014C     		ldr	r4, .L96
 760 0050 DCE7     		b	.L81
 761              	.L97:
 762 0052 C046     		.align	2
 763              	.L96:
 764 0054 00000000 		.word	.LANCHOR0
 765              		.cfi_endproc
 766              	.LFE142:
 767              		.size	chHeapStatus, .-chHeapStatus
 768              		.section	.bss.default_heap,"aw",%nobits
 769              		.align	3
 770              		.set	.LANCHOR0,. + 0
 771              		.type	default_heap, %object
 772              		.size	default_heap, 32
 773              	default_heap:
 774 0000 00000000 		.space	32
 774      00000000 
 774      00000000 
 774      00000000 
 774      00000000 
 775              		.section	.rodata.__func__.5724,"a",%progbits
 776              		.align	2
 777              		.set	.LANCHOR1,. + 0
 778              		.type	__func__.5724, %object
 779              		.size	__func__.5724, 17
 780              	__func__.5724:
 781 0000 63684865 		.ascii	"chHeapObjectInit\000"
 781      61704F62 
 781      6A656374 
 781      496E6974 
 781      00
 782              		.section	.rodata.__func__.5733,"a",%progbits
 783              		.align	2
 784              		.set	.LANCHOR2,. + 0
 785              		.type	__func__.5733, %object
 786              		.size	__func__.5733, 19
 787              	__func__.5733:
 788 0000 63684865 		.ascii	"chHeapAllocAligned\000"
 788      6170416C 
 788      6C6F6341 
ARM GAS  /var/folders/t8/16hdwfmd2fg_d3q6dgx6bpmw0000gn/T//ccgTUZMA.s 			page 15


 788      6C69676E 
 788      656400
 789              		.section	.rodata.__func__.5747,"a",%progbits
 790              		.align	2
 791              		.set	.LANCHOR3,. + 0
 792              		.type	__func__.5747, %object
 793              		.size	__func__.5747, 11
 794              	__func__.5747:
 795 0000 63684865 		.ascii	"chHeapFree\000"
 795      61704672 
 795      656500
 796              		.text
 797              	.Letext0:
 798              		.file 2 "/usr/local/Caskroom/gcc-arm-embedded/7-2017-q4-major/gcc-arm-none-eabi-7-2017-q4-major/li
 799              		.file 3 "/usr/local/Caskroom/gcc-arm-embedded/7-2017-q4-major/gcc-arm-none-eabi-7-2017-q4-major/ar
 800              		.file 4 "/usr/local/Caskroom/gcc-arm-embedded/7-2017-q4-major/gcc-arm-none-eabi-7-2017-q4-major/ar
 801              		.file 5 "../../tmk_core/tool/chibios/ChibiOS/os/common/ports/ARMCMx/compilers/GCC/chtypes.h"
 802              		.file 6 "../../tmk_core/tool/chibios/ChibiOS/os/rt/include/chsystypes.h"
 803              		.file 7 "../../tmk_core/tool/chibios/ChibiOS/os/rt/include/chschd.h"
 804              		.file 8 "../../tmk_core/tool/chibios/ChibiOS/os/common/ports/ARMCMx/chcore.h"
 805              		.file 9 "../../tmk_core/tool/chibios/ChibiOS/os/common/ports/ARMCMx/chcore_v6m.h"
 806              		.file 10 "../../tmk_core/tool/chibios/ChibiOS/os/rt/include/chsem.h"
 807              		.file 11 "../../tmk_core/tool/chibios/ChibiOS/os/rt/include/chmtx.h"
 808              		.file 12 "../../tmk_core/tool/chibios/ChibiOS/os/rt/include/chregistry.h"
 809              		.file 13 "../../tmk_core/tool/chibios/ChibiOS/os/rt/include/chsys.h"
 810              		.file 14 "../../tmk_core/tool/chibios/ChibiOS/os/common/oslib/include/chmemcore.h"
 811              		.file 15 "../../tmk_core/tool/chibios/ChibiOS/os/common/oslib/include/chheap.h"