ARM GAS  /var/folders/t8/16hdwfmd2fg_d3q6dgx6bpmw0000gn/T//ccrdSefC.s 			page 1


   1              		.cpu cortex-m0plus
   2              		.eabi_attribute 20, 1
   3              		.eabi_attribute 21, 1
   4              		.eabi_attribute 23, 3
   5              		.eabi_attribute 24, 1
   6              		.eabi_attribute 25, 1
   7              		.eabi_attribute 26, 1
   8              		.eabi_attribute 30, 2
   9              		.eabi_attribute 34, 0
  10              		.eabi_attribute 18, 4
  11              		.file	"chmboxes.c"
  12              		.text
  13              	.Ltext0:
  14              		.cfi_sections	.debug_frame
  15              		.section	.text.chMBObjectInit,"ax",%progbits
  16              		.align	1
  17              		.p2align 4,,15
  18              		.global	chMBObjectInit
  19              		.syntax unified
  20              		.code	16
  21              		.thumb_func
  22              		.fpu softvfp
  23              		.type	chMBObjectInit, %function
  24              	chMBObjectInit:
  25              	.LFB138:
  26              		.file 1 "../../tmk_core/tool/chibios/ChibiOS/os/common/oslib/src/chmboxes.c"
  27              		.loc 1 87 0
  28              		.cfi_startproc
  29              		@ args = 0, pretend = 0, frame = 0
  30              		@ frame_needed = 0, uses_anonymous_args = 0
  31              	.LVL0:
  32 0000 70B5     		push	{r4, r5, r6, lr}
  33              		.cfi_def_cfa_offset 16
  34              		.cfi_offset 4, -16
  35              		.cfi_offset 5, -12
  36              		.cfi_offset 6, -8
  37              		.cfi_offset 14, -4
  38              		.loc 1 87 0
  39 0002 0400     		movs	r4, r0
  40 0004 0D00     		movs	r5, r1
  41 0006 1600     		movs	r6, r2
  42              		.loc 1 89 0
  43 0008 0028     		cmp	r0, #0
  44 000a 14D0     		beq	.L2
  45              		.loc 1 89 0 is_stmt 0 discriminator 3
  46 000c 0029     		cmp	r1, #0
  47 000e 12D0     		beq	.L2
  48              		.loc 1 89 0 discriminator 5
  49 0010 002A     		cmp	r2, #0
  50 0012 10DD     		ble	.L2
  51              	.LVL1:
  52              	.L3:
  53              		.loc 1 95 0 is_stmt 1
  54 0014 2000     		movs	r0, r4
  55              		.loc 1 94 0
  56 0016 B300     		lsls	r3, r6, #2
  57              		.loc 1 91 0
ARM GAS  /var/folders/t8/16hdwfmd2fg_d3q6dgx6bpmw0000gn/T//ccrdSefC.s 			page 2


  58 0018 2560     		str	r5, [r4]
  59              		.loc 1 92 0
  60 001a E560     		str	r5, [r4, #12]
  61              		.loc 1 93 0
  62 001c A560     		str	r5, [r4, #8]
  63              		.loc 1 94 0
  64 001e ED18     		adds	r5, r5, r3
  65              	.LVL2:
  66              		.loc 1 95 0
  67 0020 3100     		movs	r1, r6
  68              		.loc 1 94 0
  69 0022 6560     		str	r5, [r4, #4]
  70              		.loc 1 95 0
  71 0024 1C30     		adds	r0, r0, #28
  72              	.LVL3:
  73 0026 FFF7FEFF 		bl	chSemObjectInit
  74              	.LVL4:
  75              		.loc 1 96 0
  76 002a 2000     		movs	r0, r4
  77 002c 0021     		movs	r1, #0
  78 002e 1030     		adds	r0, r0, #16
  79 0030 FFF7FEFF 		bl	chSemObjectInit
  80              	.LVL5:
  81              		.loc 1 97 0
  82              		@ sp needed
  83              	.LVL6:
  84              	.LVL7:
  85 0034 70BD     		pop	{r4, r5, r6, pc}
  86              	.LVL8:
  87              	.L2:
  88              		.loc 1 89 0 discriminator 6
  89 0036 0248     		ldr	r0, .L11
  90              	.LVL9:
  91 0038 FFF7FEFF 		bl	chSysHalt
  92              	.LVL10:
  93 003c EAE7     		b	.L3
  94              	.L12:
  95 003e C046     		.align	2
  96              	.L11:
  97 0040 00000000 		.word	.LANCHOR0
  98              		.cfi_endproc
  99              	.LFE138:
 100              		.size	chMBObjectInit, .-chMBObjectInit
 101              		.section	.text.chMBResetI,"ax",%progbits
 102              		.align	1
 103              		.p2align 4,,15
 104              		.global	chMBResetI
 105              		.syntax unified
 106              		.code	16
 107              		.thumb_func
 108              		.fpu softvfp
 109              		.type	chMBResetI, %function
 110              	chMBResetI:
 111              	.LFB140:
 112              		.loc 1 125 0
 113              		.cfi_startproc
 114              		@ args = 0, pretend = 0, frame = 0
ARM GAS  /var/folders/t8/16hdwfmd2fg_d3q6dgx6bpmw0000gn/T//ccrdSefC.s 			page 3


 115              		@ frame_needed = 0, uses_anonymous_args = 0
 116              	.LVL11:
 117 0000 10B5     		push	{r4, lr}
 118              		.cfi_def_cfa_offset 8
 119              		.cfi_offset 4, -8
 120              		.cfi_offset 14, -4
 121              		.loc 1 125 0
 122 0002 0400     		movs	r4, r0
 123              		.loc 1 127 0
 124 0004 FFF7FEFF 		bl	chDbgCheckClassI
 125              	.LVL12:
 126              		.loc 1 128 0
 127 0008 002C     		cmp	r4, #0
 128 000a 0FD0     		beq	.L15
 129              	.L14:
 130              		.loc 1 132 0
 131 000c 2000     		movs	r0, r4
 132              		.loc 1 130 0
 133 000e 2168     		ldr	r1, [r4]
 134              		.loc 1 132 0
 135 0010 6368     		ldr	r3, [r4, #4]
 136              		.loc 1 130 0
 137 0012 A160     		str	r1, [r4, #8]
 138              		.loc 1 131 0
 139 0014 E160     		str	r1, [r4, #12]
 140              		.loc 1 132 0
 141 0016 591A     		subs	r1, r3, r1
 142 0018 8910     		asrs	r1, r1, #2
 143 001a 1C30     		adds	r0, r0, #28
 144 001c FFF7FEFF 		bl	chSemResetI
 145              	.LVL13:
 146              		.loc 1 133 0
 147 0020 2000     		movs	r0, r4
 148 0022 0021     		movs	r1, #0
 149 0024 1030     		adds	r0, r0, #16
 150 0026 FFF7FEFF 		bl	chSemResetI
 151              	.LVL14:
 152              		.loc 1 134 0
 153              		@ sp needed
 154              	.LVL15:
 155 002a 10BD     		pop	{r4, pc}
 156              	.LVL16:
 157              	.L15:
 158              		.loc 1 128 0 discriminator 2
 159 002c 0148     		ldr	r0, .L16
 160 002e FFF7FEFF 		bl	chSysHalt
 161              	.LVL17:
 162 0032 EBE7     		b	.L14
 163              	.L17:
 164              		.align	2
 165              	.L16:
 166 0034 00000000 		.word	.LANCHOR1
 167              		.cfi_endproc
 168              	.LFE140:
 169              		.size	chMBResetI, .-chMBResetI
 170              		.section	.text.chMBReset,"ax",%progbits
 171              		.align	1
ARM GAS  /var/folders/t8/16hdwfmd2fg_d3q6dgx6bpmw0000gn/T//ccrdSefC.s 			page 4


 172              		.p2align 4,,15
 173              		.global	chMBReset
 174              		.syntax unified
 175              		.code	16
 176              		.thumb_func
 177              		.fpu softvfp
 178              		.type	chMBReset, %function
 179              	chMBReset:
 180              	.LFB139:
 181              		.loc 1 108 0
 182              		.cfi_startproc
 183              		@ args = 0, pretend = 0, frame = 0
 184              		@ frame_needed = 0, uses_anonymous_args = 0
 185              	.LVL18:
 186 0000 10B5     		push	{r4, lr}
 187              		.cfi_def_cfa_offset 8
 188              		.cfi_offset 4, -8
 189              		.cfi_offset 14, -4
 190              		.loc 1 108 0
 191 0002 0400     		movs	r4, r0
 192              	.LBB56:
 193              	.LBB57:
 194              	.LBB58:
 195              	.LBB59:
 196              	.LBB60:
 197              		.file 2 "../../tmk_core/tool/chibios/ChibiOS/os/common/ext/CMSIS/include/cmsis_gcc.h"
 198              		.loc 2 71 0
 199              		.syntax divided
 200              	@ 71 "../../tmk_core/tool/chibios/ChibiOS/os/common/ext/CMSIS/include/cmsis_gcc.h" 1
 201 0004 72B6     		cpsid i
 202              	@ 0 "" 2
 203              		.thumb
 204              		.syntax unified
 205              	.LBE60:
 206              	.LBE59:
 207              	.LBE58:
 208              		.file 3 "../../tmk_core/tool/chibios/ChibiOS/os/rt/include/chsys.h"
 209              		.loc 3 378 0
 210 0006 FFF7FEFF 		bl	_dbg_check_lock
 211              	.LVL19:
 212              	.LBE57:
 213              	.LBE56:
 214              		.loc 1 111 0
 215 000a 2000     		movs	r0, r4
 216 000c FFF7FEFF 		bl	chMBResetI
 217              	.LVL20:
 218              		.loc 1 112 0
 219 0010 FFF7FEFF 		bl	chSchRescheduleS
 220              	.LVL21:
 221              	.LBB61:
 222              	.LBB62:
 223              		.loc 3 388 0
 224 0014 FFF7FEFF 		bl	_dbg_check_unlock
 225              	.LVL22:
 226              		.loc 3 395 0
 227 0018 074B     		ldr	r3, .L21
 228 001a 1A68     		ldr	r2, [r3]
ARM GAS  /var/folders/t8/16hdwfmd2fg_d3q6dgx6bpmw0000gn/T//ccrdSefC.s 			page 5


 229 001c 9A42     		cmp	r2, r3
 230 001e 04D0     		beq	.L19
 231 0020 9B69     		ldr	r3, [r3, #24]
 232 0022 9968     		ldr	r1, [r3, #8]
 233 0024 9368     		ldr	r3, [r2, #8]
 234 0026 9942     		cmp	r1, r3
 235 0028 01D3     		bcc	.L20
 236              	.L19:
 237              	.LBB63:
 238              	.LBB64:
 239              	.LBB65:
 240              		.loc 2 60 0
 241              		.syntax divided
 242              	@ 60 "../../tmk_core/tool/chibios/ChibiOS/os/common/ext/CMSIS/include/cmsis_gcc.h" 1
 243 002a 62B6     		cpsie i
 244              	@ 0 "" 2
 245              		.thumb
 246              		.syntax unified
 247              	.LBE65:
 248              	.LBE64:
 249              	.LBE63:
 250              	.LBE62:
 251              	.LBE61:
 252              		.loc 1 114 0
 253              		@ sp needed
 254              	.LVL23:
 255 002c 10BD     		pop	{r4, pc}
 256              	.LVL24:
 257              	.L20:
 258              	.LBB67:
 259              	.LBB66:
 260              		.loc 3 395 0
 261 002e 0348     		ldr	r0, .L21+4
 262 0030 FFF7FEFF 		bl	chSysHalt
 263              	.LVL25:
 264 0034 F9E7     		b	.L19
 265              	.L22:
 266 0036 C046     		.align	2
 267              	.L21:
 268 0038 00000000 		.word	ch
 269 003c 00000000 		.word	.LANCHOR2
 270              	.LBE66:
 271              	.LBE67:
 272              		.cfi_endproc
 273              	.LFE139:
 274              		.size	chMBReset, .-chMBReset
 275              		.section	.text.chMBPostS,"ax",%progbits
 276              		.align	1
 277              		.p2align 4,,15
 278              		.global	chMBPostS
 279              		.syntax unified
 280              		.code	16
 281              		.thumb_func
 282              		.fpu softvfp
 283              		.type	chMBPostS, %function
 284              	chMBPostS:
 285              	.LFB142:
ARM GAS  /var/folders/t8/16hdwfmd2fg_d3q6dgx6bpmw0000gn/T//ccrdSefC.s 			page 6


 286              		.loc 1 184 0
 287              		.cfi_startproc
 288              		@ args = 0, pretend = 0, frame = 0
 289              		@ frame_needed = 0, uses_anonymous_args = 0
 290              	.LVL26:
 291 0000 70B5     		push	{r4, r5, r6, lr}
 292              		.cfi_def_cfa_offset 16
 293              		.cfi_offset 4, -16
 294              		.cfi_offset 5, -12
 295              		.cfi_offset 6, -8
 296              		.cfi_offset 14, -4
 297              		.loc 1 184 0
 298 0002 0400     		movs	r4, r0
 299 0004 0E00     		movs	r6, r1
 300 0006 1500     		movs	r5, r2
 301              		.loc 1 187 0
 302 0008 FFF7FEFF 		bl	chDbgCheckClassS
 303              	.LVL27:
 304              		.loc 1 188 0
 305 000c 002C     		cmp	r4, #0
 306 000e 18D0     		beq	.L27
 307              	.L24:
 308              		.loc 1 190 0
 309 0010 2000     		movs	r0, r4
 310 0012 2900     		movs	r1, r5
 311 0014 1C30     		adds	r0, r0, #28
 312 0016 FFF7FEFF 		bl	chSemWaitTimeoutS
 313              	.LVL28:
 314 001a 051E     		subs	r5, r0, #0
 315              	.LVL29:
 316              		.loc 1 191 0
 317 001c 0CD1     		bne	.L23
 318              	.LVL30:
 319              	.LBB70:
 320              	.LBB71:
 321              		.loc 1 192 0
 322 001e A268     		ldr	r2, [r4, #8]
 323 0020 131D     		adds	r3, r2, #4
 324 0022 A360     		str	r3, [r4, #8]
 325 0024 1660     		str	r6, [r2]
 326              		.loc 1 193 0
 327 0026 6268     		ldr	r2, [r4, #4]
 328 0028 9342     		cmp	r3, r2
 329 002a 07D2     		bcs	.L28
 330              	.L26:
 331              		.loc 1 196 0
 332 002c 2000     		movs	r0, r4
 333              	.LVL31:
 334 002e 1030     		adds	r0, r0, #16
 335 0030 FFF7FEFF 		bl	chSemSignalI
 336              	.LVL32:
 337              		.loc 1 197 0
 338 0034 FFF7FEFF 		bl	chSchRescheduleS
 339              	.LVL33:
 340              	.L23:
 341              	.LBE71:
 342              	.LBE70:
ARM GAS  /var/folders/t8/16hdwfmd2fg_d3q6dgx6bpmw0000gn/T//ccrdSefC.s 			page 7


 343              		.loc 1 201 0
 344 0038 2800     		movs	r0, r5
 345              		@ sp needed
 346              	.LVL34:
 347              	.LVL35:
 348              	.LVL36:
 349 003a 70BD     		pop	{r4, r5, r6, pc}
 350              	.LVL37:
 351              	.L28:
 352              	.LBB73:
 353              	.LBB72:
 354              		.loc 1 194 0
 355 003c 2368     		ldr	r3, [r4]
 356 003e A360     		str	r3, [r4, #8]
 357 0040 F4E7     		b	.L26
 358              	.LVL38:
 359              	.L27:
 360              	.LBE72:
 361              	.LBE73:
 362              		.loc 1 188 0 discriminator 2
 363 0042 0248     		ldr	r0, .L29
 364 0044 FFF7FEFF 		bl	chSysHalt
 365              	.LVL39:
 366 0048 E2E7     		b	.L24
 367              	.L30:
 368 004a C046     		.align	2
 369              	.L29:
 370 004c 00000000 		.word	.LANCHOR3
 371              		.cfi_endproc
 372              	.LFE142:
 373              		.size	chMBPostS, .-chMBPostS
 374              		.section	.text.chMBPost,"ax",%progbits
 375              		.align	1
 376              		.p2align 4,,15
 377              		.global	chMBPost
 378              		.syntax unified
 379              		.code	16
 380              		.thumb_func
 381              		.fpu softvfp
 382              		.type	chMBPost, %function
 383              	chMBPost:
 384              	.LFB141:
 385              		.loc 1 155 0
 386              		.cfi_startproc
 387              		@ args = 0, pretend = 0, frame = 0
 388              		@ frame_needed = 0, uses_anonymous_args = 0
 389              	.LVL40:
 390 0000 70B5     		push	{r4, r5, r6, lr}
 391              		.cfi_def_cfa_offset 16
 392              		.cfi_offset 4, -16
 393              		.cfi_offset 5, -12
 394              		.cfi_offset 6, -8
 395              		.cfi_offset 14, -4
 396              		.loc 1 155 0
 397 0002 0400     		movs	r4, r0
 398 0004 0D00     		movs	r5, r1
 399 0006 1600     		movs	r6, r2
ARM GAS  /var/folders/t8/16hdwfmd2fg_d3q6dgx6bpmw0000gn/T//ccrdSefC.s 			page 8


 400              	.LBB84:
 401              	.LBB85:
 402              	.LBB86:
 403              	.LBB87:
 404              	.LBB88:
 405              		.loc 2 71 0
 406              		.syntax divided
 407              	@ 71 "../../tmk_core/tool/chibios/ChibiOS/os/common/ext/CMSIS/include/cmsis_gcc.h" 1
 408 0008 72B6     		cpsid i
 409              	@ 0 "" 2
 410              		.thumb
 411              		.syntax unified
 412              	.LBE88:
 413              	.LBE87:
 414              	.LBE86:
 415              		.loc 3 378 0
 416 000a FFF7FEFF 		bl	_dbg_check_lock
 417              	.LVL41:
 418              	.LBE85:
 419              	.LBE84:
 420              		.loc 1 159 0
 421 000e 3200     		movs	r2, r6
 422 0010 2900     		movs	r1, r5
 423 0012 2000     		movs	r0, r4
 424 0014 FFF7FEFF 		bl	chMBPostS
 425              	.LVL42:
 426 0018 0400     		movs	r4, r0
 427              	.LVL43:
 428              	.LBB89:
 429              	.LBB90:
 430              		.loc 3 388 0
 431 001a FFF7FEFF 		bl	_dbg_check_unlock
 432              	.LVL44:
 433              		.loc 3 395 0
 434 001e 084B     		ldr	r3, .L34
 435 0020 1A68     		ldr	r2, [r3]
 436 0022 9A42     		cmp	r2, r3
 437 0024 04D0     		beq	.L32
 438 0026 9B69     		ldr	r3, [r3, #24]
 439 0028 9968     		ldr	r1, [r3, #8]
 440 002a 9368     		ldr	r3, [r2, #8]
 441 002c 9942     		cmp	r1, r3
 442 002e 02D3     		bcc	.L33
 443              	.L32:
 444              	.LBB91:
 445              	.LBB92:
 446              	.LBB93:
 447              		.loc 2 60 0
 448              		.syntax divided
 449              	@ 60 "../../tmk_core/tool/chibios/ChibiOS/os/common/ext/CMSIS/include/cmsis_gcc.h" 1
 450 0030 62B6     		cpsie i
 451              	@ 0 "" 2
 452              		.thumb
 453              		.syntax unified
 454              	.LBE93:
 455              	.LBE92:
 456              	.LBE91:
ARM GAS  /var/folders/t8/16hdwfmd2fg_d3q6dgx6bpmw0000gn/T//ccrdSefC.s 			page 9


 457              	.LBE90:
 458              	.LBE89:
 459              		.loc 1 163 0
 460 0032 2000     		movs	r0, r4
 461              		@ sp needed
 462              	.LVL45:
 463              	.LVL46:
 464              	.LVL47:
 465 0034 70BD     		pop	{r4, r5, r6, pc}
 466              	.LVL48:
 467              	.L33:
 468              	.LBB95:
 469              	.LBB94:
 470              		.loc 3 395 0
 471 0036 0348     		ldr	r0, .L34+4
 472 0038 FFF7FEFF 		bl	chSysHalt
 473              	.LVL49:
 474 003c F8E7     		b	.L32
 475              	.L35:
 476 003e C046     		.align	2
 477              	.L34:
 478 0040 00000000 		.word	ch
 479 0044 00000000 		.word	.LANCHOR2
 480              	.LBE94:
 481              	.LBE95:
 482              		.cfi_endproc
 483              	.LFE141:
 484              		.size	chMBPost, .-chMBPost
 485              		.section	.text.chMBPostI,"ax",%progbits
 486              		.align	1
 487              		.p2align 4,,15
 488              		.global	chMBPostI
 489              		.syntax unified
 490              		.code	16
 491              		.thumb_func
 492              		.fpu softvfp
 493              		.type	chMBPostI, %function
 494              	chMBPostI:
 495              	.LFB143:
 496              		.loc 1 217 0
 497              		.cfi_startproc
 498              		@ args = 0, pretend = 0, frame = 0
 499              		@ frame_needed = 0, uses_anonymous_args = 0
 500              	.LVL50:
 501 0000 70B5     		push	{r4, r5, r6, lr}
 502              		.cfi_def_cfa_offset 16
 503              		.cfi_offset 4, -16
 504              		.cfi_offset 5, -12
 505              		.cfi_offset 6, -8
 506              		.cfi_offset 14, -4
 507              		.loc 1 217 0
 508 0002 0400     		movs	r4, r0
 509 0004 0D00     		movs	r5, r1
 510              		.loc 1 219 0
 511 0006 FFF7FEFF 		bl	chDbgCheckClassI
 512              	.LVL51:
 513              		.loc 1 220 0
ARM GAS  /var/folders/t8/16hdwfmd2fg_d3q6dgx6bpmw0000gn/T//ccrdSefC.s 			page 10


 514 000a 002C     		cmp	r4, #0
 515 000c 19D0     		beq	.L41
 516              	.L37:
 517              	.LVL52:
 518              	.LBB96:
 519              	.LBB97:
 520              		.file 4 "../../tmk_core/tool/chibios/ChibiOS/os/rt/include/chsem.h"
 521              		.loc 4 151 0
 522 000e FFF7FEFF 		bl	chDbgCheckClassI
 523              	.LVL53:
 524              	.LBE97:
 525              	.LBE96:
 526              		.loc 1 222 0
 527 0012 636A     		ldr	r3, [r4, #36]
 528 0014 002B     		cmp	r3, #0
 529 0016 18DD     		ble	.L40
 530              	.LVL54:
 531              	.LBB98:
 532              	.LBB99:
 533              		.loc 4 120 0
 534 0018 FFF7FEFF 		bl	chDbgCheckClassI
 535              	.LVL55:
 536              		.loc 4 122 0
 537 001c 636A     		ldr	r3, [r4, #36]
 538              	.LBE99:
 539              	.LBE98:
 540              		.loc 1 227 0
 541 001e A268     		ldr	r2, [r4, #8]
 542              	.LBB101:
 543              	.LBB100:
 544              		.loc 4 122 0
 545 0020 013B     		subs	r3, r3, #1
 546 0022 6362     		str	r3, [r4, #36]
 547              	.LBE100:
 548              	.LBE101:
 549              		.loc 1 227 0
 550 0024 131D     		adds	r3, r2, #4
 551 0026 A360     		str	r3, [r4, #8]
 552 0028 1560     		str	r5, [r2]
 553              		.loc 1 228 0
 554 002a 6268     		ldr	r2, [r4, #4]
 555 002c 9342     		cmp	r3, r2
 556 002e 05D2     		bcs	.L42
 557              	.L39:
 558              		.loc 1 231 0
 559 0030 2000     		movs	r0, r4
 560 0032 1030     		adds	r0, r0, #16
 561 0034 FFF7FEFF 		bl	chSemSignalI
 562              	.LVL56:
 563              		.loc 1 233 0
 564 0038 0020     		movs	r0, #0
 565              	.LVL57:
 566              	.L36:
 567              		.loc 1 234 0
 568              		@ sp needed
 569              	.LVL58:
 570              	.LVL59:
ARM GAS  /var/folders/t8/16hdwfmd2fg_d3q6dgx6bpmw0000gn/T//ccrdSefC.s 			page 11


 571 003a 70BD     		pop	{r4, r5, r6, pc}
 572              	.LVL60:
 573              	.L42:
 574              		.loc 1 229 0
 575 003c 2368     		ldr	r3, [r4]
 576 003e A360     		str	r3, [r4, #8]
 577 0040 F6E7     		b	.L39
 578              	.LVL61:
 579              	.L41:
 580              		.loc 1 220 0 discriminator 2
 581 0042 0348     		ldr	r0, .L43
 582 0044 FFF7FEFF 		bl	chSysHalt
 583              	.LVL62:
 584 0048 E1E7     		b	.L37
 585              	.LVL63:
 586              	.L40:
 587              		.loc 1 223 0
 588 004a 0120     		movs	r0, #1
 589 004c 4042     		rsbs	r0, r0, #0
 590 004e F4E7     		b	.L36
 591              	.L44:
 592              		.align	2
 593              	.L43:
 594 0050 00000000 		.word	.LANCHOR4
 595              		.cfi_endproc
 596              	.LFE143:
 597              		.size	chMBPostI, .-chMBPostI
 598              		.section	.text.chMBPostAheadS,"ax",%progbits
 599              		.align	1
 600              		.p2align 4,,15
 601              		.global	chMBPostAheadS
 602              		.syntax unified
 603              		.code	16
 604              		.thumb_func
 605              		.fpu softvfp
 606              		.type	chMBPostAheadS, %function
 607              	chMBPostAheadS:
 608              	.LFB145:
 609              		.loc 1 284 0
 610              		.cfi_startproc
 611              		@ args = 0, pretend = 0, frame = 0
 612              		@ frame_needed = 0, uses_anonymous_args = 0
 613              	.LVL64:
 614 0000 70B5     		push	{r4, r5, r6, lr}
 615              		.cfi_def_cfa_offset 16
 616              		.cfi_offset 4, -16
 617              		.cfi_offset 5, -12
 618              		.cfi_offset 6, -8
 619              		.cfi_offset 14, -4
 620              		.loc 1 284 0
 621 0002 0400     		movs	r4, r0
 622 0004 0E00     		movs	r6, r1
 623 0006 1500     		movs	r5, r2
 624              		.loc 1 287 0
 625 0008 FFF7FEFF 		bl	chDbgCheckClassS
 626              	.LVL65:
 627              		.loc 1 288 0
ARM GAS  /var/folders/t8/16hdwfmd2fg_d3q6dgx6bpmw0000gn/T//ccrdSefC.s 			page 12


 628 000c 002C     		cmp	r4, #0
 629 000e 19D0     		beq	.L49
 630              	.L46:
 631              		.loc 1 290 0
 632 0010 2000     		movs	r0, r4
 633 0012 2900     		movs	r1, r5
 634 0014 1C30     		adds	r0, r0, #28
 635 0016 FFF7FEFF 		bl	chSemWaitTimeoutS
 636              	.LVL66:
 637 001a 051E     		subs	r5, r0, #0
 638              	.LVL67:
 639              		.loc 1 291 0
 640 001c 0CD1     		bne	.L45
 641              	.LVL68:
 642              	.LBB104:
 643              	.LBB105:
 644              		.loc 1 292 0
 645 001e E368     		ldr	r3, [r4, #12]
 646 0020 2268     		ldr	r2, [r4]
 647 0022 043B     		subs	r3, r3, #4
 648 0024 E360     		str	r3, [r4, #12]
 649 0026 9342     		cmp	r3, r2
 650 0028 08D3     		bcc	.L50
 651              	.L48:
 652              		.loc 1 296 0
 653 002a 2000     		movs	r0, r4
 654              	.LVL69:
 655              		.loc 1 295 0
 656 002c 1E60     		str	r6, [r3]
 657              		.loc 1 296 0
 658 002e 1030     		adds	r0, r0, #16
 659 0030 FFF7FEFF 		bl	chSemSignalI
 660              	.LVL70:
 661              		.loc 1 297 0
 662 0034 FFF7FEFF 		bl	chSchRescheduleS
 663              	.LVL71:
 664              	.L45:
 665              	.LBE105:
 666              	.LBE104:
 667              		.loc 1 301 0
 668 0038 2800     		movs	r0, r5
 669              		@ sp needed
 670              	.LVL72:
 671              	.LVL73:
 672              	.LVL74:
 673 003a 70BD     		pop	{r4, r5, r6, pc}
 674              	.LVL75:
 675              	.L50:
 676              	.LBB107:
 677              	.LBB106:
 678              		.loc 1 293 0
 679 003c 6368     		ldr	r3, [r4, #4]
 680 003e 043B     		subs	r3, r3, #4
 681 0040 E360     		str	r3, [r4, #12]
 682 0042 F2E7     		b	.L48
 683              	.LVL76:
 684              	.L49:
ARM GAS  /var/folders/t8/16hdwfmd2fg_d3q6dgx6bpmw0000gn/T//ccrdSefC.s 			page 13


 685              	.LBE106:
 686              	.LBE107:
 687              		.loc 1 288 0 discriminator 2
 688 0044 0148     		ldr	r0, .L51
 689 0046 FFF7FEFF 		bl	chSysHalt
 690              	.LVL77:
 691 004a E1E7     		b	.L46
 692              	.L52:
 693              		.align	2
 694              	.L51:
 695 004c 00000000 		.word	.LANCHOR5
 696              		.cfi_endproc
 697              	.LFE145:
 698              		.size	chMBPostAheadS, .-chMBPostAheadS
 699              		.section	.text.chMBPostAhead,"ax",%progbits
 700              		.align	1
 701              		.p2align 4,,15
 702              		.global	chMBPostAhead
 703              		.syntax unified
 704              		.code	16
 705              		.thumb_func
 706              		.fpu softvfp
 707              		.type	chMBPostAhead, %function
 708              	chMBPostAhead:
 709              	.LFB144:
 710              		.loc 1 255 0
 711              		.cfi_startproc
 712              		@ args = 0, pretend = 0, frame = 0
 713              		@ frame_needed = 0, uses_anonymous_args = 0
 714              	.LVL78:
 715 0000 70B5     		push	{r4, r5, r6, lr}
 716              		.cfi_def_cfa_offset 16
 717              		.cfi_offset 4, -16
 718              		.cfi_offset 5, -12
 719              		.cfi_offset 6, -8
 720              		.cfi_offset 14, -4
 721              		.loc 1 255 0
 722 0002 0400     		movs	r4, r0
 723 0004 0D00     		movs	r5, r1
 724 0006 1600     		movs	r6, r2
 725              	.LBB118:
 726              	.LBB119:
 727              	.LBB120:
 728              	.LBB121:
 729              	.LBB122:
 730              		.loc 2 71 0
 731              		.syntax divided
 732              	@ 71 "../../tmk_core/tool/chibios/ChibiOS/os/common/ext/CMSIS/include/cmsis_gcc.h" 1
 733 0008 72B6     		cpsid i
 734              	@ 0 "" 2
 735              		.thumb
 736              		.syntax unified
 737              	.LBE122:
 738              	.LBE121:
 739              	.LBE120:
 740              		.loc 3 378 0
 741 000a FFF7FEFF 		bl	_dbg_check_lock
ARM GAS  /var/folders/t8/16hdwfmd2fg_d3q6dgx6bpmw0000gn/T//ccrdSefC.s 			page 14


 742              	.LVL79:
 743              	.LBE119:
 744              	.LBE118:
 745              		.loc 1 259 0
 746 000e 3200     		movs	r2, r6
 747 0010 2900     		movs	r1, r5
 748 0012 2000     		movs	r0, r4
 749 0014 FFF7FEFF 		bl	chMBPostAheadS
 750              	.LVL80:
 751 0018 0400     		movs	r4, r0
 752              	.LVL81:
 753              	.LBB123:
 754              	.LBB124:
 755              		.loc 3 388 0
 756 001a FFF7FEFF 		bl	_dbg_check_unlock
 757              	.LVL82:
 758              		.loc 3 395 0
 759 001e 084B     		ldr	r3, .L56
 760 0020 1A68     		ldr	r2, [r3]
 761 0022 9A42     		cmp	r2, r3
 762 0024 04D0     		beq	.L54
 763 0026 9B69     		ldr	r3, [r3, #24]
 764 0028 9968     		ldr	r1, [r3, #8]
 765 002a 9368     		ldr	r3, [r2, #8]
 766 002c 9942     		cmp	r1, r3
 767 002e 02D3     		bcc	.L55
 768              	.L54:
 769              	.LBB125:
 770              	.LBB126:
 771              	.LBB127:
 772              		.loc 2 60 0
 773              		.syntax divided
 774              	@ 60 "../../tmk_core/tool/chibios/ChibiOS/os/common/ext/CMSIS/include/cmsis_gcc.h" 1
 775 0030 62B6     		cpsie i
 776              	@ 0 "" 2
 777              		.thumb
 778              		.syntax unified
 779              	.LBE127:
 780              	.LBE126:
 781              	.LBE125:
 782              	.LBE124:
 783              	.LBE123:
 784              		.loc 1 263 0
 785 0032 2000     		movs	r0, r4
 786              		@ sp needed
 787              	.LVL83:
 788              	.LVL84:
 789              	.LVL85:
 790 0034 70BD     		pop	{r4, r5, r6, pc}
 791              	.LVL86:
 792              	.L55:
 793              	.LBB129:
 794              	.LBB128:
 795              		.loc 3 395 0
 796 0036 0348     		ldr	r0, .L56+4
 797 0038 FFF7FEFF 		bl	chSysHalt
 798              	.LVL87:
ARM GAS  /var/folders/t8/16hdwfmd2fg_d3q6dgx6bpmw0000gn/T//ccrdSefC.s 			page 15


 799 003c F8E7     		b	.L54
 800              	.L57:
 801 003e C046     		.align	2
 802              	.L56:
 803 0040 00000000 		.word	ch
 804 0044 00000000 		.word	.LANCHOR2
 805              	.LBE128:
 806              	.LBE129:
 807              		.cfi_endproc
 808              	.LFE144:
 809              		.size	chMBPostAhead, .-chMBPostAhead
 810              		.section	.text.chMBPostAheadI,"ax",%progbits
 811              		.align	1
 812              		.p2align 4,,15
 813              		.global	chMBPostAheadI
 814              		.syntax unified
 815              		.code	16
 816              		.thumb_func
 817              		.fpu softvfp
 818              		.type	chMBPostAheadI, %function
 819              	chMBPostAheadI:
 820              	.LFB146:
 821              		.loc 1 317 0
 822              		.cfi_startproc
 823              		@ args = 0, pretend = 0, frame = 0
 824              		@ frame_needed = 0, uses_anonymous_args = 0
 825              	.LVL88:
 826 0000 70B5     		push	{r4, r5, r6, lr}
 827              		.cfi_def_cfa_offset 16
 828              		.cfi_offset 4, -16
 829              		.cfi_offset 5, -12
 830              		.cfi_offset 6, -8
 831              		.cfi_offset 14, -4
 832              		.loc 1 317 0
 833 0002 0400     		movs	r4, r0
 834 0004 0D00     		movs	r5, r1
 835              		.loc 1 319 0
 836 0006 FFF7FEFF 		bl	chDbgCheckClassI
 837              	.LVL89:
 838              		.loc 1 320 0
 839 000a 002C     		cmp	r4, #0
 840 000c 1AD0     		beq	.L63
 841              	.L59:
 842              	.LVL90:
 843              	.LBB130:
 844              	.LBB131:
 845              		.loc 4 151 0
 846 000e FFF7FEFF 		bl	chDbgCheckClassI
 847              	.LVL91:
 848              	.LBE131:
 849              	.LBE130:
 850              		.loc 1 322 0
 851 0012 636A     		ldr	r3, [r4, #36]
 852 0014 002B     		cmp	r3, #0
 853 0016 19DD     		ble	.L62
 854              	.LVL92:
 855              	.LBB132:
ARM GAS  /var/folders/t8/16hdwfmd2fg_d3q6dgx6bpmw0000gn/T//ccrdSefC.s 			page 16


 856              	.LBB133:
 857              		.loc 4 120 0
 858 0018 FFF7FEFF 		bl	chDbgCheckClassI
 859              	.LVL93:
 860              		.loc 4 122 0
 861 001c 636A     		ldr	r3, [r4, #36]
 862              	.LBE133:
 863              	.LBE132:
 864              		.loc 1 326 0
 865 001e 2268     		ldr	r2, [r4]
 866              	.LBB135:
 867              	.LBB134:
 868              		.loc 4 122 0
 869 0020 013B     		subs	r3, r3, #1
 870 0022 6362     		str	r3, [r4, #36]
 871              	.LBE134:
 872              	.LBE135:
 873              		.loc 1 326 0
 874 0024 E368     		ldr	r3, [r4, #12]
 875 0026 043B     		subs	r3, r3, #4
 876 0028 E360     		str	r3, [r4, #12]
 877 002a 9342     		cmp	r3, r2
 878 002c 06D3     		bcc	.L64
 879              	.L61:
 880              		.loc 1 330 0
 881 002e 2000     		movs	r0, r4
 882              		.loc 1 329 0
 883 0030 1D60     		str	r5, [r3]
 884              		.loc 1 330 0
 885 0032 1030     		adds	r0, r0, #16
 886 0034 FFF7FEFF 		bl	chSemSignalI
 887              	.LVL94:
 888              		.loc 1 332 0
 889 0038 0020     		movs	r0, #0
 890              	.LVL95:
 891              	.L58:
 892              		.loc 1 333 0
 893              		@ sp needed
 894              	.LVL96:
 895              	.LVL97:
 896 003a 70BD     		pop	{r4, r5, r6, pc}
 897              	.LVL98:
 898              	.L64:
 899              		.loc 1 327 0
 900 003c 6368     		ldr	r3, [r4, #4]
 901 003e 043B     		subs	r3, r3, #4
 902 0040 E360     		str	r3, [r4, #12]
 903 0042 F4E7     		b	.L61
 904              	.LVL99:
 905              	.L63:
 906              		.loc 1 320 0 discriminator 2
 907 0044 0348     		ldr	r0, .L65
 908 0046 FFF7FEFF 		bl	chSysHalt
 909              	.LVL100:
 910 004a E0E7     		b	.L59
 911              	.LVL101:
 912              	.L62:
ARM GAS  /var/folders/t8/16hdwfmd2fg_d3q6dgx6bpmw0000gn/T//ccrdSefC.s 			page 17


 913              		.loc 1 323 0
 914 004c 0120     		movs	r0, #1
 915 004e 4042     		rsbs	r0, r0, #0
 916 0050 F3E7     		b	.L58
 917              	.L66:
 918 0052 C046     		.align	2
 919              	.L65:
 920 0054 00000000 		.word	.LANCHOR6
 921              		.cfi_endproc
 922              	.LFE146:
 923              		.size	chMBPostAheadI, .-chMBPostAheadI
 924              		.section	.text.chMBFetchS,"ax",%progbits
 925              		.align	1
 926              		.p2align 4,,15
 927              		.global	chMBFetchS
 928              		.syntax unified
 929              		.code	16
 930              		.thumb_func
 931              		.fpu softvfp
 932              		.type	chMBFetchS, %function
 933              	chMBFetchS:
 934              	.LFB148:
 935              		.loc 1 383 0
 936              		.cfi_startproc
 937              		@ args = 0, pretend = 0, frame = 0
 938              		@ frame_needed = 0, uses_anonymous_args = 0
 939              	.LVL102:
 940 0000 70B5     		push	{r4, r5, r6, lr}
 941              		.cfi_def_cfa_offset 16
 942              		.cfi_offset 4, -16
 943              		.cfi_offset 5, -12
 944              		.cfi_offset 6, -8
 945              		.cfi_offset 14, -4
 946              		.loc 1 383 0
 947 0002 0400     		movs	r4, r0
 948 0004 0E00     		movs	r6, r1
 949 0006 1500     		movs	r5, r2
 950              		.loc 1 386 0
 951 0008 FFF7FEFF 		bl	chDbgCheckClassS
 952              	.LVL103:
 953              		.loc 1 387 0
 954 000c 002C     		cmp	r4, #0
 955 000e 1BD0     		beq	.L68
 956              		.loc 1 387 0 is_stmt 0 discriminator 3
 957 0010 002E     		cmp	r6, #0
 958 0012 19D0     		beq	.L68
 959              	.L69:
 960              		.loc 1 389 0 is_stmt 1
 961 0014 2000     		movs	r0, r4
 962 0016 2900     		movs	r1, r5
 963 0018 1030     		adds	r0, r0, #16
 964 001a FFF7FEFF 		bl	chSemWaitTimeoutS
 965              	.LVL104:
 966 001e 051E     		subs	r5, r0, #0
 967              	.LVL105:
 968              		.loc 1 390 0
 969 0020 0DD1     		bne	.L67
ARM GAS  /var/folders/t8/16hdwfmd2fg_d3q6dgx6bpmw0000gn/T//ccrdSefC.s 			page 18


 970              	.LVL106:
 971              	.LBB138:
 972              	.LBB139:
 973              		.loc 1 391 0
 974 0022 E268     		ldr	r2, [r4, #12]
 975 0024 131D     		adds	r3, r2, #4
 976 0026 1268     		ldr	r2, [r2]
 977 0028 E360     		str	r3, [r4, #12]
 978 002a 3260     		str	r2, [r6]
 979              		.loc 1 392 0
 980 002c 6268     		ldr	r2, [r4, #4]
 981 002e 9342     		cmp	r3, r2
 982 0030 07D2     		bcs	.L75
 983              	.L71:
 984              		.loc 1 395 0
 985 0032 2000     		movs	r0, r4
 986              	.LVL107:
 987 0034 1C30     		adds	r0, r0, #28
 988 0036 FFF7FEFF 		bl	chSemSignalI
 989              	.LVL108:
 990              		.loc 1 396 0
 991 003a FFF7FEFF 		bl	chSchRescheduleS
 992              	.LVL109:
 993              	.L67:
 994              	.LBE139:
 995              	.LBE138:
 996              		.loc 1 400 0
 997 003e 2800     		movs	r0, r5
 998              		@ sp needed
 999              	.LVL110:
 1000              	.LVL111:
 1001              	.LVL112:
 1002 0040 70BD     		pop	{r4, r5, r6, pc}
 1003              	.LVL113:
 1004              	.L75:
 1005              	.LBB141:
 1006              	.LBB140:
 1007              		.loc 1 393 0
 1008 0042 2368     		ldr	r3, [r4]
 1009 0044 E360     		str	r3, [r4, #12]
 1010 0046 F4E7     		b	.L71
 1011              	.LVL114:
 1012              	.L68:
 1013              	.LBE140:
 1014              	.LBE141:
 1015              		.loc 1 387 0 discriminator 4
 1016 0048 0148     		ldr	r0, .L76
 1017 004a FFF7FEFF 		bl	chSysHalt
 1018              	.LVL115:
 1019 004e E1E7     		b	.L69
 1020              	.L77:
 1021              		.align	2
 1022              	.L76:
 1023 0050 00000000 		.word	.LANCHOR7
 1024              		.cfi_endproc
 1025              	.LFE148:
 1026              		.size	chMBFetchS, .-chMBFetchS
ARM GAS  /var/folders/t8/16hdwfmd2fg_d3q6dgx6bpmw0000gn/T//ccrdSefC.s 			page 19


 1027              		.section	.text.chMBFetch,"ax",%progbits
 1028              		.align	1
 1029              		.p2align 4,,15
 1030              		.global	chMBFetch
 1031              		.syntax unified
 1032              		.code	16
 1033              		.thumb_func
 1034              		.fpu softvfp
 1035              		.type	chMBFetch, %function
 1036              	chMBFetch:
 1037              	.LFB147:
 1038              		.loc 1 354 0
 1039              		.cfi_startproc
 1040              		@ args = 0, pretend = 0, frame = 0
 1041              		@ frame_needed = 0, uses_anonymous_args = 0
 1042              	.LVL116:
 1043 0000 70B5     		push	{r4, r5, r6, lr}
 1044              		.cfi_def_cfa_offset 16
 1045              		.cfi_offset 4, -16
 1046              		.cfi_offset 5, -12
 1047              		.cfi_offset 6, -8
 1048              		.cfi_offset 14, -4
 1049              		.loc 1 354 0
 1050 0002 0400     		movs	r4, r0
 1051 0004 0D00     		movs	r5, r1
 1052 0006 1600     		movs	r6, r2
 1053              	.LBB152:
 1054              	.LBB153:
 1055              	.LBB154:
 1056              	.LBB155:
 1057              	.LBB156:
 1058              		.loc 2 71 0
 1059              		.syntax divided
 1060              	@ 71 "../../tmk_core/tool/chibios/ChibiOS/os/common/ext/CMSIS/include/cmsis_gcc.h" 1
 1061 0008 72B6     		cpsid i
 1062              	@ 0 "" 2
 1063              		.thumb
 1064              		.syntax unified
 1065              	.LBE156:
 1066              	.LBE155:
 1067              	.LBE154:
 1068              		.loc 3 378 0
 1069 000a FFF7FEFF 		bl	_dbg_check_lock
 1070              	.LVL117:
 1071              	.LBE153:
 1072              	.LBE152:
 1073              		.loc 1 358 0
 1074 000e 3200     		movs	r2, r6
 1075 0010 2900     		movs	r1, r5
 1076 0012 2000     		movs	r0, r4
 1077 0014 FFF7FEFF 		bl	chMBFetchS
 1078              	.LVL118:
 1079 0018 0400     		movs	r4, r0
 1080              	.LVL119:
 1081              	.LBB157:
 1082              	.LBB158:
 1083              		.loc 3 388 0
ARM GAS  /var/folders/t8/16hdwfmd2fg_d3q6dgx6bpmw0000gn/T//ccrdSefC.s 			page 20


 1084 001a FFF7FEFF 		bl	_dbg_check_unlock
 1085              	.LVL120:
 1086              		.loc 3 395 0
 1087 001e 084B     		ldr	r3, .L81
 1088 0020 1A68     		ldr	r2, [r3]
 1089 0022 9A42     		cmp	r2, r3
 1090 0024 04D0     		beq	.L79
 1091 0026 9B69     		ldr	r3, [r3, #24]
 1092 0028 9968     		ldr	r1, [r3, #8]
 1093 002a 9368     		ldr	r3, [r2, #8]
 1094 002c 9942     		cmp	r1, r3
 1095 002e 02D3     		bcc	.L80
 1096              	.L79:
 1097              	.LBB159:
 1098              	.LBB160:
 1099              	.LBB161:
 1100              		.loc 2 60 0
 1101              		.syntax divided
 1102              	@ 60 "../../tmk_core/tool/chibios/ChibiOS/os/common/ext/CMSIS/include/cmsis_gcc.h" 1
 1103 0030 62B6     		cpsie i
 1104              	@ 0 "" 2
 1105              		.thumb
 1106              		.syntax unified
 1107              	.LBE161:
 1108              	.LBE160:
 1109              	.LBE159:
 1110              	.LBE158:
 1111              	.LBE157:
 1112              		.loc 1 362 0
 1113 0032 2000     		movs	r0, r4
 1114              		@ sp needed
 1115              	.LVL121:
 1116              	.LVL122:
 1117              	.LVL123:
 1118 0034 70BD     		pop	{r4, r5, r6, pc}
 1119              	.LVL124:
 1120              	.L80:
 1121              	.LBB163:
 1122              	.LBB162:
 1123              		.loc 3 395 0
 1124 0036 0348     		ldr	r0, .L81+4
 1125 0038 FFF7FEFF 		bl	chSysHalt
 1126              	.LVL125:
 1127 003c F8E7     		b	.L79
 1128              	.L82:
 1129 003e C046     		.align	2
 1130              	.L81:
 1131 0040 00000000 		.word	ch
 1132 0044 00000000 		.word	.LANCHOR2
 1133              	.LBE162:
 1134              	.LBE163:
 1135              		.cfi_endproc
 1136              	.LFE147:
 1137              		.size	chMBFetch, .-chMBFetch
 1138              		.section	.text.chMBFetchI,"ax",%progbits
 1139              		.align	1
 1140              		.p2align 4,,15
ARM GAS  /var/folders/t8/16hdwfmd2fg_d3q6dgx6bpmw0000gn/T//ccrdSefC.s 			page 21


 1141              		.global	chMBFetchI
 1142              		.syntax unified
 1143              		.code	16
 1144              		.thumb_func
 1145              		.fpu softvfp
 1146              		.type	chMBFetchI, %function
 1147              	chMBFetchI:
 1148              	.LFB149:
 1149              		.loc 1 416 0
 1150              		.cfi_startproc
 1151              		@ args = 0, pretend = 0, frame = 0
 1152              		@ frame_needed = 0, uses_anonymous_args = 0
 1153              	.LVL126:
 1154 0000 70B5     		push	{r4, r5, r6, lr}
 1155              		.cfi_def_cfa_offset 16
 1156              		.cfi_offset 4, -16
 1157              		.cfi_offset 5, -12
 1158              		.cfi_offset 6, -8
 1159              		.cfi_offset 14, -4
 1160              		.loc 1 416 0
 1161 0002 0400     		movs	r4, r0
 1162 0004 0D00     		movs	r5, r1
 1163              		.loc 1 418 0
 1164 0006 FFF7FEFF 		bl	chDbgCheckClassI
 1165              	.LVL127:
 1166              		.loc 1 419 0
 1167 000a 002C     		cmp	r4, #0
 1168 000c 1CD0     		beq	.L84
 1169              		.loc 1 419 0 is_stmt 0 discriminator 3
 1170 000e 002D     		cmp	r5, #0
 1171 0010 1AD0     		beq	.L84
 1172              	.L85:
 1173              	.LVL128:
 1174              	.LBB164:
 1175              	.LBB165:
 1176              		.loc 4 151 0 is_stmt 1
 1177 0012 FFF7FEFF 		bl	chDbgCheckClassI
 1178              	.LVL129:
 1179              	.LBE165:
 1180              	.LBE164:
 1181              		.loc 1 421 0
 1182 0016 A369     		ldr	r3, [r4, #24]
 1183 0018 002B     		cmp	r3, #0
 1184 001a 19DD     		ble	.L88
 1185              	.LVL130:
 1186              	.LBB166:
 1187              	.LBB167:
 1188              		.loc 4 120 0
 1189 001c FFF7FEFF 		bl	chDbgCheckClassI
 1190              	.LVL131:
 1191              		.loc 4 122 0
 1192 0020 A369     		ldr	r3, [r4, #24]
 1193              	.LBE167:
 1194              	.LBE166:
 1195              		.loc 1 425 0
 1196 0022 E268     		ldr	r2, [r4, #12]
 1197              	.LBB169:
ARM GAS  /var/folders/t8/16hdwfmd2fg_d3q6dgx6bpmw0000gn/T//ccrdSefC.s 			page 22


 1198              	.LBB168:
 1199              		.loc 4 122 0
 1200 0024 013B     		subs	r3, r3, #1
 1201 0026 A361     		str	r3, [r4, #24]
 1202              	.LBE168:
 1203              	.LBE169:
 1204              		.loc 1 425 0
 1205 0028 131D     		adds	r3, r2, #4
 1206 002a 1268     		ldr	r2, [r2]
 1207 002c E360     		str	r3, [r4, #12]
 1208 002e 2A60     		str	r2, [r5]
 1209              		.loc 1 426 0
 1210 0030 6268     		ldr	r2, [r4, #4]
 1211 0032 9342     		cmp	r3, r2
 1212 0034 05D2     		bcs	.L92
 1213              	.L87:
 1214              		.loc 1 429 0
 1215 0036 2000     		movs	r0, r4
 1216 0038 1C30     		adds	r0, r0, #28
 1217 003a FFF7FEFF 		bl	chSemSignalI
 1218              	.LVL132:
 1219              		.loc 1 431 0
 1220 003e 0020     		movs	r0, #0
 1221              	.LVL133:
 1222              	.L83:
 1223              		.loc 1 432 0
 1224              		@ sp needed
 1225              	.LVL134:
 1226              	.LVL135:
 1227 0040 70BD     		pop	{r4, r5, r6, pc}
 1228              	.LVL136:
 1229              	.L92:
 1230              		.loc 1 427 0
 1231 0042 2368     		ldr	r3, [r4]
 1232 0044 E360     		str	r3, [r4, #12]
 1233 0046 F6E7     		b	.L87
 1234              	.LVL137:
 1235              	.L84:
 1236              		.loc 1 419 0 discriminator 4
 1237 0048 0348     		ldr	r0, .L93
 1238 004a FFF7FEFF 		bl	chSysHalt
 1239              	.LVL138:
 1240 004e E0E7     		b	.L85
 1241              	.LVL139:
 1242              	.L88:
 1243              		.loc 1 422 0
 1244 0050 0120     		movs	r0, #1
 1245 0052 4042     		rsbs	r0, r0, #0
 1246 0054 F4E7     		b	.L83
 1247              	.L94:
 1248 0056 C046     		.align	2
 1249              	.L93:
 1250 0058 00000000 		.word	.LANCHOR8
 1251              		.cfi_endproc
 1252              	.LFE149:
 1253              		.size	chMBFetchI, .-chMBFetchI
 1254              		.section	.rodata.__func__.5043,"a",%progbits
ARM GAS  /var/folders/t8/16hdwfmd2fg_d3q6dgx6bpmw0000gn/T//ccrdSefC.s 			page 23


 1255              		.align	2
 1256              		.set	.LANCHOR2,. + 0
 1257              		.type	__func__.5043, %object
 1258              		.size	__func__.5043, 12
 1259              	__func__.5043:
 1260 0000 63685379 		.ascii	"chSysUnlock\000"
 1260      73556E6C 
 1260      6F636B00 
 1261              		.section	.rodata.__func__.5719,"a",%progbits
 1262              		.align	2
 1263              		.set	.LANCHOR0,. + 0
 1264              		.type	__func__.5719, %object
 1265              		.size	__func__.5719, 15
 1266              	__func__.5719:
 1267 0000 63684D42 		.ascii	"chMBObjectInit\000"
 1267      4F626A65 
 1267      6374496E 
 1267      697400
 1268              		.section	.rodata.__func__.5726,"a",%progbits
 1269              		.align	2
 1270              		.set	.LANCHOR1,. + 0
 1271              		.type	__func__.5726, %object
 1272              		.size	__func__.5726, 11
 1273              	__func__.5726:
 1274 0000 63684D42 		.ascii	"chMBResetI\000"
 1274      52657365 
 1274      744900
 1275              		.section	.rodata.__func__.5739,"a",%progbits
 1276              		.align	2
 1277              		.set	.LANCHOR3,. + 0
 1278              		.type	__func__.5739, %object
 1279              		.size	__func__.5739, 10
 1280              	__func__.5739:
 1281 0000 63684D42 		.ascii	"chMBPostS\000"
 1281      506F7374 
 1281      5300
 1282              		.section	.rodata.__func__.5744,"a",%progbits
 1283              		.align	2
 1284              		.set	.LANCHOR4,. + 0
 1285              		.type	__func__.5744, %object
 1286              		.size	__func__.5744, 10
 1287              	__func__.5744:
 1288 0000 63684D42 		.ascii	"chMBPostI\000"
 1288      506F7374 
 1288      4900
 1289              		.section	.rodata.__func__.5757,"a",%progbits
 1290              		.align	2
 1291              		.set	.LANCHOR5,. + 0
 1292              		.type	__func__.5757, %object
 1293              		.size	__func__.5757, 15
 1294              	__func__.5757:
 1295 0000 63684D42 		.ascii	"chMBPostAheadS\000"
 1295      506F7374 
 1295      41686561 
 1295      645300
 1296              		.section	.rodata.__func__.5762,"a",%progbits
 1297              		.align	2
ARM GAS  /var/folders/t8/16hdwfmd2fg_d3q6dgx6bpmw0000gn/T//ccrdSefC.s 			page 24


 1298              		.set	.LANCHOR6,. + 0
 1299              		.type	__func__.5762, %object
 1300              		.size	__func__.5762, 15
 1301              	__func__.5762:
 1302 0000 63684D42 		.ascii	"chMBPostAheadI\000"
 1302      506F7374 
 1302      41686561 
 1302      644900
 1303              		.section	.rodata.__func__.5775,"a",%progbits
 1304              		.align	2
 1305              		.set	.LANCHOR7,. + 0
 1306              		.type	__func__.5775, %object
 1307              		.size	__func__.5775, 11
 1308              	__func__.5775:
 1309 0000 63684D42 		.ascii	"chMBFetchS\000"
 1309      46657463 
 1309      685300
 1310              		.section	.rodata.__func__.5780,"a",%progbits
 1311              		.align	2
 1312              		.set	.LANCHOR8,. + 0
 1313              		.type	__func__.5780, %object
 1314              		.size	__func__.5780, 11
 1315              	__func__.5780:
 1316 0000 63684D42 		.ascii	"chMBFetchI\000"
 1316      46657463 
 1316      684900
 1317              		.text
 1318              	.Letext0:
 1319              		.file 5 "/usr/local/Caskroom/gcc-arm-embedded/7-2017-q4-major/gcc-arm-none-eabi-7-2017-q4-major/ar
 1320              		.file 6 "/usr/local/Caskroom/gcc-arm-embedded/7-2017-q4-major/gcc-arm-none-eabi-7-2017-q4-major/ar
 1321              		.file 7 "../../tmk_core/tool/chibios/ChibiOS/os/common/ports/ARMCMx/compilers/GCC/chtypes.h"
 1322              		.file 8 "../../tmk_core/tool/chibios/ChibiOS/os/rt/include/chsystypes.h"
 1323              		.file 9 "../../tmk_core/tool/chibios/ChibiOS/os/rt/include/chschd.h"
 1324              		.file 10 "../../tmk_core/tool/chibios/ChibiOS/os/common/ports/ARMCMx/chcore.h"
 1325              		.file 11 "../../tmk_core/tool/chibios/ChibiOS/os/common/ports/ARMCMx/chcore_v6m.h"
 1326              		.file 12 "../../tmk_core/tool/chibios/ChibiOS/os/rt/include/chmtx.h"
 1327              		.file 13 "../../tmk_core/tool/chibios/ChibiOS/os/rt/include/chregistry.h"
 1328              		.file 14 "../../tmk_core/tool/chibios/ChibiOS/os/common/oslib/include/chmboxes.h"
 1329              		.file 15 "../../tmk_core/tool/chibios/ChibiOS/os/rt/include/chdebug.h"