ARM GAS  /var/folders/t8/16hdwfmd2fg_d3q6dgx6bpmw0000gn/T//cct6PQMD.s 			page 1


   1              		.cpu cortex-m0plus
   2              		.eabi_attribute 20, 1
   3              		.eabi_attribute 21, 1
   4              		.eabi_attribute 23, 3
   5              		.eabi_attribute 24, 1
   6              		.eabi_attribute 25, 1
   7              		.eabi_attribute 26, 1
   8              		.eabi_attribute 30, 2
   9              		.eabi_attribute 34, 0
  10              		.eabi_attribute 18, 4
  11              		.file	"chmempools.c"
  12              		.text
  13              	.Ltext0:
  14              		.cfi_sections	.debug_frame
  15              		.section	.text.chPoolObjectInit,"ax",%progbits
  16              		.align	1
  17              		.p2align 4,,15
  18              		.global	chPoolObjectInit
  19              		.syntax unified
  20              		.code	16
  21              		.thumb_func
  22              		.fpu softvfp
  23              		.type	chPoolObjectInit, %function
  24              	chPoolObjectInit:
  25              	.LFB138:
  26              		.file 1 "../../tmk_core/tool/chibios/ChibiOS/os/common/oslib/src/chmempools.c"
  27              		.loc 1 76 0
  28              		.cfi_startproc
  29              		@ args = 0, pretend = 0, frame = 0
  30              		@ frame_needed = 0, uses_anonymous_args = 0
  31              	.LVL0:
  32 0000 70B5     		push	{r4, r5, r6, lr}
  33              		.cfi_def_cfa_offset 16
  34              		.cfi_offset 4, -16
  35              		.cfi_offset 5, -12
  36              		.cfi_offset 6, -8
  37              		.cfi_offset 14, -4
  38              		.loc 1 76 0
  39 0002 0400     		movs	r4, r0
  40 0004 0D00     		movs	r5, r1
  41 0006 1600     		movs	r6, r2
  42              		.loc 1 78 0
  43 0008 0028     		cmp	r0, #0
  44 000a 01D0     		beq	.L2
  45              		.loc 1 78 0 is_stmt 0 discriminator 3
  46 000c 0329     		cmp	r1, #3
  47 000e 02D8     		bhi	.L3
  48              	.L2:
  49              		.loc 1 78 0 discriminator 4
  50 0010 0248     		ldr	r0, .L8
  51              	.LVL1:
  52 0012 FFF7FEFF 		bl	chSysHalt
  53              	.LVL2:
  54              	.L3:
  55              		.loc 1 80 0 is_stmt 1
  56 0016 0023     		movs	r3, #0
  57              		.loc 1 83 0
ARM GAS  /var/folders/t8/16hdwfmd2fg_d3q6dgx6bpmw0000gn/T//cct6PQMD.s 			page 2


  58              		@ sp needed
  59              		.loc 1 82 0
  60 0018 68C4     		stmia	r4!, {r3, r5, r6}
  61              	.LVL3:
  62              	.LVL4:
  63              	.LVL5:
  64              	.LVL6:
  65              		.loc 1 83 0
  66 001a 70BD     		pop	{r4, r5, r6, pc}
  67              	.L9:
  68              		.align	2
  69              	.L8:
  70 001c 00000000 		.word	.LANCHOR0
  71              		.cfi_endproc
  72              	.LFE138:
  73              		.size	chPoolObjectInit, .-chPoolObjectInit
  74              		.section	.text.chPoolAllocI,"ax",%progbits
  75              		.align	1
  76              		.p2align 4,,15
  77              		.global	chPoolAllocI
  78              		.syntax unified
  79              		.code	16
  80              		.thumb_func
  81              		.fpu softvfp
  82              		.type	chPoolAllocI, %function
  83              	chPoolAllocI:
  84              	.LFB140:
  85              		.loc 1 121 0
  86              		.cfi_startproc
  87              		@ args = 0, pretend = 0, frame = 0
  88              		@ frame_needed = 0, uses_anonymous_args = 0
  89              	.LVL7:
  90 0000 10B5     		push	{r4, lr}
  91              		.cfi_def_cfa_offset 8
  92              		.cfi_offset 4, -8
  93              		.cfi_offset 14, -4
  94              		.loc 1 121 0
  95 0002 0400     		movs	r4, r0
  96              		.loc 1 124 0
  97 0004 FFF7FEFF 		bl	chDbgCheckClassI
  98              	.LVL8:
  99              		.loc 1 125 0
 100 0008 002C     		cmp	r4, #0
 101 000a 0CD0     		beq	.L17
 102              	.L11:
 103              		.loc 1 127 0
 104 000c 2068     		ldr	r0, [r4]
 105              	.LVL9:
 106              		.loc 1 129 0
 107 000e 0028     		cmp	r0, #0
 108 0010 02D0     		beq	.L12
 109              		.loc 1 130 0
 110 0012 0368     		ldr	r3, [r0]
 111 0014 2360     		str	r3, [r4]
 112              	.L10:
 113              		.loc 1 138 0
 114              		@ sp needed
ARM GAS  /var/folders/t8/16hdwfmd2fg_d3q6dgx6bpmw0000gn/T//cct6PQMD.s 			page 3


 115              	.LVL10:
 116 0016 10BD     		pop	{r4, pc}
 117              	.LVL11:
 118              	.L12:
 119              	.LBB58:
 120              	.LBB59:
 121              		.loc 1 132 0
 122 0018 A368     		ldr	r3, [r4, #8]
 123 001a 002B     		cmp	r3, #0
 124 001c FBD0     		beq	.L10
 125              		.loc 1 133 0
 126 001e 6068     		ldr	r0, [r4, #4]
 127              	.LVL12:
 128 0020 0421     		movs	r1, #4
 129 0022 9847     		blx	r3
 130              	.LVL13:
 131              	.LBE59:
 132              	.LBE58:
 133              		.loc 1 137 0
 134 0024 F7E7     		b	.L10
 135              	.LVL14:
 136              	.L17:
 137              		.loc 1 125 0 discriminator 2
 138 0026 0248     		ldr	r0, .L18
 139 0028 FFF7FEFF 		bl	chSysHalt
 140              	.LVL15:
 141 002c EEE7     		b	.L11
 142              	.L19:
 143 002e C046     		.align	2
 144              	.L18:
 145 0030 00000000 		.word	.LANCHOR1
 146              		.cfi_endproc
 147              	.LFE140:
 148              		.size	chPoolAllocI, .-chPoolAllocI
 149              		.section	.text.chPoolAlloc,"ax",%progbits
 150              		.align	1
 151              		.p2align 4,,15
 152              		.global	chPoolAlloc
 153              		.syntax unified
 154              		.code	16
 155              		.thumb_func
 156              		.fpu softvfp
 157              		.type	chPoolAlloc, %function
 158              	chPoolAlloc:
 159              	.LFB141:
 160              		.loc 1 150 0
 161              		.cfi_startproc
 162              		@ args = 0, pretend = 0, frame = 0
 163              		@ frame_needed = 0, uses_anonymous_args = 0
 164              	.LVL16:
 165 0000 10B5     		push	{r4, lr}
 166              		.cfi_def_cfa_offset 8
 167              		.cfi_offset 4, -8
 168              		.cfi_offset 14, -4
 169              		.loc 1 150 0
 170 0002 0400     		movs	r4, r0
 171              	.LBB70:
ARM GAS  /var/folders/t8/16hdwfmd2fg_d3q6dgx6bpmw0000gn/T//cct6PQMD.s 			page 4


 172              	.LBB71:
 173              	.LBB72:
 174              	.LBB73:
 175              	.LBB74:
 176              		.file 2 "../../tmk_core/tool/chibios/ChibiOS/os/common/ext/CMSIS/include/cmsis_gcc.h"
 177              		.loc 2 71 0
 178              		.syntax divided
 179              	@ 71 "../../tmk_core/tool/chibios/ChibiOS/os/common/ext/CMSIS/include/cmsis_gcc.h" 1
 180 0004 72B6     		cpsid i
 181              	@ 0 "" 2
 182              		.thumb
 183              		.syntax unified
 184              	.LBE74:
 185              	.LBE73:
 186              	.LBE72:
 187              		.file 3 "../../tmk_core/tool/chibios/ChibiOS/os/rt/include/chsys.h"
 188              		.loc 3 378 0
 189 0006 FFF7FEFF 		bl	_dbg_check_lock
 190              	.LVL17:
 191              	.LBE71:
 192              	.LBE70:
 193              		.loc 1 154 0
 194 000a 2000     		movs	r0, r4
 195 000c FFF7FEFF 		bl	chPoolAllocI
 196              	.LVL18:
 197 0010 0400     		movs	r4, r0
 198              	.LVL19:
 199              	.LBB75:
 200              	.LBB76:
 201              		.loc 3 388 0
 202 0012 FFF7FEFF 		bl	_dbg_check_unlock
 203              	.LVL20:
 204              		.loc 3 395 0
 205 0016 084B     		ldr	r3, .L23
 206 0018 1A68     		ldr	r2, [r3]
 207 001a 9A42     		cmp	r2, r3
 208 001c 04D0     		beq	.L21
 209 001e 9B69     		ldr	r3, [r3, #24]
 210 0020 9968     		ldr	r1, [r3, #8]
 211 0022 9368     		ldr	r3, [r2, #8]
 212 0024 9942     		cmp	r1, r3
 213 0026 02D3     		bcc	.L22
 214              	.L21:
 215              	.LBB77:
 216              	.LBB78:
 217              	.LBB79:
 218              		.loc 2 60 0
 219              		.syntax divided
 220              	@ 60 "../../tmk_core/tool/chibios/ChibiOS/os/common/ext/CMSIS/include/cmsis_gcc.h" 1
 221 0028 62B6     		cpsie i
 222              	@ 0 "" 2
 223              		.thumb
 224              		.syntax unified
 225              	.LBE79:
 226              	.LBE78:
 227              	.LBE77:
 228              	.LBE76:
ARM GAS  /var/folders/t8/16hdwfmd2fg_d3q6dgx6bpmw0000gn/T//cct6PQMD.s 			page 5


 229              	.LBE75:
 230              		.loc 1 158 0
 231 002a 2000     		movs	r0, r4
 232              		@ sp needed
 233              	.LVL21:
 234 002c 10BD     		pop	{r4, pc}
 235              	.LVL22:
 236              	.L22:
 237              	.LBB81:
 238              	.LBB80:
 239              		.loc 3 395 0
 240 002e 0348     		ldr	r0, .L23+4
 241 0030 FFF7FEFF 		bl	chSysHalt
 242              	.LVL23:
 243 0034 F8E7     		b	.L21
 244              	.L24:
 245 0036 C046     		.align	2
 246              	.L23:
 247 0038 00000000 		.word	ch
 248 003c 00000000 		.word	.LANCHOR2
 249              	.LBE80:
 250              	.LBE81:
 251              		.cfi_endproc
 252              	.LFE141:
 253              		.size	chPoolAlloc, .-chPoolAlloc
 254              		.section	.text.chPoolFreeI,"ax",%progbits
 255              		.align	1
 256              		.p2align 4,,15
 257              		.global	chPoolFreeI
 258              		.syntax unified
 259              		.code	16
 260              		.thumb_func
 261              		.fpu softvfp
 262              		.type	chPoolFreeI, %function
 263              	chPoolFreeI:
 264              	.LFB142:
 265              		.loc 1 172 0
 266              		.cfi_startproc
 267              		@ args = 0, pretend = 0, frame = 0
 268              		@ frame_needed = 0, uses_anonymous_args = 0
 269              	.LVL24:
 270 0000 70B5     		push	{r4, r5, r6, lr}
 271              		.cfi_def_cfa_offset 16
 272              		.cfi_offset 4, -16
 273              		.cfi_offset 5, -12
 274              		.cfi_offset 6, -8
 275              		.cfi_offset 14, -4
 276              		.loc 1 172 0
 277 0002 0400     		movs	r4, r0
 278 0004 0D00     		movs	r5, r1
 279              	.LVL25:
 280              		.loc 1 175 0
 281 0006 FFF7FEFF 		bl	chDbgCheckClassI
 282              	.LVL26:
 283              		.loc 1 176 0
 284 000a 002C     		cmp	r4, #0
 285 000c 05D0     		beq	.L26
ARM GAS  /var/folders/t8/16hdwfmd2fg_d3q6dgx6bpmw0000gn/T//cct6PQMD.s 			page 6


 286              		.loc 1 176 0 is_stmt 0 discriminator 3
 287 000e 002D     		cmp	r5, #0
 288 0010 03D0     		beq	.L26
 289              	.L27:
 290              		.loc 1 178 0 is_stmt 1
 291 0012 2368     		ldr	r3, [r4]
 292              		.loc 1 180 0
 293              		@ sp needed
 294              		.loc 1 178 0
 295 0014 2B60     		str	r3, [r5]
 296              		.loc 1 179 0
 297 0016 2560     		str	r5, [r4]
 298              	.LVL27:
 299              	.LVL28:
 300              		.loc 1 180 0
 301 0018 70BD     		pop	{r4, r5, r6, pc}
 302              	.LVL29:
 303              	.L26:
 304              		.loc 1 176 0 discriminator 4
 305 001a 0248     		ldr	r0, .L31
 306 001c FFF7FEFF 		bl	chSysHalt
 307              	.LVL30:
 308 0020 F7E7     		b	.L27
 309              	.L32:
 310 0022 C046     		.align	2
 311              	.L31:
 312 0024 00000000 		.word	.LANCHOR3
 313              		.cfi_endproc
 314              	.LFE142:
 315              		.size	chPoolFreeI, .-chPoolFreeI
 316              		.section	.text.chPoolLoadArray,"ax",%progbits
 317              		.align	1
 318              		.p2align 4,,15
 319              		.global	chPoolLoadArray
 320              		.syntax unified
 321              		.code	16
 322              		.thumb_func
 323              		.fpu softvfp
 324              		.type	chPoolLoadArray, %function
 325              	chPoolLoadArray:
 326              	.LFB139:
 327              		.loc 1 98 0
 328              		.cfi_startproc
 329              		@ args = 0, pretend = 0, frame = 0
 330              		@ frame_needed = 0, uses_anonymous_args = 0
 331              	.LVL31:
 332 0000 F0B5     		push	{r4, r5, r6, r7, lr}
 333              		.cfi_def_cfa_offset 20
 334              		.cfi_offset 4, -20
 335              		.cfi_offset 5, -16
 336              		.cfi_offset 6, -12
 337              		.cfi_offset 7, -8
 338              		.cfi_offset 14, -4
 339 0002 C646     		mov	lr, r8
 340 0004 0700     		movs	r7, r0
 341 0006 00B5     		push	{lr}
 342              		.cfi_def_cfa_offset 24
ARM GAS  /var/folders/t8/16hdwfmd2fg_d3q6dgx6bpmw0000gn/T//cct6PQMD.s 			page 7


 343              		.cfi_offset 8, -24
 344              		.loc 1 98 0
 345 0008 0D00     		movs	r5, r1
 346 000a 1400     		movs	r4, r2
 347              		.loc 1 100 0
 348 000c 0028     		cmp	r0, #0
 349 000e 26D0     		beq	.L34
 350              		.loc 1 100 0 is_stmt 0 discriminator 3
 351 0010 002A     		cmp	r2, #0
 352 0012 20D0     		beq	.L35
 353              	.LVL32:
 354              	.L37:
 355              	.LBB95:
 356              	.LBB96:
 357              	.LBB97:
 358              	.LBB98:
 359              	.LBB99:
 360              		.loc 3 395 0 is_stmt 1
 361 0014 154B     		ldr	r3, .L41
 362 0016 164E     		ldr	r6, .L41+4
 363 0018 9846     		mov	r8, r3
 364              	.L36:
 365              	.LVL33:
 366              	.LBE99:
 367              	.LBE98:
 368              	.LBB104:
 369              	.LBB105:
 370              	.LBB106:
 371              	.LBB107:
 372              	.LBB108:
 373              		.loc 2 71 0
 374              		.syntax divided
 375              	@ 71 "../../tmk_core/tool/chibios/ChibiOS/os/common/ext/CMSIS/include/cmsis_gcc.h" 1
 376 001a 72B6     		cpsid i
 377              	@ 0 "" 2
 378              		.thumb
 379              		.syntax unified
 380              	.LBE108:
 381              	.LBE107:
 382              	.LBE106:
 383              		.loc 3 378 0
 384 001c FFF7FEFF 		bl	_dbg_check_lock
 385              	.LVL34:
 386              	.LBE105:
 387              	.LBE104:
 388              		.loc 1 197 0
 389 0020 2900     		movs	r1, r5
 390 0022 3800     		movs	r0, r7
 391 0024 FFF7FEFF 		bl	chPoolFreeI
 392              	.LVL35:
 393              	.LBB109:
 394              	.LBB103:
 395              		.loc 3 388 0
 396 0028 FFF7FEFF 		bl	_dbg_check_unlock
 397              	.LVL36:
 398              		.loc 3 395 0
 399 002c 3368     		ldr	r3, [r6]
ARM GAS  /var/folders/t8/16hdwfmd2fg_d3q6dgx6bpmw0000gn/T//cct6PQMD.s 			page 8


 400 002e B342     		cmp	r3, r6
 401 0030 07D0     		beq	.L39
 402 0032 B269     		ldr	r2, [r6, #24]
 403 0034 9B68     		ldr	r3, [r3, #8]
 404 0036 9268     		ldr	r2, [r2, #8]
 405 0038 9A42     		cmp	r2, r3
 406 003a 02D2     		bcs	.L39
 407 003c 4046     		mov	r0, r8
 408 003e FFF7FEFF 		bl	chSysHalt
 409              	.LVL37:
 410              	.L39:
 411              	.LBB100:
 412              	.LBB101:
 413              	.LBB102:
 414              		.loc 2 60 0
 415              		.syntax divided
 416              	@ 60 "../../tmk_core/tool/chibios/ChibiOS/os/common/ext/CMSIS/include/cmsis_gcc.h" 1
 417 0042 62B6     		cpsie i
 418              	@ 0 "" 2
 419              	.LVL38:
 420              		.thumb
 421              		.syntax unified
 422              	.LBE102:
 423              	.LBE101:
 424              	.LBE100:
 425              	.LBE103:
 426              	.LBE109:
 427              	.LBE97:
 428              	.LBE96:
 429              	.LBE95:
 430              		.loc 1 105 0
 431 0044 7B68     		ldr	r3, [r7, #4]
 432              		.loc 1 107 0
 433 0046 013C     		subs	r4, r4, #1
 434              		.loc 1 105 0
 435 0048 9C46     		mov	ip, r3
 436 004a 6544     		add	r5, r5, ip
 437              	.LVL39:
 438              		.loc 1 102 0
 439 004c 002C     		cmp	r4, #0
 440 004e E4D1     		bne	.L36
 441              	.L33:
 442              		.loc 1 109 0
 443              		@ sp needed
 444              	.LVL40:
 445              	.LVL41:
 446 0050 04BC     		pop	{r2}
 447 0052 9046     		mov	r8, r2
 448 0054 F0BD     		pop	{r4, r5, r6, r7, pc}
 449              	.LVL42:
 450              	.L35:
 451              		.loc 1 100 0
 452 0056 0748     		ldr	r0, .L41+8
 453              	.LVL43:
 454 0058 FFF7FEFF 		bl	chSysHalt
 455              	.LVL44:
 456 005c F8E7     		b	.L33
ARM GAS  /var/folders/t8/16hdwfmd2fg_d3q6dgx6bpmw0000gn/T//cct6PQMD.s 			page 9


 457              	.LVL45:
 458              	.L34:
 459              		.loc 1 100 0 is_stmt 0 discriminator 4
 460 005e 0548     		ldr	r0, .L41+8
 461              	.LVL46:
 462 0060 FFF7FEFF 		bl	chSysHalt
 463              	.LVL47:
 464              		.loc 1 102 0 is_stmt 1 discriminator 4
 465 0064 002C     		cmp	r4, #0
 466 0066 D5D1     		bne	.L37
 467 0068 F2E7     		b	.L33
 468              	.L42:
 469 006a C046     		.align	2
 470              	.L41:
 471 006c 00000000 		.word	.LANCHOR2
 472 0070 00000000 		.word	ch
 473 0074 00000000 		.word	.LANCHOR4
 474              		.cfi_endproc
 475              	.LFE139:
 476              		.size	chPoolLoadArray, .-chPoolLoadArray
 477              		.section	.text.chPoolFree,"ax",%progbits
 478              		.align	1
 479              		.p2align 4,,15
 480              		.global	chPoolFree
 481              		.syntax unified
 482              		.code	16
 483              		.thumb_func
 484              		.fpu softvfp
 485              		.type	chPoolFree, %function
 486              	chPoolFree:
 487              	.LFB143:
 488              		.loc 1 194 0
 489              		.cfi_startproc
 490              		@ args = 0, pretend = 0, frame = 0
 491              		@ frame_needed = 0, uses_anonymous_args = 0
 492              	.LVL48:
 493 0000 70B5     		push	{r4, r5, r6, lr}
 494              		.cfi_def_cfa_offset 16
 495              		.cfi_offset 4, -16
 496              		.cfi_offset 5, -12
 497              		.cfi_offset 6, -8
 498              		.cfi_offset 14, -4
 499              		.loc 1 194 0
 500 0002 0400     		movs	r4, r0
 501 0004 0D00     		movs	r5, r1
 502              	.LBB120:
 503              	.LBB121:
 504              	.LBB122:
 505              	.LBB123:
 506              	.LBB124:
 507              		.loc 2 71 0
 508              		.syntax divided
 509              	@ 71 "../../tmk_core/tool/chibios/ChibiOS/os/common/ext/CMSIS/include/cmsis_gcc.h" 1
 510 0006 72B6     		cpsid i
 511              	@ 0 "" 2
 512              		.thumb
 513              		.syntax unified
ARM GAS  /var/folders/t8/16hdwfmd2fg_d3q6dgx6bpmw0000gn/T//cct6PQMD.s 			page 10


 514              	.LBE124:
 515              	.LBE123:
 516              	.LBE122:
 517              		.loc 3 378 0
 518 0008 FFF7FEFF 		bl	_dbg_check_lock
 519              	.LVL49:
 520              	.LBE121:
 521              	.LBE120:
 522              		.loc 1 197 0
 523 000c 2900     		movs	r1, r5
 524 000e 2000     		movs	r0, r4
 525 0010 FFF7FEFF 		bl	chPoolFreeI
 526              	.LVL50:
 527              	.LBB125:
 528              	.LBB126:
 529              		.loc 3 388 0
 530 0014 FFF7FEFF 		bl	_dbg_check_unlock
 531              	.LVL51:
 532              		.loc 3 395 0
 533 0018 074B     		ldr	r3, .L46
 534 001a 1A68     		ldr	r2, [r3]
 535 001c 9A42     		cmp	r2, r3
 536 001e 04D0     		beq	.L44
 537 0020 9B69     		ldr	r3, [r3, #24]
 538 0022 9968     		ldr	r1, [r3, #8]
 539 0024 9368     		ldr	r3, [r2, #8]
 540 0026 9942     		cmp	r1, r3
 541 0028 01D3     		bcc	.L45
 542              	.L44:
 543              	.LBB127:
 544              	.LBB128:
 545              	.LBB129:
 546              		.loc 2 60 0
 547              		.syntax divided
 548              	@ 60 "../../tmk_core/tool/chibios/ChibiOS/os/common/ext/CMSIS/include/cmsis_gcc.h" 1
 549 002a 62B6     		cpsie i
 550              	@ 0 "" 2
 551              		.thumb
 552              		.syntax unified
 553              	.LBE129:
 554              	.LBE128:
 555              	.LBE127:
 556              	.LBE126:
 557              	.LBE125:
 558              		.loc 1 199 0
 559              		@ sp needed
 560              	.LVL52:
 561              	.LVL53:
 562 002c 70BD     		pop	{r4, r5, r6, pc}
 563              	.LVL54:
 564              	.L45:
 565              	.LBB131:
 566              	.LBB130:
 567              		.loc 3 395 0
 568 002e 0348     		ldr	r0, .L46+4
 569 0030 FFF7FEFF 		bl	chSysHalt
 570              	.LVL55:
ARM GAS  /var/folders/t8/16hdwfmd2fg_d3q6dgx6bpmw0000gn/T//cct6PQMD.s 			page 11


 571 0034 F9E7     		b	.L44
 572              	.L47:
 573 0036 C046     		.align	2
 574              	.L46:
 575 0038 00000000 		.word	ch
 576 003c 00000000 		.word	.LANCHOR2
 577              	.LBE130:
 578              	.LBE131:
 579              		.cfi_endproc
 580              	.LFE143:
 581              		.size	chPoolFree, .-chPoolFree
 582              		.section	.text.chGuardedPoolObjectInit,"ax",%progbits
 583              		.align	1
 584              		.p2align 4,,15
 585              		.global	chGuardedPoolObjectInit
 586              		.syntax unified
 587              		.code	16
 588              		.thumb_func
 589              		.fpu softvfp
 590              		.type	chGuardedPoolObjectInit, %function
 591              	chGuardedPoolObjectInit:
 592              	.LFB144:
 593              		.loc 1 212 0
 594              		.cfi_startproc
 595              		@ args = 0, pretend = 0, frame = 0
 596              		@ frame_needed = 0, uses_anonymous_args = 0
 597              	.LVL56:
 598              	.LBB132:
 599              	.LBB133:
 600              		.loc 1 78 0
 601 0000 0300     		movs	r3, r0
 602              	.LBE133:
 603              	.LBE132:
 604              		.loc 1 212 0
 605 0002 70B5     		push	{r4, r5, r6, lr}
 606              		.cfi_def_cfa_offset 16
 607              		.cfi_offset 4, -16
 608              		.cfi_offset 5, -12
 609              		.cfi_offset 6, -8
 610              		.cfi_offset 14, -4
 611              		.loc 1 212 0
 612 0004 0400     		movs	r4, r0
 613 0006 0D00     		movs	r5, r1
 614              	.LBB135:
 615              	.LBB134:
 616              		.loc 1 78 0
 617 0008 0C33     		adds	r3, r3, #12
 618 000a 01D0     		beq	.L49
 619 000c 0329     		cmp	r1, #3
 620 000e 02D8     		bhi	.L50
 621              	.L49:
 622 0010 0548     		ldr	r0, .L54
 623              	.LVL57:
 624 0012 FFF7FEFF 		bl	chSysHalt
 625              	.LVL58:
 626              	.L50:
 627              		.loc 1 80 0
ARM GAS  /var/folders/t8/16hdwfmd2fg_d3q6dgx6bpmw0000gn/T//cct6PQMD.s 			page 12


 628 0016 0023     		movs	r3, #0
 629              		.loc 1 81 0
 630 0018 2561     		str	r5, [r4, #16]
 631              		.loc 1 80 0
 632 001a E360     		str	r3, [r4, #12]
 633              		.loc 1 82 0
 634 001c 6361     		str	r3, [r4, #20]
 635              	.LVL59:
 636              	.LBE134:
 637              	.LBE135:
 638              		.loc 1 215 0
 639 001e 0021     		movs	r1, #0
 640 0020 2000     		movs	r0, r4
 641 0022 FFF7FEFF 		bl	chSemObjectInit
 642              	.LVL60:
 643              		.loc 1 216 0
 644              		@ sp needed
 645              	.LVL61:
 646              	.LVL62:
 647 0026 70BD     		pop	{r4, r5, r6, pc}
 648              	.L55:
 649              		.align	2
 650              	.L54:
 651 0028 00000000 		.word	.LANCHOR0
 652              		.cfi_endproc
 653              	.LFE144:
 654              		.size	chGuardedPoolObjectInit, .-chGuardedPoolObjectInit
 655              		.section	.text.chGuardedPoolAllocTimeoutS,"ax",%progbits
 656              		.align	1
 657              		.p2align 4,,15
 658              		.global	chGuardedPoolAllocTimeoutS
 659              		.syntax unified
 660              		.code	16
 661              		.thumb_func
 662              		.fpu softvfp
 663              		.type	chGuardedPoolAllocTimeoutS, %function
 664              	chGuardedPoolAllocTimeoutS:
 665              	.LFB146:
 666              		.loc 1 260 0
 667              		.cfi_startproc
 668              		@ args = 0, pretend = 0, frame = 0
 669              		@ frame_needed = 0, uses_anonymous_args = 0
 670              	.LVL63:
 671 0000 10B5     		push	{r4, lr}
 672              		.cfi_def_cfa_offset 8
 673              		.cfi_offset 4, -8
 674              		.cfi_offset 14, -4
 675              		.loc 1 260 0
 676 0002 0400     		movs	r4, r0
 677              		.loc 1 263 0
 678 0004 FFF7FEFF 		bl	chSemWaitTimeoutS
 679              	.LVL64:
 680              		.loc 1 264 0
 681 0008 0028     		cmp	r0, #0
 682 000a 04D1     		bne	.L58
 683              		.loc 1 268 0
 684 000c 2000     		movs	r0, r4
ARM GAS  /var/folders/t8/16hdwfmd2fg_d3q6dgx6bpmw0000gn/T//cct6PQMD.s 			page 13


 685              	.LVL65:
 686 000e 0C30     		adds	r0, r0, #12
 687 0010 FFF7FEFF 		bl	chPoolAllocI
 688              	.LVL66:
 689              	.L56:
 690              		.loc 1 269 0
 691              		@ sp needed
 692              	.LVL67:
 693 0014 10BD     		pop	{r4, pc}
 694              	.LVL68:
 695              	.L58:
 696              		.loc 1 265 0
 697 0016 0020     		movs	r0, #0
 698              	.LVL69:
 699 0018 FCE7     		b	.L56
 700              		.cfi_endproc
 701              	.LFE146:
 702              		.size	chGuardedPoolAllocTimeoutS, .-chGuardedPoolAllocTimeoutS
 703 001a C046     		.section	.text.chGuardedPoolAllocTimeout,"ax",%progbits
 704              		.align	1
 705              		.p2align 4,,15
 706              		.global	chGuardedPoolAllocTimeout
 707              		.syntax unified
 708              		.code	16
 709              		.thumb_func
 710              		.fpu softvfp
 711              		.type	chGuardedPoolAllocTimeout, %function
 712              	chGuardedPoolAllocTimeout:
 713              	.LFB147:
 714              		.loc 1 287 0
 715              		.cfi_startproc
 716              		@ args = 0, pretend = 0, frame = 0
 717              		@ frame_needed = 0, uses_anonymous_args = 0
 718              	.LVL70:
 719 0000 70B5     		push	{r4, r5, r6, lr}
 720              		.cfi_def_cfa_offset 16
 721              		.cfi_offset 4, -16
 722              		.cfi_offset 5, -12
 723              		.cfi_offset 6, -8
 724              		.cfi_offset 14, -4
 725              		.loc 1 287 0
 726 0002 0400     		movs	r4, r0
 727 0004 0D00     		movs	r5, r1
 728              	.LBB146:
 729              	.LBB147:
 730              	.LBB148:
 731              	.LBB149:
 732              	.LBB150:
 733              		.loc 2 71 0
 734              		.syntax divided
 735              	@ 71 "../../tmk_core/tool/chibios/ChibiOS/os/common/ext/CMSIS/include/cmsis_gcc.h" 1
 736 0006 72B6     		cpsid i
 737              	@ 0 "" 2
 738              		.thumb
 739              		.syntax unified
 740              	.LBE150:
 741              	.LBE149:
ARM GAS  /var/folders/t8/16hdwfmd2fg_d3q6dgx6bpmw0000gn/T//cct6PQMD.s 			page 14


 742              	.LBE148:
 743              		.loc 3 378 0
 744 0008 FFF7FEFF 		bl	_dbg_check_lock
 745              	.LVL71:
 746              	.LBE147:
 747              	.LBE146:
 748              		.loc 1 291 0
 749 000c 2900     		movs	r1, r5
 750 000e 2000     		movs	r0, r4
 751 0010 FFF7FEFF 		bl	chGuardedPoolAllocTimeoutS
 752              	.LVL72:
 753 0014 0400     		movs	r4, r0
 754              	.LVL73:
 755              	.LBB151:
 756              	.LBB152:
 757              		.loc 3 388 0
 758 0016 FFF7FEFF 		bl	_dbg_check_unlock
 759              	.LVL74:
 760              		.loc 3 395 0
 761 001a 084B     		ldr	r3, .L62
 762 001c 1A68     		ldr	r2, [r3]
 763 001e 9A42     		cmp	r2, r3
 764 0020 04D0     		beq	.L60
 765 0022 9B69     		ldr	r3, [r3, #24]
 766 0024 9968     		ldr	r1, [r3, #8]
 767 0026 9368     		ldr	r3, [r2, #8]
 768 0028 9942     		cmp	r1, r3
 769 002a 02D3     		bcc	.L61
 770              	.L60:
 771              	.LBB153:
 772              	.LBB154:
 773              	.LBB155:
 774              		.loc 2 60 0
 775              		.syntax divided
 776              	@ 60 "../../tmk_core/tool/chibios/ChibiOS/os/common/ext/CMSIS/include/cmsis_gcc.h" 1
 777 002c 62B6     		cpsie i
 778              	@ 0 "" 2
 779              		.thumb
 780              		.syntax unified
 781              	.LBE155:
 782              	.LBE154:
 783              	.LBE153:
 784              	.LBE152:
 785              	.LBE151:
 786              		.loc 1 295 0
 787 002e 2000     		movs	r0, r4
 788              		@ sp needed
 789              	.LVL75:
 790              	.LVL76:
 791 0030 70BD     		pop	{r4, r5, r6, pc}
 792              	.LVL77:
 793              	.L61:
 794              	.LBB157:
 795              	.LBB156:
 796              		.loc 3 395 0
 797 0032 0348     		ldr	r0, .L62+4
 798 0034 FFF7FEFF 		bl	chSysHalt
ARM GAS  /var/folders/t8/16hdwfmd2fg_d3q6dgx6bpmw0000gn/T//cct6PQMD.s 			page 15


 799              	.LVL78:
 800 0038 F8E7     		b	.L60
 801              	.L63:
 802 003a C046     		.align	2
 803              	.L62:
 804 003c 00000000 		.word	ch
 805 0040 00000000 		.word	.LANCHOR2
 806              	.LBE156:
 807              	.LBE157:
 808              		.cfi_endproc
 809              	.LFE147:
 810              		.size	chGuardedPoolAllocTimeout, .-chGuardedPoolAllocTimeout
 811              		.section	.text.chGuardedPoolFreeI,"ax",%progbits
 812              		.align	1
 813              		.p2align 4,,15
 814              		.global	chGuardedPoolFreeI
 815              		.syntax unified
 816              		.code	16
 817              		.thumb_func
 818              		.fpu softvfp
 819              		.type	chGuardedPoolFreeI, %function
 820              	chGuardedPoolFreeI:
 821              	.LFB148:
 822              		.loc 1 309 0
 823              		.cfi_startproc
 824              		@ args = 0, pretend = 0, frame = 0
 825              		@ frame_needed = 0, uses_anonymous_args = 0
 826              	.LVL79:
 827 0000 10B5     		push	{r4, lr}
 828              		.cfi_def_cfa_offset 8
 829              		.cfi_offset 4, -8
 830              		.cfi_offset 14, -4
 831              		.loc 1 309 0
 832 0002 0400     		movs	r4, r0
 833              		.loc 1 311 0
 834 0004 0C30     		adds	r0, r0, #12
 835              	.LVL80:
 836 0006 FFF7FEFF 		bl	chPoolFreeI
 837              	.LVL81:
 838              		.loc 1 312 0
 839 000a 2000     		movs	r0, r4
 840 000c FFF7FEFF 		bl	chSemSignalI
 841              	.LVL82:
 842              		.loc 1 313 0
 843              		@ sp needed
 844              	.LVL83:
 845 0010 10BD     		pop	{r4, pc}
 846              		.cfi_endproc
 847              	.LFE148:
 848              		.size	chGuardedPoolFreeI, .-chGuardedPoolFreeI
 849 0012 C046     		.section	.text.chGuardedPoolFree,"ax",%progbits
 850              		.align	1
 851              		.p2align 4,,15
 852              		.global	chGuardedPoolFree
 853              		.syntax unified
 854              		.code	16
 855              		.thumb_func
ARM GAS  /var/folders/t8/16hdwfmd2fg_d3q6dgx6bpmw0000gn/T//cct6PQMD.s 			page 16


 856              		.fpu softvfp
 857              		.type	chGuardedPoolFree, %function
 858              	chGuardedPoolFree:
 859              	.LFB149:
 860              		.loc 1 327 0
 861              		.cfi_startproc
 862              		@ args = 0, pretend = 0, frame = 0
 863              		@ frame_needed = 0, uses_anonymous_args = 0
 864              	.LVL84:
 865 0000 70B5     		push	{r4, r5, r6, lr}
 866              		.cfi_def_cfa_offset 16
 867              		.cfi_offset 4, -16
 868              		.cfi_offset 5, -12
 869              		.cfi_offset 6, -8
 870              		.cfi_offset 14, -4
 871              		.loc 1 327 0
 872 0002 0400     		movs	r4, r0
 873 0004 0D00     		movs	r5, r1
 874              	.LBB170:
 875              	.LBB171:
 876              	.LBB172:
 877              	.LBB173:
 878              	.LBB174:
 879              		.loc 2 71 0
 880              		.syntax divided
 881              	@ 71 "../../tmk_core/tool/chibios/ChibiOS/os/common/ext/CMSIS/include/cmsis_gcc.h" 1
 882 0006 72B6     		cpsid i
 883              	@ 0 "" 2
 884              		.thumb
 885              		.syntax unified
 886              	.LBE174:
 887              	.LBE173:
 888              	.LBE172:
 889              		.loc 3 378 0
 890 0008 FFF7FEFF 		bl	_dbg_check_lock
 891              	.LVL85:
 892              	.LBE171:
 893              	.LBE170:
 894              	.LBB175:
 895              	.LBB176:
 896              		.loc 1 311 0
 897 000c 2000     		movs	r0, r4
 898 000e 2900     		movs	r1, r5
 899 0010 0C30     		adds	r0, r0, #12
 900 0012 FFF7FEFF 		bl	chPoolFreeI
 901              	.LVL86:
 902              		.loc 1 312 0
 903 0016 2000     		movs	r0, r4
 904 0018 FFF7FEFF 		bl	chSemSignalI
 905              	.LVL87:
 906              	.LBE176:
 907              	.LBE175:
 908              		.loc 1 331 0
 909 001c FFF7FEFF 		bl	chSchRescheduleS
 910              	.LVL88:
 911              	.LBB177:
 912              	.LBB178:
ARM GAS  /var/folders/t8/16hdwfmd2fg_d3q6dgx6bpmw0000gn/T//cct6PQMD.s 			page 17


 913              		.loc 3 388 0
 914 0020 FFF7FEFF 		bl	_dbg_check_unlock
 915              	.LVL89:
 916              		.loc 3 395 0
 917 0024 074B     		ldr	r3, .L68
 918 0026 1A68     		ldr	r2, [r3]
 919 0028 9A42     		cmp	r2, r3
 920 002a 04D0     		beq	.L66
 921 002c 9B69     		ldr	r3, [r3, #24]
 922 002e 9968     		ldr	r1, [r3, #8]
 923 0030 9368     		ldr	r3, [r2, #8]
 924 0032 9942     		cmp	r1, r3
 925 0034 01D3     		bcc	.L67
 926              	.L66:
 927              	.LBB179:
 928              	.LBB180:
 929              	.LBB181:
 930              		.loc 2 60 0
 931              		.syntax divided
 932              	@ 60 "../../tmk_core/tool/chibios/ChibiOS/os/common/ext/CMSIS/include/cmsis_gcc.h" 1
 933 0036 62B6     		cpsie i
 934              	@ 0 "" 2
 935              		.thumb
 936              		.syntax unified
 937              	.LBE181:
 938              	.LBE180:
 939              	.LBE179:
 940              	.LBE178:
 941              	.LBE177:
 942              		.loc 1 333 0
 943              		@ sp needed
 944              	.LVL90:
 945              	.LVL91:
 946 0038 70BD     		pop	{r4, r5, r6, pc}
 947              	.LVL92:
 948              	.L67:
 949              	.LBB183:
 950              	.LBB182:
 951              		.loc 3 395 0
 952 003a 0348     		ldr	r0, .L68+4
 953 003c FFF7FEFF 		bl	chSysHalt
 954              	.LVL93:
 955 0040 F9E7     		b	.L66
 956              	.L69:
 957 0042 C046     		.align	2
 958              	.L68:
 959 0044 00000000 		.word	ch
 960 0048 00000000 		.word	.LANCHOR2
 961              	.LBE182:
 962              	.LBE183:
 963              		.cfi_endproc
 964              	.LFE149:
 965              		.size	chGuardedPoolFree, .-chGuardedPoolFree
 966              		.section	.text.chGuardedPoolLoadArray,"ax",%progbits
 967              		.align	1
 968              		.p2align 4,,15
 969              		.global	chGuardedPoolLoadArray
ARM GAS  /var/folders/t8/16hdwfmd2fg_d3q6dgx6bpmw0000gn/T//cct6PQMD.s 			page 18


 970              		.syntax unified
 971              		.code	16
 972              		.thumb_func
 973              		.fpu softvfp
 974              		.type	chGuardedPoolLoadArray, %function
 975              	chGuardedPoolLoadArray:
 976              	.LFB145:
 977              		.loc 1 231 0
 978              		.cfi_startproc
 979              		@ args = 0, pretend = 0, frame = 0
 980              		@ frame_needed = 0, uses_anonymous_args = 0
 981              	.LVL94:
 982 0000 70B5     		push	{r4, r5, r6, lr}
 983              		.cfi_def_cfa_offset 16
 984              		.cfi_offset 4, -16
 985              		.cfi_offset 5, -12
 986              		.cfi_offset 6, -8
 987              		.cfi_offset 14, -4
 988              		.loc 1 231 0
 989 0002 0600     		movs	r6, r0
 990 0004 0D00     		movs	r5, r1
 991 0006 1400     		movs	r4, r2
 992              		.loc 1 233 0
 993 0008 0028     		cmp	r0, #0
 994 000a 05D0     		beq	.L71
 995              		.loc 1 233 0 is_stmt 0 discriminator 3
 996 000c 002A     		cmp	r2, #0
 997 000e 08D1     		bne	.L73
 998              		.loc 1 233 0
 999 0010 0948     		ldr	r0, .L77
 1000              	.LVL95:
 1001 0012 FFF7FEFF 		bl	chSysHalt
 1002              	.LVL96:
 1003              	.L70:
 1004              		.loc 1 242 0 is_stmt 1
 1005              		@ sp needed
 1006              	.LVL97:
 1007              	.LVL98:
 1008 0016 70BD     		pop	{r4, r5, r6, pc}
 1009              	.LVL99:
 1010              	.L71:
 1011              		.loc 1 233 0 discriminator 4
 1012 0018 0748     		ldr	r0, .L77
 1013              	.LVL100:
 1014 001a FFF7FEFF 		bl	chSysHalt
 1015              	.LVL101:
 1016              		.loc 1 235 0 discriminator 4
 1017 001e 002C     		cmp	r4, #0
 1018 0020 F9D0     		beq	.L70
 1019              	.LVL102:
 1020              	.L73:
 1021              	.LBB184:
 1022              	.LBB185:
 1023              		.file 4 "../../tmk_core/tool/chibios/ChibiOS/os/common/oslib/include/chmempools.h"
 1024              		.loc 4 228 0
 1025 0022 2900     		movs	r1, r5
 1026 0024 3000     		movs	r0, r6
ARM GAS  /var/folders/t8/16hdwfmd2fg_d3q6dgx6bpmw0000gn/T//cct6PQMD.s 			page 19


 1027 0026 FFF7FEFF 		bl	chGuardedPoolFree
 1028              	.LVL103:
 1029              	.LBE185:
 1030              	.LBE184:
 1031              		.loc 1 238 0
 1032 002a 3369     		ldr	r3, [r6, #16]
 1033              		.loc 1 240 0
 1034 002c 013C     		subs	r4, r4, #1
 1035              		.loc 1 238 0
 1036 002e 9C46     		mov	ip, r3
 1037 0030 6544     		add	r5, r5, ip
 1038              	.LVL104:
 1039              		.loc 1 235 0
 1040 0032 002C     		cmp	r4, #0
 1041 0034 F5D1     		bne	.L73
 1042 0036 EEE7     		b	.L70
 1043              	.L78:
 1044              		.align	2
 1045              	.L77:
 1046 0038 00000000 		.word	.LANCHOR5
 1047              		.cfi_endproc
 1048              	.LFE145:
 1049              		.size	chGuardedPoolLoadArray, .-chGuardedPoolLoadArray
 1050              		.section	.rodata.__func__.5043,"a",%progbits
 1051              		.align	2
 1052              		.set	.LANCHOR2,. + 0
 1053              		.type	__func__.5043, %object
 1054              		.size	__func__.5043, 12
 1055              	__func__.5043:
 1056 0000 63685379 		.ascii	"chSysUnlock\000"
 1056      73556E6C 
 1056      6F636B00 
 1057              		.section	.rodata.__func__.5719,"a",%progbits
 1058              		.align	2
 1059              		.set	.LANCHOR0,. + 0
 1060              		.type	__func__.5719, %object
 1061              		.size	__func__.5719, 17
 1062              	__func__.5719:
 1063 0000 6368506F 		.ascii	"chPoolObjectInit\000"
 1063      6F6C4F62 
 1063      6A656374 
 1063      496E6974 
 1063      00
 1064              		.section	.rodata.__func__.5725,"a",%progbits
 1065              		.align	2
 1066              		.set	.LANCHOR4,. + 0
 1067              		.type	__func__.5725, %object
 1068              		.size	__func__.5725, 16
 1069              	__func__.5725:
 1070 0000 6368506F 		.ascii	"chPoolLoadArray\000"
 1070      6F6C4C6F 
 1070      61644172 
 1070      72617900 
 1071              		.section	.rodata.__func__.5733,"a",%progbits
 1072              		.align	2
 1073              		.set	.LANCHOR1,. + 0
 1074              		.type	__func__.5733, %object
ARM GAS  /var/folders/t8/16hdwfmd2fg_d3q6dgx6bpmw0000gn/T//cct6PQMD.s 			page 20


 1075              		.size	__func__.5733, 13
 1076              	__func__.5733:
 1077 0000 6368506F 		.ascii	"chPoolAllocI\000"
 1077      6F6C416C 
 1077      6C6F6349 
 1077      00
 1078              		.section	.rodata.__func__.5743,"a",%progbits
 1079              		.align	2
 1080              		.set	.LANCHOR3,. + 0
 1081              		.type	__func__.5743, %object
 1082              		.size	__func__.5743, 12
 1083              	__func__.5743:
 1084 0000 6368506F 		.ascii	"chPoolFreeI\000"
 1084      6F6C4672 
 1084      65654900 
 1085              		.section	.rodata.__func__.5757,"a",%progbits
 1086              		.align	2
 1087              		.set	.LANCHOR5,. + 0
 1088              		.type	__func__.5757, %object
 1089              		.size	__func__.5757, 23
 1090              	__func__.5757:
 1091 0000 63684775 		.ascii	"chGuardedPoolLoadArray\000"
 1091      61726465 
 1091      64506F6F 
 1091      6C4C6F61 
 1091      64417272 
 1092              		.text
 1093              	.Letext0:
 1094              		.file 5 "/usr/local/Caskroom/gcc-arm-embedded/7-2017-q4-major/gcc-arm-none-eabi-7-2017-q4-major/li
 1095              		.file 6 "/usr/local/Caskroom/gcc-arm-embedded/7-2017-q4-major/gcc-arm-none-eabi-7-2017-q4-major/ar
 1096              		.file 7 "/usr/local/Caskroom/gcc-arm-embedded/7-2017-q4-major/gcc-arm-none-eabi-7-2017-q4-major/ar
 1097              		.file 8 "../../tmk_core/tool/chibios/ChibiOS/os/common/ports/ARMCMx/compilers/GCC/chtypes.h"
 1098              		.file 9 "../../tmk_core/tool/chibios/ChibiOS/os/rt/include/chsystypes.h"
 1099              		.file 10 "../../tmk_core/tool/chibios/ChibiOS/os/rt/include/chschd.h"
 1100              		.file 11 "../../tmk_core/tool/chibios/ChibiOS/os/common/ports/ARMCMx/chcore.h"
 1101              		.file 12 "../../tmk_core/tool/chibios/ChibiOS/os/common/ports/ARMCMx/chcore_v6m.h"
 1102              		.file 13 "../../tmk_core/tool/chibios/ChibiOS/os/rt/include/chsem.h"
 1103              		.file 14 "../../tmk_core/tool/chibios/ChibiOS/os/rt/include/chmtx.h"
 1104              		.file 15 "../../tmk_core/tool/chibios/ChibiOS/os/rt/include/chregistry.h"
 1105              		.file 16 "../../tmk_core/tool/chibios/ChibiOS/os/common/oslib/include/chmemcore.h"
 1106              		.file 17 "../../tmk_core/tool/chibios/ChibiOS/os/rt/include/chdebug.h"