ARM GAS  /var/folders/t8/16hdwfmd2fg_d3q6dgx6bpmw0000gn/T//ccXOSd6z.s 			page 1


   1              		.cpu cortex-m0plus
   2              		.eabi_attribute 20, 1
   3              		.eabi_attribute 21, 1
   4              		.eabi_attribute 23, 3
   5              		.eabi_attribute 24, 1
   6              		.eabi_attribute 25, 1
   7              		.eabi_attribute 26, 1
   8              		.eabi_attribute 30, 2
   9              		.eabi_attribute 34, 0
  10              		.eabi_attribute 18, 4
  11              		.file	"chmemcore.c"
  12              		.text
  13              	.Ltext0:
  14              		.cfi_sections	.debug_frame
  15              		.section	.text._core_init,"ax",%progbits
  16              		.align	1
  17              		.p2align 4,,15
  18              		.global	_core_init
  19              		.syntax unified
  20              		.code	16
  21              		.thumb_func
  22              		.fpu softvfp
  23              		.type	_core_init, %function
  24              	_core_init:
  25              	.LFB138:
  26              		.file 1 "../../tmk_core/tool/chibios/ChibiOS/os/common/oslib/src/chmemcore.c"
  27              		.loc 1 79 0
  28              		.cfi_startproc
  29              		@ args = 0, pretend = 0, frame = 0
  30              		@ frame_needed = 0, uses_anonymous_args = 0
  31              		@ link register save eliminated.
  32              		.loc 1 85 0
  33 0000 034B     		ldr	r3, .L3
  34 0002 044A     		ldr	r2, .L3+4
  35              		.loc 1 94 0
  36              		@ sp needed
  37              		.loc 1 85 0
  38 0004 1A60     		str	r2, [r3]
  39              		.loc 1 86 0
  40 0006 044B     		ldr	r3, .L3+8
  41 0008 044A     		ldr	r2, .L3+12
  42 000a 1A60     		str	r2, [r3]
  43              		.loc 1 94 0
  44 000c 7047     		bx	lr
  45              	.L4:
  46 000e C046     		.align	2
  47              	.L3:
  48 0010 00000000 		.word	.LANCHOR0
  49 0014 00000000 		.word	__heap_base__
  50 0018 00000000 		.word	.LANCHOR1
  51 001c 00000000 		.word	__heap_end__
  52              		.cfi_endproc
  53              	.LFE138:
  54              		.size	_core_init, .-_core_init
  55              		.section	.text.chCoreAllocAlignedI,"ax",%progbits
  56              		.align	1
  57              		.p2align 4,,15
ARM GAS  /var/folders/t8/16hdwfmd2fg_d3q6dgx6bpmw0000gn/T//ccXOSd6z.s 			page 2


  58              		.global	chCoreAllocAlignedI
  59              		.syntax unified
  60              		.code	16
  61              		.thumb_func
  62              		.fpu softvfp
  63              		.type	chCoreAllocAlignedI, %function
  64              	chCoreAllocAlignedI:
  65              	.LFB139:
  66              		.loc 1 108 0
  67              		.cfi_startproc
  68              		@ args = 0, pretend = 0, frame = 0
  69              		@ frame_needed = 0, uses_anonymous_args = 0
  70              	.LVL0:
  71 0000 70B5     		push	{r4, r5, r6, lr}
  72              		.cfi_def_cfa_offset 16
  73              		.cfi_offset 4, -16
  74              		.cfi_offset 5, -12
  75              		.cfi_offset 6, -8
  76              		.cfi_offset 14, -4
  77              		.loc 1 108 0
  78 0002 0D00     		movs	r5, r1
  79 0004 0400     		movs	r4, r0
  80              		.loc 1 111 0
  81 0006 FFF7FEFF 		bl	chDbgCheckClassI
  82              	.LVL1:
  83              		.loc 1 112 0
  84 000a 002D     		cmp	r5, #0
  85 000c 13D0     		beq	.L6
  86              		.loc 1 112 0 is_stmt 0 discriminator 3
  87 000e 6B1E     		subs	r3, r5, #1
  88 0010 1D42     		tst	r5, r3
  89 0012 10D1     		bne	.L6
  90              	.L7:
  91              		.loc 1 115 0 is_stmt 1
  92 0014 0B49     		ldr	r1, .L16
  93              		.loc 1 114 0
  94 0016 631E     		subs	r3, r4, #1
  95              		.loc 1 115 0
  96 0018 0A68     		ldr	r2, [r1]
  97              		.loc 1 114 0
  98 001a 6842     		rsbs	r0, r5, #0
  99              		.loc 1 115 0
 100 001c 013A     		subs	r2, r2, #1
 101              		.loc 1 114 0
 102 001e 5B19     		adds	r3, r3, r5
 103              		.loc 1 115 0
 104 0020 5519     		adds	r5, r2, r5
 105              	.LVL2:
 106              		.loc 1 117 0
 107 0022 094A     		ldr	r2, .L16+4
 108              		.loc 1 114 0
 109 0024 0340     		ands	r3, r0
 110              	.LVL3:
 111              		.loc 1 117 0
 112 0026 1268     		ldr	r2, [r2]
 113              		.loc 1 115 0
 114 0028 2840     		ands	r0, r5
ARM GAS  /var/folders/t8/16hdwfmd2fg_d3q6dgx6bpmw0000gn/T//ccXOSd6z.s 			page 3


 115              	.LVL4:
 116              		.loc 1 117 0
 117 002a 121A     		subs	r2, r2, r0
 118 002c 9A42     		cmp	r2, r3
 119 002e 06D3     		bcc	.L9
 120              		.loc 1 120 0
 121 0030 C318     		adds	r3, r0, r3
 122              	.LVL5:
 123 0032 0B60     		str	r3, [r1]
 124              	.LVL6:
 125              	.L5:
 126              		.loc 1 123 0
 127              		@ sp needed
 128              	.LVL7:
 129              	.LVL8:
 130 0034 70BD     		pop	{r4, r5, r6, pc}
 131              	.LVL9:
 132              	.L6:
 133              		.loc 1 112 0 discriminator 4
 134 0036 0548     		ldr	r0, .L16+8
 135 0038 FFF7FEFF 		bl	chSysHalt
 136              	.LVL10:
 137 003c EAE7     		b	.L7
 138              	.LVL11:
 139              	.L9:
 140              		.loc 1 118 0
 141 003e 0020     		movs	r0, #0
 142              	.LVL12:
 143 0040 F8E7     		b	.L5
 144              	.L17:
 145 0042 C046     		.align	2
 146              	.L16:
 147 0044 00000000 		.word	.LANCHOR0
 148 0048 00000000 		.word	.LANCHOR1
 149 004c 00000000 		.word	.LANCHOR2
 150              		.cfi_endproc
 151              	.LFE139:
 152              		.size	chCoreAllocAlignedI, .-chCoreAllocAlignedI
 153              		.section	.text.chCoreAllocAligned,"ax",%progbits
 154              		.align	1
 155              		.p2align 4,,15
 156              		.global	chCoreAllocAligned
 157              		.syntax unified
 158              		.code	16
 159              		.thumb_func
 160              		.fpu softvfp
 161              		.type	chCoreAllocAligned, %function
 162              	chCoreAllocAligned:
 163              	.LFB140:
 164              		.loc 1 137 0
 165              		.cfi_startproc
 166              		@ args = 0, pretend = 0, frame = 0
 167              		@ frame_needed = 0, uses_anonymous_args = 0
 168              	.LVL13:
 169 0000 70B5     		push	{r4, r5, r6, lr}
 170              		.cfi_def_cfa_offset 16
 171              		.cfi_offset 4, -16
ARM GAS  /var/folders/t8/16hdwfmd2fg_d3q6dgx6bpmw0000gn/T//ccXOSd6z.s 			page 4


 172              		.cfi_offset 5, -12
 173              		.cfi_offset 6, -8
 174              		.cfi_offset 14, -4
 175              		.loc 1 137 0
 176 0002 0400     		movs	r4, r0
 177 0004 0D00     		movs	r5, r1
 178              	.LBB29:
 179              	.LBB30:
 180              	.LBB31:
 181              	.LBB32:
 182              	.LBB33:
 183              		.file 2 "../../tmk_core/tool/chibios/ChibiOS/os/common/ext/CMSIS/include/cmsis_gcc.h"
 184              		.loc 2 71 0
 185              		.syntax divided
 186              	@ 71 "../../tmk_core/tool/chibios/ChibiOS/os/common/ext/CMSIS/include/cmsis_gcc.h" 1
 187 0006 72B6     		cpsid i
 188              	@ 0 "" 2
 189              		.thumb
 190              		.syntax unified
 191              	.LBE33:
 192              	.LBE32:
 193              	.LBE31:
 194              		.file 3 "../../tmk_core/tool/chibios/ChibiOS/os/rt/include/chsys.h"
 195              		.loc 3 378 0
 196 0008 FFF7FEFF 		bl	_dbg_check_lock
 197              	.LVL14:
 198              	.LBE30:
 199              	.LBE29:
 200              		.loc 1 141 0
 201 000c 2900     		movs	r1, r5
 202 000e 2000     		movs	r0, r4
 203 0010 FFF7FEFF 		bl	chCoreAllocAlignedI
 204              	.LVL15:
 205 0014 0400     		movs	r4, r0
 206              	.LVL16:
 207              	.LBB34:
 208              	.LBB35:
 209              		.loc 3 388 0
 210 0016 FFF7FEFF 		bl	_dbg_check_unlock
 211              	.LVL17:
 212              		.loc 3 395 0
 213 001a 084B     		ldr	r3, .L21
 214 001c 1A68     		ldr	r2, [r3]
 215 001e 9A42     		cmp	r2, r3
 216 0020 04D0     		beq	.L19
 217 0022 9B69     		ldr	r3, [r3, #24]
 218 0024 9968     		ldr	r1, [r3, #8]
 219 0026 9368     		ldr	r3, [r2, #8]
 220 0028 9942     		cmp	r1, r3
 221 002a 02D3     		bcc	.L20
 222              	.L19:
 223              	.LBB36:
 224              	.LBB37:
 225              	.LBB38:
 226              		.loc 2 60 0
 227              		.syntax divided
 228              	@ 60 "../../tmk_core/tool/chibios/ChibiOS/os/common/ext/CMSIS/include/cmsis_gcc.h" 1
ARM GAS  /var/folders/t8/16hdwfmd2fg_d3q6dgx6bpmw0000gn/T//ccXOSd6z.s 			page 5


 229 002c 62B6     		cpsie i
 230              	@ 0 "" 2
 231              		.thumb
 232              		.syntax unified
 233              	.LBE38:
 234              	.LBE37:
 235              	.LBE36:
 236              	.LBE35:
 237              	.LBE34:
 238              		.loc 1 145 0
 239 002e 2000     		movs	r0, r4
 240              		@ sp needed
 241              	.LVL18:
 242              	.LVL19:
 243 0030 70BD     		pop	{r4, r5, r6, pc}
 244              	.LVL20:
 245              	.L20:
 246              	.LBB40:
 247              	.LBB39:
 248              		.loc 3 395 0
 249 0032 0348     		ldr	r0, .L21+4
 250 0034 FFF7FEFF 		bl	chSysHalt
 251              	.LVL21:
 252 0038 F8E7     		b	.L19
 253              	.L22:
 254 003a C046     		.align	2
 255              	.L21:
 256 003c 00000000 		.word	ch
 257 0040 00000000 		.word	.LANCHOR3
 258              	.LBE39:
 259              	.LBE40:
 260              		.cfi_endproc
 261              	.LFE140:
 262              		.size	chCoreAllocAligned, .-chCoreAllocAligned
 263              		.section	.text.chCoreGetStatusX,"ax",%progbits
 264              		.align	1
 265              		.p2align 4,,15
 266              		.global	chCoreGetStatusX
 267              		.syntax unified
 268              		.code	16
 269              		.thumb_func
 270              		.fpu softvfp
 271              		.type	chCoreGetStatusX, %function
 272              	chCoreGetStatusX:
 273              	.LFB141:
 274              		.loc 1 154 0
 275              		.cfi_startproc
 276              		@ args = 0, pretend = 0, frame = 0
 277              		@ frame_needed = 0, uses_anonymous_args = 0
 278              		@ link register save eliminated.
 279              		.loc 1 157 0
 280 0000 024B     		ldr	r3, .L24
 281              		.loc 1 159 0
 282              		@ sp needed
 283              		.loc 1 157 0
 284 0002 1868     		ldr	r0, [r3]
 285 0004 024B     		ldr	r3, .L24+4
ARM GAS  /var/folders/t8/16hdwfmd2fg_d3q6dgx6bpmw0000gn/T//ccXOSd6z.s 			page 6


 286 0006 1B68     		ldr	r3, [r3]
 287 0008 C01A     		subs	r0, r0, r3
 288              		.loc 1 159 0
 289 000a 7047     		bx	lr
 290              	.L25:
 291              		.align	2
 292              	.L24:
 293 000c 00000000 		.word	.LANCHOR1
 294 0010 00000000 		.word	.LANCHOR0
 295              		.cfi_endproc
 296              	.LFE141:
 297              		.size	chCoreGetStatusX, .-chCoreGetStatusX
 298              		.section	.bss.endmem,"aw",%nobits
 299              		.align	2
 300              		.set	.LANCHOR1,. + 0
 301              		.type	endmem, %object
 302              		.size	endmem, 4
 303              	endmem:
 304 0000 00000000 		.space	4
 305              		.section	.bss.nextmem,"aw",%nobits
 306              		.align	2
 307              		.set	.LANCHOR0,. + 0
 308              		.type	nextmem, %object
 309              		.size	nextmem, 4
 310              	nextmem:
 311 0000 00000000 		.space	4
 312              		.section	.rodata.__func__.5043,"a",%progbits
 313              		.align	2
 314              		.set	.LANCHOR3,. + 0
 315              		.type	__func__.5043, %object
 316              		.size	__func__.5043, 12
 317              	__func__.5043:
 318 0000 63685379 		.ascii	"chSysUnlock\000"
 318      73556E6C 
 318      6F636B00 
 319              		.section	.rodata.__func__.5728,"a",%progbits
 320              		.align	2
 321              		.set	.LANCHOR2,. + 0
 322              		.type	__func__.5728, %object
 323              		.size	__func__.5728, 20
 324              	__func__.5728:
 325 0000 6368436F 		.ascii	"chCoreAllocAlignedI\000"
 325      7265416C 
 325      6C6F6341 
 325      6C69676E 
 325      65644900 
 326              		.text
 327              	.Letext0:
 328              		.file 4 "/usr/local/Caskroom/gcc-arm-embedded/7-2017-q4-major/gcc-arm-none-eabi-7-2017-q4-major/li
 329              		.file 5 "/usr/local/Caskroom/gcc-arm-embedded/7-2017-q4-major/gcc-arm-none-eabi-7-2017-q4-major/ar
 330              		.file 6 "/usr/local/Caskroom/gcc-arm-embedded/7-2017-q4-major/gcc-arm-none-eabi-7-2017-q4-major/ar
 331              		.file 7 "../../tmk_core/tool/chibios/ChibiOS/os/common/ports/ARMCMx/compilers/GCC/chtypes.h"
 332              		.file 8 "../../tmk_core/tool/chibios/ChibiOS/os/rt/include/chsystypes.h"
 333              		.file 9 "../../tmk_core/tool/chibios/ChibiOS/os/rt/include/chschd.h"
 334              		.file 10 "../../tmk_core/tool/chibios/ChibiOS/os/common/ports/ARMCMx/chcore.h"
 335              		.file 11 "../../tmk_core/tool/chibios/ChibiOS/os/common/ports/ARMCMx/chcore_v6m.h"
 336              		.file 12 "../../tmk_core/tool/chibios/ChibiOS/os/rt/include/chsem.h"
ARM GAS  /var/folders/t8/16hdwfmd2fg_d3q6dgx6bpmw0000gn/T//ccXOSd6z.s 			page 7


 337              		.file 13 "../../tmk_core/tool/chibios/ChibiOS/os/rt/include/chmtx.h"
 338              		.file 14 "../../tmk_core/tool/chibios/ChibiOS/os/rt/include/chregistry.h"
 339              		.file 15 "../../tmk_core/tool/chibios/ChibiOS/os/rt/include/chdebug.h"