ARM GAS  /var/folders/t8/16hdwfmd2fg_d3q6dgx6bpmw0000gn/T//ccXOSd6z.s 			page 1


   1              		.cpu cortex-m0plus
   2              		.eabi_attribute 20, 1
   3              		.eabi_attribute 21, 1
   4              		.eabi_attribute 23, 3
   5              		.eabi_attribute 24, 1
   6              		.eabi_attribute 25, 1
   7              		.eabi_attribute 26, 1
   8              		.eabi_attribute 30, 2
   9              		.eabi_attribute 34, 0
  10              		.eabi_attribute 18, 4
  11              		.file	"chmemcore.c"
  12              		.text
  13              	.Ltext0:
  14              		.cfi_sections	.debug_frame
  15              		.section	.text._core_init,"ax",%progbits
  16              		.align	1
  17              		.p2align 4,,15
  18              		.global	_core_init
  19              		.syntax unified
  20              		.code	16
  21              		.thumb_func
  22              		.fpu softvfp
  23              		.type	_core_init, %function
  24              	_core_init:
  25              	.LFB138:
  26              		.file 1 "../../tmk_core/tool/chibios/ChibiOS/os/common/oslib/src/chmemcore.c"
  27              		.loc 1 79 0
  28              		.cfi_startproc
  29              		@ args = 0, pretend = 0, frame = 0
  30              		@ frame_needed = 0, uses_anonymous_args = 0
  31              		@ link register save eliminated.
  32              		.loc 1 85 0
  33 0000 034B     		ldr	r3, .L3
  34 0002 044A     		ldr	r2, .L3+4
  35              		.loc 1 94 0
  36              		@ sp needed
  37              		.loc 1 85 0
  38 0004 1A60     		str	r2, [r3]
  39              		.loc 1 86 0
  40 0006 044B     		ldr	r3, .L3+8
  41 0008 044A     		ldr	r2, .L3+12
  42 000a 1A60     		str	r2, [r3]
  43              		.loc 1 94 0
  44 000c 7047     		bx	lr
  45              	.L4:
  46 000e C046     		.align	2
  47              	.L3:
  48 0010 00000000 		.word	.LANCHOR0
  49 0014 00000000 		.word	__heap_base__
  50 0018 00000000 		.word	.LANCHOR1
  51 001c 00000000 		.word	__heap_end__
  52              		.cfi_endproc
  53              	.LFE138:
  54              		.size	_core_init, .-_core_init
  55              		.section	.text.chCoreAllocAlignedI,"ax",%progbits
  56              		.align	1
  57              		.p2align 4,,15
ARM GAS  /var/folders/t8/16hdwfmd2fg_d3q6dgx6bpmw0000gn/T//ccXOSd6z.s 			page 2


  58              		.global	chCoreAllocAlignedI
  59              		.syntax unified
  60              		.code	16
  61              		.thumb_func
  62              		.fpu softvfp
  63              		.type	chCoreAllocAlignedI, %function
  64              	chCoreAllocAlignedI:
  65              	.LFB139:
  66              		.loc 1 108 0
  67              		.cfi_startproc
  68              		@ args = 0, pretend = 0, frame = 0
  69              		@ frame_needed = 0, uses_anonymous_args = 0
  70              	.LVL0:
  71 0000 70B5     		push	{r4, r5, r6, lr}
  72              		.cfi_def_cfa_offset 16
  73              		.cfi_offset 4, -16
  74              		.cfi_offset 5, -12
  75              		.cfi_offset 6, -8
  76              		.cfi_offset 14, -4
  77              		.loc 1 108 0
  78 0002 0D00     		movs	r5, r1
  79 0004 0400     		movs	r4, r0
  80              		.loc 1 111 0
  81 0006 FFF7FEFF 		bl	chDbgCheckClassI
  82              	.LVL1:
  83              		.loc 1 112 0
  84 000a 002D     		cmp	r5, #0
  85 000c 13D0     		beq	.L6
  86              		.loc 1 112 0 is_stmt 0 discriminator 3
  87 000e 6B1E     		subs	r3, r5, #1
  88 0010 1D42     		tst	r5, r3
  89 0012 10D1     		bne	.L6
  90              	.L7:
  91              		.loc 1 115 0 is_stmt 1
  92 0014 0B49     		ldr	r1, .L16
  93              		.loc 1 114 0
  94 0016 631E     		subs	r3, r4, #1
  95              		.loc 1 115 0
  96 0018 0A68     		ldr	r2, [r1]
  97              		.loc 1 114 0
  98 001a 6842     		rsbs	r0, r5, #0
  99              		.loc 1 115 0
 100 001c 013A     		subs	r2, r2, #1
 101              		.loc 1 114 0
 102 001e 5B19     		adds	r3, r3, r5
 103              		.loc 1 115 0
 104 0020 5519     		adds	r5, r2, r5
 105              	.LVL2:
 106              		.loc 1 117 0
 107 0022 094A     		ldr	r2, .L16+4
 108              		.loc 1 114 0
 109 0024 0340     		ands	r3, r0
 110              	.LVL3:
 111              		.loc 1 117 0
 112 0026 1268     		ldr	r2, [r2]
 113              		.loc 1 115 0
 114 0028 2840     		ands	r0, r5
ARM GAS  /var/folders/t8/16hdwfmd2fg_d3q6dgx6bpmw0000gn/T//ccXOSd6z.s 			page 3


 115              	.LVL4:
 116              		.loc 1 117 0
 117 002a 121A     		subs	r2, r2, r0
 118 002c 9A42     		cmp	r2, r3
 119 002e 06D3     		bcc	.L9
 120              		.loc 1 120 0
 121 0030 C318     		adds	r3, r0, r3
 122              	.LVL5:
 123 0032 0B60     		str	r3, [r1]
 124              	.LVL6:
 125              	.L5:
 126              		.loc 1 123 0
 127              		@ sp needed
 128              	.LVL7:
 129              	.LVL8:
 130 0034 70BD     		pop	{r4, r5, r6, pc}
 131              	.LVL9:
 132              	.L6:
 133              		.loc 1 112 0 discriminator 4
 134 0036 0548     		ldr	r0, .L16+8
 135 0038 FFF7FEFF 		bl	chSysHalt
 136              	.LVL10:
 137 003c EAE7     		b	.L7
 138              	.LVL11:
 139              	.L9:
 140              		.loc 1 118 0
 141 003e 0020     		movs	r0, #0
 142              	.LVL12:
 143 0040 F8E7     		b	.L5
 144              	.L17:
 145 0042 C046     		.align	2
 146              	.L16:
 147 0044 00000000 		.word	.LANCHOR0
 148 0048 00000000 		.word	.LANCHOR1
 149 004c 00000000 		.word	.LANCHOR2
 150              		.cfi_endproc
 151              	.LFE139:
 152              		.size	chCoreAllocAlignedI, .-chCoreAllocAlignedI
 153              		.section	.text.chCoreAllocAligned,"ax",%progbits
 154              		.align	1
 155              		.p2align 4,,15
 156              		.global	chCoreAllocAligned
 157              		.syntax unified
 158              		.code	16
 159              		.thumb_func
 160              		.fpu softvfp
 161              		.type	chCoreAllocAligned, %function
 162              	chCoreAllocAligned:
 163              	.LFB140:
 164              		.loc 1 137 0
 165              		.cfi_startproc
 166              		@ args = 0, pretend = 0, frame = 0
 167              		@ frame_needed = 0, uses_anonymous_args = 0
 168              	.LVL13:
 169 0000 70B5     		push	{r4, r5, r6, lr}
 170              		.cfi_def_cfa_offset 16
 171              		.cfi_offset 4, -16
ARM GAS  /var/folders/t8/16hdwfmd2fg_d3q6dgx6bpmw0000gn/T//ccXOSd6z.s 			page 4


 172              		.cfi_offset 5, -12
 173              		.cfi_offset 6, -8
 174              		.cfi_offset 14, -4
 175              		.loc 1 137 0
 176 0002 0400     		movs	r4, r0
 177 0004 0D00     		movs	r5, r1
 178              	.LBB29:
 179              	.LBB30:
 180              	.LBB31:
 181              	.LBB32:
 182              	.LBB33:
 183              		.file 2 "../../tmk_core/tool/chibios/ChibiOS/os/common/ext/CMSIS/include/cmsis_gcc.h"
 184              		.loc 2 71 0
 185              		.syntax divided
 186              	@ 71 "../../tmk_core/tool/chibios/ChibiOS/os/common/ext/CMSIS/include/cmsis_gcc.h" 1
 187 0006 72B6     		cpsid i
 188              	@ 0 "" 2
 189              		.thumb
 190              		.syntax unified
 191              	.LBE33:
 192              	.LBE32:
 193              	.LBE31:
 194              		.file 3 "../../tmk_core/tool/chibios/ChibiOS/os/rt/include/chsys.h"
 195              		.loc 3 378 0
 196 0008 FFF7FEFF 		bl	_dbg_check_lock
 197              	.LVL14:
 198              	.LBE30:
 199              	.LBE29:
 200              		.loc 1 141 0
 201 000c 2900     		movs	r1, r5
 202 000e 2000     		movs	r0, r4
 203 0010 FFF7FEFF 		bl	chCoreAllocAlignedI
 204              	.LVL15:
 205 0014 0400     		movs	r4, r0
 206              	.LVL16:
 207              	.LBB34:
 208              	.LBB35:
 209              		.loc 3 388 0
 210 0016 FFF7FEFF 		bl	_dbg_check_unlock
 211              	.LVL17:
 212              		.loc 3 395 0
 213 001a 084B     		ldr	r3, .L21
 214 001c 1A68     		ldr	r2, [r3]
 215 001e 9A42     		cmp	r2, r3
 216 0020 04D0     		beq	.L19
 217 0022 9B69     		ldr	r3, [r3, #24]
 218 0024 9968     		ldr	r1, [r3, #8]
 219 0026 9368     		ldr	r3, [r2, #8]
 220 0028 9942     		cmp	r1, r3
 221 002a 02D3     		bcc	.L20
 222              	.L19:
 223              	.LBB36:
 224              	.LBB37:
 225              	.LBB38:
 226              		.loc 2 60 0
 227              		.syntax divided
 228              	@ 60 "../../tmk_core/tool/chibios/ChibiOS/os/common/ext/CMSIS/include/cmsis_gcc.h" 1
ARM GAS  /var/folders/t8/16hdwfmd2fg_d3q6dgx6bpmw0000gn/T//ccXOSd6z.s 			page 5


 229 002c 62B6     		cpsie i
 230              	@ 0 "" 2
 231              		.thumb
 232              		.syntax unified
 233              	.LBE38:
 234              	.LBE37:
 235              	.LBE36:
 236              	.LBE35:
 237              	.LBE34:
 238              		.loc 1 145 0
 239 002e 2000     		movs	r0, r4
 240              		@ sp needed
 241              	.LVL18:
 242              	.LVL19:
 243 0030 70BD     		pop	{r4, r5, r6, pc}
 244              	.LVL20:
 245              	.L20:
 246              	.LBB40:
 247              	.LBB39:
 248              		.loc 3 395 0
 249 0032 0348     		ldr	r0, .L21+4
 250 0034 FFF7FEFF 		bl	chSysHalt
 251              	.LVL21:
 252 0038 F8E7     		b	.L19
 253              	.L22:
 254 003a C046     		.align	2
 255              	.L21:
 256 003c 00000000 		.word	ch
 257 0040 00000000 		.word	.LANCHOR3
 258              	.LBE39:
 259              	.LBE40:
 260              		.cfi_endproc
 261              	.LFE140:
 262              		.size	chCoreAllocAligned, .-chCoreAllocAligned
 263              		.section	.text.chCoreGetStatusX,"ax",%progbits
 264              		.align	1
 265              		.p2align 4,,15
 266              		.global	chCoreGetStatusX
 267              		.syntax unified
 268              		.code	16
 269              		.thumb_func
 270              		.fpu softvfp
 271              		.type	chCoreGetStatusX, %function
 272              	chCoreGetStatusX:
 273              	.LFB141:
 274              		.loc 1 154 0
 275              		.cfi_startproc
 276              		@ args = 0, pretend = 0, frame = 0
 277              		@ frame_needed = 0, uses_anonymous_args = 0
 278              		@ link register save eliminated.
 279              		.loc 1 157 0
 280 0000 024B     		ldr	r3, .L24
 281              		.loc 1 159 0
 282              		@ sp needed
 283              		.loc 1 157 0
 284 0002 1868     		ldr	r0, [r3]
 285 0004 024B     		ldr	r3, .L24+4
ARM GAS  /var/folders/t8/16hdwfmd2fg_d3q6dgx6bpmw0000gn/T//ccXOSd6z.s 			page 6


 286 0006 1B68     		ldr	r3, [r3]
 287 0008 C01A     		subs	r0, r0, r3
 288              		.loc 1 159 0
 289 000a 7047     		bx	lr
 290              	.L25:
 291              		.align	2
 292              	.L24:
 293 000c 00000000 		.word	.LANCHOR1
 294 0010 00000000 		.word	.LANCHOR0
 295              		.cfi_endproc
 296              	.LFE141:
 297              		.size	chCoreGetStatusX, .-chCoreGetStatusX
 298              		.section	.bss.endmem,"aw",%nobits
 299              		.align	2
 300              		.set	.LANCHOR1,. + 0
 301              		.type	endmem, %object
 302              		.size	endmem, 4
 303              	endmem:
 304 0000 00000000 		.space	4
 305              		.section	.bss.nextmem,"aw",%nobits
 306              		.align	2
 307              		.set	.LANCHOR0,. + 0
 308              		.type	nextmem, %object
 309              		.size	nextmem, 4
 310              	nextmem:
 311 0000 00000000 		.space	4
 312              		.section	.rodata.__func__.5043,"a",%progbits
 313              		.align	2
 314              		.set	.LANCHOR3,. + 0
 315              		.type	__func__.5043, %object
 316              		.size	__func__.5043, 12
 317              	__func__.5043:
 318 0000 63685379 		.ascii	"chSysUnlock\000"
 318      73556E6C 
 318      6F636B00 
 319              		.section	.rodata.__func__.5728,"a",%progbits
 320              		.align	2
 321              		.set	.LANCHOR2,. + 0
 322              		.type	__func__.5728, %object
 323              		.size	__func__.5728, 20
 324              	__func__.5728:
 325 0000 6368436F 		.ascii	"chCoreAllocAlignedI\000"
 325      7265416C 
 325      6C6F6341 
 325      6C69676E 
 325      65644900 
 326              		.text
 327              	.Letext0:
 328              		.file 4 "/usr/local/Caskroom/gcc-arm-embedded/7-2017-q4-major/gcc-arm-none-eabi-7-2017-q4-major/li
 329              		.file 5 "/usr/local/Caskroom/gcc-arm-embedded/7-2017-q4-major/gcc-arm-none-eabi-7-2017-q4-major/ar
 330              		.file 6 "/usr/local/Caskroom/gcc-arm-embedded/7-2017-q4-major/gcc-arm-none-eabi-7-2017-q4-major/ar
 331              		.file 7 "../../tmk_core/tool/chibios/ChibiOS/os/common/ports/ARMCMx/compilers/GCC/chtypes.h"
 332              		.file 8 "../../tmk_core/tool/chibios/ChibiOS/os/rt/include/chsystypes.h"
 333              		.file 9 "../../tmk_core/tool/chibios/ChibiOS/os/rt/include/chschd.h"
 334              		.file 10 "../../tmk_core/tool/chibios/ChibiOS/os/common/ports/ARMCMx/chcore.h"
 335              		.file 11 "../../tmk_core/tool/chibios/ChibiOS/os/common/ports/ARMCMx/chcore_v6m.h"
 336              		.file 12 "../../tmk_core/tool/chibios/ChibiOS/os/rt/include/chsem.h"
ARM GAS  /var/folders/t8/16hdwfmd2fg_d3q6dgx6bpmw0000gn/T//ccXOSd6z.s 			page 7


 337              		.file 13 "../../tmk_core/tool/chibios/ChibiOS/os/rt/include/chmtx.h"
 338              		.file 14 "../../tmk_core/tool/chibios/ChibiOS/os/rt/include/chregistry.h"
 339              		.file 15 "../../tmk_core/tool/chibios/ChibiOS/os/rt/include/chdebug.h"
 340              		.section	.debug_info,"",%progbits
 341              	.Ldebug_info0:
 342 0000 AD090000 		.4byte	0x9ad
 343 0004 0400     		.2byte	0x4
 344 0006 00000000 		.4byte	.Ldebug_abbrev0
 345 000a 04       		.byte	0x4
 346 000b 01       		.uleb128 0x1
 347 000c 19000000 		.4byte	.LASF130
 348 0010 0C       		.byte	0xc
 349 0011 C9030000 		.4byte	.LASF131
 350 0015 7D040000 		.4byte	.LASF132
 351 0019 18000000 		.4byte	.Ldebug_ranges0+0x18
 352 001d 00000000 		.4byte	0
 353 0021 00000000 		.4byte	.Ldebug_line0
 354 0025 02       		.uleb128 0x2
 355 0026 04       		.byte	0x4
 356 0027 05       		.byte	0x5
 357 0028 696E7400 		.ascii	"int\000"
 358 002c 03       		.uleb128 0x3
 359 002d 1A030000 		.4byte	.LASF2
 360 0031 04       		.byte	0x4
 361 0032 D8       		.byte	0xd8
 362 0033 37000000 		.4byte	0x37
 363 0037 04       		.uleb128 0x4
 364 0038 04       		.byte	0x4
 365 0039 07       		.byte	0x7
 366 003a 5A010000 		.4byte	.LASF0
 367 003e 04       		.uleb128 0x4
 368 003f 01       		.byte	0x1
 369 0040 06       		.byte	0x6
 370 0041 30060000 		.4byte	.LASF1
 371 0045 03       		.uleb128 0x3
 372 0046 5B050000 		.4byte	.LASF3
 373 004a 05       		.byte	0x5
 374 004b 2B       		.byte	0x2b
 375 004c 50000000 		.4byte	0x50
 376 0050 04       		.uleb128 0x4
 377 0051 01       		.byte	0x1
 378 0052 08       		.byte	0x8
 379 0053 D7050000 		.4byte	.LASF4
 380 0057 04       		.uleb128 0x4
 381 0058 02       		.byte	0x2
 382 0059 05       		.byte	0x5
 383 005a 0E050000 		.4byte	.LASF5
 384 005e 03       		.uleb128 0x3
 385 005f 89020000 		.4byte	.LASF6
 386 0063 05       		.byte	0x5
 387 0064 39       		.byte	0x39
 388 0065 69000000 		.4byte	0x69
 389 0069 04       		.uleb128 0x4
 390 006a 02       		.byte	0x2
 391 006b 07       		.byte	0x7
 392 006c 42060000 		.4byte	.LASF7
 393 0070 03       		.uleb128 0x3
ARM GAS  /var/folders/t8/16hdwfmd2fg_d3q6dgx6bpmw0000gn/T//ccXOSd6z.s 			page 8


 394 0071 83010000 		.4byte	.LASF8
 395 0075 05       		.byte	0x5
 396 0076 4D       		.byte	0x4d
 397 0077 7B000000 		.4byte	0x7b
 398 007b 04       		.uleb128 0x4
 399 007c 04       		.byte	0x4
 400 007d 05       		.byte	0x5
 401 007e 18050000 		.4byte	.LASF9
 402 0082 03       		.uleb128 0x3
 403 0083 E5050000 		.4byte	.LASF10
 404 0087 05       		.byte	0x5
 405 0088 4F       		.byte	0x4f
 406 0089 8D000000 		.4byte	0x8d
 407 008d 04       		.uleb128 0x4
 408 008e 04       		.byte	0x4
 409 008f 07       		.byte	0x7
 410 0090 95050000 		.4byte	.LASF11
 411 0094 04       		.uleb128 0x4
 412 0095 08       		.byte	0x8
 413 0096 05       		.byte	0x5
 414 0097 2C040000 		.4byte	.LASF12
 415 009b 03       		.uleb128 0x3
 416 009c 3F030000 		.4byte	.LASF13
 417 00a0 05       		.byte	0x5
 418 00a1 69       		.byte	0x69
 419 00a2 A6000000 		.4byte	0xa6
 420 00a6 04       		.uleb128 0x4
 421 00a7 08       		.byte	0x8
 422 00a8 07       		.byte	0x7
 423 00a9 72020000 		.4byte	.LASF14
 424 00ad 03       		.uleb128 0x3
 425 00ae A5030000 		.4byte	.LASF15
 426 00b2 06       		.byte	0x6
 427 00b3 18       		.byte	0x18
 428 00b4 45000000 		.4byte	0x45
 429 00b8 03       		.uleb128 0x3
 430 00b9 E9040000 		.4byte	.LASF16
 431 00bd 06       		.byte	0x6
 432 00be 24       		.byte	0x24
 433 00bf 5E000000 		.4byte	0x5e
 434 00c3 03       		.uleb128 0x3
 435 00c4 BA050000 		.4byte	.LASF17
 436 00c8 06       		.byte	0x6
 437 00c9 2C       		.byte	0x2c
 438 00ca 70000000 		.4byte	0x70
 439 00ce 03       		.uleb128 0x3
 440 00cf 24020000 		.4byte	.LASF18
 441 00d3 06       		.byte	0x6
 442 00d4 30       		.byte	0x30
 443 00d5 82000000 		.4byte	0x82
 444 00d9 03       		.uleb128 0x3
 445 00da 4C050000 		.4byte	.LASF19
 446 00de 06       		.byte	0x6
 447 00df 3C       		.byte	0x3c
 448 00e0 9B000000 		.4byte	0x9b
 449 00e4 03       		.uleb128 0x3
 450 00e5 CE040000 		.4byte	.LASF20
ARM GAS  /var/folders/t8/16hdwfmd2fg_d3q6dgx6bpmw0000gn/T//ccXOSd6z.s 			page 9


 451 00e9 07       		.byte	0x7
 452 00ea 3C       		.byte	0x3c
 453 00eb AD000000 		.4byte	0xad
 454 00ef 03       		.uleb128 0x3
 455 00f0 9C030000 		.4byte	.LASF21
 456 00f4 07       		.byte	0x7
 457 00f5 3D       		.byte	0x3d
 458 00f6 AD000000 		.4byte	0xad
 459 00fa 03       		.uleb128 0x3
 460 00fb 8D050000 		.4byte	.LASF22
 461 00ff 07       		.byte	0x7
 462 0100 3E       		.byte	0x3e
 463 0101 AD000000 		.4byte	0xad
 464 0105 03       		.uleb128 0x3
 465 0106 73040000 		.4byte	.LASF23
 466 010a 07       		.byte	0x7
 467 010b 3F       		.byte	0x3f
 468 010c AD000000 		.4byte	0xad
 469 0110 03       		.uleb128 0x3
 470 0111 59020000 		.4byte	.LASF24
 471 0115 07       		.byte	0x7
 472 0116 40       		.byte	0x40
 473 0117 CE000000 		.4byte	0xce
 474 011b 03       		.uleb128 0x3
 475 011c 3F040000 		.4byte	.LASF25
 476 0120 07       		.byte	0x7
 477 0121 41       		.byte	0x41
 478 0122 C3000000 		.4byte	0xc3
 479 0126 03       		.uleb128 0x3
 480 0127 35020000 		.4byte	.LASF26
 481 012b 07       		.byte	0x7
 482 012c 43       		.byte	0x43
 483 012d CE000000 		.4byte	0xce
 484 0131 03       		.uleb128 0x3
 485 0132 94020000 		.4byte	.LASF27
 486 0136 07       		.byte	0x7
 487 0137 45       		.byte	0x45
 488 0138 C3000000 		.4byte	0xc3
 489 013c 03       		.uleb128 0x3
 490 013d 3E010000 		.4byte	.LASF28
 491 0141 08       		.byte	0x8
 492 0142 33       		.byte	0x33
 493 0143 CE000000 		.4byte	0xce
 494 0147 05       		.uleb128 0x5
 495 0148 3C010000 		.4byte	0x13c
 496 014c 03       		.uleb128 0x3
 497 014d E4020000 		.4byte	.LASF29
 498 0151 08       		.byte	0x8
 499 0152 3F       		.byte	0x3f
 500 0153 57010000 		.4byte	0x157
 501 0157 06       		.uleb128 0x6
 502 0158 B6030000 		.4byte	.LASF48
 503 015c 44       		.byte	0x44
 504 015d 09       		.byte	0x9
 505 015e 9A       		.byte	0x9a
 506 015f 41020000 		.4byte	0x241
 507 0163 07       		.uleb128 0x7
ARM GAS  /var/folders/t8/16hdwfmd2fg_d3q6dgx6bpmw0000gn/T//ccXOSd6z.s 			page 10


 508 0164 B4050000 		.4byte	.LASF30
 509 0168 09       		.byte	0x9
 510 0169 9B       		.byte	0x9b
 511 016a 76020000 		.4byte	0x276
 512 016e 00       		.byte	0
 513 016f 07       		.uleb128 0x7
 514 0170 66030000 		.4byte	.LASF31
 515 0174 09       		.byte	0x9
 516 0175 9C       		.byte	0x9c
 517 0176 10010000 		.4byte	0x110
 518 017a 08       		.byte	0x8
 519 017b 08       		.uleb128 0x8
 520 017c 63747800 		.ascii	"ctx\000"
 521 0180 09       		.byte	0x9
 522 0181 9D       		.byte	0x9d
 523 0182 75040000 		.4byte	0x475
 524 0186 0C       		.byte	0xc
 525 0187 07       		.uleb128 0x7
 526 0188 D1050000 		.4byte	.LASF32
 527 018c 09       		.byte	0x9
 528 018d 9F       		.byte	0x9f
 529 018e 4C020000 		.4byte	0x24c
 530 0192 10       		.byte	0x10
 531 0193 07       		.uleb128 0x7
 532 0194 9C060000 		.4byte	.LASF33
 533 0198 09       		.byte	0x9
 534 0199 A0       		.byte	0xa0
 535 019a 4C020000 		.4byte	0x24c
 536 019e 14       		.byte	0x14
 537 019f 07       		.uleb128 0x7
 538 01a0 65050000 		.4byte	.LASF34
 539 01a4 09       		.byte	0x9
 540 01a5 A7       		.byte	0xa7
 541 01a6 D0050000 		.4byte	0x5d0
 542 01aa 18       		.byte	0x18
 543 01ab 07       		.uleb128 0x7
 544 01ac 83030000 		.4byte	.LASF35
 545 01b0 09       		.byte	0x9
 546 01b1 B0       		.byte	0xb0
 547 01b2 E7050000 		.4byte	0x5e7
 548 01b6 1C       		.byte	0x1c
 549 01b7 07       		.uleb128 0x7
 550 01b8 0E060000 		.4byte	.LASF36
 551 01bc 09       		.byte	0x9
 552 01bd B5       		.byte	0xb5
 553 01be EF000000 		.4byte	0xef
 554 01c2 20       		.byte	0x20
 555 01c3 07       		.uleb128 0x7
 556 01c4 38010000 		.4byte	.LASF37
 557 01c8 09       		.byte	0x9
 558 01c9 B9       		.byte	0xb9
 559 01ca E4000000 		.4byte	0xe4
 560 01ce 21       		.byte	0x21
 561 01cf 07       		.uleb128 0x7
 562 01d0 8D010000 		.4byte	.LASF38
 563 01d4 09       		.byte	0x9
 564 01d5 BE       		.byte	0xbe
ARM GAS  /var/folders/t8/16hdwfmd2fg_d3q6dgx6bpmw0000gn/T//ccXOSd6z.s 			page 11


 565 01d6 FA000000 		.4byte	0xfa
 566 01da 22       		.byte	0x22
 567 01db 07       		.uleb128 0x7
 568 01dc 2D050000 		.4byte	.LASF39
 569 01e0 09       		.byte	0x9
 570 01e1 C4       		.byte	0xc4
 571 01e2 05010000 		.4byte	0x105
 572 01e6 23       		.byte	0x23
 573 01e7 09       		.uleb128 0x9
 574 01e8 7500     		.ascii	"u\000"
 575 01ea 09       		.byte	0x9
 576 01eb 0F01     		.2byte	0x10f
 577 01ed 05050000 		.4byte	0x505
 578 01f1 24       		.byte	0x24
 579 01f2 0A       		.uleb128 0xa
 580 01f3 F0050000 		.4byte	.LASF40
 581 01f7 09       		.byte	0x9
 582 01f8 1401     		.2byte	0x114
 583 01fa 52020000 		.4byte	0x252
 584 01fe 28       		.byte	0x28
 585 01ff 0A       		.uleb128 0xa
 586 0200 AD030000 		.4byte	.LASF41
 587 0204 09       		.byte	0x9
 588 0205 1A01     		.2byte	0x11a
 589 0207 76020000 		.4byte	0x276
 590 020b 2C       		.byte	0x2c
 591 020c 0A       		.uleb128 0xa
 592 020d 51010000 		.4byte	.LASF42
 593 0211 09       		.byte	0x9
 594 0212 2001     		.2byte	0x120
 595 0214 26010000 		.4byte	0x126
 596 0218 34       		.byte	0x34
 597 0219 0A       		.uleb128 0xa
 598 021a C5020000 		.4byte	.LASF43
 599 021e 09       		.byte	0x9
 600 021f 2701     		.2byte	0x127
 601 0221 CA050000 		.4byte	0x5ca
 602 0225 38       		.byte	0x38
 603 0226 0A       		.uleb128 0xa
 604 0227 48010000 		.4byte	.LASF44
 605 022b 09       		.byte	0x9
 606 022c 2B01     		.2byte	0x12b
 607 022e 10010000 		.4byte	0x110
 608 0232 3C       		.byte	0x3c
 609 0233 0A       		.uleb128 0xa
 610 0234 C0060000 		.4byte	.LASF45
 611 0238 09       		.byte	0x9
 612 0239 3201     		.2byte	0x132
 613 023b 29030000 		.4byte	0x329
 614 023f 40       		.byte	0x40
 615 0240 00       		.byte	0
 616 0241 03       		.uleb128 0x3
 617 0242 70030000 		.4byte	.LASF46
 618 0246 08       		.byte	0x8
 619 0247 44       		.byte	0x44
 620 0248 4C020000 		.4byte	0x24c
 621 024c 0B       		.uleb128 0xb
ARM GAS  /var/folders/t8/16hdwfmd2fg_d3q6dgx6bpmw0000gn/T//ccXOSd6z.s 			page 12


 622 024d 04       		.byte	0x4
 623 024e 4C010000 		.4byte	0x14c
 624 0252 03       		.uleb128 0x3
 625 0253 74010000 		.4byte	.LASF47
 626 0257 08       		.byte	0x8
 627 0258 49       		.byte	0x49
 628 0259 5D020000 		.4byte	0x25d
 629 025d 06       		.uleb128 0x6
 630 025e 00000000 		.4byte	.LASF49
 631 0262 04       		.byte	0x4
 632 0263 09       		.byte	0x9
 633 0264 88       		.byte	0x88
 634 0265 76020000 		.4byte	0x276
 635 0269 07       		.uleb128 0x7
 636 026a 67010000 		.4byte	.LASF50
 637 026e 09       		.byte	0x9
 638 026f 89       		.byte	0x89
 639 0270 4C020000 		.4byte	0x24c
 640 0274 00       		.byte	0
 641 0275 00       		.byte	0
 642 0276 03       		.uleb128 0x3
 643 0277 B5020000 		.4byte	.LASF51
 644 027b 08       		.byte	0x8
 645 027c 50       		.byte	0x50
 646 027d 81020000 		.4byte	0x281
 647 0281 06       		.uleb128 0x6
 648 0282 DF010000 		.4byte	.LASF52
 649 0286 08       		.byte	0x8
 650 0287 09       		.byte	0x9
 651 0288 8F       		.byte	0x8f
 652 0289 A6020000 		.4byte	0x2a6
 653 028d 07       		.uleb128 0x7
 654 028e 67010000 		.4byte	.LASF50
 655 0292 09       		.byte	0x9
 656 0293 90       		.byte	0x90
 657 0294 4C020000 		.4byte	0x24c
 658 0298 00       		.byte	0
 659 0299 07       		.uleb128 0x7
 660 029a DA010000 		.4byte	.LASF53
 661 029e 09       		.byte	0x9
 662 029f 91       		.byte	0x91
 663 02a0 4C020000 		.4byte	0x24c
 664 02a4 04       		.byte	0x4
 665 02a5 00       		.byte	0
 666 02a6 03       		.uleb128 0x3
 667 02a7 A7050000 		.4byte	.LASF54
 668 02ab 08       		.byte	0x8
 669 02ac 57       		.byte	0x57
 670 02ad B1020000 		.4byte	0x2b1
 671 02b1 0C       		.uleb128 0xc
 672 02b2 C0010000 		.4byte	.LASF55
 673 02b6 1C       		.byte	0x1c
 674 02b7 09       		.byte	0x9
 675 02b8 6A01     		.2byte	0x16a
 676 02ba 0D030000 		.4byte	0x30d
 677 02be 0A       		.uleb128 0xa
 678 02bf B4050000 		.4byte	.LASF30
ARM GAS  /var/folders/t8/16hdwfmd2fg_d3q6dgx6bpmw0000gn/T//ccXOSd6z.s 			page 13


 679 02c3 09       		.byte	0x9
 680 02c4 6B01     		.2byte	0x16b
 681 02c6 76020000 		.4byte	0x276
 682 02ca 00       		.byte	0
 683 02cb 0A       		.uleb128 0xa
 684 02cc 66030000 		.4byte	.LASF31
 685 02d0 09       		.byte	0x9
 686 02d1 6C01     		.2byte	0x16c
 687 02d3 10010000 		.4byte	0x110
 688 02d7 08       		.byte	0x8
 689 02d8 09       		.uleb128 0x9
 690 02d9 63747800 		.ascii	"ctx\000"
 691 02dd 09       		.byte	0x9
 692 02de 6E01     		.2byte	0x16e
 693 02e0 75040000 		.4byte	0x475
 694 02e4 0C       		.byte	0xc
 695 02e5 0A       		.uleb128 0xa
 696 02e6 D1050000 		.4byte	.LASF32
 697 02ea 09       		.byte	0x9
 698 02eb 7101     		.2byte	0x171
 699 02ed 4C020000 		.4byte	0x24c
 700 02f1 10       		.byte	0x10
 701 02f2 0A       		.uleb128 0xa
 702 02f3 9C060000 		.4byte	.LASF33
 703 02f7 09       		.byte	0x9
 704 02f8 7201     		.2byte	0x172
 705 02fa 4C020000 		.4byte	0x24c
 706 02fe 14       		.byte	0x14
 707 02ff 0A       		.uleb128 0xa
 708 0300 70060000 		.4byte	.LASF56
 709 0304 09       		.byte	0x9
 710 0305 7501     		.2byte	0x175
 711 0307 4C020000 		.4byte	0x24c
 712 030b 18       		.byte	0x18
 713 030c 00       		.byte	0
 714 030d 03       		.uleb128 0x3
 715 030e FA010000 		.4byte	.LASF57
 716 0312 08       		.byte	0x8
 717 0313 5C       		.byte	0x5c
 718 0314 18030000 		.4byte	0x318
 719 0318 0B       		.uleb128 0xb
 720 0319 04       		.byte	0x4
 721 031a 1E030000 		.4byte	0x31e
 722 031e 0D       		.uleb128 0xd
 723 031f 29030000 		.4byte	0x329
 724 0323 0E       		.uleb128 0xe
 725 0324 29030000 		.4byte	0x329
 726 0328 00       		.byte	0
 727 0329 0F       		.uleb128 0xf
 728 032a 04       		.byte	0x4
 729 032b 03       		.uleb128 0x3
 730 032c 45040000 		.4byte	.LASF58
 731 0330 08       		.byte	0x8
 732 0331 61       		.byte	0x61
 733 0332 36030000 		.4byte	0x336
 734 0336 0C       		.uleb128 0xc
 735 0337 61020000 		.4byte	.LASF59
ARM GAS  /var/folders/t8/16hdwfmd2fg_d3q6dgx6bpmw0000gn/T//ccXOSd6z.s 			page 14


 736 033b 14       		.byte	0x14
 737 033c 09       		.byte	0x9
 738 033d 4501     		.2byte	0x145
 739 033f 85030000 		.4byte	0x385
 740 0343 0A       		.uleb128 0xa
 741 0344 67010000 		.4byte	.LASF50
 742 0348 09       		.byte	0x9
 743 0349 4601     		.2byte	0x146
 744 034b ED050000 		.4byte	0x5ed
 745 034f 00       		.byte	0
 746 0350 0A       		.uleb128 0xa
 747 0351 DA010000 		.4byte	.LASF53
 748 0355 09       		.byte	0x9
 749 0356 4701     		.2byte	0x147
 750 0358 ED050000 		.4byte	0x5ed
 751 035c 04       		.byte	0x4
 752 035d 0A       		.uleb128 0xa
 753 035e 3C060000 		.4byte	.LASF60
 754 0362 09       		.byte	0x9
 755 0363 4801     		.2byte	0x148
 756 0365 3C010000 		.4byte	0x13c
 757 0369 08       		.byte	0x8
 758 036a 0A       		.uleb128 0xa
 759 036b CE010000 		.4byte	.LASF61
 760 036f 09       		.byte	0x9
 761 0370 4901     		.2byte	0x149
 762 0372 0D030000 		.4byte	0x30d
 763 0376 0C       		.byte	0xc
 764 0377 09       		.uleb128 0x9
 765 0378 70617200 		.ascii	"par\000"
 766 037c 09       		.byte	0x9
 767 037d 4B01     		.2byte	0x14b
 768 037f 29030000 		.4byte	0x329
 769 0383 10       		.byte	0x10
 770 0384 00       		.byte	0
 771 0385 03       		.uleb128 0x3
 772 0386 F8050000 		.4byte	.LASF62
 773 038a 08       		.byte	0x8
 774 038b 66       		.byte	0x66
 775 038c 90030000 		.4byte	0x390
 776 0390 0C       		.uleb128 0xc
 777 0391 CD020000 		.4byte	.LASF63
 778 0395 10       		.byte	0x10
 779 0396 09       		.byte	0x9
 780 0397 5501     		.2byte	0x155
 781 0399 D2030000 		.4byte	0x3d2
 782 039d 0A       		.uleb128 0xa
 783 039e 67010000 		.4byte	.LASF50
 784 03a2 09       		.byte	0x9
 785 03a3 5601     		.2byte	0x156
 786 03a5 ED050000 		.4byte	0x5ed
 787 03a9 00       		.byte	0
 788 03aa 0A       		.uleb128 0xa
 789 03ab DA010000 		.4byte	.LASF53
 790 03af 09       		.byte	0x9
 791 03b0 5801     		.2byte	0x158
 792 03b2 ED050000 		.4byte	0x5ed
ARM GAS  /var/folders/t8/16hdwfmd2fg_d3q6dgx6bpmw0000gn/T//ccXOSd6z.s 			page 15


 793 03b6 04       		.byte	0x4
 794 03b7 0A       		.uleb128 0xa
 795 03b8 3C060000 		.4byte	.LASF60
 796 03bc 09       		.byte	0x9
 797 03bd 5A01     		.2byte	0x15a
 798 03bf 3C010000 		.4byte	0x13c
 799 03c3 08       		.byte	0x8
 800 03c4 0A       		.uleb128 0xa
 801 03c5 D6040000 		.4byte	.LASF64
 802 03c9 09       		.byte	0x9
 803 03ca 5C01     		.2byte	0x15c
 804 03cc 47010000 		.4byte	0x147
 805 03d0 0C       		.byte	0xc
 806 03d1 00       		.byte	0
 807 03d2 03       		.uleb128 0x3
 808 03d3 0D040000 		.4byte	.LASF65
 809 03d7 08       		.byte	0x8
 810 03d8 6B       		.byte	0x6b
 811 03d9 DD030000 		.4byte	0x3dd
 812 03dd 0C       		.uleb128 0xc
 813 03de 14020000 		.4byte	.LASF66
 814 03e2 0C       		.byte	0xc
 815 03e3 09       		.byte	0x9
 816 03e4 7C01     		.2byte	0x17c
 817 03e6 12040000 		.4byte	0x412
 818 03ea 0A       		.uleb128 0xa
 819 03eb C4040000 		.4byte	.LASF67
 820 03ef 09       		.byte	0x9
 821 03f0 8401     		.2byte	0x184
 822 03f2 D6050000 		.4byte	0x5d6
 823 03f6 00       		.byte	0
 824 03f7 0A       		.uleb128 0xa
 825 03f8 A7020000 		.4byte	.LASF68
 826 03fc 09       		.byte	0x9
 827 03fd 8901     		.2byte	0x189
 828 03ff 31010000 		.4byte	0x131
 829 0403 04       		.byte	0x4
 830 0404 0A       		.uleb128 0xa
 831 0405 05050000 		.4byte	.LASF69
 832 0409 09       		.byte	0x9
 833 040a 8D01     		.2byte	0x18d
 834 040c 31010000 		.4byte	0x131
 835 0410 08       		.byte	0x8
 836 0411 00       		.byte	0
 837 0412 03       		.uleb128 0x3
 838 0413 1E060000 		.4byte	.LASF70
 839 0417 08       		.byte	0x8
 840 0418 70       		.byte	0x70
 841 0419 1D040000 		.4byte	0x41d
 842 041d 0C       		.uleb128 0xc
 843 041e 42050000 		.4byte	.LASF71
 844 0422 7C       		.byte	0x7c
 845 0423 09       		.byte	0x9
 846 0424 9C01     		.2byte	0x19c
 847 0426 5F040000 		.4byte	0x45f
 848 042a 0A       		.uleb128 0xa
 849 042b 55050000 		.4byte	.LASF72
ARM GAS  /var/folders/t8/16hdwfmd2fg_d3q6dgx6bpmw0000gn/T//ccXOSd6z.s 			page 16


 850 042f 09       		.byte	0x9
 851 0430 A001     		.2byte	0x1a0
 852 0432 A6020000 		.4byte	0x2a6
 853 0436 00       		.byte	0
 854 0437 0A       		.uleb128 0xa
 855 0438 AC010000 		.4byte	.LASF73
 856 043c 09       		.byte	0x9
 857 043d A401     		.2byte	0x1a4
 858 043f 85030000 		.4byte	0x385
 859 0443 1C       		.byte	0x1c
 860 0444 09       		.uleb128 0x9
 861 0445 64626700 		.ascii	"dbg\000"
 862 0449 09       		.byte	0x9
 863 044a A801     		.2byte	0x1a8
 864 044c D2030000 		.4byte	0x3d2
 865 0450 2C       		.byte	0x2c
 866 0451 0A       		.uleb128 0xa
 867 0452 DE040000 		.4byte	.LASF74
 868 0456 09       		.byte	0x9
 869 0457 AC01     		.2byte	0x1ac
 870 0459 4C010000 		.4byte	0x14c
 871 045d 38       		.byte	0x38
 872 045e 00       		.byte	0
 873 045f 03       		.uleb128 0x3
 874 0460 1B010000 		.4byte	.LASF75
 875 0464 0A       		.byte	0xa
 876 0465 65       		.byte	0x65
 877 0466 29030000 		.4byte	0x329
 878 046a 03       		.uleb128 0x3
 879 046b 55060000 		.4byte	.LASF76
 880 046f 0A       		.byte	0xa
 881 0470 6D       		.byte	0x6d
 882 0471 D9000000 		.4byte	0xd9
 883 0475 06       		.uleb128 0x6
 884 0476 B3010000 		.4byte	.LASF77
 885 047a 04       		.byte	0x4
 886 047b 0A       		.byte	0xa
 887 047c 89       		.byte	0x89
 888 047d 8D040000 		.4byte	0x48d
 889 0481 08       		.uleb128 0x8
 890 0482 737000   		.ascii	"sp\000"
 891 0485 0A       		.byte	0xa
 892 0486 8A       		.byte	0x8a
 893 0487 FF040000 		.4byte	0x4ff
 894 048b 00       		.byte	0
 895 048c 00       		.byte	0
 896 048d 06       		.uleb128 0x6
 897 048e 21050000 		.4byte	.LASF78
 898 0492 24       		.byte	0x24
 899 0493 0B       		.byte	0xb
 900 0494 C3       		.byte	0xc3
 901 0495 FF040000 		.4byte	0x4ff
 902 0499 08       		.uleb128 0x8
 903 049a 723800   		.ascii	"r8\000"
 904 049d 0B       		.byte	0xb
 905 049e C4       		.byte	0xc4
 906 049f 5F040000 		.4byte	0x45f
ARM GAS  /var/folders/t8/16hdwfmd2fg_d3q6dgx6bpmw0000gn/T//ccXOSd6z.s 			page 17


 907 04a3 00       		.byte	0
 908 04a4 08       		.uleb128 0x8
 909 04a5 723900   		.ascii	"r9\000"
 910 04a8 0B       		.byte	0xb
 911 04a9 C5       		.byte	0xc5
 912 04aa 5F040000 		.4byte	0x45f
 913 04ae 04       		.byte	0x4
 914 04af 08       		.uleb128 0x8
 915 04b0 72313000 		.ascii	"r10\000"
 916 04b4 0B       		.byte	0xb
 917 04b5 C6       		.byte	0xc6
 918 04b6 5F040000 		.4byte	0x45f
 919 04ba 08       		.byte	0x8
 920 04bb 08       		.uleb128 0x8
 921 04bc 72313100 		.ascii	"r11\000"
 922 04c0 0B       		.byte	0xb
 923 04c1 C7       		.byte	0xc7
 924 04c2 5F040000 		.4byte	0x45f
 925 04c6 0C       		.byte	0xc
 926 04c7 08       		.uleb128 0x8
 927 04c8 723400   		.ascii	"r4\000"
 928 04cb 0B       		.byte	0xb
 929 04cc C8       		.byte	0xc8
 930 04cd 5F040000 		.4byte	0x45f
 931 04d1 10       		.byte	0x10
 932 04d2 08       		.uleb128 0x8
 933 04d3 723500   		.ascii	"r5\000"
 934 04d6 0B       		.byte	0xb
 935 04d7 C9       		.byte	0xc9
 936 04d8 5F040000 		.4byte	0x45f
 937 04dc 14       		.byte	0x14
 938 04dd 08       		.uleb128 0x8
 939 04de 723600   		.ascii	"r6\000"
 940 04e1 0B       		.byte	0xb
 941 04e2 CA       		.byte	0xca
 942 04e3 5F040000 		.4byte	0x45f
 943 04e7 18       		.byte	0x18
 944 04e8 08       		.uleb128 0x8
 945 04e9 723700   		.ascii	"r7\000"
 946 04ec 0B       		.byte	0xb
 947 04ed CB       		.byte	0xcb
 948 04ee 5F040000 		.4byte	0x45f
 949 04f2 1C       		.byte	0x1c
 950 04f3 08       		.uleb128 0x8
 951 04f4 6C7200   		.ascii	"lr\000"
 952 04f7 0B       		.byte	0xb
 953 04f8 CC       		.byte	0xcc
 954 04f9 5F040000 		.4byte	0x45f
 955 04fd 20       		.byte	0x20
 956 04fe 00       		.byte	0
 957 04ff 0B       		.uleb128 0xb
 958 0500 04       		.byte	0x4
 959 0501 8D040000 		.4byte	0x48d
 960 0505 10       		.uleb128 0x10
 961 0506 04       		.byte	0x4
 962 0507 09       		.byte	0x9
 963 0508 D2       		.byte	0xd2
ARM GAS  /var/folders/t8/16hdwfmd2fg_d3q6dgx6bpmw0000gn/T//ccXOSd6z.s 			page 18


 964 0509 68050000 		.4byte	0x568
 965 050d 11       		.uleb128 0x11
 966 050e 21030000 		.4byte	.LASF79
 967 0512 09       		.byte	0x9
 968 0513 D9       		.byte	0xd9
 969 0514 1B010000 		.4byte	0x11b
 970 0518 11       		.uleb128 0x11
 971 0519 AA060000 		.4byte	.LASF80
 972 051d 09       		.byte	0x9
 973 051e E0       		.byte	0xe0
 974 051f 1B010000 		.4byte	0x11b
 975 0523 11       		.uleb128 0x11
 976 0524 9B010000 		.4byte	.LASF81
 977 0528 09       		.byte	0x9
 978 0529 E7       		.byte	0xe7
 979 052a 29030000 		.4byte	0x329
 980 052e 11       		.uleb128 0x11
 981 052f 2A060000 		.4byte	.LASF82
 982 0533 09       		.byte	0x9
 983 0534 EE       		.byte	0xee
 984 0535 68050000 		.4byte	0x568
 985 0539 11       		.uleb128 0x11
 986 053a 2D020000 		.4byte	.LASF83
 987 053e 09       		.byte	0x9
 988 053f F3       		.byte	0xf3
 989 0540 1B010000 		.4byte	0x11b
 990 0544 11       		.uleb128 0x11
 991 0545 C2050000 		.4byte	.LASF84
 992 0549 09       		.byte	0x9
 993 054a FC       		.byte	0xfc
 994 054b 93050000 		.4byte	0x593
 995 054f 12       		.uleb128 0x12
 996 0550 02010000 		.4byte	.LASF85
 997 0554 09       		.byte	0x9
 998 0555 0501     		.2byte	0x105
 999 0557 CA050000 		.4byte	0x5ca
 1000 055b 12       		.uleb128 0x12
 1001 055c D3010000 		.4byte	.LASF86
 1002 0560 09       		.byte	0x9
 1003 0561 0D01     		.2byte	0x10d
 1004 0563 26010000 		.4byte	0x126
 1005 0567 00       		.byte	0
 1006 0568 0B       		.uleb128 0xb
 1007 0569 04       		.byte	0x4
 1008 056a 41020000 		.4byte	0x241
 1009 056e 06       		.uleb128 0x6
 1010 056f 4C020000 		.4byte	.LASF87
 1011 0573 0C       		.byte	0xc
 1012 0574 0C       		.byte	0xc
 1013 0575 34       		.byte	0x34
 1014 0576 93050000 		.4byte	0x593
 1015 057a 07       		.uleb128 0x7
 1016 057b B4050000 		.4byte	.LASF30
 1017 057f 0C       		.byte	0xc
 1018 0580 35       		.byte	0x35
 1019 0581 76020000 		.4byte	0x276
 1020 0585 00       		.byte	0
ARM GAS  /var/folders/t8/16hdwfmd2fg_d3q6dgx6bpmw0000gn/T//ccXOSd6z.s 			page 19


 1021 0586 08       		.uleb128 0x8
 1022 0587 636E7400 		.ascii	"cnt\000"
 1023 058b 0C       		.byte	0xc
 1024 058c 37       		.byte	0x37
 1025 058d 31010000 		.4byte	0x131
 1026 0591 08       		.byte	0x8
 1027 0592 00       		.byte	0
 1028 0593 0B       		.uleb128 0xb
 1029 0594 04       		.byte	0x4
 1030 0595 6E050000 		.4byte	0x56e
 1031 0599 06       		.uleb128 0x6
 1032 059a 36030000 		.4byte	.LASF88
 1033 059e 10       		.byte	0x10
 1034 059f 0D       		.byte	0xd
 1035 05a0 39       		.byte	0x39
 1036 05a1 CA050000 		.4byte	0x5ca
 1037 05a5 07       		.uleb128 0x7
 1038 05a6 B4050000 		.4byte	.LASF30
 1039 05aa 0D       		.byte	0xd
 1040 05ab 3A       		.byte	0x3a
 1041 05ac 76020000 		.4byte	0x276
 1042 05b0 00       		.byte	0
 1043 05b1 07       		.uleb128 0x7
 1044 05b2 AF020000 		.4byte	.LASF89
 1045 05b6 0D       		.byte	0xd
 1046 05b7 3C       		.byte	0x3c
 1047 05b8 4C020000 		.4byte	0x24c
 1048 05bc 08       		.byte	0x8
 1049 05bd 07       		.uleb128 0x7
 1050 05be 67010000 		.4byte	.LASF50
 1051 05c2 0D       		.byte	0xd
 1052 05c3 3E       		.byte	0x3e
 1053 05c4 2C070000 		.4byte	0x72c
 1054 05c8 0C       		.byte	0xc
 1055 05c9 00       		.byte	0
 1056 05ca 0B       		.uleb128 0xb
 1057 05cb 04       		.byte	0x4
 1058 05cc 99050000 		.4byte	0x599
 1059 05d0 0B       		.uleb128 0xb
 1060 05d1 04       		.byte	0x4
 1061 05d2 E2050000 		.4byte	0x5e2
 1062 05d6 05       		.uleb128 0x5
 1063 05d7 D0050000 		.4byte	0x5d0
 1064 05db 04       		.uleb128 0x4
 1065 05dc 01       		.byte	0x1
 1066 05dd 08       		.byte	0x8
 1067 05de 6B030000 		.4byte	.LASF90
 1068 05e2 13       		.uleb128 0x13
 1069 05e3 DB050000 		.4byte	0x5db
 1070 05e7 0B       		.uleb128 0xb
 1071 05e8 04       		.byte	0x4
 1072 05e9 6A040000 		.4byte	0x46a
 1073 05ed 0B       		.uleb128 0xb
 1074 05ee 04       		.byte	0x4
 1075 05ef 2B030000 		.4byte	0x32b
 1076 05f3 14       		.uleb128 0x14
 1077 05f4 636800   		.ascii	"ch\000"
ARM GAS  /var/folders/t8/16hdwfmd2fg_d3q6dgx6bpmw0000gn/T//ccXOSd6z.s 			page 20


 1078 05f7 09       		.byte	0x9
 1079 05f8 D201     		.2byte	0x1d2
 1080 05fa 12040000 		.4byte	0x412
 1081 05fe 15       		.uleb128 0x15
 1082 05ff 6A040000 		.4byte	0x46a
 1083 0603 09060000 		.4byte	0x609
 1084 0607 16       		.uleb128 0x16
 1085 0608 00       		.byte	0
 1086 0609 17       		.uleb128 0x17
 1087 060a 8A030000 		.4byte	.LASF91
 1088 060e 03       		.byte	0x3
 1089 060f 2B01     		.2byte	0x12b
 1090 0611 FE050000 		.4byte	0x5fe
 1091 0615 18       		.uleb128 0x18
 1092 0616 16       		.byte	0x16
 1093 0617 0E       		.byte	0xe
 1094 0618 34       		.byte	0x34
 1095 0619 F6060000 		.4byte	0x6f6
 1096 061d 07       		.uleb128 0x7
 1097 061e 6A050000 		.4byte	.LASF92
 1098 0622 0E       		.byte	0xe
 1099 0623 35       		.byte	0x35
 1100 0624 F6060000 		.4byte	0x6f6
 1101 0628 00       		.byte	0
 1102 0629 07       		.uleb128 0x7
 1103 062a 3A040000 		.4byte	.LASF93
 1104 062e 0E       		.byte	0xe
 1105 062f 36       		.byte	0x36
 1106 0630 AD000000 		.4byte	0xad
 1107 0634 04       		.byte	0x4
 1108 0635 07       		.uleb128 0x7
 1109 0636 55040000 		.4byte	.LASF94
 1110 063a 0E       		.byte	0xe
 1111 063b 37       		.byte	0x37
 1112 063c AD000000 		.4byte	0xad
 1113 0640 05       		.byte	0x5
 1114 0641 07       		.uleb128 0x7
 1115 0642 6C010000 		.4byte	.LASF95
 1116 0646 0E       		.byte	0xe
 1117 0647 38       		.byte	0x38
 1118 0648 B8000000 		.4byte	0xb8
 1119 064c 06       		.byte	0x6
 1120 064d 07       		.uleb128 0x7
 1121 064e 5A040000 		.4byte	.LASF96
 1122 0652 0E       		.byte	0xe
 1123 0653 39       		.byte	0x39
 1124 0654 AD000000 		.4byte	0xad
 1125 0658 08       		.byte	0x8
 1126 0659 07       		.uleb128 0x7
 1127 065a 10000000 		.4byte	.LASF97
 1128 065e 0E       		.byte	0xe
 1129 065f 3A       		.byte	0x3a
 1130 0660 AD000000 		.4byte	0xad
 1131 0664 09       		.byte	0x9
 1132 0665 07       		.uleb128 0x7
 1133 0666 41020000 		.4byte	.LASF98
 1134 066a 0E       		.byte	0xe
ARM GAS  /var/folders/t8/16hdwfmd2fg_d3q6dgx6bpmw0000gn/T//ccXOSd6z.s 			page 21


 1135 066b 3B       		.byte	0x3b
 1136 066c AD000000 		.4byte	0xad
 1137 0670 0A       		.byte	0xa
 1138 0671 07       		.uleb128 0x7
 1139 0672 FC040000 		.4byte	.LASF99
 1140 0676 0E       		.byte	0xe
 1141 0677 3C       		.byte	0x3c
 1142 0678 AD000000 		.4byte	0xad
 1143 067c 0B       		.byte	0xb
 1144 067d 07       		.uleb128 0x7
 1145 067e 4A030000 		.4byte	.LASF100
 1146 0682 0E       		.byte	0xe
 1147 0683 3D       		.byte	0x3d
 1148 0684 AD000000 		.4byte	0xad
 1149 0688 0C       		.byte	0xc
 1150 0689 07       		.uleb128 0x7
 1151 068a F0010000 		.4byte	.LASF101
 1152 068e 0E       		.byte	0xe
 1153 068f 3E       		.byte	0x3e
 1154 0690 AD000000 		.4byte	0xad
 1155 0694 0D       		.byte	0xd
 1156 0695 07       		.uleb128 0x7
 1157 0696 F8020000 		.4byte	.LASF102
 1158 069a 0E       		.byte	0xe
 1159 069b 3F       		.byte	0x3f
 1160 069c AD000000 		.4byte	0xad
 1161 06a0 0E       		.byte	0xe
 1162 06a1 07       		.uleb128 0x7
 1163 06a2 C0030000 		.4byte	.LASF103
 1164 06a6 0E       		.byte	0xe
 1165 06a7 40       		.byte	0x40
 1166 06a8 AD000000 		.4byte	0xad
 1167 06ac 0F       		.byte	0xf
 1168 06ad 07       		.uleb128 0x7
 1169 06ae 9A020000 		.4byte	.LASF104
 1170 06b2 0E       		.byte	0xe
 1171 06b3 41       		.byte	0x41
 1172 06b4 AD000000 		.4byte	0xad
 1173 06b8 10       		.byte	0x10
 1174 06b9 07       		.uleb128 0x7
 1175 06ba 02030000 		.4byte	.LASF105
 1176 06be 0E       		.byte	0xe
 1177 06bf 42       		.byte	0x42
 1178 06c0 AD000000 		.4byte	0xad
 1179 06c4 11       		.byte	0x11
 1180 06c5 07       		.uleb128 0x7
 1181 06c6 5C030000 		.4byte	.LASF106
 1182 06ca 0E       		.byte	0xe
 1183 06cb 43       		.byte	0x43
 1184 06cc AD000000 		.4byte	0xad
 1185 06d0 12       		.byte	0x12
 1186 06d1 07       		.uleb128 0x7
 1187 06d2 60060000 		.4byte	.LASF107
 1188 06d6 0E       		.byte	0xe
 1189 06d7 44       		.byte	0x44
 1190 06d8 AD000000 		.4byte	0xad
 1191 06dc 13       		.byte	0x13
ARM GAS  /var/folders/t8/16hdwfmd2fg_d3q6dgx6bpmw0000gn/T//ccXOSd6z.s 			page 22


 1192 06dd 07       		.uleb128 0x7
 1193 06de 75050000 		.4byte	.LASF108
 1194 06e2 0E       		.byte	0xe
 1195 06e3 45       		.byte	0x45
 1196 06e4 AD000000 		.4byte	0xad
 1197 06e8 14       		.byte	0x14
 1198 06e9 07       		.uleb128 0x7
 1199 06ea 92010000 		.4byte	.LASF109
 1200 06ee 0E       		.byte	0xe
 1201 06ef 46       		.byte	0x46
 1202 06f0 AD000000 		.4byte	0xad
 1203 06f4 15       		.byte	0x15
 1204 06f5 00       		.byte	0
 1205 06f6 15       		.uleb128 0x15
 1206 06f7 DB050000 		.4byte	0x5db
 1207 06fb 06070000 		.4byte	0x706
 1208 06ff 19       		.uleb128 0x19
 1209 0700 37000000 		.4byte	0x37
 1210 0704 03       		.byte	0x3
 1211 0705 00       		.byte	0
 1212 0706 03       		.uleb128 0x3
 1213 0707 F2040000 		.4byte	.LASF110
 1214 070b 0E       		.byte	0xe
 1215 070c 47       		.byte	0x47
 1216 070d 15060000 		.4byte	0x615
 1217 0711 13       		.uleb128 0x13
 1218 0712 06070000 		.4byte	0x706
 1219 0716 1A       		.uleb128 0x1a
 1220 0717 81060000 		.4byte	.LASF111
 1221 071b 0E       		.byte	0xe
 1222 071c 6C       		.byte	0x6c
 1223 071d 11070000 		.4byte	0x711
 1224 0721 03       		.uleb128 0x3
 1225 0722 C9050000 		.4byte	.LASF112
 1226 0726 0D       		.byte	0xd
 1227 0727 34       		.byte	0x34
 1228 0728 99050000 		.4byte	0x599
 1229 072c 0B       		.uleb128 0xb
 1230 072d 04       		.byte	0x4
 1231 072e 21070000 		.4byte	0x721
 1232 0732 1B       		.uleb128 0x1b
 1233 0733 A2060000 		.4byte	.LASF113
 1234 0737 01       		.byte	0x1
 1235 0738 3F       		.byte	0x3f
 1236 0739 43070000 		.4byte	0x743
 1237 073d 05       		.uleb128 0x5
 1238 073e 03       		.byte	0x3
 1239 073f 00000000 		.4byte	nextmem
 1240 0743 0B       		.uleb128 0xb
 1241 0744 04       		.byte	0x4
 1242 0745 AD000000 		.4byte	0xad
 1243 0749 1B       		.uleb128 0x1b
 1244 074a 69060000 		.4byte	.LASF114
 1245 074e 01       		.byte	0x1
 1246 074f 40       		.byte	0x40
 1247 0750 43070000 		.4byte	0x743
 1248 0754 05       		.uleb128 0x5
ARM GAS  /var/folders/t8/16hdwfmd2fg_d3q6dgx6bpmw0000gn/T//ccXOSd6z.s 			page 23


 1249 0755 03       		.byte	0x3
 1250 0756 00000000 		.4byte	endmem
 1251 075a 1C       		.uleb128 0x1c
 1252 075b 03020000 		.4byte	.LASF133
 1253 075f 01       		.byte	0x1
 1254 0760 9A       		.byte	0x9a
 1255 0761 2C000000 		.4byte	0x2c
 1256 0765 00000000 		.4byte	.LFB141
 1257 0769 14000000 		.4byte	.LFE141-.LFB141
 1258 076d 01       		.uleb128 0x1
 1259 076e 9C       		.byte	0x9c
 1260 076f 1D       		.uleb128 0x1d
 1261 0770 C6060000 		.4byte	.LASF116
 1262 0774 01       		.byte	0x1
 1263 0775 89       		.byte	0x89
 1264 0776 29030000 		.4byte	0x329
 1265 077a 00000000 		.4byte	.LFB140
 1266 077e 44000000 		.4byte	.LFE140-.LFB140
 1267 0782 01       		.uleb128 0x1
 1268 0783 9C       		.byte	0x9c
 1269 0784 6C080000 		.4byte	0x86c
 1270 0788 1E       		.uleb128 0x1e
 1271 0789 55040000 		.4byte	.LASF94
 1272 078d 01       		.byte	0x1
 1273 078e 89       		.byte	0x89
 1274 078f 2C000000 		.4byte	0x2c
 1275 0793 00000000 		.4byte	.LLST3
 1276 0797 1E       		.uleb128 0x1e
 1277 0798 96060000 		.4byte	.LASF115
 1278 079c 01       		.byte	0x1
 1279 079d 89       		.byte	0x89
 1280 079e 37000000 		.4byte	0x37
 1281 07a2 2C000000 		.4byte	.LLST4
 1282 07a6 1F       		.uleb128 0x1f
 1283 07a7 7000     		.ascii	"p\000"
 1284 07a9 01       		.byte	0x1
 1285 07aa 8A       		.byte	0x8a
 1286 07ab 29030000 		.4byte	0x329
 1287 07af 63000000 		.4byte	.LLST5
 1288 07b3 20       		.uleb128 0x20
 1289 07b4 58090000 		.4byte	0x958
 1290 07b8 06000000 		.4byte	.LBB29
 1291 07bc 06000000 		.4byte	.LBE29-.LBB29
 1292 07c0 01       		.byte	0x1
 1293 07c1 8C       		.byte	0x8c
 1294 07c2 F5070000 		.4byte	0x7f5
 1295 07c6 21       		.uleb128 0x21
 1296 07c7 6A090000 		.4byte	0x96a
 1297 07cb 06000000 		.4byte	.LBB31
 1298 07cf 02000000 		.4byte	.LBE31-.LBB31
 1299 07d3 03       		.byte	0x3
 1300 07d4 7801     		.2byte	0x178
 1301 07d6 EB070000 		.4byte	0x7eb
 1302 07da 22       		.uleb128 0x22
 1303 07db 73090000 		.4byte	0x973
 1304 07df 06000000 		.4byte	.LBB32
 1305 07e3 02000000 		.4byte	.LBE32-.LBB32
ARM GAS  /var/folders/t8/16hdwfmd2fg_d3q6dgx6bpmw0000gn/T//ccXOSd6z.s 			page 24


 1306 07e7 0B       		.byte	0xb
 1307 07e8 7501     		.2byte	0x175
 1308 07ea 00       		.byte	0
 1309 07eb 23       		.uleb128 0x23
 1310 07ec 0C000000 		.4byte	.LVL14
 1311 07f0 83090000 		.4byte	0x983
 1312 07f4 00       		.byte	0
 1313 07f5 24       		.uleb128 0x24
 1314 07f6 28090000 		.4byte	0x928
 1315 07fa 16000000 		.4byte	.LBB34
 1316 07fe 00000000 		.4byte	.Ldebug_ranges0+0
 1317 0802 01       		.byte	0x1
 1318 0803 8E       		.byte	0x8e
 1319 0804 55080000 		.4byte	0x855
 1320 0808 25       		.uleb128 0x25
 1321 0809 00000000 		.4byte	.Ldebug_ranges0+0
 1322 080d 26       		.uleb128 0x26
 1323 080e 35090000 		.4byte	0x935
 1324 0812 21       		.uleb128 0x21
 1325 0813 61090000 		.4byte	0x961
 1326 0817 2C000000 		.4byte	.LBB36
 1327 081b 02000000 		.4byte	.LBE36-.LBB36
 1328 081f 03       		.byte	0x3
 1329 0820 8F01     		.2byte	0x18f
 1330 0822 37080000 		.4byte	0x837
 1331 0826 22       		.uleb128 0x22
 1332 0827 7B090000 		.4byte	0x97b
 1333 082b 2C000000 		.4byte	.LBB37
 1334 082f 02000000 		.4byte	.LBE37-.LBB37
 1335 0833 0B       		.byte	0xb
 1336 0834 7E01     		.2byte	0x17e
 1337 0836 00       		.byte	0
 1338 0837 23       		.uleb128 0x23
 1339 0838 1A000000 		.4byte	.LVL17
 1340 083c 8E090000 		.4byte	0x98e
 1341 0840 27       		.uleb128 0x27
 1342 0841 38000000 		.4byte	.LVL21
 1343 0845 99090000 		.4byte	0x999
 1344 0849 28       		.uleb128 0x28
 1345 084a 01       		.uleb128 0x1
 1346 084b 50       		.byte	0x50
 1347 084c 05       		.uleb128 0x5
 1348 084d 03       		.byte	0x3
 1349 084e 00000000 		.4byte	.LANCHOR3
 1350 0852 00       		.byte	0
 1351 0853 00       		.byte	0
 1352 0854 00       		.byte	0
 1353 0855 27       		.uleb128 0x27
 1354 0856 14000000 		.4byte	.LVL15
 1355 085a 6C080000 		.4byte	0x86c
 1356 085e 28       		.uleb128 0x28
 1357 085f 01       		.uleb128 0x1
 1358 0860 50       		.byte	0x50
 1359 0861 02       		.uleb128 0x2
 1360 0862 74       		.byte	0x74
 1361 0863 00       		.sleb128 0
 1362 0864 28       		.uleb128 0x28
ARM GAS  /var/folders/t8/16hdwfmd2fg_d3q6dgx6bpmw0000gn/T//ccXOSd6z.s 			page 25


 1363 0865 01       		.uleb128 0x1
 1364 0866 51       		.byte	0x51
 1365 0867 02       		.uleb128 0x2
 1366 0868 75       		.byte	0x75
 1367 0869 00       		.sleb128 0
 1368 086a 00       		.byte	0
 1369 086b 00       		.byte	0
 1370 086c 1D       		.uleb128 0x1d
 1371 086d 24010000 		.4byte	.LASF117
 1372 0871 01       		.byte	0x1
 1373 0872 6C       		.byte	0x6c
 1374 0873 29030000 		.4byte	0x329
 1375 0877 00000000 		.4byte	.LFB139
 1376 087b 50000000 		.4byte	.LFE139-.LFB139
 1377 087f 01       		.uleb128 0x1
 1378 0880 9C       		.byte	0x9c
 1379 0881 DC080000 		.4byte	0x8dc
 1380 0885 1E       		.uleb128 0x1e
 1381 0886 55040000 		.4byte	.LASF94
 1382 088a 01       		.byte	0x1
 1383 088b 6C       		.byte	0x6c
 1384 088c 2C000000 		.4byte	0x2c
 1385 0890 97000000 		.4byte	.LLST0
 1386 0894 1E       		.uleb128 0x1e
 1387 0895 96060000 		.4byte	.LASF115
 1388 0899 01       		.byte	0x1
 1389 089a 6C       		.byte	0x6c
 1390 089b 37000000 		.4byte	0x37
 1391 089f 07010000 		.4byte	.LLST1
 1392 08a3 1F       		.uleb128 0x1f
 1393 08a4 7000     		.ascii	"p\000"
 1394 08a6 01       		.byte	0x1
 1395 08a7 6D       		.byte	0x6d
 1396 08a8 43070000 		.4byte	0x743
 1397 08ac 5A010000 		.4byte	.LLST2
 1398 08b0 29       		.uleb128 0x29
 1399 08b1 78060000 		.4byte	.LASF120
 1400 08b5 EC080000 		.4byte	0x8ec
 1401 08b9 05       		.uleb128 0x5
 1402 08ba 03       		.byte	0x3
 1403 08bb 00000000 		.4byte	__func__.5728
 1404 08bf 23       		.uleb128 0x23
 1405 08c0 0A000000 		.4byte	.LVL1
 1406 08c4 A5090000 		.4byte	0x9a5
 1407 08c8 27       		.uleb128 0x27
 1408 08c9 3C000000 		.4byte	.LVL10
 1409 08cd 99090000 		.4byte	0x999
 1410 08d1 28       		.uleb128 0x28
 1411 08d2 01       		.uleb128 0x1
 1412 08d3 50       		.byte	0x50
 1413 08d4 05       		.uleb128 0x5
 1414 08d5 03       		.byte	0x3
 1415 08d6 00000000 		.4byte	.LANCHOR2
 1416 08da 00       		.byte	0
 1417 08db 00       		.byte	0
 1418 08dc 15       		.uleb128 0x15
 1419 08dd E2050000 		.4byte	0x5e2
ARM GAS  /var/folders/t8/16hdwfmd2fg_d3q6dgx6bpmw0000gn/T//ccXOSd6z.s 			page 26


 1420 08e1 EC080000 		.4byte	0x8ec
 1421 08e5 19       		.uleb128 0x19
 1422 08e6 37000000 		.4byte	0x37
 1423 08ea 13       		.byte	0x13
 1424 08eb 00       		.byte	0
 1425 08ec 13       		.uleb128 0x13
 1426 08ed DC080000 		.4byte	0x8dc
 1427 08f1 2A       		.uleb128 0x2a
 1428 08f2 ED020000 		.4byte	.LASF134
 1429 08f6 01       		.byte	0x1
 1430 08f7 4F       		.byte	0x4f
 1431 08f8 00000000 		.4byte	.LFB138
 1432 08fc 20000000 		.4byte	.LFE138-.LFB138
 1433 0900 01       		.uleb128 0x1
 1434 0901 9C       		.byte	0x9c
 1435 0902 1D090000 		.4byte	0x91d
 1436 0906 1A       		.uleb128 0x1a
 1437 0907 0C030000 		.4byte	.LASF118
 1438 090b 01       		.byte	0x1
 1439 090c 51       		.byte	0x51
 1440 090d 1D090000 		.4byte	0x91d
 1441 0911 1A       		.uleb128 0x1a
 1442 0912 B3060000 		.4byte	.LASF119
 1443 0916 01       		.byte	0x1
 1444 0917 52       		.byte	0x52
 1445 0918 1D090000 		.4byte	0x91d
 1446 091c 00       		.byte	0
 1447 091d 15       		.uleb128 0x15
 1448 091e AD000000 		.4byte	0xad
 1449 0922 28090000 		.4byte	0x928
 1450 0926 16       		.uleb128 0x16
 1451 0927 00       		.byte	0
 1452 0928 2B       		.uleb128 0x2b
 1453 0929 81050000 		.4byte	.LASF135
 1454 092d 03       		.byte	0x3
 1455 092e 8201     		.2byte	0x182
 1456 0930 03       		.byte	0x3
 1457 0931 43090000 		.4byte	0x943
 1458 0935 2C       		.uleb128 0x2c
 1459 0936 78060000 		.4byte	.LASF120
 1460 093a 53090000 		.4byte	0x953
 1461 093e 81050000 		.4byte	.LASF135
 1462 0942 00       		.byte	0
 1463 0943 15       		.uleb128 0x15
 1464 0944 E2050000 		.4byte	0x5e2
 1465 0948 53090000 		.4byte	0x953
 1466 094c 19       		.uleb128 0x19
 1467 094d 37000000 		.4byte	0x37
 1468 0951 0B       		.byte	0xb
 1469 0952 00       		.byte	0
 1470 0953 13       		.uleb128 0x13
 1471 0954 43090000 		.4byte	0x943
 1472 0958 2D       		.uleb128 0x2d
 1473 0959 52030000 		.4byte	.LASF121
 1474 095d 03       		.byte	0x3
 1475 095e 7601     		.2byte	0x176
 1476 0960 03       		.byte	0x3
ARM GAS  /var/folders/t8/16hdwfmd2fg_d3q6dgx6bpmw0000gn/T//ccXOSd6z.s 			page 27


 1477 0961 2D       		.uleb128 0x2d
 1478 0962 8A060000 		.4byte	.LASF122
 1479 0966 0B       		.byte	0xb
 1480 0967 7C01     		.2byte	0x17c
 1481 0969 03       		.byte	0x3
 1482 096a 2D       		.uleb128 0x2d
 1483 096b A2010000 		.4byte	.LASF123
 1484 096f 0B       		.byte	0xb
 1485 0970 7301     		.2byte	0x173
 1486 0972 03       		.byte	0x3
 1487 0973 2E       		.uleb128 0x2e
 1488 0974 28030000 		.4byte	.LASF124
 1489 0978 02       		.byte	0x2
 1490 0979 45       		.byte	0x45
 1491 097a 03       		.byte	0x3
 1492 097b 2E       		.uleb128 0x2e
 1493 097c 35050000 		.4byte	.LASF125
 1494 0980 02       		.byte	0x2
 1495 0981 3A       		.byte	0x3a
 1496 0982 03       		.byte	0x3
 1497 0983 2F       		.uleb128 0x2f
 1498 0984 1C040000 		.4byte	.LASF126
 1499 0988 1C040000 		.4byte	.LASF126
 1500 098c 0F       		.byte	0xf
 1501 098d 96       		.byte	0x96
 1502 098e 2F       		.uleb128 0x2f
 1503 098f 09010000 		.4byte	.LASF127
 1504 0993 09010000 		.4byte	.LASF127
 1505 0997 0F       		.byte	0xf
 1506 0998 97       		.byte	0x97
 1507 0999 30       		.uleb128 0x30
 1508 099a 14060000 		.4byte	.LASF128
 1509 099e 14060000 		.4byte	.LASF128
 1510 09a2 03       		.byte	0x3
 1511 09a3 3201     		.2byte	0x132
 1512 09a5 2F       		.uleb128 0x2f
 1513 09a6 62040000 		.4byte	.LASF129
 1514 09aa 62040000 		.4byte	.LASF129
 1515 09ae 0F       		.byte	0xf
 1516 09af 9C       		.byte	0x9c
 1517 09b0 00       		.byte	0
 1518              		.section	.debug_abbrev,"",%progbits
 1519              	.Ldebug_abbrev0:
 1520 0000 01       		.uleb128 0x1
 1521 0001 11       		.uleb128 0x11
 1522 0002 01       		.byte	0x1
 1523 0003 25       		.uleb128 0x25
 1524 0004 0E       		.uleb128 0xe
 1525 0005 13       		.uleb128 0x13
 1526 0006 0B       		.uleb128 0xb
 1527 0007 03       		.uleb128 0x3
 1528 0008 0E       		.uleb128 0xe
 1529 0009 1B       		.uleb128 0x1b
 1530 000a 0E       		.uleb128 0xe
 1531 000b 55       		.uleb128 0x55
 1532 000c 17       		.uleb128 0x17
 1533 000d 11       		.uleb128 0x11
ARM GAS  /var/folders/t8/16hdwfmd2fg_d3q6dgx6bpmw0000gn/T//ccXOSd6z.s 			page 28


 1534 000e 01       		.uleb128 0x1
 1535 000f 10       		.uleb128 0x10
 1536 0010 17       		.uleb128 0x17
 1537 0011 00       		.byte	0
 1538 0012 00       		.byte	0
 1539 0013 02       		.uleb128 0x2
 1540 0014 24       		.uleb128 0x24
 1541 0015 00       		.byte	0
 1542 0016 0B       		.uleb128 0xb
 1543 0017 0B       		.uleb128 0xb
 1544 0018 3E       		.uleb128 0x3e
 1545 0019 0B       		.uleb128 0xb
 1546 001a 03       		.uleb128 0x3
 1547 001b 08       		.uleb128 0x8
 1548 001c 00       		.byte	0
 1549 001d 00       		.byte	0
 1550 001e 03       		.uleb128 0x3
 1551 001f 16       		.uleb128 0x16
 1552 0020 00       		.byte	0
 1553 0021 03       		.uleb128 0x3
 1554 0022 0E       		.uleb128 0xe
 1555 0023 3A       		.uleb128 0x3a
 1556 0024 0B       		.uleb128 0xb
 1557 0025 3B       		.uleb128 0x3b
 1558 0026 0B       		.uleb128 0xb
 1559 0027 49       		.uleb128 0x49
 1560 0028 13       		.uleb128 0x13
 1561 0029 00       		.byte	0
 1562 002a 00       		.byte	0
 1563 002b 04       		.uleb128 0x4
 1564 002c 24       		.uleb128 0x24
 1565 002d 00       		.byte	0
 1566 002e 0B       		.uleb128 0xb
 1567 002f 0B       		.uleb128 0xb
 1568 0030 3E       		.uleb128 0x3e
 1569 0031 0B       		.uleb128 0xb
 1570 0032 03       		.uleb128 0x3
 1571 0033 0E       		.uleb128 0xe
 1572 0034 00       		.byte	0
 1573 0035 00       		.byte	0
 1574 0036 05       		.uleb128 0x5
 1575 0037 35       		.uleb128 0x35
 1576 0038 00       		.byte	0
 1577 0039 49       		.uleb128 0x49
 1578 003a 13       		.uleb128 0x13
 1579 003b 00       		.byte	0
 1580 003c 00       		.byte	0
 1581 003d 06       		.uleb128 0x6
 1582 003e 13       		.uleb128 0x13
 1583 003f 01       		.byte	0x1
 1584 0040 03       		.uleb128 0x3
 1585 0041 0E       		.uleb128 0xe
 1586 0042 0B       		.uleb128 0xb
 1587 0043 0B       		.uleb128 0xb
 1588 0044 3A       		.uleb128 0x3a
 1589 0045 0B       		.uleb128 0xb
 1590 0046 3B       		.uleb128 0x3b
ARM GAS  /var/folders/t8/16hdwfmd2fg_d3q6dgx6bpmw0000gn/T//ccXOSd6z.s 			page 29


 1591 0047 0B       		.uleb128 0xb
 1592 0048 01       		.uleb128 0x1
 1593 0049 13       		.uleb128 0x13
 1594 004a 00       		.byte	0
 1595 004b 00       		.byte	0
 1596 004c 07       		.uleb128 0x7
 1597 004d 0D       		.uleb128 0xd
 1598 004e 00       		.byte	0
 1599 004f 03       		.uleb128 0x3
 1600 0050 0E       		.uleb128 0xe
 1601 0051 3A       		.uleb128 0x3a
 1602 0052 0B       		.uleb128 0xb
 1603 0053 3B       		.uleb128 0x3b
 1604 0054 0B       		.uleb128 0xb
 1605 0055 49       		.uleb128 0x49
 1606 0056 13       		.uleb128 0x13
 1607 0057 38       		.uleb128 0x38
 1608 0058 0B       		.uleb128 0xb
 1609 0059 00       		.byte	0
 1610 005a 00       		.byte	0
 1611 005b 08       		.uleb128 0x8
 1612 005c 0D       		.uleb128 0xd
 1613 005d 00       		.byte	0
 1614 005e 03       		.uleb128 0x3
 1615 005f 08       		.uleb128 0x8
 1616 0060 3A       		.uleb128 0x3a
 1617 0061 0B       		.uleb128 0xb
 1618 0062 3B       		.uleb128 0x3b
 1619 0063 0B       		.uleb128 0xb
 1620 0064 49       		.uleb128 0x49
 1621 0065 13       		.uleb128 0x13
 1622 0066 38       		.uleb128 0x38
 1623 0067 0B       		.uleb128 0xb
 1624 0068 00       		.byte	0
 1625 0069 00       		.byte	0
 1626 006a 09       		.uleb128 0x9
 1627 006b 0D       		.uleb128 0xd
 1628 006c 00       		.byte	0
 1629 006d 03       		.uleb128 0x3
 1630 006e 08       		.uleb128 0x8
 1631 006f 3A       		.uleb128 0x3a
 1632 0070 0B       		.uleb128 0xb
 1633 0071 3B       		.uleb128 0x3b
 1634 0072 05       		.uleb128 0x5
 1635 0073 49       		.uleb128 0x49
 1636 0074 13       		.uleb128 0x13
 1637 0075 38       		.uleb128 0x38
 1638 0076 0B       		.uleb128 0xb
 1639 0077 00       		.byte	0
 1640 0078 00       		.byte	0
 1641 0079 0A       		.uleb128 0xa
 1642 007a 0D       		.uleb128 0xd
 1643 007b 00       		.byte	0
 1644 007c 03       		.uleb128 0x3
 1645 007d 0E       		.uleb128 0xe
 1646 007e 3A       		.uleb128 0x3a
 1647 007f 0B       		.uleb128 0xb
ARM GAS  /var/folders/t8/16hdwfmd2fg_d3q6dgx6bpmw0000gn/T//ccXOSd6z.s 			page 30


 1648 0080 3B       		.uleb128 0x3b
 1649 0081 05       		.uleb128 0x5
 1650 0082 49       		.uleb128 0x49
 1651 0083 13       		.uleb128 0x13
 1652 0084 38       		.uleb128 0x38
 1653 0085 0B       		.uleb128 0xb
 1654 0086 00       		.byte	0
 1655 0087 00       		.byte	0
 1656 0088 0B       		.uleb128 0xb
 1657 0089 0F       		.uleb128 0xf
 1658 008a 00       		.byte	0
 1659 008b 0B       		.uleb128 0xb
 1660 008c 0B       		.uleb128 0xb
 1661 008d 49       		.uleb128 0x49
 1662 008e 13       		.uleb128 0x13
 1663 008f 00       		.byte	0
 1664 0090 00       		.byte	0
 1665 0091 0C       		.uleb128 0xc
 1666 0092 13       		.uleb128 0x13
 1667 0093 01       		.byte	0x1
 1668 0094 03       		.uleb128 0x3
 1669 0095 0E       		.uleb128 0xe
 1670 0096 0B       		.uleb128 0xb
 1671 0097 0B       		.uleb128 0xb
 1672 0098 3A       		.uleb128 0x3a
 1673 0099 0B       		.uleb128 0xb
 1674 009a 3B       		.uleb128 0x3b
 1675 009b 05       		.uleb128 0x5
 1676 009c 01       		.uleb128 0x1
 1677 009d 13       		.uleb128 0x13
 1678 009e 00       		.byte	0
 1679 009f 00       		.byte	0
 1680 00a0 0D       		.uleb128 0xd
 1681 00a1 15       		.uleb128 0x15
 1682 00a2 01       		.byte	0x1
 1683 00a3 27       		.uleb128 0x27
 1684 00a4 19       		.uleb128 0x19
 1685 00a5 01       		.uleb128 0x1
 1686 00a6 13       		.uleb128 0x13
 1687 00a7 00       		.byte	0
 1688 00a8 00       		.byte	0
 1689 00a9 0E       		.uleb128 0xe
 1690 00aa 05       		.uleb128 0x5
 1691 00ab 00       		.byte	0
 1692 00ac 49       		.uleb128 0x49
 1693 00ad 13       		.uleb128 0x13
 1694 00ae 00       		.byte	0
 1695 00af 00       		.byte	0
 1696 00b0 0F       		.uleb128 0xf
 1697 00b1 0F       		.uleb128 0xf
 1698 00b2 00       		.byte	0
 1699 00b3 0B       		.uleb128 0xb
 1700 00b4 0B       		.uleb128 0xb
 1701 00b5 00       		.byte	0
 1702 00b6 00       		.byte	0
 1703 00b7 10       		.uleb128 0x10
 1704 00b8 17       		.uleb128 0x17
ARM GAS  /var/folders/t8/16hdwfmd2fg_d3q6dgx6bpmw0000gn/T//ccXOSd6z.s 			page 31


 1705 00b9 01       		.byte	0x1
 1706 00ba 0B       		.uleb128 0xb
 1707 00bb 0B       		.uleb128 0xb
 1708 00bc 3A       		.uleb128 0x3a
 1709 00bd 0B       		.uleb128 0xb
 1710 00be 3B       		.uleb128 0x3b
 1711 00bf 0B       		.uleb128 0xb
 1712 00c0 01       		.uleb128 0x1
 1713 00c1 13       		.uleb128 0x13
 1714 00c2 00       		.byte	0
 1715 00c3 00       		.byte	0
 1716 00c4 11       		.uleb128 0x11
 1717 00c5 0D       		.uleb128 0xd
 1718 00c6 00       		.byte	0
 1719 00c7 03       		.uleb128 0x3
 1720 00c8 0E       		.uleb128 0xe
 1721 00c9 3A       		.uleb128 0x3a
 1722 00ca 0B       		.uleb128 0xb
 1723 00cb 3B       		.uleb128 0x3b
 1724 00cc 0B       		.uleb128 0xb
 1725 00cd 49       		.uleb128 0x49
 1726 00ce 13       		.uleb128 0x13
 1727 00cf 00       		.byte	0
 1728 00d0 00       		.byte	0
 1729 00d1 12       		.uleb128 0x12
 1730 00d2 0D       		.uleb128 0xd
 1731 00d3 00       		.byte	0
 1732 00d4 03       		.uleb128 0x3
 1733 00d5 0E       		.uleb128 0xe
 1734 00d6 3A       		.uleb128 0x3a
 1735 00d7 0B       		.uleb128 0xb
 1736 00d8 3B       		.uleb128 0x3b
 1737 00d9 05       		.uleb128 0x5
 1738 00da 49       		.uleb128 0x49
 1739 00db 13       		.uleb128 0x13
 1740 00dc 00       		.byte	0
 1741 00dd 00       		.byte	0
 1742 00de 13       		.uleb128 0x13
 1743 00df 26       		.uleb128 0x26
 1744 00e0 00       		.byte	0
 1745 00e1 49       		.uleb128 0x49
 1746 00e2 13       		.uleb128 0x13
 1747 00e3 00       		.byte	0
 1748 00e4 00       		.byte	0
 1749 00e5 14       		.uleb128 0x14
 1750 00e6 34       		.uleb128 0x34
 1751 00e7 00       		.byte	0
 1752 00e8 03       		.uleb128 0x3
 1753 00e9 08       		.uleb128 0x8
 1754 00ea 3A       		.uleb128 0x3a
 1755 00eb 0B       		.uleb128 0xb
 1756 00ec 3B       		.uleb128 0x3b
 1757 00ed 05       		.uleb128 0x5
 1758 00ee 49       		.uleb128 0x49
 1759 00ef 13       		.uleb128 0x13
 1760 00f0 3F       		.uleb128 0x3f
 1761 00f1 19       		.uleb128 0x19
ARM GAS  /var/folders/t8/16hdwfmd2fg_d3q6dgx6bpmw0000gn/T//ccXOSd6z.s 			page 32


 1762 00f2 3C       		.uleb128 0x3c
 1763 00f3 19       		.uleb128 0x19
 1764 00f4 00       		.byte	0
 1765 00f5 00       		.byte	0
 1766 00f6 15       		.uleb128 0x15
 1767 00f7 01       		.uleb128 0x1
 1768 00f8 01       		.byte	0x1
 1769 00f9 49       		.uleb128 0x49
 1770 00fa 13       		.uleb128 0x13
 1771 00fb 01       		.uleb128 0x1
 1772 00fc 13       		.uleb128 0x13
 1773 00fd 00       		.byte	0
 1774 00fe 00       		.byte	0
 1775 00ff 16       		.uleb128 0x16
 1776 0100 21       		.uleb128 0x21
 1777 0101 00       		.byte	0
 1778 0102 00       		.byte	0
 1779 0103 00       		.byte	0
 1780 0104 17       		.uleb128 0x17
 1781 0105 34       		.uleb128 0x34
 1782 0106 00       		.byte	0
 1783 0107 03       		.uleb128 0x3
 1784 0108 0E       		.uleb128 0xe
 1785 0109 3A       		.uleb128 0x3a
 1786 010a 0B       		.uleb128 0xb
 1787 010b 3B       		.uleb128 0x3b
 1788 010c 05       		.uleb128 0x5
 1789 010d 49       		.uleb128 0x49
 1790 010e 13       		.uleb128 0x13
 1791 010f 3F       		.uleb128 0x3f
 1792 0110 19       		.uleb128 0x19
 1793 0111 3C       		.uleb128 0x3c
 1794 0112 19       		.uleb128 0x19
 1795 0113 00       		.byte	0
 1796 0114 00       		.byte	0
 1797 0115 18       		.uleb128 0x18
 1798 0116 13       		.uleb128 0x13
 1799 0117 01       		.byte	0x1
 1800 0118 0B       		.uleb128 0xb
 1801 0119 0B       		.uleb128 0xb
 1802 011a 3A       		.uleb128 0x3a
 1803 011b 0B       		.uleb128 0xb
 1804 011c 3B       		.uleb128 0x3b
 1805 011d 0B       		.uleb128 0xb
 1806 011e 01       		.uleb128 0x1
 1807 011f 13       		.uleb128 0x13
 1808 0120 00       		.byte	0
 1809 0121 00       		.byte	0
 1810 0122 19       		.uleb128 0x19
 1811 0123 21       		.uleb128 0x21
 1812 0124 00       		.byte	0
 1813 0125 49       		.uleb128 0x49
 1814 0126 13       		.uleb128 0x13
 1815 0127 2F       		.uleb128 0x2f
 1816 0128 0B       		.uleb128 0xb
 1817 0129 00       		.byte	0
 1818 012a 00       		.byte	0
ARM GAS  /var/folders/t8/16hdwfmd2fg_d3q6dgx6bpmw0000gn/T//ccXOSd6z.s 			page 33


 1819 012b 1A       		.uleb128 0x1a
 1820 012c 34       		.uleb128 0x34
 1821 012d 00       		.byte	0
 1822 012e 03       		.uleb128 0x3
 1823 012f 0E       		.uleb128 0xe
 1824 0130 3A       		.uleb128 0x3a
 1825 0131 0B       		.uleb128 0xb
 1826 0132 3B       		.uleb128 0x3b
 1827 0133 0B       		.uleb128 0xb
 1828 0134 49       		.uleb128 0x49
 1829 0135 13       		.uleb128 0x13
 1830 0136 3F       		.uleb128 0x3f
 1831 0137 19       		.uleb128 0x19
 1832 0138 3C       		.uleb128 0x3c
 1833 0139 19       		.uleb128 0x19
 1834 013a 00       		.byte	0
 1835 013b 00       		.byte	0
 1836 013c 1B       		.uleb128 0x1b
 1837 013d 34       		.uleb128 0x34
 1838 013e 00       		.byte	0
 1839 013f 03       		.uleb128 0x3
 1840 0140 0E       		.uleb128 0xe
 1841 0141 3A       		.uleb128 0x3a
 1842 0142 0B       		.uleb128 0xb
 1843 0143 3B       		.uleb128 0x3b
 1844 0144 0B       		.uleb128 0xb
 1845 0145 49       		.uleb128 0x49
 1846 0146 13       		.uleb128 0x13
 1847 0147 02       		.uleb128 0x2
 1848 0148 18       		.uleb128 0x18
 1849 0149 00       		.byte	0
 1850 014a 00       		.byte	0
 1851 014b 1C       		.uleb128 0x1c
 1852 014c 2E       		.uleb128 0x2e
 1853 014d 00       		.byte	0
 1854 014e 3F       		.uleb128 0x3f
 1855 014f 19       		.uleb128 0x19
 1856 0150 03       		.uleb128 0x3
 1857 0151 0E       		.uleb128 0xe
 1858 0152 3A       		.uleb128 0x3a
 1859 0153 0B       		.uleb128 0xb
 1860 0154 3B       		.uleb128 0x3b
 1861 0155 0B       		.uleb128 0xb
 1862 0156 27       		.uleb128 0x27
 1863 0157 19       		.uleb128 0x19
 1864 0158 49       		.uleb128 0x49
 1865 0159 13       		.uleb128 0x13
 1866 015a 11       		.uleb128 0x11
 1867 015b 01       		.uleb128 0x1
 1868 015c 12       		.uleb128 0x12
 1869 015d 06       		.uleb128 0x6
 1870 015e 40       		.uleb128 0x40
 1871 015f 18       		.uleb128 0x18
 1872 0160 9742     		.uleb128 0x2117
 1873 0162 19       		.uleb128 0x19
 1874 0163 00       		.byte	0
 1875 0164 00       		.byte	0
ARM GAS  /var/folders/t8/16hdwfmd2fg_d3q6dgx6bpmw0000gn/T//ccXOSd6z.s 			page 34


 1876 0165 1D       		.uleb128 0x1d
 1877 0166 2E       		.uleb128 0x2e
 1878 0167 01       		.byte	0x1
 1879 0168 3F       		.uleb128 0x3f
 1880 0169 19       		.uleb128 0x19
 1881 016a 03       		.uleb128 0x3
 1882 016b 0E       		.uleb128 0xe
 1883 016c 3A       		.uleb128 0x3a
 1884 016d 0B       		.uleb128 0xb
 1885 016e 3B       		.uleb128 0x3b
 1886 016f 0B       		.uleb128 0xb
 1887 0170 27       		.uleb128 0x27
 1888 0171 19       		.uleb128 0x19
 1889 0172 49       		.uleb128 0x49
 1890 0173 13       		.uleb128 0x13
 1891 0174 11       		.uleb128 0x11
 1892 0175 01       		.uleb128 0x1
 1893 0176 12       		.uleb128 0x12
 1894 0177 06       		.uleb128 0x6
 1895 0178 40       		.uleb128 0x40
 1896 0179 18       		.uleb128 0x18
 1897 017a 9742     		.uleb128 0x2117
 1898 017c 19       		.uleb128 0x19
 1899 017d 01       		.uleb128 0x1
 1900 017e 13       		.uleb128 0x13
 1901 017f 00       		.byte	0
 1902 0180 00       		.byte	0
 1903 0181 1E       		.uleb128 0x1e
 1904 0182 05       		.uleb128 0x5
 1905 0183 00       		.byte	0
 1906 0184 03       		.uleb128 0x3
 1907 0185 0E       		.uleb128 0xe
 1908 0186 3A       		.uleb128 0x3a
 1909 0187 0B       		.uleb128 0xb
 1910 0188 3B       		.uleb128 0x3b
 1911 0189 0B       		.uleb128 0xb
 1912 018a 49       		.uleb128 0x49
 1913 018b 13       		.uleb128 0x13
 1914 018c 02       		.uleb128 0x2
 1915 018d 17       		.uleb128 0x17
 1916 018e 00       		.byte	0
 1917 018f 00       		.byte	0
 1918 0190 1F       		.uleb128 0x1f
 1919 0191 34       		.uleb128 0x34
 1920 0192 00       		.byte	0
 1921 0193 03       		.uleb128 0x3
 1922 0194 08       		.uleb128 0x8
 1923 0195 3A       		.uleb128 0x3a
 1924 0196 0B       		.uleb128 0xb
 1925 0197 3B       		.uleb128 0x3b
 1926 0198 0B       		.uleb128 0xb
 1927 0199 49       		.uleb128 0x49
 1928 019a 13       		.uleb128 0x13
 1929 019b 02       		.uleb128 0x2
 1930 019c 17       		.uleb128 0x17
 1931 019d 00       		.byte	0
 1932 019e 00       		.byte	0
ARM GAS  /var/folders/t8/16hdwfmd2fg_d3q6dgx6bpmw0000gn/T//ccXOSd6z.s 			page 35


 1933 019f 20       		.uleb128 0x20
 1934 01a0 1D       		.uleb128 0x1d
 1935 01a1 01       		.byte	0x1
 1936 01a2 31       		.uleb128 0x31
 1937 01a3 13       		.uleb128 0x13
 1938 01a4 11       		.uleb128 0x11
 1939 01a5 01       		.uleb128 0x1
 1940 01a6 12       		.uleb128 0x12
 1941 01a7 06       		.uleb128 0x6
 1942 01a8 58       		.uleb128 0x58
 1943 01a9 0B       		.uleb128 0xb
 1944 01aa 59       		.uleb128 0x59
 1945 01ab 0B       		.uleb128 0xb
 1946 01ac 01       		.uleb128 0x1
 1947 01ad 13       		.uleb128 0x13
 1948 01ae 00       		.byte	0
 1949 01af 00       		.byte	0
 1950 01b0 21       		.uleb128 0x21
 1951 01b1 1D       		.uleb128 0x1d
 1952 01b2 01       		.byte	0x1
 1953 01b3 31       		.uleb128 0x31
 1954 01b4 13       		.uleb128 0x13
 1955 01b5 11       		.uleb128 0x11
 1956 01b6 01       		.uleb128 0x1
 1957 01b7 12       		.uleb128 0x12
 1958 01b8 06       		.uleb128 0x6
 1959 01b9 58       		.uleb128 0x58
 1960 01ba 0B       		.uleb128 0xb
 1961 01bb 59       		.uleb128 0x59
 1962 01bc 05       		.uleb128 0x5
 1963 01bd 01       		.uleb128 0x1
 1964 01be 13       		.uleb128 0x13
 1965 01bf 00       		.byte	0
 1966 01c0 00       		.byte	0
 1967 01c1 22       		.uleb128 0x22
 1968 01c2 1D       		.uleb128 0x1d
 1969 01c3 00       		.byte	0
 1970 01c4 31       		.uleb128 0x31
 1971 01c5 13       		.uleb128 0x13
 1972 01c6 11       		.uleb128 0x11
 1973 01c7 01       		.uleb128 0x1
 1974 01c8 12       		.uleb128 0x12
 1975 01c9 06       		.uleb128 0x6
 1976 01ca 58       		.uleb128 0x58
 1977 01cb 0B       		.uleb128 0xb
 1978 01cc 59       		.uleb128 0x59
 1979 01cd 05       		.uleb128 0x5
 1980 01ce 00       		.byte	0
 1981 01cf 00       		.byte	0
 1982 01d0 23       		.uleb128 0x23
 1983 01d1 898201   		.uleb128 0x4109
 1984 01d4 00       		.byte	0
 1985 01d5 11       		.uleb128 0x11
 1986 01d6 01       		.uleb128 0x1
 1987 01d7 31       		.uleb128 0x31
 1988 01d8 13       		.uleb128 0x13
 1989 01d9 00       		.byte	0
ARM GAS  /var/folders/t8/16hdwfmd2fg_d3q6dgx6bpmw0000gn/T//ccXOSd6z.s 			page 36


 1990 01da 00       		.byte	0
 1991 01db 24       		.uleb128 0x24
 1992 01dc 1D       		.uleb128 0x1d
 1993 01dd 01       		.byte	0x1
 1994 01de 31       		.uleb128 0x31
 1995 01df 13       		.uleb128 0x13
 1996 01e0 52       		.uleb128 0x52
 1997 01e1 01       		.uleb128 0x1
 1998 01e2 55       		.uleb128 0x55
 1999 01e3 17       		.uleb128 0x17
 2000 01e4 58       		.uleb128 0x58
 2001 01e5 0B       		.uleb128 0xb
 2002 01e6 59       		.uleb128 0x59
 2003 01e7 0B       		.uleb128 0xb
 2004 01e8 01       		.uleb128 0x1
 2005 01e9 13       		.uleb128 0x13
 2006 01ea 00       		.byte	0
 2007 01eb 00       		.byte	0
 2008 01ec 25       		.uleb128 0x25
 2009 01ed 0B       		.uleb128 0xb
 2010 01ee 01       		.byte	0x1
 2011 01ef 55       		.uleb128 0x55
 2012 01f0 17       		.uleb128 0x17
 2013 01f1 00       		.byte	0
 2014 01f2 00       		.byte	0
 2015 01f3 26       		.uleb128 0x26
 2016 01f4 34       		.uleb128 0x34
 2017 01f5 00       		.byte	0
 2018 01f6 31       		.uleb128 0x31
 2019 01f7 13       		.uleb128 0x13
 2020 01f8 00       		.byte	0
 2021 01f9 00       		.byte	0
 2022 01fa 27       		.uleb128 0x27
 2023 01fb 898201   		.uleb128 0x4109
 2024 01fe 01       		.byte	0x1
 2025 01ff 11       		.uleb128 0x11
 2026 0200 01       		.uleb128 0x1
 2027 0201 31       		.uleb128 0x31
 2028 0202 13       		.uleb128 0x13
 2029 0203 00       		.byte	0
 2030 0204 00       		.byte	0
 2031 0205 28       		.uleb128 0x28
 2032 0206 8A8201   		.uleb128 0x410a
 2033 0209 00       		.byte	0
 2034 020a 02       		.uleb128 0x2
 2035 020b 18       		.uleb128 0x18
 2036 020c 9142     		.uleb128 0x2111
 2037 020e 18       		.uleb128 0x18
 2038 020f 00       		.byte	0
 2039 0210 00       		.byte	0
 2040 0211 29       		.uleb128 0x29
 2041 0212 34       		.uleb128 0x34
 2042 0213 00       		.byte	0
 2043 0214 03       		.uleb128 0x3
 2044 0215 0E       		.uleb128 0xe
 2045 0216 49       		.uleb128 0x49
 2046 0217 13       		.uleb128 0x13
ARM GAS  /var/folders/t8/16hdwfmd2fg_d3q6dgx6bpmw0000gn/T//ccXOSd6z.s 			page 37


 2047 0218 34       		.uleb128 0x34
 2048 0219 19       		.uleb128 0x19
 2049 021a 02       		.uleb128 0x2
 2050 021b 18       		.uleb128 0x18
 2051 021c 00       		.byte	0
 2052 021d 00       		.byte	0
 2053 021e 2A       		.uleb128 0x2a
 2054 021f 2E       		.uleb128 0x2e
 2055 0220 01       		.byte	0x1
 2056 0221 3F       		.uleb128 0x3f
 2057 0222 19       		.uleb128 0x19
 2058 0223 03       		.uleb128 0x3
 2059 0224 0E       		.uleb128 0xe
 2060 0225 3A       		.uleb128 0x3a
 2061 0226 0B       		.uleb128 0xb
 2062 0227 3B       		.uleb128 0x3b
 2063 0228 0B       		.uleb128 0xb
 2064 0229 27       		.uleb128 0x27
 2065 022a 19       		.uleb128 0x19
 2066 022b 11       		.uleb128 0x11
 2067 022c 01       		.uleb128 0x1
 2068 022d 12       		.uleb128 0x12
 2069 022e 06       		.uleb128 0x6
 2070 022f 40       		.uleb128 0x40
 2071 0230 18       		.uleb128 0x18
 2072 0231 9742     		.uleb128 0x2117
 2073 0233 19       		.uleb128 0x19
 2074 0234 01       		.uleb128 0x1
 2075 0235 13       		.uleb128 0x13
 2076 0236 00       		.byte	0
 2077 0237 00       		.byte	0
 2078 0238 2B       		.uleb128 0x2b
 2079 0239 2E       		.uleb128 0x2e
 2080 023a 01       		.byte	0x1
 2081 023b 03       		.uleb128 0x3
 2082 023c 0E       		.uleb128 0xe
 2083 023d 3A       		.uleb128 0x3a
 2084 023e 0B       		.uleb128 0xb
 2085 023f 3B       		.uleb128 0x3b
 2086 0240 05       		.uleb128 0x5
 2087 0241 27       		.uleb128 0x27
 2088 0242 19       		.uleb128 0x19
 2089 0243 20       		.uleb128 0x20
 2090 0244 0B       		.uleb128 0xb
 2091 0245 01       		.uleb128 0x1
 2092 0246 13       		.uleb128 0x13
 2093 0247 00       		.byte	0
 2094 0248 00       		.byte	0
 2095 0249 2C       		.uleb128 0x2c
 2096 024a 34       		.uleb128 0x34
 2097 024b 00       		.byte	0
 2098 024c 03       		.uleb128 0x3
 2099 024d 0E       		.uleb128 0xe
 2100 024e 49       		.uleb128 0x49
 2101 024f 13       		.uleb128 0x13
 2102 0250 34       		.uleb128 0x34
 2103 0251 19       		.uleb128 0x19
ARM GAS  /var/folders/t8/16hdwfmd2fg_d3q6dgx6bpmw0000gn/T//ccXOSd6z.s 			page 38


 2104 0252 1C       		.uleb128 0x1c
 2105 0253 0E       		.uleb128 0xe
 2106 0254 00       		.byte	0
 2107 0255 00       		.byte	0
 2108 0256 2D       		.uleb128 0x2d
 2109 0257 2E       		.uleb128 0x2e
 2110 0258 00       		.byte	0
 2111 0259 03       		.uleb128 0x3
 2112 025a 0E       		.uleb128 0xe
 2113 025b 3A       		.uleb128 0x3a
 2114 025c 0B       		.uleb128 0xb
 2115 025d 3B       		.uleb128 0x3b
 2116 025e 05       		.uleb128 0x5
 2117 025f 27       		.uleb128 0x27
 2118 0260 19       		.uleb128 0x19
 2119 0261 20       		.uleb128 0x20
 2120 0262 0B       		.uleb128 0xb
 2121 0263 00       		.byte	0
 2122 0264 00       		.byte	0
 2123 0265 2E       		.uleb128 0x2e
 2124 0266 2E       		.uleb128 0x2e
 2125 0267 00       		.byte	0
 2126 0268 03       		.uleb128 0x3
 2127 0269 0E       		.uleb128 0xe
 2128 026a 3A       		.uleb128 0x3a
 2129 026b 0B       		.uleb128 0xb
 2130 026c 3B       		.uleb128 0x3b
 2131 026d 0B       		.uleb128 0xb
 2132 026e 27       		.uleb128 0x27
 2133 026f 19       		.uleb128 0x19
 2134 0270 20       		.uleb128 0x20
 2135 0271 0B       		.uleb128 0xb
 2136 0272 00       		.byte	0
 2137 0273 00       		.byte	0
 2138 0274 2F       		.uleb128 0x2f
 2139 0275 2E       		.uleb128 0x2e
 2140 0276 00       		.byte	0
 2141 0277 3F       		.uleb128 0x3f
 2142 0278 19       		.uleb128 0x19
 2143 0279 3C       		.uleb128 0x3c
 2144 027a 19       		.uleb128 0x19
 2145 027b 6E       		.uleb128 0x6e
 2146 027c 0E       		.uleb128 0xe
 2147 027d 03       		.uleb128 0x3
 2148 027e 0E       		.uleb128 0xe
 2149 027f 3A       		.uleb128 0x3a
 2150 0280 0B       		.uleb128 0xb
 2151 0281 3B       		.uleb128 0x3b
 2152 0282 0B       		.uleb128 0xb
 2153 0283 00       		.byte	0
 2154 0284 00       		.byte	0
 2155 0285 30       		.uleb128 0x30
 2156 0286 2E       		.uleb128 0x2e
 2157 0287 00       		.byte	0
 2158 0288 3F       		.uleb128 0x3f
 2159 0289 19       		.uleb128 0x19
 2160 028a 3C       		.uleb128 0x3c
ARM GAS  /var/folders/t8/16hdwfmd2fg_d3q6dgx6bpmw0000gn/T//ccXOSd6z.s 			page 39


 2161 028b 19       		.uleb128 0x19
 2162 028c 6E       		.uleb128 0x6e
 2163 028d 0E       		.uleb128 0xe
 2164 028e 03       		.uleb128 0x3
 2165 028f 0E       		.uleb128 0xe
 2166 0290 3A       		.uleb128 0x3a
 2167 0291 0B       		.uleb128 0xb
 2168 0292 3B       		.uleb128 0x3b
 2169 0293 05       		.uleb128 0x5
 2170 0294 00       		.byte	0
 2171 0295 00       		.byte	0
 2172 0296 00       		.byte	0
 2173              		.section	.debug_loc,"",%progbits
 2174              	.Ldebug_loc0:
 2175              	.LLST3:
 2176 0000 00000000 		.4byte	.LVL13
 2177 0004 0B000000 		.4byte	.LVL14-1
 2178 0008 0100     		.2byte	0x1
 2179 000a 50       		.byte	0x50
 2180 000b 0B000000 		.4byte	.LVL14-1
 2181 000f 16000000 		.4byte	.LVL16
 2182 0013 0100     		.2byte	0x1
 2183 0015 54       		.byte	0x54
 2184 0016 16000000 		.4byte	.LVL16
 2185 001a 44000000 		.4byte	.LFE140
 2186 001e 0400     		.2byte	0x4
 2187 0020 F3       		.byte	0xf3
 2188 0021 01       		.uleb128 0x1
 2189 0022 50       		.byte	0x50
 2190 0023 9F       		.byte	0x9f
 2191 0024 00000000 		.4byte	0
 2192 0028 00000000 		.4byte	0
 2193              	.LLST4:
 2194 002c 00000000 		.4byte	.LVL13
 2195 0030 0B000000 		.4byte	.LVL14-1
 2196 0034 0100     		.2byte	0x1
 2197 0036 51       		.byte	0x51
 2198 0037 0B000000 		.4byte	.LVL14-1
 2199 003b 30000000 		.4byte	.LVL19
 2200 003f 0100     		.2byte	0x1
 2201 0041 55       		.byte	0x55
 2202 0042 30000000 		.4byte	.LVL19
 2203 0046 32000000 		.4byte	.LVL20
 2204 004a 0400     		.2byte	0x4
 2205 004c F3       		.byte	0xf3
 2206 004d 01       		.uleb128 0x1
 2207 004e 51       		.byte	0x51
 2208 004f 9F       		.byte	0x9f
 2209 0050 32000000 		.4byte	.LVL20
 2210 0054 44000000 		.4byte	.LFE140
 2211 0058 0100     		.2byte	0x1
 2212 005a 55       		.byte	0x55
 2213 005b 00000000 		.4byte	0
 2214 005f 00000000 		.4byte	0
 2215              	.LLST5:
 2216 0063 16000000 		.4byte	.LVL16
 2217 0067 19000000 		.4byte	.LVL17-1
ARM GAS  /var/folders/t8/16hdwfmd2fg_d3q6dgx6bpmw0000gn/T//ccXOSd6z.s 			page 40


 2218 006b 0100     		.2byte	0x1
 2219 006d 50       		.byte	0x50
 2220 006e 19000000 		.4byte	.LVL17-1
 2221 0072 30000000 		.4byte	.LVL18
 2222 0076 0100     		.2byte	0x1
 2223 0078 54       		.byte	0x54
 2224 0079 30000000 		.4byte	.LVL18
 2225 007d 32000000 		.4byte	.LVL20
 2226 0081 0100     		.2byte	0x1
 2227 0083 50       		.byte	0x50
 2228 0084 32000000 		.4byte	.LVL20
 2229 0088 44000000 		.4byte	.LFE140
 2230 008c 0100     		.2byte	0x1
 2231 008e 54       		.byte	0x54
 2232 008f 00000000 		.4byte	0
 2233 0093 00000000 		.4byte	0
 2234              	.LLST0:
 2235 0097 00000000 		.4byte	.LVL0
 2236 009b 09000000 		.4byte	.LVL1-1
 2237 009f 0100     		.2byte	0x1
 2238 00a1 50       		.byte	0x50
 2239 00a2 09000000 		.4byte	.LVL1-1
 2240 00a6 26000000 		.4byte	.LVL3
 2241 00aa 0100     		.2byte	0x1
 2242 00ac 54       		.byte	0x54
 2243 00ad 26000000 		.4byte	.LVL3
 2244 00b1 32000000 		.4byte	.LVL5
 2245 00b5 0100     		.2byte	0x1
 2246 00b7 53       		.byte	0x53
 2247 00b8 32000000 		.4byte	.LVL5
 2248 00bc 34000000 		.4byte	.LVL7
 2249 00c0 0E00     		.2byte	0xe
 2250 00c2 74       		.byte	0x74
 2251 00c3 00       		.sleb128 0
 2252 00c4 F3       		.byte	0xf3
 2253 00c5 01       		.uleb128 0x1
 2254 00c6 51       		.byte	0x51
 2255 00c7 22       		.byte	0x22
 2256 00c8 31       		.byte	0x31
 2257 00c9 1C       		.byte	0x1c
 2258 00ca F3       		.byte	0xf3
 2259 00cb 01       		.uleb128 0x1
 2260 00cc 51       		.byte	0x51
 2261 00cd 1F       		.byte	0x1f
 2262 00ce 1A       		.byte	0x1a
 2263 00cf 9F       		.byte	0x9f
 2264 00d0 34000000 		.4byte	.LVL7
 2265 00d4 36000000 		.4byte	.LVL9
 2266 00d8 0F00     		.2byte	0xf
 2267 00da F3       		.byte	0xf3
 2268 00db 01       		.uleb128 0x1
 2269 00dc 50       		.byte	0x50
 2270 00dd F3       		.byte	0xf3
 2271 00de 01       		.uleb128 0x1
 2272 00df 51       		.byte	0x51
 2273 00e0 22       		.byte	0x22
 2274 00e1 31       		.byte	0x31
ARM GAS  /var/folders/t8/16hdwfmd2fg_d3q6dgx6bpmw0000gn/T//ccXOSd6z.s 			page 41


 2275 00e2 1C       		.byte	0x1c
 2276 00e3 F3       		.byte	0xf3
 2277 00e4 01       		.uleb128 0x1
 2278 00e5 51       		.byte	0x51
 2279 00e6 1F       		.byte	0x1f
 2280 00e7 1A       		.byte	0x1a
 2281 00e8 9F       		.byte	0x9f
 2282 00e9 36000000 		.4byte	.LVL9
 2283 00ed 3E000000 		.4byte	.LVL11
 2284 00f1 0100     		.2byte	0x1
 2285 00f3 54       		.byte	0x54
 2286 00f4 3E000000 		.4byte	.LVL11
 2287 00f8 50000000 		.4byte	.LFE139
 2288 00fc 0100     		.2byte	0x1
 2289 00fe 53       		.byte	0x53
 2290 00ff 00000000 		.4byte	0
 2291 0103 00000000 		.4byte	0
 2292              	.LLST1:
 2293 0107 00000000 		.4byte	.LVL0
 2294 010b 09000000 		.4byte	.LVL1-1
 2295 010f 0100     		.2byte	0x1
 2296 0111 51       		.byte	0x51
 2297 0112 09000000 		.4byte	.LVL1-1
 2298 0116 22000000 		.4byte	.LVL2
 2299 011a 0100     		.2byte	0x1
 2300 011c 55       		.byte	0x55
 2301 011d 22000000 		.4byte	.LVL2
 2302 0121 2A000000 		.4byte	.LVL4
 2303 0125 0400     		.2byte	0x4
 2304 0127 70       		.byte	0x70
 2305 0128 00       		.sleb128 0
 2306 0129 1F       		.byte	0x1f
 2307 012a 9F       		.byte	0x9f
 2308 012b 2A000000 		.4byte	.LVL4
 2309 012f 36000000 		.4byte	.LVL9
 2310 0133 0400     		.2byte	0x4
 2311 0135 F3       		.byte	0xf3
 2312 0136 01       		.uleb128 0x1
 2313 0137 51       		.byte	0x51
 2314 0138 9F       		.byte	0x9f
 2315 0139 36000000 		.4byte	.LVL9
 2316 013d 3E000000 		.4byte	.LVL11
 2317 0141 0100     		.2byte	0x1
 2318 0143 55       		.byte	0x55
 2319 0144 3E000000 		.4byte	.LVL11
 2320 0148 50000000 		.4byte	.LFE139
 2321 014c 0400     		.2byte	0x4
 2322 014e F3       		.byte	0xf3
 2323 014f 01       		.uleb128 0x1
 2324 0150 51       		.byte	0x51
 2325 0151 9F       		.byte	0x9f
 2326 0152 00000000 		.4byte	0
 2327 0156 00000000 		.4byte	0
 2328              	.LLST2:
 2329 015a 2A000000 		.4byte	.LVL4
 2330 015e 34000000 		.4byte	.LVL6
 2331 0162 0100     		.2byte	0x1
ARM GAS  /var/folders/t8/16hdwfmd2fg_d3q6dgx6bpmw0000gn/T//ccXOSd6z.s 			page 42


 2332 0164 50       		.byte	0x50
 2333 0165 34000000 		.4byte	.LVL6
 2334 0169 34000000 		.4byte	.LVL8
 2335 016d 0800     		.2byte	0x8
 2336 016f F3       		.byte	0xf3
 2337 0170 01       		.uleb128 0x1
 2338 0171 51       		.byte	0x51
 2339 0172 1F       		.byte	0x1f
 2340 0173 75       		.byte	0x75
 2341 0174 00       		.sleb128 0
 2342 0175 1A       		.byte	0x1a
 2343 0176 9F       		.byte	0x9f
 2344 0177 3E000000 		.4byte	.LVL11
 2345 017b 40000000 		.4byte	.LVL12
 2346 017f 0100     		.2byte	0x1
 2347 0181 50       		.byte	0x50
 2348 0182 40000000 		.4byte	.LVL12
 2349 0186 50000000 		.4byte	.LFE139
 2350 018a 0800     		.2byte	0x8
 2351 018c F3       		.byte	0xf3
 2352 018d 01       		.uleb128 0x1
 2353 018e 51       		.byte	0x51
 2354 018f 1F       		.byte	0x1f
 2355 0190 75       		.byte	0x75
 2356 0191 00       		.sleb128 0
 2357 0192 1A       		.byte	0x1a
 2358 0193 9F       		.byte	0x9f
 2359 0194 00000000 		.4byte	0
 2360 0198 00000000 		.4byte	0
 2361              		.section	.debug_aranges,"",%progbits
 2362 0000 34000000 		.4byte	0x34
 2363 0004 0200     		.2byte	0x2
 2364 0006 00000000 		.4byte	.Ldebug_info0
 2365 000a 04       		.byte	0x4
 2366 000b 00       		.byte	0
 2367 000c 0000     		.2byte	0
 2368 000e 0000     		.2byte	0
 2369 0010 00000000 		.4byte	.LFB138
 2370 0014 20000000 		.4byte	.LFE138-.LFB138
 2371 0018 00000000 		.4byte	.LFB139
 2372 001c 50000000 		.4byte	.LFE139-.LFB139
 2373 0020 00000000 		.4byte	.LFB140
 2374 0024 44000000 		.4byte	.LFE140-.LFB140
 2375 0028 00000000 		.4byte	.LFB141
 2376 002c 14000000 		.4byte	.LFE141-.LFB141
 2377 0030 00000000 		.4byte	0
 2378 0034 00000000 		.4byte	0
 2379              		.section	.debug_ranges,"",%progbits
 2380              	.Ldebug_ranges0:
 2381 0000 16000000 		.4byte	.LBB34
 2382 0004 2E000000 		.4byte	.LBE34
 2383 0008 32000000 		.4byte	.LBB40
 2384 000c 44000000 		.4byte	.LBE40
 2385 0010 00000000 		.4byte	0
 2386 0014 00000000 		.4byte	0
 2387 0018 00000000 		.4byte	.LFB138
 2388 001c 20000000 		.4byte	.LFE138
ARM GAS  /var/folders/t8/16hdwfmd2fg_d3q6dgx6bpmw0000gn/T//ccXOSd6z.s 			page 43


 2389 0020 00000000 		.4byte	.LFB139
 2390 0024 50000000 		.4byte	.LFE139
 2391 0028 00000000 		.4byte	.LFB140
 2392 002c 44000000 		.4byte	.LFE140
 2393 0030 00000000 		.4byte	.LFB141
 2394 0034 14000000 		.4byte	.LFE141
 2395 0038 00000000 		.4byte	0
 2396 003c 00000000 		.4byte	0
 2397              		.section	.debug_line,"",%progbits
 2398              	.Ldebug_line0:
 2399 0000 0F040000 		.section	.debug_str,"MS",%progbits,1
 2399      02007003 
 2399      00000201 
 2399      FB0E0D00 
 2399      01010101 
 2400              	.LASF49:
 2401 0000 63685F74 		.ascii	"ch_threads_list\000"
 2401      68726561 
 2401      64735F6C 
 2401      69737400 
 2402              	.LASF97:
 2403 0010 74696D65 		.ascii	"timesize\000"
 2403      73697A65 
 2403      00
 2404              	.LASF130:
 2405 0019 474E5520 		.ascii	"GNU C99 7.2.1 20170904 (release) [ARM/embedded-7-br"
 2405      43393920 
 2405      372E322E 
 2405      31203230 
 2405      31373039 
 2406 004c 616E6368 		.ascii	"anch revision 255204] -mcpu=cortex-m0plus -mno-thum"
 2406      20726576 
 2406      6973696F 
 2406      6E203235 
 2406      35323034 
 2407 007f 622D696E 		.ascii	"b-interwork -mthumb -ggdb -O2 -std=gnu99 -fomit-fra"
 2407      74657277 
 2407      6F726B20 
 2407      2D6D7468 
 2407      756D6220 
 2408 00b2 6D652D70 		.ascii	"me-pointer -falign-functions=16 -ffunction-sections"
 2408      6F696E74 
 2408      6572202D 
 2408      66616C69 
 2408      676E2D66 
 2409 00e5 202D6664 		.ascii	" -fdata-sections -fno-common\000"
 2409      6174612D 
 2409      73656374 
 2409      696F6E73 
 2409      202D666E 
 2410              	.LASF85:
 2411 0102 77746D74 		.ascii	"wtmtxp\000"
 2411      787000
 2412              	.LASF127:
 2413 0109 5F646267 		.ascii	"_dbg_check_unlock\000"
 2413      5F636865 
 2413      636B5F75 
ARM GAS  /var/folders/t8/16hdwfmd2fg_d3q6dgx6bpmw0000gn/T//ccXOSd6z.s 			page 44


 2413      6E6C6F63 
 2413      6B00
 2414              	.LASF75:
 2415 011b 72656761 		.ascii	"regarm_t\000"
 2415      726D5F74 
 2415      00
 2416              	.LASF117:
 2417 0124 6368436F 		.ascii	"chCoreAllocAlignedI\000"
 2417      7265416C 
 2417      6C6F6341 
 2417      6C69676E 
 2417      65644900 
 2418              	.LASF37:
 2419 0138 666C6167 		.ascii	"flags\000"
 2419      7300
 2420              	.LASF28:
 2421 013e 73797374 		.ascii	"systime_t\000"
 2421      696D655F 
 2421      7400
 2422              	.LASF44:
 2423 0148 7265616C 		.ascii	"realprio\000"
 2423      7072696F 
 2423      00
 2424              	.LASF42:
 2425 0151 6570656E 		.ascii	"epending\000"
 2425      64696E67 
 2425      00
 2426              	.LASF0:
 2427 015a 756E7369 		.ascii	"unsigned int\000"
 2427      676E6564 
 2427      20696E74 
 2427      00
 2428              	.LASF50:
 2429 0167 6E657874 		.ascii	"next\000"
 2429      00
 2430              	.LASF95:
 2431 016c 76657273 		.ascii	"version\000"
 2431      696F6E00 
 2432              	.LASF47:
 2433 0174 74687265 		.ascii	"threads_list_t\000"
 2433      6164735F 
 2433      6C697374 
 2433      5F7400
 2434              	.LASF8:
 2435 0183 5F5F696E 		.ascii	"__int32_t\000"
 2435      7433325F 
 2435      7400
 2436              	.LASF38:
 2437 018d 72656673 		.ascii	"refs\000"
 2437      00
 2438              	.LASF109:
 2439 0192 6F66665F 		.ascii	"off_time\000"
 2439      74696D65 
 2439      00
 2440              	.LASF81:
 2441 019b 77746F62 		.ascii	"wtobjp\000"
 2441      6A7000
ARM GAS  /var/folders/t8/16hdwfmd2fg_d3q6dgx6bpmw0000gn/T//ccXOSd6z.s 			page 45


 2442              	.LASF123:
 2443 01a2 706F7274 		.ascii	"port_lock\000"
 2443      5F6C6F63 
 2443      6B00
 2444              	.LASF73:
 2445 01ac 76746C69 		.ascii	"vtlist\000"
 2445      737400
 2446              	.LASF77:
 2447 01b3 706F7274 		.ascii	"port_context\000"
 2447      5F636F6E 
 2447      74657874 
 2447      00
 2448              	.LASF55:
 2449 01c0 63685F72 		.ascii	"ch_ready_list\000"
 2449      65616479 
 2449      5F6C6973 
 2449      7400
 2450              	.LASF61:
 2451 01ce 66756E63 		.ascii	"func\000"
 2451      00
 2452              	.LASF86:
 2453 01d3 65776D61 		.ascii	"ewmask\000"
 2453      736B00
 2454              	.LASF53:
 2455 01da 70726576 		.ascii	"prev\000"
 2455      00
 2456              	.LASF52:
 2457 01df 63685F74 		.ascii	"ch_threads_queue\000"
 2457      68726561 
 2457      64735F71 
 2457      75657565 
 2457      00
 2458              	.LASF101:
 2459 01f0 6F66665F 		.ascii	"off_newer\000"
 2459      6E657765 
 2459      7200
 2460              	.LASF57:
 2461 01fa 76746675 		.ascii	"vtfunc_t\000"
 2461      6E635F74 
 2461      00
 2462              	.LASF133:
 2463 0203 6368436F 		.ascii	"chCoreGetStatusX\000"
 2463      72654765 
 2463      74537461 
 2463      74757358 
 2463      00
 2464              	.LASF66:
 2465 0214 63685F73 		.ascii	"ch_system_debug\000"
 2465      79737465 
 2465      6D5F6465 
 2465      62756700 
 2466              	.LASF18:
 2467 0224 75696E74 		.ascii	"uint32_t\000"
 2467      33325F74 
 2467      00
 2468              	.LASF83:
 2469 022d 73656E74 		.ascii	"sentmsg\000"
ARM GAS  /var/folders/t8/16hdwfmd2fg_d3q6dgx6bpmw0000gn/T//ccXOSd6z.s 			page 46


 2469      6D736700 
 2470              	.LASF26:
 2471 0235 6576656E 		.ascii	"eventmask_t\000"
 2471      746D6173 
 2471      6B5F7400 
 2472              	.LASF98:
 2473 0241 74687265 		.ascii	"threadsize\000"
 2473      61647369 
 2473      7A6500
 2474              	.LASF87:
 2475 024c 63685F73 		.ascii	"ch_semaphore\000"
 2475      656D6170 
 2475      686F7265 
 2475      00
 2476              	.LASF24:
 2477 0259 74707269 		.ascii	"tprio_t\000"
 2477      6F5F7400 
 2478              	.LASF59:
 2479 0261 63685F76 		.ascii	"ch_virtual_timer\000"
 2479      69727475 
 2479      616C5F74 
 2479      696D6572 
 2479      00
 2480              	.LASF14:
 2481 0272 6C6F6E67 		.ascii	"long long unsigned int\000"
 2481      206C6F6E 
 2481      6720756E 
 2481      7369676E 
 2481      65642069 
 2482              	.LASF6:
 2483 0289 5F5F7569 		.ascii	"__uint16_t\000"
 2483      6E743136 
 2483      5F7400
 2484              	.LASF27:
 2485 0294 636E745F 		.ascii	"cnt_t\000"
 2485      7400
 2486              	.LASF104:
 2487 029a 6F66665F 		.ascii	"off_stklimit\000"
 2487      73746B6C 
 2487      696D6974 
 2487      00
 2488              	.LASF68:
 2489 02a7 6973725F 		.ascii	"isr_cnt\000"
 2489      636E7400 
 2490              	.LASF89:
 2491 02af 6F776E65 		.ascii	"owner\000"
 2491      7200
 2492              	.LASF51:
 2493 02b5 74687265 		.ascii	"threads_queue_t\000"
 2493      6164735F 
 2493      71756575 
 2493      655F7400 
 2494              	.LASF43:
 2495 02c5 6D74786C 		.ascii	"mtxlist\000"
 2495      69737400 
 2496              	.LASF63:
 2497 02cd 63685F76 		.ascii	"ch_virtual_timers_list\000"
ARM GAS  /var/folders/t8/16hdwfmd2fg_d3q6dgx6bpmw0000gn/T//ccXOSd6z.s 			page 47


 2497      69727475 
 2497      616C5F74 
 2497      696D6572 
 2497      735F6C69 
 2498              	.LASF29:
 2499 02e4 74687265 		.ascii	"thread_t\000"
 2499      61645F74 
 2499      00
 2500              	.LASF134:
 2501 02ed 5F636F72 		.ascii	"_core_init\000"
 2501      655F696E 
 2501      697400
 2502              	.LASF102:
 2503 02f8 6F66665F 		.ascii	"off_older\000"
 2503      6F6C6465 
 2503      7200
 2504              	.LASF105:
 2505 0302 6F66665F 		.ascii	"off_state\000"
 2505      73746174 
 2505      6500
 2506              	.LASF118:
 2507 030c 5F5F6865 		.ascii	"__heap_base__\000"
 2507      61705F62 
 2507      6173655F 
 2507      5F00
 2508              	.LASF2:
 2509 031a 73697A65 		.ascii	"size_t\000"
 2509      5F7400
 2510              	.LASF79:
 2511 0321 7264796D 		.ascii	"rdymsg\000"
 2511      736700
 2512              	.LASF124:
 2513 0328 5F5F6469 		.ascii	"__disable_irq\000"
 2513      7361626C 
 2513      655F6972 
 2513      7100
 2514              	.LASF88:
 2515 0336 63685F6D 		.ascii	"ch_mutex\000"
 2515      75746578 
 2515      00
 2516              	.LASF13:
 2517 033f 5F5F7569 		.ascii	"__uint64_t\000"
 2517      6E743634 
 2517      5F7400
 2518              	.LASF100:
 2519 034a 6F66665F 		.ascii	"off_ctx\000"
 2519      63747800 
 2520              	.LASF121:
 2521 0352 63685379 		.ascii	"chSysLock\000"
 2521      734C6F63 
 2521      6B00
 2522              	.LASF106:
 2523 035c 6F66665F 		.ascii	"off_flags\000"
 2523      666C6167 
 2523      7300
 2524              	.LASF31:
 2525 0366 7072696F 		.ascii	"prio\000"
ARM GAS  /var/folders/t8/16hdwfmd2fg_d3q6dgx6bpmw0000gn/T//ccXOSd6z.s 			page 48


 2525      00
 2526              	.LASF90:
 2527 036b 63686172 		.ascii	"char\000"
 2527      00
 2528              	.LASF46:
 2529 0370 74687265 		.ascii	"thread_reference_t\000"
 2529      61645F72 
 2529      65666572 
 2529      656E6365 
 2529      5F7400
 2530              	.LASF35:
 2531 0383 77616261 		.ascii	"wabase\000"
 2531      736500
 2532              	.LASF91:
 2533 038a 63685F69 		.ascii	"ch_idle_thread_wa\000"
 2533      646C655F 
 2533      74687265 
 2533      61645F77 
 2533      6100
 2534              	.LASF21:
 2535 039c 74737461 		.ascii	"tstate_t\000"
 2535      74655F74 
 2535      00
 2536              	.LASF15:
 2537 03a5 75696E74 		.ascii	"uint8_t\000"
 2537      385F7400 
 2538              	.LASF41:
 2539 03ad 6D736771 		.ascii	"msgqueue\000"
 2539      75657565 
 2539      00
 2540              	.LASF48:
 2541 03b6 63685F74 		.ascii	"ch_thread\000"
 2541      68726561 
 2541      6400
 2542              	.LASF103:
 2543 03c0 6F66665F 		.ascii	"off_name\000"
 2543      6E616D65 
 2543      00
 2544              	.LASF131:
 2545 03c9 2E2E2F2E 		.ascii	"../../tmk_core/tool/chibios/ChibiOS/os/common/oslib"
 2545      2E2F746D 
 2545      6B5F636F 
 2545      72652F74 
 2545      6F6F6C2F 
 2546 03fc 2F737263 		.ascii	"/src/chmemcore.c\000"
 2546      2F63686D 
 2546      656D636F 
 2546      72652E63 
 2546      00
 2547              	.LASF65:
 2548 040d 73797374 		.ascii	"system_debug_t\000"
 2548      656D5F64 
 2548      65627567 
 2548      5F7400
 2549              	.LASF126:
 2550 041c 5F646267 		.ascii	"_dbg_check_lock\000"
 2550      5F636865 
ARM GAS  /var/folders/t8/16hdwfmd2fg_d3q6dgx6bpmw0000gn/T//ccXOSd6z.s 			page 49


 2550      636B5F6C 
 2550      6F636B00 
 2551              	.LASF12:
 2552 042c 6C6F6E67 		.ascii	"long long int\000"
 2552      206C6F6E 
 2552      6720696E 
 2552      7400
 2553              	.LASF93:
 2554 043a 7A65726F 		.ascii	"zero\000"
 2554      00
 2555              	.LASF25:
 2556 043f 6D73675F 		.ascii	"msg_t\000"
 2556      7400
 2557              	.LASF58:
 2558 0445 76697274 		.ascii	"virtual_timer_t\000"
 2558      75616C5F 
 2558      74696D65 
 2558      725F7400 
 2559              	.LASF94:
 2560 0455 73697A65 		.ascii	"size\000"
 2560      00
 2561              	.LASF96:
 2562 045a 70747273 		.ascii	"ptrsize\000"
 2562      697A6500 
 2563              	.LASF129:
 2564 0462 63684462 		.ascii	"chDbgCheckClassI\000"
 2564      67436865 
 2564      636B436C 
 2564      61737349 
 2564      00
 2565              	.LASF23:
 2566 0473 74736C69 		.ascii	"tslices_t\000"
 2566      6365735F 
 2566      7400
 2567              	.LASF132:
 2568 047d 2F557365 		.ascii	"/Users/jpablobr/tmp/tmk/di0ib-tmk_keyboard/keyboard"
 2568      72732F6A 
 2568      7061626C 
 2568      6F62722F 
 2568      746D702F 
 2569 04b0 2F746565 		.ascii	"/teensy_lc_menelaus\000"
 2569      6E73795F 
 2569      6C635F6D 
 2569      656E656C 
 2569      61757300 
 2570              	.LASF67:
 2571 04c4 70616E69 		.ascii	"panic_msg\000"
 2571      635F6D73 
 2571      6700
 2572              	.LASF20:
 2573 04ce 746D6F64 		.ascii	"tmode_t\000"
 2573      655F7400 
 2574              	.LASF64:
 2575 04d6 73797374 		.ascii	"systime\000"
 2575      696D6500 
 2576              	.LASF74:
 2577 04de 6D61696E 		.ascii	"mainthread\000"
ARM GAS  /var/folders/t8/16hdwfmd2fg_d3q6dgx6bpmw0000gn/T//ccXOSd6z.s 			page 50


 2577      74687265 
 2577      616400
 2578              	.LASF16:
 2579 04e9 75696E74 		.ascii	"uint16_t\000"
 2579      31365F74 
 2579      00
 2580              	.LASF110:
 2581 04f2 63686465 		.ascii	"chdebug_t\000"
 2581      6275675F 
 2581      7400
 2582              	.LASF99:
 2583 04fc 6F66665F 		.ascii	"off_prio\000"
 2583      7072696F 
 2583      00
 2584              	.LASF69:
 2585 0505 6C6F636B 		.ascii	"lock_cnt\000"
 2585      5F636E74 
 2585      00
 2586              	.LASF5:
 2587 050e 73686F72 		.ascii	"short int\000"
 2587      7420696E 
 2587      7400
 2588              	.LASF9:
 2589 0518 6C6F6E67 		.ascii	"long int\000"
 2589      20696E74 
 2589      00
 2590              	.LASF78:
 2591 0521 706F7274 		.ascii	"port_intctx\000"
 2591      5F696E74 
 2591      63747800 
 2592              	.LASF39:
 2593 052d 70726565 		.ascii	"preempt\000"
 2593      6D707400 
 2594              	.LASF125:
 2595 0535 5F5F656E 		.ascii	"__enable_irq\000"
 2595      61626C65 
 2595      5F697271 
 2595      00
 2596              	.LASF71:
 2597 0542 63685F73 		.ascii	"ch_system\000"
 2597      79737465 
 2597      6D00
 2598              	.LASF19:
 2599 054c 75696E74 		.ascii	"uint64_t\000"
 2599      36345F74 
 2599      00
 2600              	.LASF72:
 2601 0555 726C6973 		.ascii	"rlist\000"
 2601      7400
 2602              	.LASF3:
 2603 055b 5F5F7569 		.ascii	"__uint8_t\000"
 2603      6E74385F 
 2603      7400
 2604              	.LASF34:
 2605 0565 6E616D65 		.ascii	"name\000"
 2605      00
 2606              	.LASF92:
ARM GAS  /var/folders/t8/16hdwfmd2fg_d3q6dgx6bpmw0000gn/T//ccXOSd6z.s 			page 51


 2607 056a 6964656E 		.ascii	"identifier\000"
 2607      74696669 
 2607      657200
 2608              	.LASF108:
 2609 0575 6F66665F 		.ascii	"off_preempt\000"
 2609      70726565 
 2609      6D707400 
 2610              	.LASF135:
 2611 0581 63685379 		.ascii	"chSysUnlock\000"
 2611      73556E6C 
 2611      6F636B00 
 2612              	.LASF22:
 2613 058d 74726566 		.ascii	"trefs_t\000"
 2613      735F7400 
 2614              	.LASF11:
 2615 0595 6C6F6E67 		.ascii	"long unsigned int\000"
 2615      20756E73 
 2615      69676E65 
 2615      6420696E 
 2615      7400
 2616              	.LASF54:
 2617 05a7 72656164 		.ascii	"ready_list_t\000"
 2617      795F6C69 
 2617      73745F74 
 2617      00
 2618              	.LASF30:
 2619 05b4 71756575 		.ascii	"queue\000"
 2619      6500
 2620              	.LASF17:
 2621 05ba 696E7433 		.ascii	"int32_t\000"
 2621      325F7400 
 2622              	.LASF84:
 2623 05c2 77747365 		.ascii	"wtsemp\000"
 2623      6D7000
 2624              	.LASF112:
 2625 05c9 6D757465 		.ascii	"mutex_t\000"
 2625      785F7400 
 2626              	.LASF32:
 2627 05d1 6E657765 		.ascii	"newer\000"
 2627      7200
 2628              	.LASF4:
 2629 05d7 756E7369 		.ascii	"unsigned char\000"
 2629      676E6564 
 2629      20636861 
 2629      7200
 2630              	.LASF10:
 2631 05e5 5F5F7569 		.ascii	"__uint32_t\000"
 2631      6E743332 
 2631      5F7400
 2632              	.LASF40:
 2633 05f0 77616974 		.ascii	"waiting\000"
 2633      696E6700 
 2634              	.LASF62:
 2635 05f8 76697274 		.ascii	"virtual_timers_list_t\000"
 2635      75616C5F 
 2635      74696D65 
 2635      72735F6C 
ARM GAS  /var/folders/t8/16hdwfmd2fg_d3q6dgx6bpmw0000gn/T//ccXOSd6z.s 			page 52


 2635      6973745F 
 2636              	.LASF36:
 2637 060e 73746174 		.ascii	"state\000"
 2637      6500
 2638              	.LASF128:
 2639 0614 63685379 		.ascii	"chSysHalt\000"
 2639      7348616C 
 2639      7400
 2640              	.LASF70:
 2641 061e 63685F73 		.ascii	"ch_system_t\000"
 2641      79737465 
 2641      6D5F7400 
 2642              	.LASF82:
 2643 062a 77747472 		.ascii	"wttrp\000"
 2643      7000
 2644              	.LASF1:
 2645 0630 7369676E 		.ascii	"signed char\000"
 2645      65642063 
 2645      68617200 
 2646              	.LASF60:
 2647 063c 64656C74 		.ascii	"delta\000"
 2647      6100
 2648              	.LASF7:
 2649 0642 73686F72 		.ascii	"short unsigned int\000"
 2649      7420756E 
 2649      7369676E 
 2649      65642069 
 2649      6E7400
 2650              	.LASF76:
 2651 0655 73746B61 		.ascii	"stkalign_t\000"
 2651      6C69676E 
 2651      5F7400
 2652              	.LASF107:
 2653 0660 6F66665F 		.ascii	"off_refs\000"
 2653      72656673 
 2653      00
 2654              	.LASF114:
 2655 0669 656E646D 		.ascii	"endmem\000"
 2655      656D00
 2656              	.LASF56:
 2657 0670 63757272 		.ascii	"current\000"
 2657      656E7400 
 2658              	.LASF120:
 2659 0678 5F5F6675 		.ascii	"__func__\000"
 2659      6E635F5F 
 2659      00
 2660              	.LASF111:
 2661 0681 63685F64 		.ascii	"ch_debug\000"
 2661      65627567 
 2661      00
 2662              	.LASF122:
 2663 068a 706F7274 		.ascii	"port_unlock\000"
 2663      5F756E6C 
 2663      6F636B00 
 2664              	.LASF115:
 2665 0696 616C6967 		.ascii	"align\000"
 2665      6E00
ARM GAS  /var/folders/t8/16hdwfmd2fg_d3q6dgx6bpmw0000gn/T//ccXOSd6z.s 			page 53


 2666              	.LASF33:
 2667 069c 6F6C6465 		.ascii	"older\000"
 2667      7200
 2668              	.LASF113:
 2669 06a2 6E657874 		.ascii	"nextmem\000"
 2669      6D656D00 
 2670              	.LASF80:
 2671 06aa 65786974 		.ascii	"exitcode\000"
 2671      636F6465 
 2671      00
 2672              	.LASF119:
 2673 06b3 5F5F6865 		.ascii	"__heap_end__\000"
 2673      61705F65 
 2673      6E645F5F 
 2673      00
 2674              	.LASF45:
 2675 06c0 6D706F6F 		.ascii	"mpool\000"
 2675      6C00
 2676              	.LASF116:
 2677 06c6 6368436F 		.ascii	"chCoreAllocAligned\000"
 2677      7265416C 
 2677      6C6F6341 
 2677      6C69676E 
 2677      656400
 2678              		.ident	"GCC: (GNU Tools for Arm Embedded Processors 7-2017-q4-major) 7.2.1 20170904 (release) [ARM
ARM GAS  /var/folders/t8/16hdwfmd2fg_d3q6dgx6bpmw0000gn/T//ccXOSd6z.s 			page 54


DEFINED SYMBOLS
                            *ABS*:0000000000000000 chmemcore.c
/var/folders/t8/16hdwfmd2fg_d3q6dgx6bpmw0000gn/T//ccXOSd6z.s:16     .text._core_init:0000000000000000 $t
/var/folders/t8/16hdwfmd2fg_d3q6dgx6bpmw0000gn/T//ccXOSd6z.s:24     .text._core_init:0000000000000000 _core_init
/var/folders/t8/16hdwfmd2fg_d3q6dgx6bpmw0000gn/T//ccXOSd6z.s:48     .text._core_init:0000000000000010 $d
/var/folders/t8/16hdwfmd2fg_d3q6dgx6bpmw0000gn/T//ccXOSd6z.s:56     .text.chCoreAllocAlignedI:0000000000000000 $t
/var/folders/t8/16hdwfmd2fg_d3q6dgx6bpmw0000gn/T//ccXOSd6z.s:64     .text.chCoreAllocAlignedI:0000000000000000 chCoreAllocAlignedI
/var/folders/t8/16hdwfmd2fg_d3q6dgx6bpmw0000gn/T//ccXOSd6z.s:147    .text.chCoreAllocAlignedI:0000000000000044 $d
/var/folders/t8/16hdwfmd2fg_d3q6dgx6bpmw0000gn/T//ccXOSd6z.s:154    .text.chCoreAllocAligned:0000000000000000 $t
/var/folders/t8/16hdwfmd2fg_d3q6dgx6bpmw0000gn/T//ccXOSd6z.s:162    .text.chCoreAllocAligned:0000000000000000 chCoreAllocAligned
/var/folders/t8/16hdwfmd2fg_d3q6dgx6bpmw0000gn/T//ccXOSd6z.s:256    .text.chCoreAllocAligned:000000000000003c $d
/var/folders/t8/16hdwfmd2fg_d3q6dgx6bpmw0000gn/T//ccXOSd6z.s:264    .text.chCoreGetStatusX:0000000000000000 $t
/var/folders/t8/16hdwfmd2fg_d3q6dgx6bpmw0000gn/T//ccXOSd6z.s:272    .text.chCoreGetStatusX:0000000000000000 chCoreGetStatusX
/var/folders/t8/16hdwfmd2fg_d3q6dgx6bpmw0000gn/T//ccXOSd6z.s:293    .text.chCoreGetStatusX:000000000000000c $d
/var/folders/t8/16hdwfmd2fg_d3q6dgx6bpmw0000gn/T//ccXOSd6z.s:299    .bss.endmem:0000000000000000 $d
/var/folders/t8/16hdwfmd2fg_d3q6dgx6bpmw0000gn/T//ccXOSd6z.s:303    .bss.endmem:0000000000000000 endmem
/var/folders/t8/16hdwfmd2fg_d3q6dgx6bpmw0000gn/T//ccXOSd6z.s:306    .bss.nextmem:0000000000000000 $d
/var/folders/t8/16hdwfmd2fg_d3q6dgx6bpmw0000gn/T//ccXOSd6z.s:310    .bss.nextmem:0000000000000000 nextmem
/var/folders/t8/16hdwfmd2fg_d3q6dgx6bpmw0000gn/T//ccXOSd6z.s:313    .rodata.__func__.5043:0000000000000000 $d
/var/folders/t8/16hdwfmd2fg_d3q6dgx6bpmw0000gn/T//ccXOSd6z.s:317    .rodata.__func__.5043:0000000000000000 __func__.5043
/var/folders/t8/16hdwfmd2fg_d3q6dgx6bpmw0000gn/T//ccXOSd6z.s:320    .rodata.__func__.5728:0000000000000000 $d
/var/folders/t8/16hdwfmd2fg_d3q6dgx6bpmw0000gn/T//ccXOSd6z.s:324    .rodata.__func__.5728:0000000000000000 __func__.5728

UNDEFINED SYMBOLS
__heap_base__
__heap_end__
chDbgCheckClassI
chSysHalt
_dbg_check_lock
_dbg_check_unlock
ch
