ARM GAS  /var/folders/t8/16hdwfmd2fg_d3q6dgx6bpmw0000gn/T//ccPaAKSn.s 			page 1


   1              		.cpu cortex-m0plus
   2              		.eabi_attribute 20, 1
   3              		.eabi_attribute 21, 1
   4              		.eabi_attribute 23, 3
   5              		.eabi_attribute 24, 1
   6              		.eabi_attribute 25, 1
   7              		.eabi_attribute 26, 1
   8              		.eabi_attribute 30, 2
   9              		.eabi_attribute 34, 0
  10              		.eabi_attribute 18, 4
  11              		.file	"chmsg.c"
  12              		.text
  13              	.Ltext0:
  14              		.cfi_sections	.debug_frame
  15              		.section	.text.chMsgSend,"ax",%progbits
  16              		.align	1
  17              		.p2align 4,,15
  18              		.global	chMsgSend
  19              		.syntax unified
  20              		.code	16
  21              		.thumb_func
  22              		.fpu softvfp
  23              		.type	chMsgSend, %function
  24              	chMsgSend:
  25              	.LFB138:
  26              		.file 1 "../../tmk_core/tool/chibios/ChibiOS/os/rt/src/chmsg.c"
  27              		.loc 1 87 0
  28              		.cfi_startproc
  29              		@ args = 0, pretend = 0, frame = 0
  30              		@ frame_needed = 0, uses_anonymous_args = 0
  31              	.LVL0:
  32 0000 F8B5     		push	{r3, r4, r5, r6, r7, lr}
  33              		.cfi_def_cfa_offset 24
  34              		.cfi_offset 3, -24
  35              		.cfi_offset 4, -20
  36              		.cfi_offset 5, -16
  37              		.cfi_offset 6, -12
  38              		.cfi_offset 7, -8
  39              		.cfi_offset 14, -4
  40              		.loc 1 88 0
  41 0002 194E     		ldr	r6, .L9
  42              		.loc 1 87 0
  43 0004 0500     		movs	r5, r0
  44 0006 0F00     		movs	r7, r1
  45              		.loc 1 88 0
  46 0008 B469     		ldr	r4, [r6, #24]
  47              	.LVL1:
  48              		.loc 1 90 0
  49 000a 0028     		cmp	r0, #0
  50 000c 27D0     		beq	.L6
  51              	.LVL2:
  52              	.L2:
  53              	.LBB49:
  54              	.LBB50:
  55              	.LBB51:
  56              	.LBB52:
  57              	.LBB53:
ARM GAS  /var/folders/t8/16hdwfmd2fg_d3q6dgx6bpmw0000gn/T//ccPaAKSn.s 			page 2


  58              		.file 2 "../../tmk_core/tool/chibios/ChibiOS/os/common/ext/CMSIS/include/cmsis_gcc.h"
  59              		.loc 2 71 0
  60              		.syntax divided
  61              	@ 71 "../../tmk_core/tool/chibios/ChibiOS/os/common/ext/CMSIS/include/cmsis_gcc.h" 1
  62 000e 72B6     		cpsid i
  63              	@ 0 "" 2
  64              		.thumb
  65              		.syntax unified
  66              	.LBE53:
  67              	.LBE52:
  68              	.LBE51:
  69              		.file 3 "../../tmk_core/tool/chibios/ChibiOS/os/rt/include/chsys.h"
  70              		.loc 3 378 0
  71 0010 FFF7FEFF 		bl	_dbg_check_lock
  72              	.LVL3:
  73              	.LBE50:
  74              	.LBE49:
  75              		.loc 1 94 0
  76 0014 2B00     		movs	r3, r5
  77 0016 2C33     		adds	r3, r3, #44
  78              	.LBB54:
  79              	.LBB55:
  80              		.file 4 "../../tmk_core/tool/chibios/ChibiOS/os/rt/include/chschd.h"
  81              		.loc 4 611 0
  82 0018 2360     		str	r3, [r4]
  83              		.loc 4 612 0
  84 001a 2B6B     		ldr	r3, [r5, #48]
  85              	.LBE55:
  86              	.LBE54:
  87              		.loc 1 93 0
  88 001c 6762     		str	r7, [r4, #36]
  89              	.LVL4:
  90              	.LBB58:
  91              	.LBB56:
  92              		.loc 4 612 0
  93 001e 6360     		str	r3, [r4, #4]
  94              		.loc 4 613 0
  95 0020 1C60     		str	r4, [r3]
  96              	.LVL5:
  97              	.LBE56:
  98              	.LBE58:
  99              		.loc 1 95 0
 100 0022 2023     		movs	r3, #32
 101              	.LBB59:
 102              	.LBB57:
 103              		.loc 4 614 0
 104 0024 2C63     		str	r4, [r5, #48]
 105              	.LVL6:
 106              	.LBE57:
 107              	.LBE59:
 108              		.loc 1 95 0
 109 0026 EB5C     		ldrb	r3, [r5, r3]
 110 0028 0E2B     		cmp	r3, #14
 111 002a 14D0     		beq	.L7
 112              	.L3:
 113              		.loc 1 98 0
 114 002c 0C20     		movs	r0, #12
ARM GAS  /var/folders/t8/16hdwfmd2fg_d3q6dgx6bpmw0000gn/T//ccPaAKSn.s 			page 3


 115 002e FFF7FEFF 		bl	chSchGoSleepS
 116              	.LVL7:
 117              		.loc 1 99 0
 118 0032 646A     		ldr	r4, [r4, #36]
 119              	.LVL8:
 120              	.LBB60:
 121              	.LBB61:
 122              		.loc 3 388 0
 123 0034 FFF7FEFF 		bl	_dbg_check_unlock
 124              	.LVL9:
 125              		.loc 3 395 0
 126 0038 3368     		ldr	r3, [r6]
 127 003a B342     		cmp	r3, r6
 128 003c 04D0     		beq	.L4
 129 003e B269     		ldr	r2, [r6, #24]
 130 0040 9B68     		ldr	r3, [r3, #8]
 131 0042 9268     		ldr	r2, [r2, #8]
 132 0044 9A42     		cmp	r2, r3
 133 0046 02D3     		bcc	.L8
 134              	.L4:
 135              	.LBB62:
 136              	.LBB63:
 137              	.LBB64:
 138              		.loc 2 60 0
 139              		.syntax divided
 140              	@ 60 "../../tmk_core/tool/chibios/ChibiOS/os/common/ext/CMSIS/include/cmsis_gcc.h" 1
 141 0048 62B6     		cpsie i
 142              	@ 0 "" 2
 143              		.thumb
 144              		.syntax unified
 145              	.LBE64:
 146              	.LBE63:
 147              	.LBE62:
 148              	.LBE61:
 149              	.LBE60:
 150              		.loc 1 103 0
 151 004a 2000     		movs	r0, r4
 152              		@ sp needed
 153              	.LVL10:
 154              	.LVL11:
 155 004c F8BD     		pop	{r3, r4, r5, r6, r7, pc}
 156              	.LVL12:
 157              	.L8:
 158              	.LBB66:
 159              	.LBB65:
 160              		.loc 3 395 0
 161 004e 0748     		ldr	r0, .L9+4
 162 0050 FFF7FEFF 		bl	chSysHalt
 163              	.LVL13:
 164 0054 F8E7     		b	.L4
 165              	.LVL14:
 166              	.L7:
 167              	.LBE65:
 168              	.LBE66:
 169              		.loc 1 96 0
 170 0056 2800     		movs	r0, r5
 171 0058 FFF7FEFF 		bl	chSchReadyI
ARM GAS  /var/folders/t8/16hdwfmd2fg_d3q6dgx6bpmw0000gn/T//ccPaAKSn.s 			page 4


 172              	.LVL15:
 173 005c E6E7     		b	.L3
 174              	.LVL16:
 175              	.L6:
 176              		.loc 1 90 0 discriminator 2
 177 005e 0448     		ldr	r0, .L9+8
 178              	.LVL17:
 179 0060 FFF7FEFF 		bl	chSysHalt
 180              	.LVL18:
 181 0064 D3E7     		b	.L2
 182              	.L10:
 183 0066 C046     		.align	2
 184              	.L9:
 185 0068 00000000 		.word	ch
 186 006c 00000000 		.word	.LANCHOR1
 187 0070 00000000 		.word	.LANCHOR0
 188              		.cfi_endproc
 189              	.LFE138:
 190              		.size	chMsgSend, .-chMsgSend
 191              		.section	.text.chMsgWait,"ax",%progbits
 192              		.align	1
 193              		.p2align 4,,15
 194              		.global	chMsgWait
 195              		.syntax unified
 196              		.code	16
 197              		.thumb_func
 198              		.fpu softvfp
 199              		.type	chMsgWait, %function
 200              	chMsgWait:
 201              	.LFB139:
 202              		.loc 1 119 0
 203              		.cfi_startproc
 204              		@ args = 0, pretend = 0, frame = 0
 205              		@ frame_needed = 0, uses_anonymous_args = 0
 206 0000 70B5     		push	{r4, r5, r6, lr}
 207              		.cfi_def_cfa_offset 16
 208              		.cfi_offset 4, -16
 209              		.cfi_offset 5, -12
 210              		.cfi_offset 6, -8
 211              		.cfi_offset 14, -4
 212              	.LBB81:
 213              	.LBB82:
 214              	.LBB83:
 215              	.LBB84:
 216              	.LBB85:
 217              		.loc 2 71 0
 218              		.syntax divided
 219              	@ 71 "../../tmk_core/tool/chibios/ChibiOS/os/common/ext/CMSIS/include/cmsis_gcc.h" 1
 220 0002 72B6     		cpsid i
 221              	@ 0 "" 2
 222              		.thumb
 223              		.syntax unified
 224              	.LBE85:
 225              	.LBE84:
 226              	.LBE83:
 227              		.loc 3 378 0
 228 0004 FFF7FEFF 		bl	_dbg_check_lock
ARM GAS  /var/folders/t8/16hdwfmd2fg_d3q6dgx6bpmw0000gn/T//ccPaAKSn.s 			page 5


 229              	.LVL19:
 230              	.LBE82:
 231              	.LBE81:
 232              		.loc 1 123 0
 233 0008 134C     		ldr	r4, .L16
 234 000a A569     		ldr	r5, [r4, #24]
 235              	.LVL20:
 236              	.LBB86:
 237              	.LBB87:
 238              		.file 5 "../../tmk_core/tool/chibios/ChibiOS/os/rt/include/chmsg.h"
 239              		.loc 5 81 0
 240 000c FFF7FEFF 		bl	chDbgCheckClassI
 241              	.LVL21:
 242              		.loc 5 83 0
 243 0010 2B00     		movs	r3, r5
 244              	.LBE87:
 245              	.LBE86:
 246              		.loc 1 123 0
 247 0012 EA6A     		ldr	r2, [r5, #44]
 248              	.LBB89:
 249              	.LBB88:
 250              		.loc 5 83 0
 251 0014 2C33     		adds	r3, r3, #44
 252              	.LBE88:
 253              	.LBE89:
 254              		.loc 1 123 0
 255 0016 9A42     		cmp	r2, r3
 256 0018 19D0     		beq	.L14
 257              	.L12:
 258              		.loc 1 126 0
 259 001a A369     		ldr	r3, [r4, #24]
 260              	.LVL22:
 261              	.LBB90:
 262              	.LBB91:
 263              		.loc 4 618 0
 264 001c DD6A     		ldr	r5, [r3, #44]
 265              	.LVL23:
 266              	.LBE91:
 267              	.LBE90:
 268              		.loc 1 126 0
 269 001e 2C33     		adds	r3, r3, #44
 270              	.LVL24:
 271              	.LBB93:
 272              	.LBB92:
 273              		.loc 4 620 0
 274 0020 2A68     		ldr	r2, [r5]
 275 0022 1A60     		str	r2, [r3]
 276              		.loc 4 621 0
 277 0024 5360     		str	r3, [r2, #4]
 278              	.LVL25:
 279              	.LBE92:
 280              	.LBE93:
 281              		.loc 1 127 0
 282 0026 2023     		movs	r3, #32
 283 0028 0D22     		movs	r2, #13
 284 002a EA54     		strb	r2, [r5, r3]
 285              	.LBB94:
ARM GAS  /var/folders/t8/16hdwfmd2fg_d3q6dgx6bpmw0000gn/T//ccPaAKSn.s 			page 6


 286              	.LBB95:
 287              		.loc 3 388 0
 288 002c FFF7FEFF 		bl	_dbg_check_unlock
 289              	.LVL26:
 290              		.loc 3 395 0
 291 0030 2368     		ldr	r3, [r4]
 292 0032 A342     		cmp	r3, r4
 293 0034 04D0     		beq	.L13
 294 0036 A269     		ldr	r2, [r4, #24]
 295 0038 9B68     		ldr	r3, [r3, #8]
 296 003a 9268     		ldr	r2, [r2, #8]
 297 003c 9A42     		cmp	r2, r3
 298 003e 02D3     		bcc	.L15
 299              	.L13:
 300              	.LBB96:
 301              	.LBB97:
 302              	.LBB98:
 303              		.loc 2 60 0
 304              		.syntax divided
 305              	@ 60 "../../tmk_core/tool/chibios/ChibiOS/os/common/ext/CMSIS/include/cmsis_gcc.h" 1
 306 0040 62B6     		cpsie i
 307              	@ 0 "" 2
 308              		.thumb
 309              		.syntax unified
 310              	.LBE98:
 311              	.LBE97:
 312              	.LBE96:
 313              	.LBE95:
 314              	.LBE94:
 315              		.loc 1 131 0
 316 0042 2800     		movs	r0, r5
 317              		@ sp needed
 318 0044 70BD     		pop	{r4, r5, r6, pc}
 319              	.L15:
 320              	.LBB100:
 321              	.LBB99:
 322              		.loc 3 395 0
 323 0046 0548     		ldr	r0, .L16+4
 324 0048 FFF7FEFF 		bl	chSysHalt
 325              	.LVL27:
 326 004c F8E7     		b	.L13
 327              	.L14:
 328              	.LBE99:
 329              	.LBE100:
 330              		.loc 1 124 0
 331 004e 0E20     		movs	r0, #14
 332 0050 FFF7FEFF 		bl	chSchGoSleepS
 333              	.LVL28:
 334 0054 E1E7     		b	.L12
 335              	.L17:
 336 0056 C046     		.align	2
 337              	.L16:
 338 0058 00000000 		.word	ch
 339 005c 00000000 		.word	.LANCHOR1
 340              		.cfi_endproc
 341              	.LFE139:
 342              		.size	chMsgWait, .-chMsgWait
ARM GAS  /var/folders/t8/16hdwfmd2fg_d3q6dgx6bpmw0000gn/T//ccPaAKSn.s 			page 7


 343              		.section	.text.chMsgRelease,"ax",%progbits
 344              		.align	1
 345              		.p2align 4,,15
 346              		.global	chMsgRelease
 347              		.syntax unified
 348              		.code	16
 349              		.thumb_func
 350              		.fpu softvfp
 351              		.type	chMsgRelease, %function
 352              	chMsgRelease:
 353              	.LFB140:
 354              		.loc 1 143 0
 355              		.cfi_startproc
 356              		@ args = 0, pretend = 0, frame = 0
 357              		@ frame_needed = 0, uses_anonymous_args = 0
 358              	.LVL29:
 359 0000 70B5     		push	{r4, r5, r6, lr}
 360              		.cfi_def_cfa_offset 16
 361              		.cfi_offset 4, -16
 362              		.cfi_offset 5, -12
 363              		.cfi_offset 6, -8
 364              		.cfi_offset 14, -4
 365              		.loc 1 143 0
 366 0002 0400     		movs	r4, r0
 367 0004 0D00     		movs	r5, r1
 368              	.LBB113:
 369              	.LBB114:
 370              	.LBB115:
 371              	.LBB116:
 372              	.LBB117:
 373              		.loc 2 71 0
 374              		.syntax divided
 375              	@ 71 "../../tmk_core/tool/chibios/ChibiOS/os/common/ext/CMSIS/include/cmsis_gcc.h" 1
 376 0006 72B6     		cpsid i
 377              	@ 0 "" 2
 378              		.thumb
 379              		.syntax unified
 380              	.LBE117:
 381              	.LBE116:
 382              	.LBE115:
 383              		.loc 3 378 0
 384 0008 FFF7FEFF 		bl	_dbg_check_lock
 385              	.LVL30:
 386              	.LBE114:
 387              	.LBE113:
 388              		.loc 1 146 0
 389 000c 2023     		movs	r3, #32
 390 000e E35C     		ldrb	r3, [r4, r3]
 391 0010 0D2B     		cmp	r3, #13
 392 0012 02D0     		beq	.L19
 393              		.loc 1 146 0 is_stmt 0 discriminator 2
 394 0014 0C48     		ldr	r0, .L25
 395 0016 FFF7FEFF 		bl	chSysHalt
 396              	.LVL31:
 397              	.L19:
 398              	.LBB118:
 399              	.LBB119:
ARM GAS  /var/folders/t8/16hdwfmd2fg_d3q6dgx6bpmw0000gn/T//ccPaAKSn.s 			page 8


 400              		.loc 5 115 0 is_stmt 1
 401 001a FFF7FEFF 		bl	chDbgCheckClassS
 402              	.LVL32:
 403              		.loc 5 117 0
 404 001e 2900     		movs	r1, r5
 405 0020 2000     		movs	r0, r4
 406 0022 FFF7FEFF 		bl	chSchWakeupS
 407              	.LVL33:
 408              	.LBE119:
 409              	.LBE118:
 410              	.LBB120:
 411              	.LBB121:
 412              		.loc 3 388 0
 413 0026 FFF7FEFF 		bl	_dbg_check_unlock
 414              	.LVL34:
 415              		.loc 3 395 0
 416 002a 084B     		ldr	r3, .L25+4
 417 002c 1A68     		ldr	r2, [r3]
 418 002e 9A42     		cmp	r2, r3
 419 0030 04D0     		beq	.L20
 420 0032 9B69     		ldr	r3, [r3, #24]
 421 0034 9968     		ldr	r1, [r3, #8]
 422 0036 9368     		ldr	r3, [r2, #8]
 423 0038 9942     		cmp	r1, r3
 424 003a 01D3     		bcc	.L24
 425              	.L20:
 426              	.LBB122:
 427              	.LBB123:
 428              	.LBB124:
 429              		.loc 2 60 0
 430              		.syntax divided
 431              	@ 60 "../../tmk_core/tool/chibios/ChibiOS/os/common/ext/CMSIS/include/cmsis_gcc.h" 1
 432 003c 62B6     		cpsie i
 433              	@ 0 "" 2
 434              		.thumb
 435              		.syntax unified
 436              	.LBE124:
 437              	.LBE123:
 438              	.LBE122:
 439              	.LBE121:
 440              	.LBE120:
 441              		.loc 1 149 0
 442              		@ sp needed
 443              	.LVL35:
 444              	.LVL36:
 445 003e 70BD     		pop	{r4, r5, r6, pc}
 446              	.LVL37:
 447              	.L24:
 448              	.LBB126:
 449              	.LBB125:
 450              		.loc 3 395 0
 451 0040 0348     		ldr	r0, .L25+8
 452 0042 FFF7FEFF 		bl	chSysHalt
 453              	.LVL38:
 454 0046 F9E7     		b	.L20
 455              	.L26:
 456              		.align	2
ARM GAS  /var/folders/t8/16hdwfmd2fg_d3q6dgx6bpmw0000gn/T//ccPaAKSn.s 			page 9


 457              	.L25:
 458 0048 00000000 		.word	.LANCHOR2
 459 004c 00000000 		.word	ch
 460 0050 00000000 		.word	.LANCHOR1
 461              	.LBE125:
 462              	.LBE126:
 463              		.cfi_endproc
 464              	.LFE140:
 465              		.size	chMsgRelease, .-chMsgRelease
 466              		.section	.rodata.__func__.5043,"a",%progbits
 467              		.align	2
 468              		.set	.LANCHOR1,. + 0
 469              		.type	__func__.5043, %object
 470              		.size	__func__.5043, 12
 471              	__func__.5043:
 472 0000 63685379 		.ascii	"chSysUnlock\000"
 472      73556E6C 
 472      6F636B00 
 473              		.section	.rodata.__func__.5719,"a",%progbits
 474              		.align	2
 475              		.set	.LANCHOR0,. + 0
 476              		.type	__func__.5719, %object
 477              		.size	__func__.5719, 10
 478              	__func__.5719:
 479 0000 63684D73 		.ascii	"chMsgSend\000"
 479      6753656E 
 479      6400
 480              		.section	.rodata.__func__.5728,"a",%progbits
 481              		.align	2
 482              		.set	.LANCHOR2,. + 0
 483              		.type	__func__.5728, %object
 484              		.size	__func__.5728, 13
 485              	__func__.5728:
 486 0000 63684D73 		.ascii	"chMsgRelease\000"
 486      6752656C 
 486      65617365 
 486      00
 487              		.text
 488              	.Letext0:
 489              		.file 6 "/usr/local/Caskroom/gcc-arm-embedded/7-2017-q4-major/gcc-arm-none-eabi-7-2017-q4-major/ar
 490              		.file 7 "/usr/local/Caskroom/gcc-arm-embedded/7-2017-q4-major/gcc-arm-none-eabi-7-2017-q4-major/ar
 491              		.file 8 "../../tmk_core/tool/chibios/ChibiOS/os/common/ports/ARMCMx/compilers/GCC/chtypes.h"
 492              		.file 9 "../../tmk_core/tool/chibios/ChibiOS/os/rt/include/chsystypes.h"
 493              		.file 10 "../../tmk_core/tool/chibios/ChibiOS/os/common/ports/ARMCMx/chcore.h"
 494              		.file 11 "../../tmk_core/tool/chibios/ChibiOS/os/common/ports/ARMCMx/chcore_v6m.h"
 495              		.file 12 "../../tmk_core/tool/chibios/ChibiOS/os/rt/include/chsem.h"
 496              		.file 13 "../../tmk_core/tool/chibios/ChibiOS/os/rt/include/chmtx.h"
 497              		.file 14 "../../tmk_core/tool/chibios/ChibiOS/os/rt/include/chregistry.h"
 498              		.file 15 "../../tmk_core/tool/chibios/ChibiOS/os/rt/include/chdebug.h"
 499              		.section	.debug_info,"",%progbits
 500              	.Ldebug_info0:
 501 0000 570C0000 		.4byte	0xc57
 502 0004 0400     		.2byte	0x4
 503 0006 00000000 		.4byte	.Ldebug_abbrev0
 504 000a 04       		.byte	0x4
 505 000b 01       		.uleb128 0x1
 506 000c 19000000 		.4byte	.LASF134
ARM GAS  /var/folders/t8/16hdwfmd2fg_d3q6dgx6bpmw0000gn/T//ccPaAKSn.s 			page 10


 507 0010 0C       		.byte	0xc
 508 0011 A1040000 		.4byte	.LASF135
 509 0015 5A040000 		.4byte	.LASF136
 510 0019 98000000 		.4byte	.Ldebug_ranges0+0x98
 511 001d 00000000 		.4byte	0
 512 0021 00000000 		.4byte	.Ldebug_line0
 513 0025 02       		.uleb128 0x2
 514 0026 04       		.byte	0x4
 515 0027 05       		.byte	0x5
 516 0028 696E7400 		.ascii	"int\000"
 517 002c 03       		.uleb128 0x3
 518 002d 04       		.byte	0x4
 519 002e 07       		.byte	0x7
 520 002f 46010000 		.4byte	.LASF0
 521 0033 03       		.uleb128 0x3
 522 0034 01       		.byte	0x1
 523 0035 06       		.byte	0x6
 524 0036 6C060000 		.4byte	.LASF1
 525 003a 04       		.uleb128 0x4
 526 003b 6E050000 		.4byte	.LASF4
 527 003f 06       		.byte	0x6
 528 0040 2B       		.byte	0x2b
 529 0041 45000000 		.4byte	0x45
 530 0045 03       		.uleb128 0x3
 531 0046 01       		.byte	0x1
 532 0047 08       		.byte	0x8
 533 0048 F8050000 		.4byte	.LASF2
 534 004c 03       		.uleb128 0x3
 535 004d 02       		.byte	0x2
 536 004e 05       		.byte	0x5
 537 004f 21050000 		.4byte	.LASF3
 538 0053 04       		.uleb128 0x4
 539 0054 87020000 		.4byte	.LASF5
 540 0058 06       		.byte	0x6
 541 0059 39       		.byte	0x39
 542 005a 5E000000 		.4byte	0x5e
 543 005e 03       		.uleb128 0x3
 544 005f 02       		.byte	0x2
 545 0060 07       		.byte	0x7
 546 0061 7E060000 		.4byte	.LASF6
 547 0065 04       		.uleb128 0x4
 548 0066 6F010000 		.4byte	.LASF7
 549 006a 06       		.byte	0x6
 550 006b 4D       		.byte	0x4d
 551 006c 70000000 		.4byte	0x70
 552 0070 03       		.uleb128 0x3
 553 0071 04       		.byte	0x4
 554 0072 05       		.byte	0x5
 555 0073 2B050000 		.4byte	.LASF8
 556 0077 04       		.uleb128 0x4
 557 0078 06060000 		.4byte	.LASF9
 558 007c 06       		.byte	0x6
 559 007d 4F       		.byte	0x4f
 560 007e 82000000 		.4byte	0x82
 561 0082 03       		.uleb128 0x3
 562 0083 04       		.byte	0x4
 563 0084 07       		.byte	0x7
ARM GAS  /var/folders/t8/16hdwfmd2fg_d3q6dgx6bpmw0000gn/T//ccPaAKSn.s 			page 11


 564 0085 B6050000 		.4byte	.LASF10
 565 0089 03       		.uleb128 0x3
 566 008a 08       		.byte	0x8
 567 008b 05       		.byte	0x5
 568 008c DC030000 		.4byte	.LASF11
 569 0090 04       		.uleb128 0x4
 570 0091 23030000 		.4byte	.LASF12
 571 0095 06       		.byte	0x6
 572 0096 69       		.byte	0x69
 573 0097 9B000000 		.4byte	0x9b
 574 009b 03       		.uleb128 0x3
 575 009c 08       		.byte	0x8
 576 009d 07       		.byte	0x7
 577 009e 70020000 		.4byte	.LASF13
 578 00a2 04       		.uleb128 0x4
 579 00a3 99030000 		.4byte	.LASF14
 580 00a7 07       		.byte	0x7
 581 00a8 18       		.byte	0x18
 582 00a9 3A000000 		.4byte	0x3a
 583 00ad 04       		.uleb128 0x4
 584 00ae FC040000 		.4byte	.LASF15
 585 00b2 07       		.byte	0x7
 586 00b3 24       		.byte	0x24
 587 00b4 53000000 		.4byte	0x53
 588 00b8 04       		.uleb128 0x4
 589 00b9 DB050000 		.4byte	.LASF16
 590 00bd 07       		.byte	0x7
 591 00be 2C       		.byte	0x2c
 592 00bf 65000000 		.4byte	0x65
 593 00c3 04       		.uleb128 0x4
 594 00c4 22020000 		.4byte	.LASF17
 595 00c8 07       		.byte	0x7
 596 00c9 30       		.byte	0x30
 597 00ca 77000000 		.4byte	0x77
 598 00ce 04       		.uleb128 0x4
 599 00cf 5F050000 		.4byte	.LASF18
 600 00d3 07       		.byte	0x7
 601 00d4 3C       		.byte	0x3c
 602 00d5 90000000 		.4byte	0x90
 603 00d9 04       		.uleb128 0x4
 604 00da E1040000 		.4byte	.LASF19
 605 00de 08       		.byte	0x8
 606 00df 3C       		.byte	0x3c
 607 00e0 A2000000 		.4byte	0xa2
 608 00e4 04       		.uleb128 0x4
 609 00e5 90030000 		.4byte	.LASF20
 610 00e9 08       		.byte	0x8
 611 00ea 3D       		.byte	0x3d
 612 00eb A2000000 		.4byte	0xa2
 613 00ef 04       		.uleb128 0x4
 614 00f0 AE050000 		.4byte	.LASF21
 615 00f4 08       		.byte	0x8
 616 00f5 3E       		.byte	0x3e
 617 00f6 A2000000 		.4byte	0xa2
 618 00fa 04       		.uleb128 0x4
 619 00fb 3F040000 		.4byte	.LASF22
 620 00ff 08       		.byte	0x8
ARM GAS  /var/folders/t8/16hdwfmd2fg_d3q6dgx6bpmw0000gn/T//ccPaAKSn.s 			page 12


 621 0100 3F       		.byte	0x3f
 622 0101 A2000000 		.4byte	0xa2
 623 0105 04       		.uleb128 0x4
 624 0106 57020000 		.4byte	.LASF23
 625 010a 08       		.byte	0x8
 626 010b 40       		.byte	0x40
 627 010c C3000000 		.4byte	0xc3
 628 0110 04       		.uleb128 0x4
 629 0111 EF030000 		.4byte	.LASF24
 630 0115 08       		.byte	0x8
 631 0116 41       		.byte	0x41
 632 0117 B8000000 		.4byte	0xb8
 633 011b 04       		.uleb128 0x4
 634 011c 33020000 		.4byte	.LASF25
 635 0120 08       		.byte	0x8
 636 0121 43       		.byte	0x43
 637 0122 C3000000 		.4byte	0xc3
 638 0126 04       		.uleb128 0x4
 639 0127 92020000 		.4byte	.LASF26
 640 012b 08       		.byte	0x8
 641 012c 45       		.byte	0x45
 642 012d B8000000 		.4byte	0xb8
 643 0131 04       		.uleb128 0x4
 644 0132 2A010000 		.4byte	.LASF27
 645 0136 09       		.byte	0x9
 646 0137 33       		.byte	0x33
 647 0138 C3000000 		.4byte	0xc3
 648 013c 05       		.uleb128 0x5
 649 013d 31010000 		.4byte	0x131
 650 0141 04       		.uleb128 0x4
 651 0142 E2020000 		.4byte	.LASF28
 652 0146 09       		.byte	0x9
 653 0147 3F       		.byte	0x3f
 654 0148 4C010000 		.4byte	0x14c
 655 014c 06       		.uleb128 0x6
 656 014d AA030000 		.4byte	.LASF47
 657 0151 44       		.byte	0x44
 658 0152 04       		.byte	0x4
 659 0153 9A       		.byte	0x9a
 660 0154 36020000 		.4byte	0x236
 661 0158 07       		.uleb128 0x7
 662 0159 D5050000 		.4byte	.LASF29
 663 015d 04       		.byte	0x4
 664 015e 9B       		.byte	0x9b
 665 015f 6B020000 		.4byte	0x26b
 666 0163 00       		.byte	0
 667 0164 07       		.uleb128 0x7
 668 0165 5A030000 		.4byte	.LASF30
 669 0169 04       		.byte	0x4
 670 016a 9C       		.byte	0x9c
 671 016b 05010000 		.4byte	0x105
 672 016f 08       		.byte	0x8
 673 0170 08       		.uleb128 0x8
 674 0171 63747800 		.ascii	"ctx\000"
 675 0175 04       		.byte	0x4
 676 0176 9D       		.byte	0x9d
 677 0177 6A040000 		.4byte	0x46a
ARM GAS  /var/folders/t8/16hdwfmd2fg_d3q6dgx6bpmw0000gn/T//ccPaAKSn.s 			page 13


 678 017b 0C       		.byte	0xc
 679 017c 07       		.uleb128 0x7
 680 017d F2050000 		.4byte	.LASF31
 681 0181 04       		.byte	0x4
 682 0182 9F       		.byte	0x9f
 683 0183 41020000 		.4byte	0x241
 684 0187 10       		.byte	0x10
 685 0188 07       		.uleb128 0x7
 686 0189 D8060000 		.4byte	.LASF32
 687 018d 04       		.byte	0x4
 688 018e A0       		.byte	0xa0
 689 018f 41020000 		.4byte	0x241
 690 0193 14       		.byte	0x14
 691 0194 07       		.uleb128 0x7
 692 0195 78050000 		.4byte	.LASF33
 693 0199 04       		.byte	0x4
 694 019a A7       		.byte	0xa7
 695 019b C5050000 		.4byte	0x5c5
 696 019f 18       		.byte	0x18
 697 01a0 07       		.uleb128 0x7
 698 01a1 77030000 		.4byte	.LASF34
 699 01a5 04       		.byte	0x4
 700 01a6 B0       		.byte	0xb0
 701 01a7 DC050000 		.4byte	0x5dc
 702 01ab 1C       		.byte	0x1c
 703 01ac 07       		.uleb128 0x7
 704 01ad 4A060000 		.4byte	.LASF35
 705 01b1 04       		.byte	0x4
 706 01b2 B5       		.byte	0xb5
 707 01b3 E4000000 		.4byte	0xe4
 708 01b7 20       		.byte	0x20
 709 01b8 07       		.uleb128 0x7
 710 01b9 24010000 		.4byte	.LASF36
 711 01bd 04       		.byte	0x4
 712 01be B9       		.byte	0xb9
 713 01bf D9000000 		.4byte	0xd9
 714 01c3 21       		.byte	0x21
 715 01c4 07       		.uleb128 0x7
 716 01c5 79010000 		.4byte	.LASF37
 717 01c9 04       		.byte	0x4
 718 01ca BE       		.byte	0xbe
 719 01cb EF000000 		.4byte	0xef
 720 01cf 22       		.byte	0x22
 721 01d0 07       		.uleb128 0x7
 722 01d1 40050000 		.4byte	.LASF38
 723 01d5 04       		.byte	0x4
 724 01d6 C4       		.byte	0xc4
 725 01d7 FA000000 		.4byte	0xfa
 726 01db 23       		.byte	0x23
 727 01dc 09       		.uleb128 0x9
 728 01dd 7500     		.ascii	"u\000"
 729 01df 04       		.byte	0x4
 730 01e0 0F01     		.2byte	0x10f
 731 01e2 FA040000 		.4byte	0x4fa
 732 01e6 24       		.byte	0x24
 733 01e7 0A       		.uleb128 0xa
 734 01e8 11060000 		.4byte	.LASF39
ARM GAS  /var/folders/t8/16hdwfmd2fg_d3q6dgx6bpmw0000gn/T//ccPaAKSn.s 			page 14


 735 01ec 04       		.byte	0x4
 736 01ed 1401     		.2byte	0x114
 737 01ef 47020000 		.4byte	0x247
 738 01f3 28       		.byte	0x28
 739 01f4 0A       		.uleb128 0xa
 740 01f5 A1030000 		.4byte	.LASF40
 741 01f9 04       		.byte	0x4
 742 01fa 1A01     		.2byte	0x11a
 743 01fc 6B020000 		.4byte	0x26b
 744 0200 2C       		.byte	0x2c
 745 0201 0A       		.uleb128 0xa
 746 0202 3D010000 		.4byte	.LASF41
 747 0206 04       		.byte	0x4
 748 0207 2001     		.2byte	0x120
 749 0209 1B010000 		.4byte	0x11b
 750 020d 34       		.byte	0x34
 751 020e 0A       		.uleb128 0xa
 752 020f C3020000 		.4byte	.LASF42
 753 0213 04       		.byte	0x4
 754 0214 2701     		.2byte	0x127
 755 0216 BF050000 		.4byte	0x5bf
 756 021a 38       		.byte	0x38
 757 021b 0A       		.uleb128 0xa
 758 021c 34010000 		.4byte	.LASF43
 759 0220 04       		.byte	0x4
 760 0221 2B01     		.2byte	0x12b
 761 0223 05010000 		.4byte	0x105
 762 0227 3C       		.byte	0x3c
 763 0228 0A       		.uleb128 0xa
 764 0229 E7060000 		.4byte	.LASF44
 765 022d 04       		.byte	0x4
 766 022e 3201     		.2byte	0x132
 767 0230 1E030000 		.4byte	0x31e
 768 0234 40       		.byte	0x40
 769 0235 00       		.byte	0
 770 0236 04       		.uleb128 0x4
 771 0237 64030000 		.4byte	.LASF45
 772 023b 09       		.byte	0x9
 773 023c 44       		.byte	0x44
 774 023d 41020000 		.4byte	0x241
 775 0241 0B       		.uleb128 0xb
 776 0242 04       		.byte	0x4
 777 0243 41010000 		.4byte	0x141
 778 0247 04       		.uleb128 0x4
 779 0248 60010000 		.4byte	.LASF46
 780 024c 09       		.byte	0x9
 781 024d 49       		.byte	0x49
 782 024e 52020000 		.4byte	0x252
 783 0252 06       		.uleb128 0x6
 784 0253 00000000 		.4byte	.LASF48
 785 0257 04       		.byte	0x4
 786 0258 04       		.byte	0x4
 787 0259 88       		.byte	0x88
 788 025a 6B020000 		.4byte	0x26b
 789 025e 07       		.uleb128 0x7
 790 025f 53010000 		.4byte	.LASF49
 791 0263 04       		.byte	0x4
ARM GAS  /var/folders/t8/16hdwfmd2fg_d3q6dgx6bpmw0000gn/T//ccPaAKSn.s 			page 15


 792 0264 89       		.byte	0x89
 793 0265 41020000 		.4byte	0x241
 794 0269 00       		.byte	0
 795 026a 00       		.byte	0
 796 026b 04       		.uleb128 0x4
 797 026c B3020000 		.4byte	.LASF50
 798 0270 09       		.byte	0x9
 799 0271 50       		.byte	0x50
 800 0272 76020000 		.4byte	0x276
 801 0276 06       		.uleb128 0x6
 802 0277 D5010000 		.4byte	.LASF51
 803 027b 08       		.byte	0x8
 804 027c 04       		.byte	0x4
 805 027d 8F       		.byte	0x8f
 806 027e 9B020000 		.4byte	0x29b
 807 0282 07       		.uleb128 0x7
 808 0283 53010000 		.4byte	.LASF49
 809 0287 04       		.byte	0x4
 810 0288 90       		.byte	0x90
 811 0289 41020000 		.4byte	0x241
 812 028d 00       		.byte	0
 813 028e 07       		.uleb128 0x7
 814 028f D0010000 		.4byte	.LASF52
 815 0293 04       		.byte	0x4
 816 0294 91       		.byte	0x91
 817 0295 41020000 		.4byte	0x241
 818 0299 04       		.byte	0x4
 819 029a 00       		.byte	0
 820 029b 04       		.uleb128 0x4
 821 029c C8050000 		.4byte	.LASF53
 822 02a0 09       		.byte	0x9
 823 02a1 57       		.byte	0x57
 824 02a2 A6020000 		.4byte	0x2a6
 825 02a6 0C       		.uleb128 0xc
 826 02a7 B6010000 		.4byte	.LASF54
 827 02ab 1C       		.byte	0x1c
 828 02ac 04       		.byte	0x4
 829 02ad 6A01     		.2byte	0x16a
 830 02af 02030000 		.4byte	0x302
 831 02b3 0A       		.uleb128 0xa
 832 02b4 D5050000 		.4byte	.LASF29
 833 02b8 04       		.byte	0x4
 834 02b9 6B01     		.2byte	0x16b
 835 02bb 6B020000 		.4byte	0x26b
 836 02bf 00       		.byte	0
 837 02c0 0A       		.uleb128 0xa
 838 02c1 5A030000 		.4byte	.LASF30
 839 02c5 04       		.byte	0x4
 840 02c6 6C01     		.2byte	0x16c
 841 02c8 05010000 		.4byte	0x105
 842 02cc 08       		.byte	0x8
 843 02cd 09       		.uleb128 0x9
 844 02ce 63747800 		.ascii	"ctx\000"
 845 02d2 04       		.byte	0x4
 846 02d3 6E01     		.2byte	0x16e
 847 02d5 6A040000 		.4byte	0x46a
 848 02d9 0C       		.byte	0xc
ARM GAS  /var/folders/t8/16hdwfmd2fg_d3q6dgx6bpmw0000gn/T//ccPaAKSn.s 			page 16


 849 02da 0A       		.uleb128 0xa
 850 02db F2050000 		.4byte	.LASF31
 851 02df 04       		.byte	0x4
 852 02e0 7101     		.2byte	0x171
 853 02e2 41020000 		.4byte	0x241
 854 02e6 10       		.byte	0x10
 855 02e7 0A       		.uleb128 0xa
 856 02e8 D8060000 		.4byte	.LASF32
 857 02ec 04       		.byte	0x4
 858 02ed 7201     		.2byte	0x172
 859 02ef 41020000 		.4byte	0x241
 860 02f3 14       		.byte	0x14
 861 02f4 0A       		.uleb128 0xa
 862 02f5 B2060000 		.4byte	.LASF55
 863 02f9 04       		.byte	0x4
 864 02fa 7501     		.2byte	0x175
 865 02fc 41020000 		.4byte	0x241
 866 0300 18       		.byte	0x18
 867 0301 00       		.byte	0
 868 0302 04       		.uleb128 0x4
 869 0303 F0010000 		.4byte	.LASF56
 870 0307 09       		.byte	0x9
 871 0308 5C       		.byte	0x5c
 872 0309 0D030000 		.4byte	0x30d
 873 030d 0B       		.uleb128 0xb
 874 030e 04       		.byte	0x4
 875 030f 13030000 		.4byte	0x313
 876 0313 0D       		.uleb128 0xd
 877 0314 1E030000 		.4byte	0x31e
 878 0318 0E       		.uleb128 0xe
 879 0319 1E030000 		.4byte	0x31e
 880 031d 00       		.byte	0
 881 031e 0F       		.uleb128 0xf
 882 031f 04       		.byte	0x4
 883 0320 04       		.uleb128 0x4
 884 0321 FF030000 		.4byte	.LASF57
 885 0325 09       		.byte	0x9
 886 0326 61       		.byte	0x61
 887 0327 2B030000 		.4byte	0x32b
 888 032b 0C       		.uleb128 0xc
 889 032c 5F020000 		.4byte	.LASF58
 890 0330 14       		.byte	0x14
 891 0331 04       		.byte	0x4
 892 0332 4501     		.2byte	0x145
 893 0334 7A030000 		.4byte	0x37a
 894 0338 0A       		.uleb128 0xa
 895 0339 53010000 		.4byte	.LASF49
 896 033d 04       		.byte	0x4
 897 033e 4601     		.2byte	0x146
 898 0340 E2050000 		.4byte	0x5e2
 899 0344 00       		.byte	0
 900 0345 0A       		.uleb128 0xa
 901 0346 D0010000 		.4byte	.LASF52
 902 034a 04       		.byte	0x4
 903 034b 4701     		.2byte	0x147
 904 034d E2050000 		.4byte	0x5e2
 905 0351 04       		.byte	0x4
ARM GAS  /var/folders/t8/16hdwfmd2fg_d3q6dgx6bpmw0000gn/T//ccPaAKSn.s 			page 17


 906 0352 0A       		.uleb128 0xa
 907 0353 78060000 		.4byte	.LASF59
 908 0357 04       		.byte	0x4
 909 0358 4801     		.2byte	0x148
 910 035a 31010000 		.4byte	0x131
 911 035e 08       		.byte	0x8
 912 035f 0A       		.uleb128 0xa
 913 0360 C4010000 		.4byte	.LASF60
 914 0364 04       		.byte	0x4
 915 0365 4901     		.2byte	0x149
 916 0367 02030000 		.4byte	0x302
 917 036b 0C       		.byte	0xc
 918 036c 09       		.uleb128 0x9
 919 036d 70617200 		.ascii	"par\000"
 920 0371 04       		.byte	0x4
 921 0372 4B01     		.2byte	0x14b
 922 0374 1E030000 		.4byte	0x31e
 923 0378 10       		.byte	0x10
 924 0379 00       		.byte	0
 925 037a 04       		.uleb128 0x4
 926 037b 19060000 		.4byte	.LASF61
 927 037f 09       		.byte	0x9
 928 0380 66       		.byte	0x66
 929 0381 85030000 		.4byte	0x385
 930 0385 0C       		.uleb128 0xc
 931 0386 CB020000 		.4byte	.LASF62
 932 038a 10       		.byte	0x10
 933 038b 04       		.byte	0x4
 934 038c 5501     		.2byte	0x155
 935 038e C7030000 		.4byte	0x3c7
 936 0392 0A       		.uleb128 0xa
 937 0393 53010000 		.4byte	.LASF49
 938 0397 04       		.byte	0x4
 939 0398 5601     		.2byte	0x156
 940 039a E2050000 		.4byte	0x5e2
 941 039e 00       		.byte	0
 942 039f 0A       		.uleb128 0xa
 943 03a0 D0010000 		.4byte	.LASF52
 944 03a4 04       		.byte	0x4
 945 03a5 5801     		.2byte	0x158
 946 03a7 E2050000 		.4byte	0x5e2
 947 03ab 04       		.byte	0x4
 948 03ac 0A       		.uleb128 0xa
 949 03ad 78060000 		.4byte	.LASF59
 950 03b1 04       		.byte	0x4
 951 03b2 5A01     		.2byte	0x15a
 952 03b4 31010000 		.4byte	0x131
 953 03b8 08       		.byte	0x8
 954 03b9 0A       		.uleb128 0xa
 955 03ba E9040000 		.4byte	.LASF63
 956 03be 04       		.byte	0x4
 957 03bf 5C01     		.2byte	0x15c
 958 03c1 3C010000 		.4byte	0x13c
 959 03c5 0C       		.byte	0xc
 960 03c6 00       		.byte	0
 961 03c7 04       		.uleb128 0x4
 962 03c8 BD030000 		.4byte	.LASF64
ARM GAS  /var/folders/t8/16hdwfmd2fg_d3q6dgx6bpmw0000gn/T//ccPaAKSn.s 			page 18


 963 03cc 09       		.byte	0x9
 964 03cd 6B       		.byte	0x6b
 965 03ce D2030000 		.4byte	0x3d2
 966 03d2 0C       		.uleb128 0xc
 967 03d3 12020000 		.4byte	.LASF65
 968 03d7 0C       		.byte	0xc
 969 03d8 04       		.byte	0x4
 970 03d9 7C01     		.2byte	0x17c
 971 03db 07040000 		.4byte	0x407
 972 03df 0A       		.uleb128 0xa
 973 03e0 D7040000 		.4byte	.LASF66
 974 03e4 04       		.byte	0x4
 975 03e5 8401     		.2byte	0x184
 976 03e7 CB050000 		.4byte	0x5cb
 977 03eb 00       		.byte	0
 978 03ec 0A       		.uleb128 0xa
 979 03ed A5020000 		.4byte	.LASF67
 980 03f1 04       		.byte	0x4
 981 03f2 8901     		.2byte	0x189
 982 03f4 26010000 		.4byte	0x126
 983 03f8 04       		.byte	0x4
 984 03f9 0A       		.uleb128 0xa
 985 03fa 18050000 		.4byte	.LASF68
 986 03fe 04       		.byte	0x4
 987 03ff 8D01     		.2byte	0x18d
 988 0401 26010000 		.4byte	0x126
 989 0405 08       		.byte	0x8
 990 0406 00       		.byte	0
 991 0407 04       		.uleb128 0x4
 992 0408 5A060000 		.4byte	.LASF69
 993 040c 09       		.byte	0x9
 994 040d 70       		.byte	0x70
 995 040e 12040000 		.4byte	0x412
 996 0412 0C       		.uleb128 0xc
 997 0413 55050000 		.4byte	.LASF70
 998 0417 7C       		.byte	0x7c
 999 0418 04       		.byte	0x4
 1000 0419 9C01     		.2byte	0x19c
 1001 041b 54040000 		.4byte	0x454
 1002 041f 0A       		.uleb128 0xa
 1003 0420 68050000 		.4byte	.LASF71
 1004 0424 04       		.byte	0x4
 1005 0425 A001     		.2byte	0x1a0
 1006 0427 9B020000 		.4byte	0x29b
 1007 042b 00       		.byte	0
 1008 042c 0A       		.uleb128 0xa
 1009 042d A2010000 		.4byte	.LASF72
 1010 0431 04       		.byte	0x4
 1011 0432 A401     		.2byte	0x1a4
 1012 0434 7A030000 		.4byte	0x37a
 1013 0438 1C       		.byte	0x1c
 1014 0439 09       		.uleb128 0x9
 1015 043a 64626700 		.ascii	"dbg\000"
 1016 043e 04       		.byte	0x4
 1017 043f A801     		.2byte	0x1a8
 1018 0441 C7030000 		.4byte	0x3c7
 1019 0445 2C       		.byte	0x2c
ARM GAS  /var/folders/t8/16hdwfmd2fg_d3q6dgx6bpmw0000gn/T//ccPaAKSn.s 			page 19


 1020 0446 0A       		.uleb128 0xa
 1021 0447 F1040000 		.4byte	.LASF73
 1022 044b 04       		.byte	0x4
 1023 044c AC01     		.2byte	0x1ac
 1024 044e 41010000 		.4byte	0x141
 1025 0452 38       		.byte	0x38
 1026 0453 00       		.byte	0
 1027 0454 04       		.uleb128 0x4
 1028 0455 1B010000 		.4byte	.LASF74
 1029 0459 0A       		.byte	0xa
 1030 045a 65       		.byte	0x65
 1031 045b 1E030000 		.4byte	0x31e
 1032 045f 04       		.uleb128 0x4
 1033 0460 9E060000 		.4byte	.LASF75
 1034 0464 0A       		.byte	0xa
 1035 0465 6D       		.byte	0x6d
 1036 0466 CE000000 		.4byte	0xce
 1037 046a 06       		.uleb128 0x6
 1038 046b A9010000 		.4byte	.LASF76
 1039 046f 04       		.byte	0x4
 1040 0470 0A       		.byte	0xa
 1041 0471 89       		.byte	0x89
 1042 0472 82040000 		.4byte	0x482
 1043 0476 08       		.uleb128 0x8
 1044 0477 737000   		.ascii	"sp\000"
 1045 047a 0A       		.byte	0xa
 1046 047b 8A       		.byte	0x8a
 1047 047c F4040000 		.4byte	0x4f4
 1048 0480 00       		.byte	0
 1049 0481 00       		.byte	0
 1050 0482 06       		.uleb128 0x6
 1051 0483 34050000 		.4byte	.LASF77
 1052 0487 24       		.byte	0x24
 1053 0488 0B       		.byte	0xb
 1054 0489 C3       		.byte	0xc3
 1055 048a F4040000 		.4byte	0x4f4
 1056 048e 08       		.uleb128 0x8
 1057 048f 723800   		.ascii	"r8\000"
 1058 0492 0B       		.byte	0xb
 1059 0493 C4       		.byte	0xc4
 1060 0494 54040000 		.4byte	0x454
 1061 0498 00       		.byte	0
 1062 0499 08       		.uleb128 0x8
 1063 049a 723900   		.ascii	"r9\000"
 1064 049d 0B       		.byte	0xb
 1065 049e C5       		.byte	0xc5
 1066 049f 54040000 		.4byte	0x454
 1067 04a3 04       		.byte	0x4
 1068 04a4 08       		.uleb128 0x8
 1069 04a5 72313000 		.ascii	"r10\000"
 1070 04a9 0B       		.byte	0xb
 1071 04aa C6       		.byte	0xc6
 1072 04ab 54040000 		.4byte	0x454
 1073 04af 08       		.byte	0x8
 1074 04b0 08       		.uleb128 0x8
 1075 04b1 72313100 		.ascii	"r11\000"
 1076 04b5 0B       		.byte	0xb
ARM GAS  /var/folders/t8/16hdwfmd2fg_d3q6dgx6bpmw0000gn/T//ccPaAKSn.s 			page 20


 1077 04b6 C7       		.byte	0xc7
 1078 04b7 54040000 		.4byte	0x454
 1079 04bb 0C       		.byte	0xc
 1080 04bc 08       		.uleb128 0x8
 1081 04bd 723400   		.ascii	"r4\000"
 1082 04c0 0B       		.byte	0xb
 1083 04c1 C8       		.byte	0xc8
 1084 04c2 54040000 		.4byte	0x454
 1085 04c6 10       		.byte	0x10
 1086 04c7 08       		.uleb128 0x8
 1087 04c8 723500   		.ascii	"r5\000"
 1088 04cb 0B       		.byte	0xb
 1089 04cc C9       		.byte	0xc9
 1090 04cd 54040000 		.4byte	0x454
 1091 04d1 14       		.byte	0x14
 1092 04d2 08       		.uleb128 0x8
 1093 04d3 723600   		.ascii	"r6\000"
 1094 04d6 0B       		.byte	0xb
 1095 04d7 CA       		.byte	0xca
 1096 04d8 54040000 		.4byte	0x454
 1097 04dc 18       		.byte	0x18
 1098 04dd 08       		.uleb128 0x8
 1099 04de 723700   		.ascii	"r7\000"
 1100 04e1 0B       		.byte	0xb
 1101 04e2 CB       		.byte	0xcb
 1102 04e3 54040000 		.4byte	0x454
 1103 04e7 1C       		.byte	0x1c
 1104 04e8 08       		.uleb128 0x8
 1105 04e9 6C7200   		.ascii	"lr\000"
 1106 04ec 0B       		.byte	0xb
 1107 04ed CC       		.byte	0xcc
 1108 04ee 54040000 		.4byte	0x454
 1109 04f2 20       		.byte	0x20
 1110 04f3 00       		.byte	0
 1111 04f4 0B       		.uleb128 0xb
 1112 04f5 04       		.byte	0x4
 1113 04f6 82040000 		.4byte	0x482
 1114 04fa 10       		.uleb128 0x10
 1115 04fb 04       		.byte	0x4
 1116 04fc 04       		.byte	0x4
 1117 04fd D2       		.byte	0xd2
 1118 04fe 5D050000 		.4byte	0x55d
 1119 0502 11       		.uleb128 0x11
 1120 0503 FF020000 		.4byte	.LASF78
 1121 0507 04       		.byte	0x4
 1122 0508 D9       		.byte	0xd9
 1123 0509 10010000 		.4byte	0x110
 1124 050d 11       		.uleb128 0x11
 1125 050e DE060000 		.4byte	.LASF79
 1126 0512 04       		.byte	0x4
 1127 0513 E0       		.byte	0xe0
 1128 0514 10010000 		.4byte	0x110
 1129 0518 11       		.uleb128 0x11
 1130 0519 91010000 		.4byte	.LASF80
 1131 051d 04       		.byte	0x4
 1132 051e E7       		.byte	0xe7
 1133 051f 1E030000 		.4byte	0x31e
ARM GAS  /var/folders/t8/16hdwfmd2fg_d3q6dgx6bpmw0000gn/T//ccPaAKSn.s 			page 21


 1134 0523 11       		.uleb128 0x11
 1135 0524 66060000 		.4byte	.LASF81
 1136 0528 04       		.byte	0x4
 1137 0529 EE       		.byte	0xee
 1138 052a 5D050000 		.4byte	0x55d
 1139 052e 11       		.uleb128 0x11
 1140 052f 2B020000 		.4byte	.LASF82
 1141 0533 04       		.byte	0x4
 1142 0534 F3       		.byte	0xf3
 1143 0535 10010000 		.4byte	0x110
 1144 0539 11       		.uleb128 0x11
 1145 053a E3050000 		.4byte	.LASF83
 1146 053e 04       		.byte	0x4
 1147 053f FC       		.byte	0xfc
 1148 0540 88050000 		.4byte	0x588
 1149 0544 12       		.uleb128 0x12
 1150 0545 02010000 		.4byte	.LASF84
 1151 0549 04       		.byte	0x4
 1152 054a 0501     		.2byte	0x105
 1153 054c BF050000 		.4byte	0x5bf
 1154 0550 12       		.uleb128 0x12
 1155 0551 C9010000 		.4byte	.LASF85
 1156 0555 04       		.byte	0x4
 1157 0556 0D01     		.2byte	0x10d
 1158 0558 1B010000 		.4byte	0x11b
 1159 055c 00       		.byte	0
 1160 055d 0B       		.uleb128 0xb
 1161 055e 04       		.byte	0x4
 1162 055f 36020000 		.4byte	0x236
 1163 0563 06       		.uleb128 0x6
 1164 0564 4A020000 		.4byte	.LASF86
 1165 0568 0C       		.byte	0xc
 1166 0569 0C       		.byte	0xc
 1167 056a 34       		.byte	0x34
 1168 056b 88050000 		.4byte	0x588
 1169 056f 07       		.uleb128 0x7
 1170 0570 D5050000 		.4byte	.LASF29
 1171 0574 0C       		.byte	0xc
 1172 0575 35       		.byte	0x35
 1173 0576 6B020000 		.4byte	0x26b
 1174 057a 00       		.byte	0
 1175 057b 08       		.uleb128 0x8
 1176 057c 636E7400 		.ascii	"cnt\000"
 1177 0580 0C       		.byte	0xc
 1178 0581 37       		.byte	0x37
 1179 0582 26010000 		.4byte	0x126
 1180 0586 08       		.byte	0x8
 1181 0587 00       		.byte	0
 1182 0588 0B       		.uleb128 0xb
 1183 0589 04       		.byte	0x4
 1184 058a 63050000 		.4byte	0x563
 1185 058e 06       		.uleb128 0x6
 1186 058f 1A030000 		.4byte	.LASF87
 1187 0593 10       		.byte	0x10
 1188 0594 0D       		.byte	0xd
 1189 0595 39       		.byte	0x39
 1190 0596 BF050000 		.4byte	0x5bf
ARM GAS  /var/folders/t8/16hdwfmd2fg_d3q6dgx6bpmw0000gn/T//ccPaAKSn.s 			page 22


 1191 059a 07       		.uleb128 0x7
 1192 059b D5050000 		.4byte	.LASF29
 1193 059f 0D       		.byte	0xd
 1194 05a0 3A       		.byte	0x3a
 1195 05a1 6B020000 		.4byte	0x26b
 1196 05a5 00       		.byte	0
 1197 05a6 07       		.uleb128 0x7
 1198 05a7 AD020000 		.4byte	.LASF88
 1199 05ab 0D       		.byte	0xd
 1200 05ac 3C       		.byte	0x3c
 1201 05ad 41020000 		.4byte	0x241
 1202 05b1 08       		.byte	0x8
 1203 05b2 07       		.uleb128 0x7
 1204 05b3 53010000 		.4byte	.LASF49
 1205 05b7 0D       		.byte	0xd
 1206 05b8 3E       		.byte	0x3e
 1207 05b9 21070000 		.4byte	0x721
 1208 05bd 0C       		.byte	0xc
 1209 05be 00       		.byte	0
 1210 05bf 0B       		.uleb128 0xb
 1211 05c0 04       		.byte	0x4
 1212 05c1 8E050000 		.4byte	0x58e
 1213 05c5 0B       		.uleb128 0xb
 1214 05c6 04       		.byte	0x4
 1215 05c7 D7050000 		.4byte	0x5d7
 1216 05cb 05       		.uleb128 0x5
 1217 05cc C5050000 		.4byte	0x5c5
 1218 05d0 03       		.uleb128 0x3
 1219 05d1 01       		.byte	0x1
 1220 05d2 08       		.byte	0x8
 1221 05d3 5F030000 		.4byte	.LASF89
 1222 05d7 13       		.uleb128 0x13
 1223 05d8 D0050000 		.4byte	0x5d0
 1224 05dc 0B       		.uleb128 0xb
 1225 05dd 04       		.byte	0x4
 1226 05de 5F040000 		.4byte	0x45f
 1227 05e2 0B       		.uleb128 0xb
 1228 05e3 04       		.byte	0x4
 1229 05e4 20030000 		.4byte	0x320
 1230 05e8 14       		.uleb128 0x14
 1231 05e9 636800   		.ascii	"ch\000"
 1232 05ec 04       		.byte	0x4
 1233 05ed D201     		.2byte	0x1d2
 1234 05ef 07040000 		.4byte	0x407
 1235 05f3 15       		.uleb128 0x15
 1236 05f4 5F040000 		.4byte	0x45f
 1237 05f8 FE050000 		.4byte	0x5fe
 1238 05fc 16       		.uleb128 0x16
 1239 05fd 00       		.byte	0
 1240 05fe 17       		.uleb128 0x17
 1241 05ff 7E030000 		.4byte	.LASF90
 1242 0603 03       		.byte	0x3
 1243 0604 2B01     		.2byte	0x12b
 1244 0606 F3050000 		.4byte	0x5f3
 1245 060a 18       		.uleb128 0x18
 1246 060b 16       		.byte	0x16
 1247 060c 0E       		.byte	0xe
ARM GAS  /var/folders/t8/16hdwfmd2fg_d3q6dgx6bpmw0000gn/T//ccPaAKSn.s 			page 23


 1248 060d 34       		.byte	0x34
 1249 060e EB060000 		.4byte	0x6eb
 1250 0612 07       		.uleb128 0x7
 1251 0613 8B050000 		.4byte	.LASF91
 1252 0617 0E       		.byte	0xe
 1253 0618 35       		.byte	0x35
 1254 0619 EB060000 		.4byte	0x6eb
 1255 061d 00       		.byte	0
 1256 061e 07       		.uleb128 0x7
 1257 061f EA030000 		.4byte	.LASF92
 1258 0623 0E       		.byte	0xe
 1259 0624 36       		.byte	0x36
 1260 0625 A2000000 		.4byte	0xa2
 1261 0629 04       		.byte	0x4
 1262 062a 07       		.uleb128 0x7
 1263 062b 21040000 		.4byte	.LASF93
 1264 062f 0E       		.byte	0xe
 1265 0630 37       		.byte	0x37
 1266 0631 A2000000 		.4byte	0xa2
 1267 0635 05       		.byte	0x5
 1268 0636 07       		.uleb128 0x7
 1269 0637 58010000 		.4byte	.LASF94
 1270 063b 0E       		.byte	0xe
 1271 063c 38       		.byte	0x38
 1272 063d AD000000 		.4byte	0xad
 1273 0641 06       		.byte	0x6
 1274 0642 07       		.uleb128 0x7
 1275 0643 26040000 		.4byte	.LASF95
 1276 0647 0E       		.byte	0xe
 1277 0648 39       		.byte	0x39
 1278 0649 A2000000 		.4byte	0xa2
 1279 064d 08       		.byte	0x8
 1280 064e 07       		.uleb128 0x7
 1281 064f 10000000 		.4byte	.LASF96
 1282 0653 0E       		.byte	0xe
 1283 0654 3A       		.byte	0x3a
 1284 0655 A2000000 		.4byte	0xa2
 1285 0659 09       		.byte	0x9
 1286 065a 07       		.uleb128 0x7
 1287 065b 3F020000 		.4byte	.LASF97
 1288 065f 0E       		.byte	0xe
 1289 0660 3B       		.byte	0x3b
 1290 0661 A2000000 		.4byte	0xa2
 1291 0665 0A       		.byte	0xa
 1292 0666 07       		.uleb128 0x7
 1293 0667 0F050000 		.4byte	.LASF98
 1294 066b 0E       		.byte	0xe
 1295 066c 3C       		.byte	0x3c
 1296 066d A2000000 		.4byte	0xa2
 1297 0671 0B       		.byte	0xb
 1298 0672 07       		.uleb128 0x7
 1299 0673 2E030000 		.4byte	.LASF99
 1300 0677 0E       		.byte	0xe
 1301 0678 3D       		.byte	0x3d
 1302 0679 A2000000 		.4byte	0xa2
 1303 067d 0C       		.byte	0xc
 1304 067e 07       		.uleb128 0x7
ARM GAS  /var/folders/t8/16hdwfmd2fg_d3q6dgx6bpmw0000gn/T//ccPaAKSn.s 			page 24


 1305 067f E6010000 		.4byte	.LASF100
 1306 0683 0E       		.byte	0xe
 1307 0684 3E       		.byte	0x3e
 1308 0685 A2000000 		.4byte	0xa2
 1309 0689 0D       		.byte	0xd
 1310 068a 07       		.uleb128 0x7
 1311 068b EB020000 		.4byte	.LASF101
 1312 068f 0E       		.byte	0xe
 1313 0690 3F       		.byte	0x3f
 1314 0691 A2000000 		.4byte	0xa2
 1315 0695 0E       		.byte	0xe
 1316 0696 07       		.uleb128 0x7
 1317 0697 B4030000 		.4byte	.LASF102
 1318 069b 0E       		.byte	0xe
 1319 069c 40       		.byte	0x40
 1320 069d A2000000 		.4byte	0xa2
 1321 06a1 0F       		.byte	0xf
 1322 06a2 07       		.uleb128 0x7
 1323 06a3 98020000 		.4byte	.LASF103
 1324 06a7 0E       		.byte	0xe
 1325 06a8 41       		.byte	0x41
 1326 06a9 A2000000 		.4byte	0xa2
 1327 06ad 10       		.byte	0x10
 1328 06ae 07       		.uleb128 0x7
 1329 06af F5020000 		.4byte	.LASF104
 1330 06b3 0E       		.byte	0xe
 1331 06b4 42       		.byte	0x42
 1332 06b5 A2000000 		.4byte	0xa2
 1333 06b9 11       		.byte	0x11
 1334 06ba 07       		.uleb128 0x7
 1335 06bb 50030000 		.4byte	.LASF105
 1336 06bf 0E       		.byte	0xe
 1337 06c0 43       		.byte	0x43
 1338 06c1 A2000000 		.4byte	0xa2
 1339 06c5 12       		.byte	0x12
 1340 06c6 07       		.uleb128 0x7
 1341 06c7 A9060000 		.4byte	.LASF106
 1342 06cb 0E       		.byte	0xe
 1343 06cc 44       		.byte	0x44
 1344 06cd A2000000 		.4byte	0xa2
 1345 06d1 13       		.byte	0x13
 1346 06d2 07       		.uleb128 0x7
 1347 06d3 96050000 		.4byte	.LASF107
 1348 06d7 0E       		.byte	0xe
 1349 06d8 45       		.byte	0x45
 1350 06d9 A2000000 		.4byte	0xa2
 1351 06dd 14       		.byte	0x14
 1352 06de 07       		.uleb128 0x7
 1353 06df 88010000 		.4byte	.LASF108
 1354 06e3 0E       		.byte	0xe
 1355 06e4 46       		.byte	0x46
 1356 06e5 A2000000 		.4byte	0xa2
 1357 06e9 15       		.byte	0x15
 1358 06ea 00       		.byte	0
 1359 06eb 15       		.uleb128 0x15
 1360 06ec D0050000 		.4byte	0x5d0
 1361 06f0 FB060000 		.4byte	0x6fb
ARM GAS  /var/folders/t8/16hdwfmd2fg_d3q6dgx6bpmw0000gn/T//ccPaAKSn.s 			page 25


 1362 06f4 19       		.uleb128 0x19
 1363 06f5 2C000000 		.4byte	0x2c
 1364 06f9 03       		.byte	0x3
 1365 06fa 00       		.byte	0
 1366 06fb 04       		.uleb128 0x4
 1367 06fc 05050000 		.4byte	.LASF109
 1368 0700 0E       		.byte	0xe
 1369 0701 47       		.byte	0x47
 1370 0702 0A060000 		.4byte	0x60a
 1371 0706 13       		.uleb128 0x13
 1372 0707 FB060000 		.4byte	0x6fb
 1373 070b 1A       		.uleb128 0x1a
 1374 070c C3060000 		.4byte	.LASF110
 1375 0710 0E       		.byte	0xe
 1376 0711 6C       		.byte	0x6c
 1377 0712 06070000 		.4byte	0x706
 1378 0716 04       		.uleb128 0x4
 1379 0717 EA050000 		.4byte	.LASF111
 1380 071b 0D       		.byte	0xd
 1381 071c 34       		.byte	0x34
 1382 071d 8E050000 		.4byte	0x58e
 1383 0721 0B       		.uleb128 0xb
 1384 0722 04       		.byte	0x4
 1385 0723 16070000 		.4byte	0x716
 1386 0727 1B       		.uleb128 0x1b
 1387 0728 F9010000 		.4byte	.LASF137
 1388 072c 01       		.byte	0x1
 1389 072d 8F       		.byte	0x8f
 1390 072e 00000000 		.4byte	.LFB140
 1391 0732 54000000 		.4byte	.LFE140-.LFB140
 1392 0736 01       		.uleb128 0x1
 1393 0737 9C       		.byte	0x9c
 1394 0738 63080000 		.4byte	0x863
 1395 073c 1C       		.uleb128 0x1c
 1396 073d 747000   		.ascii	"tp\000"
 1397 0740 01       		.byte	0x1
 1398 0741 8F       		.byte	0x8f
 1399 0742 41020000 		.4byte	0x241
 1400 0746 00000000 		.4byte	.LLST8
 1401 074a 1C       		.uleb128 0x1c
 1402 074b 6D736700 		.ascii	"msg\000"
 1403 074f 01       		.byte	0x1
 1404 0750 8F       		.byte	0x8f
 1405 0751 10010000 		.4byte	0x110
 1406 0755 37000000 		.4byte	.LLST9
 1407 0759 1D       		.uleb128 0x1d
 1408 075a BA060000 		.4byte	.LASF112
 1409 075e 73080000 		.4byte	0x873
 1410 0762 05       		.uleb128 0x5
 1411 0763 03       		.byte	0x3
 1412 0764 00000000 		.4byte	__func__.5728
 1413 0768 1E       		.uleb128 0x1e
 1414 0769 7F0B0000 		.4byte	0xb7f
 1415 076d 06000000 		.4byte	.LBB113
 1416 0771 06000000 		.4byte	.LBE113-.LBB113
 1417 0775 01       		.byte	0x1
 1418 0776 91       		.byte	0x91
ARM GAS  /var/folders/t8/16hdwfmd2fg_d3q6dgx6bpmw0000gn/T//ccPaAKSn.s 			page 26


 1419 0777 AA070000 		.4byte	0x7aa
 1420 077b 1F       		.uleb128 0x1f
 1421 077c E50B0000 		.4byte	0xbe5
 1422 0780 06000000 		.4byte	.LBB115
 1423 0784 02000000 		.4byte	.LBE115-.LBB115
 1424 0788 03       		.byte	0x3
 1425 0789 7801     		.2byte	0x178
 1426 078b A0070000 		.4byte	0x7a0
 1427 078f 20       		.uleb128 0x20
 1428 0790 EE0B0000 		.4byte	0xbee
 1429 0794 06000000 		.4byte	.LBB116
 1430 0798 02000000 		.4byte	.LBE116-.LBB116
 1431 079c 0B       		.byte	0xb
 1432 079d 7501     		.2byte	0x175
 1433 079f 00       		.byte	0
 1434 07a0 21       		.uleb128 0x21
 1435 07a1 0C000000 		.4byte	.LVL30
 1436 07a5 FE0B0000 		.4byte	0xbfe
 1437 07a9 00       		.byte	0
 1438 07aa 1E       		.uleb128 0x1e
 1439 07ab 0B0B0000 		.4byte	0xb0b
 1440 07af 1A000000 		.4byte	.LBB118
 1441 07b3 0C000000 		.4byte	.LBE118-.LBB118
 1442 07b7 01       		.byte	0x1
 1443 07b8 93       		.byte	0x93
 1444 07b9 EF070000 		.4byte	0x7ef
 1445 07bd 22       		.uleb128 0x22
 1446 07be 210B0000 		.4byte	0xb21
 1447 07c2 6E000000 		.4byte	.LLST10
 1448 07c6 22       		.uleb128 0x22
 1449 07c7 170B0000 		.4byte	0xb17
 1450 07cb 81000000 		.4byte	.LLST11
 1451 07cf 21       		.uleb128 0x21
 1452 07d0 1E000000 		.4byte	.LVL32
 1453 07d4 090C0000 		.4byte	0xc09
 1454 07d8 23       		.uleb128 0x23
 1455 07d9 26000000 		.4byte	.LVL33
 1456 07dd 140C0000 		.4byte	0xc14
 1457 07e1 24       		.uleb128 0x24
 1458 07e2 01       		.uleb128 0x1
 1459 07e3 50       		.byte	0x50
 1460 07e4 02       		.uleb128 0x2
 1461 07e5 74       		.byte	0x74
 1462 07e6 00       		.sleb128 0
 1463 07e7 24       		.uleb128 0x24
 1464 07e8 01       		.uleb128 0x1
 1465 07e9 51       		.byte	0x51
 1466 07ea 02       		.uleb128 0x2
 1467 07eb 75       		.byte	0x75
 1468 07ec 00       		.sleb128 0
 1469 07ed 00       		.byte	0
 1470 07ee 00       		.byte	0
 1471 07ef 25       		.uleb128 0x25
 1472 07f0 4F0B0000 		.4byte	0xb4f
 1473 07f4 26000000 		.4byte	.LBB120
 1474 07f8 80000000 		.4byte	.Ldebug_ranges0+0x80
 1475 07fc 01       		.byte	0x1
ARM GAS  /var/folders/t8/16hdwfmd2fg_d3q6dgx6bpmw0000gn/T//ccPaAKSn.s 			page 27


 1476 07fd 94       		.byte	0x94
 1477 07fe 4F080000 		.4byte	0x84f
 1478 0802 26       		.uleb128 0x26
 1479 0803 80000000 		.4byte	.Ldebug_ranges0+0x80
 1480 0807 27       		.uleb128 0x27
 1481 0808 5C0B0000 		.4byte	0xb5c
 1482 080c 1F       		.uleb128 0x1f
 1483 080d DC0B0000 		.4byte	0xbdc
 1484 0811 3C000000 		.4byte	.LBB122
 1485 0815 02000000 		.4byte	.LBE122-.LBB122
 1486 0819 03       		.byte	0x3
 1487 081a 8F01     		.2byte	0x18f
 1488 081c 31080000 		.4byte	0x831
 1489 0820 20       		.uleb128 0x20
 1490 0821 F60B0000 		.4byte	0xbf6
 1491 0825 3C000000 		.4byte	.LBB123
 1492 0829 02000000 		.4byte	.LBE123-.LBB123
 1493 082d 0B       		.byte	0xb
 1494 082e 7E01     		.2byte	0x17e
 1495 0830 00       		.byte	0
 1496 0831 21       		.uleb128 0x21
 1497 0832 2A000000 		.4byte	.LVL34
 1498 0836 200C0000 		.4byte	0xc20
 1499 083a 23       		.uleb128 0x23
 1500 083b 46000000 		.4byte	.LVL38
 1501 083f 2B0C0000 		.4byte	0xc2b
 1502 0843 24       		.uleb128 0x24
 1503 0844 01       		.uleb128 0x1
 1504 0845 50       		.byte	0x50
 1505 0846 05       		.uleb128 0x5
 1506 0847 03       		.byte	0x3
 1507 0848 00000000 		.4byte	.LANCHOR1
 1508 084c 00       		.byte	0
 1509 084d 00       		.byte	0
 1510 084e 00       		.byte	0
 1511 084f 23       		.uleb128 0x23
 1512 0850 1A000000 		.4byte	.LVL31
 1513 0854 2B0C0000 		.4byte	0xc2b
 1514 0858 24       		.uleb128 0x24
 1515 0859 01       		.uleb128 0x1
 1516 085a 50       		.byte	0x50
 1517 085b 05       		.uleb128 0x5
 1518 085c 03       		.byte	0x3
 1519 085d 00000000 		.4byte	.LANCHOR2
 1520 0861 00       		.byte	0
 1521 0862 00       		.byte	0
 1522 0863 15       		.uleb128 0x15
 1523 0864 D7050000 		.4byte	0x5d7
 1524 0868 73080000 		.4byte	0x873
 1525 086c 19       		.uleb128 0x19
 1526 086d 2C000000 		.4byte	0x2c
 1527 0871 0C       		.byte	0xc
 1528 0872 00       		.byte	0
 1529 0873 13       		.uleb128 0x13
 1530 0874 63080000 		.4byte	0x863
 1531 0878 28       		.uleb128 0x28
 1532 0879 F5030000 		.4byte	.LASF113
ARM GAS  /var/folders/t8/16hdwfmd2fg_d3q6dgx6bpmw0000gn/T//ccPaAKSn.s 			page 28


 1533 087d 01       		.byte	0x1
 1534 087e 77       		.byte	0x77
 1535 087f 41020000 		.4byte	0x241
 1536 0883 00000000 		.4byte	.LFB139
 1537 0887 60000000 		.4byte	.LFE139-.LFB139
 1538 088b 01       		.uleb128 0x1
 1539 088c 9C       		.byte	0x9c
 1540 088d 9F090000 		.4byte	0x99f
 1541 0891 29       		.uleb128 0x29
 1542 0892 747000   		.ascii	"tp\000"
 1543 0895 01       		.byte	0x1
 1544 0896 78       		.byte	0x78
 1545 0897 41020000 		.4byte	0x241
 1546 089b 1E       		.uleb128 0x1e
 1547 089c 7F0B0000 		.4byte	0xb7f
 1548 08a0 02000000 		.4byte	.LBB81
 1549 08a4 06000000 		.4byte	.LBE81-.LBB81
 1550 08a8 01       		.byte	0x1
 1551 08a9 7A       		.byte	0x7a
 1552 08aa DD080000 		.4byte	0x8dd
 1553 08ae 1F       		.uleb128 0x1f
 1554 08af E50B0000 		.4byte	0xbe5
 1555 08b3 02000000 		.4byte	.LBB83
 1556 08b7 02000000 		.4byte	.LBE83-.LBB83
 1557 08bb 03       		.byte	0x3
 1558 08bc 7801     		.2byte	0x178
 1559 08be D3080000 		.4byte	0x8d3
 1560 08c2 20       		.uleb128 0x20
 1561 08c3 EE0B0000 		.4byte	0xbee
 1562 08c7 02000000 		.4byte	.LBB84
 1563 08cb 02000000 		.4byte	.LBE84-.LBB84
 1564 08cf 0B       		.byte	0xb
 1565 08d0 7501     		.2byte	0x175
 1566 08d2 00       		.byte	0
 1567 08d3 21       		.uleb128 0x21
 1568 08d4 08000000 		.4byte	.LVL19
 1569 08d8 FE0B0000 		.4byte	0xbfe
 1570 08dc 00       		.byte	0
 1571 08dd 25       		.uleb128 0x25
 1572 08de 2D0B0000 		.4byte	0xb2d
 1573 08e2 0C000000 		.4byte	.LBB86
 1574 08e6 38000000 		.4byte	.Ldebug_ranges0+0x38
 1575 08ea 01       		.byte	0x1
 1576 08eb 7B       		.byte	0x7b
 1577 08ec 03090000 		.4byte	0x903
 1578 08f0 22       		.uleb128 0x22
 1579 08f1 3D0B0000 		.4byte	0xb3d
 1580 08f5 94000000 		.4byte	.LLST5
 1581 08f9 21       		.uleb128 0x21
 1582 08fa 10000000 		.4byte	.LVL21
 1583 08fe 370C0000 		.4byte	0xc37
 1584 0902 00       		.byte	0
 1585 0903 25       		.uleb128 0x25
 1586 0904 880B0000 		.4byte	0xb88
 1587 0908 1C000000 		.4byte	.LBB90
 1588 090c 50000000 		.4byte	.Ldebug_ranges0+0x50
 1589 0910 01       		.byte	0x1
ARM GAS  /var/folders/t8/16hdwfmd2fg_d3q6dgx6bpmw0000gn/T//ccPaAKSn.s 			page 29


 1590 0911 7E       		.byte	0x7e
 1591 0912 2F090000 		.4byte	0x92f
 1592 0916 22       		.uleb128 0x22
 1593 0917 990B0000 		.4byte	0xb99
 1594 091b A7000000 		.4byte	.LLST6
 1595 091f 26       		.uleb128 0x26
 1596 0920 50000000 		.4byte	.Ldebug_ranges0+0x50
 1597 0924 2A       		.uleb128 0x2a
 1598 0925 A50B0000 		.4byte	0xba5
 1599 0929 C7000000 		.4byte	.LLST7
 1600 092d 00       		.byte	0
 1601 092e 00       		.byte	0
 1602 092f 25       		.uleb128 0x25
 1603 0930 4F0B0000 		.4byte	0xb4f
 1604 0934 2C000000 		.4byte	.LBB94
 1605 0938 68000000 		.4byte	.Ldebug_ranges0+0x68
 1606 093c 01       		.byte	0x1
 1607 093d 80       		.byte	0x80
 1608 093e 8F090000 		.4byte	0x98f
 1609 0942 26       		.uleb128 0x26
 1610 0943 68000000 		.4byte	.Ldebug_ranges0+0x68
 1611 0947 27       		.uleb128 0x27
 1612 0948 5C0B0000 		.4byte	0xb5c
 1613 094c 1F       		.uleb128 0x1f
 1614 094d DC0B0000 		.4byte	0xbdc
 1615 0951 40000000 		.4byte	.LBB96
 1616 0955 02000000 		.4byte	.LBE96-.LBB96
 1617 0959 03       		.byte	0x3
 1618 095a 8F01     		.2byte	0x18f
 1619 095c 71090000 		.4byte	0x971
 1620 0960 20       		.uleb128 0x20
 1621 0961 F60B0000 		.4byte	0xbf6
 1622 0965 40000000 		.4byte	.LBB97
 1623 0969 02000000 		.4byte	.LBE97-.LBB97
 1624 096d 0B       		.byte	0xb
 1625 096e 7E01     		.2byte	0x17e
 1626 0970 00       		.byte	0
 1627 0971 21       		.uleb128 0x21
 1628 0972 30000000 		.4byte	.LVL26
 1629 0976 200C0000 		.4byte	0xc20
 1630 097a 23       		.uleb128 0x23
 1631 097b 4C000000 		.4byte	.LVL27
 1632 097f 2B0C0000 		.4byte	0xc2b
 1633 0983 24       		.uleb128 0x24
 1634 0984 01       		.uleb128 0x1
 1635 0985 50       		.byte	0x50
 1636 0986 05       		.uleb128 0x5
 1637 0987 03       		.byte	0x3
 1638 0988 00000000 		.4byte	.LANCHOR1
 1639 098c 00       		.byte	0
 1640 098d 00       		.byte	0
 1641 098e 00       		.byte	0
 1642 098f 23       		.uleb128 0x23
 1643 0990 54000000 		.4byte	.LVL28
 1644 0994 420C0000 		.4byte	0xc42
 1645 0998 24       		.uleb128 0x24
 1646 0999 01       		.uleb128 0x1
ARM GAS  /var/folders/t8/16hdwfmd2fg_d3q6dgx6bpmw0000gn/T//ccPaAKSn.s 			page 30


 1647 099a 50       		.byte	0x50
 1648 099b 01       		.uleb128 0x1
 1649 099c 3E       		.byte	0x3e
 1650 099d 00       		.byte	0
 1651 099e 00       		.byte	0
 1652 099f 28       		.uleb128 0x28
 1653 09a0 7E010000 		.4byte	.LASF114
 1654 09a4 01       		.byte	0x1
 1655 09a5 57       		.byte	0x57
 1656 09a6 10010000 		.4byte	0x110
 1657 09aa 00000000 		.4byte	.LFB138
 1658 09ae 74000000 		.4byte	.LFE138-.LFB138
 1659 09b2 01       		.uleb128 0x1
 1660 09b3 9C       		.byte	0x9c
 1661 09b4 F60A0000 		.4byte	0xaf6
 1662 09b8 1C       		.uleb128 0x1c
 1663 09b9 747000   		.ascii	"tp\000"
 1664 09bc 01       		.byte	0x1
 1665 09bd 57       		.byte	0x57
 1666 09be 41020000 		.4byte	0x241
 1667 09c2 DA000000 		.4byte	.LLST0
 1668 09c6 1C       		.uleb128 0x1c
 1669 09c7 6D736700 		.ascii	"msg\000"
 1670 09cb 01       		.byte	0x1
 1671 09cc 57       		.byte	0x57
 1672 09cd 10010000 		.4byte	0x110
 1673 09d1 27010000 		.4byte	.LLST1
 1674 09d5 2B       		.uleb128 0x2b
 1675 09d6 63747000 		.ascii	"ctp\000"
 1676 09da 01       		.byte	0x1
 1677 09db 58       		.byte	0x58
 1678 09dc 41020000 		.4byte	0x241
 1679 09e0 87010000 		.4byte	.LLST2
 1680 09e4 1D       		.uleb128 0x1d
 1681 09e5 BA060000 		.4byte	.LASF112
 1682 09e9 060B0000 		.4byte	0xb06
 1683 09ed 05       		.uleb128 0x5
 1684 09ee 03       		.byte	0x3
 1685 09ef 00000000 		.4byte	__func__.5719
 1686 09f3 1E       		.uleb128 0x1e
 1687 09f4 7F0B0000 		.4byte	0xb7f
 1688 09f8 0E000000 		.4byte	.LBB49
 1689 09fc 06000000 		.4byte	.LBE49-.LBB49
 1690 0a00 01       		.byte	0x1
 1691 0a01 5C       		.byte	0x5c
 1692 0a02 350A0000 		.4byte	0xa35
 1693 0a06 1F       		.uleb128 0x1f
 1694 0a07 E50B0000 		.4byte	0xbe5
 1695 0a0b 0E000000 		.4byte	.LBB51
 1696 0a0f 02000000 		.4byte	.LBE51-.LBB51
 1697 0a13 03       		.byte	0x3
 1698 0a14 7801     		.2byte	0x178
 1699 0a16 2B0A0000 		.4byte	0xa2b
 1700 0a1a 20       		.uleb128 0x20
 1701 0a1b EE0B0000 		.4byte	0xbee
 1702 0a1f 0E000000 		.4byte	.LBB52
 1703 0a23 02000000 		.4byte	.LBE52-.LBB52
ARM GAS  /var/folders/t8/16hdwfmd2fg_d3q6dgx6bpmw0000gn/T//ccPaAKSn.s 			page 31


 1704 0a27 0B       		.byte	0xb
 1705 0a28 7501     		.2byte	0x175
 1706 0a2a 00       		.byte	0
 1707 0a2b 21       		.uleb128 0x21
 1708 0a2c 14000000 		.4byte	.LVL3
 1709 0a30 FE0B0000 		.4byte	0xbfe
 1710 0a34 00       		.byte	0
 1711 0a35 25       		.uleb128 0x25
 1712 0a36 B70B0000 		.4byte	0xbb7
 1713 0a3a 18000000 		.4byte	.LBB54
 1714 0a3e 00000000 		.4byte	.Ldebug_ranges0+0
 1715 0a42 01       		.byte	0x1
 1716 0a43 5E       		.byte	0x5e
 1717 0a44 5B0A0000 		.4byte	0xa5b
 1718 0a48 22       		.uleb128 0x22
 1719 0a49 CF0B0000 		.4byte	0xbcf
 1720 0a4d A5010000 		.4byte	.LLST3
 1721 0a51 22       		.uleb128 0x22
 1722 0a52 C40B0000 		.4byte	0xbc4
 1723 0a56 C6010000 		.4byte	.LLST4
 1724 0a5a 00       		.byte	0
 1725 0a5b 25       		.uleb128 0x25
 1726 0a5c 4F0B0000 		.4byte	0xb4f
 1727 0a60 34000000 		.4byte	.LBB60
 1728 0a64 20000000 		.4byte	.Ldebug_ranges0+0x20
 1729 0a68 01       		.byte	0x1
 1730 0a69 64       		.byte	0x64
 1731 0a6a BB0A0000 		.4byte	0xabb
 1732 0a6e 26       		.uleb128 0x26
 1733 0a6f 20000000 		.4byte	.Ldebug_ranges0+0x20
 1734 0a73 27       		.uleb128 0x27
 1735 0a74 5C0B0000 		.4byte	0xb5c
 1736 0a78 1F       		.uleb128 0x1f
 1737 0a79 DC0B0000 		.4byte	0xbdc
 1738 0a7d 48000000 		.4byte	.LBB62
 1739 0a81 02000000 		.4byte	.LBE62-.LBB62
 1740 0a85 03       		.byte	0x3
 1741 0a86 8F01     		.2byte	0x18f
 1742 0a88 9D0A0000 		.4byte	0xa9d
 1743 0a8c 20       		.uleb128 0x20
 1744 0a8d F60B0000 		.4byte	0xbf6
 1745 0a91 48000000 		.4byte	.LBB63
 1746 0a95 02000000 		.4byte	.LBE63-.LBB63
 1747 0a99 0B       		.byte	0xb
 1748 0a9a 7E01     		.2byte	0x17e
 1749 0a9c 00       		.byte	0
 1750 0a9d 21       		.uleb128 0x21
 1751 0a9e 38000000 		.4byte	.LVL9
 1752 0aa2 200C0000 		.4byte	0xc20
 1753 0aa6 23       		.uleb128 0x23
 1754 0aa7 54000000 		.4byte	.LVL13
 1755 0aab 2B0C0000 		.4byte	0xc2b
 1756 0aaf 24       		.uleb128 0x24
 1757 0ab0 01       		.uleb128 0x1
 1758 0ab1 50       		.byte	0x50
 1759 0ab2 05       		.uleb128 0x5
 1760 0ab3 03       		.byte	0x3
ARM GAS  /var/folders/t8/16hdwfmd2fg_d3q6dgx6bpmw0000gn/T//ccPaAKSn.s 			page 32


 1761 0ab4 00000000 		.4byte	.LANCHOR1
 1762 0ab8 00       		.byte	0
 1763 0ab9 00       		.byte	0
 1764 0aba 00       		.byte	0
 1765 0abb 2C       		.uleb128 0x2c
 1766 0abc 32000000 		.4byte	.LVL7
 1767 0ac0 420C0000 		.4byte	0xc42
 1768 0ac4 CE0A0000 		.4byte	0xace
 1769 0ac8 24       		.uleb128 0x24
 1770 0ac9 01       		.uleb128 0x1
 1771 0aca 50       		.byte	0x50
 1772 0acb 01       		.uleb128 0x1
 1773 0acc 3C       		.byte	0x3c
 1774 0acd 00       		.byte	0
 1775 0ace 2C       		.uleb128 0x2c
 1776 0acf 5C000000 		.4byte	.LVL15
 1777 0ad3 4E0C0000 		.4byte	0xc4e
 1778 0ad7 E20A0000 		.4byte	0xae2
 1779 0adb 24       		.uleb128 0x24
 1780 0adc 01       		.uleb128 0x1
 1781 0add 50       		.byte	0x50
 1782 0ade 02       		.uleb128 0x2
 1783 0adf 75       		.byte	0x75
 1784 0ae0 00       		.sleb128 0
 1785 0ae1 00       		.byte	0
 1786 0ae2 23       		.uleb128 0x23
 1787 0ae3 64000000 		.4byte	.LVL18
 1788 0ae7 2B0C0000 		.4byte	0xc2b
 1789 0aeb 24       		.uleb128 0x24
 1790 0aec 01       		.uleb128 0x1
 1791 0aed 50       		.byte	0x50
 1792 0aee 05       		.uleb128 0x5
 1793 0aef 03       		.byte	0x3
 1794 0af0 00000000 		.4byte	.LANCHOR0
 1795 0af4 00       		.byte	0
 1796 0af5 00       		.byte	0
 1797 0af6 15       		.uleb128 0x15
 1798 0af7 D7050000 		.4byte	0x5d7
 1799 0afb 060B0000 		.4byte	0xb06
 1800 0aff 19       		.uleb128 0x19
 1801 0b00 2C000000 		.4byte	0x2c
 1802 0b04 09       		.byte	0x9
 1803 0b05 00       		.byte	0
 1804 0b06 13       		.uleb128 0x13
 1805 0b07 F60A0000 		.4byte	0xaf6
 1806 0b0b 2D       		.uleb128 0x2d
 1807 0b0c 2F060000 		.4byte	.LASF116
 1808 0b10 05       		.byte	0x5
 1809 0b11 71       		.byte	0x71
 1810 0b12 03       		.byte	0x3
 1811 0b13 2D0B0000 		.4byte	0xb2d
 1812 0b17 2E       		.uleb128 0x2e
 1813 0b18 747000   		.ascii	"tp\000"
 1814 0b1b 05       		.byte	0x5
 1815 0b1c 71       		.byte	0x71
 1816 0b1d 41020000 		.4byte	0x241
 1817 0b21 2E       		.uleb128 0x2e
ARM GAS  /var/folders/t8/16hdwfmd2fg_d3q6dgx6bpmw0000gn/T//ccPaAKSn.s 			page 33


 1818 0b22 6D736700 		.ascii	"msg\000"
 1819 0b26 05       		.byte	0x5
 1820 0b27 71       		.byte	0x71
 1821 0b28 10010000 		.4byte	0x110
 1822 0b2c 00       		.byte	0
 1823 0b2d 2F       		.uleb128 0x2f
 1824 0b2e 40030000 		.4byte	.LASF118
 1825 0b32 05       		.byte	0x5
 1826 0b33 4F       		.byte	0x4f
 1827 0b34 480B0000 		.4byte	0xb48
 1828 0b38 03       		.byte	0x3
 1829 0b39 480B0000 		.4byte	0xb48
 1830 0b3d 2E       		.uleb128 0x2e
 1831 0b3e 747000   		.ascii	"tp\000"
 1832 0b41 05       		.byte	0x5
 1833 0b42 4F       		.byte	0x4f
 1834 0b43 41020000 		.4byte	0x241
 1835 0b47 00       		.byte	0
 1836 0b48 03       		.uleb128 0x3
 1837 0b49 01       		.byte	0x1
 1838 0b4a 02       		.byte	0x2
 1839 0b4b 14030000 		.4byte	.LASF115
 1840 0b4f 30       		.uleb128 0x30
 1841 0b50 A2050000 		.4byte	.LASF117
 1842 0b54 03       		.byte	0x3
 1843 0b55 8201     		.2byte	0x182
 1844 0b57 03       		.byte	0x3
 1845 0b58 6A0B0000 		.4byte	0xb6a
 1846 0b5c 31       		.uleb128 0x31
 1847 0b5d BA060000 		.4byte	.LASF112
 1848 0b61 7A0B0000 		.4byte	0xb7a
 1849 0b65 A2050000 		.4byte	.LASF117
 1850 0b69 00       		.byte	0
 1851 0b6a 15       		.uleb128 0x15
 1852 0b6b D7050000 		.4byte	0x5d7
 1853 0b6f 7A0B0000 		.4byte	0xb7a
 1854 0b73 19       		.uleb128 0x19
 1855 0b74 2C000000 		.4byte	0x2c
 1856 0b78 0B       		.byte	0xb
 1857 0b79 00       		.byte	0
 1858 0b7a 13       		.uleb128 0x13
 1859 0b7b 6A0B0000 		.4byte	0xb6a
 1860 0b7f 32       		.uleb128 0x32
 1861 0b80 36030000 		.4byte	.LASF121
 1862 0b84 03       		.byte	0x3
 1863 0b85 7601     		.2byte	0x176
 1864 0b87 03       		.byte	0x3
 1865 0b88 33       		.uleb128 0x33
 1866 0b89 0F040000 		.4byte	.LASF119
 1867 0b8d 04       		.byte	0x4
 1868 0b8e 6902     		.2byte	0x269
 1869 0b90 41020000 		.4byte	0x241
 1870 0b94 03       		.byte	0x3
 1871 0b95 B10B0000 		.4byte	0xbb1
 1872 0b99 34       		.uleb128 0x34
 1873 0b9a 74717000 		.ascii	"tqp\000"
 1874 0b9e 04       		.byte	0x4
ARM GAS  /var/folders/t8/16hdwfmd2fg_d3q6dgx6bpmw0000gn/T//ccPaAKSn.s 			page 34


 1875 0b9f 6902     		.2byte	0x269
 1876 0ba1 B10B0000 		.4byte	0xbb1
 1877 0ba5 35       		.uleb128 0x35
 1878 0ba6 747000   		.ascii	"tp\000"
 1879 0ba9 04       		.byte	0x4
 1880 0baa 6A02     		.2byte	0x26a
 1881 0bac 41020000 		.4byte	0x241
 1882 0bb0 00       		.byte	0
 1883 0bb1 0B       		.uleb128 0xb
 1884 0bb2 04       		.byte	0x4
 1885 0bb3 6B020000 		.4byte	0x26b
 1886 0bb7 30       		.uleb128 0x30
 1887 0bb8 91060000 		.4byte	.LASF120
 1888 0bbc 04       		.byte	0x4
 1889 0bbd 6102     		.2byte	0x261
 1890 0bbf 03       		.byte	0x3
 1891 0bc0 DC0B0000 		.4byte	0xbdc
 1892 0bc4 34       		.uleb128 0x34
 1893 0bc5 747000   		.ascii	"tp\000"
 1894 0bc8 04       		.byte	0x4
 1895 0bc9 6102     		.2byte	0x261
 1896 0bcb 41020000 		.4byte	0x241
 1897 0bcf 34       		.uleb128 0x34
 1898 0bd0 74717000 		.ascii	"tqp\000"
 1899 0bd4 04       		.byte	0x4
 1900 0bd5 6102     		.2byte	0x261
 1901 0bd7 B10B0000 		.4byte	0xbb1
 1902 0bdb 00       		.byte	0
 1903 0bdc 32       		.uleb128 0x32
 1904 0bdd CC060000 		.4byte	.LASF122
 1905 0be1 0B       		.byte	0xb
 1906 0be2 7C01     		.2byte	0x17c
 1907 0be4 03       		.byte	0x3
 1908 0be5 32       		.uleb128 0x32
 1909 0be6 98010000 		.4byte	.LASF123
 1910 0bea 0B       		.byte	0xb
 1911 0beb 7301     		.2byte	0x173
 1912 0bed 03       		.byte	0x3
 1913 0bee 36       		.uleb128 0x36
 1914 0bef 06030000 		.4byte	.LASF124
 1915 0bf3 02       		.byte	0x2
 1916 0bf4 45       		.byte	0x45
 1917 0bf5 03       		.byte	0x3
 1918 0bf6 36       		.uleb128 0x36
 1919 0bf7 48050000 		.4byte	.LASF125
 1920 0bfb 02       		.byte	0x2
 1921 0bfc 3A       		.byte	0x3a
 1922 0bfd 03       		.byte	0x3
 1923 0bfe 37       		.uleb128 0x37
 1924 0bff CC030000 		.4byte	.LASF126
 1925 0c03 CC030000 		.4byte	.LASF126
 1926 0c07 0F       		.byte	0xf
 1927 0c08 96       		.byte	0x96
 1928 0c09 37       		.uleb128 0x37
 1929 0c0a 49040000 		.4byte	.LASF127
 1930 0c0e 49040000 		.4byte	.LASF127
 1931 0c12 0F       		.byte	0xf
ARM GAS  /var/folders/t8/16hdwfmd2fg_d3q6dgx6bpmw0000gn/T//ccPaAKSn.s 			page 35


 1932 0c13 9D       		.byte	0x9d
 1933 0c14 38       		.uleb128 0x38
 1934 0c15 3D060000 		.4byte	.LASF128
 1935 0c19 3D060000 		.4byte	.LASF128
 1936 0c1d 04       		.byte	0x4
 1937 0c1e E001     		.2byte	0x1e0
 1938 0c20 37       		.uleb128 0x37
 1939 0c21 09010000 		.4byte	.LASF129
 1940 0c25 09010000 		.4byte	.LASF129
 1941 0c29 0F       		.byte	0xf
 1942 0c2a 97       		.byte	0x97
 1943 0c2b 38       		.uleb128 0x38
 1944 0c2c 50060000 		.4byte	.LASF130
 1945 0c30 50060000 		.4byte	.LASF130
 1946 0c34 03       		.byte	0x3
 1947 0c35 3201     		.2byte	0x132
 1948 0c37 37       		.uleb128 0x37
 1949 0c38 2E040000 		.4byte	.LASF131
 1950 0c3c 2E040000 		.4byte	.LASF131
 1951 0c40 0F       		.byte	0xf
 1952 0c41 9C       		.byte	0x9c
 1953 0c42 38       		.uleb128 0x38
 1954 0c43 7D050000 		.4byte	.LASF132
 1955 0c47 7D050000 		.4byte	.LASF132
 1956 0c4b 04       		.byte	0x4
 1957 0c4c DE01     		.2byte	0x1de
 1958 0c4e 38       		.uleb128 0x38
 1959 0c4f 06020000 		.4byte	.LASF133
 1960 0c53 06020000 		.4byte	.LASF133
 1961 0c57 04       		.byte	0x4
 1962 0c58 DC01     		.2byte	0x1dc
 1963 0c5a 00       		.byte	0
 1964              		.section	.debug_abbrev,"",%progbits
 1965              	.Ldebug_abbrev0:
 1966 0000 01       		.uleb128 0x1
 1967 0001 11       		.uleb128 0x11
 1968 0002 01       		.byte	0x1
 1969 0003 25       		.uleb128 0x25
 1970 0004 0E       		.uleb128 0xe
 1971 0005 13       		.uleb128 0x13
 1972 0006 0B       		.uleb128 0xb
 1973 0007 03       		.uleb128 0x3
 1974 0008 0E       		.uleb128 0xe
 1975 0009 1B       		.uleb128 0x1b
 1976 000a 0E       		.uleb128 0xe
 1977 000b 55       		.uleb128 0x55
 1978 000c 17       		.uleb128 0x17
 1979 000d 11       		.uleb128 0x11
 1980 000e 01       		.uleb128 0x1
 1981 000f 10       		.uleb128 0x10
 1982 0010 17       		.uleb128 0x17
 1983 0011 00       		.byte	0
 1984 0012 00       		.byte	0
 1985 0013 02       		.uleb128 0x2
 1986 0014 24       		.uleb128 0x24
 1987 0015 00       		.byte	0
 1988 0016 0B       		.uleb128 0xb
ARM GAS  /var/folders/t8/16hdwfmd2fg_d3q6dgx6bpmw0000gn/T//ccPaAKSn.s 			page 36


 1989 0017 0B       		.uleb128 0xb
 1990 0018 3E       		.uleb128 0x3e
 1991 0019 0B       		.uleb128 0xb
 1992 001a 03       		.uleb128 0x3
 1993 001b 08       		.uleb128 0x8
 1994 001c 00       		.byte	0
 1995 001d 00       		.byte	0
 1996 001e 03       		.uleb128 0x3
 1997 001f 24       		.uleb128 0x24
 1998 0020 00       		.byte	0
 1999 0021 0B       		.uleb128 0xb
 2000 0022 0B       		.uleb128 0xb
 2001 0023 3E       		.uleb128 0x3e
 2002 0024 0B       		.uleb128 0xb
 2003 0025 03       		.uleb128 0x3
 2004 0026 0E       		.uleb128 0xe
 2005 0027 00       		.byte	0
 2006 0028 00       		.byte	0
 2007 0029 04       		.uleb128 0x4
 2008 002a 16       		.uleb128 0x16
 2009 002b 00       		.byte	0
 2010 002c 03       		.uleb128 0x3
 2011 002d 0E       		.uleb128 0xe
 2012 002e 3A       		.uleb128 0x3a
 2013 002f 0B       		.uleb128 0xb
 2014 0030 3B       		.uleb128 0x3b
 2015 0031 0B       		.uleb128 0xb
 2016 0032 49       		.uleb128 0x49
 2017 0033 13       		.uleb128 0x13
 2018 0034 00       		.byte	0
 2019 0035 00       		.byte	0
 2020 0036 05       		.uleb128 0x5
 2021 0037 35       		.uleb128 0x35
 2022 0038 00       		.byte	0
 2023 0039 49       		.uleb128 0x49
 2024 003a 13       		.uleb128 0x13
 2025 003b 00       		.byte	0
 2026 003c 00       		.byte	0
 2027 003d 06       		.uleb128 0x6
 2028 003e 13       		.uleb128 0x13
 2029 003f 01       		.byte	0x1
 2030 0040 03       		.uleb128 0x3
 2031 0041 0E       		.uleb128 0xe
 2032 0042 0B       		.uleb128 0xb
 2033 0043 0B       		.uleb128 0xb
 2034 0044 3A       		.uleb128 0x3a
 2035 0045 0B       		.uleb128 0xb
 2036 0046 3B       		.uleb128 0x3b
 2037 0047 0B       		.uleb128 0xb
 2038 0048 01       		.uleb128 0x1
 2039 0049 13       		.uleb128 0x13
 2040 004a 00       		.byte	0
 2041 004b 00       		.byte	0
 2042 004c 07       		.uleb128 0x7
 2043 004d 0D       		.uleb128 0xd
 2044 004e 00       		.byte	0
 2045 004f 03       		.uleb128 0x3
ARM GAS  /var/folders/t8/16hdwfmd2fg_d3q6dgx6bpmw0000gn/T//ccPaAKSn.s 			page 37


 2046 0050 0E       		.uleb128 0xe
 2047 0051 3A       		.uleb128 0x3a
 2048 0052 0B       		.uleb128 0xb
 2049 0053 3B       		.uleb128 0x3b
 2050 0054 0B       		.uleb128 0xb
 2051 0055 49       		.uleb128 0x49
 2052 0056 13       		.uleb128 0x13
 2053 0057 38       		.uleb128 0x38
 2054 0058 0B       		.uleb128 0xb
 2055 0059 00       		.byte	0
 2056 005a 00       		.byte	0
 2057 005b 08       		.uleb128 0x8
 2058 005c 0D       		.uleb128 0xd
 2059 005d 00       		.byte	0
 2060 005e 03       		.uleb128 0x3
 2061 005f 08       		.uleb128 0x8
 2062 0060 3A       		.uleb128 0x3a
 2063 0061 0B       		.uleb128 0xb
 2064 0062 3B       		.uleb128 0x3b
 2065 0063 0B       		.uleb128 0xb
 2066 0064 49       		.uleb128 0x49
 2067 0065 13       		.uleb128 0x13
 2068 0066 38       		.uleb128 0x38
 2069 0067 0B       		.uleb128 0xb
 2070 0068 00       		.byte	0
 2071 0069 00       		.byte	0
 2072 006a 09       		.uleb128 0x9
 2073 006b 0D       		.uleb128 0xd
 2074 006c 00       		.byte	0
 2075 006d 03       		.uleb128 0x3
 2076 006e 08       		.uleb128 0x8
 2077 006f 3A       		.uleb128 0x3a
 2078 0070 0B       		.uleb128 0xb
 2079 0071 3B       		.uleb128 0x3b
 2080 0072 05       		.uleb128 0x5
 2081 0073 49       		.uleb128 0x49
 2082 0074 13       		.uleb128 0x13
 2083 0075 38       		.uleb128 0x38
 2084 0076 0B       		.uleb128 0xb
 2085 0077 00       		.byte	0
 2086 0078 00       		.byte	0
 2087 0079 0A       		.uleb128 0xa
 2088 007a 0D       		.uleb128 0xd
 2089 007b 00       		.byte	0
 2090 007c 03       		.uleb128 0x3
 2091 007d 0E       		.uleb128 0xe
 2092 007e 3A       		.uleb128 0x3a
 2093 007f 0B       		.uleb128 0xb
 2094 0080 3B       		.uleb128 0x3b
 2095 0081 05       		.uleb128 0x5
 2096 0082 49       		.uleb128 0x49
 2097 0083 13       		.uleb128 0x13
 2098 0084 38       		.uleb128 0x38
 2099 0085 0B       		.uleb128 0xb
 2100 0086 00       		.byte	0
 2101 0087 00       		.byte	0
 2102 0088 0B       		.uleb128 0xb
ARM GAS  /var/folders/t8/16hdwfmd2fg_d3q6dgx6bpmw0000gn/T//ccPaAKSn.s 			page 38


 2103 0089 0F       		.uleb128 0xf
 2104 008a 00       		.byte	0
 2105 008b 0B       		.uleb128 0xb
 2106 008c 0B       		.uleb128 0xb
 2107 008d 49       		.uleb128 0x49
 2108 008e 13       		.uleb128 0x13
 2109 008f 00       		.byte	0
 2110 0090 00       		.byte	0
 2111 0091 0C       		.uleb128 0xc
 2112 0092 13       		.uleb128 0x13
 2113 0093 01       		.byte	0x1
 2114 0094 03       		.uleb128 0x3
 2115 0095 0E       		.uleb128 0xe
 2116 0096 0B       		.uleb128 0xb
 2117 0097 0B       		.uleb128 0xb
 2118 0098 3A       		.uleb128 0x3a
 2119 0099 0B       		.uleb128 0xb
 2120 009a 3B       		.uleb128 0x3b
 2121 009b 05       		.uleb128 0x5
 2122 009c 01       		.uleb128 0x1
 2123 009d 13       		.uleb128 0x13
 2124 009e 00       		.byte	0
 2125 009f 00       		.byte	0
 2126 00a0 0D       		.uleb128 0xd
 2127 00a1 15       		.uleb128 0x15
 2128 00a2 01       		.byte	0x1
 2129 00a3 27       		.uleb128 0x27
 2130 00a4 19       		.uleb128 0x19
 2131 00a5 01       		.uleb128 0x1
 2132 00a6 13       		.uleb128 0x13
 2133 00a7 00       		.byte	0
 2134 00a8 00       		.byte	0
 2135 00a9 0E       		.uleb128 0xe
 2136 00aa 05       		.uleb128 0x5
 2137 00ab 00       		.byte	0
 2138 00ac 49       		.uleb128 0x49
 2139 00ad 13       		.uleb128 0x13
 2140 00ae 00       		.byte	0
 2141 00af 00       		.byte	0
 2142 00b0 0F       		.uleb128 0xf
 2143 00b1 0F       		.uleb128 0xf
 2144 00b2 00       		.byte	0
 2145 00b3 0B       		.uleb128 0xb
 2146 00b4 0B       		.uleb128 0xb
 2147 00b5 00       		.byte	0
 2148 00b6 00       		.byte	0
 2149 00b7 10       		.uleb128 0x10
 2150 00b8 17       		.uleb128 0x17
 2151 00b9 01       		.byte	0x1
 2152 00ba 0B       		.uleb128 0xb
 2153 00bb 0B       		.uleb128 0xb
 2154 00bc 3A       		.uleb128 0x3a
 2155 00bd 0B       		.uleb128 0xb
 2156 00be 3B       		.uleb128 0x3b
 2157 00bf 0B       		.uleb128 0xb
 2158 00c0 01       		.uleb128 0x1
 2159 00c1 13       		.uleb128 0x13
ARM GAS  /var/folders/t8/16hdwfmd2fg_d3q6dgx6bpmw0000gn/T//ccPaAKSn.s 			page 39


 2160 00c2 00       		.byte	0
 2161 00c3 00       		.byte	0
 2162 00c4 11       		.uleb128 0x11
 2163 00c5 0D       		.uleb128 0xd
 2164 00c6 00       		.byte	0
 2165 00c7 03       		.uleb128 0x3
 2166 00c8 0E       		.uleb128 0xe
 2167 00c9 3A       		.uleb128 0x3a
 2168 00ca 0B       		.uleb128 0xb
 2169 00cb 3B       		.uleb128 0x3b
 2170 00cc 0B       		.uleb128 0xb
 2171 00cd 49       		.uleb128 0x49
 2172 00ce 13       		.uleb128 0x13
 2173 00cf 00       		.byte	0
 2174 00d0 00       		.byte	0
 2175 00d1 12       		.uleb128 0x12
 2176 00d2 0D       		.uleb128 0xd
 2177 00d3 00       		.byte	0
 2178 00d4 03       		.uleb128 0x3
 2179 00d5 0E       		.uleb128 0xe
 2180 00d6 3A       		.uleb128 0x3a
 2181 00d7 0B       		.uleb128 0xb
 2182 00d8 3B       		.uleb128 0x3b
 2183 00d9 05       		.uleb128 0x5
 2184 00da 49       		.uleb128 0x49
 2185 00db 13       		.uleb128 0x13
 2186 00dc 00       		.byte	0
 2187 00dd 00       		.byte	0
 2188 00de 13       		.uleb128 0x13
 2189 00df 26       		.uleb128 0x26
 2190 00e0 00       		.byte	0
 2191 00e1 49       		.uleb128 0x49
 2192 00e2 13       		.uleb128 0x13
 2193 00e3 00       		.byte	0
 2194 00e4 00       		.byte	0
 2195 00e5 14       		.uleb128 0x14
 2196 00e6 34       		.uleb128 0x34
 2197 00e7 00       		.byte	0
 2198 00e8 03       		.uleb128 0x3
 2199 00e9 08       		.uleb128 0x8
 2200 00ea 3A       		.uleb128 0x3a
 2201 00eb 0B       		.uleb128 0xb
 2202 00ec 3B       		.uleb128 0x3b
 2203 00ed 05       		.uleb128 0x5
 2204 00ee 49       		.uleb128 0x49
 2205 00ef 13       		.uleb128 0x13
 2206 00f0 3F       		.uleb128 0x3f
 2207 00f1 19       		.uleb128 0x19
 2208 00f2 3C       		.uleb128 0x3c
 2209 00f3 19       		.uleb128 0x19
 2210 00f4 00       		.byte	0
 2211 00f5 00       		.byte	0
 2212 00f6 15       		.uleb128 0x15
 2213 00f7 01       		.uleb128 0x1
 2214 00f8 01       		.byte	0x1
 2215 00f9 49       		.uleb128 0x49
 2216 00fa 13       		.uleb128 0x13
ARM GAS  /var/folders/t8/16hdwfmd2fg_d3q6dgx6bpmw0000gn/T//ccPaAKSn.s 			page 40


 2217 00fb 01       		.uleb128 0x1
 2218 00fc 13       		.uleb128 0x13
 2219 00fd 00       		.byte	0
 2220 00fe 00       		.byte	0
 2221 00ff 16       		.uleb128 0x16
 2222 0100 21       		.uleb128 0x21
 2223 0101 00       		.byte	0
 2224 0102 00       		.byte	0
 2225 0103 00       		.byte	0
 2226 0104 17       		.uleb128 0x17
 2227 0105 34       		.uleb128 0x34
 2228 0106 00       		.byte	0
 2229 0107 03       		.uleb128 0x3
 2230 0108 0E       		.uleb128 0xe
 2231 0109 3A       		.uleb128 0x3a
 2232 010a 0B       		.uleb128 0xb
 2233 010b 3B       		.uleb128 0x3b
 2234 010c 05       		.uleb128 0x5
 2235 010d 49       		.uleb128 0x49
 2236 010e 13       		.uleb128 0x13
 2237 010f 3F       		.uleb128 0x3f
 2238 0110 19       		.uleb128 0x19
 2239 0111 3C       		.uleb128 0x3c
 2240 0112 19       		.uleb128 0x19
 2241 0113 00       		.byte	0
 2242 0114 00       		.byte	0
 2243 0115 18       		.uleb128 0x18
 2244 0116 13       		.uleb128 0x13
 2245 0117 01       		.byte	0x1
 2246 0118 0B       		.uleb128 0xb
 2247 0119 0B       		.uleb128 0xb
 2248 011a 3A       		.uleb128 0x3a
 2249 011b 0B       		.uleb128 0xb
 2250 011c 3B       		.uleb128 0x3b
 2251 011d 0B       		.uleb128 0xb
 2252 011e 01       		.uleb128 0x1
 2253 011f 13       		.uleb128 0x13
 2254 0120 00       		.byte	0
 2255 0121 00       		.byte	0
 2256 0122 19       		.uleb128 0x19
 2257 0123 21       		.uleb128 0x21
 2258 0124 00       		.byte	0
 2259 0125 49       		.uleb128 0x49
 2260 0126 13       		.uleb128 0x13
 2261 0127 2F       		.uleb128 0x2f
 2262 0128 0B       		.uleb128 0xb
 2263 0129 00       		.byte	0
 2264 012a 00       		.byte	0
 2265 012b 1A       		.uleb128 0x1a
 2266 012c 34       		.uleb128 0x34
 2267 012d 00       		.byte	0
 2268 012e 03       		.uleb128 0x3
 2269 012f 0E       		.uleb128 0xe
 2270 0130 3A       		.uleb128 0x3a
 2271 0131 0B       		.uleb128 0xb
 2272 0132 3B       		.uleb128 0x3b
 2273 0133 0B       		.uleb128 0xb
ARM GAS  /var/folders/t8/16hdwfmd2fg_d3q6dgx6bpmw0000gn/T//ccPaAKSn.s 			page 41


 2274 0134 49       		.uleb128 0x49
 2275 0135 13       		.uleb128 0x13
 2276 0136 3F       		.uleb128 0x3f
 2277 0137 19       		.uleb128 0x19
 2278 0138 3C       		.uleb128 0x3c
 2279 0139 19       		.uleb128 0x19
 2280 013a 00       		.byte	0
 2281 013b 00       		.byte	0
 2282 013c 1B       		.uleb128 0x1b
 2283 013d 2E       		.uleb128 0x2e
 2284 013e 01       		.byte	0x1
 2285 013f 3F       		.uleb128 0x3f
 2286 0140 19       		.uleb128 0x19
 2287 0141 03       		.uleb128 0x3
 2288 0142 0E       		.uleb128 0xe
 2289 0143 3A       		.uleb128 0x3a
 2290 0144 0B       		.uleb128 0xb
 2291 0145 3B       		.uleb128 0x3b
 2292 0146 0B       		.uleb128 0xb
 2293 0147 27       		.uleb128 0x27
 2294 0148 19       		.uleb128 0x19
 2295 0149 11       		.uleb128 0x11
 2296 014a 01       		.uleb128 0x1
 2297 014b 12       		.uleb128 0x12
 2298 014c 06       		.uleb128 0x6
 2299 014d 40       		.uleb128 0x40
 2300 014e 18       		.uleb128 0x18
 2301 014f 9742     		.uleb128 0x2117
 2302 0151 19       		.uleb128 0x19
 2303 0152 01       		.uleb128 0x1
 2304 0153 13       		.uleb128 0x13
 2305 0154 00       		.byte	0
 2306 0155 00       		.byte	0
 2307 0156 1C       		.uleb128 0x1c
 2308 0157 05       		.uleb128 0x5
 2309 0158 00       		.byte	0
 2310 0159 03       		.uleb128 0x3
 2311 015a 08       		.uleb128 0x8
 2312 015b 3A       		.uleb128 0x3a
 2313 015c 0B       		.uleb128 0xb
 2314 015d 3B       		.uleb128 0x3b
 2315 015e 0B       		.uleb128 0xb
 2316 015f 49       		.uleb128 0x49
 2317 0160 13       		.uleb128 0x13
 2318 0161 02       		.uleb128 0x2
 2319 0162 17       		.uleb128 0x17
 2320 0163 00       		.byte	0
 2321 0164 00       		.byte	0
 2322 0165 1D       		.uleb128 0x1d
 2323 0166 34       		.uleb128 0x34
 2324 0167 00       		.byte	0
 2325 0168 03       		.uleb128 0x3
 2326 0169 0E       		.uleb128 0xe
 2327 016a 49       		.uleb128 0x49
 2328 016b 13       		.uleb128 0x13
 2329 016c 34       		.uleb128 0x34
 2330 016d 19       		.uleb128 0x19
ARM GAS  /var/folders/t8/16hdwfmd2fg_d3q6dgx6bpmw0000gn/T//ccPaAKSn.s 			page 42


 2331 016e 02       		.uleb128 0x2
 2332 016f 18       		.uleb128 0x18
 2333 0170 00       		.byte	0
 2334 0171 00       		.byte	0
 2335 0172 1E       		.uleb128 0x1e
 2336 0173 1D       		.uleb128 0x1d
 2337 0174 01       		.byte	0x1
 2338 0175 31       		.uleb128 0x31
 2339 0176 13       		.uleb128 0x13
 2340 0177 11       		.uleb128 0x11
 2341 0178 01       		.uleb128 0x1
 2342 0179 12       		.uleb128 0x12
 2343 017a 06       		.uleb128 0x6
 2344 017b 58       		.uleb128 0x58
 2345 017c 0B       		.uleb128 0xb
 2346 017d 59       		.uleb128 0x59
 2347 017e 0B       		.uleb128 0xb
 2348 017f 01       		.uleb128 0x1
 2349 0180 13       		.uleb128 0x13
 2350 0181 00       		.byte	0
 2351 0182 00       		.byte	0
 2352 0183 1F       		.uleb128 0x1f
 2353 0184 1D       		.uleb128 0x1d
 2354 0185 01       		.byte	0x1
 2355 0186 31       		.uleb128 0x31
 2356 0187 13       		.uleb128 0x13
 2357 0188 11       		.uleb128 0x11
 2358 0189 01       		.uleb128 0x1
 2359 018a 12       		.uleb128 0x12
 2360 018b 06       		.uleb128 0x6
 2361 018c 58       		.uleb128 0x58
 2362 018d 0B       		.uleb128 0xb
 2363 018e 59       		.uleb128 0x59
 2364 018f 05       		.uleb128 0x5
 2365 0190 01       		.uleb128 0x1
 2366 0191 13       		.uleb128 0x13
 2367 0192 00       		.byte	0
 2368 0193 00       		.byte	0
 2369 0194 20       		.uleb128 0x20
 2370 0195 1D       		.uleb128 0x1d
 2371 0196 00       		.byte	0
 2372 0197 31       		.uleb128 0x31
 2373 0198 13       		.uleb128 0x13
 2374 0199 11       		.uleb128 0x11
 2375 019a 01       		.uleb128 0x1
 2376 019b 12       		.uleb128 0x12
 2377 019c 06       		.uleb128 0x6
 2378 019d 58       		.uleb128 0x58
 2379 019e 0B       		.uleb128 0xb
 2380 019f 59       		.uleb128 0x59
 2381 01a0 05       		.uleb128 0x5
 2382 01a1 00       		.byte	0
 2383 01a2 00       		.byte	0
 2384 01a3 21       		.uleb128 0x21
 2385 01a4 898201   		.uleb128 0x4109
 2386 01a7 00       		.byte	0
 2387 01a8 11       		.uleb128 0x11
ARM GAS  /var/folders/t8/16hdwfmd2fg_d3q6dgx6bpmw0000gn/T//ccPaAKSn.s 			page 43


 2388 01a9 01       		.uleb128 0x1
 2389 01aa 31       		.uleb128 0x31
 2390 01ab 13       		.uleb128 0x13
 2391 01ac 00       		.byte	0
 2392 01ad 00       		.byte	0
 2393 01ae 22       		.uleb128 0x22
 2394 01af 05       		.uleb128 0x5
 2395 01b0 00       		.byte	0
 2396 01b1 31       		.uleb128 0x31
 2397 01b2 13       		.uleb128 0x13
 2398 01b3 02       		.uleb128 0x2
 2399 01b4 17       		.uleb128 0x17
 2400 01b5 00       		.byte	0
 2401 01b6 00       		.byte	0
 2402 01b7 23       		.uleb128 0x23
 2403 01b8 898201   		.uleb128 0x4109
 2404 01bb 01       		.byte	0x1
 2405 01bc 11       		.uleb128 0x11
 2406 01bd 01       		.uleb128 0x1
 2407 01be 31       		.uleb128 0x31
 2408 01bf 13       		.uleb128 0x13
 2409 01c0 00       		.byte	0
 2410 01c1 00       		.byte	0
 2411 01c2 24       		.uleb128 0x24
 2412 01c3 8A8201   		.uleb128 0x410a
 2413 01c6 00       		.byte	0
 2414 01c7 02       		.uleb128 0x2
 2415 01c8 18       		.uleb128 0x18
 2416 01c9 9142     		.uleb128 0x2111
 2417 01cb 18       		.uleb128 0x18
 2418 01cc 00       		.byte	0
 2419 01cd 00       		.byte	0
 2420 01ce 25       		.uleb128 0x25
 2421 01cf 1D       		.uleb128 0x1d
 2422 01d0 01       		.byte	0x1
 2423 01d1 31       		.uleb128 0x31
 2424 01d2 13       		.uleb128 0x13
 2425 01d3 52       		.uleb128 0x52
 2426 01d4 01       		.uleb128 0x1
 2427 01d5 55       		.uleb128 0x55
 2428 01d6 17       		.uleb128 0x17
 2429 01d7 58       		.uleb128 0x58
 2430 01d8 0B       		.uleb128 0xb
 2431 01d9 59       		.uleb128 0x59
 2432 01da 0B       		.uleb128 0xb
 2433 01db 01       		.uleb128 0x1
 2434 01dc 13       		.uleb128 0x13
 2435 01dd 00       		.byte	0
 2436 01de 00       		.byte	0
 2437 01df 26       		.uleb128 0x26
 2438 01e0 0B       		.uleb128 0xb
 2439 01e1 01       		.byte	0x1
 2440 01e2 55       		.uleb128 0x55
 2441 01e3 17       		.uleb128 0x17
 2442 01e4 00       		.byte	0
 2443 01e5 00       		.byte	0
 2444 01e6 27       		.uleb128 0x27
ARM GAS  /var/folders/t8/16hdwfmd2fg_d3q6dgx6bpmw0000gn/T//ccPaAKSn.s 			page 44


 2445 01e7 34       		.uleb128 0x34
 2446 01e8 00       		.byte	0
 2447 01e9 31       		.uleb128 0x31
 2448 01ea 13       		.uleb128 0x13
 2449 01eb 00       		.byte	0
 2450 01ec 00       		.byte	0
 2451 01ed 28       		.uleb128 0x28
 2452 01ee 2E       		.uleb128 0x2e
 2453 01ef 01       		.byte	0x1
 2454 01f0 3F       		.uleb128 0x3f
 2455 01f1 19       		.uleb128 0x19
 2456 01f2 03       		.uleb128 0x3
 2457 01f3 0E       		.uleb128 0xe
 2458 01f4 3A       		.uleb128 0x3a
 2459 01f5 0B       		.uleb128 0xb
 2460 01f6 3B       		.uleb128 0x3b
 2461 01f7 0B       		.uleb128 0xb
 2462 01f8 27       		.uleb128 0x27
 2463 01f9 19       		.uleb128 0x19
 2464 01fa 49       		.uleb128 0x49
 2465 01fb 13       		.uleb128 0x13
 2466 01fc 11       		.uleb128 0x11
 2467 01fd 01       		.uleb128 0x1
 2468 01fe 12       		.uleb128 0x12
 2469 01ff 06       		.uleb128 0x6
 2470 0200 40       		.uleb128 0x40
 2471 0201 18       		.uleb128 0x18
 2472 0202 9742     		.uleb128 0x2117
 2473 0204 19       		.uleb128 0x19
 2474 0205 01       		.uleb128 0x1
 2475 0206 13       		.uleb128 0x13
 2476 0207 00       		.byte	0
 2477 0208 00       		.byte	0
 2478 0209 29       		.uleb128 0x29
 2479 020a 34       		.uleb128 0x34
 2480 020b 00       		.byte	0
 2481 020c 03       		.uleb128 0x3
 2482 020d 08       		.uleb128 0x8
 2483 020e 3A       		.uleb128 0x3a
 2484 020f 0B       		.uleb128 0xb
 2485 0210 3B       		.uleb128 0x3b
 2486 0211 0B       		.uleb128 0xb
 2487 0212 49       		.uleb128 0x49
 2488 0213 13       		.uleb128 0x13
 2489 0214 00       		.byte	0
 2490 0215 00       		.byte	0
 2491 0216 2A       		.uleb128 0x2a
 2492 0217 34       		.uleb128 0x34
 2493 0218 00       		.byte	0
 2494 0219 31       		.uleb128 0x31
 2495 021a 13       		.uleb128 0x13
 2496 021b 02       		.uleb128 0x2
 2497 021c 17       		.uleb128 0x17
 2498 021d 00       		.byte	0
 2499 021e 00       		.byte	0
 2500 021f 2B       		.uleb128 0x2b
 2501 0220 34       		.uleb128 0x34
ARM GAS  /var/folders/t8/16hdwfmd2fg_d3q6dgx6bpmw0000gn/T//ccPaAKSn.s 			page 45


 2502 0221 00       		.byte	0
 2503 0222 03       		.uleb128 0x3
 2504 0223 08       		.uleb128 0x8
 2505 0224 3A       		.uleb128 0x3a
 2506 0225 0B       		.uleb128 0xb
 2507 0226 3B       		.uleb128 0x3b
 2508 0227 0B       		.uleb128 0xb
 2509 0228 49       		.uleb128 0x49
 2510 0229 13       		.uleb128 0x13
 2511 022a 02       		.uleb128 0x2
 2512 022b 17       		.uleb128 0x17
 2513 022c 00       		.byte	0
 2514 022d 00       		.byte	0
 2515 022e 2C       		.uleb128 0x2c
 2516 022f 898201   		.uleb128 0x4109
 2517 0232 01       		.byte	0x1
 2518 0233 11       		.uleb128 0x11
 2519 0234 01       		.uleb128 0x1
 2520 0235 31       		.uleb128 0x31
 2521 0236 13       		.uleb128 0x13
 2522 0237 01       		.uleb128 0x1
 2523 0238 13       		.uleb128 0x13
 2524 0239 00       		.byte	0
 2525 023a 00       		.byte	0
 2526 023b 2D       		.uleb128 0x2d
 2527 023c 2E       		.uleb128 0x2e
 2528 023d 01       		.byte	0x1
 2529 023e 03       		.uleb128 0x3
 2530 023f 0E       		.uleb128 0xe
 2531 0240 3A       		.uleb128 0x3a
 2532 0241 0B       		.uleb128 0xb
 2533 0242 3B       		.uleb128 0x3b
 2534 0243 0B       		.uleb128 0xb
 2535 0244 27       		.uleb128 0x27
 2536 0245 19       		.uleb128 0x19
 2537 0246 20       		.uleb128 0x20
 2538 0247 0B       		.uleb128 0xb
 2539 0248 01       		.uleb128 0x1
 2540 0249 13       		.uleb128 0x13
 2541 024a 00       		.byte	0
 2542 024b 00       		.byte	0
 2543 024c 2E       		.uleb128 0x2e
 2544 024d 05       		.uleb128 0x5
 2545 024e 00       		.byte	0
 2546 024f 03       		.uleb128 0x3
 2547 0250 08       		.uleb128 0x8
 2548 0251 3A       		.uleb128 0x3a
 2549 0252 0B       		.uleb128 0xb
 2550 0253 3B       		.uleb128 0x3b
 2551 0254 0B       		.uleb128 0xb
 2552 0255 49       		.uleb128 0x49
 2553 0256 13       		.uleb128 0x13
 2554 0257 00       		.byte	0
 2555 0258 00       		.byte	0
 2556 0259 2F       		.uleb128 0x2f
 2557 025a 2E       		.uleb128 0x2e
 2558 025b 01       		.byte	0x1
ARM GAS  /var/folders/t8/16hdwfmd2fg_d3q6dgx6bpmw0000gn/T//ccPaAKSn.s 			page 46


 2559 025c 03       		.uleb128 0x3
 2560 025d 0E       		.uleb128 0xe
 2561 025e 3A       		.uleb128 0x3a
 2562 025f 0B       		.uleb128 0xb
 2563 0260 3B       		.uleb128 0x3b
 2564 0261 0B       		.uleb128 0xb
 2565 0262 27       		.uleb128 0x27
 2566 0263 19       		.uleb128 0x19
 2567 0264 49       		.uleb128 0x49
 2568 0265 13       		.uleb128 0x13
 2569 0266 20       		.uleb128 0x20
 2570 0267 0B       		.uleb128 0xb
 2571 0268 01       		.uleb128 0x1
 2572 0269 13       		.uleb128 0x13
 2573 026a 00       		.byte	0
 2574 026b 00       		.byte	0
 2575 026c 30       		.uleb128 0x30
 2576 026d 2E       		.uleb128 0x2e
 2577 026e 01       		.byte	0x1
 2578 026f 03       		.uleb128 0x3
 2579 0270 0E       		.uleb128 0xe
 2580 0271 3A       		.uleb128 0x3a
 2581 0272 0B       		.uleb128 0xb
 2582 0273 3B       		.uleb128 0x3b
 2583 0274 05       		.uleb128 0x5
 2584 0275 27       		.uleb128 0x27
 2585 0276 19       		.uleb128 0x19
 2586 0277 20       		.uleb128 0x20
 2587 0278 0B       		.uleb128 0xb
 2588 0279 01       		.uleb128 0x1
 2589 027a 13       		.uleb128 0x13
 2590 027b 00       		.byte	0
 2591 027c 00       		.byte	0
 2592 027d 31       		.uleb128 0x31
 2593 027e 34       		.uleb128 0x34
 2594 027f 00       		.byte	0
 2595 0280 03       		.uleb128 0x3
 2596 0281 0E       		.uleb128 0xe
 2597 0282 49       		.uleb128 0x49
 2598 0283 13       		.uleb128 0x13
 2599 0284 34       		.uleb128 0x34
 2600 0285 19       		.uleb128 0x19
 2601 0286 1C       		.uleb128 0x1c
 2602 0287 0E       		.uleb128 0xe
 2603 0288 00       		.byte	0
 2604 0289 00       		.byte	0
 2605 028a 32       		.uleb128 0x32
 2606 028b 2E       		.uleb128 0x2e
 2607 028c 00       		.byte	0
 2608 028d 03       		.uleb128 0x3
 2609 028e 0E       		.uleb128 0xe
 2610 028f 3A       		.uleb128 0x3a
 2611 0290 0B       		.uleb128 0xb
 2612 0291 3B       		.uleb128 0x3b
 2613 0292 05       		.uleb128 0x5
 2614 0293 27       		.uleb128 0x27
 2615 0294 19       		.uleb128 0x19
ARM GAS  /var/folders/t8/16hdwfmd2fg_d3q6dgx6bpmw0000gn/T//ccPaAKSn.s 			page 47


 2616 0295 20       		.uleb128 0x20
 2617 0296 0B       		.uleb128 0xb
 2618 0297 00       		.byte	0
 2619 0298 00       		.byte	0
 2620 0299 33       		.uleb128 0x33
 2621 029a 2E       		.uleb128 0x2e
 2622 029b 01       		.byte	0x1
 2623 029c 03       		.uleb128 0x3
 2624 029d 0E       		.uleb128 0xe
 2625 029e 3A       		.uleb128 0x3a
 2626 029f 0B       		.uleb128 0xb
 2627 02a0 3B       		.uleb128 0x3b
 2628 02a1 05       		.uleb128 0x5
 2629 02a2 27       		.uleb128 0x27
 2630 02a3 19       		.uleb128 0x19
 2631 02a4 49       		.uleb128 0x49
 2632 02a5 13       		.uleb128 0x13
 2633 02a6 20       		.uleb128 0x20
 2634 02a7 0B       		.uleb128 0xb
 2635 02a8 01       		.uleb128 0x1
 2636 02a9 13       		.uleb128 0x13
 2637 02aa 00       		.byte	0
 2638 02ab 00       		.byte	0
 2639 02ac 34       		.uleb128 0x34
 2640 02ad 05       		.uleb128 0x5
 2641 02ae 00       		.byte	0
 2642 02af 03       		.uleb128 0x3
 2643 02b0 08       		.uleb128 0x8
 2644 02b1 3A       		.uleb128 0x3a
 2645 02b2 0B       		.uleb128 0xb
 2646 02b3 3B       		.uleb128 0x3b
 2647 02b4 05       		.uleb128 0x5
 2648 02b5 49       		.uleb128 0x49
 2649 02b6 13       		.uleb128 0x13
 2650 02b7 00       		.byte	0
 2651 02b8 00       		.byte	0
 2652 02b9 35       		.uleb128 0x35
 2653 02ba 34       		.uleb128 0x34
 2654 02bb 00       		.byte	0
 2655 02bc 03       		.uleb128 0x3
 2656 02bd 08       		.uleb128 0x8
 2657 02be 3A       		.uleb128 0x3a
 2658 02bf 0B       		.uleb128 0xb
 2659 02c0 3B       		.uleb128 0x3b
 2660 02c1 05       		.uleb128 0x5
 2661 02c2 49       		.uleb128 0x49
 2662 02c3 13       		.uleb128 0x13
 2663 02c4 00       		.byte	0
 2664 02c5 00       		.byte	0
 2665 02c6 36       		.uleb128 0x36
 2666 02c7 2E       		.uleb128 0x2e
 2667 02c8 00       		.byte	0
 2668 02c9 03       		.uleb128 0x3
 2669 02ca 0E       		.uleb128 0xe
 2670 02cb 3A       		.uleb128 0x3a
 2671 02cc 0B       		.uleb128 0xb
 2672 02cd 3B       		.uleb128 0x3b
ARM GAS  /var/folders/t8/16hdwfmd2fg_d3q6dgx6bpmw0000gn/T//ccPaAKSn.s 			page 48


 2673 02ce 0B       		.uleb128 0xb
 2674 02cf 27       		.uleb128 0x27
 2675 02d0 19       		.uleb128 0x19
 2676 02d1 20       		.uleb128 0x20
 2677 02d2 0B       		.uleb128 0xb
 2678 02d3 00       		.byte	0
 2679 02d4 00       		.byte	0
 2680 02d5 37       		.uleb128 0x37
 2681 02d6 2E       		.uleb128 0x2e
 2682 02d7 00       		.byte	0
 2683 02d8 3F       		.uleb128 0x3f
 2684 02d9 19       		.uleb128 0x19
 2685 02da 3C       		.uleb128 0x3c
 2686 02db 19       		.uleb128 0x19
 2687 02dc 6E       		.uleb128 0x6e
 2688 02dd 0E       		.uleb128 0xe
 2689 02de 03       		.uleb128 0x3
 2690 02df 0E       		.uleb128 0xe
 2691 02e0 3A       		.uleb128 0x3a
 2692 02e1 0B       		.uleb128 0xb
 2693 02e2 3B       		.uleb128 0x3b
 2694 02e3 0B       		.uleb128 0xb
 2695 02e4 00       		.byte	0
 2696 02e5 00       		.byte	0
 2697 02e6 38       		.uleb128 0x38
 2698 02e7 2E       		.uleb128 0x2e
 2699 02e8 00       		.byte	0
 2700 02e9 3F       		.uleb128 0x3f
 2701 02ea 19       		.uleb128 0x19
 2702 02eb 3C       		.uleb128 0x3c
 2703 02ec 19       		.uleb128 0x19
 2704 02ed 6E       		.uleb128 0x6e
 2705 02ee 0E       		.uleb128 0xe
 2706 02ef 03       		.uleb128 0x3
 2707 02f0 0E       		.uleb128 0xe
 2708 02f1 3A       		.uleb128 0x3a
 2709 02f2 0B       		.uleb128 0xb
 2710 02f3 3B       		.uleb128 0x3b
 2711 02f4 05       		.uleb128 0x5
 2712 02f5 00       		.byte	0
 2713 02f6 00       		.byte	0
 2714 02f7 00       		.byte	0
 2715              		.section	.debug_loc,"",%progbits
 2716              	.Ldebug_loc0:
 2717              	.LLST8:
 2718 0000 00000000 		.4byte	.LVL29
 2719 0004 0B000000 		.4byte	.LVL30-1
 2720 0008 0100     		.2byte	0x1
 2721 000a 50       		.byte	0x50
 2722 000b 0B000000 		.4byte	.LVL30-1
 2723 000f 3E000000 		.4byte	.LVL35
 2724 0013 0100     		.2byte	0x1
 2725 0015 54       		.byte	0x54
 2726 0016 3E000000 		.4byte	.LVL35
 2727 001a 40000000 		.4byte	.LVL37
 2728 001e 0400     		.2byte	0x4
 2729 0020 F3       		.byte	0xf3
ARM GAS  /var/folders/t8/16hdwfmd2fg_d3q6dgx6bpmw0000gn/T//ccPaAKSn.s 			page 49


 2730 0021 01       		.uleb128 0x1
 2731 0022 50       		.byte	0x50
 2732 0023 9F       		.byte	0x9f
 2733 0024 40000000 		.4byte	.LVL37
 2734 0028 54000000 		.4byte	.LFE140
 2735 002c 0100     		.2byte	0x1
 2736 002e 54       		.byte	0x54
 2737 002f 00000000 		.4byte	0
 2738 0033 00000000 		.4byte	0
 2739              	.LLST9:
 2740 0037 00000000 		.4byte	.LVL29
 2741 003b 0B000000 		.4byte	.LVL30-1
 2742 003f 0100     		.2byte	0x1
 2743 0041 51       		.byte	0x51
 2744 0042 0B000000 		.4byte	.LVL30-1
 2745 0046 3E000000 		.4byte	.LVL36
 2746 004a 0100     		.2byte	0x1
 2747 004c 55       		.byte	0x55
 2748 004d 3E000000 		.4byte	.LVL36
 2749 0051 40000000 		.4byte	.LVL37
 2750 0055 0400     		.2byte	0x4
 2751 0057 F3       		.byte	0xf3
 2752 0058 01       		.uleb128 0x1
 2753 0059 51       		.byte	0x51
 2754 005a 9F       		.byte	0x9f
 2755 005b 40000000 		.4byte	.LVL37
 2756 005f 54000000 		.4byte	.LFE140
 2757 0063 0100     		.2byte	0x1
 2758 0065 55       		.byte	0x55
 2759 0066 00000000 		.4byte	0
 2760 006a 00000000 		.4byte	0
 2761              	.LLST10:
 2762 006e 1A000000 		.4byte	.LVL31
 2763 0072 26000000 		.4byte	.LVL33
 2764 0076 0100     		.2byte	0x1
 2765 0078 55       		.byte	0x55
 2766 0079 00000000 		.4byte	0
 2767 007d 00000000 		.4byte	0
 2768              	.LLST11:
 2769 0081 1A000000 		.4byte	.LVL31
 2770 0085 26000000 		.4byte	.LVL33
 2771 0089 0100     		.2byte	0x1
 2772 008b 54       		.byte	0x54
 2773 008c 00000000 		.4byte	0
 2774 0090 00000000 		.4byte	0
 2775              	.LLST5:
 2776 0094 0C000000 		.4byte	.LVL20
 2777 0098 10000000 		.4byte	.LVL21
 2778 009c 0100     		.2byte	0x1
 2779 009e 55       		.byte	0x55
 2780 009f 00000000 		.4byte	0
 2781 00a3 00000000 		.4byte	0
 2782              	.LLST6:
 2783 00a7 1C000000 		.4byte	.LVL22
 2784 00ab 20000000 		.4byte	.LVL24
 2785 00af 0300     		.2byte	0x3
 2786 00b1 73       		.byte	0x73
ARM GAS  /var/folders/t8/16hdwfmd2fg_d3q6dgx6bpmw0000gn/T//ccPaAKSn.s 			page 50


 2787 00b2 2C       		.sleb128 44
 2788 00b3 9F       		.byte	0x9f
 2789 00b4 20000000 		.4byte	.LVL24
 2790 00b8 26000000 		.4byte	.LVL25
 2791 00bc 0100     		.2byte	0x1
 2792 00be 53       		.byte	0x53
 2793 00bf 00000000 		.4byte	0
 2794 00c3 00000000 		.4byte	0
 2795              	.LLST7:
 2796 00c7 1E000000 		.4byte	.LVL23
 2797 00cb 26000000 		.4byte	.LVL25
 2798 00cf 0100     		.2byte	0x1
 2799 00d1 55       		.byte	0x55
 2800 00d2 00000000 		.4byte	0
 2801 00d6 00000000 		.4byte	0
 2802              	.LLST0:
 2803 00da 00000000 		.4byte	.LVL0
 2804 00de 0E000000 		.4byte	.LVL2
 2805 00e2 0100     		.2byte	0x1
 2806 00e4 50       		.byte	0x50
 2807 00e5 0E000000 		.4byte	.LVL2
 2808 00e9 4C000000 		.4byte	.LVL11
 2809 00ed 0100     		.2byte	0x1
 2810 00ef 55       		.byte	0x55
 2811 00f0 4C000000 		.4byte	.LVL11
 2812 00f4 4E000000 		.4byte	.LVL12
 2813 00f8 0400     		.2byte	0x4
 2814 00fa F3       		.byte	0xf3
 2815 00fb 01       		.uleb128 0x1
 2816 00fc 50       		.byte	0x50
 2817 00fd 9F       		.byte	0x9f
 2818 00fe 4E000000 		.4byte	.LVL12
 2819 0102 5E000000 		.4byte	.LVL16
 2820 0106 0100     		.2byte	0x1
 2821 0108 55       		.byte	0x55
 2822 0109 5E000000 		.4byte	.LVL16
 2823 010d 60000000 		.4byte	.LVL17
 2824 0111 0100     		.2byte	0x1
 2825 0113 50       		.byte	0x50
 2826 0114 60000000 		.4byte	.LVL17
 2827 0118 74000000 		.4byte	.LFE138
 2828 011c 0100     		.2byte	0x1
 2829 011e 55       		.byte	0x55
 2830 011f 00000000 		.4byte	0
 2831 0123 00000000 		.4byte	0
 2832              	.LLST1:
 2833 0127 00000000 		.4byte	.LVL0
 2834 012b 0E000000 		.4byte	.LVL2
 2835 012f 0100     		.2byte	0x1
 2836 0131 51       		.byte	0x51
 2837 0132 0E000000 		.4byte	.LVL2
 2838 0136 34000000 		.4byte	.LVL8
 2839 013a 0100     		.2byte	0x1
 2840 013c 57       		.byte	0x57
 2841 013d 34000000 		.4byte	.LVL8
 2842 0141 4C000000 		.4byte	.LVL10
 2843 0145 0100     		.2byte	0x1
ARM GAS  /var/folders/t8/16hdwfmd2fg_d3q6dgx6bpmw0000gn/T//ccPaAKSn.s 			page 51


 2844 0147 54       		.byte	0x54
 2845 0148 4C000000 		.4byte	.LVL10
 2846 014c 4E000000 		.4byte	.LVL12
 2847 0150 0100     		.2byte	0x1
 2848 0152 50       		.byte	0x50
 2849 0153 4E000000 		.4byte	.LVL12
 2850 0157 56000000 		.4byte	.LVL14
 2851 015b 0100     		.2byte	0x1
 2852 015d 54       		.byte	0x54
 2853 015e 56000000 		.4byte	.LVL14
 2854 0162 5E000000 		.4byte	.LVL16
 2855 0166 0100     		.2byte	0x1
 2856 0168 57       		.byte	0x57
 2857 0169 5E000000 		.4byte	.LVL16
 2858 016d 63000000 		.4byte	.LVL18-1
 2859 0171 0100     		.2byte	0x1
 2860 0173 51       		.byte	0x51
 2861 0174 63000000 		.4byte	.LVL18-1
 2862 0178 74000000 		.4byte	.LFE138
 2863 017c 0100     		.2byte	0x1
 2864 017e 57       		.byte	0x57
 2865 017f 00000000 		.4byte	0
 2866 0183 00000000 		.4byte	0
 2867              	.LLST2:
 2868 0187 0A000000 		.4byte	.LVL1
 2869 018b 34000000 		.4byte	.LVL8
 2870 018f 0100     		.2byte	0x1
 2871 0191 54       		.byte	0x54
 2872 0192 56000000 		.4byte	.LVL14
 2873 0196 74000000 		.4byte	.LFE138
 2874 019a 0100     		.2byte	0x1
 2875 019c 54       		.byte	0x54
 2876 019d 00000000 		.4byte	0
 2877 01a1 00000000 		.4byte	0
 2878              	.LLST3:
 2879 01a5 1E000000 		.4byte	.LVL4
 2880 01a9 22000000 		.4byte	.LVL5
 2881 01ad 0200     		.2byte	0x2
 2882 01af 74       		.byte	0x74
 2883 01b0 00       		.sleb128 0
 2884 01b1 22000000 		.4byte	.LVL5
 2885 01b5 26000000 		.4byte	.LVL6
 2886 01b9 0300     		.2byte	0x3
 2887 01bb 75       		.byte	0x75
 2888 01bc 2C       		.sleb128 44
 2889 01bd 9F       		.byte	0x9f
 2890 01be 00000000 		.4byte	0
 2891 01c2 00000000 		.4byte	0
 2892              	.LLST4:
 2893 01c6 1E000000 		.4byte	.LVL4
 2894 01ca 26000000 		.4byte	.LVL6
 2895 01ce 0100     		.2byte	0x1
 2896 01d0 54       		.byte	0x54
 2897 01d1 00000000 		.4byte	0
 2898 01d5 00000000 		.4byte	0
 2899              		.section	.debug_aranges,"",%progbits
 2900 0000 2C000000 		.4byte	0x2c
ARM GAS  /var/folders/t8/16hdwfmd2fg_d3q6dgx6bpmw0000gn/T//ccPaAKSn.s 			page 52


 2901 0004 0200     		.2byte	0x2
 2902 0006 00000000 		.4byte	.Ldebug_info0
 2903 000a 04       		.byte	0x4
 2904 000b 00       		.byte	0
 2905 000c 0000     		.2byte	0
 2906 000e 0000     		.2byte	0
 2907 0010 00000000 		.4byte	.LFB138
 2908 0014 74000000 		.4byte	.LFE138-.LFB138
 2909 0018 00000000 		.4byte	.LFB139
 2910 001c 60000000 		.4byte	.LFE139-.LFB139
 2911 0020 00000000 		.4byte	.LFB140
 2912 0024 54000000 		.4byte	.LFE140-.LFB140
 2913 0028 00000000 		.4byte	0
 2914 002c 00000000 		.4byte	0
 2915              		.section	.debug_ranges,"",%progbits
 2916              	.Ldebug_ranges0:
 2917 0000 18000000 		.4byte	.LBB54
 2918 0004 1C000000 		.4byte	.LBE54
 2919 0008 1E000000 		.4byte	.LBB58
 2920 000c 22000000 		.4byte	.LBE58
 2921 0010 24000000 		.4byte	.LBB59
 2922 0014 26000000 		.4byte	.LBE59
 2923 0018 00000000 		.4byte	0
 2924 001c 00000000 		.4byte	0
 2925 0020 34000000 		.4byte	.LBB60
 2926 0024 4A000000 		.4byte	.LBE60
 2927 0028 4E000000 		.4byte	.LBB66
 2928 002c 56000000 		.4byte	.LBE66
 2929 0030 00000000 		.4byte	0
 2930 0034 00000000 		.4byte	0
 2931 0038 0C000000 		.4byte	.LBB86
 2932 003c 12000000 		.4byte	.LBE86
 2933 0040 14000000 		.4byte	.LBB89
 2934 0044 16000000 		.4byte	.LBE89
 2935 0048 00000000 		.4byte	0
 2936 004c 00000000 		.4byte	0
 2937 0050 1C000000 		.4byte	.LBB90
 2938 0054 1E000000 		.4byte	.LBE90
 2939 0058 20000000 		.4byte	.LBB93
 2940 005c 26000000 		.4byte	.LBE93
 2941 0060 00000000 		.4byte	0
 2942 0064 00000000 		.4byte	0
 2943 0068 2C000000 		.4byte	.LBB94
 2944 006c 42000000 		.4byte	.LBE94
 2945 0070 46000000 		.4byte	.LBB100
 2946 0074 4E000000 		.4byte	.LBE100
 2947 0078 00000000 		.4byte	0
 2948 007c 00000000 		.4byte	0
 2949 0080 26000000 		.4byte	.LBB120
 2950 0084 3E000000 		.4byte	.LBE120
 2951 0088 40000000 		.4byte	.LBB126
 2952 008c 54000000 		.4byte	.LBE126
 2953 0090 00000000 		.4byte	0
 2954 0094 00000000 		.4byte	0
 2955 0098 00000000 		.4byte	.LFB138
 2956 009c 74000000 		.4byte	.LFE138
 2957 00a0 00000000 		.4byte	.LFB139
ARM GAS  /var/folders/t8/16hdwfmd2fg_d3q6dgx6bpmw0000gn/T//ccPaAKSn.s 			page 53


 2958 00a4 60000000 		.4byte	.LFE139
 2959 00a8 00000000 		.4byte	.LFB140
 2960 00ac 54000000 		.4byte	.LFE140
 2961 00b0 00000000 		.4byte	0
 2962 00b4 00000000 		.4byte	0
 2963              		.section	.debug_line,"",%progbits
 2964              	.Ldebug_line0:
 2965 0000 16040000 		.section	.debug_str,"MS",%progbits,1
 2965      0200E602 
 2965      00000201 
 2965      FB0E0D00 
 2965      01010101 
 2966              	.LASF48:
 2967 0000 63685F74 		.ascii	"ch_threads_list\000"
 2967      68726561 
 2967      64735F6C 
 2967      69737400 
 2968              	.LASF96:
 2969 0010 74696D65 		.ascii	"timesize\000"
 2969      73697A65 
 2969      00
 2970              	.LASF134:
 2971 0019 474E5520 		.ascii	"GNU C99 7.2.1 20170904 (release) [ARM/embedded-7-br"
 2971      43393920 
 2971      372E322E 
 2971      31203230 
 2971      31373039 
 2972 004c 616E6368 		.ascii	"anch revision 255204] -mcpu=cortex-m0plus -mno-thum"
 2972      20726576 
 2972      6973696F 
 2972      6E203235 
 2972      35323034 
 2973 007f 622D696E 		.ascii	"b-interwork -mthumb -ggdb -O2 -std=gnu99 -fomit-fra"
 2973      74657277 
 2973      6F726B20 
 2973      2D6D7468 
 2973      756D6220 
 2974 00b2 6D652D70 		.ascii	"me-pointer -falign-functions=16 -ffunction-sections"
 2974      6F696E74 
 2974      6572202D 
 2974      66616C69 
 2974      676E2D66 
 2975 00e5 202D6664 		.ascii	" -fdata-sections -fno-common\000"
 2975      6174612D 
 2975      73656374 
 2975      696F6E73 
 2975      202D666E 
 2976              	.LASF84:
 2977 0102 77746D74 		.ascii	"wtmtxp\000"
 2977      787000
 2978              	.LASF129:
 2979 0109 5F646267 		.ascii	"_dbg_check_unlock\000"
 2979      5F636865 
 2979      636B5F75 
 2979      6E6C6F63 
 2979      6B00
 2980              	.LASF74:
ARM GAS  /var/folders/t8/16hdwfmd2fg_d3q6dgx6bpmw0000gn/T//ccPaAKSn.s 			page 54


 2981 011b 72656761 		.ascii	"regarm_t\000"
 2981      726D5F74 
 2981      00
 2982              	.LASF36:
 2983 0124 666C6167 		.ascii	"flags\000"
 2983      7300
 2984              	.LASF27:
 2985 012a 73797374 		.ascii	"systime_t\000"
 2985      696D655F 
 2985      7400
 2986              	.LASF43:
 2987 0134 7265616C 		.ascii	"realprio\000"
 2987      7072696F 
 2987      00
 2988              	.LASF41:
 2989 013d 6570656E 		.ascii	"epending\000"
 2989      64696E67 
 2989      00
 2990              	.LASF0:
 2991 0146 756E7369 		.ascii	"unsigned int\000"
 2991      676E6564 
 2991      20696E74 
 2991      00
 2992              	.LASF49:
 2993 0153 6E657874 		.ascii	"next\000"
 2993      00
 2994              	.LASF94:
 2995 0158 76657273 		.ascii	"version\000"
 2995      696F6E00 
 2996              	.LASF46:
 2997 0160 74687265 		.ascii	"threads_list_t\000"
 2997      6164735F 
 2997      6C697374 
 2997      5F7400
 2998              	.LASF7:
 2999 016f 5F5F696E 		.ascii	"__int32_t\000"
 2999      7433325F 
 2999      7400
 3000              	.LASF37:
 3001 0179 72656673 		.ascii	"refs\000"
 3001      00
 3002              	.LASF114:
 3003 017e 63684D73 		.ascii	"chMsgSend\000"
 3003      6753656E 
 3003      6400
 3004              	.LASF108:
 3005 0188 6F66665F 		.ascii	"off_time\000"
 3005      74696D65 
 3005      00
 3006              	.LASF80:
 3007 0191 77746F62 		.ascii	"wtobjp\000"
 3007      6A7000
 3008              	.LASF123:
 3009 0198 706F7274 		.ascii	"port_lock\000"
 3009      5F6C6F63 
 3009      6B00
 3010              	.LASF72:
ARM GAS  /var/folders/t8/16hdwfmd2fg_d3q6dgx6bpmw0000gn/T//ccPaAKSn.s 			page 55


 3011 01a2 76746C69 		.ascii	"vtlist\000"
 3011      737400
 3012              	.LASF76:
 3013 01a9 706F7274 		.ascii	"port_context\000"
 3013      5F636F6E 
 3013      74657874 
 3013      00
 3014              	.LASF54:
 3015 01b6 63685F72 		.ascii	"ch_ready_list\000"
 3015      65616479 
 3015      5F6C6973 
 3015      7400
 3016              	.LASF60:
 3017 01c4 66756E63 		.ascii	"func\000"
 3017      00
 3018              	.LASF85:
 3019 01c9 65776D61 		.ascii	"ewmask\000"
 3019      736B00
 3020              	.LASF52:
 3021 01d0 70726576 		.ascii	"prev\000"
 3021      00
 3022              	.LASF51:
 3023 01d5 63685F74 		.ascii	"ch_threads_queue\000"
 3023      68726561 
 3023      64735F71 
 3023      75657565 
 3023      00
 3024              	.LASF100:
 3025 01e6 6F66665F 		.ascii	"off_newer\000"
 3025      6E657765 
 3025      7200
 3026              	.LASF56:
 3027 01f0 76746675 		.ascii	"vtfunc_t\000"
 3027      6E635F74 
 3027      00
 3028              	.LASF137:
 3029 01f9 63684D73 		.ascii	"chMsgRelease\000"
 3029      6752656C 
 3029      65617365 
 3029      00
 3030              	.LASF133:
 3031 0206 63685363 		.ascii	"chSchReadyI\000"
 3031      68526561 
 3031      64794900 
 3032              	.LASF65:
 3033 0212 63685F73 		.ascii	"ch_system_debug\000"
 3033      79737465 
 3033      6D5F6465 
 3033      62756700 
 3034              	.LASF17:
 3035 0222 75696E74 		.ascii	"uint32_t\000"
 3035      33325F74 
 3035      00
 3036              	.LASF82:
 3037 022b 73656E74 		.ascii	"sentmsg\000"
 3037      6D736700 
 3038              	.LASF25:
ARM GAS  /var/folders/t8/16hdwfmd2fg_d3q6dgx6bpmw0000gn/T//ccPaAKSn.s 			page 56


 3039 0233 6576656E 		.ascii	"eventmask_t\000"
 3039      746D6173 
 3039      6B5F7400 
 3040              	.LASF97:
 3041 023f 74687265 		.ascii	"threadsize\000"
 3041      61647369 
 3041      7A6500
 3042              	.LASF86:
 3043 024a 63685F73 		.ascii	"ch_semaphore\000"
 3043      656D6170 
 3043      686F7265 
 3043      00
 3044              	.LASF23:
 3045 0257 74707269 		.ascii	"tprio_t\000"
 3045      6F5F7400 
 3046              	.LASF58:
 3047 025f 63685F76 		.ascii	"ch_virtual_timer\000"
 3047      69727475 
 3047      616C5F74 
 3047      696D6572 
 3047      00
 3048              	.LASF13:
 3049 0270 6C6F6E67 		.ascii	"long long unsigned int\000"
 3049      206C6F6E 
 3049      6720756E 
 3049      7369676E 
 3049      65642069 
 3050              	.LASF5:
 3051 0287 5F5F7569 		.ascii	"__uint16_t\000"
 3051      6E743136 
 3051      5F7400
 3052              	.LASF26:
 3053 0292 636E745F 		.ascii	"cnt_t\000"
 3053      7400
 3054              	.LASF103:
 3055 0298 6F66665F 		.ascii	"off_stklimit\000"
 3055      73746B6C 
 3055      696D6974 
 3055      00
 3056              	.LASF67:
 3057 02a5 6973725F 		.ascii	"isr_cnt\000"
 3057      636E7400 
 3058              	.LASF88:
 3059 02ad 6F776E65 		.ascii	"owner\000"
 3059      7200
 3060              	.LASF50:
 3061 02b3 74687265 		.ascii	"threads_queue_t\000"
 3061      6164735F 
 3061      71756575 
 3061      655F7400 
 3062              	.LASF42:
 3063 02c3 6D74786C 		.ascii	"mtxlist\000"
 3063      69737400 
 3064              	.LASF62:
 3065 02cb 63685F76 		.ascii	"ch_virtual_timers_list\000"
 3065      69727475 
 3065      616C5F74 
ARM GAS  /var/folders/t8/16hdwfmd2fg_d3q6dgx6bpmw0000gn/T//ccPaAKSn.s 			page 57


 3065      696D6572 
 3065      735F6C69 
 3066              	.LASF28:
 3067 02e2 74687265 		.ascii	"thread_t\000"
 3067      61645F74 
 3067      00
 3068              	.LASF101:
 3069 02eb 6F66665F 		.ascii	"off_older\000"
 3069      6F6C6465 
 3069      7200
 3070              	.LASF104:
 3071 02f5 6F66665F 		.ascii	"off_state\000"
 3071      73746174 
 3071      6500
 3072              	.LASF78:
 3073 02ff 7264796D 		.ascii	"rdymsg\000"
 3073      736700
 3074              	.LASF124:
 3075 0306 5F5F6469 		.ascii	"__disable_irq\000"
 3075      7361626C 
 3075      655F6972 
 3075      7100
 3076              	.LASF115:
 3077 0314 5F426F6F 		.ascii	"_Bool\000"
 3077      6C00
 3078              	.LASF87:
 3079 031a 63685F6D 		.ascii	"ch_mutex\000"
 3079      75746578 
 3079      00
 3080              	.LASF12:
 3081 0323 5F5F7569 		.ascii	"__uint64_t\000"
 3081      6E743634 
 3081      5F7400
 3082              	.LASF99:
 3083 032e 6F66665F 		.ascii	"off_ctx\000"
 3083      63747800 
 3084              	.LASF121:
 3085 0336 63685379 		.ascii	"chSysLock\000"
 3085      734C6F63 
 3085      6B00
 3086              	.LASF118:
 3087 0340 63684D73 		.ascii	"chMsgIsPendingI\000"
 3087      67497350 
 3087      656E6469 
 3087      6E674900 
 3088              	.LASF105:
 3089 0350 6F66665F 		.ascii	"off_flags\000"
 3089      666C6167 
 3089      7300
 3090              	.LASF30:
 3091 035a 7072696F 		.ascii	"prio\000"
 3091      00
 3092              	.LASF89:
 3093 035f 63686172 		.ascii	"char\000"
 3093      00
 3094              	.LASF45:
 3095 0364 74687265 		.ascii	"thread_reference_t\000"
ARM GAS  /var/folders/t8/16hdwfmd2fg_d3q6dgx6bpmw0000gn/T//ccPaAKSn.s 			page 58


 3095      61645F72 
 3095      65666572 
 3095      656E6365 
 3095      5F7400
 3096              	.LASF34:
 3097 0377 77616261 		.ascii	"wabase\000"
 3097      736500
 3098              	.LASF90:
 3099 037e 63685F69 		.ascii	"ch_idle_thread_wa\000"
 3099      646C655F 
 3099      74687265 
 3099      61645F77 
 3099      6100
 3100              	.LASF20:
 3101 0390 74737461 		.ascii	"tstate_t\000"
 3101      74655F74 
 3101      00
 3102              	.LASF14:
 3103 0399 75696E74 		.ascii	"uint8_t\000"
 3103      385F7400 
 3104              	.LASF40:
 3105 03a1 6D736771 		.ascii	"msgqueue\000"
 3105      75657565 
 3105      00
 3106              	.LASF47:
 3107 03aa 63685F74 		.ascii	"ch_thread\000"
 3107      68726561 
 3107      6400
 3108              	.LASF102:
 3109 03b4 6F66665F 		.ascii	"off_name\000"
 3109      6E616D65 
 3109      00
 3110              	.LASF64:
 3111 03bd 73797374 		.ascii	"system_debug_t\000"
 3111      656D5F64 
 3111      65627567 
 3111      5F7400
 3112              	.LASF126:
 3113 03cc 5F646267 		.ascii	"_dbg_check_lock\000"
 3113      5F636865 
 3113      636B5F6C 
 3113      6F636B00 
 3114              	.LASF11:
 3115 03dc 6C6F6E67 		.ascii	"long long int\000"
 3115      206C6F6E 
 3115      6720696E 
 3115      7400
 3116              	.LASF92:
 3117 03ea 7A65726F 		.ascii	"zero\000"
 3117      00
 3118              	.LASF24:
 3119 03ef 6D73675F 		.ascii	"msg_t\000"
 3119      7400
 3120              	.LASF113:
 3121 03f5 63684D73 		.ascii	"chMsgWait\000"
 3121      67576169 
 3121      7400
ARM GAS  /var/folders/t8/16hdwfmd2fg_d3q6dgx6bpmw0000gn/T//ccPaAKSn.s 			page 59


 3122              	.LASF57:
 3123 03ff 76697274 		.ascii	"virtual_timer_t\000"
 3123      75616C5F 
 3123      74696D65 
 3123      725F7400 
 3124              	.LASF119:
 3125 040f 71756575 		.ascii	"queue_fifo_remove\000"
 3125      655F6669 
 3125      666F5F72 
 3125      656D6F76 
 3125      6500
 3126              	.LASF93:
 3127 0421 73697A65 		.ascii	"size\000"
 3127      00
 3128              	.LASF95:
 3129 0426 70747273 		.ascii	"ptrsize\000"
 3129      697A6500 
 3130              	.LASF131:
 3131 042e 63684462 		.ascii	"chDbgCheckClassI\000"
 3131      67436865 
 3131      636B436C 
 3131      61737349 
 3131      00
 3132              	.LASF22:
 3133 043f 74736C69 		.ascii	"tslices_t\000"
 3133      6365735F 
 3133      7400
 3134              	.LASF127:
 3135 0449 63684462 		.ascii	"chDbgCheckClassS\000"
 3135      67436865 
 3135      636B436C 
 3135      61737353 
 3135      00
 3136              	.LASF136:
 3137 045a 2F557365 		.ascii	"/Users/jpablobr/tmp/tmk/di0ib-tmk_keyboard/keyboard"
 3137      72732F6A 
 3137      7061626C 
 3137      6F62722F 
 3137      746D702F 
 3138 048d 2F746565 		.ascii	"/teensy_lc_menelaus\000"
 3138      6E73795F 
 3138      6C635F6D 
 3138      656E656C 
 3138      61757300 
 3139              	.LASF135:
 3140 04a1 2E2E2F2E 		.ascii	"../../tmk_core/tool/chibios/ChibiOS/os/rt/src/chmsg"
 3140      2E2F746D 
 3140      6B5F636F 
 3140      72652F74 
 3140      6F6F6C2F 
 3141 04d4 2E6300   		.ascii	".c\000"
 3142              	.LASF66:
 3143 04d7 70616E69 		.ascii	"panic_msg\000"
 3143      635F6D73 
 3143      6700
 3144              	.LASF19:
 3145 04e1 746D6F64 		.ascii	"tmode_t\000"
ARM GAS  /var/folders/t8/16hdwfmd2fg_d3q6dgx6bpmw0000gn/T//ccPaAKSn.s 			page 60


 3145      655F7400 
 3146              	.LASF63:
 3147 04e9 73797374 		.ascii	"systime\000"
 3147      696D6500 
 3148              	.LASF73:
 3149 04f1 6D61696E 		.ascii	"mainthread\000"
 3149      74687265 
 3149      616400
 3150              	.LASF15:
 3151 04fc 75696E74 		.ascii	"uint16_t\000"
 3151      31365F74 
 3151      00
 3152              	.LASF109:
 3153 0505 63686465 		.ascii	"chdebug_t\000"
 3153      6275675F 
 3153      7400
 3154              	.LASF98:
 3155 050f 6F66665F 		.ascii	"off_prio\000"
 3155      7072696F 
 3155      00
 3156              	.LASF68:
 3157 0518 6C6F636B 		.ascii	"lock_cnt\000"
 3157      5F636E74 
 3157      00
 3158              	.LASF3:
 3159 0521 73686F72 		.ascii	"short int\000"
 3159      7420696E 
 3159      7400
 3160              	.LASF8:
 3161 052b 6C6F6E67 		.ascii	"long int\000"
 3161      20696E74 
 3161      00
 3162              	.LASF77:
 3163 0534 706F7274 		.ascii	"port_intctx\000"
 3163      5F696E74 
 3163      63747800 
 3164              	.LASF38:
 3165 0540 70726565 		.ascii	"preempt\000"
 3165      6D707400 
 3166              	.LASF125:
 3167 0548 5F5F656E 		.ascii	"__enable_irq\000"
 3167      61626C65 
 3167      5F697271 
 3167      00
 3168              	.LASF70:
 3169 0555 63685F73 		.ascii	"ch_system\000"
 3169      79737465 
 3169      6D00
 3170              	.LASF18:
 3171 055f 75696E74 		.ascii	"uint64_t\000"
 3171      36345F74 
 3171      00
 3172              	.LASF71:
 3173 0568 726C6973 		.ascii	"rlist\000"
 3173      7400
 3174              	.LASF4:
 3175 056e 5F5F7569 		.ascii	"__uint8_t\000"
ARM GAS  /var/folders/t8/16hdwfmd2fg_d3q6dgx6bpmw0000gn/T//ccPaAKSn.s 			page 61


 3175      6E74385F 
 3175      7400
 3176              	.LASF33:
 3177 0578 6E616D65 		.ascii	"name\000"
 3177      00
 3178              	.LASF132:
 3179 057d 63685363 		.ascii	"chSchGoSleepS\000"
 3179      68476F53 
 3179      6C656570 
 3179      5300
 3180              	.LASF91:
 3181 058b 6964656E 		.ascii	"identifier\000"
 3181      74696669 
 3181      657200
 3182              	.LASF107:
 3183 0596 6F66665F 		.ascii	"off_preempt\000"
 3183      70726565 
 3183      6D707400 
 3184              	.LASF117:
 3185 05a2 63685379 		.ascii	"chSysUnlock\000"
 3185      73556E6C 
 3185      6F636B00 
 3186              	.LASF21:
 3187 05ae 74726566 		.ascii	"trefs_t\000"
 3187      735F7400 
 3188              	.LASF10:
 3189 05b6 6C6F6E67 		.ascii	"long unsigned int\000"
 3189      20756E73 
 3189      69676E65 
 3189      6420696E 
 3189      7400
 3190              	.LASF53:
 3191 05c8 72656164 		.ascii	"ready_list_t\000"
 3191      795F6C69 
 3191      73745F74 
 3191      00
 3192              	.LASF29:
 3193 05d5 71756575 		.ascii	"queue\000"
 3193      6500
 3194              	.LASF16:
 3195 05db 696E7433 		.ascii	"int32_t\000"
 3195      325F7400 
 3196              	.LASF83:
 3197 05e3 77747365 		.ascii	"wtsemp\000"
 3197      6D7000
 3198              	.LASF111:
 3199 05ea 6D757465 		.ascii	"mutex_t\000"
 3199      785F7400 
 3200              	.LASF31:
 3201 05f2 6E657765 		.ascii	"newer\000"
 3201      7200
 3202              	.LASF2:
 3203 05f8 756E7369 		.ascii	"unsigned char\000"
 3203      676E6564 
 3203      20636861 
 3203      7200
 3204              	.LASF9:
ARM GAS  /var/folders/t8/16hdwfmd2fg_d3q6dgx6bpmw0000gn/T//ccPaAKSn.s 			page 62


 3205 0606 5F5F7569 		.ascii	"__uint32_t\000"
 3205      6E743332 
 3205      5F7400
 3206              	.LASF39:
 3207 0611 77616974 		.ascii	"waiting\000"
 3207      696E6700 
 3208              	.LASF61:
 3209 0619 76697274 		.ascii	"virtual_timers_list_t\000"
 3209      75616C5F 
 3209      74696D65 
 3209      72735F6C 
 3209      6973745F 
 3210              	.LASF116:
 3211 062f 63684D73 		.ascii	"chMsgReleaseS\000"
 3211      6752656C 
 3211      65617365 
 3211      5300
 3212              	.LASF128:
 3213 063d 63685363 		.ascii	"chSchWakeupS\000"
 3213      6857616B 
 3213      65757053 
 3213      00
 3214              	.LASF35:
 3215 064a 73746174 		.ascii	"state\000"
 3215      6500
 3216              	.LASF130:
 3217 0650 63685379 		.ascii	"chSysHalt\000"
 3217      7348616C 
 3217      7400
 3218              	.LASF69:
 3219 065a 63685F73 		.ascii	"ch_system_t\000"
 3219      79737465 
 3219      6D5F7400 
 3220              	.LASF81:
 3221 0666 77747472 		.ascii	"wttrp\000"
 3221      7000
 3222              	.LASF1:
 3223 066c 7369676E 		.ascii	"signed char\000"
 3223      65642063 
 3223      68617200 
 3224              	.LASF59:
 3225 0678 64656C74 		.ascii	"delta\000"
 3225      6100
 3226              	.LASF6:
 3227 067e 73686F72 		.ascii	"short unsigned int\000"
 3227      7420756E 
 3227      7369676E 
 3227      65642069 
 3227      6E7400
 3228              	.LASF120:
 3229 0691 71756575 		.ascii	"queue_insert\000"
 3229      655F696E 
 3229      73657274 
 3229      00
 3230              	.LASF75:
 3231 069e 73746B61 		.ascii	"stkalign_t\000"
 3231      6C69676E 
ARM GAS  /var/folders/t8/16hdwfmd2fg_d3q6dgx6bpmw0000gn/T//ccPaAKSn.s 			page 63


 3231      5F7400
 3232              	.LASF106:
 3233 06a9 6F66665F 		.ascii	"off_refs\000"
 3233      72656673 
 3233      00
 3234              	.LASF55:
 3235 06b2 63757272 		.ascii	"current\000"
 3235      656E7400 
 3236              	.LASF112:
 3237 06ba 5F5F6675 		.ascii	"__func__\000"
 3237      6E635F5F 
 3237      00
 3238              	.LASF110:
 3239 06c3 63685F64 		.ascii	"ch_debug\000"
 3239      65627567 
 3239      00
 3240              	.LASF122:
 3241 06cc 706F7274 		.ascii	"port_unlock\000"
 3241      5F756E6C 
 3241      6F636B00 
 3242              	.LASF32:
 3243 06d8 6F6C6465 		.ascii	"older\000"
 3243      7200
 3244              	.LASF79:
 3245 06de 65786974 		.ascii	"exitcode\000"
 3245      636F6465 
 3245      00
 3246              	.LASF44:
 3247 06e7 6D706F6F 		.ascii	"mpool\000"
 3247      6C00
 3248              		.ident	"GCC: (GNU Tools for Arm Embedded Processors 7-2017-q4-major) 7.2.1 20170904 (release) [ARM
ARM GAS  /var/folders/t8/16hdwfmd2fg_d3q6dgx6bpmw0000gn/T//ccPaAKSn.s 			page 64


DEFINED SYMBOLS
                            *ABS*:0000000000000000 chmsg.c
/var/folders/t8/16hdwfmd2fg_d3q6dgx6bpmw0000gn/T//ccPaAKSn.s:16     .text.chMsgSend:0000000000000000 $t
/var/folders/t8/16hdwfmd2fg_d3q6dgx6bpmw0000gn/T//ccPaAKSn.s:24     .text.chMsgSend:0000000000000000 chMsgSend
/var/folders/t8/16hdwfmd2fg_d3q6dgx6bpmw0000gn/T//ccPaAKSn.s:185    .text.chMsgSend:0000000000000068 $d
/var/folders/t8/16hdwfmd2fg_d3q6dgx6bpmw0000gn/T//ccPaAKSn.s:192    .text.chMsgWait:0000000000000000 $t
/var/folders/t8/16hdwfmd2fg_d3q6dgx6bpmw0000gn/T//ccPaAKSn.s:200    .text.chMsgWait:0000000000000000 chMsgWait
/var/folders/t8/16hdwfmd2fg_d3q6dgx6bpmw0000gn/T//ccPaAKSn.s:338    .text.chMsgWait:0000000000000058 $d
/var/folders/t8/16hdwfmd2fg_d3q6dgx6bpmw0000gn/T//ccPaAKSn.s:344    .text.chMsgRelease:0000000000000000 $t
/var/folders/t8/16hdwfmd2fg_d3q6dgx6bpmw0000gn/T//ccPaAKSn.s:352    .text.chMsgRelease:0000000000000000 chMsgRelease
/var/folders/t8/16hdwfmd2fg_d3q6dgx6bpmw0000gn/T//ccPaAKSn.s:458    .text.chMsgRelease:0000000000000048 $d
/var/folders/t8/16hdwfmd2fg_d3q6dgx6bpmw0000gn/T//ccPaAKSn.s:467    .rodata.__func__.5043:0000000000000000 $d
/var/folders/t8/16hdwfmd2fg_d3q6dgx6bpmw0000gn/T//ccPaAKSn.s:471    .rodata.__func__.5043:0000000000000000 __func__.5043
/var/folders/t8/16hdwfmd2fg_d3q6dgx6bpmw0000gn/T//ccPaAKSn.s:474    .rodata.__func__.5719:0000000000000000 $d
/var/folders/t8/16hdwfmd2fg_d3q6dgx6bpmw0000gn/T//ccPaAKSn.s:478    .rodata.__func__.5719:0000000000000000 __func__.5719
/var/folders/t8/16hdwfmd2fg_d3q6dgx6bpmw0000gn/T//ccPaAKSn.s:481    .rodata.__func__.5728:0000000000000000 $d
/var/folders/t8/16hdwfmd2fg_d3q6dgx6bpmw0000gn/T//ccPaAKSn.s:485    .rodata.__func__.5728:0000000000000000 __func__.5728

UNDEFINED SYMBOLS
_dbg_check_lock
chSchGoSleepS
_dbg_check_unlock
chSysHalt
chSchReadyI
ch
chDbgCheckClassI
chDbgCheckClassS
chSchWakeupS
