ARM GAS  /var/folders/t8/16hdwfmd2fg_d3q6dgx6bpmw0000gn/T//ccPaAKSn.s 			page 1


   1              		.cpu cortex-m0plus
   2              		.eabi_attribute 20, 1
   3              		.eabi_attribute 21, 1
   4              		.eabi_attribute 23, 3
   5              		.eabi_attribute 24, 1
   6              		.eabi_attribute 25, 1
   7              		.eabi_attribute 26, 1
   8              		.eabi_attribute 30, 2
   9              		.eabi_attribute 34, 0
  10              		.eabi_attribute 18, 4
  11              		.file	"chmsg.c"
  12              		.text
  13              	.Ltext0:
  14              		.cfi_sections	.debug_frame
  15              		.section	.text.chMsgSend,"ax",%progbits
  16              		.align	1
  17              		.p2align 4,,15
  18              		.global	chMsgSend
  19              		.syntax unified
  20              		.code	16
  21              		.thumb_func
  22              		.fpu softvfp
  23              		.type	chMsgSend, %function
  24              	chMsgSend:
  25              	.LFB138:
  26              		.file 1 "../../tmk_core/tool/chibios/ChibiOS/os/rt/src/chmsg.c"
  27              		.loc 1 87 0
  28              		.cfi_startproc
  29              		@ args = 0, pretend = 0, frame = 0
  30              		@ frame_needed = 0, uses_anonymous_args = 0
  31              	.LVL0:
  32 0000 F8B5     		push	{r3, r4, r5, r6, r7, lr}
  33              		.cfi_def_cfa_offset 24
  34              		.cfi_offset 3, -24
  35              		.cfi_offset 4, -20
  36              		.cfi_offset 5, -16
  37              		.cfi_offset 6, -12
  38              		.cfi_offset 7, -8
  39              		.cfi_offset 14, -4
  40              		.loc 1 88 0
  41 0002 194E     		ldr	r6, .L9
  42              		.loc 1 87 0
  43 0004 0500     		movs	r5, r0
  44 0006 0F00     		movs	r7, r1
  45              		.loc 1 88 0
  46 0008 B469     		ldr	r4, [r6, #24]
  47              	.LVL1:
  48              		.loc 1 90 0
  49 000a 0028     		cmp	r0, #0
  50 000c 27D0     		beq	.L6
  51              	.LVL2:
  52              	.L2:
  53              	.LBB49:
  54              	.LBB50:
  55              	.LBB51:
  56              	.LBB52:
  57              	.LBB53:
ARM GAS  /var/folders/t8/16hdwfmd2fg_d3q6dgx6bpmw0000gn/T//ccPaAKSn.s 			page 2


  58              		.file 2 "../../tmk_core/tool/chibios/ChibiOS/os/common/ext/CMSIS/include/cmsis_gcc.h"
  59              		.loc 2 71 0
  60              		.syntax divided
  61              	@ 71 "../../tmk_core/tool/chibios/ChibiOS/os/common/ext/CMSIS/include/cmsis_gcc.h" 1
  62 000e 72B6     		cpsid i
  63              	@ 0 "" 2
  64              		.thumb
  65              		.syntax unified
  66              	.LBE53:
  67              	.LBE52:
  68              	.LBE51:
  69              		.file 3 "../../tmk_core/tool/chibios/ChibiOS/os/rt/include/chsys.h"
  70              		.loc 3 378 0
  71 0010 FFF7FEFF 		bl	_dbg_check_lock
  72              	.LVL3:
  73              	.LBE50:
  74              	.LBE49:
  75              		.loc 1 94 0
  76 0014 2B00     		movs	r3, r5
  77 0016 2C33     		adds	r3, r3, #44
  78              	.LBB54:
  79              	.LBB55:
  80              		.file 4 "../../tmk_core/tool/chibios/ChibiOS/os/rt/include/chschd.h"
  81              		.loc 4 611 0
  82 0018 2360     		str	r3, [r4]
  83              		.loc 4 612 0
  84 001a 2B6B     		ldr	r3, [r5, #48]
  85              	.LBE55:
  86              	.LBE54:
  87              		.loc 1 93 0
  88 001c 6762     		str	r7, [r4, #36]
  89              	.LVL4:
  90              	.LBB58:
  91              	.LBB56:
  92              		.loc 4 612 0
  93 001e 6360     		str	r3, [r4, #4]
  94              		.loc 4 613 0
  95 0020 1C60     		str	r4, [r3]
  96              	.LVL5:
  97              	.LBE56:
  98              	.LBE58:
  99              		.loc 1 95 0
 100 0022 2023     		movs	r3, #32
 101              	.LBB59:
 102              	.LBB57:
 103              		.loc 4 614 0
 104 0024 2C63     		str	r4, [r5, #48]
 105              	.LVL6:
 106              	.LBE57:
 107              	.LBE59:
 108              		.loc 1 95 0
 109 0026 EB5C     		ldrb	r3, [r5, r3]
 110 0028 0E2B     		cmp	r3, #14
 111 002a 14D0     		beq	.L7
 112              	.L3:
 113              		.loc 1 98 0
 114 002c 0C20     		movs	r0, #12
ARM GAS  /var/folders/t8/16hdwfmd2fg_d3q6dgx6bpmw0000gn/T//ccPaAKSn.s 			page 3


 115 002e FFF7FEFF 		bl	chSchGoSleepS
 116              	.LVL7:
 117              		.loc 1 99 0
 118 0032 646A     		ldr	r4, [r4, #36]
 119              	.LVL8:
 120              	.LBB60:
 121              	.LBB61:
 122              		.loc 3 388 0
 123 0034 FFF7FEFF 		bl	_dbg_check_unlock
 124              	.LVL9:
 125              		.loc 3 395 0
 126 0038 3368     		ldr	r3, [r6]
 127 003a B342     		cmp	r3, r6
 128 003c 04D0     		beq	.L4
 129 003e B269     		ldr	r2, [r6, #24]
 130 0040 9B68     		ldr	r3, [r3, #8]
 131 0042 9268     		ldr	r2, [r2, #8]
 132 0044 9A42     		cmp	r2, r3
 133 0046 02D3     		bcc	.L8
 134              	.L4:
 135              	.LBB62:
 136              	.LBB63:
 137              	.LBB64:
 138              		.loc 2 60 0
 139              		.syntax divided
 140              	@ 60 "../../tmk_core/tool/chibios/ChibiOS/os/common/ext/CMSIS/include/cmsis_gcc.h" 1
 141 0048 62B6     		cpsie i
 142              	@ 0 "" 2
 143              		.thumb
 144              		.syntax unified
 145              	.LBE64:
 146              	.LBE63:
 147              	.LBE62:
 148              	.LBE61:
 149              	.LBE60:
 150              		.loc 1 103 0
 151 004a 2000     		movs	r0, r4
 152              		@ sp needed
 153              	.LVL10:
 154              	.LVL11:
 155 004c F8BD     		pop	{r3, r4, r5, r6, r7, pc}
 156              	.LVL12:
 157              	.L8:
 158              	.LBB66:
 159              	.LBB65:
 160              		.loc 3 395 0
 161 004e 0748     		ldr	r0, .L9+4
 162 0050 FFF7FEFF 		bl	chSysHalt
 163              	.LVL13:
 164 0054 F8E7     		b	.L4
 165              	.LVL14:
 166              	.L7:
 167              	.LBE65:
 168              	.LBE66:
 169              		.loc 1 96 0
 170 0056 2800     		movs	r0, r5
 171 0058 FFF7FEFF 		bl	chSchReadyI
ARM GAS  /var/folders/t8/16hdwfmd2fg_d3q6dgx6bpmw0000gn/T//ccPaAKSn.s 			page 4


 172              	.LVL15:
 173 005c E6E7     		b	.L3
 174              	.LVL16:
 175              	.L6:
 176              		.loc 1 90 0 discriminator 2
 177 005e 0448     		ldr	r0, .L9+8
 178              	.LVL17:
 179 0060 FFF7FEFF 		bl	chSysHalt
 180              	.LVL18:
 181 0064 D3E7     		b	.L2
 182              	.L10:
 183 0066 C046     		.align	2
 184              	.L9:
 185 0068 00000000 		.word	ch
 186 006c 00000000 		.word	.LANCHOR1
 187 0070 00000000 		.word	.LANCHOR0
 188              		.cfi_endproc
 189              	.LFE138:
 190              		.size	chMsgSend, .-chMsgSend
 191              		.section	.text.chMsgWait,"ax",%progbits
 192              		.align	1
 193              		.p2align 4,,15
 194              		.global	chMsgWait
 195              		.syntax unified
 196              		.code	16
 197              		.thumb_func
 198              		.fpu softvfp
 199              		.type	chMsgWait, %function
 200              	chMsgWait:
 201              	.LFB139:
 202              		.loc 1 119 0
 203              		.cfi_startproc
 204              		@ args = 0, pretend = 0, frame = 0
 205              		@ frame_needed = 0, uses_anonymous_args = 0
 206 0000 70B5     		push	{r4, r5, r6, lr}
 207              		.cfi_def_cfa_offset 16
 208              		.cfi_offset 4, -16
 209              		.cfi_offset 5, -12
 210              		.cfi_offset 6, -8
 211              		.cfi_offset 14, -4
 212              	.LBB81:
 213              	.LBB82:
 214              	.LBB83:
 215              	.LBB84:
 216              	.LBB85:
 217              		.loc 2 71 0
 218              		.syntax divided
 219              	@ 71 "../../tmk_core/tool/chibios/ChibiOS/os/common/ext/CMSIS/include/cmsis_gcc.h" 1
 220 0002 72B6     		cpsid i
 221              	@ 0 "" 2
 222              		.thumb
 223              		.syntax unified
 224              	.LBE85:
 225              	.LBE84:
 226              	.LBE83:
 227              		.loc 3 378 0
 228 0004 FFF7FEFF 		bl	_dbg_check_lock
ARM GAS  /var/folders/t8/16hdwfmd2fg_d3q6dgx6bpmw0000gn/T//ccPaAKSn.s 			page 5


 229              	.LVL19:
 230              	.LBE82:
 231              	.LBE81:
 232              		.loc 1 123 0
 233 0008 134C     		ldr	r4, .L16
 234 000a A569     		ldr	r5, [r4, #24]
 235              	.LVL20:
 236              	.LBB86:
 237              	.LBB87:
 238              		.file 5 "../../tmk_core/tool/chibios/ChibiOS/os/rt/include/chmsg.h"
 239              		.loc 5 81 0
 240 000c FFF7FEFF 		bl	chDbgCheckClassI
 241              	.LVL21:
 242              		.loc 5 83 0
 243 0010 2B00     		movs	r3, r5
 244              	.LBE87:
 245              	.LBE86:
 246              		.loc 1 123 0
 247 0012 EA6A     		ldr	r2, [r5, #44]
 248              	.LBB89:
 249              	.LBB88:
 250              		.loc 5 83 0
 251 0014 2C33     		adds	r3, r3, #44
 252              	.LBE88:
 253              	.LBE89:
 254              		.loc 1 123 0
 255 0016 9A42     		cmp	r2, r3
 256 0018 19D0     		beq	.L14
 257              	.L12:
 258              		.loc 1 126 0
 259 001a A369     		ldr	r3, [r4, #24]
 260              	.LVL22:
 261              	.LBB90:
 262              	.LBB91:
 263              		.loc 4 618 0
 264 001c DD6A     		ldr	r5, [r3, #44]
 265              	.LVL23:
 266              	.LBE91:
 267              	.LBE90:
 268              		.loc 1 126 0
 269 001e 2C33     		adds	r3, r3, #44
 270              	.LVL24:
 271              	.LBB93:
 272              	.LBB92:
 273              		.loc 4 620 0
 274 0020 2A68     		ldr	r2, [r5]
 275 0022 1A60     		str	r2, [r3]
 276              		.loc 4 621 0
 277 0024 5360     		str	r3, [r2, #4]
 278              	.LVL25:
 279              	.LBE92:
 280              	.LBE93:
 281              		.loc 1 127 0
 282 0026 2023     		movs	r3, #32
 283 0028 0D22     		movs	r2, #13
 284 002a EA54     		strb	r2, [r5, r3]
 285              	.LBB94:
ARM GAS  /var/folders/t8/16hdwfmd2fg_d3q6dgx6bpmw0000gn/T//ccPaAKSn.s 			page 6


 286              	.LBB95:
 287              		.loc 3 388 0
 288 002c FFF7FEFF 		bl	_dbg_check_unlock
 289              	.LVL26:
 290              		.loc 3 395 0
 291 0030 2368     		ldr	r3, [r4]
 292 0032 A342     		cmp	r3, r4
 293 0034 04D0     		beq	.L13
 294 0036 A269     		ldr	r2, [r4, #24]
 295 0038 9B68     		ldr	r3, [r3, #8]
 296 003a 9268     		ldr	r2, [r2, #8]
 297 003c 9A42     		cmp	r2, r3
 298 003e 02D3     		bcc	.L15
 299              	.L13:
 300              	.LBB96:
 301              	.LBB97:
 302              	.LBB98:
 303              		.loc 2 60 0
 304              		.syntax divided
 305              	@ 60 "../../tmk_core/tool/chibios/ChibiOS/os/common/ext/CMSIS/include/cmsis_gcc.h" 1
 306 0040 62B6     		cpsie i
 307              	@ 0 "" 2
 308              		.thumb
 309              		.syntax unified
 310              	.LBE98:
 311              	.LBE97:
 312              	.LBE96:
 313              	.LBE95:
 314              	.LBE94:
 315              		.loc 1 131 0
 316 0042 2800     		movs	r0, r5
 317              		@ sp needed
 318 0044 70BD     		pop	{r4, r5, r6, pc}
 319              	.L15:
 320              	.LBB100:
 321              	.LBB99:
 322              		.loc 3 395 0
 323 0046 0548     		ldr	r0, .L16+4
 324 0048 FFF7FEFF 		bl	chSysHalt
 325              	.LVL27:
 326 004c F8E7     		b	.L13
 327              	.L14:
 328              	.LBE99:
 329              	.LBE100:
 330              		.loc 1 124 0
 331 004e 0E20     		movs	r0, #14
 332 0050 FFF7FEFF 		bl	chSchGoSleepS
 333              	.LVL28:
 334 0054 E1E7     		b	.L12
 335              	.L17:
 336 0056 C046     		.align	2
 337              	.L16:
 338 0058 00000000 		.word	ch
 339 005c 00000000 		.word	.LANCHOR1
 340              		.cfi_endproc
 341              	.LFE139:
 342              		.size	chMsgWait, .-chMsgWait
ARM GAS  /var/folders/t8/16hdwfmd2fg_d3q6dgx6bpmw0000gn/T//ccPaAKSn.s 			page 7


 343              		.section	.text.chMsgRelease,"ax",%progbits
 344              		.align	1
 345              		.p2align 4,,15
 346              		.global	chMsgRelease
 347              		.syntax unified
 348              		.code	16
 349              		.thumb_func
 350              		.fpu softvfp
 351              		.type	chMsgRelease, %function
 352              	chMsgRelease:
 353              	.LFB140:
 354              		.loc 1 143 0
 355              		.cfi_startproc
 356              		@ args = 0, pretend = 0, frame = 0
 357              		@ frame_needed = 0, uses_anonymous_args = 0
 358              	.LVL29:
 359 0000 70B5     		push	{r4, r5, r6, lr}
 360              		.cfi_def_cfa_offset 16
 361              		.cfi_offset 4, -16
 362              		.cfi_offset 5, -12
 363              		.cfi_offset 6, -8
 364              		.cfi_offset 14, -4
 365              		.loc 1 143 0
 366 0002 0400     		movs	r4, r0
 367 0004 0D00     		movs	r5, r1
 368              	.LBB113:
 369              	.LBB114:
 370              	.LBB115:
 371              	.LBB116:
 372              	.LBB117:
 373              		.loc 2 71 0
 374              		.syntax divided
 375              	@ 71 "../../tmk_core/tool/chibios/ChibiOS/os/common/ext/CMSIS/include/cmsis_gcc.h" 1
 376 0006 72B6     		cpsid i
 377              	@ 0 "" 2
 378              		.thumb
 379              		.syntax unified
 380              	.LBE117:
 381              	.LBE116:
 382              	.LBE115:
 383              		.loc 3 378 0
 384 0008 FFF7FEFF 		bl	_dbg_check_lock
 385              	.LVL30:
 386              	.LBE114:
 387              	.LBE113:
 388              		.loc 1 146 0
 389 000c 2023     		movs	r3, #32
 390 000e E35C     		ldrb	r3, [r4, r3]
 391 0010 0D2B     		cmp	r3, #13
 392 0012 02D0     		beq	.L19
 393              		.loc 1 146 0 is_stmt 0 discriminator 2
 394 0014 0C48     		ldr	r0, .L25
 395 0016 FFF7FEFF 		bl	chSysHalt
 396              	.LVL31:
 397              	.L19:
 398              	.LBB118:
 399              	.LBB119:
ARM GAS  /var/folders/t8/16hdwfmd2fg_d3q6dgx6bpmw0000gn/T//ccPaAKSn.s 			page 8


 400              		.loc 5 115 0 is_stmt 1
 401 001a FFF7FEFF 		bl	chDbgCheckClassS
 402              	.LVL32:
 403              		.loc 5 117 0
 404 001e 2900     		movs	r1, r5
 405 0020 2000     		movs	r0, r4
 406 0022 FFF7FEFF 		bl	chSchWakeupS
 407              	.LVL33:
 408              	.LBE119:
 409              	.LBE118:
 410              	.LBB120:
 411              	.LBB121:
 412              		.loc 3 388 0
 413 0026 FFF7FEFF 		bl	_dbg_check_unlock
 414              	.LVL34:
 415              		.loc 3 395 0
 416 002a 084B     		ldr	r3, .L25+4
 417 002c 1A68     		ldr	r2, [r3]
 418 002e 9A42     		cmp	r2, r3
 419 0030 04D0     		beq	.L20
 420 0032 9B69     		ldr	r3, [r3, #24]
 421 0034 9968     		ldr	r1, [r3, #8]
 422 0036 9368     		ldr	r3, [r2, #8]
 423 0038 9942     		cmp	r1, r3
 424 003a 01D3     		bcc	.L24
 425              	.L20:
 426              	.LBB122:
 427              	.LBB123:
 428              	.LBB124:
 429              		.loc 2 60 0
 430              		.syntax divided
 431              	@ 60 "../../tmk_core/tool/chibios/ChibiOS/os/common/ext/CMSIS/include/cmsis_gcc.h" 1
 432 003c 62B6     		cpsie i
 433              	@ 0 "" 2
 434              		.thumb
 435              		.syntax unified
 436              	.LBE124:
 437              	.LBE123:
 438              	.LBE122:
 439              	.LBE121:
 440              	.LBE120:
 441              		.loc 1 149 0
 442              		@ sp needed
 443              	.LVL35:
 444              	.LVL36:
 445 003e 70BD     		pop	{r4, r5, r6, pc}
 446              	.LVL37:
 447              	.L24:
 448              	.LBB126:
 449              	.LBB125:
 450              		.loc 3 395 0
 451 0040 0348     		ldr	r0, .L25+8
 452 0042 FFF7FEFF 		bl	chSysHalt
 453              	.LVL38:
 454 0046 F9E7     		b	.L20
 455              	.L26:
 456              		.align	2
ARM GAS  /var/folders/t8/16hdwfmd2fg_d3q6dgx6bpmw0000gn/T//ccPaAKSn.s 			page 9


 457              	.L25:
 458 0048 00000000 		.word	.LANCHOR2
 459 004c 00000000 		.word	ch
 460 0050 00000000 		.word	.LANCHOR1
 461              	.LBE125:
 462              	.LBE126:
 463              		.cfi_endproc
 464              	.LFE140:
 465              		.size	chMsgRelease, .-chMsgRelease
 466              		.section	.rodata.__func__.5043,"a",%progbits
 467              		.align	2
 468              		.set	.LANCHOR1,. + 0
 469              		.type	__func__.5043, %object
 470              		.size	__func__.5043, 12
 471              	__func__.5043:
 472 0000 63685379 		.ascii	"chSysUnlock\000"
 472      73556E6C 
 472      6F636B00 
 473              		.section	.rodata.__func__.5719,"a",%progbits
 474              		.align	2
 475              		.set	.LANCHOR0,. + 0
 476              		.type	__func__.5719, %object
 477              		.size	__func__.5719, 10
 478              	__func__.5719:
 479 0000 63684D73 		.ascii	"chMsgSend\000"
 479      6753656E 
 479      6400
 480              		.section	.rodata.__func__.5728,"a",%progbits
 481              		.align	2
 482              		.set	.LANCHOR2,. + 0
 483              		.type	__func__.5728, %object
 484              		.size	__func__.5728, 13
 485              	__func__.5728:
 486 0000 63684D73 		.ascii	"chMsgRelease\000"
 486      6752656C 
 486      65617365 
 486      00
 487              		.text
 488              	.Letext0:
 489              		.file 6 "/usr/local/Caskroom/gcc-arm-embedded/7-2017-q4-major/gcc-arm-none-eabi-7-2017-q4-major/ar
 490              		.file 7 "/usr/local/Caskroom/gcc-arm-embedded/7-2017-q4-major/gcc-arm-none-eabi-7-2017-q4-major/ar
 491              		.file 8 "../../tmk_core/tool/chibios/ChibiOS/os/common/ports/ARMCMx/compilers/GCC/chtypes.h"
 492              		.file 9 "../../tmk_core/tool/chibios/ChibiOS/os/rt/include/chsystypes.h"
 493              		.file 10 "../../tmk_core/tool/chibios/ChibiOS/os/common/ports/ARMCMx/chcore.h"
 494              		.file 11 "../../tmk_core/tool/chibios/ChibiOS/os/common/ports/ARMCMx/chcore_v6m.h"
 495              		.file 12 "../../tmk_core/tool/chibios/ChibiOS/os/rt/include/chsem.h"
 496              		.file 13 "../../tmk_core/tool/chibios/ChibiOS/os/rt/include/chmtx.h"
 497              		.file 14 "../../tmk_core/tool/chibios/ChibiOS/os/rt/include/chregistry.h"
 498              		.file 15 "../../tmk_core/tool/chibios/ChibiOS/os/rt/include/chdebug.h"