ARM GAS  /var/folders/t8/16hdwfmd2fg_d3q6dgx6bpmw0000gn/T//cctxNhNH.s 			page 1


   1              		.cpu cortex-m0plus
   2              		.eabi_attribute 20, 1
   3              		.eabi_attribute 21, 1
   4              		.eabi_attribute 23, 3
   5              		.eabi_attribute 24, 1
   6              		.eabi_attribute 25, 1
   7              		.eabi_attribute 26, 1
   8              		.eabi_attribute 30, 2
   9              		.eabi_attribute 34, 0
  10              		.eabi_attribute 18, 4
  11              		.file	"chprintf.c"
  12              		.text
  13              	.Ltext0:
  14              		.cfi_sections	.debug_frame
  15              		.global	__aeabi_uidivmod
  16              		.global	__aeabi_uidiv
  17              		.global	__aeabi_d2f
  18              		.global	__aeabi_fcmplt
  19              		.global	__aeabi_f2d
  20              		.global	__aeabi_ui2d
  21              		.global	__aeabi_f2iz
  22              		.global	__aeabi_i2d
  23              		.global	__aeabi_dsub
  24              		.global	__aeabi_dmul
  25              		.global	__aeabi_d2iz
  26              		.section	.text.chvprintf,"ax",%progbits
  27              		.align	1
  28              		.p2align 4,,15
  29              		.global	chvprintf
  30              		.syntax unified
  31              		.code	16
  32              		.thumb_func
  33              		.fpu softvfp
  34              		.type	chvprintf, %function
  35              	chvprintf:
  36              	.LFB177:
  37              		.file 1 "../../tmk_core/tool/chibios/ChibiOS/os/hal/lib/streams/chprintf.c"
  38              		.loc 1 121 0
  39              		.cfi_startproc
  40              		@ args = 0, pretend = 0, frame = 72
  41              		@ frame_needed = 0, uses_anonymous_args = 0
  42              	.LVL0:
  43 0000 F0B5     		push	{r4, r5, r6, r7, lr}
  44              		.cfi_def_cfa_offset 20
  45              		.cfi_offset 4, -20
  46              		.cfi_offset 5, -16
  47              		.cfi_offset 6, -12
  48              		.cfi_offset 7, -8
  49              		.cfi_offset 14, -4
  50 0002 5746     		mov	r7, r10
  51 0004 4E46     		mov	r6, r9
  52 0006 4546     		mov	r5, r8
  53 0008 DE46     		mov	lr, fp
  54              		.loc 1 124 0
  55 000a 0023     		movs	r3, #0
  56              		.loc 1 121 0
  57 000c E0B5     		push	{r5, r6, r7, lr}
ARM GAS  /var/folders/t8/16hdwfmd2fg_d3q6dgx6bpmw0000gn/T//cctxNhNH.s 			page 2


  58              		.cfi_def_cfa_offset 36
  59              		.cfi_offset 8, -36
  60              		.cfi_offset 9, -32
  61              		.cfi_offset 10, -28
  62              		.cfi_offset 11, -24
  63 000e 0600     		movs	r6, r0
  64 0010 0F00     		movs	r7, r1
  65 0012 1500     		movs	r5, r2
  66              	.LVL1:
  67 0014 93B0     		sub	sp, sp, #76
  68              		.cfi_def_cfa_offset 112
  69              		.loc 1 124 0
  70 0016 0093     		str	r3, [sp]
  71              	.LVL2:
  72              	.L2:
  73              		.loc 1 135 0
  74 0018 3978     		ldrb	r1, [r7]
  75 001a 7B1C     		adds	r3, r7, #1
  76 001c 9846     		mov	r8, r3
  77              	.LVL3:
  78              		.loc 1 136 0
  79 001e 0029     		cmp	r1, #0
  80 0020 0ED0     		beq	.L102
  81              	.L117:
  82              		.loc 1 138 0
  83 0022 2529     		cmp	r1, #37
  84 0024 14D0     		beq	.L4
  85              		.loc 1 135 0
  86 0026 4746     		mov	r7, r8
  87              		.loc 1 139 0
  88 0028 3368     		ldr	r3, [r6]
  89              	.LVL4:
  90 002a 3000     		movs	r0, r6
  91 002c 9B68     		ldr	r3, [r3, #8]
  92 002e 9847     		blx	r3
  93              	.LVL5:
  94              		.loc 1 140 0
  95 0030 009B     		ldr	r3, [sp]
  96              		.loc 1 135 0
  97 0032 3978     		ldrb	r1, [r7]
  98              		.loc 1 140 0
  99 0034 0133     		adds	r3, r3, #1
 100 0036 0093     		str	r3, [sp]
 101              	.LVL6:
 102              		.loc 1 135 0
 103 0038 7B1C     		adds	r3, r7, #1
 104              	.LVL7:
 105 003a 9846     		mov	r8, r3
 106              	.LVL8:
 107              		.loc 1 136 0
 108 003c 0029     		cmp	r1, #0
 109 003e F0D1     		bne	.L117
 110              	.L102:
 111              		.loc 1 277 0
 112 0040 0098     		ldr	r0, [sp]
 113 0042 13B0     		add	sp, sp, #76
 114              	.LVL9:
ARM GAS  /var/folders/t8/16hdwfmd2fg_d3q6dgx6bpmw0000gn/T//cctxNhNH.s 			page 3


 115              		@ sp needed
 116              	.LVL10:
 117              	.LVL11:
 118 0044 3CBC     		pop	{r2, r3, r4, r5}
 119 0046 9046     		mov	r8, r2
 120 0048 9946     		mov	r9, r3
 121 004a A246     		mov	r10, r4
 122 004c AB46     		mov	fp, r5
 123 004e F0BD     		pop	{r4, r5, r6, r7, pc}
 124              	.LVL12:
 125              	.L4:
 126              		.loc 1 145 0
 127 0050 0022     		movs	r2, #0
 128              		.loc 1 146 0
 129 0052 7B78     		ldrb	r3, [r7, #1]
 130              	.LVL13:
 131              		.loc 1 145 0
 132 0054 0192     		str	r2, [sp, #4]
 133              		.loc 1 146 0
 134 0056 2D2B     		cmp	r3, #45
 135 0058 04D1     		bne	.L6
 136              		.loc 1 147 0
 137 005a BB1C     		adds	r3, r7, #2
 138 005c 9846     		mov	r8, r3
 139              	.LVL14:
 140              		.loc 1 148 0
 141 005e 0132     		adds	r2, r2, #1
 142 0060 BB78     		ldrb	r3, [r7, #2]
 143              	.LVL15:
 144 0062 0192     		str	r2, [sp, #4]
 145              	.LVL16:
 146              	.L6:
 147              		.loc 1 150 0
 148 0064 2022     		movs	r2, #32
 149 0066 9346     		mov	fp, r2
 150              		.loc 1 151 0
 151 0068 302B     		cmp	r3, #48
 152 006a 06D1     		bne	.L7
 153              	.LVL17:
 154 006c 4346     		mov	r3, r8
 155              		.loc 1 152 0
 156 006e 1F3A     		subs	r2, r2, #31
 157 0070 9446     		mov	ip, r2
 158              		.loc 1 153 0
 159 0072 2F32     		adds	r2, r2, #47
 160 0074 9346     		mov	fp, r2
 161 0076 5B78     		ldrb	r3, [r3, #1]
 162              		.loc 1 152 0
 163 0078 E044     		add	r8, r8, ip
 164              	.LVL18:
 165              	.L7:
 166              		.loc 1 155 0
 167 007a 0024     		movs	r4, #0
 168 007c 4146     		mov	r1, r8
 169              	.LVL19:
 170 007e 2000     		movs	r0, r4
 171 0080 06E0     		b	.L10
ARM GAS  /var/folders/t8/16hdwfmd2fg_d3q6dgx6bpmw0000gn/T//cctxNhNH.s 			page 4


 172              	.LVL20:
 173              	.L118:
 174              		.loc 1 161 0
 175 0082 2A78     		ldrb	r2, [r5]
 176              	.LVL21:
 177 0084 0435     		adds	r5, r5, #4
 178              	.LVL22:
 179              	.L8:
 180              		.loc 1 164 0
 181 0086 8400     		lsls	r4, r0, #2
 182 0088 2418     		adds	r4, r4, r0
 183 008a 6400     		lsls	r4, r4, #1
 184 008c 0B78     		ldrb	r3, [r1]
 185 008e 1019     		adds	r0, r2, r4
 186              	.LVL23:
 187              	.L10:
 188              		.loc 1 158 0
 189 0090 1A00     		movs	r2, r3
 190 0092 303A     		subs	r2, r2, #48
 191 0094 D2B2     		uxtb	r2, r2
 192              		.loc 1 157 0
 193 0096 0131     		adds	r1, r1, #1
 194              	.LVL24:
 195              		.loc 1 158 0
 196 0098 092A     		cmp	r2, #9
 197 009a F4D9     		bls	.L8
 198              		.loc 1 160 0
 199 009c 2A2B     		cmp	r3, #42
 200 009e F0D0     		beq	.L118
 201              		.loc 1 166 0
 202 00a0 0022     		movs	r2, #0
 203 00a2 8846     		mov	r8, r1
 204 00a4 0400     		movs	r4, r0
 205              	.LVL25:
 206 00a6 9146     		mov	r9, r2
 207              		.loc 1 167 0
 208 00a8 2E2B     		cmp	r3, #46
 209 00aa 00D1     		bne	.LCB220
 210 00ac A8E1     		b	.L119	@long jump
 211              	.LCB220:
 212              	.LVL26:
 213              	.L11:
 214 00ae 4246     		mov	r2, r8
 215              		.loc 1 181 0
 216 00b0 1900     		movs	r1, r3
 217              	.LVL27:
 218 00b2 571C     		adds	r7, r2, #1
 219 00b4 2022     		movs	r2, #32
 220              	.LVL28:
 221 00b6 9143     		bics	r1, r2
 222 00b8 4C29     		cmp	r1, #76
 223 00ba 0CD0     		beq	.L120
 224              		.loc 1 190 0
 225 00bc 1A00     		movs	r2, r3
 226              		.loc 1 187 0
 227 00be 1900     		movs	r1, r3
 228              		.loc 1 190 0
ARM GAS  /var/folders/t8/16hdwfmd2fg_d3q6dgx6bpmw0000gn/T//cctxNhNH.s 			page 5


 229 00c0 443A     		subs	r2, r2, #68
 230              		.loc 1 187 0
 231 00c2 4139     		subs	r1, r1, #65
 232              		.loc 1 190 0
 233 00c4 D2B2     		uxtb	r2, r2
 234              		.loc 1 187 0
 235 00c6 C9B2     		uxtb	r1, r1
 236              	.LVL29:
 237              		.loc 1 190 0
 238 00c8 342A     		cmp	r2, #52
 239 00ca 00D9     		bls	.LCB253
 240 00cc 89E1     		b	.L71	@long jump
 241              	.LCB253:
 242 00ce D948     		ldr	r0, .L130
 243 00d0 9200     		lsls	r2, r2, #2
 244 00d2 8258     		ldr	r2, [r0, r2]
 245 00d4 9746     		mov	pc, r2
 246              		.section	.rodata.chvprintf,"a",%progbits
 247              		.align	2
 248              	.L19:
 249 0000 C8040000 		.word	.L18
 250 0004 E2030000 		.word	.L71
 251 0008 E2030000 		.word	.L71
 252 000c E2030000 		.word	.L71
 253 0010 E2030000 		.word	.L71
 254 0014 C8040000 		.word	.L18
 255 0018 E2030000 		.word	.L71
 256 001c E2030000 		.word	.L71
 257 0020 E2030000 		.word	.L71
 258 0024 E2030000 		.word	.L71
 259 0028 E2030000 		.word	.L71
 260 002c 3A010000 		.word	.L72
 261 0030 E2030000 		.word	.L71
 262 0034 E2030000 		.word	.L71
 263 0038 E2030000 		.word	.L71
 264 003c E2030000 		.word	.L71
 265 0040 E2030000 		.word	.L71
 266 0044 DA030000 		.word	.L73
 267 0048 E2030000 		.word	.L71
 268 004c E2030000 		.word	.L71
 269 0050 D8040000 		.word	.L74
 270 0054 E2030000 		.word	.L71
 271 0058 E2030000 		.word	.L71
 272 005c E2030000 		.word	.L71
 273 0060 E2030000 		.word	.L71
 274 0064 E2030000 		.word	.L71
 275 0068 E2030000 		.word	.L71
 276 006c E2030000 		.word	.L71
 277 0070 E2030000 		.word	.L71
 278 0074 E2030000 		.word	.L71
 279 0078 E2030000 		.word	.L71
 280 007c C2030000 		.word	.L75
 281 0080 C8040000 		.word	.L18
 282 0084 E2030000 		.word	.L71
 283 0088 46020000 		.word	.L76
 284 008c E2030000 		.word	.L71
 285 0090 E2030000 		.word	.L71
ARM GAS  /var/folders/t8/16hdwfmd2fg_d3q6dgx6bpmw0000gn/T//cctxNhNH.s 			page 6


 286 0094 C8040000 		.word	.L18
 287 0098 E2030000 		.word	.L71
 288 009c E2030000 		.word	.L71
 289 00a0 E2030000 		.word	.L71
 290 00a4 E2030000 		.word	.L71
 291 00a8 E2030000 		.word	.L71
 292 00ac 3A010000 		.word	.L72
 293 00b0 E2030000 		.word	.L71
 294 00b4 E2030000 		.word	.L71
 295 00b8 E2030000 		.word	.L71
 296 00bc F8000000 		.word	.L77
 297 00c0 E2030000 		.word	.L71
 298 00c4 DA030000 		.word	.L73
 299 00c8 E2030000 		.word	.L71
 300 00cc E2030000 		.word	.L71
 301 00d0 D8040000 		.word	.L74
 302              		.section	.text.chvprintf
 303              	.LVL30:
 304              	.L120:
 305              		.loc 1 183 0
 306 00d6 4246     		mov	r2, r8
 307 00d8 1278     		ldrb	r2, [r2]
 308 00da 002A     		cmp	r2, #0
 309 00dc 09D0     		beq	.L121
 310              	.L15:
 311              	.LVL31:
 312              		.loc 1 190 0
 313 00de 1300     		movs	r3, r2
 314 00e0 443B     		subs	r3, r3, #68
 315 00e2 DBB2     		uxtb	r3, r3
 316 00e4 342B     		cmp	r3, #52
 317 00e6 00D9     		bls	.LCB279
 318 00e8 7DE1     		b	.L17	@long jump
 319              	.LCB279:
 320 00ea D349     		ldr	r1, .L130+4
 321 00ec 9B00     		lsls	r3, r3, #2
 322 00ee CB58     		ldr	r3, [r1, r3]
 323 00f0 9F46     		mov	pc, r3
 324              		.section	.rodata.chvprintf
 325              		.align	2
 326              	.L64:
 327 00d4 44040000 		.word	.L92
 328 00d8 E6030000 		.word	.L17
 329 00dc E6030000 		.word	.L17
 330 00e0 E6030000 		.word	.L17
 331 00e4 E6030000 		.word	.L17
 332 00e8 44040000 		.word	.L92
 333 00ec E6030000 		.word	.L17
 334 00f0 E6030000 		.word	.L17
 335 00f4 E6030000 		.word	.L17
 336 00f8 E6030000 		.word	.L17
 337 00fc E6030000 		.word	.L17
 338 0100 3C010000 		.word	.L20
 339 0104 E6030000 		.word	.L17
 340 0108 E6030000 		.word	.L17
 341 010c E6030000 		.word	.L17
 342 0110 E6030000 		.word	.L17
ARM GAS  /var/folders/t8/16hdwfmd2fg_d3q6dgx6bpmw0000gn/T//cctxNhNH.s 			page 7


 343 0114 E6030000 		.word	.L17
 344 0118 DC030000 		.word	.L21
 345 011c E6030000 		.word	.L17
 346 0120 E6030000 		.word	.L17
 347 0124 2C040000 		.word	.L86
 348 0128 E6030000 		.word	.L17
 349 012c E6030000 		.word	.L17
 350 0130 E6030000 		.word	.L17
 351 0134 E6030000 		.word	.L17
 352 0138 E6030000 		.word	.L17
 353 013c E6030000 		.word	.L17
 354 0140 E6030000 		.word	.L17
 355 0144 E6030000 		.word	.L17
 356 0148 E6030000 		.word	.L17
 357 014c E6030000 		.word	.L17
 358 0150 C4030000 		.word	.L23
 359 0154 44040000 		.word	.L92
 360 0158 E6030000 		.word	.L17
 361 015c 48020000 		.word	.L24
 362 0160 E6030000 		.word	.L17
 363 0164 E6030000 		.word	.L17
 364 0168 44040000 		.word	.L92
 365 016c E6030000 		.word	.L17
 366 0170 E6030000 		.word	.L17
 367 0174 E6030000 		.word	.L17
 368 0178 E6030000 		.word	.L17
 369 017c E6030000 		.word	.L17
 370 0180 3C010000 		.word	.L20
 371 0184 E6030000 		.word	.L17
 372 0188 E6030000 		.word	.L17
 373 018c E6030000 		.word	.L17
 374 0190 FA000000 		.word	.L25
 375 0194 E6030000 		.word	.L17
 376 0198 DC030000 		.word	.L21
 377 019c E6030000 		.word	.L17
 378 01a0 E6030000 		.word	.L17
 379 01a4 2C040000 		.word	.L86
 380              		.section	.text.chvprintf
 381              	.LVL32:
 382              	.L121:
 383              		.loc 1 183 0
 384 00f2 1A00     		movs	r2, r3
 385 00f4 4746     		mov	r7, r8
 386 00f6 F2E7     		b	.L15
 387              	.LVL33:
 388              	.L77:
 389              		.loc 1 190 0
 390 00f8 4746     		mov	r7, r8
 391              	.LVL34:
 392              	.L25:
 393              		.loc 1 197 0
 394 00fa 2B68     		ldr	r3, [r5]
 395 00fc 291D     		adds	r1, r5, #4
 396              	.LVL35:
 397 00fe 9A46     		mov	r10, r3
 398              	.LVL36:
 399 0100 002B     		cmp	r3, #0
ARM GAS  /var/folders/t8/16hdwfmd2fg_d3q6dgx6bpmw0000gn/T//cctxNhNH.s 			page 8


 400 0102 00D1     		bne	.LCB314
 401 0104 F9E1     		b	.L27	@long jump
 402              	.LCB314:
 403              	.LVL37:
 404              		.loc 1 199 0
 405 0106 4A46     		mov	r2, r9
 406 0108 1B78     		ldrb	r3, [r3]
 407              	.LVL38:
 408 010a 5546     		mov	r5, r10
 409 010c 002A     		cmp	r2, #0
 410 010e 00D0     		beq	.LCB321
 411 0110 16E2     		b	.L122	@long jump
 412              	.LCB321:
 413              	.LVL39:
 414              		.loc 1 201 0
 415 0112 002B     		cmp	r3, #0
 416 0114 00D1     		bne	.LCB326
 417 0116 F9E1     		b	.L123	@long jump
 418              	.LCB326:
 419              	.LVL40:
 420              	.L114:
 421 0118 C84A     		ldr	r2, .L130+8
 422              	.L65:
 423              		.loc 1 201 0 is_stmt 0 discriminator 4
 424 011a 5346     		mov	r3, r10
 425 011c 01E0     		b	.L31
 426              	.LVL41:
 427              	.L30:
 428              		.loc 1 201 0 discriminator 3
 429 011e 013A     		subs	r2, r2, #1
 430 0120 03D4     		bmi	.L115
 431              	.LVL42:
 432              	.L31:
 433              		.loc 1 201 0 discriminator 4
 434 0122 0133     		adds	r3, r3, #1
 435              	.LVL43:
 436 0124 1878     		ldrb	r0, [r3]
 437 0126 0028     		cmp	r0, #0
 438 0128 F9D1     		bne	.L30
 439              	.L115:
 440 012a 5B1B     		subs	r3, r3, r5
 441              	.LVL44:
 442 012c E41A     		subs	r4, r4, r3
 443              	.LVL45:
 444 012e 013B     		subs	r3, r3, #1
 445 0130 9846     		mov	r8, r3
 446              		.loc 1 196 0 is_stmt 1
 447 0132 2023     		movs	r3, #32
 448              		.loc 1 197 0
 449 0134 0D00     		movs	r5, r1
 450              		.loc 1 196 0
 451 0136 9B46     		mov	fp, r3
 452 0138 30E0     		b	.L26
 453              	.LVL46:
 454              	.L72:
 455              		.loc 1 190 0
 456 013a 4746     		mov	r7, r8
ARM GAS  /var/folders/t8/16hdwfmd2fg_d3q6dgx6bpmw0000gn/T//cctxNhNH.s 			page 9


 457              	.LVL47:
 458              	.L20:
 459              		.loc 1 236 0
 460 013c 0823     		movs	r3, #8
 461 013e 9A46     		mov	r10, r3
 462              	.LVL48:
 463              	.L22:
 464              	.LBB26:
 465              	.LBB27:
 466              	.LBB28:
 467              		.loc 1 52 0
 468 0140 0CAA     		add	r2, sp, #48
 469              	.LVL49:
 470 0142 0B23     		movs	r3, #11
 471 0144 9446     		mov	ip, r2
 472 0146 6344     		add	r3, r3, ip
 473 0148 9846     		mov	r8, r3
 474 014a 5346     		mov	r3, r10
 475 014c 01CD     		ldmia	r5!, {r0}
 476              	.LVL50:
 477 014e A246     		mov	r10, r4
 478 0150 A946     		mov	r9, r5
 479              	.LVL51:
 480 0152 4446     		mov	r4, r8
 481              	.LVL52:
 482 0154 1D00     		movs	r5, r3
 483              	.LVL53:
 484              	.L49:
 485 0156 2900     		movs	r1, r5
 486 0158 FFF7FEFF 		bl	__aeabi_uidivmod
 487              	.LVL54:
 488              		.loc 1 55 0
 489 015c 0B00     		movs	r3, r1
 490 015e 3033     		adds	r3, r3, #48
 491              	.LVL55:
 492              		.loc 1 56 0
 493 0160 392B     		cmp	r3, #57
 494 0162 00DD     		ble	.L48
 495              		.loc 1 57 0
 496 0164 0733     		adds	r3, r3, #7
 497              	.LVL56:
 498              	.L48:
 499              		.loc 1 58 0
 500 0166 013C     		subs	r4, r4, #1
 501              	.LVL57:
 502 0168 DBB2     		uxtb	r3, r3
 503              	.LVL58:
 504 016a 2370     		strb	r3, [r4]
 505              	.LVL59:
 506              		.loc 1 60 0
 507 016c 0028     		cmp	r0, #0
 508 016e F2D1     		bne	.L49
 509 0170 4D46     		mov	r5, r9
 510 0172 A146     		mov	r9, r4
 511              	.LVL60:
 512              		.loc 1 62 0
 513 0174 4246     		mov	r2, r8
ARM GAS  /var/folders/t8/16hdwfmd2fg_d3q6dgx6bpmw0000gn/T//cctxNhNH.s 			page 10


 514 0176 4946     		mov	r1, r9
 515 0178 0CA8     		add	r0, sp, #48
 516              	.LVL61:
 517 017a 511A     		subs	r1, r2, r1
 518 017c 0290     		str	r0, [sp, #8]
 519 017e 0022     		movs	r2, #0
 520 0180 D446     		mov	ip, r10
 521 0182 4C46     		mov	r4, r9
 522 0184 00E0     		b	.L51
 523              	.LVL62:
 524              	.L50:
 525 0186 A35C     		ldrb	r3, [r4, r2]
 526              	.LVL63:
 527              	.L51:
 528              		.loc 1 64 0
 529 0188 8354     		strb	r3, [r0, r2]
 530              	.LVL64:
 531 018a 0132     		adds	r2, r2, #1
 532              	.LVL65:
 533              		.loc 1 65 0
 534 018c 9142     		cmp	r1, r2
 535 018e FAD1     		bne	.L50
 536 0190 4B1E     		subs	r3, r1, #1
 537 0192 9846     		mov	r8, r3
 538              	.LBE28:
 539              	.LBE27:
 540              	.LBE26:
 541              		.loc 1 144 0
 542 0194 029B     		ldr	r3, [sp, #8]
 543 0196 6446     		mov	r4, ip
 544              	.LVL66:
 545 0198 9A46     		mov	r10, r3
 546              	.LVL67:
 547 019a 641A     		subs	r4, r4, r1
 548              	.LVL68:
 549              	.L26:
 550              		.loc 1 251 0
 551 019c 002C     		cmp	r4, #0
 552 019e 25DB     		blt	.L112
 553              	.LVL69:
 554              	.L52:
 555              		.loc 1 253 0
 556 01a0 019B     		ldr	r3, [sp, #4]
 557 01a2 002B     		cmp	r3, #0
 558 01a4 00D0     		beq	.LCB552
 559 01a6 26E1     		b	.L55	@long jump
 560              	.LCB552:
 561              		.loc 1 254 0
 562 01a8 6342     		rsbs	r3, r4, #0
 563 01aa 9946     		mov	r9, r3
 564              	.LVL70:
 565              		.loc 1 255 0
 566 01ac 002C     		cmp	r4, #0
 567 01ae 00D1     		bne	.LCB559
 568 01b0 20E1     		b	.L83	@long jump
 569              	.LCB559:
 570              		.loc 1 256 0
ARM GAS  /var/folders/t8/16hdwfmd2fg_d3q6dgx6bpmw0000gn/T//cctxNhNH.s 			page 11


 571 01b2 5246     		mov	r2, r10
 572 01b4 3368     		ldr	r3, [r6]
 573              	.LVL71:
 574 01b6 1278     		ldrb	r2, [r2]
 575 01b8 9B68     		ldr	r3, [r3, #8]
 576 01ba 2D2A     		cmp	r2, #45
 577 01bc 00D1     		bne	.LCB566
 578 01be ABE1     		b	.L124	@long jump
 579              	.LCB566:
 580              	.LVL72:
 581              	.L109:
 582 01c0 2200     		movs	r2, r4
 583 01c2 4C46     		mov	r4, r9
 584 01c4 A946     		mov	r9, r5
 585              	.LVL73:
 586 01c6 5D46     		mov	r5, fp
 587              	.LVL74:
 588 01c8 9346     		mov	fp, r2
 589              	.LVL75:
 590 01ca 01E0     		b	.L58
 591              	.L125:
 592 01cc 3368     		ldr	r3, [r6]
 593 01ce 9B68     		ldr	r3, [r3, #8]
 594              	.L58:
 595              		.loc 1 262 0 discriminator 1
 596 01d0 2900     		movs	r1, r5
 597 01d2 3000     		movs	r0, r6
 598              		.loc 1 264 0 discriminator 1
 599 01d4 0134     		adds	r4, r4, #1
 600              	.LVL76:
 601              		.loc 1 262 0 discriminator 1
 602 01d6 9847     		blx	r3
 603              	.LVL77:
 604              		.loc 1 264 0 discriminator 1
 605 01d8 002C     		cmp	r4, #0
 606 01da F7D1     		bne	.L125
 607 01dc 009B     		ldr	r3, [sp]
 608 01de 5C46     		mov	r4, fp
 609              	.LVL78:
 610 01e0 9C46     		mov	ip, r3
 611 01e2 A444     		add	ip, ip, r4
 612 01e4 6346     		mov	r3, ip
 613 01e6 AB46     		mov	fp, r5
 614 01e8 4D46     		mov	r5, r9
 615 01ea 0093     		str	r3, [sp]
 616              	.LVL79:
 617              	.L112:
 618              		.loc 1 266 0
 619 01ec 4346     		mov	r3, r8
 620 01ee 0024     		movs	r4, #0
 621 01f0 002B     		cmp	r3, #0
 622 01f2 00DA     		bge	.LCB630
 623 01f4 10E7     		b	.L2	@long jump
 624              	.LCB630:
 625              	.LVL80:
 626              	.L61:
 627              		.loc 1 254 0
ARM GAS  /var/folders/t8/16hdwfmd2fg_d3q6dgx6bpmw0000gn/T//cctxNhNH.s 			page 12


 628 01f6 5346     		mov	r3, r10
 629 01f8 A946     		mov	r9, r5
 630 01fa A246     		mov	r10, r4
 631              	.LVL81:
 632 01fc 1D00     		movs	r5, r3
 633              	.LVL82:
 634 01fe 4446     		mov	r4, r8
 635              	.LVL83:
 636              	.L59:
 637              		.loc 1 267 0
 638 0200 3368     		ldr	r3, [r6]
 639 0202 2978     		ldrb	r1, [r5]
 640 0204 9B68     		ldr	r3, [r3, #8]
 641 0206 3000     		movs	r0, r6
 642 0208 9847     		blx	r3
 643              	.LVL84:
 644 020a 0135     		adds	r5, r5, #1
 645              	.LVL85:
 646              		.loc 1 266 0
 647 020c 013C     		subs	r4, r4, #1
 648 020e F7D2     		bcs	.L59
 649              	.LVL86:
 650 0210 4D46     		mov	r5, r9
 651              	.LVL87:
 652 0212 5446     		mov	r4, r10
 653              	.LVL88:
 654 0214 009B     		ldr	r3, [sp]
 655 0216 0133     		adds	r3, r3, #1
 656 0218 4344     		add	r3, r3, r8
 657 021a 0093     		str	r3, [sp]
 658              	.LVL89:
 659              	.L60:
 660              		.loc 1 271 0
 661 021c 002C     		cmp	r4, #0
 662 021e 00D1     		bne	.LCB689
 663 0220 FAE6     		b	.L2	@long jump
 664              	.LCB689:
 665 0222 A846     		mov	r8, r5
 666 0224 A146     		mov	r9, r4
 667 0226 5D46     		mov	r5, fp
 668              	.LVL90:
 669              	.L62:
 670              		.loc 1 272 0
 671 0228 3368     		ldr	r3, [r6]
 672 022a 2900     		movs	r1, r5
 673 022c 9B68     		ldr	r3, [r3, #8]
 674 022e 3000     		movs	r0, r6
 675              		.loc 1 274 0
 676 0230 013C     		subs	r4, r4, #1
 677              	.LVL91:
 678              		.loc 1 272 0
 679 0232 9847     		blx	r3
 680              	.LVL92:
 681              		.loc 1 271 0
 682 0234 002C     		cmp	r4, #0
 683 0236 F7D1     		bne	.L62
 684 0238 009B     		ldr	r3, [sp]
ARM GAS  /var/folders/t8/16hdwfmd2fg_d3q6dgx6bpmw0000gn/T//cctxNhNH.s 			page 13


 685 023a 4546     		mov	r5, r8
 686 023c 9C46     		mov	ip, r3
 687 023e CC44     		add	ip, ip, r9
 688 0240 6346     		mov	r3, ip
 689 0242 0093     		str	r3, [sp]
 690 0244 E8E6     		b	.L2
 691              	.LVL93:
 692              	.L76:
 693              		.loc 1 190 0
 694 0246 4746     		mov	r7, r8
 695              	.LVL94:
 696              	.L24:
 697              		.loc 1 220 0
 698 0248 0723     		movs	r3, #7
 699 024a 0735     		adds	r5, r5, #7
 700              	.LVL95:
 701 024c 9D43     		bics	r5, r3
 702              	.LVL96:
 703 024e 2B00     		movs	r3, r5
 704 0250 1868     		ldr	r0, [r3]
 705 0252 5968     		ldr	r1, [r3, #4]
 706 0254 FFF7FEFF 		bl	__aeabi_d2f
 707              	.LVL97:
 708              		.loc 1 221 0
 709 0258 0021     		movs	r1, #0
 710              		.loc 1 220 0
 711 025a 8046     		mov	r8, r0
 712              		.loc 1 221 0
 713 025c FFF7FEFF 		bl	__aeabi_fcmplt
 714              	.LVL98:
 715              		.loc 1 220 0
 716 0260 0835     		adds	r5, r5, #8
 717              	.LVL99:
 718              		.loc 1 222 0
 719 0262 0CAB     		add	r3, sp, #48
 720              	.LVL100:
 721              		.loc 1 221 0
 722 0264 0028     		cmp	r0, #0
 723 0266 00D0     		beq	.LCB762
 724 0268 3AE1     		b	.L126	@long jump
 725              	.LCB762:
 726              		.loc 1 143 0
 727 026a 0293     		str	r3, [sp, #8]
 728 026c 0393     		str	r3, [sp, #12]
 729              	.LVL101:
 730              	.L38:
 731              		.loc 1 225 0
 732 026e 4046     		mov	r0, r8
 733 0270 FFF7FEFF 		bl	__aeabi_f2d
 734              	.LVL102:
 735              	.LBB29:
 736              	.LBB30:
 737              		.loc 1 83 0
 738 0274 4B46     		mov	r3, r9
 739 0276 013B     		subs	r3, r3, #1
 740              	.LBE30:
 741              	.LBE29:
ARM GAS  /var/folders/t8/16hdwfmd2fg_d3q6dgx6bpmw0000gn/T//cctxNhNH.s 			page 14


 742              		.loc 1 225 0
 743 0278 0490     		str	r0, [sp, #16]
 744 027a 0591     		str	r1, [sp, #20]
 745              	.LVL103:
 746              	.LBB41:
 747              	.LBB39:
 748              		.loc 1 83 0
 749 027c 082B     		cmp	r3, #8
 750 027e 00D9     		bls	.LCB787
 751 0280 66E1     		b	.L81	@long jump
 752              	.LCB787:
 753 0282 6F4A     		ldr	r2, .L130+12
 754 0284 9B00     		lsls	r3, r3, #2
 755 0286 9B58     		ldr	r3, [r3, r2]
 756 0288 1800     		movs	r0, r3
 757              	.LVL104:
 758 028a 9946     		mov	r9, r3
 759              	.LVL105:
 760 028c FFF7FEFF 		bl	__aeabi_ui2d
 761              	.LVL106:
 762 0290 0890     		str	r0, [sp, #32]
 763 0292 0991     		str	r1, [sp, #36]
 764 0294 0A21     		movs	r1, #10
 765 0296 4846     		mov	r0, r9
 766 0298 FFF7FEFF 		bl	__aeabi_uidiv
 767              	.LVL107:
 768 029c 0B90     		str	r0, [sp, #44]
 769 029e 0690     		str	r0, [sp, #24]
 770              	.L40:
 771              		.loc 1 87 0
 772 02a0 4046     		mov	r0, r8
 773 02a2 FFF7FEFF 		bl	__aeabi_f2iz
 774              	.LVL108:
 775              	.LBB31:
 776              	.LBB32:
 777              		.loc 1 52 0
 778 02a6 039B     		ldr	r3, [sp, #12]
 779 02a8 A846     		mov	r8, r5
 780              	.LVL109:
 781 02aa 0B33     		adds	r3, r3, #11
 782 02ac 9A46     		mov	r10, r3
 783 02ae 0A93     		str	r3, [sp, #40]
 784 02b0 3300     		movs	r3, r6
 785 02b2 0500     		movs	r5, r0
 786              	.LVL110:
 787 02b4 5646     		mov	r6, r10
 788              	.LVL111:
 789 02b6 A146     		mov	r9, r4
 790 02b8 9A46     		mov	r10, r3
 791              	.LBE32:
 792              	.LBE31:
 793              		.loc 1 87 0
 794 02ba 0790     		str	r0, [sp, #28]
 795              	.LVL112:
 796              	.L41:
 797              	.LBB34:
 798              	.LBB33:
ARM GAS  /var/folders/t8/16hdwfmd2fg_d3q6dgx6bpmw0000gn/T//cctxNhNH.s 			page 15


 799              		.loc 1 54 0
 800 02bc 2800     		movs	r0, r5
 801 02be 0A21     		movs	r1, #10
 802 02c0 FFF7FEFF 		bl	__aeabi_uidivmod
 803              	.LVL113:
 804              		.loc 1 55 0
 805 02c4 3031     		adds	r1, r1, #48
 806              	.LVL114:
 807              		.loc 1 58 0
 808 02c6 CCB2     		uxtb	r4, r1
 809 02c8 013E     		subs	r6, r6, #1
 810              	.LVL115:
 811              		.loc 1 59 0
 812 02ca 2800     		movs	r0, r5
 813              		.loc 1 58 0
 814 02cc 3470     		strb	r4, [r6]
 815              		.loc 1 59 0
 816 02ce 0A21     		movs	r1, #10
 817              	.LVL116:
 818 02d0 FFF7FEFF 		bl	__aeabi_uidiv
 819              	.LVL117:
 820 02d4 051E     		subs	r5, r0, #0
 821              	.LVL118:
 822              		.loc 1 60 0
 823 02d6 F1D1     		bne	.L41
 824 02d8 5346     		mov	r3, r10
 825 02da B246     		mov	r10, r6
 826              	.LVL119:
 827 02dc 4546     		mov	r5, r8
 828              		.loc 1 62 0
 829 02de 5246     		mov	r2, r10
 830 02e0 A046     		mov	r8, r4
 831              	.LVL120:
 832 02e2 1E00     		movs	r6, r3
 833              	.LVL121:
 834 02e4 0A9B     		ldr	r3, [sp, #40]
 835              	.LVL122:
 836 02e6 0398     		ldr	r0, [sp, #12]
 837              	.LVL123:
 838 02e8 9A1A     		subs	r2, r3, r2
 839              	.LVL124:
 840 02ea CC46     		mov	ip, r9
 841 02ec 0023     		movs	r3, #0
 842 02ee 5446     		mov	r4, r10
 843 02f0 4146     		mov	r1, r8
 844 02f2 00E0     		b	.L43
 845              	.LVL125:
 846              	.L127:
 847 02f4 E15C     		ldrb	r1, [r4, r3]
 848              	.LVL126:
 849              	.L43:
 850              		.loc 1 64 0
 851 02f6 C154     		strb	r1, [r0, r3]
 852              	.LVL127:
 853 02f8 0133     		adds	r3, r3, #1
 854              	.LVL128:
 855              		.loc 1 65 0
ARM GAS  /var/folders/t8/16hdwfmd2fg_d3q6dgx6bpmw0000gn/T//cctxNhNH.s 			page 16


 856 02fa 9A42     		cmp	r2, r3
 857 02fc FAD1     		bne	.L127
 858 02fe 0399     		ldr	r1, [sp, #12]
 859 0300 531E     		subs	r3, r2, #1
 860              	.LVL129:
 861 0302 8846     		mov	r8, r1
 862 0304 9844     		add	r8, r8, r3
 863              	.LVL130:
 864              	.LBE33:
 865              	.LBE34:
 866              		.loc 1 89 0
 867 0306 4346     		mov	r3, r8
 868 0308 0233     		adds	r3, r3, #2
 869 030a 0393     		str	r3, [sp, #12]
 870              	.LVL131:
 871 030c 2E23     		movs	r3, #46
 872              	.LVL132:
 873              		.loc 1 90 0
 874 030e 0798     		ldr	r0, [sp, #28]
 875              		.loc 1 89 0
 876 0310 8B54     		strb	r3, [r1, r2]
 877 0312 6446     		mov	r4, ip
 878              		.loc 1 90 0
 879 0314 FFF7FEFF 		bl	__aeabi_i2d
 880              	.LVL133:
 881 0318 0200     		movs	r2, r0
 882 031a 0B00     		movs	r3, r1
 883 031c 0498     		ldr	r0, [sp, #16]
 884 031e 0599     		ldr	r1, [sp, #20]
 885 0320 FFF7FEFF 		bl	__aeabi_dsub
 886              	.LVL134:
 887 0324 089A     		ldr	r2, [sp, #32]
 888 0326 099B     		ldr	r3, [sp, #36]
 889 0328 FFF7FEFF 		bl	__aeabi_dmul
 890              	.LVL135:
 891 032c FFF7FEFF 		bl	__aeabi_d2iz
 892              	.LVL136:
 893              	.LBB35:
 894              	.LBB36:
 895              		.loc 1 46 0
 896 0330 0B9B     		ldr	r3, [sp, #44]
 897              	.LBE36:
 898              	.LBE35:
 899              		.loc 1 90 0
 900 0332 8246     		mov	r10, r0
 901              	.LVL137:
 902              	.LBB38:
 903              	.LBB37:
 904              		.loc 1 46 0
 905 0334 002B     		cmp	r3, #0
 906 0336 00D1     		bne	.L44
 907              	.LVL138:
 908              		.loc 1 47 0
 909 0338 0690     		str	r0, [sp, #24]
 910              	.L44:
 911              	.LVL139:
 912              		.loc 1 52 0
ARM GAS  /var/folders/t8/16hdwfmd2fg_d3q6dgx6bpmw0000gn/T//cctxNhNH.s 			page 17


 913 033a 4346     		mov	r3, r8
 914 033c 0D33     		adds	r3, r3, #13
 915 033e 9946     		mov	r9, r3
 916 0340 0493     		str	r3, [sp, #16]
 917              	.LVL140:
 918 0342 5B46     		mov	r3, fp
 919              	.LVL141:
 920 0344 A846     		mov	r8, r5
 921 0346 5546     		mov	r5, r10
 922              	.LVL142:
 923 0348 B246     		mov	r10, r6
 924 034a 4E46     		mov	r6, r9
 925              	.LVL143:
 926 034c A146     		mov	r9, r4
 927              	.LVL144:
 928 034e BB46     		mov	fp, r7
 929              	.LVL145:
 930 0350 069F     		ldr	r7, [sp, #24]
 931              	.LVL146:
 932 0352 0793     		str	r3, [sp, #28]
 933              	.LVL147:
 934              	.L45:
 935              		.loc 1 54 0
 936 0354 2800     		movs	r0, r5
 937 0356 0A21     		movs	r1, #10
 938 0358 FFF7FEFF 		bl	__aeabi_uidivmod
 939              	.LVL148:
 940              		.loc 1 55 0
 941 035c 3031     		adds	r1, r1, #48
 942              	.LVL149:
 943              		.loc 1 58 0
 944 035e CCB2     		uxtb	r4, r1
 945 0360 013E     		subs	r6, r6, #1
 946              	.LVL150:
 947              		.loc 1 59 0
 948 0362 0A21     		movs	r1, #10
 949              	.LVL151:
 950 0364 2800     		movs	r0, r5
 951              		.loc 1 58 0
 952 0366 3470     		strb	r4, [r6]
 953              		.loc 1 59 0
 954 0368 FFF7FEFF 		bl	__aeabi_uidiv
 955              	.LVL152:
 956              		.loc 1 60 0
 957 036c 0A21     		movs	r1, #10
 958              		.loc 1 59 0
 959 036e 0500     		movs	r5, r0
 960              		.loc 1 60 0
 961 0370 3800     		movs	r0, r7
 962 0372 FFF7FEFF 		bl	__aeabi_uidiv
 963              	.LVL153:
 964 0376 071E     		subs	r7, r0, #0
 965              	.LVL154:
 966 0378 ECD1     		bne	.L45
 967 037a 4546     		mov	r5, r8
 968 037c A046     		mov	r8, r4
 969              	.LVL155:
ARM GAS  /var/folders/t8/16hdwfmd2fg_d3q6dgx6bpmw0000gn/T//cctxNhNH.s 			page 18


 970 037e 4C46     		mov	r4, r9
 971 0380 B146     		mov	r9, r6
 972              	.LVL156:
 973              		.loc 1 62 0
 974 0382 4946     		mov	r1, r9
 975 0384 049A     		ldr	r2, [sp, #16]
 976 0386 0398     		ldr	r0, [sp, #12]
 977              	.LVL157:
 978 0388 511A     		subs	r1, r2, r1
 979 038a 079B     		ldr	r3, [sp, #28]
 980 038c 4218     		adds	r2, r0, r1
 981 038e 5F46     		mov	r7, fp
 982              	.LVL158:
 983 0390 8C46     		mov	ip, r1
 984 0392 9B46     		mov	fp, r3
 985              	.LVL159:
 986 0394 1100     		movs	r1, r2
 987              	.LVL160:
 988 0396 0300     		movs	r3, r0
 989 0398 5646     		mov	r6, r10
 990              	.LVL161:
 991 039a 4846     		mov	r0, r9
 992 039c 4246     		mov	r2, r8
 993 039e 00E0     		b	.L47
 994              	.LVL162:
 995              	.L46:
 996 03a0 0278     		ldrb	r2, [r0]
 997              	.L47:
 998              	.LVL163:
 999              		.loc 1 64 0
 1000 03a2 1A70     		strb	r2, [r3]
 1001 03a4 0133     		adds	r3, r3, #1
 1002              	.LVL164:
 1003 03a6 0130     		adds	r0, r0, #1
 1004              	.LVL165:
 1005              		.loc 1 65 0
 1006 03a8 9942     		cmp	r1, r3
 1007 03aa F9D1     		bne	.L46
 1008 03ac 039B     		ldr	r3, [sp, #12]
 1009 03ae 6146     		mov	r1, ip
 1010 03b0 9C46     		mov	ip, r3
 1011 03b2 029A     		ldr	r2, [sp, #8]
 1012 03b4 6144     		add	r1, r1, ip
 1013 03b6 8B1A     		subs	r3, r1, r2
 1014 03b8 E41A     		subs	r4, r4, r3
 1015              	.LVL166:
 1016 03ba 013B     		subs	r3, r3, #1
 1017 03bc 9846     		mov	r8, r3
 1018              	.LBE37:
 1019              	.LBE38:
 1020              	.LBE39:
 1021              	.LBE41:
 1022              		.loc 1 144 0
 1023 03be 9246     		mov	r10, r2
 1024 03c0 ECE6     		b	.L26
 1025              	.LVL167:
 1026              	.L75:
ARM GAS  /var/folders/t8/16hdwfmd2fg_d3q6dgx6bpmw0000gn/T//cctxNhNH.s 			page 19


 1027              		.loc 1 190 0
 1028 03c2 4746     		mov	r7, r8
 1029              	.LVL168:
 1030              	.L23:
 1031              		.loc 1 193 0
 1032 03c4 2A68     		ldr	r2, [r5]
 1033 03c6 0CAB     		add	r3, sp, #48
 1034              	.LVL169:
 1035 03c8 1A70     		strb	r2, [r3]
 1036              		.loc 1 194 0
 1037 03ca 0022     		movs	r2, #0
 1038 03cc 9046     		mov	r8, r2
 1039              		.loc 1 192 0
 1040 03ce 2032     		adds	r2, r2, #32
 1041 03d0 013C     		subs	r4, r4, #1
 1042              	.LVL170:
 1043              		.loc 1 193 0
 1044 03d2 0435     		adds	r5, r5, #4
 1045              	.LVL171:
 1046              		.loc 1 192 0
 1047 03d4 9346     		mov	fp, r2
 1048              		.loc 1 144 0
 1049 03d6 9A46     		mov	r10, r3
 1050              		.loc 1 194 0
 1051 03d8 E0E6     		b	.L26
 1052              	.LVL172:
 1053              	.L73:
 1054              		.loc 1 190 0
 1055 03da 4746     		mov	r7, r8
 1056              	.LVL173:
 1057              	.L21:
 1058              		.loc 1 235 0
 1059 03dc 0A23     		movs	r3, #10
 1060 03de 9A46     		mov	r10, r3
 1061 03e0 AEE6     		b	.L22
 1062              	.LVL174:
 1063              	.L71:
 1064              		.loc 1 190 0
 1065 03e2 1A00     		movs	r2, r3
 1066 03e4 4746     		mov	r7, r8
 1067              	.LVL175:
 1068              	.L17:
 1069              		.loc 1 247 0
 1070 03e6 0CAB     		add	r3, sp, #48
 1071              	.LVL176:
 1072 03e8 1A70     		strb	r2, [r3]
 1073              		.loc 1 248 0
 1074 03ea 0022     		movs	r2, #0
 1075              	.LVL177:
 1076 03ec 013C     		subs	r4, r4, #1
 1077              	.LVL178:
 1078 03ee 9046     		mov	r8, r2
 1079              		.loc 1 144 0
 1080 03f0 9A46     		mov	r10, r3
 1081              		.loc 1 248 0
 1082 03f2 D3E6     		b	.L26
 1083              	.LVL179:
ARM GAS  /var/folders/t8/16hdwfmd2fg_d3q6dgx6bpmw0000gn/T//cctxNhNH.s 			page 20


 1084              	.L83:
 1085              		.loc 1 254 0
 1086 03f4 1C00     		movs	r4, r3
 1087              	.LVL180:
 1088              	.L55:
 1089              		.loc 1 266 0
 1090 03f6 4346     		mov	r3, r8
 1091 03f8 002B     		cmp	r3, #0
 1092 03fa 00DB     		blt	.LCB1240
 1093 03fc FBE6     		b	.L61	@long jump
 1094              	.LCB1240:
 1095 03fe 0DE7     		b	.L60
 1096              	.LVL181:
 1097              	.L119:
 1098 0400 0A00     		movs	r2, r1
 1099 0402 4846     		mov	r0, r9
 1100              	.LVL182:
 1101 0404 06E0     		b	.L13
 1102              	.LVL183:
 1103              	.L128:
 1104              		.loc 1 173 0
 1105 0406 2A78     		ldrb	r2, [r5]
 1106              	.LVL184:
 1107 0408 0435     		adds	r5, r5, #4
 1108              	.LVL185:
 1109              	.L12:
 1110              		.loc 1 176 0
 1111 040a 8300     		lsls	r3, r0, #2
 1112 040c 1B18     		adds	r3, r3, r0
 1113 040e 5B00     		lsls	r3, r3, #1
 1114              	.LVL186:
 1115              		.loc 1 177 0
 1116 0410 D018     		adds	r0, r2, r3
 1117              	.LVL187:
 1118              		.loc 1 169 0
 1119 0412 0A00     		movs	r2, r1
 1120              	.LVL188:
 1121              	.L13:
 1122 0414 1378     		ldrb	r3, [r2]
 1123 0416 511C     		adds	r1, r2, #1
 1124              	.LVL189:
 1125              		.loc 1 170 0
 1126 0418 1A00     		movs	r2, r3
 1127 041a 303A     		subs	r2, r2, #48
 1128 041c D2B2     		uxtb	r2, r2
 1129 041e 092A     		cmp	r2, #9
 1130 0420 F3D9     		bls	.L12
 1131              		.loc 1 172 0
 1132 0422 2A2B     		cmp	r3, #42
 1133 0424 EFD0     		beq	.L128
 1134 0426 8146     		mov	r9, r0
 1135              		.loc 1 169 0
 1136 0428 8846     		mov	r8, r1
 1137 042a 40E6     		b	.L11
 1138              	.LVL190:
 1139              	.L86:
 1140              		.loc 1 190 0
ARM GAS  /var/folders/t8/16hdwfmd2fg_d3q6dgx6bpmw0000gn/T//cctxNhNH.s 			page 21


 1141 042c 1023     		movs	r3, #16
 1142 042e 9A46     		mov	r10, r3
 1143 0430 86E6     		b	.L22
 1144              	.L131:
 1145 0432 C046     		.align	2
 1146              	.L130:
 1147 0434 00000000 		.word	.L19
 1148 0438 D4000000 		.word	.L64
 1149 043c FE7F0000 		.word	32766
 1150 0440 00000000 		.word	.LANCHOR0
 1151              	.L92:
 1152 0444 2B1D     		adds	r3, r5, #4
 1153              	.LVL191:
 1154              	.L33:
 1155              		.loc 1 209 0
 1156 0446 2A68     		ldr	r2, [r5]
 1157 0448 1D00     		movs	r5, r3
 1158 044a 9246     		mov	r10, r2
 1159              	.LVL192:
 1160              	.L32:
 1161              		.loc 1 212 0
 1162 044c 5346     		mov	r3, r10
 1163              	.LVL193:
 1164 044e 002B     		cmp	r3, #0
 1165 0450 00DA     		bge	.LCB1355
 1166 0452 85E0     		b	.L129	@long jump
 1167              	.LCB1355:
 1168              		.loc 1 143 0
 1169 0454 0CAB     		add	r3, sp, #48
 1170              	.LVL194:
 1171 0456 0293     		str	r3, [sp, #8]
 1172 0458 0393     		str	r3, [sp, #12]
 1173              	.LVL195:
 1174              	.L34:
 1175              	.LBB42:
 1176              	.LBB43:
 1177              	.LBB44:
 1178              		.loc 1 52 0
 1179 045a 039B     		ldr	r3, [sp, #12]
 1180 045c A146     		mov	r9, r4
 1181              	.LVL196:
 1182 045e 0B33     		adds	r3, r3, #11
 1183 0460 9846     		mov	r8, r3
 1184 0462 0693     		str	r3, [sp, #24]
 1185              	.LVL197:
 1186 0464 3300     		movs	r3, r6
 1187              	.LVL198:
 1188 0466 4646     		mov	r6, r8
 1189              	.LVL199:
 1190 0468 A846     		mov	r8, r5
 1191              	.LVL200:
 1192 046a 5546     		mov	r5, r10
 1193              	.LVL201:
 1194 046c 9A46     		mov	r10, r3
 1195              	.LVL202:
 1196              	.L35:
 1197              		.loc 1 54 0
ARM GAS  /var/folders/t8/16hdwfmd2fg_d3q6dgx6bpmw0000gn/T//cctxNhNH.s 			page 22


 1198 046e 2800     		movs	r0, r5
 1199 0470 0A21     		movs	r1, #10
 1200 0472 FFF7FEFF 		bl	__aeabi_uidivmod
 1201              	.LVL203:
 1202              		.loc 1 55 0
 1203 0476 3031     		adds	r1, r1, #48
 1204              	.LVL204:
 1205              		.loc 1 58 0
 1206 0478 CCB2     		uxtb	r4, r1
 1207 047a 013E     		subs	r6, r6, #1
 1208              	.LVL205:
 1209              		.loc 1 59 0
 1210 047c 2800     		movs	r0, r5
 1211              		.loc 1 58 0
 1212 047e 3470     		strb	r4, [r6]
 1213              		.loc 1 59 0
 1214 0480 0A21     		movs	r1, #10
 1215              	.LVL206:
 1216 0482 FFF7FEFF 		bl	__aeabi_uidiv
 1217              	.LVL207:
 1218 0486 051E     		subs	r5, r0, #0
 1219              	.LVL208:
 1220              		.loc 1 60 0
 1221 0488 F1D1     		bne	.L35
 1222 048a 2300     		movs	r3, r4
 1223 048c 4546     		mov	r5, r8
 1224 048e B046     		mov	r8, r6
 1225              	.LVL209:
 1226 0490 4C46     		mov	r4, r9
 1227              		.loc 1 62 0
 1228 0492 4246     		mov	r2, r8
 1229 0494 9946     		mov	r9, r3
 1230              	.LVL210:
 1231 0496 069B     		ldr	r3, [sp, #24]
 1232 0498 A446     		mov	ip, r4
 1233 049a 9A1A     		subs	r2, r3, r2
 1234              	.LVL211:
 1235 049c 5646     		mov	r6, r10
 1236              	.LVL212:
 1237 049e 0023     		movs	r3, #0
 1238 04a0 0398     		ldr	r0, [sp, #12]
 1239              	.LVL213:
 1240 04a2 4446     		mov	r4, r8
 1241              	.LVL214:
 1242 04a4 4946     		mov	r1, r9
 1243 04a6 00E0     		b	.L37
 1244              	.LVL215:
 1245              	.L36:
 1246 04a8 E15C     		ldrb	r1, [r4, r3]
 1247              	.LVL216:
 1248              	.L37:
 1249              		.loc 1 64 0
 1250 04aa C154     		strb	r1, [r0, r3]
 1251              	.LVL217:
 1252 04ac 0133     		adds	r3, r3, #1
 1253              	.LVL218:
 1254              		.loc 1 65 0
ARM GAS  /var/folders/t8/16hdwfmd2fg_d3q6dgx6bpmw0000gn/T//cctxNhNH.s 			page 23


 1255 04ae 9A42     		cmp	r2, r3
 1256 04b0 FAD1     		bne	.L36
 1257 04b2 039B     		ldr	r3, [sp, #12]
 1258              	.LVL219:
 1259 04b4 6446     		mov	r4, ip
 1260 04b6 9C46     		mov	ip, r3
 1261              	.LVL220:
 1262 04b8 0299     		ldr	r1, [sp, #8]
 1263 04ba 6244     		add	r2, r2, ip
 1264 04bc 531A     		subs	r3, r2, r1
 1265 04be E41A     		subs	r4, r4, r3
 1266              	.LVL221:
 1267 04c0 013B     		subs	r3, r3, #1
 1268 04c2 9846     		mov	r8, r3
 1269              	.LBE44:
 1270              	.LBE43:
 1271              	.LBE42:
 1272              		.loc 1 144 0
 1273 04c4 8A46     		mov	r10, r1
 1274 04c6 69E6     		b	.L26
 1275              	.LVL222:
 1276              	.L18:
 1277 04c8 2B00     		movs	r3, r5
 1278              	.LVL223:
 1279 04ca 04CB     		ldmia	r3!, {r2}
 1280 04cc 4746     		mov	r7, r8
 1281 04ce 9246     		mov	r10, r2
 1282              		.loc 1 208 0
 1283 04d0 1929     		cmp	r1, #25
 1284 04d2 B8D9     		bls	.L33
 1285              	.LVL224:
 1286              		.loc 1 211 0
 1287 04d4 1D00     		movs	r5, r3
 1288              	.LVL225:
 1289 04d6 B9E7     		b	.L32
 1290              	.LVL226:
 1291              	.L74:
 1292              		.loc 1 190 0
 1293 04d8 1023     		movs	r3, #16
 1294              	.LVL227:
 1295 04da 4746     		mov	r7, r8
 1296 04dc 9A46     		mov	r10, r3
 1297 04de 2FE6     		b	.L22
 1298              	.LVL228:
 1299              	.L126:
 1300              		.loc 1 222 0
 1301 04e0 1A00     		movs	r2, r3
 1302 04e2 0293     		str	r3, [sp, #8]
 1303 04e4 2D23     		movs	r3, #45
 1304              	.LVL229:
 1305 04e6 1370     		strb	r3, [r2]
 1306              		.loc 1 223 0
 1307 04e8 8023     		movs	r3, #128
 1308 04ea 1B06     		lsls	r3, r3, #24
 1309 04ec 4344     		add	r3, r3, r8
 1310 04ee 9846     		mov	r8, r3
 1311              	.LVL230:
ARM GAS  /var/folders/t8/16hdwfmd2fg_d3q6dgx6bpmw0000gn/T//cctxNhNH.s 			page 24


 1312              		.loc 1 222 0
 1313 04f0 9446     		mov	ip, r2
 1314 04f2 0123     		movs	r3, #1
 1315              	.LVL231:
 1316 04f4 6344     		add	r3, r3, ip
 1317 04f6 0393     		str	r3, [sp, #12]
 1318 04f8 B9E6     		b	.L38
 1319              	.LVL232:
 1320              	.L27:
 1321              		.loc 1 199 0
 1322 04fa 4B46     		mov	r3, r9
 1323 04fc 1F4D     		ldr	r5, .L132
 1324 04fe AA46     		mov	r10, r5
 1325 0500 002B     		cmp	r3, #0
 1326 0502 00D1     		bne	.LCB1597
 1327 0504 08E6     		b	.L114	@long jump
 1328              	.LCB1597:
 1329              	.LVL233:
 1330              	.L66:
 1331              		.loc 1 201 0
 1332 0506 4A46     		mov	r2, r9
 1333 0508 013A     		subs	r2, r2, #1
 1334 050a 06E6     		b	.L65
 1335              	.LVL234:
 1336              	.L123:
 1337 050c 013B     		subs	r3, r3, #1
 1338 050e 9846     		mov	r8, r3
 1339              		.loc 1 196 0
 1340 0510 2133     		adds	r3, r3, #33
 1341              		.loc 1 197 0
 1342 0512 0D00     		movs	r5, r1
 1343              	.LVL235:
 1344              		.loc 1 196 0
 1345 0514 9B46     		mov	fp, r3
 1346 0516 43E6     		b	.L52
 1347              	.LVL236:
 1348              	.L124:
 1349              		.loc 1 256 0 discriminator 1
 1350 0518 5A46     		mov	r2, fp
 1351 051a 302A     		cmp	r2, #48
 1352 051c 00D0     		beq	.LCB1635
 1353 051e 4FE6     		b	.L109	@long jump
 1354              	.LCB1635:
 1355 0520 009A     		ldr	r2, [sp]
 1356              		.loc 1 257 0
 1357 0522 2D21     		movs	r1, #45
 1358 0524 0132     		adds	r2, r2, #1
 1359 0526 0092     		str	r2, [sp]
 1360              	.LVL237:
 1361 0528 0122     		movs	r2, #1
 1362 052a 9446     		mov	ip, r2
 1363 052c 3000     		movs	r0, r6
 1364 052e E244     		add	r10, r10, ip
 1365              	.LVL238:
 1366 0530 9847     		blx	r3
 1367              	.LVL239:
 1368 0532 0123     		movs	r3, #1
ARM GAS  /var/folders/t8/16hdwfmd2fg_d3q6dgx6bpmw0000gn/T//cctxNhNH.s 			page 25


 1369 0534 5B42     		rsbs	r3, r3, #0
 1370 0536 9C46     		mov	ip, r3
 1371 0538 3368     		ldr	r3, [r6]
 1372 053a E044     		add	r8, r8, ip
 1373 053c 9B68     		ldr	r3, [r3, #8]
 1374 053e 3FE6     		b	.L109
 1375              	.LVL240:
 1376              	.L122:
 1377              		.loc 1 201 0
 1378 0540 002B     		cmp	r3, #0
 1379 0542 E0D1     		bne	.L66
 1380 0544 013B     		subs	r3, r3, #1
 1381 0546 9846     		mov	r8, r3
 1382              		.loc 1 196 0
 1383 0548 2133     		adds	r3, r3, #33
 1384              		.loc 1 197 0
 1385 054a 0D00     		movs	r5, r1
 1386              	.LVL241:
 1387              		.loc 1 196 0
 1388 054c 9B46     		mov	fp, r3
 1389 054e 25E6     		b	.L26
 1390              	.LVL242:
 1391              	.L81:
 1392              	.LBB45:
 1393              	.LBB40:
 1394              		.loc 1 83 0
 1395 0550 0022     		movs	r2, #0
 1396 0552 0B4B     		ldr	r3, .L132+4
 1397 0554 0693     		str	r3, [sp, #24]
 1398 0556 0B93     		str	r3, [sp, #44]
 1399 0558 0A4B     		ldr	r3, .L132+8
 1400 055a 0892     		str	r2, [sp, #32]
 1401 055c 0993     		str	r3, [sp, #36]
 1402 055e 9FE6     		b	.L40
 1403              	.LVL243:
 1404              	.L129:
 1405              	.LBE40:
 1406              	.LBE45:
 1407              		.loc 1 213 0
 1408 0560 0CAB     		add	r3, sp, #48
 1409              	.LVL244:
 1410 0562 1A00     		movs	r2, r3
 1411 0564 0293     		str	r3, [sp, #8]
 1412 0566 2D23     		movs	r3, #45
 1413              	.LVL245:
 1414 0568 1370     		strb	r3, [r2]
 1415              		.loc 1 214 0
 1416 056a 5346     		mov	r3, r10
 1417 056c 5B42     		rsbs	r3, r3, #0
 1418 056e 9A46     		mov	r10, r3
 1419              	.LVL246:
 1420              		.loc 1 213 0
 1421 0570 9446     		mov	ip, r2
 1422 0572 0123     		movs	r3, #1
 1423              	.LVL247:
 1424 0574 6344     		add	r3, r3, ip
 1425 0576 0393     		str	r3, [sp, #12]
ARM GAS  /var/folders/t8/16hdwfmd2fg_d3q6dgx6bpmw0000gn/T//cctxNhNH.s 			page 26


 1426 0578 6FE7     		b	.L34
 1427              	.L133:
 1428 057a C046     		.align	2
 1429              	.L132:
 1430 057c 00000000 		.word	.LC2
 1431 0580 00E1F505 		.word	100000000
 1432 0584 65CDCD41 		.word	1104006501
 1433              		.cfi_endproc
 1434              	.LFE177:
 1435              		.size	chvprintf, .-chvprintf
 1436              		.section	.text.chprintf,"ax",%progbits
 1437              		.align	1
 1438              		.p2align 4,,15
 1439              		.global	chprintf
 1440              		.syntax unified
 1441              		.code	16
 1442              		.thumb_func
 1443              		.fpu softvfp
 1444              		.type	chprintf, %function
 1445              	chprintf:
 1446              	.LFB178:
 1447              		.loc 1 302 0
 1448              		.cfi_startproc
 1449              		@ args = 4, pretend = 12, frame = 8
 1450              		@ frame_needed = 0, uses_anonymous_args = 1
 1451              	.LVL248:
 1452 0000 0EB4     		push	{r1, r2, r3}
 1453              		.cfi_def_cfa_offset 12
 1454 0002 00B5     		push	{lr}
 1455              		.cfi_def_cfa_offset 16
 1456              		.cfi_offset 14, -16
 1457 0004 82B0     		sub	sp, sp, #8
 1458              		.cfi_def_cfa_offset 24
 1459              		.loc 1 302 0
 1460 0006 03AA     		add	r2, sp, #12
 1461 0008 02CA     		ldmia	r2!, {r1}
 1462              		.loc 1 306 0
 1463 000a 0192     		str	r2, [sp, #4]
 1464              		.loc 1 307 0
 1465 000c FFF7FEFF 		bl	chvprintf
 1466              	.LVL249:
 1467              		.loc 1 311 0
 1468 0010 02B0     		add	sp, sp, #8
 1469              		@ sp needed
 1470 0012 08BC     		pop	{r3}
 1471 0014 03B0     		add	sp, sp, #12
 1472 0016 1847     		bx	r3
 1473              		.cfi_endproc
 1474              	.LFE178:
 1475              		.size	chprintf, .-chprintf
 1476              		.section	.text.chsnprintf,"ax",%progbits
 1477              		.align	1
 1478              		.p2align 4,,15
 1479              		.global	chsnprintf
 1480              		.syntax unified
 1481              		.code	16
 1482              		.thumb_func
ARM GAS  /var/folders/t8/16hdwfmd2fg_d3q6dgx6bpmw0000gn/T//cctxNhNH.s 			page 27


 1483              		.fpu softvfp
 1484              		.type	chsnprintf, %function
 1485              	chsnprintf:
 1486              	.LFB179:
 1487              		.loc 1 340 0
 1488              		.cfi_startproc
 1489              		@ args = 4, pretend = 8, frame = 24
 1490              		@ frame_needed = 0, uses_anonymous_args = 1
 1491              	.LVL250:
 1492 0000 0CB4     		push	{r2, r3}
 1493              		.cfi_def_cfa_offset 8
 1494 0002 30B5     		push	{r4, r5, lr}
 1495              		.cfi_def_cfa_offset 20
 1496              		.cfi_offset 4, -20
 1497              		.cfi_offset 5, -16
 1498              		.cfi_offset 14, -12
 1499 0004 0500     		movs	r5, r0
 1500 0006 87B0     		sub	sp, sp, #28
 1501              		.cfi_def_cfa_offset 48
 1502              		.loc 1 340 0
 1503 0008 0C1E     		subs	r4, r1, #0
 1504              		.loc 1 347 0
 1505 000a 15D0     		beq	.L136
 1506              	.LVL251:
 1507              		.loc 1 348 0
 1508 000c 4A1E     		subs	r2, r1, #1
 1509              	.LVL252:
 1510              		.loc 1 354 0
 1511 000e 0023     		movs	r3, #0
 1512 0010 0100     		movs	r1, r0
 1513              	.LVL253:
 1514 0012 01A8     		add	r0, sp, #4
 1515              	.LVL254:
 1516 0014 FFF7FEFF 		bl	msObjectInit
 1517              	.LVL255:
 1518              		.loc 1 358 0
 1519 0018 0BAA     		add	r2, sp, #44
 1520              		.loc 1 359 0
 1521 001a 0A99     		ldr	r1, [sp, #40]
 1522 001c 01A8     		add	r0, sp, #4
 1523              	.LVL256:
 1524              		.loc 1 358 0
 1525 001e 0092     		str	r2, [sp]
 1526              		.loc 1 359 0
 1527 0020 FFF7FEFF 		bl	chvprintf
 1528              	.LVL257:
 1529              		.loc 1 363 0
 1530 0024 049B     		ldr	r3, [sp, #16]
 1531 0026 A342     		cmp	r3, r4
 1532 0028 01D2     		bcs	.L135
 1533              		.loc 1 364 0
 1534 002a 0022     		movs	r2, #0
 1535 002c EA54     		strb	r2, [r5, r3]
 1536              	.LVL258:
 1537              	.L135:
 1538              		.loc 1 368 0
 1539 002e 07B0     		add	sp, sp, #28
ARM GAS  /var/folders/t8/16hdwfmd2fg_d3q6dgx6bpmw0000gn/T//cctxNhNH.s 			page 28


 1540              		@ sp needed
 1541              	.LVL259:
 1542              	.LVL260:
 1543 0030 30BC     		pop	{r4, r5}
 1544 0032 08BC     		pop	{r3}
 1545 0034 02B0     		add	sp, sp, #8
 1546 0036 1847     		bx	r3
 1547              	.LVL261:
 1548              	.L136:
 1549              		.loc 1 354 0
 1550 0038 0100     		movs	r1, r0
 1551              	.LVL262:
 1552 003a 0023     		movs	r3, #0
 1553 003c 01A8     		add	r0, sp, #4
 1554              	.LVL263:
 1555 003e 0022     		movs	r2, #0
 1556 0040 FFF7FEFF 		bl	msObjectInit
 1557              	.LVL264:
 1558              		.loc 1 358 0
 1559 0044 0BAA     		add	r2, sp, #44
 1560              		.loc 1 359 0
 1561 0046 0A99     		ldr	r1, [sp, #40]
 1562 0048 01A8     		add	r0, sp, #4
 1563              	.LVL265:
 1564              		.loc 1 358 0
 1565 004a 0092     		str	r2, [sp]
 1566              		.loc 1 359 0
 1567 004c FFF7FEFF 		bl	chvprintf
 1568              	.LVL266:
 1569 0050 EDE7     		b	.L135
 1570              		.cfi_endproc
 1571              	.LFE179:
 1572              		.size	chsnprintf, .-chsnprintf
 1573 0052 C046     		.section	.rodata.chvprintf.str1.4,"aMS",%progbits,1
 1574              		.align	2
 1575              	.LC2:
 1576 0000 286E756C 		.ascii	"(null)\000"
 1576      6C2900
 1577              		.section	.rodata.pow10,"a",%progbits
 1578              		.align	2
 1579              		.set	.LANCHOR0,. + 0
 1580              		.type	pow10, %object
 1581              		.size	pow10, 36
 1582              	pow10:
 1583 0000 0A000000 		.word	10
 1584 0004 64000000 		.word	100
 1585 0008 E8030000 		.word	1000
 1586 000c 10270000 		.word	10000
 1587 0010 A0860100 		.word	100000
 1588 0014 40420F00 		.word	1000000
 1589 0018 80969800 		.word	10000000
 1590 001c 00E1F505 		.word	100000000
 1591 0020 00CA9A3B 		.word	1000000000
 1592              		.text
 1593              	.Letext0:
 1594              		.file 2 "/usr/local/Caskroom/gcc-arm-embedded/7-2017-q4-major/gcc-arm-none-eabi-7-2017-q4-major/li
 1595              		.file 3 "/usr/local/Caskroom/gcc-arm-embedded/7-2017-q4-major/gcc-arm-none-eabi-7-2017-q4-major/ar
ARM GAS  /var/folders/t8/16hdwfmd2fg_d3q6dgx6bpmw0000gn/T//cctxNhNH.s 			page 29


 1596              		.file 4 "/usr/local/Caskroom/gcc-arm-embedded/7-2017-q4-major/gcc-arm-none-eabi-7-2017-q4-major/ar
 1597              		.file 5 "../../tmk_core/tool/chibios/ChibiOS/os/common/ports/ARMCMx/compilers/GCC/chtypes.h"
 1598              		.file 6 "../../tmk_core/tool/chibios/ChibiOS/os/rt/include/chsystypes.h"
 1599              		.file 7 "../../tmk_core/tool/chibios/ChibiOS/os/rt/include/chschd.h"
 1600              		.file 8 "../../tmk_core/tool/chibios/ChibiOS-Contrib/os/common/ext/CMSIS/KINETIS/kl2xz.h"
 1601              		.file 9 "../../tmk_core/tool/chibios/ChibiOS/os/common/ports/ARMCMx/chcore.h"
 1602              		.file 10 "../../tmk_core/tool/chibios/ChibiOS/os/common/ports/ARMCMx/chcore_v6m.h"
 1603              		.file 11 "../../tmk_core/tool/chibios/ChibiOS/os/rt/include/chsem.h"
 1604              		.file 12 "../../tmk_core/tool/chibios/ChibiOS/os/rt/include/chmtx.h"
 1605              		.file 13 "../../tmk_core/tool/chibios/ChibiOS/os/rt/include/chregistry.h"
 1606              		.file 14 "../../tmk_core/tool/chibios/ChibiOS/os/rt/include/chsys.h"
 1607              		.file 15 "../../tmk_core/tool/chibios/ChibiOS/os/hal/include/hal_streams.h"
 1608              		.file 16 "../../tmk_core/tool/chibios/ChibiOS-Contrib/os/hal/ports/KINETIS/LLD/hal_pal_lld.h"
 1609              		.file 17 "../../tmk_core/tool/chibios/ChibiOS/os/hal/include/hal_usb.h"
 1610              		.file 18 "../../tmk_core/tool/chibios/ChibiOS-Contrib/os/hal/ports/KINETIS/LLD/hal_usb_lld.h"
 1611              		.file 19 "/usr/local/Caskroom/gcc-arm-embedded/7-2017-q4-major/gcc-arm-none-eabi-7-2017-q4-major/l
 1612              		.file 20 "<built-in>"
 1613              		.file 21 "../../tmk_core/tool/chibios/ChibiOS/os/hal/lib/streams/memstreams.h"