ARM GAS  /var/folders/t8/16hdwfmd2fg_d3q6dgx6bpmw0000gn/T//cc63w6BA.s 			page 1


   1              		.cpu cortex-m0plus
   2              		.eabi_attribute 20, 1
   3              		.eabi_attribute 21, 1
   4              		.eabi_attribute 23, 3
   5              		.eabi_attribute 24, 1
   6              		.eabi_attribute 25, 1
   7              		.eabi_attribute 26, 1
   8              		.eabi_attribute 30, 2
   9              		.eabi_attribute 34, 0
  10              		.eabi_attribute 18, 4
  11              		.file	"chregistry.c"
  12              		.text
  13              	.Ltext0:
  14              		.cfi_sections	.debug_frame
  15              		.section	.text.chRegFirstThread,"ax",%progbits
  16              		.align	1
  17              		.p2align 4,,15
  18              		.global	chRegFirstThread
  19              		.syntax unified
  20              		.code	16
  21              		.thumb_func
  22              		.fpu softvfp
  23              		.type	chRegFirstThread, %function
  24              	chRegFirstThread:
  25              	.LFB138:
  26              		.file 1 "../../tmk_core/tool/chibios/ChibiOS/os/rt/src/chregistry.c"
  27              		.loc 1 134 0
  28              		.cfi_startproc
  29              		@ args = 0, pretend = 0, frame = 0
  30              		@ frame_needed = 0, uses_anonymous_args = 0
  31 0000 70B5     		push	{r4, r5, r6, lr}
  32              		.cfi_def_cfa_offset 16
  33              		.cfi_offset 4, -16
  34              		.cfi_offset 5, -12
  35              		.cfi_offset 6, -8
  36              		.cfi_offset 14, -4
  37              	.LBB38:
  38              	.LBB39:
  39              	.LBB40:
  40              	.LBB41:
  41              	.LBB42:
  42              		.file 2 "../../tmk_core/tool/chibios/ChibiOS/os/common/ext/CMSIS/include/cmsis_gcc.h"
  43              		.loc 2 71 0
  44              		.syntax divided
  45              	@ 71 "../../tmk_core/tool/chibios/ChibiOS/os/common/ext/CMSIS/include/cmsis_gcc.h" 1
  46 0002 72B6     		cpsid i
  47              	@ 0 "" 2
  48              		.thumb
  49              		.syntax unified
  50              	.LBE42:
  51              	.LBE41:
  52              	.LBE40:
  53              		.file 3 "../../tmk_core/tool/chibios/ChibiOS/os/rt/include/chsys.h"
  54              		.loc 3 378 0
  55 0004 FFF7FEFF 		bl	_dbg_check_lock
  56              	.LVL0:
  57              	.LBE39:
ARM GAS  /var/folders/t8/16hdwfmd2fg_d3q6dgx6bpmw0000gn/T//cc63w6BA.s 			page 2


  58              	.LBE38:
  59              		.loc 1 140 0
  60 0008 2222     		movs	r2, #34
  61              		.loc 1 138 0
  62 000a 0B4C     		ldr	r4, .L5
  63 000c 2569     		ldr	r5, [r4, #16]
  64              	.LVL1:
  65              		.loc 1 140 0
  66 000e AB5C     		ldrb	r3, [r5, r2]
  67 0010 0133     		adds	r3, r3, #1
  68 0012 AB54     		strb	r3, [r5, r2]
  69              	.LBB43:
  70              	.LBB44:
  71              		.loc 3 388 0
  72 0014 FFF7FEFF 		bl	_dbg_check_unlock
  73              	.LVL2:
  74              		.loc 3 395 0
  75 0018 2368     		ldr	r3, [r4]
  76 001a A342     		cmp	r3, r4
  77 001c 04D0     		beq	.L2
  78 001e A269     		ldr	r2, [r4, #24]
  79 0020 9B68     		ldr	r3, [r3, #8]
  80 0022 9268     		ldr	r2, [r2, #8]
  81 0024 9A42     		cmp	r2, r3
  82 0026 02D3     		bcc	.L4
  83              	.L2:
  84              	.LBB45:
  85              	.LBB46:
  86              	.LBB47:
  87              		.loc 2 60 0
  88              		.syntax divided
  89              	@ 60 "../../tmk_core/tool/chibios/ChibiOS/os/common/ext/CMSIS/include/cmsis_gcc.h" 1
  90 0028 62B6     		cpsie i
  91              	@ 0 "" 2
  92              		.thumb
  93              		.syntax unified
  94              	.LBE47:
  95              	.LBE46:
  96              	.LBE45:
  97              	.LBE44:
  98              	.LBE43:
  99              		.loc 1 145 0
 100 002a 2800     		movs	r0, r5
 101              		@ sp needed
 102              	.LVL3:
 103 002c 70BD     		pop	{r4, r5, r6, pc}
 104              	.LVL4:
 105              	.L4:
 106              	.LBB49:
 107              	.LBB48:
 108              		.loc 3 395 0
 109 002e 0348     		ldr	r0, .L5+4
 110 0030 FFF7FEFF 		bl	chSysHalt
 111              	.LVL5:
 112 0034 F8E7     		b	.L2
 113              	.L6:
 114 0036 C046     		.align	2
ARM GAS  /var/folders/t8/16hdwfmd2fg_d3q6dgx6bpmw0000gn/T//cc63w6BA.s 			page 3


 115              	.L5:
 116 0038 00000000 		.word	ch
 117 003c 00000000 		.word	.LANCHOR0
 118              	.LBE48:
 119              	.LBE49:
 120              		.cfi_endproc
 121              	.LFE138:
 122              		.size	chRegFirstThread, .-chRegFirstThread
 123              		.section	.text.chRegNextThread,"ax",%progbits
 124              		.align	1
 125              		.p2align 4,,15
 126              		.global	chRegNextThread
 127              		.syntax unified
 128              		.code	16
 129              		.thumb_func
 130              		.fpu softvfp
 131              		.type	chRegNextThread, %function
 132              	chRegNextThread:
 133              	.LFB139:
 134              		.loc 1 158 0
 135              		.cfi_startproc
 136              		@ args = 0, pretend = 0, frame = 0
 137              		@ frame_needed = 0, uses_anonymous_args = 0
 138              	.LVL6:
 139 0000 F8B5     		push	{r3, r4, r5, r6, r7, lr}
 140              		.cfi_def_cfa_offset 24
 141              		.cfi_offset 3, -24
 142              		.cfi_offset 4, -20
 143              		.cfi_offset 5, -16
 144              		.cfi_offset 6, -12
 145              		.cfi_offset 7, -8
 146              		.cfi_offset 14, -4
 147              		.loc 1 158 0
 148 0002 0600     		movs	r6, r0
 149              	.LBB60:
 150              	.LBB61:
 151              	.LBB62:
 152              	.LBB63:
 153              	.LBB64:
 154              		.loc 2 71 0
 155              		.syntax divided
 156              	@ 71 "../../tmk_core/tool/chibios/ChibiOS/os/common/ext/CMSIS/include/cmsis_gcc.h" 1
 157 0004 72B6     		cpsid i
 158              	@ 0 "" 2
 159              		.thumb
 160              		.syntax unified
 161              	.LBE64:
 162              	.LBE63:
 163              	.LBE62:
 164              		.loc 3 378 0
 165 0006 FFF7FEFF 		bl	_dbg_check_lock
 166              	.LVL7:
 167              	.LBE61:
 168              	.LBE60:
 169              		.loc 1 162 0
 170 000a 3469     		ldr	r4, [r6, #16]
 171              	.LVL8:
ARM GAS  /var/folders/t8/16hdwfmd2fg_d3q6dgx6bpmw0000gn/T//cc63w6BA.s 			page 4


 172              		.loc 1 164 0
 173 000c 124D     		ldr	r5, .L14
 174 000e AC42     		cmp	r4, r5
 175 0010 1FD0     		beq	.L11
 176              		.loc 1 170 0 discriminator 1
 177 0012 2227     		movs	r7, #34
 178 0014 E35D     		ldrb	r3, [r4, r7]
 179 0016 FF2B     		cmp	r3, #255
 180 0018 16D0     		beq	.L12
 181              	.L9:
 182              		.loc 1 171 0
 183 001a 2222     		movs	r2, #34
 184 001c 0133     		adds	r3, r3, #1
 185 001e A354     		strb	r3, [r4, r2]
 186              	.LVL9:
 187              	.L8:
 188              	.LBB65:
 189              	.LBB66:
 190              		.loc 3 388 0
 191 0020 FFF7FEFF 		bl	_dbg_check_unlock
 192              	.LVL10:
 193              		.loc 3 395 0
 194 0024 2B68     		ldr	r3, [r5]
 195 0026 AB42     		cmp	r3, r5
 196 0028 04D0     		beq	.L10
 197 002a AA69     		ldr	r2, [r5, #24]
 198 002c 9B68     		ldr	r3, [r3, #8]
 199 002e 9268     		ldr	r2, [r2, #8]
 200 0030 9A42     		cmp	r2, r3
 201 0032 05D3     		bcc	.L13
 202              	.L10:
 203              	.LBB67:
 204              	.LBB68:
 205              	.LBB69:
 206              		.loc 2 60 0
 207              		.syntax divided
 208              	@ 60 "../../tmk_core/tool/chibios/ChibiOS/os/common/ext/CMSIS/include/cmsis_gcc.h" 1
 209 0034 62B6     		cpsie i
 210              	@ 0 "" 2
 211              		.thumb
 212              		.syntax unified
 213              	.LBE69:
 214              	.LBE68:
 215              	.LBE67:
 216              	.LBE66:
 217              	.LBE65:
 218              		.loc 1 176 0
 219 0036 3000     		movs	r0, r6
 220 0038 FFF7FEFF 		bl	chThdRelease
 221              	.LVL11:
 222              		.loc 1 180 0
 223              		@ sp needed
 224 003c 2000     		movs	r0, r4
 225              	.LVL12:
 226              	.LVL13:
 227 003e F8BD     		pop	{r3, r4, r5, r6, r7, pc}
 228              	.LVL14:
ARM GAS  /var/folders/t8/16hdwfmd2fg_d3q6dgx6bpmw0000gn/T//cc63w6BA.s 			page 5


 229              	.L13:
 230              	.LBB71:
 231              	.LBB70:
 232              		.loc 3 395 0
 233 0040 0648     		ldr	r0, .L14+4
 234 0042 FFF7FEFF 		bl	chSysHalt
 235              	.LVL15:
 236 0046 F5E7     		b	.L10
 237              	.L12:
 238              	.LBE70:
 239              	.LBE71:
 240              		.loc 1 170 0 discriminator 2
 241 0048 0548     		ldr	r0, .L14+8
 242 004a FFF7FEFF 		bl	chSysHalt
 243              	.LVL16:
 244 004e E35D     		ldrb	r3, [r4, r7]
 245 0050 E3E7     		b	.L9
 246              	.L11:
 247              		.loc 1 166 0
 248 0052 0024     		movs	r4, #0
 249              	.LVL17:
 250 0054 E4E7     		b	.L8
 251              	.L15:
 252 0056 C046     		.align	2
 253              	.L14:
 254 0058 00000000 		.word	ch
 255 005c 00000000 		.word	.LANCHOR0
 256 0060 00000000 		.word	.LANCHOR1
 257              		.cfi_endproc
 258              	.LFE139:
 259              		.size	chRegNextThread, .-chRegNextThread
 260              		.section	.text.chRegFindThreadByName,"ax",%progbits
 261              		.align	1
 262              		.p2align 4,,15
 263              		.global	chRegFindThreadByName
 264              		.syntax unified
 265              		.code	16
 266              		.thumb_func
 267              		.fpu softvfp
 268              		.type	chRegFindThreadByName, %function
 269              	chRegFindThreadByName:
 270              	.LFB140:
 271              		.loc 1 194 0
 272              		.cfi_startproc
 273              		@ args = 0, pretend = 0, frame = 0
 274              		@ frame_needed = 0, uses_anonymous_args = 0
 275              	.LVL18:
 276 0000 70B5     		push	{r4, r5, r6, lr}
 277              		.cfi_def_cfa_offset 16
 278              		.cfi_offset 4, -16
 279              		.cfi_offset 5, -12
 280              		.cfi_offset 6, -8
 281              		.cfi_offset 14, -4
 282              		.loc 1 194 0
 283 0002 0500     		movs	r5, r0
 284              		.loc 1 198 0
 285 0004 FFF7FEFF 		bl	chRegFirstThread
ARM GAS  /var/folders/t8/16hdwfmd2fg_d3q6dgx6bpmw0000gn/T//cc63w6BA.s 			page 6


 286              	.LVL19:
 287 0008 0400     		movs	r4, r0
 288              	.LVL20:
 289 000a 04E0     		b	.L18
 290              	.LVL21:
 291              	.L23:
 292              		.loc 1 203 0
 293 000c 2000     		movs	r0, r4
 294 000e FFF7FEFF 		bl	chRegNextThread
 295              	.LVL22:
 296 0012 041E     		subs	r4, r0, #0
 297              	.LVL23:
 298              		.loc 1 204 0
 299 0014 05D0     		beq	.L16
 300              	.L18:
 301              	.LVL24:
 302              		.loc 1 200 0
 303 0016 2900     		movs	r1, r5
 304 0018 A069     		ldr	r0, [r4, #24]
 305              	.LVL25:
 306 001a FFF7FEFF 		bl	strcmp
 307              	.LVL26:
 308 001e 0028     		cmp	r0, #0
 309 0020 F4D1     		bne	.L23
 310              	.LVL27:
 311              	.L16:
 312              		.loc 1 207 0
 313 0022 2000     		movs	r0, r4
 314              		@ sp needed
 315              	.LVL28:
 316              	.LVL29:
 317 0024 70BD     		pop	{r4, r5, r6, pc}
 318              		.cfi_endproc
 319              	.LFE140:
 320              		.size	chRegFindThreadByName, .-chRegFindThreadByName
 321 0026 C046     		.section	.text.chRegFindThreadByPointer,"ax",%progbits
 322              		.align	1
 323              		.p2align 4,,15
 324              		.global	chRegFindThreadByPointer
 325              		.syntax unified
 326              		.code	16
 327              		.thumb_func
 328              		.fpu softvfp
 329              		.type	chRegFindThreadByPointer, %function
 330              	chRegFindThreadByPointer:
 331              	.LFB141:
 332              		.loc 1 221 0
 333              		.cfi_startproc
 334              		@ args = 0, pretend = 0, frame = 0
 335              		@ frame_needed = 0, uses_anonymous_args = 0
 336              	.LVL30:
 337 0000 10B5     		push	{r4, lr}
 338              		.cfi_def_cfa_offset 8
 339              		.cfi_offset 4, -8
 340              		.cfi_offset 14, -4
 341              		.loc 1 221 0
 342 0002 0400     		movs	r4, r0
ARM GAS  /var/folders/t8/16hdwfmd2fg_d3q6dgx6bpmw0000gn/T//cc63w6BA.s 			page 7


 343              		.loc 1 225 0
 344 0004 FFF7FEFF 		bl	chRegFirstThread
 345              	.LVL31:
 346              		.loc 1 227 0
 347 0008 A042     		cmp	r0, r4
 348 000a 02D1     		bne	.L26
 349 000c 06E0     		b	.L25
 350              	.L27:
 351 000e 8442     		cmp	r4, r0
 352 0010 04D0     		beq	.L25
 353              	.L26:
 354              		.loc 1 230 0
 355 0012 FFF7FEFF 		bl	chRegNextThread
 356              	.LVL32:
 357              		.loc 1 231 0
 358 0016 0028     		cmp	r0, #0
 359 0018 F9D1     		bne	.L27
 360              		.loc 1 233 0
 361 001a 0024     		movs	r4, #0
 362              	.LVL33:
 363              	.L25:
 364              		.loc 1 234 0
 365 001c 2000     		movs	r0, r4
 366              	.LVL34:
 367              		@ sp needed
 368 001e 10BD     		pop	{r4, pc}
 369              		.cfi_endproc
 370              	.LFE141:
 371              		.size	chRegFindThreadByPointer, .-chRegFindThreadByPointer
 372              		.section	.text.chRegFindThreadByWorkingArea,"ax",%progbits
 373              		.align	1
 374              		.p2align 4,,15
 375              		.global	chRegFindThreadByWorkingArea
 376              		.syntax unified
 377              		.code	16
 378              		.thumb_func
 379              		.fpu softvfp
 380              		.type	chRegFindThreadByWorkingArea, %function
 381              	chRegFindThreadByWorkingArea:
 382              	.LFB142:
 383              		.loc 1 250 0
 384              		.cfi_startproc
 385              		@ args = 0, pretend = 0, frame = 0
 386              		@ frame_needed = 0, uses_anonymous_args = 0
 387              	.LVL35:
 388 0000 10B5     		push	{r4, lr}
 389              		.cfi_def_cfa_offset 8
 390              		.cfi_offset 4, -8
 391              		.cfi_offset 14, -4
 392              		.loc 1 250 0
 393 0002 0400     		movs	r4, r0
 394              		.loc 1 254 0
 395 0004 FFF7FEFF 		bl	chRegFirstThread
 396              	.LVL36:
 397 0008 03E0     		b	.L30
 398              	.LVL37:
 399              	.L32:
ARM GAS  /var/folders/t8/16hdwfmd2fg_d3q6dgx6bpmw0000gn/T//cc63w6BA.s 			page 8


 400              		.loc 1 259 0
 401 000a FFF7FEFF 		bl	chRegNextThread
 402              	.LVL38:
 403              		.loc 1 260 0
 404 000e 0028     		cmp	r0, #0
 405 0010 02D0     		beq	.L28
 406              	.L30:
 407              	.LVL39:
 408              		.loc 1 256 0
 409 0012 C369     		ldr	r3, [r0, #28]
 410 0014 9C42     		cmp	r4, r3
 411 0016 F8D1     		bne	.L32
 412              	.LVL40:
 413              	.L28:
 414              		.loc 1 263 0
 415              		@ sp needed
 416              	.LVL41:
 417 0018 10BD     		pop	{r4, pc}
 418              		.cfi_endproc
 419              	.LFE142:
 420              		.size	chRegFindThreadByWorkingArea, .-chRegFindThreadByWorkingArea
 421              		.global	ch_debug
 422 001a C046     		.section	.rodata.__func__.5444,"a",%progbits
 423              		.align	2
 424              		.set	.LANCHOR0,. + 0
 425              		.type	__func__.5444, %object
 426              		.size	__func__.5444, 12
 427              	__func__.5444:
 428 0000 63685379 		.ascii	"chSysUnlock\000"
 428      73556E6C 
 428      6F636B00 
 429              		.section	.rodata.__func__.6124,"a",%progbits
 430              		.align	2
 431              		.set	.LANCHOR1,. + 0
 432              		.type	__func__.6124, %object
 433              		.size	__func__.6124, 16
 434              	__func__.6124:
 435 0000 63685265 		.ascii	"chRegNextThread\000"
 435      674E6578 
 435      74546872 
 435      65616400 
 436              		.section	.rodata.ch_debug,"a",%progbits
 437              		.align	2
 438              		.type	ch_debug, %object
 439              		.size	ch_debug, 22
 440              	ch_debug:
 441 0000 6D       		.byte	109
 442 0001 61       		.byte	97
 443 0002 69       		.byte	105
 444 0003 6E       		.byte	110
 445 0004 00       		.byte	0
 446 0005 16       		.byte	22
 447 0006 0020     		.short	8192
 448 0008 04       		.byte	4
 449 0009 04       		.byte	4
 450 000a 44       		.byte	68
 451 000b 08       		.byte	8
ARM GAS  /var/folders/t8/16hdwfmd2fg_d3q6dgx6bpmw0000gn/T//cc63w6BA.s 			page 9


 452 000c 0C       		.byte	12
 453 000d 10       		.byte	16
 454 000e 14       		.byte	20
 455 000f 18       		.byte	24
 456 0010 1C       		.byte	28
 457 0011 20       		.byte	32
 458 0012 21       		.byte	33
 459 0013 22       		.byte	34
 460 0014 23       		.byte	35
 461 0015 00       		.byte	0
 462              		.text
 463              	.Letext0:
 464              		.file 4 "/usr/local/Caskroom/gcc-arm-embedded/7-2017-q4-major/gcc-arm-none-eabi-7-2017-q4-major/li
 465              		.file 5 "/usr/local/Caskroom/gcc-arm-embedded/7-2017-q4-major/gcc-arm-none-eabi-7-2017-q4-major/ar
 466              		.file 6 "/usr/local/Caskroom/gcc-arm-embedded/7-2017-q4-major/gcc-arm-none-eabi-7-2017-q4-major/ar
 467              		.file 7 "/usr/local/Caskroom/gcc-arm-embedded/7-2017-q4-major/gcc-arm-none-eabi-7-2017-q4-major/ar
 468              		.file 8 "/usr/local/Caskroom/gcc-arm-embedded/7-2017-q4-major/gcc-arm-none-eabi-7-2017-q4-major/ar
 469              		.file 9 "/usr/local/Caskroom/gcc-arm-embedded/7-2017-q4-major/gcc-arm-none-eabi-7-2017-q4-major/ar
 470              		.file 10 "../../tmk_core/tool/chibios/ChibiOS/os/common/ports/ARMCMx/compilers/GCC/chtypes.h"
 471              		.file 11 "../../tmk_core/tool/chibios/ChibiOS/os/rt/include/chsystypes.h"
 472              		.file 12 "../../tmk_core/tool/chibios/ChibiOS/os/rt/include/chschd.h"
 473              		.file 13 "../../tmk_core/tool/chibios/ChibiOS/os/common/ports/ARMCMx/chcore.h"
 474              		.file 14 "../../tmk_core/tool/chibios/ChibiOS/os/common/ports/ARMCMx/chcore_v6m.h"
 475              		.file 15 "../../tmk_core/tool/chibios/ChibiOS/os/rt/include/chsem.h"
 476              		.file 16 "../../tmk_core/tool/chibios/ChibiOS/os/rt/include/chmtx.h"
 477              		.file 17 "../../tmk_core/tool/chibios/ChibiOS/os/rt/include/chregistry.h"
 478              		.file 18 "../../tmk_core/tool/chibios/ChibiOS/os/rt/include/chthreads.h"
 479              		.file 19 "/usr/local/Caskroom/gcc-arm-embedded/7-2017-q4-major/gcc-arm-none-eabi-7-2017-q4-major/a
 480              		.file 20 "../../tmk_core/tool/chibios/ChibiOS/os/rt/include/chdebug.h"