ARM GAS  /var/folders/t8/16hdwfmd2fg_d3q6dgx6bpmw0000gn/T//cc63w6BA.s 			page 1


   1              		.cpu cortex-m0plus
   2              		.eabi_attribute 20, 1
   3              		.eabi_attribute 21, 1
   4              		.eabi_attribute 23, 3
   5              		.eabi_attribute 24, 1
   6              		.eabi_attribute 25, 1
   7              		.eabi_attribute 26, 1
   8              		.eabi_attribute 30, 2
   9              		.eabi_attribute 34, 0
  10              		.eabi_attribute 18, 4
  11              		.file	"chregistry.c"
  12              		.text
  13              	.Ltext0:
  14              		.cfi_sections	.debug_frame
  15              		.section	.text.chRegFirstThread,"ax",%progbits
  16              		.align	1
  17              		.p2align 4,,15
  18              		.global	chRegFirstThread
  19              		.syntax unified
  20              		.code	16
  21              		.thumb_func
  22              		.fpu softvfp
  23              		.type	chRegFirstThread, %function
  24              	chRegFirstThread:
  25              	.LFB138:
  26              		.file 1 "../../tmk_core/tool/chibios/ChibiOS/os/rt/src/chregistry.c"
  27              		.loc 1 134 0
  28              		.cfi_startproc
  29              		@ args = 0, pretend = 0, frame = 0
  30              		@ frame_needed = 0, uses_anonymous_args = 0
  31 0000 70B5     		push	{r4, r5, r6, lr}
  32              		.cfi_def_cfa_offset 16
  33              		.cfi_offset 4, -16
  34              		.cfi_offset 5, -12
  35              		.cfi_offset 6, -8
  36              		.cfi_offset 14, -4
  37              	.LBB38:
  38              	.LBB39:
  39              	.LBB40:
  40              	.LBB41:
  41              	.LBB42:
  42              		.file 2 "../../tmk_core/tool/chibios/ChibiOS/os/common/ext/CMSIS/include/cmsis_gcc.h"
  43              		.loc 2 71 0
  44              		.syntax divided
  45              	@ 71 "../../tmk_core/tool/chibios/ChibiOS/os/common/ext/CMSIS/include/cmsis_gcc.h" 1
  46 0002 72B6     		cpsid i
  47              	@ 0 "" 2
  48              		.thumb
  49              		.syntax unified
  50              	.LBE42:
  51              	.LBE41:
  52              	.LBE40:
  53              		.file 3 "../../tmk_core/tool/chibios/ChibiOS/os/rt/include/chsys.h"
  54              		.loc 3 378 0
  55 0004 FFF7FEFF 		bl	_dbg_check_lock
  56              	.LVL0:
  57              	.LBE39:
ARM GAS  /var/folders/t8/16hdwfmd2fg_d3q6dgx6bpmw0000gn/T//cc63w6BA.s 			page 2


  58              	.LBE38:
  59              		.loc 1 140 0
  60 0008 2222     		movs	r2, #34
  61              		.loc 1 138 0
  62 000a 0B4C     		ldr	r4, .L5
  63 000c 2569     		ldr	r5, [r4, #16]
  64              	.LVL1:
  65              		.loc 1 140 0
  66 000e AB5C     		ldrb	r3, [r5, r2]
  67 0010 0133     		adds	r3, r3, #1
  68 0012 AB54     		strb	r3, [r5, r2]
  69              	.LBB43:
  70              	.LBB44:
  71              		.loc 3 388 0
  72 0014 FFF7FEFF 		bl	_dbg_check_unlock
  73              	.LVL2:
  74              		.loc 3 395 0
  75 0018 2368     		ldr	r3, [r4]
  76 001a A342     		cmp	r3, r4
  77 001c 04D0     		beq	.L2
  78 001e A269     		ldr	r2, [r4, #24]
  79 0020 9B68     		ldr	r3, [r3, #8]
  80 0022 9268     		ldr	r2, [r2, #8]
  81 0024 9A42     		cmp	r2, r3
  82 0026 02D3     		bcc	.L4
  83              	.L2:
  84              	.LBB45:
  85              	.LBB46:
  86              	.LBB47:
  87              		.loc 2 60 0
  88              		.syntax divided
  89              	@ 60 "../../tmk_core/tool/chibios/ChibiOS/os/common/ext/CMSIS/include/cmsis_gcc.h" 1
  90 0028 62B6     		cpsie i
  91              	@ 0 "" 2
  92              		.thumb
  93              		.syntax unified
  94              	.LBE47:
  95              	.LBE46:
  96              	.LBE45:
  97              	.LBE44:
  98              	.LBE43:
  99              		.loc 1 145 0
 100 002a 2800     		movs	r0, r5
 101              		@ sp needed
 102              	.LVL3:
 103 002c 70BD     		pop	{r4, r5, r6, pc}
 104              	.LVL4:
 105              	.L4:
 106              	.LBB49:
 107              	.LBB48:
 108              		.loc 3 395 0
 109 002e 0348     		ldr	r0, .L5+4
 110 0030 FFF7FEFF 		bl	chSysHalt
 111              	.LVL5:
 112 0034 F8E7     		b	.L2
 113              	.L6:
 114 0036 C046     		.align	2
ARM GAS  /var/folders/t8/16hdwfmd2fg_d3q6dgx6bpmw0000gn/T//cc63w6BA.s 			page 3


 115              	.L5:
 116 0038 00000000 		.word	ch
 117 003c 00000000 		.word	.LANCHOR0
 118              	.LBE48:
 119              	.LBE49:
 120              		.cfi_endproc
 121              	.LFE138:
 122              		.size	chRegFirstThread, .-chRegFirstThread
 123              		.section	.text.chRegNextThread,"ax",%progbits
 124              		.align	1
 125              		.p2align 4,,15
 126              		.global	chRegNextThread
 127              		.syntax unified
 128              		.code	16
 129              		.thumb_func
 130              		.fpu softvfp
 131              		.type	chRegNextThread, %function
 132              	chRegNextThread:
 133              	.LFB139:
 134              		.loc 1 158 0
 135              		.cfi_startproc
 136              		@ args = 0, pretend = 0, frame = 0
 137              		@ frame_needed = 0, uses_anonymous_args = 0
 138              	.LVL6:
 139 0000 F8B5     		push	{r3, r4, r5, r6, r7, lr}
 140              		.cfi_def_cfa_offset 24
 141              		.cfi_offset 3, -24
 142              		.cfi_offset 4, -20
 143              		.cfi_offset 5, -16
 144              		.cfi_offset 6, -12
 145              		.cfi_offset 7, -8
 146              		.cfi_offset 14, -4
 147              		.loc 1 158 0
 148 0002 0600     		movs	r6, r0
 149              	.LBB60:
 150              	.LBB61:
 151              	.LBB62:
 152              	.LBB63:
 153              	.LBB64:
 154              		.loc 2 71 0
 155              		.syntax divided
 156              	@ 71 "../../tmk_core/tool/chibios/ChibiOS/os/common/ext/CMSIS/include/cmsis_gcc.h" 1
 157 0004 72B6     		cpsid i
 158              	@ 0 "" 2
 159              		.thumb
 160              		.syntax unified
 161              	.LBE64:
 162              	.LBE63:
 163              	.LBE62:
 164              		.loc 3 378 0
 165 0006 FFF7FEFF 		bl	_dbg_check_lock
 166              	.LVL7:
 167              	.LBE61:
 168              	.LBE60:
 169              		.loc 1 162 0
 170 000a 3469     		ldr	r4, [r6, #16]
 171              	.LVL8:
ARM GAS  /var/folders/t8/16hdwfmd2fg_d3q6dgx6bpmw0000gn/T//cc63w6BA.s 			page 4


 172              		.loc 1 164 0
 173 000c 124D     		ldr	r5, .L14
 174 000e AC42     		cmp	r4, r5
 175 0010 1FD0     		beq	.L11
 176              		.loc 1 170 0 discriminator 1
 177 0012 2227     		movs	r7, #34
 178 0014 E35D     		ldrb	r3, [r4, r7]
 179 0016 FF2B     		cmp	r3, #255
 180 0018 16D0     		beq	.L12
 181              	.L9:
 182              		.loc 1 171 0
 183 001a 2222     		movs	r2, #34
 184 001c 0133     		adds	r3, r3, #1
 185 001e A354     		strb	r3, [r4, r2]
 186              	.LVL9:
 187              	.L8:
 188              	.LBB65:
 189              	.LBB66:
 190              		.loc 3 388 0
 191 0020 FFF7FEFF 		bl	_dbg_check_unlock
 192              	.LVL10:
 193              		.loc 3 395 0
 194 0024 2B68     		ldr	r3, [r5]
 195 0026 AB42     		cmp	r3, r5
 196 0028 04D0     		beq	.L10
 197 002a AA69     		ldr	r2, [r5, #24]
 198 002c 9B68     		ldr	r3, [r3, #8]
 199 002e 9268     		ldr	r2, [r2, #8]
 200 0030 9A42     		cmp	r2, r3
 201 0032 05D3     		bcc	.L13
 202              	.L10:
 203              	.LBB67:
 204              	.LBB68:
 205              	.LBB69:
 206              		.loc 2 60 0
 207              		.syntax divided
 208              	@ 60 "../../tmk_core/tool/chibios/ChibiOS/os/common/ext/CMSIS/include/cmsis_gcc.h" 1
 209 0034 62B6     		cpsie i
 210              	@ 0 "" 2
 211              		.thumb
 212              		.syntax unified
 213              	.LBE69:
 214              	.LBE68:
 215              	.LBE67:
 216              	.LBE66:
 217              	.LBE65:
 218              		.loc 1 176 0
 219 0036 3000     		movs	r0, r6
 220 0038 FFF7FEFF 		bl	chThdRelease
 221              	.LVL11:
 222              		.loc 1 180 0
 223              		@ sp needed
 224 003c 2000     		movs	r0, r4
 225              	.LVL12:
 226              	.LVL13:
 227 003e F8BD     		pop	{r3, r4, r5, r6, r7, pc}
 228              	.LVL14:
ARM GAS  /var/folders/t8/16hdwfmd2fg_d3q6dgx6bpmw0000gn/T//cc63w6BA.s 			page 5


 229              	.L13:
 230              	.LBB71:
 231              	.LBB70:
 232              		.loc 3 395 0
 233 0040 0648     		ldr	r0, .L14+4
 234 0042 FFF7FEFF 		bl	chSysHalt
 235              	.LVL15:
 236 0046 F5E7     		b	.L10
 237              	.L12:
 238              	.LBE70:
 239              	.LBE71:
 240              		.loc 1 170 0 discriminator 2
 241 0048 0548     		ldr	r0, .L14+8
 242 004a FFF7FEFF 		bl	chSysHalt
 243              	.LVL16:
 244 004e E35D     		ldrb	r3, [r4, r7]
 245 0050 E3E7     		b	.L9
 246              	.L11:
 247              		.loc 1 166 0
 248 0052 0024     		movs	r4, #0
 249              	.LVL17:
 250 0054 E4E7     		b	.L8
 251              	.L15:
 252 0056 C046     		.align	2
 253              	.L14:
 254 0058 00000000 		.word	ch
 255 005c 00000000 		.word	.LANCHOR0
 256 0060 00000000 		.word	.LANCHOR1
 257              		.cfi_endproc
 258              	.LFE139:
 259              		.size	chRegNextThread, .-chRegNextThread
 260              		.section	.text.chRegFindThreadByName,"ax",%progbits
 261              		.align	1
 262              		.p2align 4,,15
 263              		.global	chRegFindThreadByName
 264              		.syntax unified
 265              		.code	16
 266              		.thumb_func
 267              		.fpu softvfp
 268              		.type	chRegFindThreadByName, %function
 269              	chRegFindThreadByName:
 270              	.LFB140:
 271              		.loc 1 194 0
 272              		.cfi_startproc
 273              		@ args = 0, pretend = 0, frame = 0
 274              		@ frame_needed = 0, uses_anonymous_args = 0
 275              	.LVL18:
 276 0000 70B5     		push	{r4, r5, r6, lr}
 277              		.cfi_def_cfa_offset 16
 278              		.cfi_offset 4, -16
 279              		.cfi_offset 5, -12
 280              		.cfi_offset 6, -8
 281              		.cfi_offset 14, -4
 282              		.loc 1 194 0
 283 0002 0500     		movs	r5, r0
 284              		.loc 1 198 0
 285 0004 FFF7FEFF 		bl	chRegFirstThread
ARM GAS  /var/folders/t8/16hdwfmd2fg_d3q6dgx6bpmw0000gn/T//cc63w6BA.s 			page 6


 286              	.LVL19:
 287 0008 0400     		movs	r4, r0
 288              	.LVL20:
 289 000a 04E0     		b	.L18
 290              	.LVL21:
 291              	.L23:
 292              		.loc 1 203 0
 293 000c 2000     		movs	r0, r4
 294 000e FFF7FEFF 		bl	chRegNextThread
 295              	.LVL22:
 296 0012 041E     		subs	r4, r0, #0
 297              	.LVL23:
 298              		.loc 1 204 0
 299 0014 05D0     		beq	.L16
 300              	.L18:
 301              	.LVL24:
 302              		.loc 1 200 0
 303 0016 2900     		movs	r1, r5
 304 0018 A069     		ldr	r0, [r4, #24]
 305              	.LVL25:
 306 001a FFF7FEFF 		bl	strcmp
 307              	.LVL26:
 308 001e 0028     		cmp	r0, #0
 309 0020 F4D1     		bne	.L23
 310              	.LVL27:
 311              	.L16:
 312              		.loc 1 207 0
 313 0022 2000     		movs	r0, r4
 314              		@ sp needed
 315              	.LVL28:
 316              	.LVL29:
 317 0024 70BD     		pop	{r4, r5, r6, pc}
 318              		.cfi_endproc
 319              	.LFE140:
 320              		.size	chRegFindThreadByName, .-chRegFindThreadByName
 321 0026 C046     		.section	.text.chRegFindThreadByPointer,"ax",%progbits
 322              		.align	1
 323              		.p2align 4,,15
 324              		.global	chRegFindThreadByPointer
 325              		.syntax unified
 326              		.code	16
 327              		.thumb_func
 328              		.fpu softvfp
 329              		.type	chRegFindThreadByPointer, %function
 330              	chRegFindThreadByPointer:
 331              	.LFB141:
 332              		.loc 1 221 0
 333              		.cfi_startproc
 334              		@ args = 0, pretend = 0, frame = 0
 335              		@ frame_needed = 0, uses_anonymous_args = 0
 336              	.LVL30:
 337 0000 10B5     		push	{r4, lr}
 338              		.cfi_def_cfa_offset 8
 339              		.cfi_offset 4, -8
 340              		.cfi_offset 14, -4
 341              		.loc 1 221 0
 342 0002 0400     		movs	r4, r0
ARM GAS  /var/folders/t8/16hdwfmd2fg_d3q6dgx6bpmw0000gn/T//cc63w6BA.s 			page 7


 343              		.loc 1 225 0
 344 0004 FFF7FEFF 		bl	chRegFirstThread
 345              	.LVL31:
 346              		.loc 1 227 0
 347 0008 A042     		cmp	r0, r4
 348 000a 02D1     		bne	.L26
 349 000c 06E0     		b	.L25
 350              	.L27:
 351 000e 8442     		cmp	r4, r0
 352 0010 04D0     		beq	.L25
 353              	.L26:
 354              		.loc 1 230 0
 355 0012 FFF7FEFF 		bl	chRegNextThread
 356              	.LVL32:
 357              		.loc 1 231 0
 358 0016 0028     		cmp	r0, #0
 359 0018 F9D1     		bne	.L27
 360              		.loc 1 233 0
 361 001a 0024     		movs	r4, #0
 362              	.LVL33:
 363              	.L25:
 364              		.loc 1 234 0
 365 001c 2000     		movs	r0, r4
 366              	.LVL34:
 367              		@ sp needed
 368 001e 10BD     		pop	{r4, pc}
 369              		.cfi_endproc
 370              	.LFE141:
 371              		.size	chRegFindThreadByPointer, .-chRegFindThreadByPointer
 372              		.section	.text.chRegFindThreadByWorkingArea,"ax",%progbits
 373              		.align	1
 374              		.p2align 4,,15
 375              		.global	chRegFindThreadByWorkingArea
 376              		.syntax unified
 377              		.code	16
 378              		.thumb_func
 379              		.fpu softvfp
 380              		.type	chRegFindThreadByWorkingArea, %function
 381              	chRegFindThreadByWorkingArea:
 382              	.LFB142:
 383              		.loc 1 250 0
 384              		.cfi_startproc
 385              		@ args = 0, pretend = 0, frame = 0
 386              		@ frame_needed = 0, uses_anonymous_args = 0
 387              	.LVL35:
 388 0000 10B5     		push	{r4, lr}
 389              		.cfi_def_cfa_offset 8
 390              		.cfi_offset 4, -8
 391              		.cfi_offset 14, -4
 392              		.loc 1 250 0
 393 0002 0400     		movs	r4, r0
 394              		.loc 1 254 0
 395 0004 FFF7FEFF 		bl	chRegFirstThread
 396              	.LVL36:
 397 0008 03E0     		b	.L30
 398              	.LVL37:
 399              	.L32:
ARM GAS  /var/folders/t8/16hdwfmd2fg_d3q6dgx6bpmw0000gn/T//cc63w6BA.s 			page 8


 400              		.loc 1 259 0
 401 000a FFF7FEFF 		bl	chRegNextThread
 402              	.LVL38:
 403              		.loc 1 260 0
 404 000e 0028     		cmp	r0, #0
 405 0010 02D0     		beq	.L28
 406              	.L30:
 407              	.LVL39:
 408              		.loc 1 256 0
 409 0012 C369     		ldr	r3, [r0, #28]
 410 0014 9C42     		cmp	r4, r3
 411 0016 F8D1     		bne	.L32
 412              	.LVL40:
 413              	.L28:
 414              		.loc 1 263 0
 415              		@ sp needed
 416              	.LVL41:
 417 0018 10BD     		pop	{r4, pc}
 418              		.cfi_endproc
 419              	.LFE142:
 420              		.size	chRegFindThreadByWorkingArea, .-chRegFindThreadByWorkingArea
 421              		.global	ch_debug
 422 001a C046     		.section	.rodata.__func__.5444,"a",%progbits
 423              		.align	2
 424              		.set	.LANCHOR0,. + 0
 425              		.type	__func__.5444, %object
 426              		.size	__func__.5444, 12
 427              	__func__.5444:
 428 0000 63685379 		.ascii	"chSysUnlock\000"
 428      73556E6C 
 428      6F636B00 
 429              		.section	.rodata.__func__.6124,"a",%progbits
 430              		.align	2
 431              		.set	.LANCHOR1,. + 0
 432              		.type	__func__.6124, %object
 433              		.size	__func__.6124, 16
 434              	__func__.6124:
 435 0000 63685265 		.ascii	"chRegNextThread\000"
 435      674E6578 
 435      74546872 
 435      65616400 
 436              		.section	.rodata.ch_debug,"a",%progbits
 437              		.align	2
 438              		.type	ch_debug, %object
 439              		.size	ch_debug, 22
 440              	ch_debug:
 441 0000 6D       		.byte	109
 442 0001 61       		.byte	97
 443 0002 69       		.byte	105
 444 0003 6E       		.byte	110
 445 0004 00       		.byte	0
 446 0005 16       		.byte	22
 447 0006 0020     		.short	8192
 448 0008 04       		.byte	4
 449 0009 04       		.byte	4
 450 000a 44       		.byte	68
 451 000b 08       		.byte	8
ARM GAS  /var/folders/t8/16hdwfmd2fg_d3q6dgx6bpmw0000gn/T//cc63w6BA.s 			page 9


 452 000c 0C       		.byte	12
 453 000d 10       		.byte	16
 454 000e 14       		.byte	20
 455 000f 18       		.byte	24
 456 0010 1C       		.byte	28
 457 0011 20       		.byte	32
 458 0012 21       		.byte	33
 459 0013 22       		.byte	34
 460 0014 23       		.byte	35
 461 0015 00       		.byte	0
 462              		.text
 463              	.Letext0:
 464              		.file 4 "/usr/local/Caskroom/gcc-arm-embedded/7-2017-q4-major/gcc-arm-none-eabi-7-2017-q4-major/li
 465              		.file 5 "/usr/local/Caskroom/gcc-arm-embedded/7-2017-q4-major/gcc-arm-none-eabi-7-2017-q4-major/ar
 466              		.file 6 "/usr/local/Caskroom/gcc-arm-embedded/7-2017-q4-major/gcc-arm-none-eabi-7-2017-q4-major/ar
 467              		.file 7 "/usr/local/Caskroom/gcc-arm-embedded/7-2017-q4-major/gcc-arm-none-eabi-7-2017-q4-major/ar
 468              		.file 8 "/usr/local/Caskroom/gcc-arm-embedded/7-2017-q4-major/gcc-arm-none-eabi-7-2017-q4-major/ar
 469              		.file 9 "/usr/local/Caskroom/gcc-arm-embedded/7-2017-q4-major/gcc-arm-none-eabi-7-2017-q4-major/ar
 470              		.file 10 "../../tmk_core/tool/chibios/ChibiOS/os/common/ports/ARMCMx/compilers/GCC/chtypes.h"
 471              		.file 11 "../../tmk_core/tool/chibios/ChibiOS/os/rt/include/chsystypes.h"
 472              		.file 12 "../../tmk_core/tool/chibios/ChibiOS/os/rt/include/chschd.h"
 473              		.file 13 "../../tmk_core/tool/chibios/ChibiOS/os/common/ports/ARMCMx/chcore.h"
 474              		.file 14 "../../tmk_core/tool/chibios/ChibiOS/os/common/ports/ARMCMx/chcore_v6m.h"
 475              		.file 15 "../../tmk_core/tool/chibios/ChibiOS/os/rt/include/chsem.h"
 476              		.file 16 "../../tmk_core/tool/chibios/ChibiOS/os/rt/include/chmtx.h"
 477              		.file 17 "../../tmk_core/tool/chibios/ChibiOS/os/rt/include/chregistry.h"
 478              		.file 18 "../../tmk_core/tool/chibios/ChibiOS/os/rt/include/chthreads.h"
 479              		.file 19 "/usr/local/Caskroom/gcc-arm-embedded/7-2017-q4-major/gcc-arm-none-eabi-7-2017-q4-major/a
 480              		.file 20 "../../tmk_core/tool/chibios/ChibiOS/os/rt/include/chdebug.h"
 481              		.section	.debug_info,"",%progbits
 482              	.Ldebug_info0:
 483 0000 F6120000 		.4byte	0x12f6
 484 0004 0400     		.2byte	0x4
 485 0006 00000000 		.4byte	.Ldebug_abbrev0
 486 000a 04       		.byte	0x4
 487 000b 01       		.uleb128 0x1
 488 000c 19000000 		.4byte	.LASF241
 489 0010 0C       		.byte	0xc
 490 0011 DA090000 		.4byte	.LASF242
 491 0015 81060000 		.4byte	.LASF243
 492 0019 30000000 		.4byte	.Ldebug_ranges0+0x30
 493 001d 00000000 		.4byte	0
 494 0021 00000000 		.4byte	.Ldebug_line0
 495 0025 02       		.uleb128 0x2
 496 0026 04       		.byte	0x4
 497 0027 05       		.byte	0x5
 498 0028 696E7400 		.ascii	"int\000"
 499 002c 03       		.uleb128 0x3
 500 002d 23040000 		.4byte	.LASF2
 501 0031 04       		.byte	0x4
 502 0032 D8       		.byte	0xd8
 503 0033 37000000 		.4byte	0x37
 504 0037 04       		.uleb128 0x4
 505 0038 04       		.byte	0x4
 506 0039 07       		.byte	0x7
 507 003a 9A010000 		.4byte	.LASF0
 508 003e 04       		.uleb128 0x4
ARM GAS  /var/folders/t8/16hdwfmd2fg_d3q6dgx6bpmw0000gn/T//cc63w6BA.s 			page 10


 509 003f 01       		.byte	0x1
 510 0040 06       		.byte	0x6
 511 0041 9A090000 		.4byte	.LASF1
 512 0045 03       		.uleb128 0x3
 513 0046 D3070000 		.4byte	.LASF3
 514 004a 05       		.byte	0x5
 515 004b 2B       		.byte	0x2b
 516 004c 50000000 		.4byte	0x50
 517 0050 04       		.uleb128 0x4
 518 0051 01       		.byte	0x1
 519 0052 08       		.byte	0x8
 520 0053 CD080000 		.4byte	.LASF4
 521 0057 04       		.uleb128 0x4
 522 0058 02       		.byte	0x2
 523 0059 05       		.byte	0x5
 524 005a 47070000 		.4byte	.LASF5
 525 005e 03       		.uleb128 0x3
 526 005f 91030000 		.4byte	.LASF6
 527 0063 05       		.byte	0x5
 528 0064 39       		.byte	0x39
 529 0065 69000000 		.4byte	0x69
 530 0069 04       		.uleb128 0x4
 531 006a 02       		.byte	0x2
 532 006b 07       		.byte	0x7
 533 006c B3090000 		.4byte	.LASF7
 534 0070 03       		.uleb128 0x3
 535 0071 DD010000 		.4byte	.LASF8
 536 0075 05       		.byte	0x5
 537 0076 4D       		.byte	0x4d
 538 0077 7B000000 		.4byte	0x7b
 539 007b 04       		.uleb128 0x4
 540 007c 04       		.byte	0x4
 541 007d 05       		.byte	0x5
 542 007e 51070000 		.4byte	.LASF9
 543 0082 03       		.uleb128 0x3
 544 0083 DB080000 		.4byte	.LASF10
 545 0087 05       		.byte	0x5
 546 0088 4F       		.byte	0x4f
 547 0089 8D000000 		.4byte	0x8d
 548 008d 04       		.uleb128 0x4
 549 008e 04       		.byte	0x4
 550 008f 07       		.byte	0x7
 551 0090 46080000 		.4byte	.LASF11
 552 0094 04       		.uleb128 0x4
 553 0095 08       		.byte	0x8
 554 0096 05       		.byte	0x5
 555 0097 DE050000 		.4byte	.LASF12
 556 009b 03       		.uleb128 0x3
 557 009c 8A040000 		.4byte	.LASF13
 558 00a0 05       		.byte	0x5
 559 00a1 69       		.byte	0x69
 560 00a2 A6000000 		.4byte	0xa6
 561 00a6 04       		.uleb128 0x4
 562 00a7 08       		.byte	0x8
 563 00a8 07       		.byte	0x7
 564 00a9 4F030000 		.4byte	.LASF14
 565 00ad 03       		.uleb128 0x3
ARM GAS  /var/folders/t8/16hdwfmd2fg_d3q6dgx6bpmw0000gn/T//cc63w6BA.s 			page 11


 566 00ae 0C070000 		.4byte	.LASF15
 567 00b2 06       		.byte	0x6
 568 00b3 22       		.byte	0x22
 569 00b4 B8000000 		.4byte	0xb8
 570 00b8 05       		.uleb128 0x5
 571 00b9 04       		.byte	0x4
 572 00ba BE000000 		.4byte	0xbe
 573 00be 06       		.uleb128 0x6
 574 00bf 9A080000 		.4byte	.LASF122
 575 00c3 03       		.uleb128 0x3
 576 00c4 390A0000 		.4byte	.LASF16
 577 00c8 07       		.byte	0x7
 578 00c9 2C       		.byte	0x2c
 579 00ca 7B000000 		.4byte	0x7b
 580 00ce 03       		.uleb128 0x3
 581 00cf 7B020000 		.4byte	.LASF17
 582 00d3 07       		.byte	0x7
 583 00d4 72       		.byte	0x72
 584 00d5 7B000000 		.4byte	0x7b
 585 00d9 07       		.uleb128 0x7
 586 00da 6C080000 		.4byte	.LASF18
 587 00de 04       		.byte	0x4
 588 00df 6501     		.2byte	0x165
 589 00e1 37000000 		.4byte	0x37
 590 00e5 08       		.uleb128 0x8
 591 00e6 04       		.byte	0x4
 592 00e7 07       		.byte	0x7
 593 00e8 A6       		.byte	0xa6
 594 00e9 04010000 		.4byte	0x104
 595 00ed 09       		.uleb128 0x9
 596 00ee 80050000 		.4byte	.LASF19
 597 00f2 07       		.byte	0x7
 598 00f3 A8       		.byte	0xa8
 599 00f4 D9000000 		.4byte	0xd9
 600 00f8 09       		.uleb128 0x9
 601 00f9 92070000 		.4byte	.LASF20
 602 00fd 07       		.byte	0x7
 603 00fe A9       		.byte	0xa9
 604 00ff 04010000 		.4byte	0x104
 605 0103 00       		.byte	0
 606 0104 0A       		.uleb128 0xa
 607 0105 50000000 		.4byte	0x50
 608 0109 14010000 		.4byte	0x114
 609 010d 0B       		.uleb128 0xb
 610 010e 37000000 		.4byte	0x37
 611 0112 03       		.byte	0x3
 612 0113 00       		.byte	0
 613 0114 0C       		.uleb128 0xc
 614 0115 08       		.byte	0x8
 615 0116 07       		.byte	0x7
 616 0117 A3       		.byte	0xa3
 617 0118 35010000 		.4byte	0x135
 618 011c 0D       		.uleb128 0xd
 619 011d EB020000 		.4byte	.LASF21
 620 0121 07       		.byte	0x7
 621 0122 A5       		.byte	0xa5
 622 0123 25000000 		.4byte	0x25
ARM GAS  /var/folders/t8/16hdwfmd2fg_d3q6dgx6bpmw0000gn/T//cc63w6BA.s 			page 12


 623 0127 00       		.byte	0
 624 0128 0D       		.uleb128 0xd
 625 0129 BC040000 		.4byte	.LASF22
 626 012d 07       		.byte	0x7
 627 012e AA       		.byte	0xaa
 628 012f E5000000 		.4byte	0xe5
 629 0133 04       		.byte	0x4
 630 0134 00       		.byte	0
 631 0135 03       		.uleb128 0x3
 632 0136 44060000 		.4byte	.LASF23
 633 013a 07       		.byte	0x7
 634 013b AB       		.byte	0xab
 635 013c 14010000 		.4byte	0x114
 636 0140 03       		.uleb128 0x3
 637 0141 70050000 		.4byte	.LASF24
 638 0145 07       		.byte	0x7
 639 0146 AF       		.byte	0xaf
 640 0147 AD000000 		.4byte	0xad
 641 014b 0E       		.uleb128 0xe
 642 014c 04       		.byte	0x4
 643 014d 05       		.uleb128 0x5
 644 014e 04       		.byte	0x4
 645 014f 53010000 		.4byte	0x153
 646 0153 04       		.uleb128 0x4
 647 0154 01       		.byte	0x1
 648 0155 08       		.byte	0x8
 649 0156 F6040000 		.4byte	.LASF25
 650 015a 0F       		.uleb128 0xf
 651 015b 53010000 		.4byte	0x153
 652 015f 03       		.uleb128 0x3
 653 0160 07060000 		.4byte	.LASF26
 654 0164 08       		.byte	0x8
 655 0165 16       		.byte	0x16
 656 0166 8D000000 		.4byte	0x8d
 657 016a 10       		.uleb128 0x10
 658 016b AA020000 		.4byte	.LASF31
 659 016f 18       		.byte	0x18
 660 0170 08       		.byte	0x8
 661 0171 2F       		.byte	0x2f
 662 0172 BD010000 		.4byte	0x1bd
 663 0176 0D       		.uleb128 0xd
 664 0177 6A040000 		.4byte	.LASF27
 665 017b 08       		.byte	0x8
 666 017c 31       		.byte	0x31
 667 017d BD010000 		.4byte	0x1bd
 668 0181 00       		.byte	0
 669 0182 11       		.uleb128 0x11
 670 0183 5F6B00   		.ascii	"_k\000"
 671 0186 08       		.byte	0x8
 672 0187 32       		.byte	0x32
 673 0188 25000000 		.4byte	0x25
 674 018c 04       		.byte	0x4
 675 018d 0D       		.uleb128 0xd
 676 018e EA070000 		.4byte	.LASF28
 677 0192 08       		.byte	0x8
 678 0193 32       		.byte	0x32
 679 0194 25000000 		.4byte	0x25
ARM GAS  /var/folders/t8/16hdwfmd2fg_d3q6dgx6bpmw0000gn/T//cc63w6BA.s 			page 13


 680 0198 08       		.byte	0x8
 681 0199 0D       		.uleb128 0xd
 682 019a 86070000 		.4byte	.LASF29
 683 019e 08       		.byte	0x8
 684 019f 32       		.byte	0x32
 685 01a0 25000000 		.4byte	0x25
 686 01a4 0C       		.byte	0xc
 687 01a5 0D       		.uleb128 0xd
 688 01a6 7B030000 		.4byte	.LASF30
 689 01aa 08       		.byte	0x8
 690 01ab 32       		.byte	0x32
 691 01ac 25000000 		.4byte	0x25
 692 01b0 10       		.byte	0x10
 693 01b1 11       		.uleb128 0x11
 694 01b2 5F7800   		.ascii	"_x\000"
 695 01b5 08       		.byte	0x8
 696 01b6 33       		.byte	0x33
 697 01b7 C3010000 		.4byte	0x1c3
 698 01bb 14       		.byte	0x14
 699 01bc 00       		.byte	0
 700 01bd 05       		.uleb128 0x5
 701 01be 04       		.byte	0x4
 702 01bf 6A010000 		.4byte	0x16a
 703 01c3 0A       		.uleb128 0xa
 704 01c4 5F010000 		.4byte	0x15f
 705 01c8 D3010000 		.4byte	0x1d3
 706 01cc 0B       		.uleb128 0xb
 707 01cd 37000000 		.4byte	0x37
 708 01d1 00       		.byte	0
 709 01d2 00       		.byte	0
 710 01d3 10       		.uleb128 0x10
 711 01d4 1C080000 		.4byte	.LASF32
 712 01d8 24       		.byte	0x24
 713 01d9 08       		.byte	0x8
 714 01da 37       		.byte	0x37
 715 01db 4C020000 		.4byte	0x24c
 716 01df 0D       		.uleb128 0xd
 717 01e0 48040000 		.4byte	.LASF33
 718 01e4 08       		.byte	0x8
 719 01e5 39       		.byte	0x39
 720 01e6 25000000 		.4byte	0x25
 721 01ea 00       		.byte	0
 722 01eb 0D       		.uleb128 0xd
 723 01ec F3020000 		.4byte	.LASF34
 724 01f0 08       		.byte	0x8
 725 01f1 3A       		.byte	0x3a
 726 01f2 25000000 		.4byte	0x25
 727 01f6 04       		.byte	0x4
 728 01f7 0D       		.uleb128 0xd
 729 01f8 CD020000 		.4byte	.LASF35
 730 01fc 08       		.byte	0x8
 731 01fd 3B       		.byte	0x3b
 732 01fe 25000000 		.4byte	0x25
 733 0202 08       		.byte	0x8
 734 0203 0D       		.uleb128 0xd
 735 0204 FB040000 		.4byte	.LASF36
 736 0208 08       		.byte	0x8
ARM GAS  /var/folders/t8/16hdwfmd2fg_d3q6dgx6bpmw0000gn/T//cc63w6BA.s 			page 14


 737 0209 3C       		.byte	0x3c
 738 020a 25000000 		.4byte	0x25
 739 020e 0C       		.byte	0xc
 740 020f 0D       		.uleb128 0xd
 741 0210 03070000 		.4byte	.LASF37
 742 0214 08       		.byte	0x8
 743 0215 3D       		.byte	0x3d
 744 0216 25000000 		.4byte	0x25
 745 021a 10       		.byte	0x10
 746 021b 0D       		.uleb128 0xd
 747 021c AC070000 		.4byte	.LASF38
 748 0220 08       		.byte	0x8
 749 0221 3E       		.byte	0x3e
 750 0222 25000000 		.4byte	0x25
 751 0226 14       		.byte	0x14
 752 0227 0D       		.uleb128 0xd
 753 0228 B2020000 		.4byte	.LASF39
 754 022c 08       		.byte	0x8
 755 022d 3F       		.byte	0x3f
 756 022e 25000000 		.4byte	0x25
 757 0232 18       		.byte	0x18
 758 0233 0D       		.uleb128 0xd
 759 0234 56040000 		.4byte	.LASF40
 760 0238 08       		.byte	0x8
 761 0239 40       		.byte	0x40
 762 023a 25000000 		.4byte	0x25
 763 023e 1C       		.byte	0x1c
 764 023f 0D       		.uleb128 0xd
 765 0240 5C060000 		.4byte	.LASF41
 766 0244 08       		.byte	0x8
 767 0245 41       		.byte	0x41
 768 0246 25000000 		.4byte	0x25
 769 024a 20       		.byte	0x20
 770 024b 00       		.byte	0
 771 024c 12       		.uleb128 0x12
 772 024d 22010000 		.4byte	.LASF42
 773 0251 0801     		.2byte	0x108
 774 0253 08       		.byte	0x8
 775 0254 4A       		.byte	0x4a
 776 0255 8C020000 		.4byte	0x28c
 777 0259 0D       		.uleb128 0xd
 778 025a 92090000 		.4byte	.LASF43
 779 025e 08       		.byte	0x8
 780 025f 4B       		.byte	0x4b
 781 0260 8C020000 		.4byte	0x28c
 782 0264 00       		.byte	0
 783 0265 0D       		.uleb128 0xd
 784 0266 81080000 		.4byte	.LASF44
 785 026a 08       		.byte	0x8
 786 026b 4C       		.byte	0x4c
 787 026c 8C020000 		.4byte	0x28c
 788 0270 80       		.byte	0x80
 789 0271 13       		.uleb128 0x13
 790 0272 1E0A0000 		.4byte	.LASF45
 791 0276 08       		.byte	0x8
 792 0277 4E       		.byte	0x4e
 793 0278 5F010000 		.4byte	0x15f
ARM GAS  /var/folders/t8/16hdwfmd2fg_d3q6dgx6bpmw0000gn/T//cc63w6BA.s 			page 15


 794 027c 0001     		.2byte	0x100
 795 027e 13       		.uleb128 0x13
 796 027f 740A0000 		.4byte	.LASF46
 797 0283 08       		.byte	0x8
 798 0284 51       		.byte	0x51
 799 0285 5F010000 		.4byte	0x15f
 800 0289 0401     		.2byte	0x104
 801 028b 00       		.byte	0
 802 028c 0A       		.uleb128 0xa
 803 028d 4B010000 		.4byte	0x14b
 804 0291 9C020000 		.4byte	0x29c
 805 0295 0B       		.uleb128 0xb
 806 0296 37000000 		.4byte	0x37
 807 029a 1F       		.byte	0x1f
 808 029b 00       		.byte	0
 809 029c 12       		.uleb128 0x12
 810 029d 36070000 		.4byte	.LASF47
 811 02a1 9001     		.2byte	0x190
 812 02a3 08       		.byte	0x8
 813 02a4 5D       		.byte	0x5d
 814 02a5 DA020000 		.4byte	0x2da
 815 02a9 0D       		.uleb128 0xd
 816 02aa 6A040000 		.4byte	.LASF27
 817 02ae 08       		.byte	0x8
 818 02af 5E       		.byte	0x5e
 819 02b0 DA020000 		.4byte	0x2da
 820 02b4 00       		.byte	0
 821 02b5 0D       		.uleb128 0xd
 822 02b6 65040000 		.4byte	.LASF48
 823 02ba 08       		.byte	0x8
 824 02bb 5F       		.byte	0x5f
 825 02bc 25000000 		.4byte	0x25
 826 02c0 04       		.byte	0x4
 827 02c1 0D       		.uleb128 0xd
 828 02c2 8D020000 		.4byte	.LASF49
 829 02c6 08       		.byte	0x8
 830 02c7 61       		.byte	0x61
 831 02c8 E0020000 		.4byte	0x2e0
 832 02cc 08       		.byte	0x8
 833 02cd 0D       		.uleb128 0xd
 834 02ce 22010000 		.4byte	.LASF42
 835 02d2 08       		.byte	0x8
 836 02d3 62       		.byte	0x62
 837 02d4 4C020000 		.4byte	0x24c
 838 02d8 88       		.byte	0x88
 839 02d9 00       		.byte	0
 840 02da 05       		.uleb128 0x5
 841 02db 04       		.byte	0x4
 842 02dc 9C020000 		.4byte	0x29c
 843 02e0 0A       		.uleb128 0xa
 844 02e1 F0020000 		.4byte	0x2f0
 845 02e5 F0020000 		.4byte	0x2f0
 846 02e9 0B       		.uleb128 0xb
 847 02ea 37000000 		.4byte	0x37
 848 02ee 1F       		.byte	0x1f
 849 02ef 00       		.byte	0
 850 02f0 05       		.uleb128 0x5
ARM GAS  /var/folders/t8/16hdwfmd2fg_d3q6dgx6bpmw0000gn/T//cc63w6BA.s 			page 16


 851 02f1 04       		.byte	0x4
 852 02f2 F6020000 		.4byte	0x2f6
 853 02f6 14       		.uleb128 0x14
 854 02f7 10       		.uleb128 0x10
 855 02f8 35090000 		.4byte	.LASF50
 856 02fc 08       		.byte	0x8
 857 02fd 08       		.byte	0x8
 858 02fe 75       		.byte	0x75
 859 02ff 1C030000 		.4byte	0x31c
 860 0303 0D       		.uleb128 0xd
 861 0304 F1050000 		.4byte	.LASF51
 862 0308 08       		.byte	0x8
 863 0309 76       		.byte	0x76
 864 030a 1C030000 		.4byte	0x31c
 865 030e 00       		.byte	0
 866 030f 0D       		.uleb128 0xd
 867 0310 270A0000 		.4byte	.LASF52
 868 0314 08       		.byte	0x8
 869 0315 77       		.byte	0x77
 870 0316 25000000 		.4byte	0x25
 871 031a 04       		.byte	0x4
 872 031b 00       		.byte	0
 873 031c 05       		.uleb128 0x5
 874 031d 04       		.byte	0x4
 875 031e 50000000 		.4byte	0x50
 876 0322 10       		.uleb128 0x10
 877 0323 73030000 		.4byte	.LASF53
 878 0327 68       		.byte	0x68
 879 0328 08       		.byte	0x8
 880 0329 B5       		.byte	0xb5
 881 032a 4C040000 		.4byte	0x44c
 882 032e 11       		.uleb128 0x11
 883 032f 5F7000   		.ascii	"_p\000"
 884 0332 08       		.byte	0x8
 885 0333 B6       		.byte	0xb6
 886 0334 1C030000 		.4byte	0x31c
 887 0338 00       		.byte	0
 888 0339 11       		.uleb128 0x11
 889 033a 5F7200   		.ascii	"_r\000"
 890 033d 08       		.byte	0x8
 891 033e B7       		.byte	0xb7
 892 033f 25000000 		.4byte	0x25
 893 0343 04       		.byte	0x4
 894 0344 11       		.uleb128 0x11
 895 0345 5F7700   		.ascii	"_w\000"
 896 0348 08       		.byte	0x8
 897 0349 B8       		.byte	0xb8
 898 034a 25000000 		.4byte	0x25
 899 034e 08       		.byte	0x8
 900 034f 0D       		.uleb128 0xd
 901 0350 D6010000 		.4byte	.LASF54
 902 0354 08       		.byte	0x8
 903 0355 B9       		.byte	0xb9
 904 0356 57000000 		.4byte	0x57
 905 035a 0C       		.byte	0xc
 906 035b 0D       		.uleb128 0xd
 907 035c 1E060000 		.4byte	.LASF55
ARM GAS  /var/folders/t8/16hdwfmd2fg_d3q6dgx6bpmw0000gn/T//cc63w6BA.s 			page 17


 908 0360 08       		.byte	0x8
 909 0361 BA       		.byte	0xba
 910 0362 57000000 		.4byte	0x57
 911 0366 0E       		.byte	0xe
 912 0367 11       		.uleb128 0x11
 913 0368 5F626600 		.ascii	"_bf\000"
 914 036c 08       		.byte	0x8
 915 036d BB       		.byte	0xbb
 916 036e F7020000 		.4byte	0x2f7
 917 0372 10       		.byte	0x10
 918 0373 0D       		.uleb128 0xd
 919 0374 CD010000 		.4byte	.LASF56
 920 0378 08       		.byte	0x8
 921 0379 BC       		.byte	0xbc
 922 037a 25000000 		.4byte	0x25
 923 037e 18       		.byte	0x18
 924 037f 0D       		.uleb128 0xd
 925 0380 92020000 		.4byte	.LASF57
 926 0384 08       		.byte	0x8
 927 0385 C3       		.byte	0xc3
 928 0386 4B010000 		.4byte	0x14b
 929 038a 1C       		.byte	0x1c
 930 038b 0D       		.uleb128 0xd
 931 038c 38020000 		.4byte	.LASF58
 932 0390 08       		.byte	0x8
 933 0391 C5       		.byte	0xc5
 934 0392 A7050000 		.4byte	0x5a7
 935 0396 20       		.byte	0x20
 936 0397 0D       		.uleb128 0xd
 937 0398 1D070000 		.4byte	.LASF59
 938 039c 08       		.byte	0x8
 939 039d C7       		.byte	0xc7
 940 039e D6050000 		.4byte	0x5d6
 941 03a2 24       		.byte	0x24
 942 03a3 0D       		.uleb128 0xd
 943 03a4 AF0A0000 		.4byte	.LASF60
 944 03a8 08       		.byte	0x8
 945 03a9 CA       		.byte	0xca
 946 03aa FA050000 		.4byte	0x5fa
 947 03ae 28       		.byte	0x28
 948 03af 0D       		.uleb128 0xd
 949 03b0 94050000 		.4byte	.LASF61
 950 03b4 08       		.byte	0x8
 951 03b5 CB       		.byte	0xcb
 952 03b6 14060000 		.4byte	0x614
 953 03ba 2C       		.byte	0x2c
 954 03bb 11       		.uleb128 0x11
 955 03bc 5F756200 		.ascii	"_ub\000"
 956 03c0 08       		.byte	0x8
 957 03c1 CE       		.byte	0xce
 958 03c2 F7020000 		.4byte	0x2f7
 959 03c6 30       		.byte	0x30
 960 03c7 11       		.uleb128 0x11
 961 03c8 5F757000 		.ascii	"_up\000"
 962 03cc 08       		.byte	0x8
 963 03cd CF       		.byte	0xcf
 964 03ce 1C030000 		.4byte	0x31c
ARM GAS  /var/folders/t8/16hdwfmd2fg_d3q6dgx6bpmw0000gn/T//cc63w6BA.s 			page 18


 965 03d2 38       		.byte	0x38
 966 03d3 11       		.uleb128 0x11
 967 03d4 5F757200 		.ascii	"_ur\000"
 968 03d8 08       		.byte	0x8
 969 03d9 D0       		.byte	0xd0
 970 03da 25000000 		.4byte	0x25
 971 03de 3C       		.byte	0x3c
 972 03df 0D       		.uleb128 0xd
 973 03e0 C60A0000 		.4byte	.LASF62
 974 03e4 08       		.byte	0x8
 975 03e5 D3       		.byte	0xd3
 976 03e6 1A060000 		.4byte	0x61a
 977 03ea 40       		.byte	0x40
 978 03eb 0D       		.uleb128 0xd
 979 03ec 400A0000 		.4byte	.LASF63
 980 03f0 08       		.byte	0x8
 981 03f1 D4       		.byte	0xd4
 982 03f2 2A060000 		.4byte	0x62a
 983 03f6 43       		.byte	0x43
 984 03f7 11       		.uleb128 0x11
 985 03f8 5F6C6200 		.ascii	"_lb\000"
 986 03fc 08       		.byte	0x8
 987 03fd D7       		.byte	0xd7
 988 03fe F7020000 		.4byte	0x2f7
 989 0402 44       		.byte	0x44
 990 0403 0D       		.uleb128 0xd
 991 0404 13080000 		.4byte	.LASF64
 992 0408 08       		.byte	0x8
 993 0409 DA       		.byte	0xda
 994 040a 25000000 		.4byte	0x25
 995 040e 4C       		.byte	0x4c
 996 040f 0D       		.uleb128 0xd
 997 0410 A9030000 		.4byte	.LASF65
 998 0414 08       		.byte	0x8
 999 0415 DB       		.byte	0xdb
 1000 0416 C3000000 		.4byte	0xc3
 1001 041a 50       		.byte	0x50
 1002 041b 0D       		.uleb128 0xd
 1003 041c 8C070000 		.4byte	.LASF66
 1004 0420 08       		.byte	0x8
 1005 0421 DE       		.byte	0xde
 1006 0422 6A040000 		.4byte	0x46a
 1007 0426 54       		.byte	0x54
 1008 0427 0D       		.uleb128 0xd
 1009 0428 2C080000 		.4byte	.LASF67
 1010 042c 08       		.byte	0x8
 1011 042d E2       		.byte	0xe2
 1012 042e 40010000 		.4byte	0x140
 1013 0432 58       		.byte	0x58
 1014 0433 0D       		.uleb128 0xd
 1015 0434 2F020000 		.4byte	.LASF68
 1016 0438 08       		.byte	0x8
 1017 0439 E4       		.byte	0xe4
 1018 043a 35010000 		.4byte	0x135
 1019 043e 5C       		.byte	0x5c
 1020 043f 0D       		.uleb128 0xd
 1021 0440 6C0A0000 		.4byte	.LASF69
ARM GAS  /var/folders/t8/16hdwfmd2fg_d3q6dgx6bpmw0000gn/T//cc63w6BA.s 			page 19


 1022 0444 08       		.byte	0x8
 1023 0445 E5       		.byte	0xe5
 1024 0446 25000000 		.4byte	0x25
 1025 044a 64       		.byte	0x64
 1026 044b 00       		.byte	0
 1027 044c 15       		.uleb128 0x15
 1028 044d 25000000 		.4byte	0x25
 1029 0451 6A040000 		.4byte	0x46a
 1030 0455 16       		.uleb128 0x16
 1031 0456 6A040000 		.4byte	0x46a
 1032 045a 16       		.uleb128 0x16
 1033 045b 4B010000 		.4byte	0x14b
 1034 045f 16       		.uleb128 0x16
 1035 0460 4D010000 		.4byte	0x14d
 1036 0464 16       		.uleb128 0x16
 1037 0465 25000000 		.4byte	0x25
 1038 0469 00       		.byte	0
 1039 046a 05       		.uleb128 0x5
 1040 046b 04       		.byte	0x4
 1041 046c 75040000 		.4byte	0x475
 1042 0470 0F       		.uleb128 0xf
 1043 0471 6A040000 		.4byte	0x46a
 1044 0475 17       		.uleb128 0x17
 1045 0476 AC090000 		.4byte	.LASF70
 1046 047a 2804     		.2byte	0x428
 1047 047c 08       		.byte	0x8
 1048 047d 3902     		.2byte	0x239
 1049 047f A7050000 		.4byte	0x5a7
 1050 0483 18       		.uleb128 0x18
 1051 0484 EC010000 		.4byte	.LASF71
 1052 0488 08       		.byte	0x8
 1053 0489 3B02     		.2byte	0x23b
 1054 048b 25000000 		.4byte	0x25
 1055 048f 00       		.byte	0
 1056 0490 18       		.uleb128 0x18
 1057 0491 C8050000 		.4byte	.LASF72
 1058 0495 08       		.byte	0x8
 1059 0496 4002     		.2byte	0x240
 1060 0498 81060000 		.4byte	0x681
 1061 049c 04       		.byte	0x4
 1062 049d 18       		.uleb128 0x18
 1063 049e 73020000 		.4byte	.LASF73
 1064 04a2 08       		.byte	0x8
 1065 04a3 4002     		.2byte	0x240
 1066 04a5 81060000 		.4byte	0x681
 1067 04a9 08       		.byte	0x8
 1068 04aa 18       		.uleb128 0x18
 1069 04ab B50A0000 		.4byte	.LASF74
 1070 04af 08       		.byte	0x8
 1071 04b0 4002     		.2byte	0x240
 1072 04b2 81060000 		.4byte	0x681
 1073 04b6 0C       		.byte	0xc
 1074 04b7 18       		.uleb128 0x18
 1075 04b8 60040000 		.4byte	.LASF75
 1076 04bc 08       		.byte	0x8
 1077 04bd 4202     		.2byte	0x242
 1078 04bf 25000000 		.4byte	0x25
ARM GAS  /var/folders/t8/16hdwfmd2fg_d3q6dgx6bpmw0000gn/T//cc63w6BA.s 			page 20


 1079 04c3 10       		.byte	0x10
 1080 04c4 18       		.uleb128 0x18
 1081 04c5 FB030000 		.4byte	.LASF76
 1082 04c9 08       		.byte	0x8
 1083 04ca 4302     		.2byte	0x243
 1084 04cc 63080000 		.4byte	0x863
 1085 04d0 14       		.byte	0x14
 1086 04d1 18       		.uleb128 0x18
 1087 04d2 530A0000 		.4byte	.LASF77
 1088 04d6 08       		.byte	0x8
 1089 04d7 4602     		.2byte	0x246
 1090 04d9 25000000 		.4byte	0x25
 1091 04dd 30       		.byte	0x30
 1092 04de 18       		.uleb128 0x18
 1093 04df 8A090000 		.4byte	.LASF78
 1094 04e3 08       		.byte	0x8
 1095 04e4 4702     		.2byte	0x247
 1096 04e6 78080000 		.4byte	0x878
 1097 04ea 34       		.byte	0x34
 1098 04eb 18       		.uleb128 0x18
 1099 04ec 9B050000 		.4byte	.LASF79
 1100 04f0 08       		.byte	0x8
 1101 04f1 4902     		.2byte	0x249
 1102 04f3 25000000 		.4byte	0x25
 1103 04f7 38       		.byte	0x38
 1104 04f8 18       		.uleb128 0x18
 1105 04f9 3A060000 		.4byte	.LASF80
 1106 04fd 08       		.byte	0x8
 1107 04fe 4B02     		.2byte	0x24b
 1108 0500 89080000 		.4byte	0x889
 1109 0504 3C       		.byte	0x3c
 1110 0505 18       		.uleb128 0x18
 1111 0506 BC020000 		.4byte	.LASF81
 1112 050a 08       		.byte	0x8
 1113 050b 4E02     		.2byte	0x24e
 1114 050d BD010000 		.4byte	0x1bd
 1115 0511 40       		.byte	0x40
 1116 0512 18       		.uleb128 0x18
 1117 0513 45030000 		.4byte	.LASF82
 1118 0517 08       		.byte	0x8
 1119 0518 4F02     		.2byte	0x24f
 1120 051a 25000000 		.4byte	0x25
 1121 051e 44       		.byte	0x44
 1122 051f 18       		.uleb128 0x18
 1123 0520 C4040000 		.4byte	.LASF83
 1124 0524 08       		.byte	0x8
 1125 0525 5002     		.2byte	0x250
 1126 0527 BD010000 		.4byte	0x1bd
 1127 052b 48       		.byte	0x48
 1128 052c 18       		.uleb128 0x18
 1129 052d F7050000 		.4byte	.LASF84
 1130 0531 08       		.byte	0x8
 1131 0532 5102     		.2byte	0x251
 1132 0534 8F080000 		.4byte	0x88f
 1133 0538 4C       		.byte	0x4c
 1134 0539 18       		.uleb128 0x18
 1135 053a E2070000 		.4byte	.LASF85
ARM GAS  /var/folders/t8/16hdwfmd2fg_d3q6dgx6bpmw0000gn/T//cc63w6BA.s 			page 21


 1136 053e 08       		.byte	0x8
 1137 053f 5402     		.2byte	0x254
 1138 0541 25000000 		.4byte	0x25
 1139 0545 50       		.byte	0x50
 1140 0546 18       		.uleb128 0x18
 1141 0547 C5080000 		.4byte	.LASF86
 1142 054b 08       		.byte	0x8
 1143 054c 5502     		.2byte	0x255
 1144 054e 4D010000 		.4byte	0x14d
 1145 0552 54       		.byte	0x54
 1146 0553 18       		.uleb128 0x18
 1147 0554 DD070000 		.4byte	.LASF87
 1148 0558 08       		.byte	0x8
 1149 0559 7802     		.2byte	0x278
 1150 055b 41080000 		.4byte	0x841
 1151 055f 58       		.byte	0x58
 1152 0560 19       		.uleb128 0x19
 1153 0561 36070000 		.4byte	.LASF47
 1154 0565 08       		.byte	0x8
 1155 0566 7C02     		.2byte	0x27c
 1156 0568 DA020000 		.4byte	0x2da
 1157 056c 4801     		.2byte	0x148
 1158 056e 19       		.uleb128 0x19
 1159 056f 1E050000 		.4byte	.LASF88
 1160 0573 08       		.byte	0x8
 1161 0574 7D02     		.2byte	0x27d
 1162 0576 9C020000 		.4byte	0x29c
 1163 057a 4C01     		.2byte	0x14c
 1164 057c 19       		.uleb128 0x19
 1165 057d 05050000 		.4byte	.LASF89
 1166 0581 08       		.byte	0x8
 1167 0582 8102     		.2byte	0x281
 1168 0584 A0080000 		.4byte	0x8a0
 1169 0588 DC02     		.2byte	0x2dc
 1170 058a 19       		.uleb128 0x19
 1171 058b 61090000 		.4byte	.LASF90
 1172 058f 08       		.byte	0x8
 1173 0590 8602     		.2byte	0x286
 1174 0592 46060000 		.4byte	0x646
 1175 0596 E002     		.2byte	0x2e0
 1176 0598 19       		.uleb128 0x19
 1177 0599 81070000 		.4byte	.LASF91
 1178 059d 08       		.byte	0x8
 1179 059e 8802     		.2byte	0x288
 1180 05a0 AC080000 		.4byte	0x8ac
 1181 05a4 EC02     		.2byte	0x2ec
 1182 05a6 00       		.byte	0
 1183 05a7 05       		.uleb128 0x5
 1184 05a8 04       		.byte	0x4
 1185 05a9 4C040000 		.4byte	0x44c
 1186 05ad 15       		.uleb128 0x15
 1187 05ae 25000000 		.4byte	0x25
 1188 05b2 CB050000 		.4byte	0x5cb
 1189 05b6 16       		.uleb128 0x16
 1190 05b7 6A040000 		.4byte	0x46a
 1191 05bb 16       		.uleb128 0x16
 1192 05bc 4B010000 		.4byte	0x14b
ARM GAS  /var/folders/t8/16hdwfmd2fg_d3q6dgx6bpmw0000gn/T//cc63w6BA.s 			page 22


 1193 05c0 16       		.uleb128 0x16
 1194 05c1 CB050000 		.4byte	0x5cb
 1195 05c5 16       		.uleb128 0x16
 1196 05c6 25000000 		.4byte	0x25
 1197 05ca 00       		.byte	0
 1198 05cb 05       		.uleb128 0x5
 1199 05cc 04       		.byte	0x4
 1200 05cd 5A010000 		.4byte	0x15a
 1201 05d1 1A       		.uleb128 0x1a
 1202 05d2 CB050000 		.4byte	0x5cb
 1203 05d6 05       		.uleb128 0x5
 1204 05d7 04       		.byte	0x4
 1205 05d8 AD050000 		.4byte	0x5ad
 1206 05dc 15       		.uleb128 0x15
 1207 05dd CE000000 		.4byte	0xce
 1208 05e1 FA050000 		.4byte	0x5fa
 1209 05e5 16       		.uleb128 0x16
 1210 05e6 6A040000 		.4byte	0x46a
 1211 05ea 16       		.uleb128 0x16
 1212 05eb 4B010000 		.4byte	0x14b
 1213 05ef 16       		.uleb128 0x16
 1214 05f0 CE000000 		.4byte	0xce
 1215 05f4 16       		.uleb128 0x16
 1216 05f5 25000000 		.4byte	0x25
 1217 05f9 00       		.byte	0
 1218 05fa 05       		.uleb128 0x5
 1219 05fb 04       		.byte	0x4
 1220 05fc DC050000 		.4byte	0x5dc
 1221 0600 15       		.uleb128 0x15
 1222 0601 25000000 		.4byte	0x25
 1223 0605 14060000 		.4byte	0x614
 1224 0609 16       		.uleb128 0x16
 1225 060a 6A040000 		.4byte	0x46a
 1226 060e 16       		.uleb128 0x16
 1227 060f 4B010000 		.4byte	0x14b
 1228 0613 00       		.byte	0
 1229 0614 05       		.uleb128 0x5
 1230 0615 04       		.byte	0x4
 1231 0616 00060000 		.4byte	0x600
 1232 061a 0A       		.uleb128 0xa
 1233 061b 50000000 		.4byte	0x50
 1234 061f 2A060000 		.4byte	0x62a
 1235 0623 0B       		.uleb128 0xb
 1236 0624 37000000 		.4byte	0x37
 1237 0628 02       		.byte	0x2
 1238 0629 00       		.byte	0
 1239 062a 0A       		.uleb128 0xa
 1240 062b 50000000 		.4byte	0x50
 1241 062f 3A060000 		.4byte	0x63a
 1242 0633 0B       		.uleb128 0xb
 1243 0634 37000000 		.4byte	0x37
 1244 0638 00       		.byte	0
 1245 0639 00       		.byte	0
 1246 063a 07       		.uleb128 0x7
 1247 063b A2030000 		.4byte	.LASF92
 1248 063f 08       		.byte	0x8
 1249 0640 1F01     		.2byte	0x11f
ARM GAS  /var/folders/t8/16hdwfmd2fg_d3q6dgx6bpmw0000gn/T//cc63w6BA.s 			page 23


 1250 0642 22030000 		.4byte	0x322
 1251 0646 1B       		.uleb128 0x1b
 1252 0647 46090000 		.4byte	.LASF93
 1253 064b 0C       		.byte	0xc
 1254 064c 08       		.byte	0x8
 1255 064d 2301     		.2byte	0x123
 1256 064f 7B060000 		.4byte	0x67b
 1257 0653 18       		.uleb128 0x18
 1258 0654 6A040000 		.4byte	.LASF27
 1259 0658 08       		.byte	0x8
 1260 0659 2501     		.2byte	0x125
 1261 065b 7B060000 		.4byte	0x67b
 1262 065f 00       		.byte	0
 1263 0660 18       		.uleb128 0x18
 1264 0661 65080000 		.4byte	.LASF94
 1265 0665 08       		.byte	0x8
 1266 0666 2601     		.2byte	0x126
 1267 0668 25000000 		.4byte	0x25
 1268 066c 04       		.byte	0x4
 1269 066d 18       		.uleb128 0x18
 1270 066e 86050000 		.4byte	.LASF95
 1271 0672 08       		.byte	0x8
 1272 0673 2701     		.2byte	0x127
 1273 0675 81060000 		.4byte	0x681
 1274 0679 08       		.byte	0x8
 1275 067a 00       		.byte	0
 1276 067b 05       		.uleb128 0x5
 1277 067c 04       		.byte	0x4
 1278 067d 46060000 		.4byte	0x646
 1279 0681 05       		.uleb128 0x5
 1280 0682 04       		.byte	0x4
 1281 0683 3A060000 		.4byte	0x63a
 1282 0687 1B       		.uleb128 0x1b
 1283 0688 20030000 		.4byte	.LASF96
 1284 068c 0E       		.byte	0xe
 1285 068d 08       		.byte	0x8
 1286 068e 3F01     		.2byte	0x13f
 1287 0690 BC060000 		.4byte	0x6bc
 1288 0694 18       		.uleb128 0x18
 1289 0695 8A0A0000 		.4byte	.LASF97
 1290 0699 08       		.byte	0x8
 1291 069a 4001     		.2byte	0x140
 1292 069c BC060000 		.4byte	0x6bc
 1293 06a0 00       		.byte	0
 1294 06a1 18       		.uleb128 0x18
 1295 06a2 01060000 		.4byte	.LASF98
 1296 06a6 08       		.byte	0x8
 1297 06a7 4101     		.2byte	0x141
 1298 06a9 BC060000 		.4byte	0x6bc
 1299 06ad 06       		.byte	0x6
 1300 06ae 18       		.uleb128 0x18
 1301 06af 1F090000 		.4byte	.LASF99
 1302 06b3 08       		.byte	0x8
 1303 06b4 4201     		.2byte	0x142
 1304 06b6 69000000 		.4byte	0x69
 1305 06ba 0C       		.byte	0xc
 1306 06bb 00       		.byte	0
ARM GAS  /var/folders/t8/16hdwfmd2fg_d3q6dgx6bpmw0000gn/T//cc63w6BA.s 			page 24


 1307 06bc 0A       		.uleb128 0xa
 1308 06bd 69000000 		.4byte	0x69
 1309 06c1 CC060000 		.4byte	0x6cc
 1310 06c5 0B       		.uleb128 0xb
 1311 06c6 37000000 		.4byte	0x37
 1312 06ca 02       		.byte	0x2
 1313 06cb 00       		.byte	0
 1314 06cc 1C       		.uleb128 0x1c
 1315 06cd D0       		.byte	0xd0
 1316 06ce 08       		.byte	0x8
 1317 06cf 5902     		.2byte	0x259
 1318 06d1 CD070000 		.4byte	0x7cd
 1319 06d5 18       		.uleb128 0x18
 1320 06d6 460A0000 		.4byte	.LASF100
 1321 06da 08       		.byte	0x8
 1322 06db 5B02     		.2byte	0x25b
 1323 06dd 37000000 		.4byte	0x37
 1324 06e1 00       		.byte	0
 1325 06e2 18       		.uleb128 0x18
 1326 06e3 6F090000 		.4byte	.LASF101
 1327 06e7 08       		.byte	0x8
 1328 06e8 5C02     		.2byte	0x25c
 1329 06ea 4D010000 		.4byte	0x14d
 1330 06ee 04       		.byte	0x4
 1331 06ef 18       		.uleb128 0x18
 1332 06f0 66030000 		.4byte	.LASF102
 1333 06f4 08       		.byte	0x8
 1334 06f5 5D02     		.2byte	0x25d
 1335 06f7 CD070000 		.4byte	0x7cd
 1336 06fb 08       		.byte	0x8
 1337 06fc 18       		.uleb128 0x18
 1338 06fd BC070000 		.4byte	.LASF103
 1339 0701 08       		.byte	0x8
 1340 0702 5E02     		.2byte	0x25e
 1341 0704 D3010000 		.4byte	0x1d3
 1342 0708 24       		.byte	0x24
 1343 0709 18       		.uleb128 0x18
 1344 070a CF050000 		.4byte	.LASF104
 1345 070e 08       		.byte	0x8
 1346 070f 5F02     		.2byte	0x25f
 1347 0711 25000000 		.4byte	0x25
 1348 0715 48       		.byte	0x48
 1349 0716 18       		.uleb128 0x18
 1350 0717 900A0000 		.4byte	.LASF105
 1351 071b 08       		.byte	0x8
 1352 071c 6002     		.2byte	0x260
 1353 071e A6000000 		.4byte	0xa6
 1354 0722 50       		.byte	0x50
 1355 0723 18       		.uleb128 0x18
 1356 0724 57010000 		.4byte	.LASF106
 1357 0728 08       		.byte	0x8
 1358 0729 6102     		.2byte	0x261
 1359 072b 87060000 		.4byte	0x687
 1360 072f 58       		.byte	0x58
 1361 0730 18       		.uleb128 0x18
 1362 0731 E9040000 		.4byte	.LASF107
 1363 0735 08       		.byte	0x8
ARM GAS  /var/folders/t8/16hdwfmd2fg_d3q6dgx6bpmw0000gn/T//cc63w6BA.s 			page 25


 1364 0736 6202     		.2byte	0x262
 1365 0738 35010000 		.4byte	0x135
 1366 073c 68       		.byte	0x68
 1367 073d 18       		.uleb128 0x18
 1368 073e 7C090000 		.4byte	.LASF108
 1369 0742 08       		.byte	0x8
 1370 0743 6302     		.2byte	0x263
 1371 0745 35010000 		.4byte	0x135
 1372 0749 70       		.byte	0x70
 1373 074a 18       		.uleb128 0x18
 1374 074b 30010000 		.4byte	.LASF109
 1375 074f 08       		.byte	0x8
 1376 0750 6402     		.2byte	0x264
 1377 0752 35010000 		.4byte	0x135
 1378 0756 78       		.byte	0x78
 1379 0757 18       		.uleb128 0x18
 1380 0758 F2070000 		.4byte	.LASF110
 1381 075c 08       		.byte	0x8
 1382 075d 6502     		.2byte	0x265
 1383 075f DD070000 		.4byte	0x7dd
 1384 0763 80       		.byte	0x80
 1385 0764 18       		.uleb128 0x18
 1386 0765 85010000 		.4byte	.LASF111
 1387 0769 08       		.byte	0x8
 1388 076a 6602     		.2byte	0x266
 1389 076c ED070000 		.4byte	0x7ed
 1390 0770 88       		.byte	0x88
 1391 0771 18       		.uleb128 0x18
 1392 0772 0C090000 		.4byte	.LASF112
 1393 0776 08       		.byte	0x8
 1394 0777 6702     		.2byte	0x267
 1395 0779 25000000 		.4byte	0x25
 1396 077d A0       		.byte	0xa0
 1397 077e 18       		.uleb128 0x18
 1398 077f 45020000 		.4byte	.LASF113
 1399 0783 08       		.byte	0x8
 1400 0784 6802     		.2byte	0x268
 1401 0786 35010000 		.4byte	0x135
 1402 078a A4       		.byte	0xa4
 1403 078b 18       		.uleb128 0x18
 1404 078c 0F050000 		.4byte	.LASF114
 1405 0790 08       		.byte	0x8
 1406 0791 6902     		.2byte	0x269
 1407 0793 35010000 		.4byte	0x135
 1408 0797 AC       		.byte	0xac
 1409 0798 18       		.uleb128 0x18
 1410 0799 79040000 		.4byte	.LASF115
 1411 079d 08       		.byte	0x8
 1412 079e 6A02     		.2byte	0x26a
 1413 07a0 35010000 		.4byte	0x135
 1414 07a4 B4       		.byte	0xb4
 1415 07a5 18       		.uleb128 0x18
 1416 07a6 0F060000 		.4byte	.LASF116
 1417 07aa 08       		.byte	0x8
 1418 07ab 6B02     		.2byte	0x26b
 1419 07ad 35010000 		.4byte	0x135
 1420 07b1 BC       		.byte	0xbc
ARM GAS  /var/folders/t8/16hdwfmd2fg_d3q6dgx6bpmw0000gn/T//cc63w6BA.s 			page 26


 1421 07b2 18       		.uleb128 0x18
 1422 07b3 D8040000 		.4byte	.LASF117
 1423 07b7 08       		.byte	0x8
 1424 07b8 6C02     		.2byte	0x26c
 1425 07ba 35010000 		.4byte	0x135
 1426 07be C4       		.byte	0xc4
 1427 07bf 18       		.uleb128 0x18
 1428 07c0 D5060000 		.4byte	.LASF118
 1429 07c4 08       		.byte	0x8
 1430 07c5 6D02     		.2byte	0x26d
 1431 07c7 25000000 		.4byte	0x25
 1432 07cb CC       		.byte	0xcc
 1433 07cc 00       		.byte	0
 1434 07cd 0A       		.uleb128 0xa
 1435 07ce 53010000 		.4byte	0x153
 1436 07d2 DD070000 		.4byte	0x7dd
 1437 07d6 0B       		.uleb128 0xb
 1438 07d7 37000000 		.4byte	0x37
 1439 07db 19       		.byte	0x19
 1440 07dc 00       		.byte	0
 1441 07dd 0A       		.uleb128 0xa
 1442 07de 53010000 		.4byte	0x153
 1443 07e2 ED070000 		.4byte	0x7ed
 1444 07e6 0B       		.uleb128 0xb
 1445 07e7 37000000 		.4byte	0x37
 1446 07eb 07       		.byte	0x7
 1447 07ec 00       		.byte	0
 1448 07ed 0A       		.uleb128 0xa
 1449 07ee 53010000 		.4byte	0x153
 1450 07f2 FD070000 		.4byte	0x7fd
 1451 07f6 0B       		.uleb128 0xb
 1452 07f7 37000000 		.4byte	0x37
 1453 07fb 17       		.byte	0x17
 1454 07fc 00       		.byte	0
 1455 07fd 1C       		.uleb128 0x1c
 1456 07fe F0       		.byte	0xf0
 1457 07ff 08       		.byte	0x8
 1458 0800 7202     		.2byte	0x272
 1459 0802 21080000 		.4byte	0x821
 1460 0806 18       		.uleb128 0x18
 1461 0807 19030000 		.4byte	.LASF119
 1462 080b 08       		.byte	0x8
 1463 080c 7502     		.2byte	0x275
 1464 080e 21080000 		.4byte	0x821
 1465 0812 00       		.byte	0
 1466 0813 18       		.uleb128 0x18
 1467 0814 BD0A0000 		.4byte	.LASF120
 1468 0818 08       		.byte	0x8
 1469 0819 7602     		.2byte	0x276
 1470 081b 31080000 		.4byte	0x831
 1471 081f 78       		.byte	0x78
 1472 0820 00       		.byte	0
 1473 0821 0A       		.uleb128 0xa
 1474 0822 1C030000 		.4byte	0x31c
 1475 0826 31080000 		.4byte	0x831
 1476 082a 0B       		.uleb128 0xb
 1477 082b 37000000 		.4byte	0x37
ARM GAS  /var/folders/t8/16hdwfmd2fg_d3q6dgx6bpmw0000gn/T//cc63w6BA.s 			page 27


 1478 082f 1D       		.byte	0x1d
 1479 0830 00       		.byte	0
 1480 0831 0A       		.uleb128 0xa
 1481 0832 37000000 		.4byte	0x37
 1482 0836 41080000 		.4byte	0x841
 1483 083a 0B       		.uleb128 0xb
 1484 083b 37000000 		.4byte	0x37
 1485 083f 1D       		.byte	0x1d
 1486 0840 00       		.byte	0
 1487 0841 1D       		.uleb128 0x1d
 1488 0842 F0       		.byte	0xf0
 1489 0843 08       		.byte	0x8
 1490 0844 5702     		.2byte	0x257
 1491 0846 63080000 		.4byte	0x863
 1492 084a 1E       		.uleb128 0x1e
 1493 084b AC090000 		.4byte	.LASF70
 1494 084f 08       		.byte	0x8
 1495 0850 6E02     		.2byte	0x26e
 1496 0852 CC060000 		.4byte	0x6cc
 1497 0856 1E       		.uleb128 0x1e
 1498 0857 CB070000 		.4byte	.LASF121
 1499 085b 08       		.byte	0x8
 1500 085c 7702     		.2byte	0x277
 1501 085e FD070000 		.4byte	0x7fd
 1502 0862 00       		.byte	0
 1503 0863 0A       		.uleb128 0xa
 1504 0864 53010000 		.4byte	0x153
 1505 0868 73080000 		.4byte	0x873
 1506 086c 0B       		.uleb128 0xb
 1507 086d 37000000 		.4byte	0x37
 1508 0871 18       		.byte	0x18
 1509 0872 00       		.byte	0
 1510 0873 06       		.uleb128 0x6
 1511 0874 9B0A0000 		.4byte	.LASF123
 1512 0878 05       		.uleb128 0x5
 1513 0879 04       		.byte	0x4
 1514 087a 73080000 		.4byte	0x873
 1515 087e 1F       		.uleb128 0x1f
 1516 087f 89080000 		.4byte	0x889
 1517 0883 16       		.uleb128 0x16
 1518 0884 6A040000 		.4byte	0x46a
 1519 0888 00       		.byte	0
 1520 0889 05       		.uleb128 0x5
 1521 088a 04       		.byte	0x4
 1522 088b 7E080000 		.4byte	0x87e
 1523 088f 05       		.uleb128 0x5
 1524 0890 04       		.byte	0x4
 1525 0891 BD010000 		.4byte	0x1bd
 1526 0895 1F       		.uleb128 0x1f
 1527 0896 A0080000 		.4byte	0x8a0
 1528 089a 16       		.uleb128 0x16
 1529 089b 25000000 		.4byte	0x25
 1530 089f 00       		.byte	0
 1531 08a0 05       		.uleb128 0x5
 1532 08a1 04       		.byte	0x4
 1533 08a2 A6080000 		.4byte	0x8a6
 1534 08a6 05       		.uleb128 0x5
ARM GAS  /var/folders/t8/16hdwfmd2fg_d3q6dgx6bpmw0000gn/T//cc63w6BA.s 			page 28


 1535 08a7 04       		.byte	0x4
 1536 08a8 95080000 		.4byte	0x895
 1537 08ac 0A       		.uleb128 0xa
 1538 08ad 3A060000 		.4byte	0x63a
 1539 08b1 BC080000 		.4byte	0x8bc
 1540 08b5 0B       		.uleb128 0xb
 1541 08b6 37000000 		.4byte	0x37
 1542 08ba 02       		.byte	0x2
 1543 08bb 00       		.byte	0
 1544 08bc 20       		.uleb128 0x20
 1545 08bd FC020000 		.4byte	.LASF124
 1546 08c1 08       		.byte	0x8
 1547 08c2 0703     		.2byte	0x307
 1548 08c4 6A040000 		.4byte	0x46a
 1549 08c8 20       		.uleb128 0x20
 1550 08c9 99070000 		.4byte	.LASF125
 1551 08cd 08       		.byte	0x8
 1552 08ce 0803     		.2byte	0x308
 1553 08d0 70040000 		.4byte	0x470
 1554 08d4 03       		.uleb128 0x3
 1555 08d5 8C050000 		.4byte	.LASF126
 1556 08d9 09       		.byte	0x9
 1557 08da 18       		.byte	0x18
 1558 08db 45000000 		.4byte	0x45
 1559 08df 03       		.uleb128 0x3
 1560 08e0 14070000 		.4byte	.LASF127
 1561 08e4 09       		.byte	0x9
 1562 08e5 24       		.byte	0x24
 1563 08e6 5E000000 		.4byte	0x5e
 1564 08ea 03       		.uleb128 0x3
 1565 08eb 79080000 		.4byte	.LASF128
 1566 08ef 09       		.byte	0x9
 1567 08f0 2C       		.byte	0x2c
 1568 08f1 70000000 		.4byte	0x70
 1569 08f5 03       		.uleb128 0x3
 1570 08f6 C4020000 		.4byte	.LASF129
 1571 08fa 09       		.byte	0x9
 1572 08fb 30       		.byte	0x30
 1573 08fc 82000000 		.4byte	0x82
 1574 0900 03       		.uleb128 0x3
 1575 0901 4C090000 		.4byte	.LASF130
 1576 0905 09       		.byte	0x9
 1577 0906 3C       		.byte	0x3c
 1578 0907 9B000000 		.4byte	0x9b
 1579 090b 03       		.uleb128 0x3
 1580 090c E8060000 		.4byte	.LASF131
 1581 0910 0A       		.byte	0xa
 1582 0911 3C       		.byte	0x3c
 1583 0912 D4080000 		.4byte	0x8d4
 1584 0916 03       		.uleb128 0x3
 1585 0917 67050000 		.4byte	.LASF132
 1586 091b 0A       		.byte	0xa
 1587 091c 3D       		.byte	0x3d
 1588 091d D4080000 		.4byte	0x8d4
 1589 0921 03       		.uleb128 0x3
 1590 0922 3E080000 		.4byte	.LASF133
 1591 0926 0A       		.byte	0xa
ARM GAS  /var/folders/t8/16hdwfmd2fg_d3q6dgx6bpmw0000gn/T//cc63w6BA.s 			page 29


 1592 0927 3E       		.byte	0x3e
 1593 0928 D4080000 		.4byte	0x8d4
 1594 092c 03       		.uleb128 0x3
 1595 092d 67060000 		.4byte	.LASF134
 1596 0931 0A       		.byte	0xa
 1597 0932 3F       		.byte	0x3f
 1598 0933 D4080000 		.4byte	0x8d4
 1599 0937 03       		.uleb128 0x3
 1600 0938 08030000 		.4byte	.LASF135
 1601 093c 0A       		.byte	0xa
 1602 093d 40       		.byte	0x40
 1603 093e F5080000 		.4byte	0x8f5
 1604 0942 03       		.uleb128 0x3
 1605 0943 34060000 		.4byte	.LASF136
 1606 0947 0A       		.byte	0xa
 1607 0948 41       		.byte	0x41
 1608 0949 EA080000 		.4byte	0x8ea
 1609 094d 03       		.uleb128 0x3
 1610 094e DF020000 		.4byte	.LASF137
 1611 0952 0A       		.byte	0xa
 1612 0953 43       		.byte	0x43
 1613 0954 F5080000 		.4byte	0x8f5
 1614 0958 03       		.uleb128 0x3
 1615 0959 9C030000 		.4byte	.LASF138
 1616 095d 0A       		.byte	0xa
 1617 095e 45       		.byte	0x45
 1618 095f EA080000 		.4byte	0x8ea
 1619 0963 03       		.uleb128 0x3
 1620 0964 44010000 		.4byte	.LASF139
 1621 0968 0B       		.byte	0xb
 1622 0969 33       		.byte	0x33
 1623 096a F5080000 		.4byte	0x8f5
 1624 096e 1A       		.uleb128 0x1a
 1625 096f 63090000 		.4byte	0x963
 1626 0973 03       		.uleb128 0x3
 1627 0974 06040000 		.4byte	.LASF140
 1628 0978 0B       		.byte	0xb
 1629 0979 3F       		.byte	0x3f
 1630 097a 7E090000 		.4byte	0x97e
 1631 097e 10       		.uleb128 0x10
 1632 097f A6050000 		.4byte	.LASF141
 1633 0983 44       		.byte	0x44
 1634 0984 0C       		.byte	0xc
 1635 0985 9A       		.byte	0x9a
 1636 0986 680A0000 		.4byte	0xa68
 1637 098a 0D       		.uleb128 0xd
 1638 098b 73080000 		.4byte	.LASF142
 1639 098f 0C       		.byte	0xc
 1640 0990 9B       		.byte	0x9b
 1641 0991 9D0A0000 		.4byte	0xa9d
 1642 0995 00       		.byte	0
 1643 0996 0D       		.uleb128 0xd
 1644 0997 D3040000 		.4byte	.LASF143
 1645 099b 0C       		.byte	0xc
 1646 099c 9C       		.byte	0x9c
 1647 099d 37090000 		.4byte	0x937
 1648 09a1 08       		.byte	0x8
ARM GAS  /var/folders/t8/16hdwfmd2fg_d3q6dgx6bpmw0000gn/T//cc63w6BA.s 			page 30


 1649 09a2 11       		.uleb128 0x11
 1650 09a3 63747800 		.ascii	"ctx\000"
 1651 09a7 0C       		.byte	0xc
 1652 09a8 9D       		.byte	0x9d
 1653 09a9 9A0C0000 		.4byte	0xc9a
 1654 09ad 0C       		.byte	0xc
 1655 09ae 0D       		.uleb128 0xd
 1656 09af A9080000 		.4byte	.LASF144
 1657 09b3 0C       		.byte	0xc
 1658 09b4 9F       		.byte	0x9f
 1659 09b5 730A0000 		.4byte	0xa73
 1660 09b9 10       		.byte	0x10
 1661 09ba 0D       		.uleb128 0xd
 1662 09bb 19090000 		.4byte	.LASF145
 1663 09bf 0C       		.byte	0xc
 1664 09c0 A0       		.byte	0xa0
 1665 09c1 730A0000 		.4byte	0xa73
 1666 09c5 14       		.byte	0x14
 1667 09c6 0D       		.uleb128 0xd
 1668 09c7 02010000 		.4byte	.LASF146
 1669 09cb 0C       		.byte	0xc
 1670 09cc A7       		.byte	0xa7
 1671 09cd CB050000 		.4byte	0x5cb
 1672 09d1 18       		.byte	0x18
 1673 09d2 0D       		.uleb128 0xd
 1674 09d3 3A050000 		.4byte	.LASF147
 1675 09d7 0C       		.byte	0xc
 1676 09d8 B0       		.byte	0xb0
 1677 09d9 F50D0000 		.4byte	0xdf5
 1678 09dd 1C       		.byte	0x1c
 1679 09de 0D       		.uleb128 0xd
 1680 09df 7B070000 		.4byte	.LASF148
 1681 09e3 0C       		.byte	0xc
 1682 09e4 B5       		.byte	0xb5
 1683 09e5 16090000 		.4byte	0x916
 1684 09e9 20       		.byte	0x20
 1685 09ea 0D       		.uleb128 0xd
 1686 09eb 3E010000 		.4byte	.LASF149
 1687 09ef 0C       		.byte	0xc
 1688 09f0 B9       		.byte	0xb9
 1689 09f1 0B090000 		.4byte	0x90b
 1690 09f5 21       		.byte	0x21
 1691 09f6 0D       		.uleb128 0xd
 1692 09f7 E7010000 		.4byte	.LASF150
 1693 09fb 0C       		.byte	0xc
 1694 09fc BE       		.byte	0xbe
 1695 09fd 21090000 		.4byte	0x921
 1696 0a01 22       		.byte	0x22
 1697 0a02 0D       		.uleb128 0xd
 1698 0a03 66070000 		.4byte	.LASF151
 1699 0a07 0C       		.byte	0xc
 1700 0a08 C4       		.byte	0xc4
 1701 0a09 2C090000 		.4byte	0x92c
 1702 0a0d 23       		.byte	0x23
 1703 0a0e 21       		.uleb128 0x21
 1704 0a0f 7500     		.ascii	"u\000"
 1705 0a11 0C       		.byte	0xc
ARM GAS  /var/folders/t8/16hdwfmd2fg_d3q6dgx6bpmw0000gn/T//cc63w6BA.s 			page 31


 1706 0a12 0F01     		.2byte	0x10f
 1707 0a14 2A0D0000 		.4byte	0xd2a
 1708 0a18 24       		.byte	0x24
 1709 0a19 18       		.uleb128 0x18
 1710 0a1a E6080000 		.4byte	.LASF152
 1711 0a1e 0C       		.byte	0xc
 1712 0a1f 1401     		.2byte	0x114
 1713 0a21 790A0000 		.4byte	0xa79
 1714 0a25 28       		.byte	0x28
 1715 0a26 18       		.uleb128 0x18
 1716 0a27 10030000 		.4byte	.LASF153
 1717 0a2b 0C       		.byte	0xc
 1718 0a2c 1A01     		.2byte	0x11a
 1719 0a2e 9D0A0000 		.4byte	0xa9d
 1720 0a32 2C       		.byte	0x2c
 1721 0a33 18       		.uleb128 0x18
 1722 0a34 91010000 		.4byte	.LASF154
 1723 0a38 0C       		.byte	0xc
 1724 0a39 2001     		.2byte	0x120
 1725 0a3b 4D090000 		.4byte	0x94d
 1726 0a3f 34       		.byte	0x34
 1727 0a40 18       		.uleb128 0x18
 1728 0a41 DC030000 		.4byte	.LASF155
 1729 0a45 0C       		.byte	0xc
 1730 0a46 2701     		.2byte	0x127
 1731 0a48 EF0D0000 		.4byte	0xdef
 1732 0a4c 38       		.byte	0x38
 1733 0a4d 18       		.uleb128 0x18
 1734 0a4e 4E010000 		.4byte	.LASF156
 1735 0a52 0C       		.byte	0xc
 1736 0a53 2B01     		.2byte	0x12b
 1737 0a55 37090000 		.4byte	0x937
 1738 0a59 3C       		.byte	0x3c
 1739 0a5a 18       		.uleb128 0x18
 1740 0a5b CC0A0000 		.4byte	.LASF157
 1741 0a5f 0C       		.byte	0xc
 1742 0a60 3201     		.2byte	0x132
 1743 0a62 4B010000 		.4byte	0x14b
 1744 0a66 40       		.byte	0x40
 1745 0a67 00       		.byte	0
 1746 0a68 03       		.uleb128 0x3
 1747 0a69 27050000 		.4byte	.LASF158
 1748 0a6d 0B       		.byte	0xb
 1749 0a6e 44       		.byte	0x44
 1750 0a6f 730A0000 		.4byte	0xa73
 1751 0a73 05       		.uleb128 0x5
 1752 0a74 04       		.byte	0x4
 1753 0a75 73090000 		.4byte	0x973
 1754 0a79 03       		.uleb128 0x3
 1755 0a7a B4010000 		.4byte	.LASF159
 1756 0a7e 0B       		.byte	0xb
 1757 0a7f 49       		.byte	0x49
 1758 0a80 840A0000 		.4byte	0xa84
 1759 0a84 10       		.uleb128 0x10
 1760 0a85 00000000 		.4byte	.LASF160
 1761 0a89 04       		.byte	0x4
 1762 0a8a 0C       		.byte	0xc
ARM GAS  /var/folders/t8/16hdwfmd2fg_d3q6dgx6bpmw0000gn/T//cc63w6BA.s 			page 32


 1763 0a8b 88       		.byte	0x88
 1764 0a8c 9D0A0000 		.4byte	0xa9d
 1765 0a90 0D       		.uleb128 0xd
 1766 0a91 A7010000 		.4byte	.LASF161
 1767 0a95 0C       		.byte	0xc
 1768 0a96 89       		.byte	0x89
 1769 0a97 730A0000 		.4byte	0xa73
 1770 0a9b 00       		.byte	0
 1771 0a9c 00       		.byte	0
 1772 0a9d 03       		.uleb128 0x3
 1773 0a9e CC030000 		.4byte	.LASF162
 1774 0aa2 0B       		.byte	0xb
 1775 0aa3 50       		.byte	0x50
 1776 0aa4 A80A0000 		.4byte	0xaa8
 1777 0aa8 10       		.uleb128 0x10
 1778 0aa9 58020000 		.4byte	.LASF163
 1779 0aad 08       		.byte	0x8
 1780 0aae 0C       		.byte	0xc
 1781 0aaf 8F       		.byte	0x8f
 1782 0ab0 CD0A0000 		.4byte	0xacd
 1783 0ab4 0D       		.uleb128 0xd
 1784 0ab5 A7010000 		.4byte	.LASF161
 1785 0ab9 0C       		.byte	0xc
 1786 0aba 90       		.byte	0x90
 1787 0abb 730A0000 		.4byte	0xa73
 1788 0abf 00       		.byte	0
 1789 0ac0 0D       		.uleb128 0xd
 1790 0ac1 53020000 		.4byte	.LASF164
 1791 0ac5 0C       		.byte	0xc
 1792 0ac6 91       		.byte	0x91
 1793 0ac7 730A0000 		.4byte	0xa73
 1794 0acb 04       		.byte	0x4
 1795 0acc 00       		.byte	0
 1796 0acd 03       		.uleb128 0x3
 1797 0ace 58080000 		.4byte	.LASF165
 1798 0ad2 0B       		.byte	0xb
 1799 0ad3 57       		.byte	0x57
 1800 0ad4 D80A0000 		.4byte	0xad8
 1801 0ad8 1B       		.uleb128 0x1b
 1802 0ad9 21020000 		.4byte	.LASF166
 1803 0add 1C       		.byte	0x1c
 1804 0ade 0C       		.byte	0xc
 1805 0adf 6A01     		.2byte	0x16a
 1806 0ae1 340B0000 		.4byte	0xb34
 1807 0ae5 18       		.uleb128 0x18
 1808 0ae6 73080000 		.4byte	.LASF142
 1809 0aea 0C       		.byte	0xc
 1810 0aeb 6B01     		.2byte	0x16b
 1811 0aed 9D0A0000 		.4byte	0xa9d
 1812 0af1 00       		.byte	0
 1813 0af2 18       		.uleb128 0x18
 1814 0af3 D3040000 		.4byte	.LASF143
 1815 0af7 0C       		.byte	0xc
 1816 0af8 6C01     		.2byte	0x16c
 1817 0afa 37090000 		.4byte	0x937
 1818 0afe 08       		.byte	0x8
 1819 0aff 21       		.uleb128 0x21
ARM GAS  /var/folders/t8/16hdwfmd2fg_d3q6dgx6bpmw0000gn/T//cc63w6BA.s 			page 33


 1820 0b00 63747800 		.ascii	"ctx\000"
 1821 0b04 0C       		.byte	0xc
 1822 0b05 6E01     		.2byte	0x16e
 1823 0b07 9A0C0000 		.4byte	0xc9a
 1824 0b0b 0C       		.byte	0xc
 1825 0b0c 18       		.uleb128 0x18
 1826 0b0d A9080000 		.4byte	.LASF144
 1827 0b11 0C       		.byte	0xc
 1828 0b12 7101     		.2byte	0x171
 1829 0b14 730A0000 		.4byte	0xa73
 1830 0b18 10       		.byte	0x10
 1831 0b19 18       		.uleb128 0x18
 1832 0b1a 19090000 		.4byte	.LASF145
 1833 0b1e 0C       		.byte	0xc
 1834 0b1f 7201     		.2byte	0x172
 1835 0b21 730A0000 		.4byte	0xa73
 1836 0b25 14       		.byte	0x14
 1837 0b26 18       		.uleb128 0x18
 1838 0b27 04090000 		.4byte	.LASF167
 1839 0b2b 0C       		.byte	0xc
 1840 0b2c 7501     		.2byte	0x175
 1841 0b2e 730A0000 		.4byte	0xa73
 1842 0b32 18       		.byte	0x18
 1843 0b33 00       		.byte	0
 1844 0b34 03       		.uleb128 0x3
 1845 0b35 31040000 		.4byte	.LASF168
 1846 0b39 0B       		.byte	0xb
 1847 0b3a 5C       		.byte	0x5c
 1848 0b3b 3F0B0000 		.4byte	0xb3f
 1849 0b3f 05       		.uleb128 0x5
 1850 0b40 04       		.byte	0x4
 1851 0b41 450B0000 		.4byte	0xb45
 1852 0b45 1F       		.uleb128 0x1f
 1853 0b46 500B0000 		.4byte	0xb50
 1854 0b4a 16       		.uleb128 0x16
 1855 0b4b 4B010000 		.4byte	0x14b
 1856 0b4f 00       		.byte	0
 1857 0b50 03       		.uleb128 0x3
 1858 0b51 24060000 		.4byte	.LASF169
 1859 0b55 0B       		.byte	0xb
 1860 0b56 61       		.byte	0x61
 1861 0b57 5B0B0000 		.4byte	0xb5b
 1862 0b5b 1B       		.uleb128 0x1b
 1863 0b5c 80030000 		.4byte	.LASF170
 1864 0b60 14       		.byte	0x14
 1865 0b61 0C       		.byte	0xc
 1866 0b62 4501     		.2byte	0x145
 1867 0b64 AA0B0000 		.4byte	0xbaa
 1868 0b68 18       		.uleb128 0x18
 1869 0b69 A7010000 		.4byte	.LASF161
 1870 0b6d 0C       		.byte	0xc
 1871 0b6e 4601     		.2byte	0x146
 1872 0b70 FB0D0000 		.4byte	0xdfb
 1873 0b74 00       		.byte	0
 1874 0b75 18       		.uleb128 0x18
 1875 0b76 53020000 		.4byte	.LASF164
 1876 0b7a 0C       		.byte	0xc
ARM GAS  /var/folders/t8/16hdwfmd2fg_d3q6dgx6bpmw0000gn/T//cc63w6BA.s 			page 34


 1877 0b7b 4701     		.2byte	0x147
 1878 0b7d FB0D0000 		.4byte	0xdfb
 1879 0b81 04       		.byte	0x4
 1880 0b82 18       		.uleb128 0x18
 1881 0b83 A6090000 		.4byte	.LASF171
 1882 0b87 0C       		.byte	0xc
 1883 0b88 4801     		.2byte	0x148
 1884 0b8a 63090000 		.4byte	0x963
 1885 0b8e 08       		.byte	0x8
 1886 0b8f 18       		.uleb128 0x18
 1887 0b90 51040000 		.4byte	.LASF172
 1888 0b94 0C       		.byte	0xc
 1889 0b95 4901     		.2byte	0x149
 1890 0b97 340B0000 		.4byte	0xb34
 1891 0b9b 0C       		.byte	0xc
 1892 0b9c 21       		.uleb128 0x21
 1893 0b9d 70617200 		.ascii	"par\000"
 1894 0ba1 0C       		.byte	0xc
 1895 0ba2 4B01     		.2byte	0x14b
 1896 0ba4 4B010000 		.4byte	0x14b
 1897 0ba8 10       		.byte	0x10
 1898 0ba9 00       		.byte	0
 1899 0baa 03       		.uleb128 0x3
 1900 0bab EE080000 		.4byte	.LASF173
 1901 0baf 0B       		.byte	0xb
 1902 0bb0 66       		.byte	0x66
 1903 0bb1 B50B0000 		.4byte	0xbb5
 1904 0bb5 1B       		.uleb128 0x1b
 1905 0bb6 E4030000 		.4byte	.LASF174
 1906 0bba 10       		.byte	0x10
 1907 0bbb 0C       		.byte	0xc
 1908 0bbc 5501     		.2byte	0x155
 1909 0bbe F70B0000 		.4byte	0xbf7
 1910 0bc2 18       		.uleb128 0x18
 1911 0bc3 A7010000 		.4byte	.LASF161
 1912 0bc7 0C       		.byte	0xc
 1913 0bc8 5601     		.2byte	0x156
 1914 0bca FB0D0000 		.4byte	0xdfb
 1915 0bce 00       		.byte	0
 1916 0bcf 18       		.uleb128 0x18
 1917 0bd0 53020000 		.4byte	.LASF164
 1918 0bd4 0C       		.byte	0xc
 1919 0bd5 5801     		.2byte	0x158
 1920 0bd7 FB0D0000 		.4byte	0xdfb
 1921 0bdb 04       		.byte	0x4
 1922 0bdc 18       		.uleb128 0x18
 1923 0bdd A6090000 		.4byte	.LASF171
 1924 0be1 0C       		.byte	0xc
 1925 0be2 5A01     		.2byte	0x15a
 1926 0be4 63090000 		.4byte	0x963
 1927 0be8 08       		.byte	0x8
 1928 0be9 18       		.uleb128 0x18
 1929 0bea F0060000 		.4byte	.LASF175
 1930 0bee 0C       		.byte	0xc
 1931 0bef 5C01     		.2byte	0x15c
 1932 0bf1 6E090000 		.4byte	0x96e
 1933 0bf5 0C       		.byte	0xc
ARM GAS  /var/folders/t8/16hdwfmd2fg_d3q6dgx6bpmw0000gn/T//cc63w6BA.s 			page 35


 1934 0bf6 00       		.byte	0
 1935 0bf7 03       		.uleb128 0x3
 1936 0bf8 B9050000 		.4byte	.LASF176
 1937 0bfc 0B       		.byte	0xb
 1938 0bfd 6B       		.byte	0x6b
 1939 0bfe 020C0000 		.4byte	0xc02
 1940 0c02 1B       		.uleb128 0x1b
 1941 0c03 9A020000 		.4byte	.LASF177
 1942 0c07 0C       		.byte	0xc
 1943 0c08 0C       		.byte	0xc
 1944 0c09 7C01     		.2byte	0x17c
 1945 0c0b 370C0000 		.4byte	0xc37
 1946 0c0f 18       		.uleb128 0x18
 1947 0c10 DE060000 		.4byte	.LASF178
 1948 0c14 0C       		.byte	0xc
 1949 0c15 8401     		.2byte	0x184
 1950 0c17 D1050000 		.4byte	0x5d1
 1951 0c1b 00       		.byte	0
 1952 0c1c 18       		.uleb128 0x18
 1953 0c1d BE030000 		.4byte	.LASF179
 1954 0c21 0C       		.byte	0xc
 1955 0c22 8901     		.2byte	0x189
 1956 0c24 58090000 		.4byte	0x958
 1957 0c28 04       		.byte	0x4
 1958 0c29 18       		.uleb128 0x18
 1959 0c2a 2D070000 		.4byte	.LASF180
 1960 0c2e 0C       		.byte	0xc
 1961 0c2f 8D01     		.2byte	0x18d
 1962 0c31 58090000 		.4byte	0x958
 1963 0c35 08       		.byte	0x8
 1964 0c36 00       		.byte	0
 1965 0c37 03       		.uleb128 0x3
 1966 0c38 55090000 		.4byte	.LASF181
 1967 0c3c 0B       		.byte	0xb
 1968 0c3d 70       		.byte	0x70
 1969 0c3e 420C0000 		.4byte	0xc42
 1970 0c42 1B       		.uleb128 0x1b
 1971 0c43 C3010000 		.4byte	.LASF182
 1972 0c47 7C       		.byte	0x7c
 1973 0c48 0C       		.byte	0xc
 1974 0c49 9C01     		.2byte	0x19c
 1975 0c4b 840C0000 		.4byte	0xc84
 1976 0c4f 18       		.uleb128 0x18
 1977 0c50 B6070000 		.4byte	.LASF183
 1978 0c54 0C       		.byte	0xc
 1979 0c55 A001     		.2byte	0x1a0
 1980 0c57 CD0A0000 		.4byte	0xacd
 1981 0c5b 00       		.byte	0
 1982 0c5c 18       		.uleb128 0x18
 1983 0c5d 0D020000 		.4byte	.LASF184
 1984 0c61 0C       		.byte	0xc
 1985 0c62 A401     		.2byte	0x1a4
 1986 0c64 AA0B0000 		.4byte	0xbaa
 1987 0c68 1C       		.byte	0x1c
 1988 0c69 21       		.uleb128 0x21
 1989 0c6a 64626700 		.ascii	"dbg\000"
 1990 0c6e 0C       		.byte	0xc
ARM GAS  /var/folders/t8/16hdwfmd2fg_d3q6dgx6bpmw0000gn/T//cc63w6BA.s 			page 36


 1991 0c6f A801     		.2byte	0x1a8
 1992 0c71 F70B0000 		.4byte	0xbf7
 1993 0c75 2C       		.byte	0x2c
 1994 0c76 18       		.uleb128 0x18
 1995 0c77 F8060000 		.4byte	.LASF185
 1996 0c7b 0C       		.byte	0xc
 1997 0c7c AC01     		.2byte	0x1ac
 1998 0c7e 73090000 		.4byte	0x973
 1999 0c82 38       		.byte	0x38
 2000 0c83 00       		.byte	0
 2001 0c84 03       		.uleb128 0x3
 2002 0c85 19010000 		.4byte	.LASF186
 2003 0c89 0D       		.byte	0xd
 2004 0c8a 65       		.byte	0x65
 2005 0c8b 4B010000 		.4byte	0x14b
 2006 0c8f 03       		.uleb128 0x3
 2007 0c90 C6090000 		.4byte	.LASF187
 2008 0c94 0D       		.byte	0xd
 2009 0c95 6D       		.byte	0x6d
 2010 0c96 00090000 		.4byte	0x900
 2011 0c9a 10       		.uleb128 0x10
 2012 0c9b 14020000 		.4byte	.LASF188
 2013 0c9f 04       		.byte	0x4
 2014 0ca0 0D       		.byte	0xd
 2015 0ca1 89       		.byte	0x89
 2016 0ca2 B20C0000 		.4byte	0xcb2
 2017 0ca6 11       		.uleb128 0x11
 2018 0ca7 737000   		.ascii	"sp\000"
 2019 0caa 0D       		.byte	0xd
 2020 0cab 8A       		.byte	0x8a
 2021 0cac 240D0000 		.4byte	0xd24
 2022 0cb0 00       		.byte	0
 2023 0cb1 00       		.byte	0
 2024 0cb2 10       		.uleb128 0x10
 2025 0cb3 5A070000 		.4byte	.LASF189
 2026 0cb7 24       		.byte	0x24
 2027 0cb8 0E       		.byte	0xe
 2028 0cb9 C3       		.byte	0xc3
 2029 0cba 240D0000 		.4byte	0xd24
 2030 0cbe 11       		.uleb128 0x11
 2031 0cbf 723800   		.ascii	"r8\000"
 2032 0cc2 0E       		.byte	0xe
 2033 0cc3 C4       		.byte	0xc4
 2034 0cc4 840C0000 		.4byte	0xc84
 2035 0cc8 00       		.byte	0
 2036 0cc9 11       		.uleb128 0x11
 2037 0cca 723900   		.ascii	"r9\000"
 2038 0ccd 0E       		.byte	0xe
 2039 0cce C5       		.byte	0xc5
 2040 0ccf 840C0000 		.4byte	0xc84
 2041 0cd3 04       		.byte	0x4
 2042 0cd4 11       		.uleb128 0x11
 2043 0cd5 72313000 		.ascii	"r10\000"
 2044 0cd9 0E       		.byte	0xe
 2045 0cda C6       		.byte	0xc6
 2046 0cdb 840C0000 		.4byte	0xc84
 2047 0cdf 08       		.byte	0x8
ARM GAS  /var/folders/t8/16hdwfmd2fg_d3q6dgx6bpmw0000gn/T//cc63w6BA.s 			page 37


 2048 0ce0 11       		.uleb128 0x11
 2049 0ce1 72313100 		.ascii	"r11\000"
 2050 0ce5 0E       		.byte	0xe
 2051 0ce6 C7       		.byte	0xc7
 2052 0ce7 840C0000 		.4byte	0xc84
 2053 0ceb 0C       		.byte	0xc
 2054 0cec 11       		.uleb128 0x11
 2055 0ced 723400   		.ascii	"r4\000"
 2056 0cf0 0E       		.byte	0xe
 2057 0cf1 C8       		.byte	0xc8
 2058 0cf2 840C0000 		.4byte	0xc84
 2059 0cf6 10       		.byte	0x10
 2060 0cf7 11       		.uleb128 0x11
 2061 0cf8 723500   		.ascii	"r5\000"
 2062 0cfb 0E       		.byte	0xe
 2063 0cfc C9       		.byte	0xc9
 2064 0cfd 840C0000 		.4byte	0xc84
 2065 0d01 14       		.byte	0x14
 2066 0d02 11       		.uleb128 0x11
 2067 0d03 723600   		.ascii	"r6\000"
 2068 0d06 0E       		.byte	0xe
 2069 0d07 CA       		.byte	0xca
 2070 0d08 840C0000 		.4byte	0xc84
 2071 0d0c 18       		.byte	0x18
 2072 0d0d 11       		.uleb128 0x11
 2073 0d0e 723700   		.ascii	"r7\000"
 2074 0d11 0E       		.byte	0xe
 2075 0d12 CB       		.byte	0xcb
 2076 0d13 840C0000 		.4byte	0xc84
 2077 0d17 1C       		.byte	0x1c
 2078 0d18 11       		.uleb128 0x11
 2079 0d19 6C7200   		.ascii	"lr\000"
 2080 0d1c 0E       		.byte	0xe
 2081 0d1d CC       		.byte	0xcc
 2082 0d1e 840C0000 		.4byte	0xc84
 2083 0d22 20       		.byte	0x20
 2084 0d23 00       		.byte	0
 2085 0d24 05       		.uleb128 0x5
 2086 0d25 04       		.byte	0x4
 2087 0d26 B20C0000 		.4byte	0xcb2
 2088 0d2a 08       		.uleb128 0x8
 2089 0d2b 04       		.byte	0x4
 2090 0d2c 0C       		.byte	0xc
 2091 0d2d D2       		.byte	0xd2
 2092 0d2e 8D0D0000 		.4byte	0xd8d
 2093 0d32 09       		.uleb128 0x9
 2094 0d33 2A040000 		.4byte	.LASF190
 2095 0d37 0C       		.byte	0xc
 2096 0d38 D9       		.byte	0xd9
 2097 0d39 42090000 		.4byte	0x942
 2098 0d3d 09       		.uleb128 0x9
 2099 0d3e A60A0000 		.4byte	.LASF191
 2100 0d42 0C       		.byte	0xc
 2101 0d43 E0       		.byte	0xe0
 2102 0d44 42090000 		.4byte	0x942
 2103 0d48 09       		.uleb128 0x9
 2104 0d49 FC010000 		.4byte	.LASF192
ARM GAS  /var/folders/t8/16hdwfmd2fg_d3q6dgx6bpmw0000gn/T//cc63w6BA.s 			page 38


 2105 0d4d 0C       		.byte	0xc
 2106 0d4e E7       		.byte	0xe7
 2107 0d4f 4B010000 		.4byte	0x14b
 2108 0d53 09       		.uleb128 0x9
 2109 0d54 69090000 		.4byte	.LASF193
 2110 0d58 0C       		.byte	0xc
 2111 0d59 EE       		.byte	0xee
 2112 0d5a 8D0D0000 		.4byte	0xd8d
 2113 0d5e 09       		.uleb128 0x9
 2114 0d5f D7020000 		.4byte	.LASF194
 2115 0d63 0C       		.byte	0xc
 2116 0d64 F3       		.byte	0xf3
 2117 0d65 42090000 		.4byte	0x942
 2118 0d69 09       		.uleb128 0x9
 2119 0d6a 830A0000 		.4byte	.LASF195
 2120 0d6e 0C       		.byte	0xc
 2121 0d6f FC       		.byte	0xfc
 2122 0d70 B80D0000 		.4byte	0xdb8
 2123 0d74 1E       		.uleb128 0x1e
 2124 0d75 7C0A0000 		.4byte	.LASF196
 2125 0d79 0C       		.byte	0xc
 2126 0d7a 0501     		.2byte	0x105
 2127 0d7c EF0D0000 		.4byte	0xdef
 2128 0d80 1E       		.uleb128 0x1e
 2129 0d81 3E020000 		.4byte	.LASF197
 2130 0d85 0C       		.byte	0xc
 2131 0d86 0D01     		.2byte	0x10d
 2132 0d88 4D090000 		.4byte	0x94d
 2133 0d8c 00       		.byte	0
 2134 0d8d 05       		.uleb128 0x5
 2135 0d8e 04       		.byte	0x4
 2136 0d8f 680A0000 		.4byte	0xa68
 2137 0d93 10       		.uleb128 0x10
 2138 0d94 8D080000 		.4byte	.LASF198
 2139 0d98 0C       		.byte	0xc
 2140 0d99 0F       		.byte	0xf
 2141 0d9a 34       		.byte	0x34
 2142 0d9b B80D0000 		.4byte	0xdb8
 2143 0d9f 0D       		.uleb128 0xd
 2144 0da0 73080000 		.4byte	.LASF142
 2145 0da4 0F       		.byte	0xf
 2146 0da5 35       		.byte	0x35
 2147 0da6 9D0A0000 		.4byte	0xa9d
 2148 0daa 00       		.byte	0
 2149 0dab 11       		.uleb128 0x11
 2150 0dac 636E7400 		.ascii	"cnt\000"
 2151 0db0 0F       		.byte	0xf
 2152 0db1 37       		.byte	0x37
 2153 0db2 58090000 		.4byte	0x958
 2154 0db6 08       		.byte	0x8
 2155 0db7 00       		.byte	0
 2156 0db8 05       		.uleb128 0x5
 2157 0db9 04       		.byte	0x4
 2158 0dba 930D0000 		.4byte	0xd93
 2159 0dbe 10       		.uleb128 0x10
 2160 0dbf 70040000 		.4byte	.LASF199
 2161 0dc3 10       		.byte	0x10
ARM GAS  /var/folders/t8/16hdwfmd2fg_d3q6dgx6bpmw0000gn/T//cc63w6BA.s 			page 39


 2162 0dc4 10       		.byte	0x10
 2163 0dc5 39       		.byte	0x39
 2164 0dc6 EF0D0000 		.4byte	0xdef
 2165 0dca 0D       		.uleb128 0xd
 2166 0dcb 73080000 		.4byte	.LASF142
 2167 0dcf 10       		.byte	0x10
 2168 0dd0 3A       		.byte	0x3a
 2169 0dd1 9D0A0000 		.4byte	0xa9d
 2170 0dd5 00       		.byte	0
 2171 0dd6 0D       		.uleb128 0xd
 2172 0dd7 C6030000 		.4byte	.LASF200
 2173 0ddb 10       		.byte	0x10
 2174 0ddc 3C       		.byte	0x3c
 2175 0ddd 730A0000 		.4byte	0xa73
 2176 0de1 08       		.byte	0x8
 2177 0de2 0D       		.uleb128 0xd
 2178 0de3 A7010000 		.4byte	.LASF161
 2179 0de7 10       		.byte	0x10
 2180 0de8 3E       		.byte	0x3e
 2181 0de9 3A0F0000 		.4byte	0xf3a
 2182 0ded 0C       		.byte	0xc
 2183 0dee 00       		.byte	0
 2184 0def 05       		.uleb128 0x5
 2185 0df0 04       		.byte	0x4
 2186 0df1 BE0D0000 		.4byte	0xdbe
 2187 0df5 05       		.uleb128 0x5
 2188 0df6 04       		.byte	0x4
 2189 0df7 8F0C0000 		.4byte	0xc8f
 2190 0dfb 05       		.uleb128 0x5
 2191 0dfc 04       		.byte	0x4
 2192 0dfd 500B0000 		.4byte	0xb50
 2193 0e01 22       		.uleb128 0x22
 2194 0e02 636800   		.ascii	"ch\000"
 2195 0e05 0C       		.byte	0xc
 2196 0e06 D201     		.2byte	0x1d2
 2197 0e08 370C0000 		.4byte	0xc37
 2198 0e0c 0A       		.uleb128 0xa
 2199 0e0d 8F0C0000 		.4byte	0xc8f
 2200 0e11 170E0000 		.4byte	0xe17
 2201 0e15 23       		.uleb128 0x23
 2202 0e16 00       		.byte	0
 2203 0e17 20       		.uleb128 0x20
 2204 0e18 41050000 		.4byte	.LASF201
 2205 0e1c 03       		.byte	0x3
 2206 0e1d 2B01     		.2byte	0x12b
 2207 0e1f 0C0E0000 		.4byte	0xe0c
 2208 0e23 0C       		.uleb128 0xc
 2209 0e24 16       		.byte	0x16
 2210 0e25 11       		.byte	0x11
 2211 0e26 34       		.byte	0x34
 2212 0e27 040F0000 		.4byte	0xf04
 2213 0e2b 0D       		.uleb128 0xd
 2214 0e2c FC070000 		.4byte	.LASF202
 2215 0e30 11       		.byte	0x11
 2216 0e31 35       		.byte	0x35
 2217 0e32 040F0000 		.4byte	0xf04
 2218 0e36 00       		.byte	0
ARM GAS  /var/folders/t8/16hdwfmd2fg_d3q6dgx6bpmw0000gn/T//cc63w6BA.s 			page 40


 2219 0e37 0D       		.uleb128 0xd
 2220 0e38 EC050000 		.4byte	.LASF203
 2221 0e3c 11       		.byte	0x11
 2222 0e3d 36       		.byte	0x36
 2223 0e3e D4080000 		.4byte	0x8d4
 2224 0e42 04       		.byte	0x4
 2225 0e43 0D       		.uleb128 0xd
 2226 0e44 4F060000 		.4byte	.LASF204
 2227 0e48 11       		.byte	0x11
 2228 0e49 37       		.byte	0x37
 2229 0e4a D4080000 		.4byte	0x8d4
 2230 0e4e 05       		.byte	0x5
 2231 0e4f 0D       		.uleb128 0xd
 2232 0e50 AC010000 		.4byte	.LASF205
 2233 0e54 11       		.byte	0x11
 2234 0e55 38       		.byte	0x38
 2235 0e56 DF080000 		.4byte	0x8df
 2236 0e5a 06       		.byte	0x6
 2237 0e5b 0D       		.uleb128 0xd
 2238 0e5c 54060000 		.4byte	.LASF206
 2239 0e60 11       		.byte	0x11
 2240 0e61 39       		.byte	0x39
 2241 0e62 D4080000 		.4byte	0x8d4
 2242 0e66 08       		.byte	0x8
 2243 0e67 0D       		.uleb128 0xd
 2244 0e68 10000000 		.4byte	.LASF207
 2245 0e6c 11       		.byte	0x11
 2246 0e6d 3A       		.byte	0x3a
 2247 0e6e D4080000 		.4byte	0x8d4
 2248 0e72 09       		.byte	0x9
 2249 0e73 0D       		.uleb128 0xd
 2250 0e74 21080000 		.4byte	.LASF208
 2251 0e78 11       		.byte	0x11
 2252 0e79 3B       		.byte	0x3b
 2253 0e7a D4080000 		.4byte	0x8d4
 2254 0e7e 0A       		.byte	0xa
 2255 0e7f 0D       		.uleb128 0xd
 2256 0e80 24070000 		.4byte	.LASF209
 2257 0e84 11       		.byte	0x11
 2258 0e85 3C       		.byte	0x3c
 2259 0e86 D4080000 		.4byte	0x8d4
 2260 0e8a 0B       		.byte	0xb
 2261 0e8b 0D       		.uleb128 0xd
 2262 0e8c AA040000 		.4byte	.LASF210
 2263 0e90 11       		.byte	0x11
 2264 0e91 3D       		.byte	0x3d
 2265 0e92 D4080000 		.4byte	0x8d4
 2266 0e96 0C       		.byte	0xc
 2267 0e97 0D       		.uleb128 0xd
 2268 0e98 83020000 		.4byte	.LASF211
 2269 0e9c 11       		.byte	0x11
 2270 0e9d 3E       		.byte	0x3e
 2271 0e9e D4080000 		.4byte	0x8d4
 2272 0ea2 0D       		.byte	0xd
 2273 0ea3 0D       		.uleb128 0xd
 2274 0ea4 0F040000 		.4byte	.LASF212
 2275 0ea8 11       		.byte	0x11
ARM GAS  /var/folders/t8/16hdwfmd2fg_d3q6dgx6bpmw0000gn/T//cc63w6BA.s 			page 41


 2276 0ea9 3F       		.byte	0x3f
 2277 0eaa D4080000 		.4byte	0x8d4
 2278 0eae 0E       		.byte	0xe
 2279 0eaf 0D       		.uleb128 0xd
 2280 0eb0 B0050000 		.4byte	.LASF213
 2281 0eb4 11       		.byte	0x11
 2282 0eb5 40       		.byte	0x40
 2283 0eb6 D4080000 		.4byte	0x8d4
 2284 0eba 0F       		.byte	0xf
 2285 0ebb 0D       		.uleb128 0xd
 2286 0ebc B1030000 		.4byte	.LASF214
 2287 0ec0 11       		.byte	0x11
 2288 0ec1 41       		.byte	0x41
 2289 0ec2 D4080000 		.4byte	0x8d4
 2290 0ec6 10       		.byte	0x10
 2291 0ec7 0D       		.uleb128 0xd
 2292 0ec8 19040000 		.4byte	.LASF215
 2293 0ecc 11       		.byte	0x11
 2294 0ecd 42       		.byte	0x42
 2295 0ece D4080000 		.4byte	0x8d4
 2296 0ed2 11       		.byte	0x11
 2297 0ed3 0D       		.uleb128 0xd
 2298 0ed4 C9040000 		.4byte	.LASF216
 2299 0ed8 11       		.byte	0x11
 2300 0ed9 43       		.byte	0x43
 2301 0eda D4080000 		.4byte	0x8d4
 2302 0ede 12       		.byte	0x12
 2303 0edf 0D       		.uleb128 0xd
 2304 0ee0 D1090000 		.4byte	.LASF217
 2305 0ee4 11       		.byte	0x11
 2306 0ee5 44       		.byte	0x44
 2307 0ee6 D4080000 		.4byte	0x8d4
 2308 0eea 13       		.byte	0x13
 2309 0eeb 0D       		.uleb128 0xd
 2310 0eec 07080000 		.4byte	.LASF218
 2311 0ef0 11       		.byte	0x11
 2312 0ef1 45       		.byte	0x45
 2313 0ef2 D4080000 		.4byte	0x8d4
 2314 0ef6 14       		.byte	0x14
 2315 0ef7 0D       		.uleb128 0xd
 2316 0ef8 F3010000 		.4byte	.LASF219
 2317 0efc 11       		.byte	0x11
 2318 0efd 46       		.byte	0x46
 2319 0efe D4080000 		.4byte	0x8d4
 2320 0f02 15       		.byte	0x15
 2321 0f03 00       		.byte	0
 2322 0f04 0A       		.uleb128 0xa
 2323 0f05 53010000 		.4byte	0x153
 2324 0f09 140F0000 		.4byte	0xf14
 2325 0f0d 0B       		.uleb128 0xb
 2326 0f0e 37000000 		.4byte	0x37
 2327 0f12 03       		.byte	0x3
 2328 0f13 00       		.byte	0
 2329 0f14 03       		.uleb128 0x3
 2330 0f15 69020000 		.4byte	.LASF220
 2331 0f19 11       		.byte	0x11
 2332 0f1a 47       		.byte	0x47
ARM GAS  /var/folders/t8/16hdwfmd2fg_d3q6dgx6bpmw0000gn/T//cc63w6BA.s 			page 42


 2333 0f1b 230E0000 		.4byte	0xe23
 2334 0f1f 0F       		.uleb128 0xf
 2335 0f20 140F0000 		.4byte	0xf14
 2336 0f24 24       		.uleb128 0x24
 2337 0f25 150A0000 		.4byte	.LASF221
 2338 0f29 11       		.byte	0x11
 2339 0f2a 6C       		.byte	0x6c
 2340 0f2b 1F0F0000 		.4byte	0xf1f
 2341 0f2f 03       		.uleb128 0x3
 2342 0f30 A1080000 		.4byte	.LASF222
 2343 0f34 10       		.byte	0x10
 2344 0f35 34       		.byte	0x34
 2345 0f36 BE0D0000 		.4byte	0xdbe
 2346 0f3a 05       		.uleb128 0x5
 2347 0f3b 04       		.byte	0x4
 2348 0f3c 2F0F0000 		.4byte	0xf2f
 2349 0f40 25       		.uleb128 0x25
 2350 0f41 240F0000 		.4byte	0xf24
 2351 0f45 01       		.byte	0x1
 2352 0f46 53       		.byte	0x53
 2353 0f47 05       		.uleb128 0x5
 2354 0f48 03       		.byte	0x3
 2355 0f49 00000000 		.4byte	ch_debug
 2356 0f4d 26       		.uleb128 0x26
 2357 0f4e 28030000 		.4byte	.LASF223
 2358 0f52 01       		.byte	0x1
 2359 0f53 FA       		.byte	0xfa
 2360 0f54 730A0000 		.4byte	0xa73
 2361 0f58 00000000 		.4byte	.LFB142
 2362 0f5c 1A000000 		.4byte	.LFE142-.LFB142
 2363 0f60 01       		.uleb128 0x1
 2364 0f61 9C       		.byte	0x9c
 2365 0f62 960F0000 		.4byte	0xf96
 2366 0f66 27       		.uleb128 0x27
 2367 0f67 776100   		.ascii	"wa\000"
 2368 0f6a 01       		.byte	0x1
 2369 0f6b FA       		.byte	0xfa
 2370 0f6c F50D0000 		.4byte	0xdf5
 2371 0f70 00000000 		.4byte	.LLST7
 2372 0f74 28       		.uleb128 0x28
 2373 0f75 63747000 		.ascii	"ctp\000"
 2374 0f79 01       		.byte	0x1
 2375 0f7a FB       		.byte	0xfb
 2376 0f7b 730A0000 		.4byte	0xa73
 2377 0f7f 2C000000 		.4byte	.LLST8
 2378 0f83 29       		.uleb128 0x29
 2379 0f84 08000000 		.4byte	.LVL36
 2380 0f88 68110000 		.4byte	0x1168
 2381 0f8c 29       		.uleb128 0x29
 2382 0f8d 0E000000 		.4byte	.LVL38
 2383 0f91 44100000 		.4byte	0x1044
 2384 0f95 00       		.byte	0
 2385 0f96 26       		.uleb128 0x26
 2386 0f97 6C010000 		.4byte	.LASF224
 2387 0f9b 01       		.byte	0x1
 2388 0f9c DD       		.byte	0xdd
 2389 0f9d 730A0000 		.4byte	0xa73
ARM GAS  /var/folders/t8/16hdwfmd2fg_d3q6dgx6bpmw0000gn/T//cc63w6BA.s 			page 43


 2390 0fa1 00000000 		.4byte	.LFB141
 2391 0fa5 20000000 		.4byte	.LFE141-.LFB141
 2392 0fa9 01       		.uleb128 0x1
 2393 0faa 9C       		.byte	0x9c
 2394 0fab DF0F0000 		.4byte	0xfdf
 2395 0faf 27       		.uleb128 0x27
 2396 0fb0 747000   		.ascii	"tp\000"
 2397 0fb3 01       		.byte	0x1
 2398 0fb4 DD       		.byte	0xdd
 2399 0fb5 730A0000 		.4byte	0xa73
 2400 0fb9 4A000000 		.4byte	.LLST5
 2401 0fbd 28       		.uleb128 0x28
 2402 0fbe 63747000 		.ascii	"ctp\000"
 2403 0fc2 01       		.byte	0x1
 2404 0fc3 DE       		.byte	0xde
 2405 0fc4 730A0000 		.4byte	0xa73
 2406 0fc8 76000000 		.4byte	.LLST6
 2407 0fcc 29       		.uleb128 0x29
 2408 0fcd 08000000 		.4byte	.LVL31
 2409 0fd1 68110000 		.4byte	0x1168
 2410 0fd5 29       		.uleb128 0x29
 2411 0fd6 16000000 		.4byte	.LVL32
 2412 0fda 44100000 		.4byte	0x1044
 2413 0fde 00       		.byte	0
 2414 0fdf 26       		.uleb128 0x26
 2415 0fe0 AF080000 		.4byte	.LASF225
 2416 0fe4 01       		.byte	0x1
 2417 0fe5 C2       		.byte	0xc2
 2418 0fe6 730A0000 		.4byte	0xa73
 2419 0fea 00000000 		.4byte	.LFB140
 2420 0fee 26000000 		.4byte	.LFE140-.LFB140
 2421 0ff2 01       		.uleb128 0x1
 2422 0ff3 9C       		.byte	0x9c
 2423 0ff4 44100000 		.4byte	0x1044
 2424 0ff8 2A       		.uleb128 0x2a
 2425 0ff9 02010000 		.4byte	.LASF146
 2426 0ffd 01       		.byte	0x1
 2427 0ffe C2       		.byte	0xc2
 2428 0fff CB050000 		.4byte	0x5cb
 2429 1003 94000000 		.4byte	.LLST3
 2430 1007 28       		.uleb128 0x28
 2431 1008 63747000 		.ascii	"ctp\000"
 2432 100c 01       		.byte	0x1
 2433 100d C3       		.byte	0xc3
 2434 100e 730A0000 		.4byte	0xa73
 2435 1012 C0000000 		.4byte	.LLST4
 2436 1016 29       		.uleb128 0x29
 2437 1017 08000000 		.4byte	.LVL19
 2438 101b 68110000 		.4byte	0x1168
 2439 101f 2B       		.uleb128 0x2b
 2440 1020 12000000 		.4byte	.LVL22
 2441 1024 44100000 		.4byte	0x1044
 2442 1028 33100000 		.4byte	0x1033
 2443 102c 2C       		.uleb128 0x2c
 2444 102d 01       		.uleb128 0x1
 2445 102e 50       		.byte	0x50
 2446 102f 02       		.uleb128 0x2
ARM GAS  /var/folders/t8/16hdwfmd2fg_d3q6dgx6bpmw0000gn/T//cc63w6BA.s 			page 44


 2447 1030 74       		.byte	0x74
 2448 1031 00       		.sleb128 0
 2449 1032 00       		.byte	0
 2450 1033 2D       		.uleb128 0x2d
 2451 1034 1E000000 		.4byte	.LVL26
 2452 1038 C1120000 		.4byte	0x12c1
 2453 103c 2C       		.uleb128 0x2c
 2454 103d 01       		.uleb128 0x1
 2455 103e 51       		.byte	0x51
 2456 103f 02       		.uleb128 0x2
 2457 1040 75       		.byte	0x75
 2458 1041 00       		.sleb128 0
 2459 1042 00       		.byte	0
 2460 1043 00       		.byte	0
 2461 1044 26       		.uleb128 0x26
 2462 1045 5C010000 		.4byte	.LASF226
 2463 1049 01       		.byte	0x1
 2464 104a 9E       		.byte	0x9e
 2465 104b 730A0000 		.4byte	0xa73
 2466 104f 00000000 		.4byte	.LFB139
 2467 1053 64000000 		.4byte	.LFE139-.LFB139
 2468 1057 01       		.uleb128 0x1
 2469 1058 9C       		.byte	0x9c
 2470 1059 53110000 		.4byte	0x1153
 2471 105d 27       		.uleb128 0x27
 2472 105e 747000   		.ascii	"tp\000"
 2473 1061 01       		.byte	0x1
 2474 1062 9E       		.byte	0x9e
 2475 1063 730A0000 		.4byte	0xa73
 2476 1067 FF000000 		.4byte	.LLST1
 2477 106b 28       		.uleb128 0x28
 2478 106c 6E747000 		.ascii	"ntp\000"
 2479 1070 01       		.byte	0x1
 2480 1071 9F       		.byte	0x9f
 2481 1072 730A0000 		.4byte	0xa73
 2482 1076 36010000 		.4byte	.LLST2
 2483 107a 2E       		.uleb128 0x2e
 2484 107b 3E070000 		.4byte	.LASF230
 2485 107f 63110000 		.4byte	0x1163
 2486 1083 05       		.uleb128 0x5
 2487 1084 03       		.byte	0x3
 2488 1085 00000000 		.4byte	__func__.6124
 2489 1089 2F       		.uleb128 0x2f
 2490 108a 96120000 		.4byte	0x1296
 2491 108e 04000000 		.4byte	.LBB60
 2492 1092 06000000 		.4byte	.LBE60-.LBB60
 2493 1096 01       		.byte	0x1
 2494 1097 A1       		.byte	0xa1
 2495 1098 CB100000 		.4byte	0x10cb
 2496 109c 30       		.uleb128 0x30
 2497 109d A8120000 		.4byte	0x12a8
 2498 10a1 04000000 		.4byte	.LBB62
 2499 10a5 02000000 		.4byte	.LBE62-.LBB62
 2500 10a9 03       		.byte	0x3
 2501 10aa 7801     		.2byte	0x178
 2502 10ac C1100000 		.4byte	0x10c1
 2503 10b0 31       		.uleb128 0x31
ARM GAS  /var/folders/t8/16hdwfmd2fg_d3q6dgx6bpmw0000gn/T//cc63w6BA.s 			page 45


 2504 10b1 B1120000 		.4byte	0x12b1
 2505 10b5 04000000 		.4byte	.LBB63
 2506 10b9 02000000 		.4byte	.LBE63-.LBB63
 2507 10bd 0E       		.byte	0xe
 2508 10be 7501     		.2byte	0x175
 2509 10c0 00       		.byte	0
 2510 10c1 29       		.uleb128 0x29
 2511 10c2 0A000000 		.4byte	.LVL7
 2512 10c6 CC120000 		.4byte	0x12cc
 2513 10ca 00       		.byte	0
 2514 10cb 32       		.uleb128 0x32
 2515 10cc 66120000 		.4byte	0x1266
 2516 10d0 20000000 		.4byte	.LBB65
 2517 10d4 18000000 		.4byte	.Ldebug_ranges0+0x18
 2518 10d8 01       		.byte	0x1
 2519 10d9 AE       		.byte	0xae
 2520 10da 2B110000 		.4byte	0x112b
 2521 10de 33       		.uleb128 0x33
 2522 10df 18000000 		.4byte	.Ldebug_ranges0+0x18
 2523 10e3 34       		.uleb128 0x34
 2524 10e4 73120000 		.4byte	0x1273
 2525 10e8 30       		.uleb128 0x30
 2526 10e9 9F120000 		.4byte	0x129f
 2527 10ed 34000000 		.4byte	.LBB67
 2528 10f1 02000000 		.4byte	.LBE67-.LBB67
 2529 10f5 03       		.byte	0x3
 2530 10f6 8F01     		.2byte	0x18f
 2531 10f8 0D110000 		.4byte	0x110d
 2532 10fc 31       		.uleb128 0x31
 2533 10fd B9120000 		.4byte	0x12b9
 2534 1101 34000000 		.4byte	.LBB68
 2535 1105 02000000 		.4byte	.LBE68-.LBB68
 2536 1109 0E       		.byte	0xe
 2537 110a 7E01     		.2byte	0x17e
 2538 110c 00       		.byte	0
 2539 110d 29       		.uleb128 0x29
 2540 110e 24000000 		.4byte	.LVL10
 2541 1112 D7120000 		.4byte	0x12d7
 2542 1116 2D       		.uleb128 0x2d
 2543 1117 46000000 		.4byte	.LVL15
 2544 111b E2120000 		.4byte	0x12e2
 2545 111f 2C       		.uleb128 0x2c
 2546 1120 01       		.uleb128 0x1
 2547 1121 50       		.byte	0x50
 2548 1122 05       		.uleb128 0x5
 2549 1123 03       		.byte	0x3
 2550 1124 00000000 		.4byte	.LANCHOR0
 2551 1128 00       		.byte	0
 2552 1129 00       		.byte	0
 2553 112a 00       		.byte	0
 2554 112b 2B       		.uleb128 0x2b
 2555 112c 3C000000 		.4byte	.LVL11
 2556 1130 EE120000 		.4byte	0x12ee
 2557 1134 3F110000 		.4byte	0x113f
 2558 1138 2C       		.uleb128 0x2c
 2559 1139 01       		.uleb128 0x1
 2560 113a 50       		.byte	0x50
ARM GAS  /var/folders/t8/16hdwfmd2fg_d3q6dgx6bpmw0000gn/T//cc63w6BA.s 			page 46


 2561 113b 02       		.uleb128 0x2
 2562 113c 76       		.byte	0x76
 2563 113d 00       		.sleb128 0
 2564 113e 00       		.byte	0
 2565 113f 2D       		.uleb128 0x2d
 2566 1140 4E000000 		.4byte	.LVL16
 2567 1144 E2120000 		.4byte	0x12e2
 2568 1148 2C       		.uleb128 0x2c
 2569 1149 01       		.uleb128 0x1
 2570 114a 50       		.byte	0x50
 2571 114b 05       		.uleb128 0x5
 2572 114c 03       		.byte	0x3
 2573 114d 00000000 		.4byte	.LANCHOR1
 2574 1151 00       		.byte	0
 2575 1152 00       		.byte	0
 2576 1153 0A       		.uleb128 0xa
 2577 1154 5A010000 		.4byte	0x15a
 2578 1158 63110000 		.4byte	0x1163
 2579 115c 0B       		.uleb128 0xb
 2580 115d 37000000 		.4byte	0x37
 2581 1161 0F       		.byte	0xf
 2582 1162 00       		.byte	0
 2583 1163 0F       		.uleb128 0xf
 2584 1164 53110000 		.4byte	0x1153
 2585 1168 26       		.uleb128 0x26
 2586 1169 24090000 		.4byte	.LASF227
 2587 116d 01       		.byte	0x1
 2588 116e 86       		.byte	0x86
 2589 116f 730A0000 		.4byte	0xa73
 2590 1173 00000000 		.4byte	.LFB138
 2591 1177 40000000 		.4byte	.LFE138-.LFB138
 2592 117b 01       		.uleb128 0x1
 2593 117c 9C       		.byte	0x9c
 2594 117d 2E120000 		.4byte	0x122e
 2595 1181 28       		.uleb128 0x28
 2596 1182 747000   		.ascii	"tp\000"
 2597 1185 01       		.byte	0x1
 2598 1186 87       		.byte	0x87
 2599 1187 730A0000 		.4byte	0xa73
 2600 118b 6B010000 		.4byte	.LLST0
 2601 118f 2F       		.uleb128 0x2f
 2602 1190 96120000 		.4byte	0x1296
 2603 1194 02000000 		.4byte	.LBB38
 2604 1198 06000000 		.4byte	.LBE38-.LBB38
 2605 119c 01       		.byte	0x1
 2606 119d 89       		.byte	0x89
 2607 119e D1110000 		.4byte	0x11d1
 2608 11a2 30       		.uleb128 0x30
 2609 11a3 A8120000 		.4byte	0x12a8
 2610 11a7 02000000 		.4byte	.LBB40
 2611 11ab 02000000 		.4byte	.LBE40-.LBB40
 2612 11af 03       		.byte	0x3
 2613 11b0 7801     		.2byte	0x178
 2614 11b2 C7110000 		.4byte	0x11c7
 2615 11b6 31       		.uleb128 0x31
 2616 11b7 B1120000 		.4byte	0x12b1
 2617 11bb 02000000 		.4byte	.LBB41
ARM GAS  /var/folders/t8/16hdwfmd2fg_d3q6dgx6bpmw0000gn/T//cc63w6BA.s 			page 47


 2618 11bf 02000000 		.4byte	.LBE41-.LBB41
 2619 11c3 0E       		.byte	0xe
 2620 11c4 7501     		.2byte	0x175
 2621 11c6 00       		.byte	0
 2622 11c7 29       		.uleb128 0x29
 2623 11c8 08000000 		.4byte	.LVL0
 2624 11cc CC120000 		.4byte	0x12cc
 2625 11d0 00       		.byte	0
 2626 11d1 35       		.uleb128 0x35
 2627 11d2 66120000 		.4byte	0x1266
 2628 11d6 14000000 		.4byte	.LBB43
 2629 11da 00000000 		.4byte	.Ldebug_ranges0+0
 2630 11de 01       		.byte	0x1
 2631 11df 8E       		.byte	0x8e
 2632 11e0 33       		.uleb128 0x33
 2633 11e1 00000000 		.4byte	.Ldebug_ranges0+0
 2634 11e5 34       		.uleb128 0x34
 2635 11e6 73120000 		.4byte	0x1273
 2636 11ea 30       		.uleb128 0x30
 2637 11eb 9F120000 		.4byte	0x129f
 2638 11ef 28000000 		.4byte	.LBB45
 2639 11f3 02000000 		.4byte	.LBE45-.LBB45
 2640 11f7 03       		.byte	0x3
 2641 11f8 8F01     		.2byte	0x18f
 2642 11fa 0F120000 		.4byte	0x120f
 2643 11fe 31       		.uleb128 0x31
 2644 11ff B9120000 		.4byte	0x12b9
 2645 1203 28000000 		.4byte	.LBB46
 2646 1207 02000000 		.4byte	.LBE46-.LBB46
 2647 120b 0E       		.byte	0xe
 2648 120c 7E01     		.2byte	0x17e
 2649 120e 00       		.byte	0
 2650 120f 29       		.uleb128 0x29
 2651 1210 18000000 		.4byte	.LVL2
 2652 1214 D7120000 		.4byte	0x12d7
 2653 1218 2D       		.uleb128 0x2d
 2654 1219 34000000 		.4byte	.LVL5
 2655 121d E2120000 		.4byte	0x12e2
 2656 1221 2C       		.uleb128 0x2c
 2657 1222 01       		.uleb128 0x1
 2658 1223 50       		.byte	0x50
 2659 1224 05       		.uleb128 0x5
 2660 1225 03       		.byte	0x3
 2661 1226 00000000 		.4byte	.LANCHOR0
 2662 122a 00       		.byte	0
 2663 122b 00       		.byte	0
 2664 122c 00       		.byte	0
 2665 122d 00       		.byte	0
 2666 122e 36       		.uleb128 0x36
 2667 122f 53050000 		.4byte	.LASF228
 2668 1233 11       		.byte	0x11
 2669 1234 99       		.byte	0x99
 2670 1235 CB050000 		.4byte	0x5cb
 2671 1239 03       		.byte	0x3
 2672 123a 49120000 		.4byte	0x1249
 2673 123e 37       		.uleb128 0x37
 2674 123f 747000   		.ascii	"tp\000"
ARM GAS  /var/folders/t8/16hdwfmd2fg_d3q6dgx6bpmw0000gn/T//cc63w6BA.s 			page 48


 2675 1242 11       		.byte	0x11
 2676 1243 99       		.byte	0x99
 2677 1244 730A0000 		.4byte	0xa73
 2678 1248 00       		.byte	0
 2679 1249 38       		.uleb128 0x38
 2680 124a 95040000 		.4byte	.LASF229
 2681 124e 12       		.byte	0x12
 2682 124f 4001     		.2byte	0x140
 2683 1251 F50D0000 		.4byte	0xdf5
 2684 1255 03       		.byte	0x3
 2685 1256 66120000 		.4byte	0x1266
 2686 125a 39       		.uleb128 0x39
 2687 125b 747000   		.ascii	"tp\000"
 2688 125e 12       		.byte	0x12
 2689 125f 4001     		.2byte	0x140
 2690 1261 730A0000 		.4byte	0xa73
 2691 1265 00       		.byte	0
 2692 1266 3A       		.uleb128 0x3a
 2693 1267 32080000 		.4byte	.LASF244
 2694 126b 03       		.byte	0x3
 2695 126c 8201     		.2byte	0x182
 2696 126e 03       		.byte	0x3
 2697 126f 81120000 		.4byte	0x1281
 2698 1273 3B       		.uleb128 0x3b
 2699 1274 3E070000 		.4byte	.LASF230
 2700 1278 91120000 		.4byte	0x1291
 2701 127c 32080000 		.4byte	.LASF244
 2702 1280 00       		.byte	0
 2703 1281 0A       		.uleb128 0xa
 2704 1282 5A010000 		.4byte	0x15a
 2705 1286 91120000 		.4byte	0x1291
 2706 128a 0B       		.uleb128 0xb
 2707 128b 37000000 		.4byte	0x37
 2708 128f 0B       		.byte	0xb
 2709 1290 00       		.byte	0
 2710 1291 0F       		.uleb128 0xf
 2711 1292 81120000 		.4byte	0x1281
 2712 1296 3C       		.uleb128 0x3c
 2713 1297 B2040000 		.4byte	.LASF231
 2714 129b 03       		.byte	0x3
 2715 129c 7601     		.2byte	0x176
 2716 129e 03       		.byte	0x3
 2717 129f 3C       		.uleb128 0x3c
 2718 12a0 2D0A0000 		.4byte	.LASF232
 2719 12a4 0E       		.byte	0xe
 2720 12a5 7C01     		.2byte	0x17c
 2721 12a7 03       		.byte	0x3
 2722 12a8 3C       		.uleb128 0x3c
 2723 12a9 03020000 		.4byte	.LASF233
 2724 12ad 0E       		.byte	0xe
 2725 12ae 7301     		.2byte	0x173
 2726 12b0 03       		.byte	0x3
 2727 12b1 3D       		.uleb128 0x3d
 2728 12b2 3A040000 		.4byte	.LASF234
 2729 12b6 02       		.byte	0x2
 2730 12b7 45       		.byte	0x45
 2731 12b8 03       		.byte	0x3
ARM GAS  /var/folders/t8/16hdwfmd2fg_d3q6dgx6bpmw0000gn/T//cc63w6BA.s 			page 49


 2732 12b9 3D       		.uleb128 0x3d
 2733 12ba 6E070000 		.4byte	.LASF235
 2734 12be 02       		.byte	0x2
 2735 12bf 3A       		.byte	0x3a
 2736 12c0 03       		.byte	0x3
 2737 12c1 3E       		.uleb128 0x3e
 2738 12c2 79050000 		.4byte	.LASF236
 2739 12c6 79050000 		.4byte	.LASF236
 2740 12ca 13       		.byte	0x13
 2741 12cb 24       		.byte	0x24
 2742 12cc 3E       		.uleb128 0x3e
 2743 12cd 71060000 		.4byte	.LASF237
 2744 12d1 71060000 		.4byte	.LASF237
 2745 12d5 14       		.byte	0x14
 2746 12d6 96       		.byte	0x96
 2747 12d7 3E       		.uleb128 0x3e
 2748 12d8 07010000 		.4byte	.LASF238
 2749 12dc 07010000 		.4byte	.LASF238
 2750 12e0 14       		.byte	0x14
 2751 12e1 97       		.byte	0x97
 2752 12e2 3F       		.uleb128 0x3f
 2753 12e3 3C090000 		.4byte	.LASF239
 2754 12e7 3C090000 		.4byte	.LASF239
 2755 12eb 03       		.byte	0x3
 2756 12ec 3201     		.2byte	0x132
 2757 12ee 3E       		.uleb128 0x3e
 2758 12ef C8060000 		.4byte	.LASF240
 2759 12f3 C8060000 		.4byte	.LASF240
 2760 12f7 12       		.byte	0x12
 2761 12f8 EF       		.byte	0xef
 2762 12f9 00       		.byte	0
 2763              		.section	.debug_abbrev,"",%progbits
 2764              	.Ldebug_abbrev0:
 2765 0000 01       		.uleb128 0x1
 2766 0001 11       		.uleb128 0x11
 2767 0002 01       		.byte	0x1
 2768 0003 25       		.uleb128 0x25
 2769 0004 0E       		.uleb128 0xe
 2770 0005 13       		.uleb128 0x13
 2771 0006 0B       		.uleb128 0xb
 2772 0007 03       		.uleb128 0x3
 2773 0008 0E       		.uleb128 0xe
 2774 0009 1B       		.uleb128 0x1b
 2775 000a 0E       		.uleb128 0xe
 2776 000b 55       		.uleb128 0x55
 2777 000c 17       		.uleb128 0x17
 2778 000d 11       		.uleb128 0x11
 2779 000e 01       		.uleb128 0x1
 2780 000f 10       		.uleb128 0x10
 2781 0010 17       		.uleb128 0x17
 2782 0011 00       		.byte	0
 2783 0012 00       		.byte	0
 2784 0013 02       		.uleb128 0x2
 2785 0014 24       		.uleb128 0x24
 2786 0015 00       		.byte	0
 2787 0016 0B       		.uleb128 0xb
 2788 0017 0B       		.uleb128 0xb
ARM GAS  /var/folders/t8/16hdwfmd2fg_d3q6dgx6bpmw0000gn/T//cc63w6BA.s 			page 50


 2789 0018 3E       		.uleb128 0x3e
 2790 0019 0B       		.uleb128 0xb
 2791 001a 03       		.uleb128 0x3
 2792 001b 08       		.uleb128 0x8
 2793 001c 00       		.byte	0
 2794 001d 00       		.byte	0
 2795 001e 03       		.uleb128 0x3
 2796 001f 16       		.uleb128 0x16
 2797 0020 00       		.byte	0
 2798 0021 03       		.uleb128 0x3
 2799 0022 0E       		.uleb128 0xe
 2800 0023 3A       		.uleb128 0x3a
 2801 0024 0B       		.uleb128 0xb
 2802 0025 3B       		.uleb128 0x3b
 2803 0026 0B       		.uleb128 0xb
 2804 0027 49       		.uleb128 0x49
 2805 0028 13       		.uleb128 0x13
 2806 0029 00       		.byte	0
 2807 002a 00       		.byte	0
 2808 002b 04       		.uleb128 0x4
 2809 002c 24       		.uleb128 0x24
 2810 002d 00       		.byte	0
 2811 002e 0B       		.uleb128 0xb
 2812 002f 0B       		.uleb128 0xb
 2813 0030 3E       		.uleb128 0x3e
 2814 0031 0B       		.uleb128 0xb
 2815 0032 03       		.uleb128 0x3
 2816 0033 0E       		.uleb128 0xe
 2817 0034 00       		.byte	0
 2818 0035 00       		.byte	0
 2819 0036 05       		.uleb128 0x5
 2820 0037 0F       		.uleb128 0xf
 2821 0038 00       		.byte	0
 2822 0039 0B       		.uleb128 0xb
 2823 003a 0B       		.uleb128 0xb
 2824 003b 49       		.uleb128 0x49
 2825 003c 13       		.uleb128 0x13
 2826 003d 00       		.byte	0
 2827 003e 00       		.byte	0
 2828 003f 06       		.uleb128 0x6
 2829 0040 13       		.uleb128 0x13
 2830 0041 00       		.byte	0
 2831 0042 03       		.uleb128 0x3
 2832 0043 0E       		.uleb128 0xe
 2833 0044 3C       		.uleb128 0x3c
 2834 0045 19       		.uleb128 0x19
 2835 0046 00       		.byte	0
 2836 0047 00       		.byte	0
 2837 0048 07       		.uleb128 0x7
 2838 0049 16       		.uleb128 0x16
 2839 004a 00       		.byte	0
 2840 004b 03       		.uleb128 0x3
 2841 004c 0E       		.uleb128 0xe
 2842 004d 3A       		.uleb128 0x3a
 2843 004e 0B       		.uleb128 0xb
 2844 004f 3B       		.uleb128 0x3b
 2845 0050 05       		.uleb128 0x5
ARM GAS  /var/folders/t8/16hdwfmd2fg_d3q6dgx6bpmw0000gn/T//cc63w6BA.s 			page 51


 2846 0051 49       		.uleb128 0x49
 2847 0052 13       		.uleb128 0x13
 2848 0053 00       		.byte	0
 2849 0054 00       		.byte	0
 2850 0055 08       		.uleb128 0x8
 2851 0056 17       		.uleb128 0x17
 2852 0057 01       		.byte	0x1
 2853 0058 0B       		.uleb128 0xb
 2854 0059 0B       		.uleb128 0xb
 2855 005a 3A       		.uleb128 0x3a
 2856 005b 0B       		.uleb128 0xb
 2857 005c 3B       		.uleb128 0x3b
 2858 005d 0B       		.uleb128 0xb
 2859 005e 01       		.uleb128 0x1
 2860 005f 13       		.uleb128 0x13
 2861 0060 00       		.byte	0
 2862 0061 00       		.byte	0
 2863 0062 09       		.uleb128 0x9
 2864 0063 0D       		.uleb128 0xd
 2865 0064 00       		.byte	0
 2866 0065 03       		.uleb128 0x3
 2867 0066 0E       		.uleb128 0xe
 2868 0067 3A       		.uleb128 0x3a
 2869 0068 0B       		.uleb128 0xb
 2870 0069 3B       		.uleb128 0x3b
 2871 006a 0B       		.uleb128 0xb
 2872 006b 49       		.uleb128 0x49
 2873 006c 13       		.uleb128 0x13
 2874 006d 00       		.byte	0
 2875 006e 00       		.byte	0
 2876 006f 0A       		.uleb128 0xa
 2877 0070 01       		.uleb128 0x1
 2878 0071 01       		.byte	0x1
 2879 0072 49       		.uleb128 0x49
 2880 0073 13       		.uleb128 0x13
 2881 0074 01       		.uleb128 0x1
 2882 0075 13       		.uleb128 0x13
 2883 0076 00       		.byte	0
 2884 0077 00       		.byte	0
 2885 0078 0B       		.uleb128 0xb
 2886 0079 21       		.uleb128 0x21
 2887 007a 00       		.byte	0
 2888 007b 49       		.uleb128 0x49
 2889 007c 13       		.uleb128 0x13
 2890 007d 2F       		.uleb128 0x2f
 2891 007e 0B       		.uleb128 0xb
 2892 007f 00       		.byte	0
 2893 0080 00       		.byte	0
 2894 0081 0C       		.uleb128 0xc
 2895 0082 13       		.uleb128 0x13
 2896 0083 01       		.byte	0x1
 2897 0084 0B       		.uleb128 0xb
 2898 0085 0B       		.uleb128 0xb
 2899 0086 3A       		.uleb128 0x3a
 2900 0087 0B       		.uleb128 0xb
 2901 0088 3B       		.uleb128 0x3b
 2902 0089 0B       		.uleb128 0xb
ARM GAS  /var/folders/t8/16hdwfmd2fg_d3q6dgx6bpmw0000gn/T//cc63w6BA.s 			page 52


 2903 008a 01       		.uleb128 0x1
 2904 008b 13       		.uleb128 0x13
 2905 008c 00       		.byte	0
 2906 008d 00       		.byte	0
 2907 008e 0D       		.uleb128 0xd
 2908 008f 0D       		.uleb128 0xd
 2909 0090 00       		.byte	0
 2910 0091 03       		.uleb128 0x3
 2911 0092 0E       		.uleb128 0xe
 2912 0093 3A       		.uleb128 0x3a
 2913 0094 0B       		.uleb128 0xb
 2914 0095 3B       		.uleb128 0x3b
 2915 0096 0B       		.uleb128 0xb
 2916 0097 49       		.uleb128 0x49
 2917 0098 13       		.uleb128 0x13
 2918 0099 38       		.uleb128 0x38
 2919 009a 0B       		.uleb128 0xb
 2920 009b 00       		.byte	0
 2921 009c 00       		.byte	0
 2922 009d 0E       		.uleb128 0xe
 2923 009e 0F       		.uleb128 0xf
 2924 009f 00       		.byte	0
 2925 00a0 0B       		.uleb128 0xb
 2926 00a1 0B       		.uleb128 0xb
 2927 00a2 00       		.byte	0
 2928 00a3 00       		.byte	0
 2929 00a4 0F       		.uleb128 0xf
 2930 00a5 26       		.uleb128 0x26
 2931 00a6 00       		.byte	0
 2932 00a7 49       		.uleb128 0x49
 2933 00a8 13       		.uleb128 0x13
 2934 00a9 00       		.byte	0
 2935 00aa 00       		.byte	0
 2936 00ab 10       		.uleb128 0x10
 2937 00ac 13       		.uleb128 0x13
 2938 00ad 01       		.byte	0x1
 2939 00ae 03       		.uleb128 0x3
 2940 00af 0E       		.uleb128 0xe
 2941 00b0 0B       		.uleb128 0xb
 2942 00b1 0B       		.uleb128 0xb
 2943 00b2 3A       		.uleb128 0x3a
 2944 00b3 0B       		.uleb128 0xb
 2945 00b4 3B       		.uleb128 0x3b
 2946 00b5 0B       		.uleb128 0xb
 2947 00b6 01       		.uleb128 0x1
 2948 00b7 13       		.uleb128 0x13
 2949 00b8 00       		.byte	0
 2950 00b9 00       		.byte	0
 2951 00ba 11       		.uleb128 0x11
 2952 00bb 0D       		.uleb128 0xd
 2953 00bc 00       		.byte	0
 2954 00bd 03       		.uleb128 0x3
 2955 00be 08       		.uleb128 0x8
 2956 00bf 3A       		.uleb128 0x3a
 2957 00c0 0B       		.uleb128 0xb
 2958 00c1 3B       		.uleb128 0x3b
 2959 00c2 0B       		.uleb128 0xb
ARM GAS  /var/folders/t8/16hdwfmd2fg_d3q6dgx6bpmw0000gn/T//cc63w6BA.s 			page 53


 2960 00c3 49       		.uleb128 0x49
 2961 00c4 13       		.uleb128 0x13
 2962 00c5 38       		.uleb128 0x38
 2963 00c6 0B       		.uleb128 0xb
 2964 00c7 00       		.byte	0
 2965 00c8 00       		.byte	0
 2966 00c9 12       		.uleb128 0x12
 2967 00ca 13       		.uleb128 0x13
 2968 00cb 01       		.byte	0x1
 2969 00cc 03       		.uleb128 0x3
 2970 00cd 0E       		.uleb128 0xe
 2971 00ce 0B       		.uleb128 0xb
 2972 00cf 05       		.uleb128 0x5
 2973 00d0 3A       		.uleb128 0x3a
 2974 00d1 0B       		.uleb128 0xb
 2975 00d2 3B       		.uleb128 0x3b
 2976 00d3 0B       		.uleb128 0xb
 2977 00d4 01       		.uleb128 0x1
 2978 00d5 13       		.uleb128 0x13
 2979 00d6 00       		.byte	0
 2980 00d7 00       		.byte	0
 2981 00d8 13       		.uleb128 0x13
 2982 00d9 0D       		.uleb128 0xd
 2983 00da 00       		.byte	0
 2984 00db 03       		.uleb128 0x3
 2985 00dc 0E       		.uleb128 0xe
 2986 00dd 3A       		.uleb128 0x3a
 2987 00de 0B       		.uleb128 0xb
 2988 00df 3B       		.uleb128 0x3b
 2989 00e0 0B       		.uleb128 0xb
 2990 00e1 49       		.uleb128 0x49
 2991 00e2 13       		.uleb128 0x13
 2992 00e3 38       		.uleb128 0x38
 2993 00e4 05       		.uleb128 0x5
 2994 00e5 00       		.byte	0
 2995 00e6 00       		.byte	0
 2996 00e7 14       		.uleb128 0x14
 2997 00e8 15       		.uleb128 0x15
 2998 00e9 00       		.byte	0
 2999 00ea 27       		.uleb128 0x27
 3000 00eb 19       		.uleb128 0x19
 3001 00ec 00       		.byte	0
 3002 00ed 00       		.byte	0
 3003 00ee 15       		.uleb128 0x15
 3004 00ef 15       		.uleb128 0x15
 3005 00f0 01       		.byte	0x1
 3006 00f1 27       		.uleb128 0x27
 3007 00f2 19       		.uleb128 0x19
 3008 00f3 49       		.uleb128 0x49
 3009 00f4 13       		.uleb128 0x13
 3010 00f5 01       		.uleb128 0x1
 3011 00f6 13       		.uleb128 0x13
 3012 00f7 00       		.byte	0
 3013 00f8 00       		.byte	0
 3014 00f9 16       		.uleb128 0x16
 3015 00fa 05       		.uleb128 0x5
 3016 00fb 00       		.byte	0
ARM GAS  /var/folders/t8/16hdwfmd2fg_d3q6dgx6bpmw0000gn/T//cc63w6BA.s 			page 54


 3017 00fc 49       		.uleb128 0x49
 3018 00fd 13       		.uleb128 0x13
 3019 00fe 00       		.byte	0
 3020 00ff 00       		.byte	0
 3021 0100 17       		.uleb128 0x17
 3022 0101 13       		.uleb128 0x13
 3023 0102 01       		.byte	0x1
 3024 0103 03       		.uleb128 0x3
 3025 0104 0E       		.uleb128 0xe
 3026 0105 0B       		.uleb128 0xb
 3027 0106 05       		.uleb128 0x5
 3028 0107 3A       		.uleb128 0x3a
 3029 0108 0B       		.uleb128 0xb
 3030 0109 3B       		.uleb128 0x3b
 3031 010a 05       		.uleb128 0x5
 3032 010b 01       		.uleb128 0x1
 3033 010c 13       		.uleb128 0x13
 3034 010d 00       		.byte	0
 3035 010e 00       		.byte	0
 3036 010f 18       		.uleb128 0x18
 3037 0110 0D       		.uleb128 0xd
 3038 0111 00       		.byte	0
 3039 0112 03       		.uleb128 0x3
 3040 0113 0E       		.uleb128 0xe
 3041 0114 3A       		.uleb128 0x3a
 3042 0115 0B       		.uleb128 0xb
 3043 0116 3B       		.uleb128 0x3b
 3044 0117 05       		.uleb128 0x5
 3045 0118 49       		.uleb128 0x49
 3046 0119 13       		.uleb128 0x13
 3047 011a 38       		.uleb128 0x38
 3048 011b 0B       		.uleb128 0xb
 3049 011c 00       		.byte	0
 3050 011d 00       		.byte	0
 3051 011e 19       		.uleb128 0x19
 3052 011f 0D       		.uleb128 0xd
 3053 0120 00       		.byte	0
 3054 0121 03       		.uleb128 0x3
 3055 0122 0E       		.uleb128 0xe
 3056 0123 3A       		.uleb128 0x3a
 3057 0124 0B       		.uleb128 0xb
 3058 0125 3B       		.uleb128 0x3b
 3059 0126 05       		.uleb128 0x5
 3060 0127 49       		.uleb128 0x49
 3061 0128 13       		.uleb128 0x13
 3062 0129 38       		.uleb128 0x38
 3063 012a 05       		.uleb128 0x5
 3064 012b 00       		.byte	0
 3065 012c 00       		.byte	0
 3066 012d 1A       		.uleb128 0x1a
 3067 012e 35       		.uleb128 0x35
 3068 012f 00       		.byte	0
 3069 0130 49       		.uleb128 0x49
 3070 0131 13       		.uleb128 0x13
 3071 0132 00       		.byte	0
 3072 0133 00       		.byte	0
 3073 0134 1B       		.uleb128 0x1b
ARM GAS  /var/folders/t8/16hdwfmd2fg_d3q6dgx6bpmw0000gn/T//cc63w6BA.s 			page 55


 3074 0135 13       		.uleb128 0x13
 3075 0136 01       		.byte	0x1
 3076 0137 03       		.uleb128 0x3
 3077 0138 0E       		.uleb128 0xe
 3078 0139 0B       		.uleb128 0xb
 3079 013a 0B       		.uleb128 0xb
 3080 013b 3A       		.uleb128 0x3a
 3081 013c 0B       		.uleb128 0xb
 3082 013d 3B       		.uleb128 0x3b
 3083 013e 05       		.uleb128 0x5
 3084 013f 01       		.uleb128 0x1
 3085 0140 13       		.uleb128 0x13
 3086 0141 00       		.byte	0
 3087 0142 00       		.byte	0
 3088 0143 1C       		.uleb128 0x1c
 3089 0144 13       		.uleb128 0x13
 3090 0145 01       		.byte	0x1
 3091 0146 0B       		.uleb128 0xb
 3092 0147 0B       		.uleb128 0xb
 3093 0148 3A       		.uleb128 0x3a
 3094 0149 0B       		.uleb128 0xb
 3095 014a 3B       		.uleb128 0x3b
 3096 014b 05       		.uleb128 0x5
 3097 014c 01       		.uleb128 0x1
 3098 014d 13       		.uleb128 0x13
 3099 014e 00       		.byte	0
 3100 014f 00       		.byte	0
 3101 0150 1D       		.uleb128 0x1d
 3102 0151 17       		.uleb128 0x17
 3103 0152 01       		.byte	0x1
 3104 0153 0B       		.uleb128 0xb
 3105 0154 0B       		.uleb128 0xb
 3106 0155 3A       		.uleb128 0x3a
 3107 0156 0B       		.uleb128 0xb
 3108 0157 3B       		.uleb128 0x3b
 3109 0158 05       		.uleb128 0x5
 3110 0159 01       		.uleb128 0x1
 3111 015a 13       		.uleb128 0x13
 3112 015b 00       		.byte	0
 3113 015c 00       		.byte	0
 3114 015d 1E       		.uleb128 0x1e
 3115 015e 0D       		.uleb128 0xd
 3116 015f 00       		.byte	0
 3117 0160 03       		.uleb128 0x3
 3118 0161 0E       		.uleb128 0xe
 3119 0162 3A       		.uleb128 0x3a
 3120 0163 0B       		.uleb128 0xb
 3121 0164 3B       		.uleb128 0x3b
 3122 0165 05       		.uleb128 0x5
 3123 0166 49       		.uleb128 0x49
 3124 0167 13       		.uleb128 0x13
 3125 0168 00       		.byte	0
 3126 0169 00       		.byte	0
 3127 016a 1F       		.uleb128 0x1f
 3128 016b 15       		.uleb128 0x15
 3129 016c 01       		.byte	0x1
 3130 016d 27       		.uleb128 0x27
ARM GAS  /var/folders/t8/16hdwfmd2fg_d3q6dgx6bpmw0000gn/T//cc63w6BA.s 			page 56


 3131 016e 19       		.uleb128 0x19
 3132 016f 01       		.uleb128 0x1
 3133 0170 13       		.uleb128 0x13
 3134 0171 00       		.byte	0
 3135 0172 00       		.byte	0
 3136 0173 20       		.uleb128 0x20
 3137 0174 34       		.uleb128 0x34
 3138 0175 00       		.byte	0
 3139 0176 03       		.uleb128 0x3
 3140 0177 0E       		.uleb128 0xe
 3141 0178 3A       		.uleb128 0x3a
 3142 0179 0B       		.uleb128 0xb
 3143 017a 3B       		.uleb128 0x3b
 3144 017b 05       		.uleb128 0x5
 3145 017c 49       		.uleb128 0x49
 3146 017d 13       		.uleb128 0x13
 3147 017e 3F       		.uleb128 0x3f
 3148 017f 19       		.uleb128 0x19
 3149 0180 3C       		.uleb128 0x3c
 3150 0181 19       		.uleb128 0x19
 3151 0182 00       		.byte	0
 3152 0183 00       		.byte	0
 3153 0184 21       		.uleb128 0x21
 3154 0185 0D       		.uleb128 0xd
 3155 0186 00       		.byte	0
 3156 0187 03       		.uleb128 0x3
 3157 0188 08       		.uleb128 0x8
 3158 0189 3A       		.uleb128 0x3a
 3159 018a 0B       		.uleb128 0xb
 3160 018b 3B       		.uleb128 0x3b
 3161 018c 05       		.uleb128 0x5
 3162 018d 49       		.uleb128 0x49
 3163 018e 13       		.uleb128 0x13
 3164 018f 38       		.uleb128 0x38
 3165 0190 0B       		.uleb128 0xb
 3166 0191 00       		.byte	0
 3167 0192 00       		.byte	0
 3168 0193 22       		.uleb128 0x22
 3169 0194 34       		.uleb128 0x34
 3170 0195 00       		.byte	0
 3171 0196 03       		.uleb128 0x3
 3172 0197 08       		.uleb128 0x8
 3173 0198 3A       		.uleb128 0x3a
 3174 0199 0B       		.uleb128 0xb
 3175 019a 3B       		.uleb128 0x3b
 3176 019b 05       		.uleb128 0x5
 3177 019c 49       		.uleb128 0x49
 3178 019d 13       		.uleb128 0x13
 3179 019e 3F       		.uleb128 0x3f
 3180 019f 19       		.uleb128 0x19
 3181 01a0 3C       		.uleb128 0x3c
 3182 01a1 19       		.uleb128 0x19
 3183 01a2 00       		.byte	0
 3184 01a3 00       		.byte	0
 3185 01a4 23       		.uleb128 0x23
 3186 01a5 21       		.uleb128 0x21
 3187 01a6 00       		.byte	0
ARM GAS  /var/folders/t8/16hdwfmd2fg_d3q6dgx6bpmw0000gn/T//cc63w6BA.s 			page 57


 3188 01a7 00       		.byte	0
 3189 01a8 00       		.byte	0
 3190 01a9 24       		.uleb128 0x24
 3191 01aa 34       		.uleb128 0x34
 3192 01ab 00       		.byte	0
 3193 01ac 03       		.uleb128 0x3
 3194 01ad 0E       		.uleb128 0xe
 3195 01ae 3A       		.uleb128 0x3a
 3196 01af 0B       		.uleb128 0xb
 3197 01b0 3B       		.uleb128 0x3b
 3198 01b1 0B       		.uleb128 0xb
 3199 01b2 49       		.uleb128 0x49
 3200 01b3 13       		.uleb128 0x13
 3201 01b4 3F       		.uleb128 0x3f
 3202 01b5 19       		.uleb128 0x19
 3203 01b6 3C       		.uleb128 0x3c
 3204 01b7 19       		.uleb128 0x19
 3205 01b8 00       		.byte	0
 3206 01b9 00       		.byte	0
 3207 01ba 25       		.uleb128 0x25
 3208 01bb 34       		.uleb128 0x34
 3209 01bc 00       		.byte	0
 3210 01bd 47       		.uleb128 0x47
 3211 01be 13       		.uleb128 0x13
 3212 01bf 3A       		.uleb128 0x3a
 3213 01c0 0B       		.uleb128 0xb
 3214 01c1 3B       		.uleb128 0x3b
 3215 01c2 0B       		.uleb128 0xb
 3216 01c3 02       		.uleb128 0x2
 3217 01c4 18       		.uleb128 0x18
 3218 01c5 00       		.byte	0
 3219 01c6 00       		.byte	0
 3220 01c7 26       		.uleb128 0x26
 3221 01c8 2E       		.uleb128 0x2e
 3222 01c9 01       		.byte	0x1
 3223 01ca 3F       		.uleb128 0x3f
 3224 01cb 19       		.uleb128 0x19
 3225 01cc 03       		.uleb128 0x3
 3226 01cd 0E       		.uleb128 0xe
 3227 01ce 3A       		.uleb128 0x3a
 3228 01cf 0B       		.uleb128 0xb
 3229 01d0 3B       		.uleb128 0x3b
 3230 01d1 0B       		.uleb128 0xb
 3231 01d2 27       		.uleb128 0x27
 3232 01d3 19       		.uleb128 0x19
 3233 01d4 49       		.uleb128 0x49
 3234 01d5 13       		.uleb128 0x13
 3235 01d6 11       		.uleb128 0x11
 3236 01d7 01       		.uleb128 0x1
 3237 01d8 12       		.uleb128 0x12
 3238 01d9 06       		.uleb128 0x6
 3239 01da 40       		.uleb128 0x40
 3240 01db 18       		.uleb128 0x18
 3241 01dc 9742     		.uleb128 0x2117
 3242 01de 19       		.uleb128 0x19
 3243 01df 01       		.uleb128 0x1
 3244 01e0 13       		.uleb128 0x13
ARM GAS  /var/folders/t8/16hdwfmd2fg_d3q6dgx6bpmw0000gn/T//cc63w6BA.s 			page 58


 3245 01e1 00       		.byte	0
 3246 01e2 00       		.byte	0
 3247 01e3 27       		.uleb128 0x27
 3248 01e4 05       		.uleb128 0x5
 3249 01e5 00       		.byte	0
 3250 01e6 03       		.uleb128 0x3
 3251 01e7 08       		.uleb128 0x8
 3252 01e8 3A       		.uleb128 0x3a
 3253 01e9 0B       		.uleb128 0xb
 3254 01ea 3B       		.uleb128 0x3b
 3255 01eb 0B       		.uleb128 0xb
 3256 01ec 49       		.uleb128 0x49
 3257 01ed 13       		.uleb128 0x13
 3258 01ee 02       		.uleb128 0x2
 3259 01ef 17       		.uleb128 0x17
 3260 01f0 00       		.byte	0
 3261 01f1 00       		.byte	0
 3262 01f2 28       		.uleb128 0x28
 3263 01f3 34       		.uleb128 0x34
 3264 01f4 00       		.byte	0
 3265 01f5 03       		.uleb128 0x3
 3266 01f6 08       		.uleb128 0x8
 3267 01f7 3A       		.uleb128 0x3a
 3268 01f8 0B       		.uleb128 0xb
 3269 01f9 3B       		.uleb128 0x3b
 3270 01fa 0B       		.uleb128 0xb
 3271 01fb 49       		.uleb128 0x49
 3272 01fc 13       		.uleb128 0x13
 3273 01fd 02       		.uleb128 0x2
 3274 01fe 17       		.uleb128 0x17
 3275 01ff 00       		.byte	0
 3276 0200 00       		.byte	0
 3277 0201 29       		.uleb128 0x29
 3278 0202 898201   		.uleb128 0x4109
 3279 0205 00       		.byte	0
 3280 0206 11       		.uleb128 0x11
 3281 0207 01       		.uleb128 0x1
 3282 0208 31       		.uleb128 0x31
 3283 0209 13       		.uleb128 0x13
 3284 020a 00       		.byte	0
 3285 020b 00       		.byte	0
 3286 020c 2A       		.uleb128 0x2a
 3287 020d 05       		.uleb128 0x5
 3288 020e 00       		.byte	0
 3289 020f 03       		.uleb128 0x3
 3290 0210 0E       		.uleb128 0xe
 3291 0211 3A       		.uleb128 0x3a
 3292 0212 0B       		.uleb128 0xb
 3293 0213 3B       		.uleb128 0x3b
 3294 0214 0B       		.uleb128 0xb
 3295 0215 49       		.uleb128 0x49
 3296 0216 13       		.uleb128 0x13
 3297 0217 02       		.uleb128 0x2
 3298 0218 17       		.uleb128 0x17
 3299 0219 00       		.byte	0
 3300 021a 00       		.byte	0
 3301 021b 2B       		.uleb128 0x2b
ARM GAS  /var/folders/t8/16hdwfmd2fg_d3q6dgx6bpmw0000gn/T//cc63w6BA.s 			page 59


 3302 021c 898201   		.uleb128 0x4109
 3303 021f 01       		.byte	0x1
 3304 0220 11       		.uleb128 0x11
 3305 0221 01       		.uleb128 0x1
 3306 0222 31       		.uleb128 0x31
 3307 0223 13       		.uleb128 0x13
 3308 0224 01       		.uleb128 0x1
 3309 0225 13       		.uleb128 0x13
 3310 0226 00       		.byte	0
 3311 0227 00       		.byte	0
 3312 0228 2C       		.uleb128 0x2c
 3313 0229 8A8201   		.uleb128 0x410a
 3314 022c 00       		.byte	0
 3315 022d 02       		.uleb128 0x2
 3316 022e 18       		.uleb128 0x18
 3317 022f 9142     		.uleb128 0x2111
 3318 0231 18       		.uleb128 0x18
 3319 0232 00       		.byte	0
 3320 0233 00       		.byte	0
 3321 0234 2D       		.uleb128 0x2d
 3322 0235 898201   		.uleb128 0x4109
 3323 0238 01       		.byte	0x1
 3324 0239 11       		.uleb128 0x11
 3325 023a 01       		.uleb128 0x1
 3326 023b 31       		.uleb128 0x31
 3327 023c 13       		.uleb128 0x13
 3328 023d 00       		.byte	0
 3329 023e 00       		.byte	0
 3330 023f 2E       		.uleb128 0x2e
 3331 0240 34       		.uleb128 0x34
 3332 0241 00       		.byte	0
 3333 0242 03       		.uleb128 0x3
 3334 0243 0E       		.uleb128 0xe
 3335 0244 49       		.uleb128 0x49
 3336 0245 13       		.uleb128 0x13
 3337 0246 34       		.uleb128 0x34
 3338 0247 19       		.uleb128 0x19
 3339 0248 02       		.uleb128 0x2
 3340 0249 18       		.uleb128 0x18
 3341 024a 00       		.byte	0
 3342 024b 00       		.byte	0
 3343 024c 2F       		.uleb128 0x2f
 3344 024d 1D       		.uleb128 0x1d
 3345 024e 01       		.byte	0x1
 3346 024f 31       		.uleb128 0x31
 3347 0250 13       		.uleb128 0x13
 3348 0251 11       		.uleb128 0x11
 3349 0252 01       		.uleb128 0x1
 3350 0253 12       		.uleb128 0x12
 3351 0254 06       		.uleb128 0x6
 3352 0255 58       		.uleb128 0x58
 3353 0256 0B       		.uleb128 0xb
 3354 0257 59       		.uleb128 0x59
 3355 0258 0B       		.uleb128 0xb
 3356 0259 01       		.uleb128 0x1
 3357 025a 13       		.uleb128 0x13
 3358 025b 00       		.byte	0
ARM GAS  /var/folders/t8/16hdwfmd2fg_d3q6dgx6bpmw0000gn/T//cc63w6BA.s 			page 60


 3359 025c 00       		.byte	0
 3360 025d 30       		.uleb128 0x30
 3361 025e 1D       		.uleb128 0x1d
 3362 025f 01       		.byte	0x1
 3363 0260 31       		.uleb128 0x31
 3364 0261 13       		.uleb128 0x13
 3365 0262 11       		.uleb128 0x11
 3366 0263 01       		.uleb128 0x1
 3367 0264 12       		.uleb128 0x12
 3368 0265 06       		.uleb128 0x6
 3369 0266 58       		.uleb128 0x58
 3370 0267 0B       		.uleb128 0xb
 3371 0268 59       		.uleb128 0x59
 3372 0269 05       		.uleb128 0x5
 3373 026a 01       		.uleb128 0x1
 3374 026b 13       		.uleb128 0x13
 3375 026c 00       		.byte	0
 3376 026d 00       		.byte	0
 3377 026e 31       		.uleb128 0x31
 3378 026f 1D       		.uleb128 0x1d
 3379 0270 00       		.byte	0
 3380 0271 31       		.uleb128 0x31
 3381 0272 13       		.uleb128 0x13
 3382 0273 11       		.uleb128 0x11
 3383 0274 01       		.uleb128 0x1
 3384 0275 12       		.uleb128 0x12
 3385 0276 06       		.uleb128 0x6
 3386 0277 58       		.uleb128 0x58
 3387 0278 0B       		.uleb128 0xb
 3388 0279 59       		.uleb128 0x59
 3389 027a 05       		.uleb128 0x5
 3390 027b 00       		.byte	0
 3391 027c 00       		.byte	0
 3392 027d 32       		.uleb128 0x32
 3393 027e 1D       		.uleb128 0x1d
 3394 027f 01       		.byte	0x1
 3395 0280 31       		.uleb128 0x31
 3396 0281 13       		.uleb128 0x13
 3397 0282 52       		.uleb128 0x52
 3398 0283 01       		.uleb128 0x1
 3399 0284 55       		.uleb128 0x55
 3400 0285 17       		.uleb128 0x17
 3401 0286 58       		.uleb128 0x58
 3402 0287 0B       		.uleb128 0xb
 3403 0288 59       		.uleb128 0x59
 3404 0289 0B       		.uleb128 0xb
 3405 028a 01       		.uleb128 0x1
 3406 028b 13       		.uleb128 0x13
 3407 028c 00       		.byte	0
 3408 028d 00       		.byte	0
 3409 028e 33       		.uleb128 0x33
 3410 028f 0B       		.uleb128 0xb
 3411 0290 01       		.byte	0x1
 3412 0291 55       		.uleb128 0x55
 3413 0292 17       		.uleb128 0x17
 3414 0293 00       		.byte	0
 3415 0294 00       		.byte	0
ARM GAS  /var/folders/t8/16hdwfmd2fg_d3q6dgx6bpmw0000gn/T//cc63w6BA.s 			page 61


 3416 0295 34       		.uleb128 0x34
 3417 0296 34       		.uleb128 0x34
 3418 0297 00       		.byte	0
 3419 0298 31       		.uleb128 0x31
 3420 0299 13       		.uleb128 0x13
 3421 029a 00       		.byte	0
 3422 029b 00       		.byte	0
 3423 029c 35       		.uleb128 0x35
 3424 029d 1D       		.uleb128 0x1d
 3425 029e 01       		.byte	0x1
 3426 029f 31       		.uleb128 0x31
 3427 02a0 13       		.uleb128 0x13
 3428 02a1 52       		.uleb128 0x52
 3429 02a2 01       		.uleb128 0x1
 3430 02a3 55       		.uleb128 0x55
 3431 02a4 17       		.uleb128 0x17
 3432 02a5 58       		.uleb128 0x58
 3433 02a6 0B       		.uleb128 0xb
 3434 02a7 59       		.uleb128 0x59
 3435 02a8 0B       		.uleb128 0xb
 3436 02a9 00       		.byte	0
 3437 02aa 00       		.byte	0
 3438 02ab 36       		.uleb128 0x36
 3439 02ac 2E       		.uleb128 0x2e
 3440 02ad 01       		.byte	0x1
 3441 02ae 03       		.uleb128 0x3
 3442 02af 0E       		.uleb128 0xe
 3443 02b0 3A       		.uleb128 0x3a
 3444 02b1 0B       		.uleb128 0xb
 3445 02b2 3B       		.uleb128 0x3b
 3446 02b3 0B       		.uleb128 0xb
 3447 02b4 27       		.uleb128 0x27
 3448 02b5 19       		.uleb128 0x19
 3449 02b6 49       		.uleb128 0x49
 3450 02b7 13       		.uleb128 0x13
 3451 02b8 20       		.uleb128 0x20
 3452 02b9 0B       		.uleb128 0xb
 3453 02ba 01       		.uleb128 0x1
 3454 02bb 13       		.uleb128 0x13
 3455 02bc 00       		.byte	0
 3456 02bd 00       		.byte	0
 3457 02be 37       		.uleb128 0x37
 3458 02bf 05       		.uleb128 0x5
 3459 02c0 00       		.byte	0
 3460 02c1 03       		.uleb128 0x3
 3461 02c2 08       		.uleb128 0x8
 3462 02c3 3A       		.uleb128 0x3a
 3463 02c4 0B       		.uleb128 0xb
 3464 02c5 3B       		.uleb128 0x3b
 3465 02c6 0B       		.uleb128 0xb
 3466 02c7 49       		.uleb128 0x49
 3467 02c8 13       		.uleb128 0x13
 3468 02c9 00       		.byte	0
 3469 02ca 00       		.byte	0
 3470 02cb 38       		.uleb128 0x38
 3471 02cc 2E       		.uleb128 0x2e
 3472 02cd 01       		.byte	0x1
ARM GAS  /var/folders/t8/16hdwfmd2fg_d3q6dgx6bpmw0000gn/T//cc63w6BA.s 			page 62


 3473 02ce 03       		.uleb128 0x3
 3474 02cf 0E       		.uleb128 0xe
 3475 02d0 3A       		.uleb128 0x3a
 3476 02d1 0B       		.uleb128 0xb
 3477 02d2 3B       		.uleb128 0x3b
 3478 02d3 05       		.uleb128 0x5
 3479 02d4 27       		.uleb128 0x27
 3480 02d5 19       		.uleb128 0x19
 3481 02d6 49       		.uleb128 0x49
 3482 02d7 13       		.uleb128 0x13
 3483 02d8 20       		.uleb128 0x20
 3484 02d9 0B       		.uleb128 0xb
 3485 02da 01       		.uleb128 0x1
 3486 02db 13       		.uleb128 0x13
 3487 02dc 00       		.byte	0
 3488 02dd 00       		.byte	0
 3489 02de 39       		.uleb128 0x39
 3490 02df 05       		.uleb128 0x5
 3491 02e0 00       		.byte	0
 3492 02e1 03       		.uleb128 0x3
 3493 02e2 08       		.uleb128 0x8
 3494 02e3 3A       		.uleb128 0x3a
 3495 02e4 0B       		.uleb128 0xb
 3496 02e5 3B       		.uleb128 0x3b
 3497 02e6 05       		.uleb128 0x5
 3498 02e7 49       		.uleb128 0x49
 3499 02e8 13       		.uleb128 0x13
 3500 02e9 00       		.byte	0
 3501 02ea 00       		.byte	0
 3502 02eb 3A       		.uleb128 0x3a
 3503 02ec 2E       		.uleb128 0x2e
 3504 02ed 01       		.byte	0x1
 3505 02ee 03       		.uleb128 0x3
 3506 02ef 0E       		.uleb128 0xe
 3507 02f0 3A       		.uleb128 0x3a
 3508 02f1 0B       		.uleb128 0xb
 3509 02f2 3B       		.uleb128 0x3b
 3510 02f3 05       		.uleb128 0x5
 3511 02f4 27       		.uleb128 0x27
 3512 02f5 19       		.uleb128 0x19
 3513 02f6 20       		.uleb128 0x20
 3514 02f7 0B       		.uleb128 0xb
 3515 02f8 01       		.uleb128 0x1
 3516 02f9 13       		.uleb128 0x13
 3517 02fa 00       		.byte	0
 3518 02fb 00       		.byte	0
 3519 02fc 3B       		.uleb128 0x3b
 3520 02fd 34       		.uleb128 0x34
 3521 02fe 00       		.byte	0
 3522 02ff 03       		.uleb128 0x3
 3523 0300 0E       		.uleb128 0xe
 3524 0301 49       		.uleb128 0x49
 3525 0302 13       		.uleb128 0x13
 3526 0303 34       		.uleb128 0x34
 3527 0304 19       		.uleb128 0x19
 3528 0305 1C       		.uleb128 0x1c
 3529 0306 0E       		.uleb128 0xe
ARM GAS  /var/folders/t8/16hdwfmd2fg_d3q6dgx6bpmw0000gn/T//cc63w6BA.s 			page 63


 3530 0307 00       		.byte	0
 3531 0308 00       		.byte	0
 3532 0309 3C       		.uleb128 0x3c
 3533 030a 2E       		.uleb128 0x2e
 3534 030b 00       		.byte	0
 3535 030c 03       		.uleb128 0x3
 3536 030d 0E       		.uleb128 0xe
 3537 030e 3A       		.uleb128 0x3a
 3538 030f 0B       		.uleb128 0xb
 3539 0310 3B       		.uleb128 0x3b
 3540 0311 05       		.uleb128 0x5
 3541 0312 27       		.uleb128 0x27
 3542 0313 19       		.uleb128 0x19
 3543 0314 20       		.uleb128 0x20
 3544 0315 0B       		.uleb128 0xb
 3545 0316 00       		.byte	0
 3546 0317 00       		.byte	0
 3547 0318 3D       		.uleb128 0x3d
 3548 0319 2E       		.uleb128 0x2e
 3549 031a 00       		.byte	0
 3550 031b 03       		.uleb128 0x3
 3551 031c 0E       		.uleb128 0xe
 3552 031d 3A       		.uleb128 0x3a
 3553 031e 0B       		.uleb128 0xb
 3554 031f 3B       		.uleb128 0x3b
 3555 0320 0B       		.uleb128 0xb
 3556 0321 27       		.uleb128 0x27
 3557 0322 19       		.uleb128 0x19
 3558 0323 20       		.uleb128 0x20
 3559 0324 0B       		.uleb128 0xb
 3560 0325 00       		.byte	0
 3561 0326 00       		.byte	0
 3562 0327 3E       		.uleb128 0x3e
 3563 0328 2E       		.uleb128 0x2e
 3564 0329 00       		.byte	0
 3565 032a 3F       		.uleb128 0x3f
 3566 032b 19       		.uleb128 0x19
 3567 032c 3C       		.uleb128 0x3c
 3568 032d 19       		.uleb128 0x19
 3569 032e 6E       		.uleb128 0x6e
 3570 032f 0E       		.uleb128 0xe
 3571 0330 03       		.uleb128 0x3
 3572 0331 0E       		.uleb128 0xe
 3573 0332 3A       		.uleb128 0x3a
 3574 0333 0B       		.uleb128 0xb
 3575 0334 3B       		.uleb128 0x3b
 3576 0335 0B       		.uleb128 0xb
 3577 0336 00       		.byte	0
 3578 0337 00       		.byte	0
 3579 0338 3F       		.uleb128 0x3f
 3580 0339 2E       		.uleb128 0x2e
 3581 033a 00       		.byte	0
 3582 033b 3F       		.uleb128 0x3f
 3583 033c 19       		.uleb128 0x19
 3584 033d 3C       		.uleb128 0x3c
 3585 033e 19       		.uleb128 0x19
 3586 033f 6E       		.uleb128 0x6e
ARM GAS  /var/folders/t8/16hdwfmd2fg_d3q6dgx6bpmw0000gn/T//cc63w6BA.s 			page 64


 3587 0340 0E       		.uleb128 0xe
 3588 0341 03       		.uleb128 0x3
 3589 0342 0E       		.uleb128 0xe
 3590 0343 3A       		.uleb128 0x3a
 3591 0344 0B       		.uleb128 0xb
 3592 0345 3B       		.uleb128 0x3b
 3593 0346 05       		.uleb128 0x5
 3594 0347 00       		.byte	0
 3595 0348 00       		.byte	0
 3596 0349 00       		.byte	0
 3597              		.section	.debug_loc,"",%progbits
 3598              	.Ldebug_loc0:
 3599              	.LLST7:
 3600 0000 00000000 		.4byte	.LVL35
 3601 0004 07000000 		.4byte	.LVL36-1
 3602 0008 0100     		.2byte	0x1
 3603 000a 50       		.byte	0x50
 3604 000b 07000000 		.4byte	.LVL36-1
 3605 000f 18000000 		.4byte	.LVL41
 3606 0013 0100     		.2byte	0x1
 3607 0015 54       		.byte	0x54
 3608 0016 18000000 		.4byte	.LVL41
 3609 001a 1A000000 		.4byte	.LFE142
 3610 001e 0400     		.2byte	0x4
 3611 0020 F3       		.byte	0xf3
 3612 0021 01       		.uleb128 0x1
 3613 0022 50       		.byte	0x50
 3614 0023 9F       		.byte	0x9f
 3615 0024 00000000 		.4byte	0
 3616 0028 00000000 		.4byte	0
 3617              	.LLST8:
 3618 002c 08000000 		.4byte	.LVL36
 3619 0030 0D000000 		.4byte	.LVL38-1
 3620 0034 0100     		.2byte	0x1
 3621 0036 50       		.byte	0x50
 3622 0037 0E000000 		.4byte	.LVL38
 3623 003b 1A000000 		.4byte	.LFE142
 3624 003f 0100     		.2byte	0x1
 3625 0041 50       		.byte	0x50
 3626 0042 00000000 		.4byte	0
 3627 0046 00000000 		.4byte	0
 3628              	.LLST5:
 3629 004a 00000000 		.4byte	.LVL30
 3630 004e 07000000 		.4byte	.LVL31-1
 3631 0052 0100     		.2byte	0x1
 3632 0054 50       		.byte	0x50
 3633 0055 07000000 		.4byte	.LVL31-1
 3634 0059 1C000000 		.4byte	.LVL33
 3635 005d 0100     		.2byte	0x1
 3636 005f 54       		.byte	0x54
 3637 0060 1C000000 		.4byte	.LVL33
 3638 0064 20000000 		.4byte	.LFE141
 3639 0068 0400     		.2byte	0x4
 3640 006a F3       		.byte	0xf3
 3641 006b 01       		.uleb128 0x1
 3642 006c 50       		.byte	0x50
 3643 006d 9F       		.byte	0x9f
ARM GAS  /var/folders/t8/16hdwfmd2fg_d3q6dgx6bpmw0000gn/T//cc63w6BA.s 			page 65


 3644 006e 00000000 		.4byte	0
 3645 0072 00000000 		.4byte	0
 3646              	.LLST6:
 3647 0076 08000000 		.4byte	.LVL31
 3648 007a 15000000 		.4byte	.LVL32-1
 3649 007e 0100     		.2byte	0x1
 3650 0080 50       		.byte	0x50
 3651 0081 16000000 		.4byte	.LVL32
 3652 0085 1E000000 		.4byte	.LVL34
 3653 0089 0100     		.2byte	0x1
 3654 008b 50       		.byte	0x50
 3655 008c 00000000 		.4byte	0
 3656 0090 00000000 		.4byte	0
 3657              	.LLST3:
 3658 0094 00000000 		.4byte	.LVL18
 3659 0098 07000000 		.4byte	.LVL19-1
 3660 009c 0100     		.2byte	0x1
 3661 009e 50       		.byte	0x50
 3662 009f 07000000 		.4byte	.LVL19-1
 3663 00a3 24000000 		.4byte	.LVL29
 3664 00a7 0100     		.2byte	0x1
 3665 00a9 55       		.byte	0x55
 3666 00aa 24000000 		.4byte	.LVL29
 3667 00ae 26000000 		.4byte	.LFE140
 3668 00b2 0400     		.2byte	0x4
 3669 00b4 F3       		.byte	0xf3
 3670 00b5 01       		.uleb128 0x1
 3671 00b6 50       		.byte	0x50
 3672 00b7 9F       		.byte	0x9f
 3673 00b8 00000000 		.4byte	0
 3674 00bc 00000000 		.4byte	0
 3675              	.LLST4:
 3676 00c0 0A000000 		.4byte	.LVL20
 3677 00c4 0C000000 		.4byte	.LVL21
 3678 00c8 0100     		.2byte	0x1
 3679 00ca 50       		.byte	0x50
 3680 00cb 0C000000 		.4byte	.LVL21
 3681 00cf 14000000 		.4byte	.LVL23
 3682 00d3 0100     		.2byte	0x1
 3683 00d5 54       		.byte	0x54
 3684 00d6 14000000 		.4byte	.LVL23
 3685 00da 1A000000 		.4byte	.LVL25
 3686 00de 0100     		.2byte	0x1
 3687 00e0 50       		.byte	0x50
 3688 00e1 1A000000 		.4byte	.LVL25
 3689 00e5 24000000 		.4byte	.LVL28
 3690 00e9 0100     		.2byte	0x1
 3691 00eb 54       		.byte	0x54
 3692 00ec 24000000 		.4byte	.LVL28
 3693 00f0 26000000 		.4byte	.LFE140
 3694 00f4 0100     		.2byte	0x1
 3695 00f6 50       		.byte	0x50
 3696 00f7 00000000 		.4byte	0
 3697 00fb 00000000 		.4byte	0
 3698              	.LLST1:
 3699 00ff 00000000 		.4byte	.LVL6
 3700 0103 09000000 		.4byte	.LVL7-1
ARM GAS  /var/folders/t8/16hdwfmd2fg_d3q6dgx6bpmw0000gn/T//cc63w6BA.s 			page 66


 3701 0107 0100     		.2byte	0x1
 3702 0109 50       		.byte	0x50
 3703 010a 09000000 		.4byte	.LVL7-1
 3704 010e 3E000000 		.4byte	.LVL13
 3705 0112 0100     		.2byte	0x1
 3706 0114 56       		.byte	0x56
 3707 0115 3E000000 		.4byte	.LVL13
 3708 0119 40000000 		.4byte	.LVL14
 3709 011d 0400     		.2byte	0x4
 3710 011f F3       		.byte	0xf3
 3711 0120 01       		.uleb128 0x1
 3712 0121 50       		.byte	0x50
 3713 0122 9F       		.byte	0x9f
 3714 0123 40000000 		.4byte	.LVL14
 3715 0127 64000000 		.4byte	.LFE139
 3716 012b 0100     		.2byte	0x1
 3717 012d 56       		.byte	0x56
 3718 012e 00000000 		.4byte	0
 3719 0132 00000000 		.4byte	0
 3720              	.LLST2:
 3721 0136 0C000000 		.4byte	.LVL8
 3722 013a 3E000000 		.4byte	.LVL12
 3723 013e 0100     		.2byte	0x1
 3724 0140 54       		.byte	0x54
 3725 0141 3E000000 		.4byte	.LVL12
 3726 0145 40000000 		.4byte	.LVL14
 3727 0149 0100     		.2byte	0x1
 3728 014b 50       		.byte	0x50
 3729 014c 40000000 		.4byte	.LVL14
 3730 0150 54000000 		.4byte	.LVL17
 3731 0154 0100     		.2byte	0x1
 3732 0156 54       		.byte	0x54
 3733 0157 54000000 		.4byte	.LVL17
 3734 015b 64000000 		.4byte	.LFE139
 3735 015f 0200     		.2byte	0x2
 3736 0161 76       		.byte	0x76
 3737 0162 10       		.sleb128 16
 3738 0163 00000000 		.4byte	0
 3739 0167 00000000 		.4byte	0
 3740              	.LLST0:
 3741 016b 0E000000 		.4byte	.LVL1
 3742 016f 2C000000 		.4byte	.LVL3
 3743 0173 0100     		.2byte	0x1
 3744 0175 55       		.byte	0x55
 3745 0176 2C000000 		.4byte	.LVL3
 3746 017a 2E000000 		.4byte	.LVL4
 3747 017e 0100     		.2byte	0x1
 3748 0180 50       		.byte	0x50
 3749 0181 2E000000 		.4byte	.LVL4
 3750 0185 40000000 		.4byte	.LFE138
 3751 0189 0100     		.2byte	0x1
 3752 018b 55       		.byte	0x55
 3753 018c 00000000 		.4byte	0
 3754 0190 00000000 		.4byte	0
 3755              		.section	.debug_aranges,"",%progbits
 3756 0000 3C000000 		.4byte	0x3c
 3757 0004 0200     		.2byte	0x2
ARM GAS  /var/folders/t8/16hdwfmd2fg_d3q6dgx6bpmw0000gn/T//cc63w6BA.s 			page 67


 3758 0006 00000000 		.4byte	.Ldebug_info0
 3759 000a 04       		.byte	0x4
 3760 000b 00       		.byte	0
 3761 000c 0000     		.2byte	0
 3762 000e 0000     		.2byte	0
 3763 0010 00000000 		.4byte	.LFB138
 3764 0014 40000000 		.4byte	.LFE138-.LFB138
 3765 0018 00000000 		.4byte	.LFB139
 3766 001c 64000000 		.4byte	.LFE139-.LFB139
 3767 0020 00000000 		.4byte	.LFB140
 3768 0024 26000000 		.4byte	.LFE140-.LFB140
 3769 0028 00000000 		.4byte	.LFB141
 3770 002c 20000000 		.4byte	.LFE141-.LFB141
 3771 0030 00000000 		.4byte	.LFB142
 3772 0034 1A000000 		.4byte	.LFE142-.LFB142
 3773 0038 00000000 		.4byte	0
 3774 003c 00000000 		.4byte	0
 3775              		.section	.debug_ranges,"",%progbits
 3776              	.Ldebug_ranges0:
 3777 0000 14000000 		.4byte	.LBB43
 3778 0004 2A000000 		.4byte	.LBE43
 3779 0008 2E000000 		.4byte	.LBB49
 3780 000c 40000000 		.4byte	.LBE49
 3781 0010 00000000 		.4byte	0
 3782 0014 00000000 		.4byte	0
 3783 0018 20000000 		.4byte	.LBB65
 3784 001c 36000000 		.4byte	.LBE65
 3785 0020 40000000 		.4byte	.LBB71
 3786 0024 48000000 		.4byte	.LBE71
 3787 0028 00000000 		.4byte	0
 3788 002c 00000000 		.4byte	0
 3789 0030 00000000 		.4byte	.LFB138
 3790 0034 40000000 		.4byte	.LFE138
 3791 0038 00000000 		.4byte	.LFB139
 3792 003c 64000000 		.4byte	.LFE139
 3793 0040 00000000 		.4byte	.LFB140
 3794 0044 26000000 		.4byte	.LFE140
 3795 0048 00000000 		.4byte	.LFB141
 3796 004c 20000000 		.4byte	.LFE141
 3797 0050 00000000 		.4byte	.LFB142
 3798 0054 1A000000 		.4byte	.LFE142
 3799 0058 00000000 		.4byte	0
 3800 005c 00000000 		.4byte	0
 3801              		.section	.debug_line,"",%progbits
 3802              	.Ldebug_line0:
 3803 0000 E4040000 		.section	.debug_str,"MS",%progbits,1
 3803      02001004 
 3803      00000201 
 3803      FB0E0D00 
 3803      01010101 
 3804              	.LASF160:
 3805 0000 63685F74 		.ascii	"ch_threads_list\000"
 3805      68726561 
 3805      64735F6C 
 3805      69737400 
 3806              	.LASF207:
 3807 0010 74696D65 		.ascii	"timesize\000"
ARM GAS  /var/folders/t8/16hdwfmd2fg_d3q6dgx6bpmw0000gn/T//cc63w6BA.s 			page 68


 3807      73697A65 
 3807      00
 3808              	.LASF241:
 3809 0019 474E5520 		.ascii	"GNU C99 7.2.1 20170904 (release) [ARM/embedded-7-br"
 3809      43393920 
 3809      372E322E 
 3809      31203230 
 3809      31373039 
 3810 004c 616E6368 		.ascii	"anch revision 255204] -mcpu=cortex-m0plus -mno-thum"
 3810      20726576 
 3810      6973696F 
 3810      6E203235 
 3810      35323034 
 3811 007f 622D696E 		.ascii	"b-interwork -mthumb -ggdb -O2 -std=gnu99 -fomit-fra"
 3811      74657277 
 3811      6F726B20 
 3811      2D6D7468 
 3811      756D6220 
 3812 00b2 6D652D70 		.ascii	"me-pointer -falign-functions=16 -ffunction-sections"
 3812      6F696E74 
 3812      6572202D 
 3812      66616C69 
 3812      676E2D66 
 3813 00e5 202D6664 		.ascii	" -fdata-sections -fno-common\000"
 3813      6174612D 
 3813      73656374 
 3813      696F6E73 
 3813      202D666E 
 3814              	.LASF146:
 3815 0102 6E616D65 		.ascii	"name\000"
 3815      00
 3816              	.LASF238:
 3817 0107 5F646267 		.ascii	"_dbg_check_unlock\000"
 3817      5F636865 
 3817      636B5F75 
 3817      6E6C6F63 
 3817      6B00
 3818              	.LASF186:
 3819 0119 72656761 		.ascii	"regarm_t\000"
 3819      726D5F74 
 3819      00
 3820              	.LASF42:
 3821 0122 5F6F6E5F 		.ascii	"_on_exit_args\000"
 3821      65786974 
 3821      5F617267 
 3821      7300
 3822              	.LASF109:
 3823 0130 5F776374 		.ascii	"_wctomb_state\000"
 3823      6F6D625F 
 3823      73746174 
 3823      6500
 3824              	.LASF149:
 3825 013e 666C6167 		.ascii	"flags\000"
 3825      7300
 3826              	.LASF139:
 3827 0144 73797374 		.ascii	"systime_t\000"
 3827      696D655F 
ARM GAS  /var/folders/t8/16hdwfmd2fg_d3q6dgx6bpmw0000gn/T//cc63w6BA.s 			page 69


 3827      7400
 3828              	.LASF156:
 3829 014e 7265616C 		.ascii	"realprio\000"
 3829      7072696F 
 3829      00
 3830              	.LASF106:
 3831 0157 5F723438 		.ascii	"_r48\000"
 3831      00
 3832              	.LASF226:
 3833 015c 63685265 		.ascii	"chRegNextThread\000"
 3833      674E6578 
 3833      74546872 
 3833      65616400 
 3834              	.LASF224:
 3835 016c 63685265 		.ascii	"chRegFindThreadByPointer\000"
 3835      6746696E 
 3835      64546872 
 3835      65616442 
 3835      79506F69 
 3836              	.LASF111:
 3837 0185 5F736967 		.ascii	"_signal_buf\000"
 3837      6E616C5F 
 3837      62756600 
 3838              	.LASF154:
 3839 0191 6570656E 		.ascii	"epending\000"
 3839      64696E67 
 3839      00
 3840              	.LASF0:
 3841 019a 756E7369 		.ascii	"unsigned int\000"
 3841      676E6564 
 3841      20696E74 
 3841      00
 3842              	.LASF161:
 3843 01a7 6E657874 		.ascii	"next\000"
 3843      00
 3844              	.LASF205:
 3845 01ac 76657273 		.ascii	"version\000"
 3845      696F6E00 
 3846              	.LASF159:
 3847 01b4 74687265 		.ascii	"threads_list_t\000"
 3847      6164735F 
 3847      6C697374 
 3847      5F7400
 3848              	.LASF182:
 3849 01c3 63685F73 		.ascii	"ch_system\000"
 3849      79737465 
 3849      6D00
 3850              	.LASF56:
 3851 01cd 5F6C6266 		.ascii	"_lbfsize\000"
 3851      73697A65 
 3851      00
 3852              	.LASF54:
 3853 01d6 5F666C61 		.ascii	"_flags\000"
 3853      677300
 3854              	.LASF8:
 3855 01dd 5F5F696E 		.ascii	"__int32_t\000"
 3855      7433325F 
ARM GAS  /var/folders/t8/16hdwfmd2fg_d3q6dgx6bpmw0000gn/T//cc63w6BA.s 			page 70


 3855      7400
 3856              	.LASF150:
 3857 01e7 72656673 		.ascii	"refs\000"
 3857      00
 3858              	.LASF71:
 3859 01ec 5F657272 		.ascii	"_errno\000"
 3859      6E6F00
 3860              	.LASF219:
 3861 01f3 6F66665F 		.ascii	"off_time\000"
 3861      74696D65 
 3861      00
 3862              	.LASF192:
 3863 01fc 77746F62 		.ascii	"wtobjp\000"
 3863      6A7000
 3864              	.LASF233:
 3865 0203 706F7274 		.ascii	"port_lock\000"
 3865      5F6C6F63 
 3865      6B00
 3866              	.LASF184:
 3867 020d 76746C69 		.ascii	"vtlist\000"
 3867      737400
 3868              	.LASF188:
 3869 0214 706F7274 		.ascii	"port_context\000"
 3869      5F636F6E 
 3869      74657874 
 3869      00
 3870              	.LASF166:
 3871 0221 63685F72 		.ascii	"ch_ready_list\000"
 3871      65616479 
 3871      5F6C6973 
 3871      7400
 3872              	.LASF68:
 3873 022f 5F6D6273 		.ascii	"_mbstate\000"
 3873      74617465 
 3873      00
 3874              	.LASF58:
 3875 0238 5F726561 		.ascii	"_read\000"
 3875      6400
 3876              	.LASF197:
 3877 023e 65776D61 		.ascii	"ewmask\000"
 3877      736B00
 3878              	.LASF113:
 3879 0245 5F6D6272 		.ascii	"_mbrlen_state\000"
 3879      6C656E5F 
 3879      73746174 
 3879      6500
 3880              	.LASF164:
 3881 0253 70726576 		.ascii	"prev\000"
 3881      00
 3882              	.LASF163:
 3883 0258 63685F74 		.ascii	"ch_threads_queue\000"
 3883      68726561 
 3883      64735F71 
 3883      75657565 
 3883      00
 3884              	.LASF220:
 3885 0269 63686465 		.ascii	"chdebug_t\000"
ARM GAS  /var/folders/t8/16hdwfmd2fg_d3q6dgx6bpmw0000gn/T//cc63w6BA.s 			page 71


 3885      6275675F 
 3885      7400
 3886              	.LASF73:
 3887 0273 5F737464 		.ascii	"_stdout\000"
 3887      6F757400 
 3888              	.LASF17:
 3889 027b 5F66706F 		.ascii	"_fpos_t\000"
 3889      735F7400 
 3890              	.LASF211:
 3891 0283 6F66665F 		.ascii	"off_newer\000"
 3891      6E657765 
 3891      7200
 3892              	.LASF49:
 3893 028d 5F666E73 		.ascii	"_fns\000"
 3893      00
 3894              	.LASF57:
 3895 0292 5F636F6F 		.ascii	"_cookie\000"
 3895      6B696500 
 3896              	.LASF177:
 3897 029a 63685F73 		.ascii	"ch_system_debug\000"
 3897      79737465 
 3897      6D5F6465 
 3897      62756700 
 3898              	.LASF31:
 3899 02aa 5F426967 		.ascii	"_Bigint\000"
 3899      696E7400 
 3900              	.LASF39:
 3901 02b2 5F5F746D 		.ascii	"__tm_wday\000"
 3901      5F776461 
 3901      7900
 3902              	.LASF81:
 3903 02bc 5F726573 		.ascii	"_result\000"
 3903      756C7400 
 3904              	.LASF129:
 3905 02c4 75696E74 		.ascii	"uint32_t\000"
 3905      33325F74 
 3905      00
 3906              	.LASF35:
 3907 02cd 5F5F746D 		.ascii	"__tm_hour\000"
 3907      5F686F75 
 3907      7200
 3908              	.LASF194:
 3909 02d7 73656E74 		.ascii	"sentmsg\000"
 3909      6D736700 
 3910              	.LASF137:
 3911 02df 6576656E 		.ascii	"eventmask_t\000"
 3911      746D6173 
 3911      6B5F7400 
 3912              	.LASF21:
 3913 02eb 5F5F636F 		.ascii	"__count\000"
 3913      756E7400 
 3914              	.LASF34:
 3915 02f3 5F5F746D 		.ascii	"__tm_min\000"
 3915      5F6D696E 
 3915      00
 3916              	.LASF124:
 3917 02fc 5F696D70 		.ascii	"_impure_ptr\000"
ARM GAS  /var/folders/t8/16hdwfmd2fg_d3q6dgx6bpmw0000gn/T//cc63w6BA.s 			page 72


 3917      7572655F 
 3917      70747200 
 3918              	.LASF135:
 3919 0308 74707269 		.ascii	"tprio_t\000"
 3919      6F5F7400 
 3920              	.LASF153:
 3921 0310 6D736771 		.ascii	"msgqueue\000"
 3921      75657565 
 3921      00
 3922              	.LASF119:
 3923 0319 5F6E6578 		.ascii	"_nextf\000"
 3923      746600
 3924              	.LASF96:
 3925 0320 5F72616E 		.ascii	"_rand48\000"
 3925      64343800 
 3926              	.LASF223:
 3927 0328 63685265 		.ascii	"chRegFindThreadByWorkingArea\000"
 3927      6746696E 
 3927      64546872 
 3927      65616442 
 3927      79576F72 
 3928              	.LASF82:
 3929 0345 5F726573 		.ascii	"_result_k\000"
 3929      756C745F 
 3929      6B00
 3930              	.LASF14:
 3931 034f 6C6F6E67 		.ascii	"long long unsigned int\000"
 3931      206C6F6E 
 3931      6720756E 
 3931      7369676E 
 3931      65642069 
 3932              	.LASF102:
 3933 0366 5F617363 		.ascii	"_asctime_buf\000"
 3933      74696D65 
 3933      5F627566 
 3933      00
 3934              	.LASF53:
 3935 0373 5F5F7346 		.ascii	"__sFILE\000"
 3935      494C4500 
 3936              	.LASF30:
 3937 037b 5F776473 		.ascii	"_wds\000"
 3937      00
 3938              	.LASF170:
 3939 0380 63685F76 		.ascii	"ch_virtual_timer\000"
 3939      69727475 
 3939      616C5F74 
 3939      696D6572 
 3939      00
 3940              	.LASF6:
 3941 0391 5F5F7569 		.ascii	"__uint16_t\000"
 3941      6E743136 
 3941      5F7400
 3942              	.LASF138:
 3943 039c 636E745F 		.ascii	"cnt_t\000"
 3943      7400
 3944              	.LASF92:
 3945 03a2 5F5F4649 		.ascii	"__FILE\000"
ARM GAS  /var/folders/t8/16hdwfmd2fg_d3q6dgx6bpmw0000gn/T//cc63w6BA.s 			page 73


 3945      4C4500
 3946              	.LASF65:
 3947 03a9 5F6F6666 		.ascii	"_offset\000"
 3947      73657400 
 3948              	.LASF214:
 3949 03b1 6F66665F 		.ascii	"off_stklimit\000"
 3949      73746B6C 
 3949      696D6974 
 3949      00
 3950              	.LASF179:
 3951 03be 6973725F 		.ascii	"isr_cnt\000"
 3951      636E7400 
 3952              	.LASF200:
 3953 03c6 6F776E65 		.ascii	"owner\000"
 3953      7200
 3954              	.LASF162:
 3955 03cc 74687265 		.ascii	"threads_queue_t\000"
 3955      6164735F 
 3955      71756575 
 3955      655F7400 
 3956              	.LASF155:
 3957 03dc 6D74786C 		.ascii	"mtxlist\000"
 3957      69737400 
 3958              	.LASF174:
 3959 03e4 63685F76 		.ascii	"ch_virtual_timers_list\000"
 3959      69727475 
 3959      616C5F74 
 3959      696D6572 
 3959      735F6C69 
 3960              	.LASF76:
 3961 03fb 5F656D65 		.ascii	"_emergency\000"
 3961      7267656E 
 3961      637900
 3962              	.LASF140:
 3963 0406 74687265 		.ascii	"thread_t\000"
 3963      61645F74 
 3963      00
 3964              	.LASF212:
 3965 040f 6F66665F 		.ascii	"off_older\000"
 3965      6F6C6465 
 3965      7200
 3966              	.LASF215:
 3967 0419 6F66665F 		.ascii	"off_state\000"
 3967      73746174 
 3967      6500
 3968              	.LASF2:
 3969 0423 73697A65 		.ascii	"size_t\000"
 3969      5F7400
 3970              	.LASF190:
 3971 042a 7264796D 		.ascii	"rdymsg\000"
 3971      736700
 3972              	.LASF168:
 3973 0431 76746675 		.ascii	"vtfunc_t\000"
 3973      6E635F74 
 3973      00
 3974              	.LASF234:
 3975 043a 5F5F6469 		.ascii	"__disable_irq\000"
ARM GAS  /var/folders/t8/16hdwfmd2fg_d3q6dgx6bpmw0000gn/T//cc63w6BA.s 			page 74


 3975      7361626C 
 3975      655F6972 
 3975      7100
 3976              	.LASF33:
 3977 0448 5F5F746D 		.ascii	"__tm_sec\000"
 3977      5F736563 
 3977      00
 3978              	.LASF172:
 3979 0451 66756E63 		.ascii	"func\000"
 3979      00
 3980              	.LASF40:
 3981 0456 5F5F746D 		.ascii	"__tm_yday\000"
 3981      5F796461 
 3981      7900
 3982              	.LASF75:
 3983 0460 5F696E63 		.ascii	"_inc\000"
 3983      00
 3984              	.LASF48:
 3985 0465 5F696E64 		.ascii	"_ind\000"
 3985      00
 3986              	.LASF27:
 3987 046a 5F6E6578 		.ascii	"_next\000"
 3987      7400
 3988              	.LASF199:
 3989 0470 63685F6D 		.ascii	"ch_mutex\000"
 3989      75746578 
 3989      00
 3990              	.LASF115:
 3991 0479 5F6D6273 		.ascii	"_mbsrtowcs_state\000"
 3991      72746F77 
 3991      63735F73 
 3991      74617465 
 3991      00
 3992              	.LASF13:
 3993 048a 5F5F7569 		.ascii	"__uint64_t\000"
 3993      6E743634 
 3993      5F7400
 3994              	.LASF229:
 3995 0495 63685468 		.ascii	"chThdGetWorkingAreaX\000"
 3995      64476574 
 3995      576F726B 
 3995      696E6741 
 3995      72656158 
 3996              	.LASF210:
 3997 04aa 6F66665F 		.ascii	"off_ctx\000"
 3997      63747800 
 3998              	.LASF231:
 3999 04b2 63685379 		.ascii	"chSysLock\000"
 3999      734C6F63 
 3999      6B00
 4000              	.LASF22:
 4001 04bc 5F5F7661 		.ascii	"__value\000"
 4001      6C756500 
 4002              	.LASF83:
 4003 04c4 5F703573 		.ascii	"_p5s\000"
 4003      00
 4004              	.LASF216:
ARM GAS  /var/folders/t8/16hdwfmd2fg_d3q6dgx6bpmw0000gn/T//cc63w6BA.s 			page 75


 4005 04c9 6F66665F 		.ascii	"off_flags\000"
 4005      666C6167 
 4005      7300
 4006              	.LASF143:
 4007 04d3 7072696F 		.ascii	"prio\000"
 4007      00
 4008              	.LASF117:
 4009 04d8 5F776373 		.ascii	"_wcsrtombs_state\000"
 4009      72746F6D 
 4009      62735F73 
 4009      74617465 
 4009      00
 4010              	.LASF107:
 4011 04e9 5F6D626C 		.ascii	"_mblen_state\000"
 4011      656E5F73 
 4011      74617465 
 4011      00
 4012              	.LASF25:
 4013 04f6 63686172 		.ascii	"char\000"
 4013      00
 4014              	.LASF36:
 4015 04fb 5F5F746D 		.ascii	"__tm_mday\000"
 4015      5F6D6461 
 4015      7900
 4016              	.LASF89:
 4017 0505 5F736967 		.ascii	"_sig_func\000"
 4017      5F66756E 
 4017      6300
 4018              	.LASF114:
 4019 050f 5F6D6272 		.ascii	"_mbrtowc_state\000"
 4019      746F7763 
 4019      5F737461 
 4019      746500
 4020              	.LASF88:
 4021 051e 5F617465 		.ascii	"_atexit0\000"
 4021      78697430 
 4021      00
 4022              	.LASF158:
 4023 0527 74687265 		.ascii	"thread_reference_t\000"
 4023      61645F72 
 4023      65666572 
 4023      656E6365 
 4023      5F7400
 4024              	.LASF147:
 4025 053a 77616261 		.ascii	"wabase\000"
 4025      736500
 4026              	.LASF201:
 4027 0541 63685F69 		.ascii	"ch_idle_thread_wa\000"
 4027      646C655F 
 4027      74687265 
 4027      61645F77 
 4027      6100
 4028              	.LASF228:
 4029 0553 63685265 		.ascii	"chRegGetThreadNameX\000"
 4029      67476574 
 4029      54687265 
 4029      61644E61 
ARM GAS  /var/folders/t8/16hdwfmd2fg_d3q6dgx6bpmw0000gn/T//cc63w6BA.s 			page 76


 4029      6D655800 
 4030              	.LASF132:
 4031 0567 74737461 		.ascii	"tstate_t\000"
 4031      74655F74 
 4031      00
 4032              	.LASF24:
 4033 0570 5F666C6F 		.ascii	"_flock_t\000"
 4033      636B5F74 
 4033      00
 4034              	.LASF236:
 4035 0579 73747263 		.ascii	"strcmp\000"
 4035      6D7000
 4036              	.LASF19:
 4037 0580 5F5F7763 		.ascii	"__wch\000"
 4037      6800
 4038              	.LASF95:
 4039 0586 5F696F62 		.ascii	"_iobs\000"
 4039      7300
 4040              	.LASF126:
 4041 058c 75696E74 		.ascii	"uint8_t\000"
 4041      385F7400 
 4042              	.LASF61:
 4043 0594 5F636C6F 		.ascii	"_close\000"
 4043      736500
 4044              	.LASF79:
 4045 059b 5F5F7364 		.ascii	"__sdidinit\000"
 4045      6964696E 
 4045      697400
 4046              	.LASF141:
 4047 05a6 63685F74 		.ascii	"ch_thread\000"
 4047      68726561 
 4047      6400
 4048              	.LASF213:
 4049 05b0 6F66665F 		.ascii	"off_name\000"
 4049      6E616D65 
 4049      00
 4050              	.LASF176:
 4051 05b9 73797374 		.ascii	"system_debug_t\000"
 4051      656D5F64 
 4051      65627567 
 4051      5F7400
 4052              	.LASF72:
 4053 05c8 5F737464 		.ascii	"_stdin\000"
 4053      696E00
 4054              	.LASF104:
 4055 05cf 5F67616D 		.ascii	"_gamma_signgam\000"
 4055      6D615F73 
 4055      69676E67 
 4055      616D00
 4056              	.LASF12:
 4057 05de 6C6F6E67 		.ascii	"long long int\000"
 4057      206C6F6E 
 4057      6720696E 
 4057      7400
 4058              	.LASF203:
 4059 05ec 7A65726F 		.ascii	"zero\000"
 4059      00
ARM GAS  /var/folders/t8/16hdwfmd2fg_d3q6dgx6bpmw0000gn/T//cc63w6BA.s 			page 77


 4060              	.LASF51:
 4061 05f1 5F626173 		.ascii	"_base\000"
 4061      6500
 4062              	.LASF84:
 4063 05f7 5F667265 		.ascii	"_freelist\000"
 4063      656C6973 
 4063      7400
 4064              	.LASF98:
 4065 0601 5F6D756C 		.ascii	"_mult\000"
 4065      7400
 4066              	.LASF26:
 4067 0607 5F5F554C 		.ascii	"__ULong\000"
 4067      6F6E6700 
 4068              	.LASF116:
 4069 060f 5F776372 		.ascii	"_wcrtomb_state\000"
 4069      746F6D62 
 4069      5F737461 
 4069      746500
 4070              	.LASF55:
 4071 061e 5F66696C 		.ascii	"_file\000"
 4071      6500
 4072              	.LASF169:
 4073 0624 76697274 		.ascii	"virtual_timer_t\000"
 4073      75616C5F 
 4073      74696D65 
 4073      725F7400 
 4074              	.LASF136:
 4075 0634 6D73675F 		.ascii	"msg_t\000"
 4075      7400
 4076              	.LASF80:
 4077 063a 5F5F636C 		.ascii	"__cleanup\000"
 4077      65616E75 
 4077      7000
 4078              	.LASF23:
 4079 0644 5F6D6273 		.ascii	"_mbstate_t\000"
 4079      74617465 
 4079      5F7400
 4080              	.LASF204:
 4081 064f 73697A65 		.ascii	"size\000"
 4081      00
 4082              	.LASF206:
 4083 0654 70747273 		.ascii	"ptrsize\000"
 4083      697A6500 
 4084              	.LASF41:
 4085 065c 5F5F746D 		.ascii	"__tm_isdst\000"
 4085      5F697364 
 4085      737400
 4086              	.LASF134:
 4087 0667 74736C69 		.ascii	"tslices_t\000"
 4087      6365735F 
 4087      7400
 4088              	.LASF237:
 4089 0671 5F646267 		.ascii	"_dbg_check_lock\000"
 4089      5F636865 
 4089      636B5F6C 
 4089      6F636B00 
 4090              	.LASF243:
ARM GAS  /var/folders/t8/16hdwfmd2fg_d3q6dgx6bpmw0000gn/T//cc63w6BA.s 			page 78


 4091 0681 2F557365 		.ascii	"/Users/jpablobr/tmp/tmk/di0ib-tmk_keyboard/keyboard"
 4091      72732F6A 
 4091      7061626C 
 4091      6F62722F 
 4091      746D702F 
 4092 06b4 2F746565 		.ascii	"/teensy_lc_menelaus\000"
 4092      6E73795F 
 4092      6C635F6D 
 4092      656E656C 
 4092      61757300 
 4093              	.LASF240:
 4094 06c8 63685468 		.ascii	"chThdRelease\000"
 4094      6452656C 
 4094      65617365 
 4094      00
 4095              	.LASF118:
 4096 06d5 5F685F65 		.ascii	"_h_errno\000"
 4096      72726E6F 
 4096      00
 4097              	.LASF178:
 4098 06de 70616E69 		.ascii	"panic_msg\000"
 4098      635F6D73 
 4098      6700
 4099              	.LASF131:
 4100 06e8 746D6F64 		.ascii	"tmode_t\000"
 4100      655F7400 
 4101              	.LASF175:
 4102 06f0 73797374 		.ascii	"systime\000"
 4102      696D6500 
 4103              	.LASF185:
 4104 06f8 6D61696E 		.ascii	"mainthread\000"
 4104      74687265 
 4104      616400
 4105              	.LASF37:
 4106 0703 5F5F746D 		.ascii	"__tm_mon\000"
 4106      5F6D6F6E 
 4106      00
 4107              	.LASF15:
 4108 070c 5F4C4F43 		.ascii	"_LOCK_T\000"
 4108      4B5F5400 
 4109              	.LASF127:
 4110 0714 75696E74 		.ascii	"uint16_t\000"
 4110      31365F74 
 4110      00
 4111              	.LASF59:
 4112 071d 5F777269 		.ascii	"_write\000"
 4112      746500
 4113              	.LASF209:
 4114 0724 6F66665F 		.ascii	"off_prio\000"
 4114      7072696F 
 4114      00
 4115              	.LASF180:
 4116 072d 6C6F636B 		.ascii	"lock_cnt\000"
 4116      5F636E74 
 4116      00
 4117              	.LASF47:
 4118 0736 5F617465 		.ascii	"_atexit\000"
ARM GAS  /var/folders/t8/16hdwfmd2fg_d3q6dgx6bpmw0000gn/T//cc63w6BA.s 			page 79


 4118      78697400 
 4119              	.LASF230:
 4120 073e 5F5F6675 		.ascii	"__func__\000"
 4120      6E635F5F 
 4120      00
 4121              	.LASF5:
 4122 0747 73686F72 		.ascii	"short int\000"
 4122      7420696E 
 4122      7400
 4123              	.LASF9:
 4124 0751 6C6F6E67 		.ascii	"long int\000"
 4124      20696E74 
 4124      00
 4125              	.LASF189:
 4126 075a 706F7274 		.ascii	"port_intctx\000"
 4126      5F696E74 
 4126      63747800 
 4127              	.LASF151:
 4128 0766 70726565 		.ascii	"preempt\000"
 4128      6D707400 
 4129              	.LASF235:
 4130 076e 5F5F656E 		.ascii	"__enable_irq\000"
 4130      61626C65 
 4130      5F697271 
 4130      00
 4131              	.LASF148:
 4132 077b 73746174 		.ascii	"state\000"
 4132      6500
 4133              	.LASF91:
 4134 0781 5F5F7366 		.ascii	"__sf\000"
 4134      00
 4135              	.LASF29:
 4136 0786 5F736967 		.ascii	"_sign\000"
 4136      6E00
 4137              	.LASF66:
 4138 078c 5F646174 		.ascii	"_data\000"
 4138      6100
 4139              	.LASF20:
 4140 0792 5F5F7763 		.ascii	"__wchb\000"
 4140      686200
 4141              	.LASF125:
 4142 0799 5F676C6F 		.ascii	"_global_impure_ptr\000"
 4142      62616C5F 
 4142      696D7075 
 4142      72655F70 
 4142      747200
 4143              	.LASF38:
 4144 07ac 5F5F746D 		.ascii	"__tm_year\000"
 4144      5F796561 
 4144      7200
 4145              	.LASF183:
 4146 07b6 726C6973 		.ascii	"rlist\000"
 4146      7400
 4147              	.LASF103:
 4148 07bc 5F6C6F63 		.ascii	"_localtime_buf\000"
 4148      616C7469 
 4148      6D655F62 
ARM GAS  /var/folders/t8/16hdwfmd2fg_d3q6dgx6bpmw0000gn/T//cc63w6BA.s 			page 80


 4148      756600
 4149              	.LASF121:
 4150 07cb 5F756E75 		.ascii	"_unused\000"
 4150      73656400 
 4151              	.LASF3:
 4152 07d3 5F5F7569 		.ascii	"__uint8_t\000"
 4152      6E74385F 
 4152      7400
 4153              	.LASF87:
 4154 07dd 5F6E6577 		.ascii	"_new\000"
 4154      00
 4155              	.LASF85:
 4156 07e2 5F637674 		.ascii	"_cvtlen\000"
 4156      6C656E00 
 4157              	.LASF28:
 4158 07ea 5F6D6178 		.ascii	"_maxwds\000"
 4158      77647300 
 4159              	.LASF110:
 4160 07f2 5F6C3634 		.ascii	"_l64a_buf\000"
 4160      615F6275 
 4160      6600
 4161              	.LASF202:
 4162 07fc 6964656E 		.ascii	"identifier\000"
 4162      74696669 
 4162      657200
 4163              	.LASF218:
 4164 0807 6F66665F 		.ascii	"off_preempt\000"
 4164      70726565 
 4164      6D707400 
 4165              	.LASF64:
 4166 0813 5F626C6B 		.ascii	"_blksize\000"
 4166      73697A65 
 4166      00
 4167              	.LASF32:
 4168 081c 5F5F746D 		.ascii	"__tm\000"
 4168      00
 4169              	.LASF208:
 4170 0821 74687265 		.ascii	"threadsize\000"
 4170      61647369 
 4170      7A6500
 4171              	.LASF67:
 4172 082c 5F6C6F63 		.ascii	"_lock\000"
 4172      6B00
 4173              	.LASF244:
 4174 0832 63685379 		.ascii	"chSysUnlock\000"
 4174      73556E6C 
 4174      6F636B00 
 4175              	.LASF133:
 4176 083e 74726566 		.ascii	"trefs_t\000"
 4176      735F7400 
 4177              	.LASF11:
 4178 0846 6C6F6E67 		.ascii	"long unsigned int\000"
 4178      20756E73 
 4178      69676E65 
 4178      6420696E 
 4178      7400
 4179              	.LASF165:
ARM GAS  /var/folders/t8/16hdwfmd2fg_d3q6dgx6bpmw0000gn/T//cc63w6BA.s 			page 81


 4180 0858 72656164 		.ascii	"ready_list_t\000"
 4180      795F6C69 
 4180      73745F74 
 4180      00
 4181              	.LASF94:
 4182 0865 5F6E696F 		.ascii	"_niobs\000"
 4182      627300
 4183              	.LASF18:
 4184 086c 77696E74 		.ascii	"wint_t\000"
 4184      5F7400
 4185              	.LASF142:
 4186 0873 71756575 		.ascii	"queue\000"
 4186      6500
 4187              	.LASF128:
 4188 0879 696E7433 		.ascii	"int32_t\000"
 4188      325F7400 
 4189              	.LASF44:
 4190 0881 5F64736F 		.ascii	"_dso_handle\000"
 4190      5F68616E 
 4190      646C6500 
 4191              	.LASF198:
 4192 088d 63685F73 		.ascii	"ch_semaphore\000"
 4192      656D6170 
 4192      686F7265 
 4192      00
 4193              	.LASF122:
 4194 089a 5F5F6C6F 		.ascii	"__lock\000"
 4194      636B00
 4195              	.LASF222:
 4196 08a1 6D757465 		.ascii	"mutex_t\000"
 4196      785F7400 
 4197              	.LASF144:
 4198 08a9 6E657765 		.ascii	"newer\000"
 4198      7200
 4199              	.LASF225:
 4200 08af 63685265 		.ascii	"chRegFindThreadByName\000"
 4200      6746696E 
 4200      64546872 
 4200      65616442 
 4200      794E616D 
 4201              	.LASF86:
 4202 08c5 5F637674 		.ascii	"_cvtbuf\000"
 4202      62756600 
 4203              	.LASF4:
 4204 08cd 756E7369 		.ascii	"unsigned char\000"
 4204      676E6564 
 4204      20636861 
 4204      7200
 4205              	.LASF10:
 4206 08db 5F5F7569 		.ascii	"__uint32_t\000"
 4206      6E743332 
 4206      5F7400
 4207              	.LASF152:
 4208 08e6 77616974 		.ascii	"waiting\000"
 4208      696E6700 
 4209              	.LASF173:
 4210 08ee 76697274 		.ascii	"virtual_timers_list_t\000"
ARM GAS  /var/folders/t8/16hdwfmd2fg_d3q6dgx6bpmw0000gn/T//cc63w6BA.s 			page 82


 4210      75616C5F 
 4210      74696D65 
 4210      72735F6C 
 4210      6973745F 
 4211              	.LASF167:
 4212 0904 63757272 		.ascii	"current\000"
 4212      656E7400 
 4213              	.LASF112:
 4214 090c 5F676574 		.ascii	"_getdate_err\000"
 4214      64617465 
 4214      5F657272 
 4214      00
 4215              	.LASF145:
 4216 0919 6F6C6465 		.ascii	"older\000"
 4216      7200
 4217              	.LASF99:
 4218 091f 5F616464 		.ascii	"_add\000"
 4218      00
 4219              	.LASF227:
 4220 0924 63685265 		.ascii	"chRegFirstThread\000"
 4220      67466972 
 4220      73745468 
 4220      72656164 
 4220      00
 4221              	.LASF50:
 4222 0935 5F5F7362 		.ascii	"__sbuf\000"
 4222      756600
 4223              	.LASF239:
 4224 093c 63685379 		.ascii	"chSysHalt\000"
 4224      7348616C 
 4224      7400
 4225              	.LASF93:
 4226 0946 5F676C75 		.ascii	"_glue\000"
 4226      6500
 4227              	.LASF130:
 4228 094c 75696E74 		.ascii	"uint64_t\000"
 4228      36345F74 
 4228      00
 4229              	.LASF181:
 4230 0955 63685F73 		.ascii	"ch_system_t\000"
 4230      79737465 
 4230      6D5F7400 
 4231              	.LASF90:
 4232 0961 5F5F7367 		.ascii	"__sglue\000"
 4232      6C756500 
 4233              	.LASF193:
 4234 0969 77747472 		.ascii	"wttrp\000"
 4234      7000
 4235              	.LASF101:
 4236 096f 5F737472 		.ascii	"_strtok_last\000"
 4236      746F6B5F 
 4236      6C617374 
 4236      00
 4237              	.LASF108:
 4238 097c 5F6D6274 		.ascii	"_mbtowc_state\000"
 4238      6F77635F 
 4238      73746174 
ARM GAS  /var/folders/t8/16hdwfmd2fg_d3q6dgx6bpmw0000gn/T//cc63w6BA.s 			page 83


 4238      6500
 4239              	.LASF78:
 4240 098a 5F6C6F63 		.ascii	"_locale\000"
 4240      616C6500 
 4241              	.LASF43:
 4242 0992 5F666E61 		.ascii	"_fnargs\000"
 4242      72677300 
 4243              	.LASF1:
 4244 099a 7369676E 		.ascii	"signed char\000"
 4244      65642063 
 4244      68617200 
 4245              	.LASF171:
 4246 09a6 64656C74 		.ascii	"delta\000"
 4246      6100
 4247              	.LASF70:
 4248 09ac 5F726565 		.ascii	"_reent\000"
 4248      6E7400
 4249              	.LASF7:
 4250 09b3 73686F72 		.ascii	"short unsigned int\000"
 4250      7420756E 
 4250      7369676E 
 4250      65642069 
 4250      6E7400
 4251              	.LASF187:
 4252 09c6 73746B61 		.ascii	"stkalign_t\000"
 4252      6C69676E 
 4252      5F7400
 4253              	.LASF217:
 4254 09d1 6F66665F 		.ascii	"off_refs\000"
 4254      72656673 
 4254      00
 4255              	.LASF242:
 4256 09da 2E2E2F2E 		.ascii	"../../tmk_core/tool/chibios/ChibiOS/os/rt/src/chreg"
 4256      2E2F746D 
 4256      6B5F636F 
 4256      72652F74 
 4256      6F6F6C2F 
 4257 0a0d 69737472 		.ascii	"istry.c\000"
 4257      792E6300 
 4258              	.LASF221:
 4259 0a15 63685F64 		.ascii	"ch_debug\000"
 4259      65627567 
 4259      00
 4260              	.LASF45:
 4261 0a1e 5F666E74 		.ascii	"_fntypes\000"
 4261      79706573 
 4261      00
 4262              	.LASF52:
 4263 0a27 5F73697A 		.ascii	"_size\000"
 4263      6500
 4264              	.LASF232:
 4265 0a2d 706F7274 		.ascii	"port_unlock\000"
 4265      5F756E6C 
 4265      6F636B00 
 4266              	.LASF16:
 4267 0a39 5F6F6666 		.ascii	"_off_t\000"
 4267      5F7400
ARM GAS  /var/folders/t8/16hdwfmd2fg_d3q6dgx6bpmw0000gn/T//cc63w6BA.s 			page 84


 4268              	.LASF63:
 4269 0a40 5F6E6275 		.ascii	"_nbuf\000"
 4269      6600
 4270              	.LASF100:
 4271 0a46 5F756E75 		.ascii	"_unused_rand\000"
 4271      7365645F 
 4271      72616E64 
 4271      00
 4272              	.LASF77:
 4273 0a53 5F756E73 		.ascii	"_unspecified_locale_info\000"
 4273      70656369 
 4273      66696564 
 4273      5F6C6F63 
 4273      616C655F 
 4274              	.LASF69:
 4275 0a6c 5F666C61 		.ascii	"_flags2\000"
 4275      67733200 
 4276              	.LASF46:
 4277 0a74 5F69735F 		.ascii	"_is_cxa\000"
 4277      63786100 
 4278              	.LASF196:
 4279 0a7c 77746D74 		.ascii	"wtmtxp\000"
 4279      787000
 4280              	.LASF195:
 4281 0a83 77747365 		.ascii	"wtsemp\000"
 4281      6D7000
 4282              	.LASF97:
 4283 0a8a 5F736565 		.ascii	"_seed\000"
 4283      6400
 4284              	.LASF105:
 4285 0a90 5F72616E 		.ascii	"_rand_next\000"
 4285      645F6E65 
 4285      787400
 4286              	.LASF123:
 4287 0a9b 5F5F6C6F 		.ascii	"__locale_t\000"
 4287      63616C65 
 4287      5F7400
 4288              	.LASF191:
 4289 0aa6 65786974 		.ascii	"exitcode\000"
 4289      636F6465 
 4289      00
 4290              	.LASF60:
 4291 0aaf 5F736565 		.ascii	"_seek\000"
 4291      6B00
 4292              	.LASF74:
 4293 0ab5 5F737464 		.ascii	"_stderr\000"
 4293      65727200 
 4294              	.LASF120:
 4295 0abd 5F6E6D61 		.ascii	"_nmalloc\000"
 4295      6C6C6F63 
 4295      00
 4296              	.LASF62:
 4297 0ac6 5F756275 		.ascii	"_ubuf\000"
 4297      6600
 4298              	.LASF157:
 4299 0acc 6D706F6F 		.ascii	"mpool\000"
 4299      6C00
ARM GAS  /var/folders/t8/16hdwfmd2fg_d3q6dgx6bpmw0000gn/T//cc63w6BA.s 			page 85


 4300              		.ident	"GCC: (GNU Tools for Arm Embedded Processors 7-2017-q4-major) 7.2.1 20170904 (release) [ARM
ARM GAS  /var/folders/t8/16hdwfmd2fg_d3q6dgx6bpmw0000gn/T//cc63w6BA.s 			page 86


DEFINED SYMBOLS
                            *ABS*:0000000000000000 chregistry.c
/var/folders/t8/16hdwfmd2fg_d3q6dgx6bpmw0000gn/T//cc63w6BA.s:16     .text.chRegFirstThread:0000000000000000 $t
/var/folders/t8/16hdwfmd2fg_d3q6dgx6bpmw0000gn/T//cc63w6BA.s:24     .text.chRegFirstThread:0000000000000000 chRegFirstThread
/var/folders/t8/16hdwfmd2fg_d3q6dgx6bpmw0000gn/T//cc63w6BA.s:116    .text.chRegFirstThread:0000000000000038 $d
/var/folders/t8/16hdwfmd2fg_d3q6dgx6bpmw0000gn/T//cc63w6BA.s:124    .text.chRegNextThread:0000000000000000 $t
/var/folders/t8/16hdwfmd2fg_d3q6dgx6bpmw0000gn/T//cc63w6BA.s:132    .text.chRegNextThread:0000000000000000 chRegNextThread
/var/folders/t8/16hdwfmd2fg_d3q6dgx6bpmw0000gn/T//cc63w6BA.s:254    .text.chRegNextThread:0000000000000058 $d
/var/folders/t8/16hdwfmd2fg_d3q6dgx6bpmw0000gn/T//cc63w6BA.s:261    .text.chRegFindThreadByName:0000000000000000 $t
/var/folders/t8/16hdwfmd2fg_d3q6dgx6bpmw0000gn/T//cc63w6BA.s:269    .text.chRegFindThreadByName:0000000000000000 chRegFindThreadByName
/var/folders/t8/16hdwfmd2fg_d3q6dgx6bpmw0000gn/T//cc63w6BA.s:322    .text.chRegFindThreadByPointer:0000000000000000 $t
/var/folders/t8/16hdwfmd2fg_d3q6dgx6bpmw0000gn/T//cc63w6BA.s:330    .text.chRegFindThreadByPointer:0000000000000000 chRegFindThreadByPointer
/var/folders/t8/16hdwfmd2fg_d3q6dgx6bpmw0000gn/T//cc63w6BA.s:373    .text.chRegFindThreadByWorkingArea:0000000000000000 $t
/var/folders/t8/16hdwfmd2fg_d3q6dgx6bpmw0000gn/T//cc63w6BA.s:381    .text.chRegFindThreadByWorkingArea:0000000000000000 chRegFindThreadByWorkingArea
/var/folders/t8/16hdwfmd2fg_d3q6dgx6bpmw0000gn/T//cc63w6BA.s:440    .rodata.ch_debug:0000000000000000 ch_debug
/var/folders/t8/16hdwfmd2fg_d3q6dgx6bpmw0000gn/T//cc63w6BA.s:423    .rodata.__func__.5444:0000000000000000 $d
/var/folders/t8/16hdwfmd2fg_d3q6dgx6bpmw0000gn/T//cc63w6BA.s:427    .rodata.__func__.5444:0000000000000000 __func__.5444
/var/folders/t8/16hdwfmd2fg_d3q6dgx6bpmw0000gn/T//cc63w6BA.s:430    .rodata.__func__.6124:0000000000000000 $d
/var/folders/t8/16hdwfmd2fg_d3q6dgx6bpmw0000gn/T//cc63w6BA.s:434    .rodata.__func__.6124:0000000000000000 __func__.6124
/var/folders/t8/16hdwfmd2fg_d3q6dgx6bpmw0000gn/T//cc63w6BA.s:437    .rodata.ch_debug:0000000000000000 $d

UNDEFINED SYMBOLS
_dbg_check_lock
_dbg_check_unlock
chSysHalt
ch
chThdRelease
strcmp
