ARM GAS  /var/folders/t8/16hdwfmd2fg_d3q6dgx6bpmw0000gn/T//ccqUiayV.s 			page 1


   1              		.cpu cortex-m0plus
   2              		.eabi_attribute 20, 1
   3              		.eabi_attribute 21, 1
   4              		.eabi_attribute 23, 3
   5              		.eabi_attribute 24, 1
   6              		.eabi_attribute 25, 1
   7              		.eabi_attribute 26, 1
   8              		.eabi_attribute 30, 2
   9              		.eabi_attribute 34, 0
  10              		.eabi_attribute 18, 4
  11              		.file	"chschd.c"
  12              		.text
  13              	.Ltext0:
  14              		.cfi_sections	.debug_frame
  15              		.section	.text._scheduler_init,"ax",%progbits
  16              		.align	1
  17              		.p2align 4,,15
  18              		.global	_scheduler_init
  19              		.syntax unified
  20              		.code	16
  21              		.thumb_func
  22              		.fpu softvfp
  23              		.type	_scheduler_init, %function
  24              	_scheduler_init:
  25              	.LFB138:
  26              		.file 1 "../../tmk_core/tool/chibios/ChibiOS/os/rt/src/chschd.c"
  27              		.loc 1 65 0
  28              		.cfi_startproc
  29              		@ args = 0, pretend = 0, frame = 0
  30              		@ frame_needed = 0, uses_anonymous_args = 0
  31              		@ link register save eliminated.
  32              	.LVL0:
  33              		.loc 1 68 0
  34 0000 0022     		movs	r2, #0
  35              	.LBB88:
  36              	.LBB89:
  37              		.file 2 "../../tmk_core/tool/chibios/ChibiOS/os/rt/include/chschd.h"
  38              		.loc 2 550 0
  39 0002 034B     		ldr	r3, .L3
  40              	.LBE89:
  41              	.LBE88:
  42              		.loc 1 73 0
  43              		@ sp needed
  44              	.LBB91:
  45              	.LBB90:
  46              		.loc 2 550 0
  47 0004 1B60     		str	r3, [r3]
  48              		.loc 2 551 0
  49 0006 5B60     		str	r3, [r3, #4]
  50              	.LVL1:
  51              	.LBE90:
  52              	.LBE91:
  53              		.loc 1 68 0
  54 0008 9A60     		str	r2, [r3, #8]
  55              		.loc 1 70 0
  56 000a 1B61     		str	r3, [r3, #16]
  57              		.loc 1 71 0
ARM GAS  /var/folders/t8/16hdwfmd2fg_d3q6dgx6bpmw0000gn/T//ccqUiayV.s 			page 2


  58 000c 5B61     		str	r3, [r3, #20]
  59              		.loc 1 73 0
  60 000e 7047     		bx	lr
  61              	.L4:
  62              		.align	2
  63              	.L3:
  64 0010 00000000 		.word	.LANCHOR0
  65              		.cfi_endproc
  66              	.LFE138:
  67              		.size	_scheduler_init, .-_scheduler_init
  68              		.section	.text.chSchReadyI,"ax",%progbits
  69              		.align	1
  70              		.p2align 4,,15
  71              		.global	chSchReadyI
  72              		.syntax unified
  73              		.code	16
  74              		.thumb_func
  75              		.fpu softvfp
  76              		.type	chSchReadyI, %function
  77              	chSchReadyI:
  78              	.LFB139:
  79              		.loc 1 218 0
  80              		.cfi_startproc
  81              		@ args = 0, pretend = 0, frame = 0
  82              		@ frame_needed = 0, uses_anonymous_args = 0
  83              	.LVL2:
  84 0000 10B5     		push	{r4, lr}
  85              		.cfi_def_cfa_offset 8
  86              		.cfi_offset 4, -8
  87              		.cfi_offset 14, -4
  88              		.loc 1 218 0
  89 0002 0400     		movs	r4, r0
  90              		.loc 1 221 0
  91 0004 FFF7FEFF 		bl	chDbgCheckClassI
  92              	.LVL3:
  93              		.loc 1 222 0
  94 0008 002C     		cmp	r4, #0
  95 000a 19D0     		beq	.L14
  96              	.L6:
  97              		.loc 1 223 0 discriminator 1
  98 000c 2023     		movs	r3, #32
  99 000e E35C     		ldrb	r3, [r4, r3]
 100 0010 002B     		cmp	r3, #0
 101 0012 11D0     		beq	.L7
 102              		.loc 1 223 0 is_stmt 0 discriminator 3
 103 0014 0F2B     		cmp	r3, #15
 104 0016 0FD0     		beq	.L7
 105              	.L8:
 106              		.loc 1 227 0 is_stmt 1
 107 0018 2023     		movs	r3, #32
 108 001a 0022     		movs	r2, #0
 109 001c E254     		strb	r2, [r4, r3]
 110              	.LVL4:
 111              		.loc 1 231 0
 112 001e A268     		ldr	r2, [r4, #8]
 113              		.loc 1 228 0
 114 0020 094B     		ldr	r3, .L15
ARM GAS  /var/folders/t8/16hdwfmd2fg_d3q6dgx6bpmw0000gn/T//ccqUiayV.s 			page 3


 115              	.LVL5:
 116              	.L9:
 117              		.loc 1 230 0 discriminator 1
 118 0022 1B68     		ldr	r3, [r3]
 119              	.LVL6:
 120              		.loc 1 231 0 discriminator 1
 121 0024 9968     		ldr	r1, [r3, #8]
 122 0026 9142     		cmp	r1, r2
 123 0028 FBD2     		bcs	.L9
 124              		.loc 1 234 0
 125 002a 5A68     		ldr	r2, [r3, #4]
 126              		.loc 1 233 0
 127 002c 2360     		str	r3, [r4]
 128              		.loc 1 234 0
 129 002e 6260     		str	r2, [r4, #4]
 130              		.loc 1 239 0
 131 0030 2000     		movs	r0, r4
 132              		.loc 1 235 0
 133 0032 1460     		str	r4, [r2]
 134              		.loc 1 239 0
 135              		@ sp needed
 136              		.loc 1 236 0
 137 0034 5C60     		str	r4, [r3, #4]
 138              	.LVL7:
 139              		.loc 1 239 0
 140 0036 10BD     		pop	{r4, pc}
 141              	.LVL8:
 142              	.L7:
 143              		.loc 1 223 0 discriminator 4
 144 0038 0448     		ldr	r0, .L15+4
 145 003a FFF7FEFF 		bl	chSysHalt
 146              	.LVL9:
 147 003e EBE7     		b	.L8
 148              	.L14:
 149              		.loc 1 222 0 discriminator 2
 150 0040 0248     		ldr	r0, .L15+4
 151 0042 FFF7FEFF 		bl	chSysHalt
 152              	.LVL10:
 153 0046 E1E7     		b	.L6
 154              	.L16:
 155              		.align	2
 156              	.L15:
 157 0048 00000000 		.word	.LANCHOR0
 158 004c 00000000 		.word	.LANCHOR1
 159              		.cfi_endproc
 160              	.LFE139:
 161              		.size	chSchReadyI, .-chSchReadyI
 162              		.section	.text.wakeup,"ax",%progbits
 163              		.align	1
 164              		.p2align 4,,15
 165              		.syntax unified
 166              		.code	16
 167              		.thumb_func
 168              		.fpu softvfp
 169              		.type	wakeup, %function
 170              	wakeup:
 171              	.LFB142:
ARM GAS  /var/folders/t8/16hdwfmd2fg_d3q6dgx6bpmw0000gn/T//ccqUiayV.s 			page 4


 172              		.loc 1 319 0
 173              		.cfi_startproc
 174              		@ args = 0, pretend = 0, frame = 0
 175              		@ frame_needed = 0, uses_anonymous_args = 0
 176              	.LVL11:
 177 0000 70B5     		push	{r4, r5, r6, lr}
 178              		.cfi_def_cfa_offset 16
 179              		.cfi_offset 4, -16
 180              		.cfi_offset 5, -12
 181              		.cfi_offset 6, -8
 182              		.cfi_offset 14, -4
 183              		.loc 1 319 0
 184 0002 0400     		movs	r4, r0
 185              	.LVL12:
 186              	.LBB92:
 187              	.LBB93:
 188              	.LBB94:
 189              	.LBB95:
 190              	.LBB96:
 191              	.LBB97:
 192              		.file 3 "../../tmk_core/tool/chibios/ChibiOS/os/common/ext/CMSIS/include/cmsis_gcc.h"
 193              		.loc 3 71 0
 194              		.syntax divided
 195              	@ 71 "../../tmk_core/tool/chibios/ChibiOS/os/common/ext/CMSIS/include/cmsis_gcc.h" 1
 196 0004 72B6     		cpsid i
 197              	@ 0 "" 2
 198              		.thumb
 199              		.syntax unified
 200              	.LBE97:
 201              	.LBE96:
 202              	.LBE95:
 203              	.LBE94:
 204              		.file 4 "../../tmk_core/tool/chibios/ChibiOS/os/rt/include/chsys.h"
 205              		.loc 4 418 0
 206 0006 FFF7FEFF 		bl	_dbg_check_lock_from_isr
 207              	.LVL13:
 208              	.LBE93:
 209              	.LBE92:
 210              		.loc 1 323 0
 211 000a 2023     		movs	r3, #32
 212 000c E35C     		ldrb	r3, [r4, r3]
 213 000e 072B     		cmp	r3, #7
 214 0010 0ED8     		bhi	.L18
 215 0012 114A     		ldr	r2, .L26
 216 0014 9B00     		lsls	r3, r3, #2
 217 0016 D358     		ldr	r3, [r2, r3]
 218 0018 9F46     		mov	pc, r3
 219              		.section	.rodata.wakeup,"a",%progbits
 220              		.align	2
 221              	.L20:
 222 0000 3C000000 		.word	.L25
 223 0004 30000000 		.word	.L18
 224 0008 30000000 		.word	.L18
 225 000c 44000000 		.word	.L21
 226 0010 26000000 		.word	.L22
 227 0014 1A000000 		.word	.L23
 228 0018 30000000 		.word	.L18
ARM GAS  /var/folders/t8/16hdwfmd2fg_d3q6dgx6bpmw0000gn/T//ccqUiayV.s 			page 5


 229 001c 26000000 		.word	.L22
 230              		.section	.text.wakeup
 231              	.L23:
 232              		.loc 1 334 0
 233 001a 656A     		ldr	r5, [r4, #36]
 234              	.LVL14:
 235              	.LBB98:
 236              	.LBB99:
 237              		.file 5 "../../tmk_core/tool/chibios/ChibiOS/os/rt/include/chsem.h"
 238              		.loc 5 136 0
 239 001c FFF7FEFF 		bl	chDbgCheckClassI
 240              	.LVL15:
 241              		.loc 5 138 0
 242 0020 AB68     		ldr	r3, [r5, #8]
 243 0022 0133     		adds	r3, r3, #1
 244 0024 AB60     		str	r3, [r5, #8]
 245              	.LVL16:
 246              	.L22:
 247              	.LBE99:
 248              	.LBE98:
 249              	.LBB100:
 250              	.LBB101:
 251              		.loc 2 637 0
 252 0026 2268     		ldr	r2, [r4]
 253 0028 6368     		ldr	r3, [r4, #4]
 254 002a 1A60     		str	r2, [r3]
 255              		.loc 2 638 0
 256 002c 2268     		ldr	r2, [r4]
 257 002e 5360     		str	r3, [r2, #4]
 258              	.LVL17:
 259              	.L18:
 260              	.LBE101:
 261              	.LBE100:
 262              		.loc 1 348 0
 263 0030 0123     		movs	r3, #1
 264 0032 5B42     		rsbs	r3, r3, #0
 265 0034 6362     		str	r3, [r4, #36]
 266              		.loc 1 349 0
 267 0036 2000     		movs	r0, r4
 268 0038 FFF7FEFF 		bl	chSchReadyI
 269              	.LVL18:
 270              	.L25:
 271              	.LBB102:
 272              	.LBB103:
 273              		.loc 4 436 0
 274 003c FFF7FEFF 		bl	_dbg_check_unlock_from_isr
 275              	.LVL19:
 276              	.LBB104:
 277              	.LBB105:
 278              	.LBB106:
 279              	.LBB107:
 280              		.loc 3 60 0
 281              		.syntax divided
 282              	@ 60 "../../tmk_core/tool/chibios/ChibiOS/os/common/ext/CMSIS/include/cmsis_gcc.h" 1
 283 0040 62B6     		cpsie i
 284              	@ 0 "" 2
 285              		.thumb
ARM GAS  /var/folders/t8/16hdwfmd2fg_d3q6dgx6bpmw0000gn/T//ccqUiayV.s 			page 6


 286              		.syntax unified
 287              	.LBE107:
 288              	.LBE106:
 289              	.LBE105:
 290              	.LBE104:
 291              	.LBE103:
 292              	.LBE102:
 293              		.loc 1 351 0
 294              		@ sp needed
 295              	.LVL20:
 296 0042 70BD     		pop	{r4, r5, r6, pc}
 297              	.LVL21:
 298              	.L21:
 299              		.loc 1 330 0
 300 0044 0022     		movs	r2, #0
 301 0046 636A     		ldr	r3, [r4, #36]
 302              		.loc 1 349 0
 303 0048 2000     		movs	r0, r4
 304              		.loc 1 330 0
 305 004a 1A60     		str	r2, [r3]
 306              		.loc 1 348 0
 307 004c 0123     		movs	r3, #1
 308 004e 5B42     		rsbs	r3, r3, #0
 309 0050 6362     		str	r3, [r4, #36]
 310              		.loc 1 349 0
 311 0052 FFF7FEFF 		bl	chSchReadyI
 312              	.LVL22:
 313 0056 F1E7     		b	.L25
 314              	.L27:
 315              		.align	2
 316              	.L26:
 317 0058 00000000 		.word	.L20
 318              		.cfi_endproc
 319              	.LFE142:
 320              		.size	wakeup, .-wakeup
 321              		.section	.text.chSchReadyAheadI,"ax",%progbits
 322              		.align	1
 323              		.p2align 4,,15
 324              		.global	chSchReadyAheadI
 325              		.syntax unified
 326              		.code	16
 327              		.thumb_func
 328              		.fpu softvfp
 329              		.type	chSchReadyAheadI, %function
 330              	chSchReadyAheadI:
 331              	.LFB140:
 332              		.loc 1 257 0
 333              		.cfi_startproc
 334              		@ args = 0, pretend = 0, frame = 0
 335              		@ frame_needed = 0, uses_anonymous_args = 0
 336              	.LVL23:
 337 0000 10B5     		push	{r4, lr}
 338              		.cfi_def_cfa_offset 8
 339              		.cfi_offset 4, -8
 340              		.cfi_offset 14, -4
 341              		.loc 1 257 0
 342 0002 0400     		movs	r4, r0
ARM GAS  /var/folders/t8/16hdwfmd2fg_d3q6dgx6bpmw0000gn/T//ccqUiayV.s 			page 7


 343              		.loc 1 260 0
 344 0004 FFF7FEFF 		bl	chDbgCheckClassI
 345              	.LVL24:
 346              		.loc 1 261 0
 347 0008 002C     		cmp	r4, #0
 348 000a 19D0     		beq	.L37
 349              	.L29:
 350              		.loc 1 262 0 discriminator 1
 351 000c 2023     		movs	r3, #32
 352 000e E35C     		ldrb	r3, [r4, r3]
 353 0010 002B     		cmp	r3, #0
 354 0012 11D0     		beq	.L30
 355              		.loc 1 262 0 is_stmt 0 discriminator 3
 356 0014 0F2B     		cmp	r3, #15
 357 0016 0FD0     		beq	.L30
 358              	.L31:
 359              		.loc 1 266 0 is_stmt 1
 360 0018 2023     		movs	r3, #32
 361 001a 0022     		movs	r2, #0
 362 001c E254     		strb	r2, [r4, r3]
 363              	.LVL25:
 364              		.loc 1 270 0
 365 001e A268     		ldr	r2, [r4, #8]
 366              		.loc 1 267 0
 367 0020 094B     		ldr	r3, .L38
 368              	.LVL26:
 369              	.L32:
 370              		.loc 1 269 0 discriminator 1
 371 0022 1B68     		ldr	r3, [r3]
 372              	.LVL27:
 373              		.loc 1 270 0 discriminator 1
 374 0024 9968     		ldr	r1, [r3, #8]
 375 0026 9142     		cmp	r1, r2
 376 0028 FBD8     		bhi	.L32
 377              		.loc 1 273 0
 378 002a 5A68     		ldr	r2, [r3, #4]
 379              		.loc 1 272 0
 380 002c 2360     		str	r3, [r4]
 381              		.loc 1 273 0
 382 002e 6260     		str	r2, [r4, #4]
 383              		.loc 1 278 0
 384 0030 2000     		movs	r0, r4
 385              		.loc 1 274 0
 386 0032 1460     		str	r4, [r2]
 387              		.loc 1 278 0
 388              		@ sp needed
 389              		.loc 1 275 0
 390 0034 5C60     		str	r4, [r3, #4]
 391              	.LVL28:
 392              		.loc 1 278 0
 393 0036 10BD     		pop	{r4, pc}
 394              	.LVL29:
 395              	.L30:
 396              		.loc 1 262 0 discriminator 4
 397 0038 0448     		ldr	r0, .L38+4
 398 003a FFF7FEFF 		bl	chSysHalt
 399              	.LVL30:
ARM GAS  /var/folders/t8/16hdwfmd2fg_d3q6dgx6bpmw0000gn/T//ccqUiayV.s 			page 8


 400 003e EBE7     		b	.L31
 401              	.L37:
 402              		.loc 1 261 0 discriminator 2
 403 0040 0248     		ldr	r0, .L38+4
 404 0042 FFF7FEFF 		bl	chSysHalt
 405              	.LVL31:
 406 0046 E1E7     		b	.L29
 407              	.L39:
 408              		.align	2
 409              	.L38:
 410 0048 00000000 		.word	.LANCHOR0
 411 004c 00000000 		.word	.LANCHOR2
 412              		.cfi_endproc
 413              	.LFE140:
 414              		.size	chSchReadyAheadI, .-chSchReadyAheadI
 415              		.section	.text.chSchGoSleepS,"ax",%progbits
 416              		.align	1
 417              		.p2align 4,,15
 418              		.global	chSchGoSleepS
 419              		.syntax unified
 420              		.code	16
 421              		.thumb_func
 422              		.fpu softvfp
 423              		.type	chSchGoSleepS, %function
 424              	chSchGoSleepS:
 425              	.LFB141:
 426              		.loc 1 289 0
 427              		.cfi_startproc
 428              		@ args = 0, pretend = 0, frame = 0
 429              		@ frame_needed = 0, uses_anonymous_args = 0
 430              	.LVL32:
 431 0000 70B5     		push	{r4, r5, r6, lr}
 432              		.cfi_def_cfa_offset 16
 433              		.cfi_offset 4, -16
 434              		.cfi_offset 5, -12
 435              		.cfi_offset 6, -8
 436              		.cfi_offset 14, -4
 437              		.loc 1 290 0
 438 0002 0F4C     		ldr	r4, .L42
 439              		.loc 1 289 0
 440 0004 0600     		movs	r6, r0
 441              		.loc 1 290 0
 442 0006 A569     		ldr	r5, [r4, #24]
 443              	.LVL33:
 444              		.loc 1 292 0
 445 0008 FFF7FEFF 		bl	chDbgCheckClassS
 446              	.LVL34:
 447              		.loc 1 295 0
 448 000c 2023     		movs	r3, #32
 449              		.loc 1 300 0
 450 000e 2322     		movs	r2, #35
 451 0010 1421     		movs	r1, #20
 452              	.LBB108:
 453              	.LBB109:
 454              		.loc 2 618 0
 455 0012 2068     		ldr	r0, [r4]
 456              	.LBE109:
ARM GAS  /var/folders/t8/16hdwfmd2fg_d3q6dgx6bpmw0000gn/T//ccqUiayV.s 			page 9


 457              	.LBE108:
 458              		.loc 1 295 0
 459 0014 EE54     		strb	r6, [r5, r3]
 460              		.loc 1 300 0
 461 0016 A954     		strb	r1, [r5, r2]
 462              	.LVL35:
 463              	.LBB111:
 464              	.LBB110:
 465              		.loc 2 620 0
 466 0018 0268     		ldr	r2, [r0]
 467              		.loc 2 621 0
 468 001a 5460     		str	r4, [r2, #4]
 469              	.LVL36:
 470              		.loc 2 620 0
 471 001c 2260     		str	r2, [r4]
 472              	.LBE110:
 473              	.LBE111:
 474              		.loc 1 305 0
 475 001e 0122     		movs	r2, #1
 476              		.loc 1 304 0
 477 0020 A061     		str	r0, [r4, #24]
 478              		.loc 1 305 0
 479 0022 C254     		strb	r2, [r0, r3]
 480              	.LBB112:
 481              	.LBB113:
 482              	.LBB114:
 483              		.loc 3 152 0
 484              		.syntax divided
 485              	@ 152 "../../tmk_core/tool/chibios/ChibiOS/os/common/ext/CMSIS/include/cmsis_gcc.h" 1
 486 0024 EFF30983 		MRS r3, psp
 487              	
 488              	@ 0 "" 2
 489              	.LVL37:
 490              		.thumb
 491              		.syntax unified
 492              	.LBE114:
 493              	.LBE113:
 494              		.loc 1 313 0
 495 0028 EA69     		ldr	r2, [r5, #28]
 496 002a 243B     		subs	r3, r3, #36
 497              	.LVL38:
 498 002c 9A42     		cmp	r2, r3
 499 002e 03D9     		bls	.L41
 500              		.loc 1 313 0 is_stmt 0 discriminator 1
 501 0030 0448     		ldr	r0, .L42+4
 502 0032 FFF7FEFF 		bl	chSysHalt
 503              	.LVL39:
 504 0036 A069     		ldr	r0, [r4, #24]
 505              	.L41:
 506              		.loc 1 313 0 discriminator 3
 507 0038 2900     		movs	r1, r5
 508 003a FFF7FEFF 		bl	_port_switch
 509              	.LVL40:
 510              	.LBE112:
 511              		.loc 1 314 0 is_stmt 1 discriminator 3
 512              		@ sp needed
 513              	.LVL41:
ARM GAS  /var/folders/t8/16hdwfmd2fg_d3q6dgx6bpmw0000gn/T//ccqUiayV.s 			page 10


 514 003e 70BD     		pop	{r4, r5, r6, pc}
 515              	.L43:
 516              		.align	2
 517              	.L42:
 518 0040 00000000 		.word	.LANCHOR0
 519 0044 00000000 		.word	.LC7
 520              		.cfi_endproc
 521              	.LFE141:
 522              		.size	chSchGoSleepS, .-chSchGoSleepS
 523              		.section	.text.chSchGoSleepTimeoutS,"ax",%progbits
 524              		.align	1
 525              		.p2align 4,,15
 526              		.global	chSchGoSleepTimeoutS
 527              		.syntax unified
 528              		.code	16
 529              		.thumb_func
 530              		.fpu softvfp
 531              		.type	chSchGoSleepTimeoutS, %function
 532              	chSchGoSleepTimeoutS:
 533              	.LFB143:
 534              		.loc 1 374 0
 535              		.cfi_startproc
 536              		@ args = 0, pretend = 0, frame = 24
 537              		@ frame_needed = 0, uses_anonymous_args = 0
 538              	.LVL42:
 539 0000 70B5     		push	{r4, r5, r6, lr}
 540              		.cfi_def_cfa_offset 16
 541              		.cfi_offset 4, -16
 542              		.cfi_offset 5, -12
 543              		.cfi_offset 6, -8
 544              		.cfi_offset 14, -4
 545 0002 0D00     		movs	r5, r1
 546 0004 86B0     		sub	sp, sp, #24
 547              		.cfi_def_cfa_offset 40
 548              		.loc 1 374 0
 549 0006 0600     		movs	r6, r0
 550              		.loc 1 376 0
 551 0008 FFF7FEFF 		bl	chDbgCheckClassS
 552              	.LVL43:
 553              		.loc 1 378 0
 554 000c 6B1C     		adds	r3, r5, #1
 555 000e 15D0     		beq	.L45
 556              	.LBB115:
 557              		.loc 1 381 0
 558 0010 0D4C     		ldr	r4, .L51
 559 0012 0E4A     		ldr	r2, .L51+4
 560 0014 A369     		ldr	r3, [r4, #24]
 561 0016 2900     		movs	r1, r5
 562 0018 01A8     		add	r0, sp, #4
 563 001a FFF7FEFF 		bl	chVTDoSetI
 564              	.LVL44:
 565              		.loc 1 382 0
 566 001e 3000     		movs	r0, r6
 567 0020 FFF7FEFF 		bl	chSchGoSleepS
 568              	.LVL45:
 569              	.LBB116:
 570              	.LBB117:
ARM GAS  /var/folders/t8/16hdwfmd2fg_d3q6dgx6bpmw0000gn/T//ccqUiayV.s 			page 11


 571              		.file 6 "../../tmk_core/tool/chibios/ChibiOS/os/rt/include/chvt.h"
 572              		.loc 6 375 0
 573 0024 FFF7FEFF 		bl	chDbgCheckClassI
 574              	.LVL46:
 575              	.LBE117:
 576              	.LBE116:
 577              		.loc 1 383 0
 578 0028 049B     		ldr	r3, [sp, #16]
 579 002a 002B     		cmp	r3, #0
 580 002c 02D0     		beq	.L47
 581              		.loc 1 384 0
 582 002e 01A8     		add	r0, sp, #4
 583              	.LVL47:
 584 0030 FFF7FEFF 		bl	chVTDoResetI
 585              	.LVL48:
 586              	.L47:
 587              	.LBE115:
 588              		.loc 1 391 0
 589 0034 A369     		ldr	r3, [r4, #24]
 590 0036 586A     		ldr	r0, [r3, #36]
 591              		.loc 1 392 0
 592 0038 06B0     		add	sp, sp, #24
 593              		@ sp needed
 594              	.LVL49:
 595 003a 70BD     		pop	{r4, r5, r6, pc}
 596              	.LVL50:
 597              	.L45:
 598              		.loc 1 388 0
 599 003c 3000     		movs	r0, r6
 600 003e FFF7FEFF 		bl	chSchGoSleepS
 601              	.LVL51:
 602 0042 014C     		ldr	r4, .L51
 603 0044 F6E7     		b	.L47
 604              	.L52:
 605 0046 C046     		.align	2
 606              	.L51:
 607 0048 00000000 		.word	.LANCHOR0
 608 004c 00000000 		.word	wakeup
 609              		.cfi_endproc
 610              	.LFE143:
 611              		.size	chSchGoSleepTimeoutS, .-chSchGoSleepTimeoutS
 612              		.section	.text.chSchWakeupS,"ax",%progbits
 613              		.align	1
 614              		.p2align 4,,15
 615              		.global	chSchWakeupS
 616              		.syntax unified
 617              		.code	16
 618              		.thumb_func
 619              		.fpu softvfp
 620              		.type	chSchWakeupS, %function
 621              	chSchWakeupS:
 622              	.LFB144:
 623              		.loc 1 411 0
 624              		.cfi_startproc
 625              		@ args = 0, pretend = 0, frame = 0
 626              		@ frame_needed = 0, uses_anonymous_args = 0
 627              	.LVL52:
ARM GAS  /var/folders/t8/16hdwfmd2fg_d3q6dgx6bpmw0000gn/T//ccqUiayV.s 			page 12


 628 0000 F8B5     		push	{r3, r4, r5, r6, r7, lr}
 629              		.cfi_def_cfa_offset 24
 630              		.cfi_offset 3, -24
 631              		.cfi_offset 4, -20
 632              		.cfi_offset 5, -16
 633              		.cfi_offset 6, -12
 634              		.cfi_offset 7, -8
 635              		.cfi_offset 14, -4
 636              		.loc 1 412 0
 637 0002 1B4C     		ldr	r4, .L61
 638              		.loc 1 411 0
 639 0004 0500     		movs	r5, r0
 640 0006 0F00     		movs	r7, r1
 641              		.loc 1 412 0
 642 0008 A669     		ldr	r6, [r4, #24]
 643              	.LVL53:
 644              		.loc 1 414 0
 645 000a FFF7FEFF 		bl	chDbgCheckClassS
 646              	.LVL54:
 647              		.loc 1 416 0
 648 000e 2368     		ldr	r3, [r4]
 649 0010 A342     		cmp	r3, r4
 650 0012 04D0     		beq	.L54
 651              		.loc 1 416 0 is_stmt 0 discriminator 2
 652 0014 A269     		ldr	r2, [r4, #24]
 653 0016 9B68     		ldr	r3, [r3, #8]
 654 0018 9268     		ldr	r2, [r2, #8]
 655 001a 9A42     		cmp	r2, r3
 656 001c 17D3     		bcc	.L58
 657              	.L54:
 658              		.loc 1 428 0 is_stmt 1
 659 001e AB68     		ldr	r3, [r5, #8]
 660 0020 B268     		ldr	r2, [r6, #8]
 661              		.loc 1 422 0
 662 0022 6F62     		str	r7, [r5, #36]
 663              		.loc 1 428 0
 664 0024 9342     		cmp	r3, r2
 665 0026 1AD9     		bls	.L59
 666              	.L55:
 667              		.loc 1 432 0
 668 0028 3000     		movs	r0, r6
 669 002a FFF7FEFF 		bl	chSchReadyI
 670              	.LVL55:
 671              		.loc 1 441 0
 672 002e 2023     		movs	r3, #32
 673 0030 0122     		movs	r2, #1
 674              		.loc 1 432 0
 675 0032 0600     		movs	r6, r0
 676              	.LVL56:
 677              		.loc 1 440 0
 678 0034 A561     		str	r5, [r4, #24]
 679              		.loc 1 441 0
 680 0036 EA54     		strb	r2, [r5, r3]
 681              	.LBB118:
 682              	.LBB119:
 683              	.LBB120:
 684              		.loc 3 152 0
ARM GAS  /var/folders/t8/16hdwfmd2fg_d3q6dgx6bpmw0000gn/T//ccqUiayV.s 			page 13


 685              		.syntax divided
 686              	@ 152 "../../tmk_core/tool/chibios/ChibiOS/os/common/ext/CMSIS/include/cmsis_gcc.h" 1
 687 0038 EFF30983 		MRS r3, psp
 688              	
 689              	@ 0 "" 2
 690              	.LVL57:
 691              		.thumb
 692              		.syntax unified
 693              	.LBE120:
 694              	.LBE119:
 695              		.loc 1 444 0
 696 003c C269     		ldr	r2, [r0, #28]
 697 003e 243B     		subs	r3, r3, #36
 698              	.LVL58:
 699 0040 9A42     		cmp	r2, r3
 700 0042 10D8     		bhi	.L60
 701              	.LVL59:
 702              	.L57:
 703              		.loc 1 444 0 is_stmt 0 discriminator 3
 704 0044 3100     		movs	r1, r6
 705 0046 2800     		movs	r0, r5
 706 0048 FFF7FEFF 		bl	_port_switch
 707              	.LVL60:
 708              	.L53:
 709              	.LBE118:
 710              		.loc 1 446 0 is_stmt 1
 711              		@ sp needed
 712              	.LVL61:
 713              	.LVL62:
 714              	.LVL63:
 715 004c F8BD     		pop	{r3, r4, r5, r6, r7, pc}
 716              	.LVL64:
 717              	.L58:
 718              		.loc 1 416 0 discriminator 3
 719 004e 0948     		ldr	r0, .L61+4
 720 0050 FFF7FEFF 		bl	chSysHalt
 721              	.LVL65:
 722              		.loc 1 428 0 discriminator 3
 723 0054 AB68     		ldr	r3, [r5, #8]
 724 0056 B268     		ldr	r2, [r6, #8]
 725              		.loc 1 422 0 discriminator 3
 726 0058 6F62     		str	r7, [r5, #36]
 727              		.loc 1 428 0 discriminator 3
 728 005a 9342     		cmp	r3, r2
 729 005c E4D8     		bhi	.L55
 730              	.L59:
 731              		.loc 1 429 0
 732 005e 2800     		movs	r0, r5
 733 0060 FFF7FEFF 		bl	chSchReadyI
 734              	.LVL66:
 735 0064 F2E7     		b	.L53
 736              	.LVL67:
 737              	.L60:
 738              	.LBB121:
 739              		.loc 1 444 0 discriminator 1
 740 0066 0448     		ldr	r0, .L61+8
 741              	.LVL68:
ARM GAS  /var/folders/t8/16hdwfmd2fg_d3q6dgx6bpmw0000gn/T//ccqUiayV.s 			page 14


 742 0068 FFF7FEFF 		bl	chSysHalt
 743              	.LVL69:
 744 006c EAE7     		b	.L57
 745              	.L62:
 746 006e C046     		.align	2
 747              	.L61:
 748 0070 00000000 		.word	.LANCHOR0
 749 0074 00000000 		.word	.LANCHOR3
 750 0078 00000000 		.word	.LC7
 751              	.LBE121:
 752              		.cfi_endproc
 753              	.LFE144:
 754              		.size	chSchWakeupS, .-chSchWakeupS
 755              		.section	.text.chSchIsPreemptionRequired,"ax",%progbits
 756              		.align	1
 757              		.p2align 4,,15
 758              		.global	chSchIsPreemptionRequired
 759              		.syntax unified
 760              		.code	16
 761              		.thumb_func
 762              		.fpu softvfp
 763              		.type	chSchIsPreemptionRequired, %function
 764              	chSchIsPreemptionRequired:
 765              	.LFB146:
 766              		.loc 1 477 0
 767              		.cfi_startproc
 768              		@ args = 0, pretend = 0, frame = 0
 769              		@ frame_needed = 0, uses_anonymous_args = 0
 770              		@ link register save eliminated.
 771              		.loc 1 486 0
 772 0000 2320     		movs	r0, #35
 773              		.loc 1 478 0
 774 0002 084B     		ldr	r3, .L67
 775 0004 1A68     		ldr	r2, [r3]
 776              		.loc 1 479 0
 777 0006 9B69     		ldr	r3, [r3, #24]
 778              		.loc 1 478 0
 779 0008 9168     		ldr	r1, [r2, #8]
 780              	.LVL70:
 781              		.loc 1 486 0
 782 000a 185C     		ldrb	r0, [r3, r0]
 783              		.loc 1 479 0
 784 000c 9A68     		ldr	r2, [r3, #8]
 785              	.LVL71:
 786              		.loc 1 486 0
 787 000e 0028     		cmp	r0, #0
 788 0010 03D1     		bne	.L66
 789              		.loc 1 486 0 is_stmt 0 discriminator 2
 790 0012 9142     		cmp	r1, r2
 791 0014 4041     		adcs	r0, r0, r0
 792 0016 C0B2     		uxtb	r0, r0
 793              	.L65:
 794              		.loc 1 492 0 is_stmt 1 discriminator 4
 795              		@ sp needed
 796 0018 7047     		bx	lr
 797              	.L66:
 798              		.loc 1 486 0 discriminator 1
ARM GAS  /var/folders/t8/16hdwfmd2fg_d3q6dgx6bpmw0000gn/T//ccqUiayV.s 			page 15


 799 001a 8A42     		cmp	r2, r1
 800 001c 8041     		sbcs	r0, r0, r0
 801 001e 4042     		rsbs	r0, r0, #0
 802 0020 FAE7     		b	.L65
 803              	.L68:
 804 0022 C046     		.align	2
 805              	.L67:
 806 0024 00000000 		.word	.LANCHOR0
 807              		.cfi_endproc
 808              	.LFE146:
 809              		.size	chSchIsPreemptionRequired, .-chSchIsPreemptionRequired
 810              		.section	.text.chSchDoRescheduleBehind,"ax",%progbits
 811              		.align	1
 812              		.p2align 4,,15
 813              		.global	chSchDoRescheduleBehind
 814              		.syntax unified
 815              		.code	16
 816              		.thumb_func
 817              		.fpu softvfp
 818              		.type	chSchDoRescheduleBehind, %function
 819              	chSchDoRescheduleBehind:
 820              	.LFB147:
 821              		.loc 1 504 0
 822              		.cfi_startproc
 823              		@ args = 0, pretend = 0, frame = 0
 824              		@ frame_needed = 0, uses_anonymous_args = 0
 825 0000 70B5     		push	{r4, r5, r6, lr}
 826              		.cfi_def_cfa_offset 16
 827              		.cfi_offset 4, -16
 828              		.cfi_offset 5, -12
 829              		.cfi_offset 6, -8
 830              		.cfi_offset 14, -4
 831              		.loc 1 505 0
 832 0002 0F4C     		ldr	r4, .L71
 833              		.loc 1 509 0
 834 0004 0121     		movs	r1, #1
 835              	.LBB122:
 836              	.LBB123:
 837              		.loc 2 618 0
 838 0006 2368     		ldr	r3, [r4]
 839              	.LBE123:
 840              	.LBE122:
 841              		.loc 1 505 0
 842 0008 A069     		ldr	r0, [r4, #24]
 843              	.LVL72:
 844              	.LBB125:
 845              	.LBB124:
 846              		.loc 2 620 0
 847 000a 1A68     		ldr	r2, [r3]
 848              		.loc 2 621 0
 849 000c 5460     		str	r4, [r2, #4]
 850              	.LVL73:
 851              		.loc 2 620 0
 852 000e 2260     		str	r2, [r4]
 853              	.LBE124:
 854              	.LBE125:
 855              		.loc 1 509 0
ARM GAS  /var/folders/t8/16hdwfmd2fg_d3q6dgx6bpmw0000gn/T//ccqUiayV.s 			page 16


 856 0010 2022     		movs	r2, #32
 857              		.loc 1 508 0
 858 0012 A361     		str	r3, [r4, #24]
 859              		.loc 1 509 0
 860 0014 9954     		strb	r1, [r3, r2]
 861              		.loc 1 518 0
 862 0016 2323     		movs	r3, #35
 863 0018 0C3A     		subs	r2, r2, #12
 864 001a C254     		strb	r2, [r0, r3]
 865              		.loc 1 522 0
 866 001c FFF7FEFF 		bl	chSchReadyI
 867              	.LVL74:
 868 0020 0500     		movs	r5, r0
 869              	.LVL75:
 870              	.LBB126:
 871              	.LBB127:
 872              	.LBB128:
 873              		.loc 3 152 0
 874              		.syntax divided
 875              	@ 152 "../../tmk_core/tool/chibios/ChibiOS/os/common/ext/CMSIS/include/cmsis_gcc.h" 1
 876 0022 EFF30983 		MRS r3, psp
 877              	
 878              	@ 0 "" 2
 879              	.LVL76:
 880              		.thumb
 881              		.syntax unified
 882              	.LBE128:
 883              	.LBE127:
 884              		.loc 1 525 0
 885 0026 C269     		ldr	r2, [r0, #28]
 886 0028 243B     		subs	r3, r3, #36
 887              	.LVL77:
 888 002a 9A42     		cmp	r2, r3
 889 002c 02D9     		bls	.L70
 890              		.loc 1 525 0 is_stmt 0 discriminator 1
 891 002e 0548     		ldr	r0, .L71+4
 892              	.LVL78:
 893 0030 FFF7FEFF 		bl	chSysHalt
 894              	.LVL79:
 895              	.L70:
 896              		.loc 1 525 0 discriminator 3
 897 0034 2900     		movs	r1, r5
 898 0036 A069     		ldr	r0, [r4, #24]
 899 0038 FFF7FEFF 		bl	_port_switch
 900              	.LVL80:
 901              	.LBE126:
 902              		.loc 1 526 0 is_stmt 1 discriminator 3
 903              		@ sp needed
 904              	.LVL81:
 905 003c 70BD     		pop	{r4, r5, r6, pc}
 906              	.L72:
 907 003e C046     		.align	2
 908              	.L71:
 909 0040 00000000 		.word	.LANCHOR0
 910 0044 00000000 		.word	.LC7
 911              		.cfi_endproc
 912              	.LFE147:
ARM GAS  /var/folders/t8/16hdwfmd2fg_d3q6dgx6bpmw0000gn/T//ccqUiayV.s 			page 17


 913              		.size	chSchDoRescheduleBehind, .-chSchDoRescheduleBehind
 914              		.section	.text.chSchDoRescheduleAhead,"ax",%progbits
 915              		.align	1
 916              		.p2align 4,,15
 917              		.global	chSchDoRescheduleAhead
 918              		.syntax unified
 919              		.code	16
 920              		.thumb_func
 921              		.fpu softvfp
 922              		.type	chSchDoRescheduleAhead, %function
 923              	chSchDoRescheduleAhead:
 924              	.LFB148:
 925              		.loc 1 537 0
 926              		.cfi_startproc
 927              		@ args = 0, pretend = 0, frame = 0
 928              		@ frame_needed = 0, uses_anonymous_args = 0
 929 0000 70B5     		push	{r4, r5, r6, lr}
 930              		.cfi_def_cfa_offset 16
 931              		.cfi_offset 4, -16
 932              		.cfi_offset 5, -12
 933              		.cfi_offset 6, -8
 934              		.cfi_offset 14, -4
 935              		.loc 1 538 0
 936 0002 0D4C     		ldr	r4, .L75
 937              		.loc 1 542 0
 938 0004 0121     		movs	r1, #1
 939              	.LBB129:
 940              	.LBB130:
 941              		.loc 2 618 0
 942 0006 2368     		ldr	r3, [r4]
 943              	.LBE130:
 944              	.LBE129:
 945              		.loc 1 538 0
 946 0008 A069     		ldr	r0, [r4, #24]
 947              	.LVL82:
 948              	.LBB132:
 949              	.LBB131:
 950              		.loc 2 620 0
 951 000a 1A68     		ldr	r2, [r3]
 952              		.loc 2 621 0
 953 000c 5460     		str	r4, [r2, #4]
 954              	.LVL83:
 955              		.loc 2 620 0
 956 000e 2260     		str	r2, [r4]
 957              	.LBE131:
 958              	.LBE132:
 959              		.loc 1 542 0
 960 0010 2022     		movs	r2, #32
 961 0012 9954     		strb	r1, [r3, r2]
 962              		.loc 1 541 0
 963 0014 A361     		str	r3, [r4, #24]
 964              		.loc 1 550 0
 965 0016 FFF7FEFF 		bl	chSchReadyAheadI
 966              	.LVL84:
 967 001a 0500     		movs	r5, r0
 968              	.LVL85:
 969              	.LBB133:
ARM GAS  /var/folders/t8/16hdwfmd2fg_d3q6dgx6bpmw0000gn/T//ccqUiayV.s 			page 18


 970              	.LBB134:
 971              	.LBB135:
 972              		.loc 3 152 0
 973              		.syntax divided
 974              	@ 152 "../../tmk_core/tool/chibios/ChibiOS/os/common/ext/CMSIS/include/cmsis_gcc.h" 1
 975 001c EFF30983 		MRS r3, psp
 976              	
 977              	@ 0 "" 2
 978              	.LVL86:
 979              		.thumb
 980              		.syntax unified
 981              	.LBE135:
 982              	.LBE134:
 983              		.loc 1 553 0
 984 0020 C269     		ldr	r2, [r0, #28]
 985 0022 243B     		subs	r3, r3, #36
 986              	.LVL87:
 987 0024 9A42     		cmp	r2, r3
 988 0026 02D9     		bls	.L74
 989              		.loc 1 553 0 is_stmt 0 discriminator 1
 990 0028 0448     		ldr	r0, .L75+4
 991              	.LVL88:
 992 002a FFF7FEFF 		bl	chSysHalt
 993              	.LVL89:
 994              	.L74:
 995              		.loc 1 553 0 discriminator 3
 996 002e 2900     		movs	r1, r5
 997 0030 A069     		ldr	r0, [r4, #24]
 998 0032 FFF7FEFF 		bl	_port_switch
 999              	.LVL90:
 1000              	.LBE133:
 1001              		.loc 1 554 0 is_stmt 1 discriminator 3
 1002              		@ sp needed
 1003              	.LVL91:
 1004 0036 70BD     		pop	{r4, r5, r6, pc}
 1005              	.L76:
 1006              		.align	2
 1007              	.L75:
 1008 0038 00000000 		.word	.LANCHOR0
 1009 003c 00000000 		.word	.LC7
 1010              		.cfi_endproc
 1011              	.LFE148:
 1012              		.size	chSchDoRescheduleAhead, .-chSchDoRescheduleAhead
 1013              		.section	.text.chSchRescheduleS,"ax",%progbits
 1014              		.align	1
 1015              		.p2align 4,,15
 1016              		.global	chSchRescheduleS
 1017              		.syntax unified
 1018              		.code	16
 1019              		.thumb_func
 1020              		.fpu softvfp
 1021              		.type	chSchRescheduleS, %function
 1022              	chSchRescheduleS:
 1023              	.LFB145:
 1024              		.loc 1 455 0
 1025              		.cfi_startproc
 1026              		@ args = 0, pretend = 0, frame = 0
ARM GAS  /var/folders/t8/16hdwfmd2fg_d3q6dgx6bpmw0000gn/T//ccqUiayV.s 			page 19


 1027              		@ frame_needed = 0, uses_anonymous_args = 0
 1028 0000 10B5     		push	{r4, lr}
 1029              		.cfi_def_cfa_offset 8
 1030              		.cfi_offset 4, -8
 1031              		.cfi_offset 14, -4
 1032              		.loc 1 457 0
 1033 0002 FFF7FEFF 		bl	chDbgCheckClassS
 1034              	.LVL92:
 1035              	.LBB136:
 1036              	.LBB137:
 1037              		.loc 2 657 0
 1038 0006 FFF7FEFF 		bl	chDbgCheckClassI
 1039              	.LVL93:
 1040              		.loc 2 659 0
 1041 000a 054B     		ldr	r3, .L79
 1042 000c 1A68     		ldr	r2, [r3]
 1043 000e 9B69     		ldr	r3, [r3, #24]
 1044              	.LBE137:
 1045              	.LBE136:
 1046              		.loc 1 459 0
 1047 0010 9268     		ldr	r2, [r2, #8]
 1048 0012 9B68     		ldr	r3, [r3, #8]
 1049 0014 9A42     		cmp	r2, r3
 1050 0016 01D9     		bls	.L77
 1051              		.loc 1 460 0
 1052 0018 FFF7FEFF 		bl	chSchDoRescheduleAhead
 1053              	.LVL94:
 1054              	.L77:
 1055              		.loc 1 462 0
 1056              		@ sp needed
 1057 001c 10BD     		pop	{r4, pc}
 1058              	.L80:
 1059 001e C046     		.align	2
 1060              	.L79:
 1061 0020 00000000 		.word	.LANCHOR0
 1062              		.cfi_endproc
 1063              	.LFE145:
 1064              		.size	chSchRescheduleS, .-chSchRescheduleS
 1065              		.section	.text.chSchDoReschedule,"ax",%progbits
 1066              		.align	1
 1067              		.p2align 4,,15
 1068              		.global	chSchDoReschedule
 1069              		.syntax unified
 1070              		.code	16
 1071              		.thumb_func
 1072              		.fpu softvfp
 1073              		.type	chSchDoReschedule, %function
 1074              	chSchDoReschedule:
 1075              	.LFB149:
 1076              		.loc 1 566 0
 1077              		.cfi_startproc
 1078              		@ args = 0, pretend = 0, frame = 0
 1079              		@ frame_needed = 0, uses_anonymous_args = 0
 1080 0000 70B5     		push	{r4, r5, r6, lr}
 1081              		.cfi_def_cfa_offset 16
 1082              		.cfi_offset 4, -16
 1083              		.cfi_offset 5, -12
ARM GAS  /var/folders/t8/16hdwfmd2fg_d3q6dgx6bpmw0000gn/T//ccqUiayV.s 			page 20


 1084              		.cfi_offset 6, -8
 1085              		.cfi_offset 14, -4
 1086              		.loc 1 567 0
 1087 0002 124C     		ldr	r4, .L85
 1088              		.loc 1 571 0
 1089 0004 0121     		movs	r1, #1
 1090              	.LBB138:
 1091              	.LBB139:
 1092              		.loc 2 618 0
 1093 0006 2368     		ldr	r3, [r4]
 1094              	.LBE139:
 1095              	.LBE138:
 1096              		.loc 1 567 0
 1097 0008 A069     		ldr	r0, [r4, #24]
 1098              	.LVL95:
 1099              	.LBB142:
 1100              	.LBB140:
 1101              		.loc 2 620 0
 1102 000a 1A68     		ldr	r2, [r3]
 1103              	.LBE140:
 1104              	.LBE142:
 1105              		.loc 1 581 0
 1106 000c 2326     		movs	r6, #35
 1107              	.LBB143:
 1108              	.LBB141:
 1109              		.loc 2 621 0
 1110 000e 5460     		str	r4, [r2, #4]
 1111              	.LVL96:
 1112              		.loc 2 620 0
 1113 0010 2260     		str	r2, [r4]
 1114              	.LBE141:
 1115              	.LBE143:
 1116              		.loc 1 571 0
 1117 0012 2022     		movs	r2, #32
 1118              		.loc 1 570 0
 1119 0014 A361     		str	r3, [r4, #24]
 1120              		.loc 1 571 0
 1121 0016 9954     		strb	r1, [r3, r2]
 1122              		.loc 1 581 0
 1123 0018 9B5D     		ldrb	r3, [r3, r6]
 1124 001a 002B     		cmp	r3, #0
 1125 001c 12D1     		bne	.L82
 1126              		.loc 1 585 0
 1127 001e FFF7FEFF 		bl	chSchReadyI
 1128              	.LVL97:
 1129              		.loc 1 588 0
 1130 0022 1423     		movs	r3, #20
 1131              		.loc 1 585 0
 1132 0024 0500     		movs	r5, r0
 1133              	.LVL98:
 1134              		.loc 1 588 0
 1135 0026 8355     		strb	r3, [r0, r6]
 1136              	.L83:
 1137              	.LBB144:
 1138              	.LBB145:
 1139              	.LBB146:
 1140              		.loc 3 152 0
ARM GAS  /var/folders/t8/16hdwfmd2fg_d3q6dgx6bpmw0000gn/T//ccqUiayV.s 			page 21


 1141              		.syntax divided
 1142              	@ 152 "../../tmk_core/tool/chibios/ChibiOS/os/common/ext/CMSIS/include/cmsis_gcc.h" 1
 1143 0028 EFF30983 		MRS r3, psp
 1144              	
 1145              	@ 0 "" 2
 1146              	.LVL99:
 1147              		.thumb
 1148              		.syntax unified
 1149              	.LBE146:
 1150              	.LBE145:
 1151              		.loc 1 602 0
 1152 002c EA69     		ldr	r2, [r5, #28]
 1153 002e 243B     		subs	r3, r3, #36
 1154              	.LVL100:
 1155 0030 9A42     		cmp	r2, r3
 1156 0032 02D9     		bls	.L84
 1157              		.loc 1 602 0 is_stmt 0 discriminator 1
 1158 0034 0648     		ldr	r0, .L85+4
 1159              	.LVL101:
 1160 0036 FFF7FEFF 		bl	chSysHalt
 1161              	.LVL102:
 1162              	.L84:
 1163              		.loc 1 602 0 discriminator 3
 1164 003a 2900     		movs	r1, r5
 1165 003c A069     		ldr	r0, [r4, #24]
 1166 003e FFF7FEFF 		bl	_port_switch
 1167              	.LVL103:
 1168              	.LBE144:
 1169              		.loc 1 603 0 is_stmt 1 discriminator 3
 1170              		@ sp needed
 1171              	.LVL104:
 1172 0042 70BD     		pop	{r4, r5, r6, pc}
 1173              	.LVL105:
 1174              	.L82:
 1175              		.loc 1 593 0
 1176 0044 FFF7FEFF 		bl	chSchReadyAheadI
 1177              	.LVL106:
 1178 0048 0500     		movs	r5, r0
 1179              	.LVL107:
 1180 004a EDE7     		b	.L83
 1181              	.L86:
 1182              		.align	2
 1183              	.L85:
 1184 004c 00000000 		.word	.LANCHOR0
 1185 0050 00000000 		.word	.LC7
 1186              		.cfi_endproc
 1187              	.LFE149:
 1188              		.size	chSchDoReschedule, .-chSchDoReschedule
 1189              		.global	ch
 1190              		.section	.bss.ch,"aw",%nobits
 1191              		.align	2
 1192              		.set	.LANCHOR0,. + 0
 1193              		.type	ch, %object
 1194              		.size	ch, 124
 1195              	ch:
 1196 0000 00000000 		.space	124
 1196      00000000 
ARM GAS  /var/folders/t8/16hdwfmd2fg_d3q6dgx6bpmw0000gn/T//ccqUiayV.s 			page 22


 1196      00000000 
 1196      00000000 
 1196      00000000 
 1197              		.section	.rodata.__func__.5722,"a",%progbits
 1198              		.align	2
 1199              		.set	.LANCHOR1,. + 0
 1200              		.type	__func__.5722, %object
 1201              		.size	__func__.5722, 12
 1202              	__func__.5722:
 1203 0000 63685363 		.ascii	"chSchReadyI\000"
 1203      68526561 
 1203      64794900 
 1204              		.section	.rodata.__func__.5729,"a",%progbits
 1205              		.align	2
 1206              		.set	.LANCHOR2,. + 0
 1207              		.type	__func__.5729, %object
 1208              		.size	__func__.5729, 17
 1209              	__func__.5729:
 1210 0000 63685363 		.ascii	"chSchReadyAheadI\000"
 1210      68526561 
 1210      64794168 
 1210      65616449 
 1210      00
 1211              		.section	.rodata.__func__.5758,"a",%progbits
 1212              		.align	2
 1213              		.set	.LANCHOR3,. + 0
 1214              		.type	__func__.5758, %object
 1215              		.size	__func__.5758, 13
 1216              	__func__.5758:
 1217 0000 63685363 		.ascii	"chSchWakeupS\000"
 1217      6857616B 
 1217      65757053 
 1217      00
 1218              		.section	.rodata.chSchGoSleepS.str1.4,"aMS",%progbits,1
 1219              		.align	2
 1220              	.LC7:
 1221 0000 73746163 		.ascii	"stack overflow\000"
 1221      6B206F76 
 1221      6572666C 
 1221      6F7700
 1222              		.text
 1223              	.Letext0:
 1224              		.file 7 "/usr/local/Caskroom/gcc-arm-embedded/7-2017-q4-major/gcc-arm-none-eabi-7-2017-q4-major/ar
 1225              		.file 8 "/usr/local/Caskroom/gcc-arm-embedded/7-2017-q4-major/gcc-arm-none-eabi-7-2017-q4-major/ar
 1226              		.file 9 "../../tmk_core/tool/chibios/ChibiOS/os/common/ports/ARMCMx/compilers/GCC/chtypes.h"
 1227              		.file 10 "../../tmk_core/tool/chibios/ChibiOS/os/rt/include/chsystypes.h"
 1228              		.file 11 "../../tmk_core/tool/chibios/ChibiOS/os/common/ports/ARMCMx/chcore.h"
 1229              		.file 12 "../../tmk_core/tool/chibios/ChibiOS/os/common/ports/ARMCMx/chcore_v6m.h"
 1230              		.file 13 "../../tmk_core/tool/chibios/ChibiOS/os/rt/include/chmtx.h"
 1231              		.file 14 "../../tmk_core/tool/chibios/ChibiOS/os/rt/include/chregistry.h"
 1232              		.file 15 "../../tmk_core/tool/chibios/ChibiOS/os/rt/include/chdebug.h"