ARM GAS  /var/folders/t8/16hdwfmd2fg_d3q6dgx6bpmw0000gn/T//ccqUiayV.s 			page 1


   1              		.cpu cortex-m0plus
   2              		.eabi_attribute 20, 1
   3              		.eabi_attribute 21, 1
   4              		.eabi_attribute 23, 3
   5              		.eabi_attribute 24, 1
   6              		.eabi_attribute 25, 1
   7              		.eabi_attribute 26, 1
   8              		.eabi_attribute 30, 2
   9              		.eabi_attribute 34, 0
  10              		.eabi_attribute 18, 4
  11              		.file	"chschd.c"
  12              		.text
  13              	.Ltext0:
  14              		.cfi_sections	.debug_frame
  15              		.section	.text._scheduler_init,"ax",%progbits
  16              		.align	1
  17              		.p2align 4,,15
  18              		.global	_scheduler_init
  19              		.syntax unified
  20              		.code	16
  21              		.thumb_func
  22              		.fpu softvfp
  23              		.type	_scheduler_init, %function
  24              	_scheduler_init:
  25              	.LFB138:
  26              		.file 1 "../../tmk_core/tool/chibios/ChibiOS/os/rt/src/chschd.c"
  27              		.loc 1 65 0
  28              		.cfi_startproc
  29              		@ args = 0, pretend = 0, frame = 0
  30              		@ frame_needed = 0, uses_anonymous_args = 0
  31              		@ link register save eliminated.
  32              	.LVL0:
  33              		.loc 1 68 0
  34 0000 0022     		movs	r2, #0
  35              	.LBB88:
  36              	.LBB89:
  37              		.file 2 "../../tmk_core/tool/chibios/ChibiOS/os/rt/include/chschd.h"
  38              		.loc 2 550 0
  39 0002 034B     		ldr	r3, .L3
  40              	.LBE89:
  41              	.LBE88:
  42              		.loc 1 73 0
  43              		@ sp needed
  44              	.LBB91:
  45              	.LBB90:
  46              		.loc 2 550 0
  47 0004 1B60     		str	r3, [r3]
  48              		.loc 2 551 0
  49 0006 5B60     		str	r3, [r3, #4]
  50              	.LVL1:
  51              	.LBE90:
  52              	.LBE91:
  53              		.loc 1 68 0
  54 0008 9A60     		str	r2, [r3, #8]
  55              		.loc 1 70 0
  56 000a 1B61     		str	r3, [r3, #16]
  57              		.loc 1 71 0
ARM GAS  /var/folders/t8/16hdwfmd2fg_d3q6dgx6bpmw0000gn/T//ccqUiayV.s 			page 2


  58 000c 5B61     		str	r3, [r3, #20]
  59              		.loc 1 73 0
  60 000e 7047     		bx	lr
  61              	.L4:
  62              		.align	2
  63              	.L3:
  64 0010 00000000 		.word	.LANCHOR0
  65              		.cfi_endproc
  66              	.LFE138:
  67              		.size	_scheduler_init, .-_scheduler_init
  68              		.section	.text.chSchReadyI,"ax",%progbits
  69              		.align	1
  70              		.p2align 4,,15
  71              		.global	chSchReadyI
  72              		.syntax unified
  73              		.code	16
  74              		.thumb_func
  75              		.fpu softvfp
  76              		.type	chSchReadyI, %function
  77              	chSchReadyI:
  78              	.LFB139:
  79              		.loc 1 218 0
  80              		.cfi_startproc
  81              		@ args = 0, pretend = 0, frame = 0
  82              		@ frame_needed = 0, uses_anonymous_args = 0
  83              	.LVL2:
  84 0000 10B5     		push	{r4, lr}
  85              		.cfi_def_cfa_offset 8
  86              		.cfi_offset 4, -8
  87              		.cfi_offset 14, -4
  88              		.loc 1 218 0
  89 0002 0400     		movs	r4, r0
  90              		.loc 1 221 0
  91 0004 FFF7FEFF 		bl	chDbgCheckClassI
  92              	.LVL3:
  93              		.loc 1 222 0
  94 0008 002C     		cmp	r4, #0
  95 000a 19D0     		beq	.L14
  96              	.L6:
  97              		.loc 1 223 0 discriminator 1
  98 000c 2023     		movs	r3, #32
  99 000e E35C     		ldrb	r3, [r4, r3]
 100 0010 002B     		cmp	r3, #0
 101 0012 11D0     		beq	.L7
 102              		.loc 1 223 0 is_stmt 0 discriminator 3
 103 0014 0F2B     		cmp	r3, #15
 104 0016 0FD0     		beq	.L7
 105              	.L8:
 106              		.loc 1 227 0 is_stmt 1
 107 0018 2023     		movs	r3, #32
 108 001a 0022     		movs	r2, #0
 109 001c E254     		strb	r2, [r4, r3]
 110              	.LVL4:
 111              		.loc 1 231 0
 112 001e A268     		ldr	r2, [r4, #8]
 113              		.loc 1 228 0
 114 0020 094B     		ldr	r3, .L15
ARM GAS  /var/folders/t8/16hdwfmd2fg_d3q6dgx6bpmw0000gn/T//ccqUiayV.s 			page 3


 115              	.LVL5:
 116              	.L9:
 117              		.loc 1 230 0 discriminator 1
 118 0022 1B68     		ldr	r3, [r3]
 119              	.LVL6:
 120              		.loc 1 231 0 discriminator 1
 121 0024 9968     		ldr	r1, [r3, #8]
 122 0026 9142     		cmp	r1, r2
 123 0028 FBD2     		bcs	.L9
 124              		.loc 1 234 0
 125 002a 5A68     		ldr	r2, [r3, #4]
 126              		.loc 1 233 0
 127 002c 2360     		str	r3, [r4]
 128              		.loc 1 234 0
 129 002e 6260     		str	r2, [r4, #4]
 130              		.loc 1 239 0
 131 0030 2000     		movs	r0, r4
 132              		.loc 1 235 0
 133 0032 1460     		str	r4, [r2]
 134              		.loc 1 239 0
 135              		@ sp needed
 136              		.loc 1 236 0
 137 0034 5C60     		str	r4, [r3, #4]
 138              	.LVL7:
 139              		.loc 1 239 0
 140 0036 10BD     		pop	{r4, pc}
 141              	.LVL8:
 142              	.L7:
 143              		.loc 1 223 0 discriminator 4
 144 0038 0448     		ldr	r0, .L15+4
 145 003a FFF7FEFF 		bl	chSysHalt
 146              	.LVL9:
 147 003e EBE7     		b	.L8
 148              	.L14:
 149              		.loc 1 222 0 discriminator 2
 150 0040 0248     		ldr	r0, .L15+4
 151 0042 FFF7FEFF 		bl	chSysHalt
 152              	.LVL10:
 153 0046 E1E7     		b	.L6
 154              	.L16:
 155              		.align	2
 156              	.L15:
 157 0048 00000000 		.word	.LANCHOR0
 158 004c 00000000 		.word	.LANCHOR1
 159              		.cfi_endproc
 160              	.LFE139:
 161              		.size	chSchReadyI, .-chSchReadyI
 162              		.section	.text.wakeup,"ax",%progbits
 163              		.align	1
 164              		.p2align 4,,15
 165              		.syntax unified
 166              		.code	16
 167              		.thumb_func
 168              		.fpu softvfp
 169              		.type	wakeup, %function
 170              	wakeup:
 171              	.LFB142:
ARM GAS  /var/folders/t8/16hdwfmd2fg_d3q6dgx6bpmw0000gn/T//ccqUiayV.s 			page 4


 172              		.loc 1 319 0
 173              		.cfi_startproc
 174              		@ args = 0, pretend = 0, frame = 0
 175              		@ frame_needed = 0, uses_anonymous_args = 0
 176              	.LVL11:
 177 0000 70B5     		push	{r4, r5, r6, lr}
 178              		.cfi_def_cfa_offset 16
 179              		.cfi_offset 4, -16
 180              		.cfi_offset 5, -12
 181              		.cfi_offset 6, -8
 182              		.cfi_offset 14, -4
 183              		.loc 1 319 0
 184 0002 0400     		movs	r4, r0
 185              	.LVL12:
 186              	.LBB92:
 187              	.LBB93:
 188              	.LBB94:
 189              	.LBB95:
 190              	.LBB96:
 191              	.LBB97:
 192              		.file 3 "../../tmk_core/tool/chibios/ChibiOS/os/common/ext/CMSIS/include/cmsis_gcc.h"
 193              		.loc 3 71 0
 194              		.syntax divided
 195              	@ 71 "../../tmk_core/tool/chibios/ChibiOS/os/common/ext/CMSIS/include/cmsis_gcc.h" 1
 196 0004 72B6     		cpsid i
 197              	@ 0 "" 2
 198              		.thumb
 199              		.syntax unified
 200              	.LBE97:
 201              	.LBE96:
 202              	.LBE95:
 203              	.LBE94:
 204              		.file 4 "../../tmk_core/tool/chibios/ChibiOS/os/rt/include/chsys.h"
 205              		.loc 4 418 0
 206 0006 FFF7FEFF 		bl	_dbg_check_lock_from_isr
 207              	.LVL13:
 208              	.LBE93:
 209              	.LBE92:
 210              		.loc 1 323 0
 211 000a 2023     		movs	r3, #32
 212 000c E35C     		ldrb	r3, [r4, r3]
 213 000e 072B     		cmp	r3, #7
 214 0010 0ED8     		bhi	.L18
 215 0012 114A     		ldr	r2, .L26
 216 0014 9B00     		lsls	r3, r3, #2
 217 0016 D358     		ldr	r3, [r2, r3]
 218 0018 9F46     		mov	pc, r3
 219              		.section	.rodata.wakeup,"a",%progbits
 220              		.align	2
 221              	.L20:
 222 0000 3C000000 		.word	.L25
 223 0004 30000000 		.word	.L18
 224 0008 30000000 		.word	.L18
 225 000c 44000000 		.word	.L21
 226 0010 26000000 		.word	.L22
 227 0014 1A000000 		.word	.L23
 228 0018 30000000 		.word	.L18
ARM GAS  /var/folders/t8/16hdwfmd2fg_d3q6dgx6bpmw0000gn/T//ccqUiayV.s 			page 5


 229 001c 26000000 		.word	.L22
 230              		.section	.text.wakeup
 231              	.L23:
 232              		.loc 1 334 0
 233 001a 656A     		ldr	r5, [r4, #36]
 234              	.LVL14:
 235              	.LBB98:
 236              	.LBB99:
 237              		.file 5 "../../tmk_core/tool/chibios/ChibiOS/os/rt/include/chsem.h"
 238              		.loc 5 136 0
 239 001c FFF7FEFF 		bl	chDbgCheckClassI
 240              	.LVL15:
 241              		.loc 5 138 0
 242 0020 AB68     		ldr	r3, [r5, #8]
 243 0022 0133     		adds	r3, r3, #1
 244 0024 AB60     		str	r3, [r5, #8]
 245              	.LVL16:
 246              	.L22:
 247              	.LBE99:
 248              	.LBE98:
 249              	.LBB100:
 250              	.LBB101:
 251              		.loc 2 637 0
 252 0026 2268     		ldr	r2, [r4]
 253 0028 6368     		ldr	r3, [r4, #4]
 254 002a 1A60     		str	r2, [r3]
 255              		.loc 2 638 0
 256 002c 2268     		ldr	r2, [r4]
 257 002e 5360     		str	r3, [r2, #4]
 258              	.LVL17:
 259              	.L18:
 260              	.LBE101:
 261              	.LBE100:
 262              		.loc 1 348 0
 263 0030 0123     		movs	r3, #1
 264 0032 5B42     		rsbs	r3, r3, #0
 265 0034 6362     		str	r3, [r4, #36]
 266              		.loc 1 349 0
 267 0036 2000     		movs	r0, r4
 268 0038 FFF7FEFF 		bl	chSchReadyI
 269              	.LVL18:
 270              	.L25:
 271              	.LBB102:
 272              	.LBB103:
 273              		.loc 4 436 0
 274 003c FFF7FEFF 		bl	_dbg_check_unlock_from_isr
 275              	.LVL19:
 276              	.LBB104:
 277              	.LBB105:
 278              	.LBB106:
 279              	.LBB107:
 280              		.loc 3 60 0
 281              		.syntax divided
 282              	@ 60 "../../tmk_core/tool/chibios/ChibiOS/os/common/ext/CMSIS/include/cmsis_gcc.h" 1
 283 0040 62B6     		cpsie i
 284              	@ 0 "" 2
 285              		.thumb
ARM GAS  /var/folders/t8/16hdwfmd2fg_d3q6dgx6bpmw0000gn/T//ccqUiayV.s 			page 6


 286              		.syntax unified
 287              	.LBE107:
 288              	.LBE106:
 289              	.LBE105:
 290              	.LBE104:
 291              	.LBE103:
 292              	.LBE102:
 293              		.loc 1 351 0
 294              		@ sp needed
 295              	.LVL20:
 296 0042 70BD     		pop	{r4, r5, r6, pc}
 297              	.LVL21:
 298              	.L21:
 299              		.loc 1 330 0
 300 0044 0022     		movs	r2, #0
 301 0046 636A     		ldr	r3, [r4, #36]
 302              		.loc 1 349 0
 303 0048 2000     		movs	r0, r4
 304              		.loc 1 330 0
 305 004a 1A60     		str	r2, [r3]
 306              		.loc 1 348 0
 307 004c 0123     		movs	r3, #1
 308 004e 5B42     		rsbs	r3, r3, #0
 309 0050 6362     		str	r3, [r4, #36]
 310              		.loc 1 349 0
 311 0052 FFF7FEFF 		bl	chSchReadyI
 312              	.LVL22:
 313 0056 F1E7     		b	.L25
 314              	.L27:
 315              		.align	2
 316              	.L26:
 317 0058 00000000 		.word	.L20
 318              		.cfi_endproc
 319              	.LFE142:
 320              		.size	wakeup, .-wakeup
 321              		.section	.text.chSchReadyAheadI,"ax",%progbits
 322              		.align	1
 323              		.p2align 4,,15
 324              		.global	chSchReadyAheadI
 325              		.syntax unified
 326              		.code	16
 327              		.thumb_func
 328              		.fpu softvfp
 329              		.type	chSchReadyAheadI, %function
 330              	chSchReadyAheadI:
 331              	.LFB140:
 332              		.loc 1 257 0
 333              		.cfi_startproc
 334              		@ args = 0, pretend = 0, frame = 0
 335              		@ frame_needed = 0, uses_anonymous_args = 0
 336              	.LVL23:
 337 0000 10B5     		push	{r4, lr}
 338              		.cfi_def_cfa_offset 8
 339              		.cfi_offset 4, -8
 340              		.cfi_offset 14, -4
 341              		.loc 1 257 0
 342 0002 0400     		movs	r4, r0
ARM GAS  /var/folders/t8/16hdwfmd2fg_d3q6dgx6bpmw0000gn/T//ccqUiayV.s 			page 7


 343              		.loc 1 260 0
 344 0004 FFF7FEFF 		bl	chDbgCheckClassI
 345              	.LVL24:
 346              		.loc 1 261 0
 347 0008 002C     		cmp	r4, #0
 348 000a 19D0     		beq	.L37
 349              	.L29:
 350              		.loc 1 262 0 discriminator 1
 351 000c 2023     		movs	r3, #32
 352 000e E35C     		ldrb	r3, [r4, r3]
 353 0010 002B     		cmp	r3, #0
 354 0012 11D0     		beq	.L30
 355              		.loc 1 262 0 is_stmt 0 discriminator 3
 356 0014 0F2B     		cmp	r3, #15
 357 0016 0FD0     		beq	.L30
 358              	.L31:
 359              		.loc 1 266 0 is_stmt 1
 360 0018 2023     		movs	r3, #32
 361 001a 0022     		movs	r2, #0
 362 001c E254     		strb	r2, [r4, r3]
 363              	.LVL25:
 364              		.loc 1 270 0
 365 001e A268     		ldr	r2, [r4, #8]
 366              		.loc 1 267 0
 367 0020 094B     		ldr	r3, .L38
 368              	.LVL26:
 369              	.L32:
 370              		.loc 1 269 0 discriminator 1
 371 0022 1B68     		ldr	r3, [r3]
 372              	.LVL27:
 373              		.loc 1 270 0 discriminator 1
 374 0024 9968     		ldr	r1, [r3, #8]
 375 0026 9142     		cmp	r1, r2
 376 0028 FBD8     		bhi	.L32
 377              		.loc 1 273 0
 378 002a 5A68     		ldr	r2, [r3, #4]
 379              		.loc 1 272 0
 380 002c 2360     		str	r3, [r4]
 381              		.loc 1 273 0
 382 002e 6260     		str	r2, [r4, #4]
 383              		.loc 1 278 0
 384 0030 2000     		movs	r0, r4
 385              		.loc 1 274 0
 386 0032 1460     		str	r4, [r2]
 387              		.loc 1 278 0
 388              		@ sp needed
 389              		.loc 1 275 0
 390 0034 5C60     		str	r4, [r3, #4]
 391              	.LVL28:
 392              		.loc 1 278 0
 393 0036 10BD     		pop	{r4, pc}
 394              	.LVL29:
 395              	.L30:
 396              		.loc 1 262 0 discriminator 4
 397 0038 0448     		ldr	r0, .L38+4
 398 003a FFF7FEFF 		bl	chSysHalt
 399              	.LVL30:
ARM GAS  /var/folders/t8/16hdwfmd2fg_d3q6dgx6bpmw0000gn/T//ccqUiayV.s 			page 8


 400 003e EBE7     		b	.L31
 401              	.L37:
 402              		.loc 1 261 0 discriminator 2
 403 0040 0248     		ldr	r0, .L38+4
 404 0042 FFF7FEFF 		bl	chSysHalt
 405              	.LVL31:
 406 0046 E1E7     		b	.L29
 407              	.L39:
 408              		.align	2
 409              	.L38:
 410 0048 00000000 		.word	.LANCHOR0
 411 004c 00000000 		.word	.LANCHOR2
 412              		.cfi_endproc
 413              	.LFE140:
 414              		.size	chSchReadyAheadI, .-chSchReadyAheadI
 415              		.section	.text.chSchGoSleepS,"ax",%progbits
 416              		.align	1
 417              		.p2align 4,,15
 418              		.global	chSchGoSleepS
 419              		.syntax unified
 420              		.code	16
 421              		.thumb_func
 422              		.fpu softvfp
 423              		.type	chSchGoSleepS, %function
 424              	chSchGoSleepS:
 425              	.LFB141:
 426              		.loc 1 289 0
 427              		.cfi_startproc
 428              		@ args = 0, pretend = 0, frame = 0
 429              		@ frame_needed = 0, uses_anonymous_args = 0
 430              	.LVL32:
 431 0000 70B5     		push	{r4, r5, r6, lr}
 432              		.cfi_def_cfa_offset 16
 433              		.cfi_offset 4, -16
 434              		.cfi_offset 5, -12
 435              		.cfi_offset 6, -8
 436              		.cfi_offset 14, -4
 437              		.loc 1 290 0
 438 0002 0F4C     		ldr	r4, .L42
 439              		.loc 1 289 0
 440 0004 0600     		movs	r6, r0
 441              		.loc 1 290 0
 442 0006 A569     		ldr	r5, [r4, #24]
 443              	.LVL33:
 444              		.loc 1 292 0
 445 0008 FFF7FEFF 		bl	chDbgCheckClassS
 446              	.LVL34:
 447              		.loc 1 295 0
 448 000c 2023     		movs	r3, #32
 449              		.loc 1 300 0
 450 000e 2322     		movs	r2, #35
 451 0010 1421     		movs	r1, #20
 452              	.LBB108:
 453              	.LBB109:
 454              		.loc 2 618 0
 455 0012 2068     		ldr	r0, [r4]
 456              	.LBE109:
ARM GAS  /var/folders/t8/16hdwfmd2fg_d3q6dgx6bpmw0000gn/T//ccqUiayV.s 			page 9


 457              	.LBE108:
 458              		.loc 1 295 0
 459 0014 EE54     		strb	r6, [r5, r3]
 460              		.loc 1 300 0
 461 0016 A954     		strb	r1, [r5, r2]
 462              	.LVL35:
 463              	.LBB111:
 464              	.LBB110:
 465              		.loc 2 620 0
 466 0018 0268     		ldr	r2, [r0]
 467              		.loc 2 621 0
 468 001a 5460     		str	r4, [r2, #4]
 469              	.LVL36:
 470              		.loc 2 620 0
 471 001c 2260     		str	r2, [r4]
 472              	.LBE110:
 473              	.LBE111:
 474              		.loc 1 305 0
 475 001e 0122     		movs	r2, #1
 476              		.loc 1 304 0
 477 0020 A061     		str	r0, [r4, #24]
 478              		.loc 1 305 0
 479 0022 C254     		strb	r2, [r0, r3]
 480              	.LBB112:
 481              	.LBB113:
 482              	.LBB114:
 483              		.loc 3 152 0
 484              		.syntax divided
 485              	@ 152 "../../tmk_core/tool/chibios/ChibiOS/os/common/ext/CMSIS/include/cmsis_gcc.h" 1
 486 0024 EFF30983 		MRS r3, psp
 487              	
 488              	@ 0 "" 2
 489              	.LVL37:
 490              		.thumb
 491              		.syntax unified
 492              	.LBE114:
 493              	.LBE113:
 494              		.loc 1 313 0
 495 0028 EA69     		ldr	r2, [r5, #28]
 496 002a 243B     		subs	r3, r3, #36
 497              	.LVL38:
 498 002c 9A42     		cmp	r2, r3
 499 002e 03D9     		bls	.L41
 500              		.loc 1 313 0 is_stmt 0 discriminator 1
 501 0030 0448     		ldr	r0, .L42+4
 502 0032 FFF7FEFF 		bl	chSysHalt
 503              	.LVL39:
 504 0036 A069     		ldr	r0, [r4, #24]
 505              	.L41:
 506              		.loc 1 313 0 discriminator 3
 507 0038 2900     		movs	r1, r5
 508 003a FFF7FEFF 		bl	_port_switch
 509              	.LVL40:
 510              	.LBE112:
 511              		.loc 1 314 0 is_stmt 1 discriminator 3
 512              		@ sp needed
 513              	.LVL41:
ARM GAS  /var/folders/t8/16hdwfmd2fg_d3q6dgx6bpmw0000gn/T//ccqUiayV.s 			page 10


 514 003e 70BD     		pop	{r4, r5, r6, pc}
 515              	.L43:
 516              		.align	2
 517              	.L42:
 518 0040 00000000 		.word	.LANCHOR0
 519 0044 00000000 		.word	.LC7
 520              		.cfi_endproc
 521              	.LFE141:
 522              		.size	chSchGoSleepS, .-chSchGoSleepS
 523              		.section	.text.chSchGoSleepTimeoutS,"ax",%progbits
 524              		.align	1
 525              		.p2align 4,,15
 526              		.global	chSchGoSleepTimeoutS
 527              		.syntax unified
 528              		.code	16
 529              		.thumb_func
 530              		.fpu softvfp
 531              		.type	chSchGoSleepTimeoutS, %function
 532              	chSchGoSleepTimeoutS:
 533              	.LFB143:
 534              		.loc 1 374 0
 535              		.cfi_startproc
 536              		@ args = 0, pretend = 0, frame = 24
 537              		@ frame_needed = 0, uses_anonymous_args = 0
 538              	.LVL42:
 539 0000 70B5     		push	{r4, r5, r6, lr}
 540              		.cfi_def_cfa_offset 16
 541              		.cfi_offset 4, -16
 542              		.cfi_offset 5, -12
 543              		.cfi_offset 6, -8
 544              		.cfi_offset 14, -4
 545 0002 0D00     		movs	r5, r1
 546 0004 86B0     		sub	sp, sp, #24
 547              		.cfi_def_cfa_offset 40
 548              		.loc 1 374 0
 549 0006 0600     		movs	r6, r0
 550              		.loc 1 376 0
 551 0008 FFF7FEFF 		bl	chDbgCheckClassS
 552              	.LVL43:
 553              		.loc 1 378 0
 554 000c 6B1C     		adds	r3, r5, #1
 555 000e 15D0     		beq	.L45
 556              	.LBB115:
 557              		.loc 1 381 0
 558 0010 0D4C     		ldr	r4, .L51
 559 0012 0E4A     		ldr	r2, .L51+4
 560 0014 A369     		ldr	r3, [r4, #24]
 561 0016 2900     		movs	r1, r5
 562 0018 01A8     		add	r0, sp, #4
 563 001a FFF7FEFF 		bl	chVTDoSetI
 564              	.LVL44:
 565              		.loc 1 382 0
 566 001e 3000     		movs	r0, r6
 567 0020 FFF7FEFF 		bl	chSchGoSleepS
 568              	.LVL45:
 569              	.LBB116:
 570              	.LBB117:
ARM GAS  /var/folders/t8/16hdwfmd2fg_d3q6dgx6bpmw0000gn/T//ccqUiayV.s 			page 11


 571              		.file 6 "../../tmk_core/tool/chibios/ChibiOS/os/rt/include/chvt.h"
 572              		.loc 6 375 0
 573 0024 FFF7FEFF 		bl	chDbgCheckClassI
 574              	.LVL46:
 575              	.LBE117:
 576              	.LBE116:
 577              		.loc 1 383 0
 578 0028 049B     		ldr	r3, [sp, #16]
 579 002a 002B     		cmp	r3, #0
 580 002c 02D0     		beq	.L47
 581              		.loc 1 384 0
 582 002e 01A8     		add	r0, sp, #4
 583              	.LVL47:
 584 0030 FFF7FEFF 		bl	chVTDoResetI
 585              	.LVL48:
 586              	.L47:
 587              	.LBE115:
 588              		.loc 1 391 0
 589 0034 A369     		ldr	r3, [r4, #24]
 590 0036 586A     		ldr	r0, [r3, #36]
 591              		.loc 1 392 0
 592 0038 06B0     		add	sp, sp, #24
 593              		@ sp needed
 594              	.LVL49:
 595 003a 70BD     		pop	{r4, r5, r6, pc}
 596              	.LVL50:
 597              	.L45:
 598              		.loc 1 388 0
 599 003c 3000     		movs	r0, r6
 600 003e FFF7FEFF 		bl	chSchGoSleepS
 601              	.LVL51:
 602 0042 014C     		ldr	r4, .L51
 603 0044 F6E7     		b	.L47
 604              	.L52:
 605 0046 C046     		.align	2
 606              	.L51:
 607 0048 00000000 		.word	.LANCHOR0
 608 004c 00000000 		.word	wakeup
 609              		.cfi_endproc
 610              	.LFE143:
 611              		.size	chSchGoSleepTimeoutS, .-chSchGoSleepTimeoutS
 612              		.section	.text.chSchWakeupS,"ax",%progbits
 613              		.align	1
 614              		.p2align 4,,15
 615              		.global	chSchWakeupS
 616              		.syntax unified
 617              		.code	16
 618              		.thumb_func
 619              		.fpu softvfp
 620              		.type	chSchWakeupS, %function
 621              	chSchWakeupS:
 622              	.LFB144:
 623              		.loc 1 411 0
 624              		.cfi_startproc
 625              		@ args = 0, pretend = 0, frame = 0
 626              		@ frame_needed = 0, uses_anonymous_args = 0
 627              	.LVL52:
ARM GAS  /var/folders/t8/16hdwfmd2fg_d3q6dgx6bpmw0000gn/T//ccqUiayV.s 			page 12


 628 0000 F8B5     		push	{r3, r4, r5, r6, r7, lr}
 629              		.cfi_def_cfa_offset 24
 630              		.cfi_offset 3, -24
 631              		.cfi_offset 4, -20
 632              		.cfi_offset 5, -16
 633              		.cfi_offset 6, -12
 634              		.cfi_offset 7, -8
 635              		.cfi_offset 14, -4
 636              		.loc 1 412 0
 637 0002 1B4C     		ldr	r4, .L61
 638              		.loc 1 411 0
 639 0004 0500     		movs	r5, r0
 640 0006 0F00     		movs	r7, r1
 641              		.loc 1 412 0
 642 0008 A669     		ldr	r6, [r4, #24]
 643              	.LVL53:
 644              		.loc 1 414 0
 645 000a FFF7FEFF 		bl	chDbgCheckClassS
 646              	.LVL54:
 647              		.loc 1 416 0
 648 000e 2368     		ldr	r3, [r4]
 649 0010 A342     		cmp	r3, r4
 650 0012 04D0     		beq	.L54
 651              		.loc 1 416 0 is_stmt 0 discriminator 2
 652 0014 A269     		ldr	r2, [r4, #24]
 653 0016 9B68     		ldr	r3, [r3, #8]
 654 0018 9268     		ldr	r2, [r2, #8]
 655 001a 9A42     		cmp	r2, r3
 656 001c 17D3     		bcc	.L58
 657              	.L54:
 658              		.loc 1 428 0 is_stmt 1
 659 001e AB68     		ldr	r3, [r5, #8]
 660 0020 B268     		ldr	r2, [r6, #8]
 661              		.loc 1 422 0
 662 0022 6F62     		str	r7, [r5, #36]
 663              		.loc 1 428 0
 664 0024 9342     		cmp	r3, r2
 665 0026 1AD9     		bls	.L59
 666              	.L55:
 667              		.loc 1 432 0
 668 0028 3000     		movs	r0, r6
 669 002a FFF7FEFF 		bl	chSchReadyI
 670              	.LVL55:
 671              		.loc 1 441 0
 672 002e 2023     		movs	r3, #32
 673 0030 0122     		movs	r2, #1
 674              		.loc 1 432 0
 675 0032 0600     		movs	r6, r0
 676              	.LVL56:
 677              		.loc 1 440 0
 678 0034 A561     		str	r5, [r4, #24]
 679              		.loc 1 441 0
 680 0036 EA54     		strb	r2, [r5, r3]
 681              	.LBB118:
 682              	.LBB119:
 683              	.LBB120:
 684              		.loc 3 152 0
ARM GAS  /var/folders/t8/16hdwfmd2fg_d3q6dgx6bpmw0000gn/T//ccqUiayV.s 			page 13


 685              		.syntax divided
 686              	@ 152 "../../tmk_core/tool/chibios/ChibiOS/os/common/ext/CMSIS/include/cmsis_gcc.h" 1
 687 0038 EFF30983 		MRS r3, psp
 688              	
 689              	@ 0 "" 2
 690              	.LVL57:
 691              		.thumb
 692              		.syntax unified
 693              	.LBE120:
 694              	.LBE119:
 695              		.loc 1 444 0
 696 003c C269     		ldr	r2, [r0, #28]
 697 003e 243B     		subs	r3, r3, #36
 698              	.LVL58:
 699 0040 9A42     		cmp	r2, r3
 700 0042 10D8     		bhi	.L60
 701              	.LVL59:
 702              	.L57:
 703              		.loc 1 444 0 is_stmt 0 discriminator 3
 704 0044 3100     		movs	r1, r6
 705 0046 2800     		movs	r0, r5
 706 0048 FFF7FEFF 		bl	_port_switch
 707              	.LVL60:
 708              	.L53:
 709              	.LBE118:
 710              		.loc 1 446 0 is_stmt 1
 711              		@ sp needed
 712              	.LVL61:
 713              	.LVL62:
 714              	.LVL63:
 715 004c F8BD     		pop	{r3, r4, r5, r6, r7, pc}
 716              	.LVL64:
 717              	.L58:
 718              		.loc 1 416 0 discriminator 3
 719 004e 0948     		ldr	r0, .L61+4
 720 0050 FFF7FEFF 		bl	chSysHalt
 721              	.LVL65:
 722              		.loc 1 428 0 discriminator 3
 723 0054 AB68     		ldr	r3, [r5, #8]
 724 0056 B268     		ldr	r2, [r6, #8]
 725              		.loc 1 422 0 discriminator 3
 726 0058 6F62     		str	r7, [r5, #36]
 727              		.loc 1 428 0 discriminator 3
 728 005a 9342     		cmp	r3, r2
 729 005c E4D8     		bhi	.L55
 730              	.L59:
 731              		.loc 1 429 0
 732 005e 2800     		movs	r0, r5
 733 0060 FFF7FEFF 		bl	chSchReadyI
 734              	.LVL66:
 735 0064 F2E7     		b	.L53
 736              	.LVL67:
 737              	.L60:
 738              	.LBB121:
 739              		.loc 1 444 0 discriminator 1
 740 0066 0448     		ldr	r0, .L61+8
 741              	.LVL68:
ARM GAS  /var/folders/t8/16hdwfmd2fg_d3q6dgx6bpmw0000gn/T//ccqUiayV.s 			page 14


 742 0068 FFF7FEFF 		bl	chSysHalt
 743              	.LVL69:
 744 006c EAE7     		b	.L57
 745              	.L62:
 746 006e C046     		.align	2
 747              	.L61:
 748 0070 00000000 		.word	.LANCHOR0
 749 0074 00000000 		.word	.LANCHOR3
 750 0078 00000000 		.word	.LC7
 751              	.LBE121:
 752              		.cfi_endproc
 753              	.LFE144:
 754              		.size	chSchWakeupS, .-chSchWakeupS
 755              		.section	.text.chSchIsPreemptionRequired,"ax",%progbits
 756              		.align	1
 757              		.p2align 4,,15
 758              		.global	chSchIsPreemptionRequired
 759              		.syntax unified
 760              		.code	16
 761              		.thumb_func
 762              		.fpu softvfp
 763              		.type	chSchIsPreemptionRequired, %function
 764              	chSchIsPreemptionRequired:
 765              	.LFB146:
 766              		.loc 1 477 0
 767              		.cfi_startproc
 768              		@ args = 0, pretend = 0, frame = 0
 769              		@ frame_needed = 0, uses_anonymous_args = 0
 770              		@ link register save eliminated.
 771              		.loc 1 486 0
 772 0000 2320     		movs	r0, #35
 773              		.loc 1 478 0
 774 0002 084B     		ldr	r3, .L67
 775 0004 1A68     		ldr	r2, [r3]
 776              		.loc 1 479 0
 777 0006 9B69     		ldr	r3, [r3, #24]
 778              		.loc 1 478 0
 779 0008 9168     		ldr	r1, [r2, #8]
 780              	.LVL70:
 781              		.loc 1 486 0
 782 000a 185C     		ldrb	r0, [r3, r0]
 783              		.loc 1 479 0
 784 000c 9A68     		ldr	r2, [r3, #8]
 785              	.LVL71:
 786              		.loc 1 486 0
 787 000e 0028     		cmp	r0, #0
 788 0010 03D1     		bne	.L66
 789              		.loc 1 486 0 is_stmt 0 discriminator 2
 790 0012 9142     		cmp	r1, r2
 791 0014 4041     		adcs	r0, r0, r0
 792 0016 C0B2     		uxtb	r0, r0
 793              	.L65:
 794              		.loc 1 492 0 is_stmt 1 discriminator 4
 795              		@ sp needed
 796 0018 7047     		bx	lr
 797              	.L66:
 798              		.loc 1 486 0 discriminator 1
ARM GAS  /var/folders/t8/16hdwfmd2fg_d3q6dgx6bpmw0000gn/T//ccqUiayV.s 			page 15


 799 001a 8A42     		cmp	r2, r1
 800 001c 8041     		sbcs	r0, r0, r0
 801 001e 4042     		rsbs	r0, r0, #0
 802 0020 FAE7     		b	.L65
 803              	.L68:
 804 0022 C046     		.align	2
 805              	.L67:
 806 0024 00000000 		.word	.LANCHOR0
 807              		.cfi_endproc
 808              	.LFE146:
 809              		.size	chSchIsPreemptionRequired, .-chSchIsPreemptionRequired
 810              		.section	.text.chSchDoRescheduleBehind,"ax",%progbits
 811              		.align	1
 812              		.p2align 4,,15
 813              		.global	chSchDoRescheduleBehind
 814              		.syntax unified
 815              		.code	16
 816              		.thumb_func
 817              		.fpu softvfp
 818              		.type	chSchDoRescheduleBehind, %function
 819              	chSchDoRescheduleBehind:
 820              	.LFB147:
 821              		.loc 1 504 0
 822              		.cfi_startproc
 823              		@ args = 0, pretend = 0, frame = 0
 824              		@ frame_needed = 0, uses_anonymous_args = 0
 825 0000 70B5     		push	{r4, r5, r6, lr}
 826              		.cfi_def_cfa_offset 16
 827              		.cfi_offset 4, -16
 828              		.cfi_offset 5, -12
 829              		.cfi_offset 6, -8
 830              		.cfi_offset 14, -4
 831              		.loc 1 505 0
 832 0002 0F4C     		ldr	r4, .L71
 833              		.loc 1 509 0
 834 0004 0121     		movs	r1, #1
 835              	.LBB122:
 836              	.LBB123:
 837              		.loc 2 618 0
 838 0006 2368     		ldr	r3, [r4]
 839              	.LBE123:
 840              	.LBE122:
 841              		.loc 1 505 0
 842 0008 A069     		ldr	r0, [r4, #24]
 843              	.LVL72:
 844              	.LBB125:
 845              	.LBB124:
 846              		.loc 2 620 0
 847 000a 1A68     		ldr	r2, [r3]
 848              		.loc 2 621 0
 849 000c 5460     		str	r4, [r2, #4]
 850              	.LVL73:
 851              		.loc 2 620 0
 852 000e 2260     		str	r2, [r4]
 853              	.LBE124:
 854              	.LBE125:
 855              		.loc 1 509 0
ARM GAS  /var/folders/t8/16hdwfmd2fg_d3q6dgx6bpmw0000gn/T//ccqUiayV.s 			page 16


 856 0010 2022     		movs	r2, #32
 857              		.loc 1 508 0
 858 0012 A361     		str	r3, [r4, #24]
 859              		.loc 1 509 0
 860 0014 9954     		strb	r1, [r3, r2]
 861              		.loc 1 518 0
 862 0016 2323     		movs	r3, #35
 863 0018 0C3A     		subs	r2, r2, #12
 864 001a C254     		strb	r2, [r0, r3]
 865              		.loc 1 522 0
 866 001c FFF7FEFF 		bl	chSchReadyI
 867              	.LVL74:
 868 0020 0500     		movs	r5, r0
 869              	.LVL75:
 870              	.LBB126:
 871              	.LBB127:
 872              	.LBB128:
 873              		.loc 3 152 0
 874              		.syntax divided
 875              	@ 152 "../../tmk_core/tool/chibios/ChibiOS/os/common/ext/CMSIS/include/cmsis_gcc.h" 1
 876 0022 EFF30983 		MRS r3, psp
 877              	
 878              	@ 0 "" 2
 879              	.LVL76:
 880              		.thumb
 881              		.syntax unified
 882              	.LBE128:
 883              	.LBE127:
 884              		.loc 1 525 0
 885 0026 C269     		ldr	r2, [r0, #28]
 886 0028 243B     		subs	r3, r3, #36
 887              	.LVL77:
 888 002a 9A42     		cmp	r2, r3
 889 002c 02D9     		bls	.L70
 890              		.loc 1 525 0 is_stmt 0 discriminator 1
 891 002e 0548     		ldr	r0, .L71+4
 892              	.LVL78:
 893 0030 FFF7FEFF 		bl	chSysHalt
 894              	.LVL79:
 895              	.L70:
 896              		.loc 1 525 0 discriminator 3
 897 0034 2900     		movs	r1, r5
 898 0036 A069     		ldr	r0, [r4, #24]
 899 0038 FFF7FEFF 		bl	_port_switch
 900              	.LVL80:
 901              	.LBE126:
 902              		.loc 1 526 0 is_stmt 1 discriminator 3
 903              		@ sp needed
 904              	.LVL81:
 905 003c 70BD     		pop	{r4, r5, r6, pc}
 906              	.L72:
 907 003e C046     		.align	2
 908              	.L71:
 909 0040 00000000 		.word	.LANCHOR0
 910 0044 00000000 		.word	.LC7
 911              		.cfi_endproc
 912              	.LFE147:
ARM GAS  /var/folders/t8/16hdwfmd2fg_d3q6dgx6bpmw0000gn/T//ccqUiayV.s 			page 17


 913              		.size	chSchDoRescheduleBehind, .-chSchDoRescheduleBehind
 914              		.section	.text.chSchDoRescheduleAhead,"ax",%progbits
 915              		.align	1
 916              		.p2align 4,,15
 917              		.global	chSchDoRescheduleAhead
 918              		.syntax unified
 919              		.code	16
 920              		.thumb_func
 921              		.fpu softvfp
 922              		.type	chSchDoRescheduleAhead, %function
 923              	chSchDoRescheduleAhead:
 924              	.LFB148:
 925              		.loc 1 537 0
 926              		.cfi_startproc
 927              		@ args = 0, pretend = 0, frame = 0
 928              		@ frame_needed = 0, uses_anonymous_args = 0
 929 0000 70B5     		push	{r4, r5, r6, lr}
 930              		.cfi_def_cfa_offset 16
 931              		.cfi_offset 4, -16
 932              		.cfi_offset 5, -12
 933              		.cfi_offset 6, -8
 934              		.cfi_offset 14, -4
 935              		.loc 1 538 0
 936 0002 0D4C     		ldr	r4, .L75
 937              		.loc 1 542 0
 938 0004 0121     		movs	r1, #1
 939              	.LBB129:
 940              	.LBB130:
 941              		.loc 2 618 0
 942 0006 2368     		ldr	r3, [r4]
 943              	.LBE130:
 944              	.LBE129:
 945              		.loc 1 538 0
 946 0008 A069     		ldr	r0, [r4, #24]
 947              	.LVL82:
 948              	.LBB132:
 949              	.LBB131:
 950              		.loc 2 620 0
 951 000a 1A68     		ldr	r2, [r3]
 952              		.loc 2 621 0
 953 000c 5460     		str	r4, [r2, #4]
 954              	.LVL83:
 955              		.loc 2 620 0
 956 000e 2260     		str	r2, [r4]
 957              	.LBE131:
 958              	.LBE132:
 959              		.loc 1 542 0
 960 0010 2022     		movs	r2, #32
 961 0012 9954     		strb	r1, [r3, r2]
 962              		.loc 1 541 0
 963 0014 A361     		str	r3, [r4, #24]
 964              		.loc 1 550 0
 965 0016 FFF7FEFF 		bl	chSchReadyAheadI
 966              	.LVL84:
 967 001a 0500     		movs	r5, r0
 968              	.LVL85:
 969              	.LBB133:
ARM GAS  /var/folders/t8/16hdwfmd2fg_d3q6dgx6bpmw0000gn/T//ccqUiayV.s 			page 18


 970              	.LBB134:
 971              	.LBB135:
 972              		.loc 3 152 0
 973              		.syntax divided
 974              	@ 152 "../../tmk_core/tool/chibios/ChibiOS/os/common/ext/CMSIS/include/cmsis_gcc.h" 1
 975 001c EFF30983 		MRS r3, psp
 976              	
 977              	@ 0 "" 2
 978              	.LVL86:
 979              		.thumb
 980              		.syntax unified
 981              	.LBE135:
 982              	.LBE134:
 983              		.loc 1 553 0
 984 0020 C269     		ldr	r2, [r0, #28]
 985 0022 243B     		subs	r3, r3, #36
 986              	.LVL87:
 987 0024 9A42     		cmp	r2, r3
 988 0026 02D9     		bls	.L74
 989              		.loc 1 553 0 is_stmt 0 discriminator 1
 990 0028 0448     		ldr	r0, .L75+4
 991              	.LVL88:
 992 002a FFF7FEFF 		bl	chSysHalt
 993              	.LVL89:
 994              	.L74:
 995              		.loc 1 553 0 discriminator 3
 996 002e 2900     		movs	r1, r5
 997 0030 A069     		ldr	r0, [r4, #24]
 998 0032 FFF7FEFF 		bl	_port_switch
 999              	.LVL90:
 1000              	.LBE133:
 1001              		.loc 1 554 0 is_stmt 1 discriminator 3
 1002              		@ sp needed
 1003              	.LVL91:
 1004 0036 70BD     		pop	{r4, r5, r6, pc}
 1005              	.L76:
 1006              		.align	2
 1007              	.L75:
 1008 0038 00000000 		.word	.LANCHOR0
 1009 003c 00000000 		.word	.LC7
 1010              		.cfi_endproc
 1011              	.LFE148:
 1012              		.size	chSchDoRescheduleAhead, .-chSchDoRescheduleAhead
 1013              		.section	.text.chSchRescheduleS,"ax",%progbits
 1014              		.align	1
 1015              		.p2align 4,,15
 1016              		.global	chSchRescheduleS
 1017              		.syntax unified
 1018              		.code	16
 1019              		.thumb_func
 1020              		.fpu softvfp
 1021              		.type	chSchRescheduleS, %function
 1022              	chSchRescheduleS:
 1023              	.LFB145:
 1024              		.loc 1 455 0
 1025              		.cfi_startproc
 1026              		@ args = 0, pretend = 0, frame = 0
ARM GAS  /var/folders/t8/16hdwfmd2fg_d3q6dgx6bpmw0000gn/T//ccqUiayV.s 			page 19


 1027              		@ frame_needed = 0, uses_anonymous_args = 0
 1028 0000 10B5     		push	{r4, lr}
 1029              		.cfi_def_cfa_offset 8
 1030              		.cfi_offset 4, -8
 1031              		.cfi_offset 14, -4
 1032              		.loc 1 457 0
 1033 0002 FFF7FEFF 		bl	chDbgCheckClassS
 1034              	.LVL92:
 1035              	.LBB136:
 1036              	.LBB137:
 1037              		.loc 2 657 0
 1038 0006 FFF7FEFF 		bl	chDbgCheckClassI
 1039              	.LVL93:
 1040              		.loc 2 659 0
 1041 000a 054B     		ldr	r3, .L79
 1042 000c 1A68     		ldr	r2, [r3]
 1043 000e 9B69     		ldr	r3, [r3, #24]
 1044              	.LBE137:
 1045              	.LBE136:
 1046              		.loc 1 459 0
 1047 0010 9268     		ldr	r2, [r2, #8]
 1048 0012 9B68     		ldr	r3, [r3, #8]
 1049 0014 9A42     		cmp	r2, r3
 1050 0016 01D9     		bls	.L77
 1051              		.loc 1 460 0
 1052 0018 FFF7FEFF 		bl	chSchDoRescheduleAhead
 1053              	.LVL94:
 1054              	.L77:
 1055              		.loc 1 462 0
 1056              		@ sp needed
 1057 001c 10BD     		pop	{r4, pc}
 1058              	.L80:
 1059 001e C046     		.align	2
 1060              	.L79:
 1061 0020 00000000 		.word	.LANCHOR0
 1062              		.cfi_endproc
 1063              	.LFE145:
 1064              		.size	chSchRescheduleS, .-chSchRescheduleS
 1065              		.section	.text.chSchDoReschedule,"ax",%progbits
 1066              		.align	1
 1067              		.p2align 4,,15
 1068              		.global	chSchDoReschedule
 1069              		.syntax unified
 1070              		.code	16
 1071              		.thumb_func
 1072              		.fpu softvfp
 1073              		.type	chSchDoReschedule, %function
 1074              	chSchDoReschedule:
 1075              	.LFB149:
 1076              		.loc 1 566 0
 1077              		.cfi_startproc
 1078              		@ args = 0, pretend = 0, frame = 0
 1079              		@ frame_needed = 0, uses_anonymous_args = 0
 1080 0000 70B5     		push	{r4, r5, r6, lr}
 1081              		.cfi_def_cfa_offset 16
 1082              		.cfi_offset 4, -16
 1083              		.cfi_offset 5, -12
ARM GAS  /var/folders/t8/16hdwfmd2fg_d3q6dgx6bpmw0000gn/T//ccqUiayV.s 			page 20


 1084              		.cfi_offset 6, -8
 1085              		.cfi_offset 14, -4
 1086              		.loc 1 567 0
 1087 0002 124C     		ldr	r4, .L85
 1088              		.loc 1 571 0
 1089 0004 0121     		movs	r1, #1
 1090              	.LBB138:
 1091              	.LBB139:
 1092              		.loc 2 618 0
 1093 0006 2368     		ldr	r3, [r4]
 1094              	.LBE139:
 1095              	.LBE138:
 1096              		.loc 1 567 0
 1097 0008 A069     		ldr	r0, [r4, #24]
 1098              	.LVL95:
 1099              	.LBB142:
 1100              	.LBB140:
 1101              		.loc 2 620 0
 1102 000a 1A68     		ldr	r2, [r3]
 1103              	.LBE140:
 1104              	.LBE142:
 1105              		.loc 1 581 0
 1106 000c 2326     		movs	r6, #35
 1107              	.LBB143:
 1108              	.LBB141:
 1109              		.loc 2 621 0
 1110 000e 5460     		str	r4, [r2, #4]
 1111              	.LVL96:
 1112              		.loc 2 620 0
 1113 0010 2260     		str	r2, [r4]
 1114              	.LBE141:
 1115              	.LBE143:
 1116              		.loc 1 571 0
 1117 0012 2022     		movs	r2, #32
 1118              		.loc 1 570 0
 1119 0014 A361     		str	r3, [r4, #24]
 1120              		.loc 1 571 0
 1121 0016 9954     		strb	r1, [r3, r2]
 1122              		.loc 1 581 0
 1123 0018 9B5D     		ldrb	r3, [r3, r6]
 1124 001a 002B     		cmp	r3, #0
 1125 001c 12D1     		bne	.L82
 1126              		.loc 1 585 0
 1127 001e FFF7FEFF 		bl	chSchReadyI
 1128              	.LVL97:
 1129              		.loc 1 588 0
 1130 0022 1423     		movs	r3, #20
 1131              		.loc 1 585 0
 1132 0024 0500     		movs	r5, r0
 1133              	.LVL98:
 1134              		.loc 1 588 0
 1135 0026 8355     		strb	r3, [r0, r6]
 1136              	.L83:
 1137              	.LBB144:
 1138              	.LBB145:
 1139              	.LBB146:
 1140              		.loc 3 152 0
ARM GAS  /var/folders/t8/16hdwfmd2fg_d3q6dgx6bpmw0000gn/T//ccqUiayV.s 			page 21


 1141              		.syntax divided
 1142              	@ 152 "../../tmk_core/tool/chibios/ChibiOS/os/common/ext/CMSIS/include/cmsis_gcc.h" 1
 1143 0028 EFF30983 		MRS r3, psp
 1144              	
 1145              	@ 0 "" 2
 1146              	.LVL99:
 1147              		.thumb
 1148              		.syntax unified
 1149              	.LBE146:
 1150              	.LBE145:
 1151              		.loc 1 602 0
 1152 002c EA69     		ldr	r2, [r5, #28]
 1153 002e 243B     		subs	r3, r3, #36
 1154              	.LVL100:
 1155 0030 9A42     		cmp	r2, r3
 1156 0032 02D9     		bls	.L84
 1157              		.loc 1 602 0 is_stmt 0 discriminator 1
 1158 0034 0648     		ldr	r0, .L85+4
 1159              	.LVL101:
 1160 0036 FFF7FEFF 		bl	chSysHalt
 1161              	.LVL102:
 1162              	.L84:
 1163              		.loc 1 602 0 discriminator 3
 1164 003a 2900     		movs	r1, r5
 1165 003c A069     		ldr	r0, [r4, #24]
 1166 003e FFF7FEFF 		bl	_port_switch
 1167              	.LVL103:
 1168              	.LBE144:
 1169              		.loc 1 603 0 is_stmt 1 discriminator 3
 1170              		@ sp needed
 1171              	.LVL104:
 1172 0042 70BD     		pop	{r4, r5, r6, pc}
 1173              	.LVL105:
 1174              	.L82:
 1175              		.loc 1 593 0
 1176 0044 FFF7FEFF 		bl	chSchReadyAheadI
 1177              	.LVL106:
 1178 0048 0500     		movs	r5, r0
 1179              	.LVL107:
 1180 004a EDE7     		b	.L83
 1181              	.L86:
 1182              		.align	2
 1183              	.L85:
 1184 004c 00000000 		.word	.LANCHOR0
 1185 0050 00000000 		.word	.LC7
 1186              		.cfi_endproc
 1187              	.LFE149:
 1188              		.size	chSchDoReschedule, .-chSchDoReschedule
 1189              		.global	ch
 1190              		.section	.bss.ch,"aw",%nobits
 1191              		.align	2
 1192              		.set	.LANCHOR0,. + 0
 1193              		.type	ch, %object
 1194              		.size	ch, 124
 1195              	ch:
 1196 0000 00000000 		.space	124
 1196      00000000 
ARM GAS  /var/folders/t8/16hdwfmd2fg_d3q6dgx6bpmw0000gn/T//ccqUiayV.s 			page 22


 1196      00000000 
 1196      00000000 
 1196      00000000 
 1197              		.section	.rodata.__func__.5722,"a",%progbits
 1198              		.align	2
 1199              		.set	.LANCHOR1,. + 0
 1200              		.type	__func__.5722, %object
 1201              		.size	__func__.5722, 12
 1202              	__func__.5722:
 1203 0000 63685363 		.ascii	"chSchReadyI\000"
 1203      68526561 
 1203      64794900 
 1204              		.section	.rodata.__func__.5729,"a",%progbits
 1205              		.align	2
 1206              		.set	.LANCHOR2,. + 0
 1207              		.type	__func__.5729, %object
 1208              		.size	__func__.5729, 17
 1209              	__func__.5729:
 1210 0000 63685363 		.ascii	"chSchReadyAheadI\000"
 1210      68526561 
 1210      64794168 
 1210      65616449 
 1210      00
 1211              		.section	.rodata.__func__.5758,"a",%progbits
 1212              		.align	2
 1213              		.set	.LANCHOR3,. + 0
 1214              		.type	__func__.5758, %object
 1215              		.size	__func__.5758, 13
 1216              	__func__.5758:
 1217 0000 63685363 		.ascii	"chSchWakeupS\000"
 1217      6857616B 
 1217      65757053 
 1217      00
 1218              		.section	.rodata.chSchGoSleepS.str1.4,"aMS",%progbits,1
 1219              		.align	2
 1220              	.LC7:
 1221 0000 73746163 		.ascii	"stack overflow\000"
 1221      6B206F76 
 1221      6572666C 
 1221      6F7700
 1222              		.text
 1223              	.Letext0:
 1224              		.file 7 "/usr/local/Caskroom/gcc-arm-embedded/7-2017-q4-major/gcc-arm-none-eabi-7-2017-q4-major/ar
 1225              		.file 8 "/usr/local/Caskroom/gcc-arm-embedded/7-2017-q4-major/gcc-arm-none-eabi-7-2017-q4-major/ar
 1226              		.file 9 "../../tmk_core/tool/chibios/ChibiOS/os/common/ports/ARMCMx/compilers/GCC/chtypes.h"
 1227              		.file 10 "../../tmk_core/tool/chibios/ChibiOS/os/rt/include/chsystypes.h"
 1228              		.file 11 "../../tmk_core/tool/chibios/ChibiOS/os/common/ports/ARMCMx/chcore.h"
 1229              		.file 12 "../../tmk_core/tool/chibios/ChibiOS/os/common/ports/ARMCMx/chcore_v6m.h"
 1230              		.file 13 "../../tmk_core/tool/chibios/ChibiOS/os/rt/include/chmtx.h"
 1231              		.file 14 "../../tmk_core/tool/chibios/ChibiOS/os/rt/include/chregistry.h"
 1232              		.file 15 "../../tmk_core/tool/chibios/ChibiOS/os/rt/include/chdebug.h"
 1233              		.section	.debug_info,"",%progbits
 1234              	.Ldebug_info0:
 1235 0000 E3100000 		.4byte	0x10e3
 1236 0004 0400     		.2byte	0x4
 1237 0006 00000000 		.4byte	.Ldebug_abbrev0
 1238 000a 04       		.byte	0x4
ARM GAS  /var/folders/t8/16hdwfmd2fg_d3q6dgx6bpmw0000gn/T//ccqUiayV.s 			page 23


 1239 000b 01       		.uleb128 0x1
 1240 000c 19000000 		.4byte	.LASF151
 1241 0010 0C       		.byte	0xc
 1242 0011 CD070000 		.4byte	.LASF152
 1243 0015 1A050000 		.4byte	.LASF153
 1244 0019 98000000 		.4byte	.Ldebug_ranges0+0x98
 1245 001d 00000000 		.4byte	0
 1246 0021 00000000 		.4byte	.Ldebug_line0
 1247 0025 02       		.uleb128 0x2
 1248 0026 04       		.byte	0x4
 1249 0027 05       		.byte	0x5
 1250 0028 696E7400 		.ascii	"int\000"
 1251 002c 03       		.uleb128 0x3
 1252 002d 04       		.byte	0x4
 1253 002e 07       		.byte	0x7
 1254 002f 34010000 		.4byte	.LASF0
 1255 0033 03       		.uleb128 0x3
 1256 0034 01       		.byte	0x1
 1257 0035 06       		.byte	0x6
 1258 0036 7A070000 		.4byte	.LASF1
 1259 003a 04       		.uleb128 0x4
 1260 003b 0D060000 		.4byte	.LASF4
 1261 003f 07       		.byte	0x7
 1262 0040 2B       		.byte	0x2b
 1263 0041 45000000 		.4byte	0x45
 1264 0045 03       		.uleb128 0x3
 1265 0046 01       		.byte	0x1
 1266 0047 08       		.byte	0x8
 1267 0048 E2060000 		.4byte	.LASF2
 1268 004c 03       		.uleb128 0x3
 1269 004d 02       		.byte	0x2
 1270 004e 05       		.byte	0x5
 1271 004f C0050000 		.4byte	.LASF3
 1272 0053 04       		.uleb128 0x4
 1273 0054 EF020000 		.4byte	.LASF5
 1274 0058 07       		.byte	0x7
 1275 0059 39       		.byte	0x39
 1276 005a 5E000000 		.4byte	0x5e
 1277 005e 03       		.uleb128 0x3
 1278 005f 02       		.byte	0x2
 1279 0060 07       		.byte	0x7
 1280 0061 8C070000 		.4byte	.LASF6
 1281 0065 04       		.uleb128 0x4
 1282 0066 5D010000 		.4byte	.LASF7
 1283 006a 07       		.byte	0x7
 1284 006b 4D       		.byte	0x4d
 1285 006c 70000000 		.4byte	0x70
 1286 0070 03       		.uleb128 0x3
 1287 0071 04       		.byte	0x4
 1288 0072 05       		.byte	0x5
 1289 0073 CA050000 		.4byte	.LASF8
 1290 0077 04       		.uleb128 0x4
 1291 0078 F0060000 		.4byte	.LASF9
 1292 007c 07       		.byte	0x7
 1293 007d 4F       		.byte	0x4f
 1294 007e 82000000 		.4byte	0x82
 1295 0082 03       		.uleb128 0x3
ARM GAS  /var/folders/t8/16hdwfmd2fg_d3q6dgx6bpmw0000gn/T//ccqUiayV.s 			page 24


 1296 0083 04       		.byte	0x4
 1297 0084 07       		.byte	0x7
 1298 0085 57060000 		.4byte	.LASF10
 1299 0089 03       		.uleb128 0x3
 1300 008a 08       		.byte	0x8
 1301 008b 05       		.byte	0x5
 1302 008c 8C040000 		.4byte	.LASF11
 1303 0090 04       		.uleb128 0x4
 1304 0091 DB030000 		.4byte	.LASF12
 1305 0095 07       		.byte	0x7
 1306 0096 69       		.byte	0x69
 1307 0097 9B000000 		.4byte	0x9b
 1308 009b 03       		.uleb128 0x3
 1309 009c 08       		.byte	0x8
 1310 009d 07       		.byte	0x7
 1311 009e BE020000 		.4byte	.LASF13
 1312 00a2 04       		.uleb128 0x4
 1313 00a3 48040000 		.4byte	.LASF14
 1314 00a7 08       		.byte	0x8
 1315 00a8 18       		.byte	0x18
 1316 00a9 3A000000 		.4byte	0x3a
 1317 00ad 04       		.uleb128 0x4
 1318 00ae 9B050000 		.4byte	.LASF15
 1319 00b2 08       		.byte	0x8
 1320 00b3 24       		.byte	0x24
 1321 00b4 53000000 		.4byte	0x53
 1322 00b8 04       		.uleb128 0x4
 1323 00b9 9C060000 		.4byte	.LASF16
 1324 00bd 08       		.byte	0x8
 1325 00be 2C       		.byte	0x2c
 1326 00bf 65000000 		.4byte	0x65
 1327 00c3 04       		.uleb128 0x4
 1328 00c4 69020000 		.4byte	.LASF17
 1329 00c8 08       		.byte	0x8
 1330 00c9 30       		.byte	0x30
 1331 00ca 77000000 		.4byte	0x77
 1332 00ce 04       		.uleb128 0x4
 1333 00cf FE050000 		.4byte	.LASF18
 1334 00d3 08       		.byte	0x8
 1335 00d4 3C       		.byte	0x3c
 1336 00d5 90000000 		.4byte	0x90
 1337 00d9 04       		.uleb128 0x4
 1338 00da 6B050000 		.4byte	.LASF19
 1339 00de 09       		.byte	0x9
 1340 00df 3C       		.byte	0x3c
 1341 00e0 A2000000 		.4byte	0xa2
 1342 00e4 04       		.uleb128 0x4
 1343 00e5 3F040000 		.4byte	.LASF20
 1344 00e9 09       		.byte	0x9
 1345 00ea 3D       		.byte	0x3d
 1346 00eb A2000000 		.4byte	0xa2
 1347 00ef 04       		.uleb128 0x4
 1348 00f0 4F060000 		.4byte	.LASF21
 1349 00f4 09       		.byte	0x9
 1350 00f5 3E       		.byte	0x3e
 1351 00f6 A2000000 		.4byte	0xa2
 1352 00fa 04       		.uleb128 0x4
ARM GAS  /var/folders/t8/16hdwfmd2fg_d3q6dgx6bpmw0000gn/T//ccqUiayV.s 			page 25


 1353 00fb FF040000 		.4byte	.LASF22
 1354 00ff 09       		.byte	0x9
 1355 0100 3F       		.byte	0x3f
 1356 0101 A2000000 		.4byte	0xa2
 1357 0105 04       		.uleb128 0x4
 1358 0106 9E020000 		.4byte	.LASF23
 1359 010a 09       		.byte	0x9
 1360 010b 40       		.byte	0x40
 1361 010c C3000000 		.4byte	0xc3
 1362 0110 04       		.uleb128 0x4
 1363 0111 9F040000 		.4byte	.LASF24
 1364 0115 09       		.byte	0x9
 1365 0116 41       		.byte	0x41
 1366 0117 B8000000 		.4byte	0xb8
 1367 011b 04       		.uleb128 0x4
 1368 011c 7A020000 		.4byte	.LASF25
 1369 0120 09       		.byte	0x9
 1370 0121 43       		.byte	0x43
 1371 0122 C3000000 		.4byte	0xc3
 1372 0126 04       		.uleb128 0x4
 1373 0127 FA020000 		.4byte	.LASF26
 1374 012b 09       		.byte	0x9
 1375 012c 45       		.byte	0x45
 1376 012d B8000000 		.4byte	0xb8
 1377 0131 04       		.uleb128 0x4
 1378 0132 18010000 		.4byte	.LASF27
 1379 0136 0A       		.byte	0xa
 1380 0137 33       		.byte	0x33
 1381 0138 C3000000 		.4byte	0xc3
 1382 013c 05       		.uleb128 0x5
 1383 013d 31010000 		.4byte	0x131
 1384 0141 04       		.uleb128 0x4
 1385 0142 68030000 		.4byte	.LASF28
 1386 0146 0A       		.byte	0xa
 1387 0147 3F       		.byte	0x3f
 1388 0148 4C010000 		.4byte	0x14c
 1389 014c 06       		.uleb128 0x6
 1390 014d 6A040000 		.4byte	.LASF47
 1391 0151 44       		.byte	0x44
 1392 0152 02       		.byte	0x2
 1393 0153 9A       		.byte	0x9a
 1394 0154 36020000 		.4byte	0x236
 1395 0158 07       		.uleb128 0x7
 1396 0159 96060000 		.4byte	.LASF29
 1397 015d 02       		.byte	0x2
 1398 015e 9B       		.byte	0x9b
 1399 015f 6B020000 		.4byte	0x26b
 1400 0163 00       		.byte	0
 1401 0164 07       		.uleb128 0x7
 1402 0165 09040000 		.4byte	.LASF30
 1403 0169 02       		.byte	0x2
 1404 016a 9C       		.byte	0x9c
 1405 016b 05010000 		.4byte	0x105
 1406 016f 08       		.byte	0x8
 1407 0170 08       		.uleb128 0x8
 1408 0171 63747800 		.ascii	"ctx\000"
 1409 0175 02       		.byte	0x2
ARM GAS  /var/folders/t8/16hdwfmd2fg_d3q6dgx6bpmw0000gn/T//ccqUiayV.s 			page 26


 1410 0176 9D       		.byte	0x9d
 1411 0177 6A040000 		.4byte	0x46a
 1412 017b 0C       		.byte	0xc
 1413 017c 07       		.uleb128 0x7
 1414 017d BC060000 		.4byte	.LASF31
 1415 0181 02       		.byte	0x2
 1416 0182 9F       		.byte	0x9f
 1417 0183 41020000 		.4byte	0x241
 1418 0187 10       		.byte	0x10
 1419 0188 07       		.uleb128 0x7
 1420 0189 10080000 		.4byte	.LASF32
 1421 018d 02       		.byte	0x2
 1422 018e A0       		.byte	0xa0
 1423 018f 41020000 		.4byte	0x241
 1424 0193 14       		.byte	0x14
 1425 0194 07       		.uleb128 0x7
 1426 0195 25060000 		.4byte	.LASF33
 1427 0199 02       		.byte	0x2
 1428 019a A7       		.byte	0xa7
 1429 019b C5050000 		.4byte	0x5c5
 1430 019f 18       		.byte	0x18
 1431 01a0 07       		.uleb128 0x7
 1432 01a1 26040000 		.4byte	.LASF34
 1433 01a5 02       		.byte	0x2
 1434 01a6 B0       		.byte	0xb0
 1435 01a7 DC050000 		.4byte	0x5dc
 1436 01ab 1C       		.byte	0x1c
 1437 01ac 07       		.uleb128 0x7
 1438 01ad 26070000 		.4byte	.LASF35
 1439 01b1 02       		.byte	0x2
 1440 01b2 B5       		.byte	0xb5
 1441 01b3 E4000000 		.4byte	0xe4
 1442 01b7 20       		.byte	0x20
 1443 01b8 07       		.uleb128 0x7
 1444 01b9 12010000 		.4byte	.LASF36
 1445 01bd 02       		.byte	0x2
 1446 01be B9       		.byte	0xb9
 1447 01bf D9000000 		.4byte	0xd9
 1448 01c3 21       		.byte	0x21
 1449 01c4 07       		.uleb128 0x7
 1450 01c5 67010000 		.4byte	.LASF37
 1451 01c9 02       		.byte	0x2
 1452 01ca BE       		.byte	0xbe
 1453 01cb EF000000 		.4byte	0xef
 1454 01cf 22       		.byte	0x22
 1455 01d0 07       		.uleb128 0x7
 1456 01d1 DF050000 		.4byte	.LASF38
 1457 01d5 02       		.byte	0x2
 1458 01d6 C4       		.byte	0xc4
 1459 01d7 FA000000 		.4byte	0xfa
 1460 01db 23       		.byte	0x23
 1461 01dc 09       		.uleb128 0x9
 1462 01dd 7500     		.ascii	"u\000"
 1463 01df 02       		.byte	0x2
 1464 01e0 0F01     		.2byte	0x10f
 1465 01e2 FA040000 		.4byte	0x4fa
 1466 01e6 24       		.byte	0x24
ARM GAS  /var/folders/t8/16hdwfmd2fg_d3q6dgx6bpmw0000gn/T//ccqUiayV.s 			page 27


 1467 01e7 0A       		.uleb128 0xa
 1468 01e8 FB060000 		.4byte	.LASF39
 1469 01ec 02       		.byte	0x2
 1470 01ed 1401     		.2byte	0x114
 1471 01ef 47020000 		.4byte	0x247
 1472 01f3 28       		.byte	0x28
 1473 01f4 0A       		.uleb128 0xa
 1474 01f5 50040000 		.4byte	.LASF40
 1475 01f9 02       		.byte	0x2
 1476 01fa 1A01     		.2byte	0x11a
 1477 01fc 6B020000 		.4byte	0x26b
 1478 0200 2C       		.byte	0x2c
 1479 0201 0A       		.uleb128 0xa
 1480 0202 2B010000 		.4byte	.LASF41
 1481 0206 02       		.byte	0x2
 1482 0207 2001     		.2byte	0x120
 1483 0209 1B010000 		.4byte	0x11b
 1484 020d 34       		.byte	0x34
 1485 020e 0A       		.uleb128 0xa
 1486 020f 49030000 		.4byte	.LASF42
 1487 0213 02       		.byte	0x2
 1488 0214 2701     		.2byte	0x127
 1489 0216 BF050000 		.4byte	0x5bf
 1490 021a 38       		.byte	0x38
 1491 021b 0A       		.uleb128 0xa
 1492 021c 22010000 		.4byte	.LASF43
 1493 0220 02       		.byte	0x2
 1494 0221 2B01     		.2byte	0x12b
 1495 0223 05010000 		.4byte	0x105
 1496 0227 3C       		.byte	0x3c
 1497 0228 0A       		.uleb128 0xa
 1498 0229 1F080000 		.4byte	.LASF44
 1499 022d 02       		.byte	0x2
 1500 022e 3201     		.2byte	0x132
 1501 0230 1E030000 		.4byte	0x31e
 1502 0234 40       		.byte	0x40
 1503 0235 00       		.byte	0
 1504 0236 04       		.uleb128 0x4
 1505 0237 13040000 		.4byte	.LASF45
 1506 023b 0A       		.byte	0xa
 1507 023c 44       		.byte	0x44
 1508 023d 41020000 		.4byte	0x241
 1509 0241 0B       		.uleb128 0xb
 1510 0242 04       		.byte	0x4
 1511 0243 41010000 		.4byte	0x141
 1512 0247 04       		.uleb128 0x4
 1513 0248 4E010000 		.4byte	.LASF46
 1514 024c 0A       		.byte	0xa
 1515 024d 49       		.byte	0x49
 1516 024e 52020000 		.4byte	0x252
 1517 0252 06       		.uleb128 0x6
 1518 0253 00000000 		.4byte	.LASF48
 1519 0257 04       		.byte	0x4
 1520 0258 02       		.byte	0x2
 1521 0259 88       		.byte	0x88
 1522 025a 6B020000 		.4byte	0x26b
 1523 025e 07       		.uleb128 0x7
ARM GAS  /var/folders/t8/16hdwfmd2fg_d3q6dgx6bpmw0000gn/T//ccqUiayV.s 			page 28


 1524 025f 41010000 		.4byte	.LASF49
 1525 0263 02       		.byte	0x2
 1526 0264 89       		.byte	0x89
 1527 0265 41020000 		.4byte	0x241
 1528 0269 00       		.byte	0
 1529 026a 00       		.byte	0
 1530 026b 04       		.uleb128 0x4
 1531 026c 39030000 		.4byte	.LASF50
 1532 0270 0A       		.byte	0xa
 1533 0271 50       		.byte	0x50
 1534 0272 76020000 		.4byte	0x276
 1535 0276 06       		.uleb128 0x6
 1536 0277 F7010000 		.4byte	.LASF51
 1537 027b 08       		.byte	0x8
 1538 027c 02       		.byte	0x2
 1539 027d 8F       		.byte	0x8f
 1540 027e 9B020000 		.4byte	0x29b
 1541 0282 07       		.uleb128 0x7
 1542 0283 41010000 		.4byte	.LASF49
 1543 0287 02       		.byte	0x2
 1544 0288 90       		.byte	0x90
 1545 0289 41020000 		.4byte	0x241
 1546 028d 00       		.byte	0
 1547 028e 07       		.uleb128 0x7
 1548 028f E0010000 		.4byte	.LASF52
 1549 0293 02       		.byte	0x2
 1550 0294 91       		.byte	0x91
 1551 0295 41020000 		.4byte	0x241
 1552 0299 04       		.byte	0x4
 1553 029a 00       		.byte	0
 1554 029b 04       		.uleb128 0x4
 1555 029c 74060000 		.4byte	.LASF53
 1556 02a0 0A       		.byte	0xa
 1557 02a1 57       		.byte	0x57
 1558 02a2 A6020000 		.4byte	0x2a6
 1559 02a6 0C       		.uleb128 0xc
 1560 02a7 AD010000 		.4byte	.LASF54
 1561 02ab 1C       		.byte	0x1c
 1562 02ac 02       		.byte	0x2
 1563 02ad 6A01     		.2byte	0x16a
 1564 02af 02030000 		.4byte	0x302
 1565 02b3 0A       		.uleb128 0xa
 1566 02b4 96060000 		.4byte	.LASF29
 1567 02b8 02       		.byte	0x2
 1568 02b9 6B01     		.2byte	0x16b
 1569 02bb 6B020000 		.4byte	0x26b
 1570 02bf 00       		.byte	0
 1571 02c0 0A       		.uleb128 0xa
 1572 02c1 09040000 		.4byte	.LASF30
 1573 02c5 02       		.byte	0x2
 1574 02c6 6C01     		.2byte	0x16c
 1575 02c8 05010000 		.4byte	0x105
 1576 02cc 08       		.byte	0x8
 1577 02cd 09       		.uleb128 0x9
 1578 02ce 63747800 		.ascii	"ctx\000"
 1579 02d2 02       		.byte	0x2
 1580 02d3 6E01     		.2byte	0x16e
ARM GAS  /var/folders/t8/16hdwfmd2fg_d3q6dgx6bpmw0000gn/T//ccqUiayV.s 			page 29


 1581 02d5 6A040000 		.4byte	0x46a
 1582 02d9 0C       		.byte	0xc
 1583 02da 0A       		.uleb128 0xa
 1584 02db BC060000 		.4byte	.LASF31
 1585 02df 02       		.byte	0x2
 1586 02e0 7101     		.2byte	0x171
 1587 02e2 41020000 		.4byte	0x241
 1588 02e6 10       		.byte	0x10
 1589 02e7 0A       		.uleb128 0xa
 1590 02e8 10080000 		.4byte	.LASF32
 1591 02ec 02       		.byte	0x2
 1592 02ed 7201     		.2byte	0x172
 1593 02ef 41020000 		.4byte	0x241
 1594 02f3 14       		.byte	0x14
 1595 02f4 0A       		.uleb128 0xa
 1596 02f5 B3070000 		.4byte	.LASF55
 1597 02f9 02       		.byte	0x2
 1598 02fa 7501     		.2byte	0x175
 1599 02fc 41020000 		.4byte	0x241
 1600 0300 18       		.byte	0x18
 1601 0301 00       		.byte	0
 1602 0302 04       		.uleb128 0x4
 1603 0303 34020000 		.4byte	.LASF56
 1604 0307 0A       		.byte	0xa
 1605 0308 5C       		.byte	0x5c
 1606 0309 0D030000 		.4byte	0x30d
 1607 030d 0B       		.uleb128 0xb
 1608 030e 04       		.byte	0x4
 1609 030f 13030000 		.4byte	0x313
 1610 0313 0D       		.uleb128 0xd
 1611 0314 1E030000 		.4byte	0x31e
 1612 0318 0E       		.uleb128 0xe
 1613 0319 1E030000 		.4byte	0x31e
 1614 031d 00       		.byte	0
 1615 031e 0F       		.uleb128 0xf
 1616 031f 04       		.byte	0x4
 1617 0320 04       		.uleb128 0x4
 1618 0321 B2040000 		.4byte	.LASF57
 1619 0325 0A       		.byte	0xa
 1620 0326 61       		.byte	0x61
 1621 0327 2B030000 		.4byte	0x32b
 1622 032b 0C       		.uleb128 0xc
 1623 032c A6020000 		.4byte	.LASF58
 1624 0330 14       		.byte	0x14
 1625 0331 02       		.byte	0x2
 1626 0332 4501     		.2byte	0x145
 1627 0334 7A030000 		.4byte	0x37a
 1628 0338 0A       		.uleb128 0xa
 1629 0339 41010000 		.4byte	.LASF49
 1630 033d 02       		.byte	0x2
 1631 033e 4601     		.2byte	0x146
 1632 0340 E2050000 		.4byte	0x5e2
 1633 0344 00       		.byte	0
 1634 0345 0A       		.uleb128 0xa
 1635 0346 E0010000 		.4byte	.LASF52
 1636 034a 02       		.byte	0x2
 1637 034b 4701     		.2byte	0x147
ARM GAS  /var/folders/t8/16hdwfmd2fg_d3q6dgx6bpmw0000gn/T//ccqUiayV.s 			page 30


 1638 034d E2050000 		.4byte	0x5e2
 1639 0351 04       		.byte	0x4
 1640 0352 0A       		.uleb128 0xa
 1641 0353 86070000 		.4byte	.LASF59
 1642 0357 02       		.byte	0x2
 1643 0358 4801     		.2byte	0x148
 1644 035a 31010000 		.4byte	0x131
 1645 035e 08       		.byte	0x8
 1646 035f 0A       		.uleb128 0xa
 1647 0360 BB010000 		.4byte	.LASF60
 1648 0364 02       		.byte	0x2
 1649 0365 4901     		.2byte	0x149
 1650 0367 02030000 		.4byte	0x302
 1651 036b 0C       		.byte	0xc
 1652 036c 09       		.uleb128 0x9
 1653 036d 70617200 		.ascii	"par\000"
 1654 0371 02       		.byte	0x2
 1655 0372 4B01     		.2byte	0x14b
 1656 0374 1E030000 		.4byte	0x31e
 1657 0378 10       		.byte	0x10
 1658 0379 00       		.byte	0
 1659 037a 04       		.uleb128 0x4
 1660 037b 03070000 		.4byte	.LASF61
 1661 037f 0A       		.byte	0xa
 1662 0380 66       		.byte	0x66
 1663 0381 85030000 		.4byte	0x385
 1664 0385 0C       		.uleb128 0xc
 1665 0386 51030000 		.4byte	.LASF62
 1666 038a 10       		.byte	0x10
 1667 038b 02       		.byte	0x2
 1668 038c 5501     		.2byte	0x155
 1669 038e C7030000 		.4byte	0x3c7
 1670 0392 0A       		.uleb128 0xa
 1671 0393 41010000 		.4byte	.LASF49
 1672 0397 02       		.byte	0x2
 1673 0398 5601     		.2byte	0x156
 1674 039a E2050000 		.4byte	0x5e2
 1675 039e 00       		.byte	0
 1676 039f 0A       		.uleb128 0xa
 1677 03a0 E0010000 		.4byte	.LASF52
 1678 03a4 02       		.byte	0x2
 1679 03a5 5801     		.2byte	0x158
 1680 03a7 E2050000 		.4byte	0x5e2
 1681 03ab 04       		.byte	0x4
 1682 03ac 0A       		.uleb128 0xa
 1683 03ad 86070000 		.4byte	.LASF59
 1684 03b1 02       		.byte	0x2
 1685 03b2 5A01     		.2byte	0x15a
 1686 03b4 31010000 		.4byte	0x131
 1687 03b8 08       		.byte	0x8
 1688 03b9 0A       		.uleb128 0xa
 1689 03ba 73050000 		.4byte	.LASF63
 1690 03be 02       		.byte	0x2
 1691 03bf 5C01     		.2byte	0x15c
 1692 03c1 3C010000 		.4byte	0x13c
 1693 03c5 0C       		.byte	0xc
 1694 03c6 00       		.byte	0
ARM GAS  /var/folders/t8/16hdwfmd2fg_d3q6dgx6bpmw0000gn/T//ccqUiayV.s 			page 31


 1695 03c7 04       		.uleb128 0x4
 1696 03c8 7D040000 		.4byte	.LASF64
 1697 03cc 0A       		.byte	0xa
 1698 03cd 6B       		.byte	0x6b
 1699 03ce D2030000 		.4byte	0x3d2
 1700 03d2 0C       		.uleb128 0xc
 1701 03d3 49020000 		.4byte	.LASF65
 1702 03d7 0C       		.byte	0xc
 1703 03d8 02       		.byte	0x2
 1704 03d9 7C01     		.2byte	0x17c
 1705 03db 07040000 		.4byte	0x407
 1706 03df 0A       		.uleb128 0xa
 1707 03e0 61050000 		.4byte	.LASF66
 1708 03e4 02       		.byte	0x2
 1709 03e5 8401     		.2byte	0x184
 1710 03e7 CB050000 		.4byte	0x5cb
 1711 03eb 00       		.byte	0
 1712 03ec 0A       		.uleb128 0xa
 1713 03ed 1F030000 		.4byte	.LASF67
 1714 03f1 02       		.byte	0x2
 1715 03f2 8901     		.2byte	0x189
 1716 03f4 26010000 		.4byte	0x126
 1717 03f8 04       		.byte	0x4
 1718 03f9 0A       		.uleb128 0xa
 1719 03fa B7050000 		.4byte	.LASF68
 1720 03fe 02       		.byte	0x2
 1721 03ff 8D01     		.2byte	0x18d
 1722 0401 26010000 		.4byte	0x126
 1723 0405 08       		.byte	0x8
 1724 0406 00       		.byte	0
 1725 0407 04       		.uleb128 0x4
 1726 0408 68070000 		.4byte	.LASF69
 1727 040c 0A       		.byte	0xa
 1728 040d 70       		.byte	0x70
 1729 040e 12040000 		.4byte	0x412
 1730 0412 0C       		.uleb128 0xc
 1731 0413 F4050000 		.4byte	.LASF70
 1732 0417 7C       		.byte	0x7c
 1733 0418 02       		.byte	0x2
 1734 0419 9C01     		.2byte	0x19c
 1735 041b 54040000 		.4byte	0x454
 1736 041f 0A       		.uleb128 0xa
 1737 0420 07060000 		.4byte	.LASF71
 1738 0424 02       		.byte	0x2
 1739 0425 A001     		.2byte	0x1a0
 1740 0427 9B020000 		.4byte	0x29b
 1741 042b 00       		.byte	0
 1742 042c 0A       		.uleb128 0xa
 1743 042d 86010000 		.4byte	.LASF72
 1744 0431 02       		.byte	0x2
 1745 0432 A401     		.2byte	0x1a4
 1746 0434 7A030000 		.4byte	0x37a
 1747 0438 1C       		.byte	0x1c
 1748 0439 09       		.uleb128 0x9
 1749 043a 64626700 		.ascii	"dbg\000"
 1750 043e 02       		.byte	0x2
 1751 043f A801     		.2byte	0x1a8
ARM GAS  /var/folders/t8/16hdwfmd2fg_d3q6dgx6bpmw0000gn/T//ccqUiayV.s 			page 32


 1752 0441 C7030000 		.4byte	0x3c7
 1753 0445 2C       		.byte	0x2c
 1754 0446 0A       		.uleb128 0xa
 1755 0447 7B050000 		.4byte	.LASF73
 1756 044b 02       		.byte	0x2
 1757 044c AC01     		.2byte	0x1ac
 1758 044e 41010000 		.4byte	0x141
 1759 0452 38       		.byte	0x38
 1760 0453 00       		.byte	0
 1761 0454 04       		.uleb128 0x4
 1762 0455 09010000 		.4byte	.LASF74
 1763 0459 0B       		.byte	0xb
 1764 045a 65       		.byte	0x65
 1765 045b 1E030000 		.4byte	0x31e
 1766 045f 04       		.uleb128 0x4
 1767 0460 9F070000 		.4byte	.LASF75
 1768 0464 0B       		.byte	0xb
 1769 0465 6D       		.byte	0x6d
 1770 0466 CE000000 		.4byte	0xce
 1771 046a 06       		.uleb128 0x6
 1772 046b 8D010000 		.4byte	.LASF76
 1773 046f 04       		.byte	0x4
 1774 0470 0B       		.byte	0xb
 1775 0471 89       		.byte	0x89
 1776 0472 82040000 		.4byte	0x482
 1777 0476 08       		.uleb128 0x8
 1778 0477 737000   		.ascii	"sp\000"
 1779 047a 0B       		.byte	0xb
 1780 047b 8A       		.byte	0x8a
 1781 047c F4040000 		.4byte	0x4f4
 1782 0480 00       		.byte	0
 1783 0481 00       		.byte	0
 1784 0482 06       		.uleb128 0x6
 1785 0483 D3050000 		.4byte	.LASF77
 1786 0487 24       		.byte	0x24
 1787 0488 0C       		.byte	0xc
 1788 0489 C3       		.byte	0xc3
 1789 048a F4040000 		.4byte	0x4f4
 1790 048e 08       		.uleb128 0x8
 1791 048f 723800   		.ascii	"r8\000"
 1792 0492 0C       		.byte	0xc
 1793 0493 C4       		.byte	0xc4
 1794 0494 54040000 		.4byte	0x454
 1795 0498 00       		.byte	0
 1796 0499 08       		.uleb128 0x8
 1797 049a 723900   		.ascii	"r9\000"
 1798 049d 0C       		.byte	0xc
 1799 049e C5       		.byte	0xc5
 1800 049f 54040000 		.4byte	0x454
 1801 04a3 04       		.byte	0x4
 1802 04a4 08       		.uleb128 0x8
 1803 04a5 72313000 		.ascii	"r10\000"
 1804 04a9 0C       		.byte	0xc
 1805 04aa C6       		.byte	0xc6
 1806 04ab 54040000 		.4byte	0x454
 1807 04af 08       		.byte	0x8
 1808 04b0 08       		.uleb128 0x8
ARM GAS  /var/folders/t8/16hdwfmd2fg_d3q6dgx6bpmw0000gn/T//ccqUiayV.s 			page 33


 1809 04b1 72313100 		.ascii	"r11\000"
 1810 04b5 0C       		.byte	0xc
 1811 04b6 C7       		.byte	0xc7
 1812 04b7 54040000 		.4byte	0x454
 1813 04bb 0C       		.byte	0xc
 1814 04bc 08       		.uleb128 0x8
 1815 04bd 723400   		.ascii	"r4\000"
 1816 04c0 0C       		.byte	0xc
 1817 04c1 C8       		.byte	0xc8
 1818 04c2 54040000 		.4byte	0x454
 1819 04c6 10       		.byte	0x10
 1820 04c7 08       		.uleb128 0x8
 1821 04c8 723500   		.ascii	"r5\000"
 1822 04cb 0C       		.byte	0xc
 1823 04cc C9       		.byte	0xc9
 1824 04cd 54040000 		.4byte	0x454
 1825 04d1 14       		.byte	0x14
 1826 04d2 08       		.uleb128 0x8
 1827 04d3 723600   		.ascii	"r6\000"
 1828 04d6 0C       		.byte	0xc
 1829 04d7 CA       		.byte	0xca
 1830 04d8 54040000 		.4byte	0x454
 1831 04dc 18       		.byte	0x18
 1832 04dd 08       		.uleb128 0x8
 1833 04de 723700   		.ascii	"r7\000"
 1834 04e1 0C       		.byte	0xc
 1835 04e2 CB       		.byte	0xcb
 1836 04e3 54040000 		.4byte	0x454
 1837 04e7 1C       		.byte	0x1c
 1838 04e8 08       		.uleb128 0x8
 1839 04e9 6C7200   		.ascii	"lr\000"
 1840 04ec 0C       		.byte	0xc
 1841 04ed CC       		.byte	0xcc
 1842 04ee 54040000 		.4byte	0x454
 1843 04f2 20       		.byte	0x20
 1844 04f3 00       		.byte	0
 1845 04f4 0B       		.uleb128 0xb
 1846 04f5 04       		.byte	0x4
 1847 04f6 82040000 		.4byte	0x482
 1848 04fa 10       		.uleb128 0x10
 1849 04fb 04       		.byte	0x4
 1850 04fc 02       		.byte	0x2
 1851 04fd D2       		.byte	0xd2
 1852 04fe 5D050000 		.4byte	0x55d
 1853 0502 11       		.uleb128 0x11
 1854 0503 98030000 		.4byte	.LASF78
 1855 0507 02       		.byte	0x2
 1856 0508 D9       		.byte	0xd9
 1857 0509 10010000 		.4byte	0x110
 1858 050d 11       		.uleb128 0x11
 1859 050e 16080000 		.4byte	.LASF79
 1860 0512 02       		.byte	0x2
 1861 0513 E0       		.byte	0xe0
 1862 0514 10010000 		.4byte	0x110
 1863 0518 11       		.uleb128 0x11
 1864 0519 75010000 		.4byte	.LASF80
 1865 051d 02       		.byte	0x2
ARM GAS  /var/folders/t8/16hdwfmd2fg_d3q6dgx6bpmw0000gn/T//ccqUiayV.s 			page 34


 1866 051e E7       		.byte	0xe7
 1867 051f 1E030000 		.4byte	0x31e
 1868 0523 11       		.uleb128 0x11
 1869 0524 74070000 		.4byte	.LASF81
 1870 0528 02       		.byte	0x2
 1871 0529 EE       		.byte	0xee
 1872 052a 5D050000 		.4byte	0x55d
 1873 052e 11       		.uleb128 0x11
 1874 052f 72020000 		.4byte	.LASF82
 1875 0533 02       		.byte	0x2
 1876 0534 F3       		.byte	0xf3
 1877 0535 10010000 		.4byte	0x110
 1878 0539 11       		.uleb128 0x11
 1879 053a AD060000 		.4byte	.LASF83
 1880 053e 02       		.byte	0x2
 1881 053f FC       		.byte	0xfc
 1882 0540 88050000 		.4byte	0x588
 1883 0544 12       		.uleb128 0x12
 1884 0545 02010000 		.4byte	.LASF84
 1885 0549 02       		.byte	0x2
 1886 054a 0501     		.2byte	0x105
 1887 054c BF050000 		.4byte	0x5bf
 1888 0550 12       		.uleb128 0x12
 1889 0551 C0010000 		.4byte	.LASF85
 1890 0555 02       		.byte	0x2
 1891 0556 0D01     		.2byte	0x10d
 1892 0558 1B010000 		.4byte	0x11b
 1893 055c 00       		.byte	0
 1894 055d 0B       		.uleb128 0xb
 1895 055e 04       		.byte	0x4
 1896 055f 36020000 		.4byte	0x236
 1897 0563 06       		.uleb128 0x6
 1898 0564 91020000 		.4byte	.LASF86
 1899 0568 0C       		.byte	0xc
 1900 0569 05       		.byte	0x5
 1901 056a 34       		.byte	0x34
 1902 056b 88050000 		.4byte	0x588
 1903 056f 07       		.uleb128 0x7
 1904 0570 96060000 		.4byte	.LASF29
 1905 0574 05       		.byte	0x5
 1906 0575 35       		.byte	0x35
 1907 0576 6B020000 		.4byte	0x26b
 1908 057a 00       		.byte	0
 1909 057b 08       		.uleb128 0x8
 1910 057c 636E7400 		.ascii	"cnt\000"
 1911 0580 05       		.byte	0x5
 1912 0581 37       		.byte	0x37
 1913 0582 26010000 		.4byte	0x126
 1914 0586 08       		.byte	0x8
 1915 0587 00       		.byte	0
 1916 0588 0B       		.uleb128 0xb
 1917 0589 04       		.byte	0x4
 1918 058a 63050000 		.4byte	0x563
 1919 058e 06       		.uleb128 0x6
 1920 058f D2030000 		.4byte	.LASF87
 1921 0593 10       		.byte	0x10
 1922 0594 0D       		.byte	0xd
ARM GAS  /var/folders/t8/16hdwfmd2fg_d3q6dgx6bpmw0000gn/T//ccqUiayV.s 			page 35


 1923 0595 39       		.byte	0x39
 1924 0596 BF050000 		.4byte	0x5bf
 1925 059a 07       		.uleb128 0x7
 1926 059b 96060000 		.4byte	.LASF29
 1927 059f 0D       		.byte	0xd
 1928 05a0 3A       		.byte	0x3a
 1929 05a1 6B020000 		.4byte	0x26b
 1930 05a5 00       		.byte	0
 1931 05a6 07       		.uleb128 0x7
 1932 05a7 27030000 		.4byte	.LASF88
 1933 05ab 0D       		.byte	0xd
 1934 05ac 3C       		.byte	0x3c
 1935 05ad 41020000 		.4byte	0x241
 1936 05b1 08       		.byte	0x8
 1937 05b2 07       		.uleb128 0x7
 1938 05b3 41010000 		.4byte	.LASF49
 1939 05b7 0D       		.byte	0xd
 1940 05b8 3E       		.byte	0x3e
 1941 05b9 2C070000 		.4byte	0x72c
 1942 05bd 0C       		.byte	0xc
 1943 05be 00       		.byte	0
 1944 05bf 0B       		.uleb128 0xb
 1945 05c0 04       		.byte	0x4
 1946 05c1 8E050000 		.4byte	0x58e
 1947 05c5 0B       		.uleb128 0xb
 1948 05c6 04       		.byte	0x4
 1949 05c7 D7050000 		.4byte	0x5d7
 1950 05cb 05       		.uleb128 0x5
 1951 05cc C5050000 		.4byte	0x5c5
 1952 05d0 03       		.uleb128 0x3
 1953 05d1 01       		.byte	0x1
 1954 05d2 08       		.byte	0x8
 1955 05d3 0E040000 		.4byte	.LASF89
 1956 05d7 13       		.uleb128 0x13
 1957 05d8 D0050000 		.4byte	0x5d0
 1958 05dc 0B       		.uleb128 0xb
 1959 05dd 04       		.byte	0x4
 1960 05de 5F040000 		.4byte	0x45f
 1961 05e2 0B       		.uleb128 0xb
 1962 05e3 04       		.byte	0x4
 1963 05e4 20030000 		.4byte	0x320
 1964 05e8 14       		.uleb128 0x14
 1965 05e9 636800   		.ascii	"ch\000"
 1966 05ec 02       		.byte	0x2
 1967 05ed D201     		.2byte	0x1d2
 1968 05ef 07040000 		.4byte	0x407
 1969 05f3 15       		.uleb128 0x15
 1970 05f4 5F040000 		.4byte	0x45f
 1971 05f8 FE050000 		.4byte	0x5fe
 1972 05fc 16       		.uleb128 0x16
 1973 05fd 00       		.byte	0
 1974 05fe 17       		.uleb128 0x17
 1975 05ff 2D040000 		.4byte	.LASF90
 1976 0603 04       		.byte	0x4
 1977 0604 2B01     		.2byte	0x12b
 1978 0606 F3050000 		.4byte	0x5f3
 1979 060a 18       		.uleb128 0x18
ARM GAS  /var/folders/t8/16hdwfmd2fg_d3q6dgx6bpmw0000gn/T//ccqUiayV.s 			page 36


 1980 060b 16       		.byte	0x16
 1981 060c 0E       		.byte	0xe
 1982 060d 34       		.byte	0x34
 1983 060e EB060000 		.4byte	0x6eb
 1984 0612 07       		.uleb128 0x7
 1985 0613 38060000 		.4byte	.LASF91
 1986 0617 0E       		.byte	0xe
 1987 0618 35       		.byte	0x35
 1988 0619 EB060000 		.4byte	0x6eb
 1989 061d 00       		.byte	0
 1990 061e 07       		.uleb128 0x7
 1991 061f 9A040000 		.4byte	.LASF92
 1992 0623 0E       		.byte	0xe
 1993 0624 36       		.byte	0x36
 1994 0625 A2000000 		.4byte	0xa2
 1995 0629 04       		.byte	0x4
 1996 062a 07       		.uleb128 0x7
 1997 062b E1040000 		.4byte	.LASF93
 1998 062f 0E       		.byte	0xe
 1999 0630 37       		.byte	0x37
 2000 0631 A2000000 		.4byte	0xa2
 2001 0635 05       		.byte	0x5
 2002 0636 07       		.uleb128 0x7
 2003 0637 46010000 		.4byte	.LASF94
 2004 063b 0E       		.byte	0xe
 2005 063c 38       		.byte	0x38
 2006 063d AD000000 		.4byte	0xad
 2007 0641 06       		.byte	0x6
 2008 0642 07       		.uleb128 0x7
 2009 0643 E6040000 		.4byte	.LASF95
 2010 0647 0E       		.byte	0xe
 2011 0648 39       		.byte	0x39
 2012 0649 A2000000 		.4byte	0xa2
 2013 064d 08       		.byte	0x8
 2014 064e 07       		.uleb128 0x7
 2015 064f 10000000 		.4byte	.LASF96
 2016 0653 0E       		.byte	0xe
 2017 0654 3A       		.byte	0x3a
 2018 0655 A2000000 		.4byte	0xa2
 2019 0659 09       		.byte	0x9
 2020 065a 07       		.uleb128 0x7
 2021 065b 86020000 		.4byte	.LASF97
 2022 065f 0E       		.byte	0xe
 2023 0660 3B       		.byte	0x3b
 2024 0661 A2000000 		.4byte	0xa2
 2025 0665 0A       		.byte	0xa
 2026 0666 07       		.uleb128 0x7
 2027 0667 AE050000 		.4byte	.LASF98
 2028 066b 0E       		.byte	0xe
 2029 066c 3C       		.byte	0x3c
 2030 066d A2000000 		.4byte	0xa2
 2031 0671 0B       		.byte	0xb
 2032 0672 07       		.uleb128 0x7
 2033 0673 E6030000 		.4byte	.LASF99
 2034 0677 0E       		.byte	0xe
 2035 0678 3D       		.byte	0x3d
 2036 0679 A2000000 		.4byte	0xa2
ARM GAS  /var/folders/t8/16hdwfmd2fg_d3q6dgx6bpmw0000gn/T//ccqUiayV.s 			page 37


 2037 067d 0C       		.byte	0xc
 2038 067e 07       		.uleb128 0x7
 2039 067f 2A020000 		.4byte	.LASF100
 2040 0683 0E       		.byte	0xe
 2041 0684 3E       		.byte	0x3e
 2042 0685 A2000000 		.4byte	0xa2
 2043 0689 0D       		.byte	0xd
 2044 068a 07       		.uleb128 0x7
 2045 068b 84030000 		.4byte	.LASF101
 2046 068f 0E       		.byte	0xe
 2047 0690 3F       		.byte	0x3f
 2048 0691 A2000000 		.4byte	0xa2
 2049 0695 0E       		.byte	0xe
 2050 0696 07       		.uleb128 0x7
 2051 0697 74040000 		.4byte	.LASF102
 2052 069b 0E       		.byte	0xe
 2053 069c 40       		.byte	0x40
 2054 069d A2000000 		.4byte	0xa2
 2055 06a1 0F       		.byte	0xf
 2056 06a2 07       		.uleb128 0x7
 2057 06a3 0D030000 		.4byte	.LASF103
 2058 06a7 0E       		.byte	0xe
 2059 06a8 41       		.byte	0x41
 2060 06a9 A2000000 		.4byte	0xa2
 2061 06ad 10       		.byte	0x10
 2062 06ae 07       		.uleb128 0x7
 2063 06af 8E030000 		.4byte	.LASF104
 2064 06b3 0E       		.byte	0xe
 2065 06b4 42       		.byte	0x42
 2066 06b5 A2000000 		.4byte	0xa2
 2067 06b9 11       		.byte	0x11
 2068 06ba 07       		.uleb128 0x7
 2069 06bb FF030000 		.4byte	.LASF105
 2070 06bf 0E       		.byte	0xe
 2071 06c0 43       		.byte	0x43
 2072 06c1 A2000000 		.4byte	0xa2
 2073 06c5 12       		.byte	0x12
 2074 06c6 07       		.uleb128 0x7
 2075 06c7 AA070000 		.4byte	.LASF106
 2076 06cb 0E       		.byte	0xe
 2077 06cc 44       		.byte	0x44
 2078 06cd A2000000 		.4byte	0xa2
 2079 06d1 13       		.byte	0x13
 2080 06d2 07       		.uleb128 0x7
 2081 06d3 43060000 		.4byte	.LASF107
 2082 06d7 0E       		.byte	0xe
 2083 06d8 45       		.byte	0x45
 2084 06d9 A2000000 		.4byte	0xa2
 2085 06dd 14       		.byte	0x14
 2086 06de 07       		.uleb128 0x7
 2087 06df 6C010000 		.4byte	.LASF108
 2088 06e3 0E       		.byte	0xe
 2089 06e4 46       		.byte	0x46
 2090 06e5 A2000000 		.4byte	0xa2
 2091 06e9 15       		.byte	0x15
 2092 06ea 00       		.byte	0
 2093 06eb 15       		.uleb128 0x15
ARM GAS  /var/folders/t8/16hdwfmd2fg_d3q6dgx6bpmw0000gn/T//ccqUiayV.s 			page 38


 2094 06ec D0050000 		.4byte	0x5d0
 2095 06f0 FB060000 		.4byte	0x6fb
 2096 06f4 19       		.uleb128 0x19
 2097 06f5 2C000000 		.4byte	0x2c
 2098 06f9 03       		.byte	0x3
 2099 06fa 00       		.byte	0
 2100 06fb 04       		.uleb128 0x4
 2101 06fc A4050000 		.4byte	.LASF109
 2102 0700 0E       		.byte	0xe
 2103 0701 47       		.byte	0x47
 2104 0702 0A060000 		.4byte	0x60a
 2105 0706 13       		.uleb128 0x13
 2106 0707 FB060000 		.4byte	0x6fb
 2107 070b 1A       		.uleb128 0x1a
 2108 070c C4070000 		.4byte	.LASF110
 2109 0710 0E       		.byte	0xe
 2110 0711 6C       		.byte	0x6c
 2111 0712 06070000 		.4byte	0x706
 2112 0716 04       		.uleb128 0x4
 2113 0717 2D030000 		.4byte	.LASF111
 2114 071b 05       		.byte	0x5
 2115 071c 38       		.byte	0x38
 2116 071d 63050000 		.4byte	0x563
 2117 0721 04       		.uleb128 0x4
 2118 0722 B4060000 		.4byte	.LASF112
 2119 0726 0D       		.byte	0xd
 2120 0727 34       		.byte	0x34
 2121 0728 8E050000 		.4byte	0x58e
 2122 072c 0B       		.uleb128 0xb
 2123 072d 04       		.byte	0x4
 2124 072e 21070000 		.4byte	0x721
 2125 0732 1B       		.uleb128 0x1b
 2126 0733 E8050000 		.4byte	0x5e8
 2127 0737 01       		.byte	0x1
 2128 0738 2A       		.byte	0x2a
 2129 0739 05       		.uleb128 0x5
 2130 073a 03       		.byte	0x3
 2131 073b 00000000 		.4byte	ch
 2132 073f 1C       		.uleb128 0x1c
 2133 0740 E5010000 		.4byte	.LASF113
 2134 0744 01       		.byte	0x1
 2135 0745 3602     		.2byte	0x236
 2136 0747 00000000 		.4byte	.LFB149
 2137 074b 54000000 		.4byte	.LFE149-.LFB149
 2138 074f 01       		.uleb128 0x1
 2139 0750 9C       		.byte	0x9c
 2140 0751 0E080000 		.4byte	0x80e
 2141 0755 1D       		.uleb128 0x1d
 2142 0756 6F747000 		.ascii	"otp\000"
 2143 075a 01       		.byte	0x1
 2144 075b 3702     		.2byte	0x237
 2145 075d 41020000 		.4byte	0x241
 2146 0761 00000000 		.4byte	.LLST29
 2147 0765 1E       		.uleb128 0x1e
 2148 0766 28000000 		.4byte	.LBB144
 2149 076a 1A000000 		.4byte	.LBE144-.LBB144
 2150 076e CE070000 		.4byte	0x7ce
ARM GAS  /var/folders/t8/16hdwfmd2fg_d3q6dgx6bpmw0000gn/T//ccqUiayV.s 			page 39


 2151 0772 1D       		.uleb128 0x1d
 2152 0773 72313300 		.ascii	"r13\000"
 2153 0777 01       		.byte	0x1
 2154 0778 5A02     		.2byte	0x25a
 2155 077a F4040000 		.4byte	0x4f4
 2156 077e 3F000000 		.4byte	.LLST32
 2157 0782 1F       		.uleb128 0x1f
 2158 0783 60100000 		.4byte	0x1060
 2159 0787 28000000 		.4byte	.LBB145
 2160 078b 04000000 		.4byte	.LBE145-.LBB145
 2161 078f 01       		.byte	0x1
 2162 0790 5A02     		.2byte	0x25a
 2163 0792 A6070000 		.4byte	0x7a6
 2164 0796 20       		.uleb128 0x20
 2165 0797 28000000 		.4byte	.LBB146
 2166 079b 04000000 		.4byte	.LBE146-.LBB146
 2167 079f 21       		.uleb128 0x21
 2168 07a0 70100000 		.4byte	0x1070
 2169 07a4 00       		.byte	0
 2170 07a5 00       		.byte	0
 2171 07a6 22       		.uleb128 0x22
 2172 07a7 3A000000 		.4byte	.LVL102
 2173 07ab 8C100000 		.4byte	0x108c
 2174 07af BD070000 		.4byte	0x7bd
 2175 07b3 23       		.uleb128 0x23
 2176 07b4 01       		.uleb128 0x1
 2177 07b5 50       		.byte	0x50
 2178 07b6 05       		.uleb128 0x5
 2179 07b7 03       		.byte	0x3
 2180 07b8 00000000 		.4byte	.LC7
 2181 07bc 00       		.byte	0
 2182 07bd 24       		.uleb128 0x24
 2183 07be 42000000 		.4byte	.LVL103
 2184 07c2 98100000 		.4byte	0x1098
 2185 07c6 23       		.uleb128 0x23
 2186 07c7 01       		.uleb128 0x1
 2187 07c8 51       		.byte	0x51
 2188 07c9 02       		.uleb128 0x2
 2189 07ca 75       		.byte	0x75
 2190 07cb 00       		.sleb128 0
 2191 07cc 00       		.byte	0
 2192 07cd 00       		.byte	0
 2193 07ce 25       		.uleb128 0x25
 2194 07cf F30F0000 		.4byte	0xff3
 2195 07d3 06000000 		.4byte	.LBB138
 2196 07d7 78000000 		.4byte	.Ldebug_ranges0+0x78
 2197 07db 01       		.byte	0x1
 2198 07dc 3A02     		.2byte	0x23a
 2199 07de FB070000 		.4byte	0x7fb
 2200 07e2 26       		.uleb128 0x26
 2201 07e3 04100000 		.4byte	0x1004
 2202 07e7 5F000000 		.4byte	.LLST30
 2203 07eb 27       		.uleb128 0x27
 2204 07ec 78000000 		.4byte	.Ldebug_ranges0+0x78
 2205 07f0 28       		.uleb128 0x28
 2206 07f1 10100000 		.4byte	0x1010
 2207 07f5 77000000 		.4byte	.LLST31
ARM GAS  /var/folders/t8/16hdwfmd2fg_d3q6dgx6bpmw0000gn/T//ccqUiayV.s 			page 40


 2208 07f9 00       		.byte	0
 2209 07fa 00       		.byte	0
 2210 07fb 29       		.uleb128 0x29
 2211 07fc 22000000 		.4byte	.LVL97
 2212 0800 C00E0000 		.4byte	0xec0
 2213 0804 29       		.uleb128 0x29
 2214 0805 48000000 		.4byte	.LVL106
 2215 0809 300E0000 		.4byte	0xe30
 2216 080d 00       		.byte	0
 2217 080e 1C       		.uleb128 0x1c
 2218 080f 51070000 		.4byte	.LASF114
 2219 0813 01       		.byte	0x1
 2220 0814 1902     		.2byte	0x219
 2221 0816 00000000 		.4byte	.LFB148
 2222 081a 40000000 		.4byte	.LFE148-.LFB148
 2223 081e 01       		.uleb128 0x1
 2224 081f 9C       		.byte	0x9c
 2225 0820 D4080000 		.4byte	0x8d4
 2226 0824 1D       		.uleb128 0x1d
 2227 0825 6F747000 		.ascii	"otp\000"
 2228 0829 01       		.byte	0x1
 2229 082a 1A02     		.2byte	0x21a
 2230 082c 41020000 		.4byte	0x241
 2231 0830 8A000000 		.4byte	.LLST25
 2232 0834 1E       		.uleb128 0x1e
 2233 0835 1C000000 		.4byte	.LBB133
 2234 0839 1A000000 		.4byte	.LBE133-.LBB133
 2235 083d 9D080000 		.4byte	0x89d
 2236 0841 1D       		.uleb128 0x1d
 2237 0842 72313300 		.ascii	"r13\000"
 2238 0846 01       		.byte	0x1
 2239 0847 2902     		.2byte	0x229
 2240 0849 F4040000 		.4byte	0x4f4
 2241 084d B3000000 		.4byte	.LLST28
 2242 0851 1F       		.uleb128 0x1f
 2243 0852 60100000 		.4byte	0x1060
 2244 0856 1C000000 		.4byte	.LBB134
 2245 085a 04000000 		.4byte	.LBE134-.LBB134
 2246 085e 01       		.byte	0x1
 2247 085f 2902     		.2byte	0x229
 2248 0861 75080000 		.4byte	0x875
 2249 0865 20       		.uleb128 0x20
 2250 0866 1C000000 		.4byte	.LBB135
 2251 086a 04000000 		.4byte	.LBE135-.LBB135
 2252 086e 21       		.uleb128 0x21
 2253 086f 70100000 		.4byte	0x1070
 2254 0873 00       		.byte	0
 2255 0874 00       		.byte	0
 2256 0875 22       		.uleb128 0x22
 2257 0876 2E000000 		.4byte	.LVL89
 2258 087a 8C100000 		.4byte	0x108c
 2259 087e 8C080000 		.4byte	0x88c
 2260 0882 23       		.uleb128 0x23
 2261 0883 01       		.uleb128 0x1
 2262 0884 50       		.byte	0x50
 2263 0885 05       		.uleb128 0x5
 2264 0886 03       		.byte	0x3
ARM GAS  /var/folders/t8/16hdwfmd2fg_d3q6dgx6bpmw0000gn/T//ccqUiayV.s 			page 41


 2265 0887 00000000 		.4byte	.LC7
 2266 088b 00       		.byte	0
 2267 088c 24       		.uleb128 0x24
 2268 088d 36000000 		.4byte	.LVL90
 2269 0891 98100000 		.4byte	0x1098
 2270 0895 23       		.uleb128 0x23
 2271 0896 01       		.uleb128 0x1
 2272 0897 51       		.byte	0x51
 2273 0898 02       		.uleb128 0x2
 2274 0899 75       		.byte	0x75
 2275 089a 00       		.sleb128 0
 2276 089b 00       		.byte	0
 2277 089c 00       		.byte	0
 2278 089d 25       		.uleb128 0x25
 2279 089e F30F0000 		.4byte	0xff3
 2280 08a2 06000000 		.4byte	.LBB129
 2281 08a6 60000000 		.4byte	.Ldebug_ranges0+0x60
 2282 08aa 01       		.byte	0x1
 2283 08ab 1D02     		.2byte	0x21d
 2284 08ad CA080000 		.4byte	0x8ca
 2285 08b1 26       		.uleb128 0x26
 2286 08b2 04100000 		.4byte	0x1004
 2287 08b6 D3000000 		.4byte	.LLST26
 2288 08ba 27       		.uleb128 0x27
 2289 08bb 60000000 		.4byte	.Ldebug_ranges0+0x60
 2290 08bf 28       		.uleb128 0x28
 2291 08c0 10100000 		.4byte	0x1010
 2292 08c4 EB000000 		.4byte	.LLST27
 2293 08c8 00       		.byte	0
 2294 08c9 00       		.byte	0
 2295 08ca 29       		.uleb128 0x29
 2296 08cb 1A000000 		.4byte	.LVL84
 2297 08cf 300E0000 		.4byte	0xe30
 2298 08d3 00       		.byte	0
 2299 08d4 1C       		.uleb128 0x1c
 2300 08d5 BA030000 		.4byte	.LASF115
 2301 08d9 01       		.byte	0x1
 2302 08da F801     		.2byte	0x1f8
 2303 08dc 00000000 		.4byte	.LFB147
 2304 08e0 48000000 		.4byte	.LFE147-.LFB147
 2305 08e4 01       		.uleb128 0x1
 2306 08e5 9C       		.byte	0x9c
 2307 08e6 9A090000 		.4byte	0x99a
 2308 08ea 1D       		.uleb128 0x1d
 2309 08eb 6F747000 		.ascii	"otp\000"
 2310 08ef 01       		.byte	0x1
 2311 08f0 F901     		.2byte	0x1f9
 2312 08f2 41020000 		.4byte	0x241
 2313 08f6 FE000000 		.4byte	.LLST21
 2314 08fa 1E       		.uleb128 0x1e
 2315 08fb 22000000 		.4byte	.LBB126
 2316 08ff 1A000000 		.4byte	.LBE126-.LBB126
 2317 0903 63090000 		.4byte	0x963
 2318 0907 1D       		.uleb128 0x1d
 2319 0908 72313300 		.ascii	"r13\000"
 2320 090c 01       		.byte	0x1
 2321 090d 0D02     		.2byte	0x20d
ARM GAS  /var/folders/t8/16hdwfmd2fg_d3q6dgx6bpmw0000gn/T//ccqUiayV.s 			page 42


 2322 090f F4040000 		.4byte	0x4f4
 2323 0913 27010000 		.4byte	.LLST24
 2324 0917 1F       		.uleb128 0x1f
 2325 0918 60100000 		.4byte	0x1060
 2326 091c 22000000 		.4byte	.LBB127
 2327 0920 04000000 		.4byte	.LBE127-.LBB127
 2328 0924 01       		.byte	0x1
 2329 0925 0D02     		.2byte	0x20d
 2330 0927 3B090000 		.4byte	0x93b
 2331 092b 20       		.uleb128 0x20
 2332 092c 22000000 		.4byte	.LBB128
 2333 0930 04000000 		.4byte	.LBE128-.LBB128
 2334 0934 21       		.uleb128 0x21
 2335 0935 70100000 		.4byte	0x1070
 2336 0939 00       		.byte	0
 2337 093a 00       		.byte	0
 2338 093b 22       		.uleb128 0x22
 2339 093c 34000000 		.4byte	.LVL79
 2340 0940 8C100000 		.4byte	0x108c
 2341 0944 52090000 		.4byte	0x952
 2342 0948 23       		.uleb128 0x23
 2343 0949 01       		.uleb128 0x1
 2344 094a 50       		.byte	0x50
 2345 094b 05       		.uleb128 0x5
 2346 094c 03       		.byte	0x3
 2347 094d 00000000 		.4byte	.LC7
 2348 0951 00       		.byte	0
 2349 0952 24       		.uleb128 0x24
 2350 0953 3C000000 		.4byte	.LVL80
 2351 0957 98100000 		.4byte	0x1098
 2352 095b 23       		.uleb128 0x23
 2353 095c 01       		.uleb128 0x1
 2354 095d 51       		.byte	0x51
 2355 095e 02       		.uleb128 0x2
 2356 095f 75       		.byte	0x75
 2357 0960 00       		.sleb128 0
 2358 0961 00       		.byte	0
 2359 0962 00       		.byte	0
 2360 0963 25       		.uleb128 0x25
 2361 0964 F30F0000 		.4byte	0xff3
 2362 0968 06000000 		.4byte	.LBB122
 2363 096c 48000000 		.4byte	.Ldebug_ranges0+0x48
 2364 0970 01       		.byte	0x1
 2365 0971 FC01     		.2byte	0x1fc
 2366 0973 90090000 		.4byte	0x990
 2367 0977 26       		.uleb128 0x26
 2368 0978 04100000 		.4byte	0x1004
 2369 097c 47010000 		.4byte	.LLST22
 2370 0980 27       		.uleb128 0x27
 2371 0981 48000000 		.4byte	.Ldebug_ranges0+0x48
 2372 0985 28       		.uleb128 0x28
 2373 0986 10100000 		.4byte	0x1010
 2374 098a 5F010000 		.4byte	.LLST23
 2375 098e 00       		.byte	0
 2376 098f 00       		.byte	0
 2377 0990 29       		.uleb128 0x29
 2378 0991 20000000 		.4byte	.LVL74
ARM GAS  /var/folders/t8/16hdwfmd2fg_d3q6dgx6bpmw0000gn/T//ccqUiayV.s 			page 43


 2379 0995 C00E0000 		.4byte	0xec0
 2380 0999 00       		.byte	0
 2381 099a 2A       		.uleb128 0x2a
 2382 099b D5020000 		.4byte	.LASF119
 2383 099f 01       		.byte	0x1
 2384 09a0 DD01     		.2byte	0x1dd
 2385 09a2 CF090000 		.4byte	0x9cf
 2386 09a6 00000000 		.4byte	.LFB146
 2387 09aa 28000000 		.4byte	.LFE146-.LFB146
 2388 09ae 01       		.uleb128 0x1
 2389 09af 9C       		.byte	0x9c
 2390 09b0 CF090000 		.4byte	0x9cf
 2391 09b4 2B       		.uleb128 0x2b
 2392 09b5 703100   		.ascii	"p1\000"
 2393 09b8 01       		.byte	0x1
 2394 09b9 DE01     		.2byte	0x1de
 2395 09bb 05010000 		.4byte	0x105
 2396 09bf 01       		.uleb128 0x1
 2397 09c0 51       		.byte	0x51
 2398 09c1 2B       		.uleb128 0x2b
 2399 09c2 703200   		.ascii	"p2\000"
 2400 09c5 01       		.byte	0x1
 2401 09c6 DF01     		.2byte	0x1df
 2402 09c8 05010000 		.4byte	0x105
 2403 09cc 01       		.uleb128 0x1
 2404 09cd 52       		.byte	0x52
 2405 09ce 00       		.byte	0
 2406 09cf 03       		.uleb128 0x3
 2407 09d0 01       		.byte	0x1
 2408 09d1 02       		.byte	0x2
 2409 09d2 AD030000 		.4byte	.LASF116
 2410 09d6 1C       		.uleb128 0x1c
 2411 09d7 EE030000 		.4byte	.LASF117
 2412 09db 01       		.byte	0x1
 2413 09dc C701     		.2byte	0x1c7
 2414 09de 00000000 		.4byte	.LFB145
 2415 09e2 24000000 		.4byte	.LFE145-.LFB145
 2416 09e6 01       		.uleb128 0x1
 2417 09e7 9C       		.byte	0x9c
 2418 09e8 1D0A0000 		.4byte	0xa1d
 2419 09ec 1F       		.uleb128 0x1f
 2420 09ed C90F0000 		.4byte	0xfc9
 2421 09f1 06000000 		.4byte	.LBB136
 2422 09f5 0A000000 		.4byte	.LBE136-.LBB136
 2423 09f9 01       		.byte	0x1
 2424 09fa CB01     		.2byte	0x1cb
 2425 09fc 0A0A0000 		.4byte	0xa0a
 2426 0a00 29       		.uleb128 0x29
 2427 0a01 0A000000 		.4byte	.LVL93
 2428 0a05 A4100000 		.4byte	0x10a4
 2429 0a09 00       		.byte	0
 2430 0a0a 29       		.uleb128 0x29
 2431 0a0b 06000000 		.4byte	.LVL92
 2432 0a0f AF100000 		.4byte	0x10af
 2433 0a13 29       		.uleb128 0x29
 2434 0a14 1C000000 		.4byte	.LVL94
 2435 0a18 0E080000 		.4byte	0x80e
ARM GAS  /var/folders/t8/16hdwfmd2fg_d3q6dgx6bpmw0000gn/T//ccqUiayV.s 			page 44


 2436 0a1c 00       		.byte	0
 2437 0a1d 1C       		.uleb128 0x1c
 2438 0a1e 19070000 		.4byte	.LASF118
 2439 0a22 01       		.byte	0x1
 2440 0a23 9B01     		.2byte	0x19b
 2441 0a25 00000000 		.4byte	.LFB144
 2442 0a29 7C000000 		.4byte	.LFE144-.LFB144
 2443 0a2d 01       		.uleb128 0x1
 2444 0a2e 9C       		.byte	0x9c
 2445 0a2f 220B0000 		.4byte	0xb22
 2446 0a33 2C       		.uleb128 0x2c
 2447 0a34 6E747000 		.ascii	"ntp\000"
 2448 0a38 01       		.byte	0x1
 2449 0a39 9B01     		.2byte	0x19b
 2450 0a3b 41020000 		.4byte	0x241
 2451 0a3f 72010000 		.4byte	.LLST17
 2452 0a43 2C       		.uleb128 0x2c
 2453 0a44 6D736700 		.ascii	"msg\000"
 2454 0a48 01       		.byte	0x1
 2455 0a49 9B01     		.2byte	0x19b
 2456 0a4b 10010000 		.4byte	0x110
 2457 0a4f A9010000 		.4byte	.LLST18
 2458 0a53 1D       		.uleb128 0x1d
 2459 0a54 6F747000 		.ascii	"otp\000"
 2460 0a58 01       		.byte	0x1
 2461 0a59 9C01     		.2byte	0x19c
 2462 0a5b 41020000 		.4byte	0x241
 2463 0a5f E0010000 		.4byte	.LLST19
 2464 0a63 2D       		.uleb128 0x2d
 2465 0a64 BB070000 		.4byte	.LASF125
 2466 0a68 320B0000 		.4byte	0xb32
 2467 0a6c 05       		.uleb128 0x5
 2468 0a6d 03       		.byte	0x3
 2469 0a6e 00000000 		.4byte	__func__.5758
 2470 0a72 2E       		.uleb128 0x2e
 2471 0a73 30000000 		.4byte	.Ldebug_ranges0+0x30
 2472 0a77 DD0A0000 		.4byte	0xadd
 2473 0a7b 1D       		.uleb128 0x1d
 2474 0a7c 72313300 		.ascii	"r13\000"
 2475 0a80 01       		.byte	0x1
 2476 0a81 BC01     		.2byte	0x1bc
 2477 0a83 F4040000 		.4byte	0x4f4
 2478 0a87 2A020000 		.4byte	.LLST20
 2479 0a8b 1F       		.uleb128 0x1f
 2480 0a8c 60100000 		.4byte	0x1060
 2481 0a90 38000000 		.4byte	.LBB119
 2482 0a94 04000000 		.4byte	.LBE119-.LBB119
 2483 0a98 01       		.byte	0x1
 2484 0a99 BC01     		.2byte	0x1bc
 2485 0a9b AF0A0000 		.4byte	0xaaf
 2486 0a9f 20       		.uleb128 0x20
 2487 0aa0 38000000 		.4byte	.LBB120
 2488 0aa4 04000000 		.4byte	.LBE120-.LBB120
 2489 0aa8 21       		.uleb128 0x21
 2490 0aa9 70100000 		.4byte	0x1070
 2491 0aad 00       		.byte	0
 2492 0aae 00       		.byte	0
ARM GAS  /var/folders/t8/16hdwfmd2fg_d3q6dgx6bpmw0000gn/T//ccqUiayV.s 			page 45


 2493 0aaf 22       		.uleb128 0x22
 2494 0ab0 4C000000 		.4byte	.LVL60
 2495 0ab4 98100000 		.4byte	0x1098
 2496 0ab8 C90A0000 		.4byte	0xac9
 2497 0abc 23       		.uleb128 0x23
 2498 0abd 01       		.uleb128 0x1
 2499 0abe 50       		.byte	0x50
 2500 0abf 02       		.uleb128 0x2
 2501 0ac0 75       		.byte	0x75
 2502 0ac1 00       		.sleb128 0
 2503 0ac2 23       		.uleb128 0x23
 2504 0ac3 01       		.uleb128 0x1
 2505 0ac4 51       		.byte	0x51
 2506 0ac5 02       		.uleb128 0x2
 2507 0ac6 76       		.byte	0x76
 2508 0ac7 00       		.sleb128 0
 2509 0ac8 00       		.byte	0
 2510 0ac9 24       		.uleb128 0x24
 2511 0aca 6C000000 		.4byte	.LVL69
 2512 0ace 8C100000 		.4byte	0x108c
 2513 0ad2 23       		.uleb128 0x23
 2514 0ad3 01       		.uleb128 0x1
 2515 0ad4 50       		.byte	0x50
 2516 0ad5 05       		.uleb128 0x5
 2517 0ad6 03       		.byte	0x3
 2518 0ad7 00000000 		.4byte	.LC7
 2519 0adb 00       		.byte	0
 2520 0adc 00       		.byte	0
 2521 0add 29       		.uleb128 0x29
 2522 0ade 0E000000 		.4byte	.LVL54
 2523 0ae2 AF100000 		.4byte	0x10af
 2524 0ae6 22       		.uleb128 0x22
 2525 0ae7 2E000000 		.4byte	.LVL55
 2526 0aeb C00E0000 		.4byte	0xec0
 2527 0aef FA0A0000 		.4byte	0xafa
 2528 0af3 23       		.uleb128 0x23
 2529 0af4 01       		.uleb128 0x1
 2530 0af5 50       		.byte	0x50
 2531 0af6 02       		.uleb128 0x2
 2532 0af7 76       		.byte	0x76
 2533 0af8 00       		.sleb128 0
 2534 0af9 00       		.byte	0
 2535 0afa 22       		.uleb128 0x22
 2536 0afb 54000000 		.4byte	.LVL65
 2537 0aff 8C100000 		.4byte	0x108c
 2538 0b03 110B0000 		.4byte	0xb11
 2539 0b07 23       		.uleb128 0x23
 2540 0b08 01       		.uleb128 0x1
 2541 0b09 50       		.byte	0x50
 2542 0b0a 05       		.uleb128 0x5
 2543 0b0b 03       		.byte	0x3
 2544 0b0c 00000000 		.4byte	.LANCHOR3
 2545 0b10 00       		.byte	0
 2546 0b11 24       		.uleb128 0x24
 2547 0b12 64000000 		.4byte	.LVL66
 2548 0b16 C00E0000 		.4byte	0xec0
 2549 0b1a 23       		.uleb128 0x23
ARM GAS  /var/folders/t8/16hdwfmd2fg_d3q6dgx6bpmw0000gn/T//ccqUiayV.s 			page 46


 2550 0b1b 01       		.uleb128 0x1
 2551 0b1c 50       		.byte	0x50
 2552 0b1d 02       		.uleb128 0x2
 2553 0b1e 75       		.byte	0x75
 2554 0b1f 00       		.sleb128 0
 2555 0b20 00       		.byte	0
 2556 0b21 00       		.byte	0
 2557 0b22 15       		.uleb128 0x15
 2558 0b23 D7050000 		.4byte	0x5d7
 2559 0b27 320B0000 		.4byte	0xb32
 2560 0b2b 19       		.uleb128 0x19
 2561 0b2c 2C000000 		.4byte	0x2c
 2562 0b30 0C       		.byte	0xc
 2563 0b31 00       		.byte	0
 2564 0b32 13       		.uleb128 0x13
 2565 0b33 220B0000 		.4byte	0xb22
 2566 0b37 2A       		.uleb128 0x2a
 2567 0b38 81060000 		.4byte	.LASF120
 2568 0b3c 01       		.byte	0x1
 2569 0b3d 7601     		.2byte	0x176
 2570 0b3f 10010000 		.4byte	0x110
 2571 0b43 00000000 		.4byte	.LFB143
 2572 0b47 50000000 		.4byte	.LFE143-.LFB143
 2573 0b4b 01       		.uleb128 0x1
 2574 0b4c 9C       		.byte	0x9c
 2575 0b4d 150C0000 		.4byte	0xc15
 2576 0b51 2F       		.uleb128 0x2f
 2577 0b52 A4060000 		.4byte	.LASF121
 2578 0b56 01       		.byte	0x1
 2579 0b57 7601     		.2byte	0x176
 2580 0b59 E4000000 		.4byte	0xe4
 2581 0b5d 57020000 		.4byte	.LLST14
 2582 0b61 2F       		.uleb128 0x2f
 2583 0b62 1A030000 		.4byte	.LASF122
 2584 0b66 01       		.byte	0x1
 2585 0b67 7601     		.2byte	0x176
 2586 0b69 31010000 		.4byte	0x131
 2587 0b6d 78020000 		.4byte	.LLST15
 2588 0b71 1E       		.uleb128 0x1e
 2589 0b72 10000000 		.4byte	.LBB115
 2590 0b76 24000000 		.4byte	.LBE115-.LBB115
 2591 0b7a FB0B0000 		.4byte	0xbfb
 2592 0b7e 2B       		.uleb128 0x2b
 2593 0b7f 767400   		.ascii	"vt\000"
 2594 0b82 01       		.byte	0x1
 2595 0b83 7B01     		.2byte	0x17b
 2596 0b85 20030000 		.4byte	0x320
 2597 0b89 02       		.uleb128 0x2
 2598 0b8a 91       		.byte	0x91
 2599 0b8b 5C       		.sleb128 -36
 2600 0b8c 1F       		.uleb128 0x1f
 2601 0b8d 990F0000 		.4byte	0xf99
 2602 0b91 24000000 		.4byte	.LBB116
 2603 0b95 04000000 		.4byte	.LBE116-.LBB116
 2604 0b99 01       		.byte	0x1
 2605 0b9a 7F01     		.2byte	0x17f
 2606 0b9c B30B0000 		.4byte	0xbb3
ARM GAS  /var/folders/t8/16hdwfmd2fg_d3q6dgx6bpmw0000gn/T//ccqUiayV.s 			page 47


 2607 0ba0 26       		.uleb128 0x26
 2608 0ba1 AA0F0000 		.4byte	0xfaa
 2609 0ba5 AF020000 		.4byte	.LLST16
 2610 0ba9 29       		.uleb128 0x29
 2611 0baa 28000000 		.4byte	.LVL46
 2612 0bae A4100000 		.4byte	0x10a4
 2613 0bb2 00       		.byte	0
 2614 0bb3 22       		.uleb128 0x22
 2615 0bb4 1E000000 		.4byte	.LVL44
 2616 0bb8 BA100000 		.4byte	0x10ba
 2617 0bbc D60B0000 		.4byte	0xbd6
 2618 0bc0 23       		.uleb128 0x23
 2619 0bc1 01       		.uleb128 0x1
 2620 0bc2 50       		.byte	0x50
 2621 0bc3 02       		.uleb128 0x2
 2622 0bc4 91       		.byte	0x91
 2623 0bc5 5C       		.sleb128 -36
 2624 0bc6 23       		.uleb128 0x23
 2625 0bc7 01       		.uleb128 0x1
 2626 0bc8 51       		.byte	0x51
 2627 0bc9 02       		.uleb128 0x2
 2628 0bca 75       		.byte	0x75
 2629 0bcb 00       		.sleb128 0
 2630 0bcc 23       		.uleb128 0x23
 2631 0bcd 01       		.uleb128 0x1
 2632 0bce 52       		.byte	0x52
 2633 0bcf 05       		.uleb128 0x5
 2634 0bd0 03       		.byte	0x3
 2635 0bd1 00000000 		.4byte	wakeup
 2636 0bd5 00       		.byte	0
 2637 0bd6 22       		.uleb128 0x22
 2638 0bd7 24000000 		.4byte	.LVL45
 2639 0bdb 5A0D0000 		.4byte	0xd5a
 2640 0bdf EA0B0000 		.4byte	0xbea
 2641 0be3 23       		.uleb128 0x23
 2642 0be4 01       		.uleb128 0x1
 2643 0be5 50       		.byte	0x50
 2644 0be6 02       		.uleb128 0x2
 2645 0be7 76       		.byte	0x76
 2646 0be8 00       		.sleb128 0
 2647 0be9 00       		.byte	0
 2648 0bea 24       		.uleb128 0x24
 2649 0beb 34000000 		.4byte	.LVL48
 2650 0bef C5100000 		.4byte	0x10c5
 2651 0bf3 23       		.uleb128 0x23
 2652 0bf4 01       		.uleb128 0x1
 2653 0bf5 50       		.byte	0x50
 2654 0bf6 02       		.uleb128 0x2
 2655 0bf7 91       		.byte	0x91
 2656 0bf8 5C       		.sleb128 -36
 2657 0bf9 00       		.byte	0
 2658 0bfa 00       		.byte	0
 2659 0bfb 29       		.uleb128 0x29
 2660 0bfc 0C000000 		.4byte	.LVL43
 2661 0c00 AF100000 		.4byte	0x10af
 2662 0c04 24       		.uleb128 0x24
 2663 0c05 42000000 		.4byte	.LVL51
ARM GAS  /var/folders/t8/16hdwfmd2fg_d3q6dgx6bpmw0000gn/T//ccqUiayV.s 			page 48


 2664 0c09 5A0D0000 		.4byte	0xd5a
 2665 0c0d 23       		.uleb128 0x23
 2666 0c0e 01       		.uleb128 0x1
 2667 0c0f 50       		.byte	0x50
 2668 0c10 02       		.uleb128 0x2
 2669 0c11 76       		.byte	0x76
 2670 0c12 00       		.sleb128 0
 2671 0c13 00       		.byte	0
 2672 0c14 00       		.byte	0
 2673 0c15 30       		.uleb128 0x30
 2674 0c16 B3030000 		.4byte	.LASF154
 2675 0c1a 01       		.byte	0x1
 2676 0c1b 3F01     		.2byte	0x13f
 2677 0c1d 00000000 		.4byte	.LFB142
 2678 0c21 5C000000 		.4byte	.LFE142-.LFB142
 2679 0c25 01       		.uleb128 0x1
 2680 0c26 9C       		.byte	0x9c
 2681 0c27 5A0D0000 		.4byte	0xd5a
 2682 0c2b 2C       		.uleb128 0x2c
 2683 0c2c 7000     		.ascii	"p\000"
 2684 0c2e 01       		.byte	0x1
 2685 0c2f 3F01     		.2byte	0x13f
 2686 0c31 1E030000 		.4byte	0x31e
 2687 0c35 DC020000 		.4byte	.LLST3
 2688 0c39 1D       		.uleb128 0x1d
 2689 0c3a 747000   		.ascii	"tp\000"
 2690 0c3d 01       		.byte	0x1
 2691 0c3e 4001     		.2byte	0x140
 2692 0c40 41020000 		.4byte	0x241
 2693 0c44 13030000 		.4byte	.LLST4
 2694 0c48 1F       		.uleb128 0x1f
 2695 0c49 C00F0000 		.4byte	0xfc0
 2696 0c4d 04000000 		.4byte	.LBB92
 2697 0c51 06000000 		.4byte	.LBE92-.LBB92
 2698 0c55 01       		.byte	0x1
 2699 0c56 4201     		.2byte	0x142
 2700 0c58 9C0C0000 		.4byte	0xc9c
 2701 0c5c 1F       		.uleb128 0x1f
 2702 0c5d 45100000 		.4byte	0x1045
 2703 0c61 04000000 		.4byte	.LBB94
 2704 0c65 02000000 		.4byte	.LBE94-.LBB94
 2705 0c69 04       		.byte	0x4
 2706 0c6a A001     		.2byte	0x1a0
 2707 0c6c 920C0000 		.4byte	0xc92
 2708 0c70 31       		.uleb128 0x31
 2709 0c71 57100000 		.4byte	0x1057
 2710 0c75 04000000 		.4byte	.LBB95
 2711 0c79 02000000 		.4byte	.LBE95-.LBB95
 2712 0c7d 0C       		.byte	0xc
 2713 0c7e 8801     		.2byte	0x188
 2714 0c80 32       		.uleb128 0x32
 2715 0c81 7C100000 		.4byte	0x107c
 2716 0c85 04000000 		.4byte	.LBB96
 2717 0c89 02000000 		.4byte	.LBE96-.LBB96
 2718 0c8d 0C       		.byte	0xc
 2719 0c8e 7501     		.2byte	0x175
 2720 0c90 00       		.byte	0
ARM GAS  /var/folders/t8/16hdwfmd2fg_d3q6dgx6bpmw0000gn/T//ccqUiayV.s 			page 49


 2721 0c91 00       		.byte	0
 2722 0c92 29       		.uleb128 0x29
 2723 0c93 0A000000 		.4byte	.LVL13
 2724 0c97 D0100000 		.4byte	0x10d0
 2725 0c9b 00       		.byte	0
 2726 0c9c 1F       		.uleb128 0x1f
 2727 0c9d 7C0F0000 		.4byte	0xf7c
 2728 0ca1 1C000000 		.4byte	.LBB98
 2729 0ca5 0A000000 		.4byte	.LBE98-.LBB98
 2730 0ca9 01       		.byte	0x1
 2731 0caa 4E01     		.2byte	0x14e
 2732 0cac C30C0000 		.4byte	0xcc3
 2733 0cb0 26       		.uleb128 0x26
 2734 0cb1 880F0000 		.4byte	0xf88
 2735 0cb5 4A030000 		.4byte	.LLST5
 2736 0cb9 29       		.uleb128 0x29
 2737 0cba 20000000 		.4byte	.LVL15
 2738 0cbe A4100000 		.4byte	0x10a4
 2739 0cc2 00       		.byte	0
 2740 0cc3 1F       		.uleb128 0x1f
 2741 0cc4 D60F0000 		.4byte	0xfd6
 2742 0cc8 26000000 		.4byte	.LBB100
 2743 0ccc 0A000000 		.4byte	.LBE100-.LBB100
 2744 0cd0 01       		.byte	0x1
 2745 0cd1 5601     		.2byte	0x156
 2746 0cd3 E10C0000 		.4byte	0xce1
 2747 0cd7 26       		.uleb128 0x26
 2748 0cd8 E70F0000 		.4byte	0xfe7
 2749 0cdc 5D030000 		.4byte	.LLST6
 2750 0ce0 00       		.byte	0
 2751 0ce1 1F       		.uleb128 0x1f
 2752 0ce2 B70F0000 		.4byte	0xfb7
 2753 0ce6 3C000000 		.4byte	.LBB102
 2754 0cea 06000000 		.4byte	.LBE102-.LBB102
 2755 0cee 01       		.byte	0x1
 2756 0cef 5E01     		.2byte	0x15e
 2757 0cf1 350D0000 		.4byte	0xd35
 2758 0cf5 1F       		.uleb128 0x1f
 2759 0cf6 3C100000 		.4byte	0x103c
 2760 0cfa 40000000 		.4byte	.LBB104
 2761 0cfe 02000000 		.4byte	.LBE104-.LBB104
 2762 0d02 04       		.byte	0x4
 2763 0d03 B601     		.2byte	0x1b6
 2764 0d05 2B0D0000 		.4byte	0xd2b
 2765 0d09 31       		.uleb128 0x31
 2766 0d0a 4E100000 		.4byte	0x104e
 2767 0d0e 40000000 		.4byte	.LBB105
 2768 0d12 02000000 		.4byte	.LBE105-.LBB105
 2769 0d16 0C       		.byte	0xc
 2770 0d17 9201     		.2byte	0x192
 2771 0d19 32       		.uleb128 0x32
 2772 0d1a 84100000 		.4byte	0x1084
 2773 0d1e 40000000 		.4byte	.LBB106
 2774 0d22 02000000 		.4byte	.LBE106-.LBB106
 2775 0d26 0C       		.byte	0xc
 2776 0d27 7E01     		.2byte	0x17e
 2777 0d29 00       		.byte	0
ARM GAS  /var/folders/t8/16hdwfmd2fg_d3q6dgx6bpmw0000gn/T//ccqUiayV.s 			page 50


 2778 0d2a 00       		.byte	0
 2779 0d2b 29       		.uleb128 0x29
 2780 0d2c 40000000 		.4byte	.LVL19
 2781 0d30 DB100000 		.4byte	0x10db
 2782 0d34 00       		.byte	0
 2783 0d35 22       		.uleb128 0x22
 2784 0d36 3C000000 		.4byte	.LVL18
 2785 0d3a C00E0000 		.4byte	0xec0
 2786 0d3e 490D0000 		.4byte	0xd49
 2787 0d42 23       		.uleb128 0x23
 2788 0d43 01       		.uleb128 0x1
 2789 0d44 50       		.byte	0x50
 2790 0d45 02       		.uleb128 0x2
 2791 0d46 74       		.byte	0x74
 2792 0d47 00       		.sleb128 0
 2793 0d48 00       		.byte	0
 2794 0d49 24       		.uleb128 0x24
 2795 0d4a 56000000 		.4byte	.LVL22
 2796 0d4e C00E0000 		.4byte	0xec0
 2797 0d52 23       		.uleb128 0x23
 2798 0d53 01       		.uleb128 0x1
 2799 0d54 50       		.byte	0x50
 2800 0d55 02       		.uleb128 0x2
 2801 0d56 74       		.byte	0x74
 2802 0d57 00       		.sleb128 0
 2803 0d58 00       		.byte	0
 2804 0d59 00       		.byte	0
 2805 0d5a 1C       		.uleb128 0x1c
 2806 0d5b 2A060000 		.4byte	.LASF123
 2807 0d5f 01       		.byte	0x1
 2808 0d60 2101     		.2byte	0x121
 2809 0d62 00000000 		.4byte	.LFB141
 2810 0d66 48000000 		.4byte	.LFE141-.LFB141
 2811 0d6a 01       		.uleb128 0x1
 2812 0d6b 9C       		.byte	0x9c
 2813 0d6c 300E0000 		.4byte	0xe30
 2814 0d70 2F       		.uleb128 0x2f
 2815 0d71 A4060000 		.4byte	.LASF121
 2816 0d75 01       		.byte	0x1
 2817 0d76 2101     		.2byte	0x121
 2818 0d78 E4000000 		.4byte	0xe4
 2819 0d7c 70030000 		.4byte	.LLST9
 2820 0d80 1D       		.uleb128 0x1d
 2821 0d81 6F747000 		.ascii	"otp\000"
 2822 0d85 01       		.byte	0x1
 2823 0d86 2201     		.2byte	0x122
 2824 0d88 41020000 		.4byte	0x241
 2825 0d8c 91030000 		.4byte	.LLST10
 2826 0d90 1E       		.uleb128 0x1e
 2827 0d91 24000000 		.4byte	.LBB112
 2828 0d95 1A000000 		.4byte	.LBE112-.LBB112
 2829 0d99 F90D0000 		.4byte	0xdf9
 2830 0d9d 1D       		.uleb128 0x1d
 2831 0d9e 72313300 		.ascii	"r13\000"
 2832 0da2 01       		.byte	0x1
 2833 0da3 3901     		.2byte	0x139
 2834 0da5 F4040000 		.4byte	0x4f4
ARM GAS  /var/folders/t8/16hdwfmd2fg_d3q6dgx6bpmw0000gn/T//ccqUiayV.s 			page 51


 2835 0da9 A4030000 		.4byte	.LLST13
 2836 0dad 1F       		.uleb128 0x1f
 2837 0dae 60100000 		.4byte	0x1060
 2838 0db2 24000000 		.4byte	.LBB113
 2839 0db6 04000000 		.4byte	.LBE113-.LBB113
 2840 0dba 01       		.byte	0x1
 2841 0dbb 3901     		.2byte	0x139
 2842 0dbd D10D0000 		.4byte	0xdd1
 2843 0dc1 20       		.uleb128 0x20
 2844 0dc2 24000000 		.4byte	.LBB114
 2845 0dc6 04000000 		.4byte	.LBE114-.LBB114
 2846 0dca 21       		.uleb128 0x21
 2847 0dcb 70100000 		.4byte	0x1070
 2848 0dcf 00       		.byte	0
 2849 0dd0 00       		.byte	0
 2850 0dd1 22       		.uleb128 0x22
 2851 0dd2 36000000 		.4byte	.LVL39
 2852 0dd6 8C100000 		.4byte	0x108c
 2853 0dda E80D0000 		.4byte	0xde8
 2854 0dde 23       		.uleb128 0x23
 2855 0ddf 01       		.uleb128 0x1
 2856 0de0 50       		.byte	0x50
 2857 0de1 05       		.uleb128 0x5
 2858 0de2 03       		.byte	0x3
 2859 0de3 00000000 		.4byte	.LC7
 2860 0de7 00       		.byte	0
 2861 0de8 24       		.uleb128 0x24
 2862 0de9 3E000000 		.4byte	.LVL40
 2863 0ded 98100000 		.4byte	0x1098
 2864 0df1 23       		.uleb128 0x23
 2865 0df2 01       		.uleb128 0x1
 2866 0df3 51       		.byte	0x51
 2867 0df4 02       		.uleb128 0x2
 2868 0df5 75       		.byte	0x75
 2869 0df6 00       		.sleb128 0
 2870 0df7 00       		.byte	0
 2871 0df8 00       		.byte	0
 2872 0df9 25       		.uleb128 0x25
 2873 0dfa F30F0000 		.4byte	0xff3
 2874 0dfe 12000000 		.4byte	.LBB108
 2875 0e02 18000000 		.4byte	.Ldebug_ranges0+0x18
 2876 0e06 01       		.byte	0x1
 2877 0e07 3001     		.2byte	0x130
 2878 0e09 260E0000 		.4byte	0xe26
 2879 0e0d 26       		.uleb128 0x26
 2880 0e0e 04100000 		.4byte	0x1004
 2881 0e12 C4030000 		.4byte	.LLST11
 2882 0e16 27       		.uleb128 0x27
 2883 0e17 18000000 		.4byte	.Ldebug_ranges0+0x18
 2884 0e1b 28       		.uleb128 0x28
 2885 0e1c 10100000 		.4byte	0x1010
 2886 0e20 DC030000 		.4byte	.LLST12
 2887 0e24 00       		.byte	0
 2888 0e25 00       		.byte	0
 2889 0e26 29       		.uleb128 0x29
 2890 0e27 0C000000 		.4byte	.LVL34
 2891 0e2b AF100000 		.4byte	0x10af
ARM GAS  /var/folders/t8/16hdwfmd2fg_d3q6dgx6bpmw0000gn/T//ccqUiayV.s 			page 52


 2892 0e2f 00       		.byte	0
 2893 0e30 2A       		.uleb128 0x2a
 2894 0e31 59040000 		.4byte	.LASF124
 2895 0e35 01       		.byte	0x1
 2896 0e36 0101     		.2byte	0x101
 2897 0e38 41020000 		.4byte	0x241
 2898 0e3c 00000000 		.4byte	.LFB140
 2899 0e40 50000000 		.4byte	.LFE140-.LFB140
 2900 0e44 01       		.uleb128 0x1
 2901 0e45 9C       		.byte	0x9c
 2902 0e46 AB0E0000 		.4byte	0xeab
 2903 0e4a 2C       		.uleb128 0x2c
 2904 0e4b 747000   		.ascii	"tp\000"
 2905 0e4e 01       		.byte	0x1
 2906 0e4f 0101     		.2byte	0x101
 2907 0e51 41020000 		.4byte	0x241
 2908 0e55 EF030000 		.4byte	.LLST7
 2909 0e59 1D       		.uleb128 0x1d
 2910 0e5a 637000   		.ascii	"cp\000"
 2911 0e5d 01       		.byte	0x1
 2912 0e5e 0201     		.2byte	0x102
 2913 0e60 41020000 		.4byte	0x241
 2914 0e64 23040000 		.4byte	.LLST8
 2915 0e68 2D       		.uleb128 0x2d
 2916 0e69 BB070000 		.4byte	.LASF125
 2917 0e6d BB0E0000 		.4byte	0xebb
 2918 0e71 05       		.uleb128 0x5
 2919 0e72 03       		.byte	0x3
 2920 0e73 00000000 		.4byte	__func__.5729
 2921 0e77 29       		.uleb128 0x29
 2922 0e78 08000000 		.4byte	.LVL24
 2923 0e7c A4100000 		.4byte	0x10a4
 2924 0e80 22       		.uleb128 0x22
 2925 0e81 3E000000 		.4byte	.LVL30
 2926 0e85 8C100000 		.4byte	0x108c
 2927 0e89 970E0000 		.4byte	0xe97
 2928 0e8d 23       		.uleb128 0x23
 2929 0e8e 01       		.uleb128 0x1
 2930 0e8f 50       		.byte	0x50
 2931 0e90 05       		.uleb128 0x5
 2932 0e91 03       		.byte	0x3
 2933 0e92 00000000 		.4byte	.LANCHOR2
 2934 0e96 00       		.byte	0
 2935 0e97 24       		.uleb128 0x24
 2936 0e98 46000000 		.4byte	.LVL31
 2937 0e9c 8C100000 		.4byte	0x108c
 2938 0ea0 23       		.uleb128 0x23
 2939 0ea1 01       		.uleb128 0x1
 2940 0ea2 50       		.byte	0x50
 2941 0ea3 05       		.uleb128 0x5
 2942 0ea4 03       		.byte	0x3
 2943 0ea5 00000000 		.4byte	.LANCHOR2
 2944 0ea9 00       		.byte	0
 2945 0eaa 00       		.byte	0
 2946 0eab 15       		.uleb128 0x15
 2947 0eac D7050000 		.4byte	0x5d7
 2948 0eb0 BB0E0000 		.4byte	0xebb
ARM GAS  /var/folders/t8/16hdwfmd2fg_d3q6dgx6bpmw0000gn/T//ccqUiayV.s 			page 53


 2949 0eb4 19       		.uleb128 0x19
 2950 0eb5 2C000000 		.4byte	0x2c
 2951 0eb9 10       		.byte	0x10
 2952 0eba 00       		.byte	0
 2953 0ebb 13       		.uleb128 0x13
 2954 0ebc AB0E0000 		.4byte	0xeab
 2955 0ec0 33       		.uleb128 0x33
 2956 0ec1 3D020000 		.4byte	.LASF126
 2957 0ec5 01       		.byte	0x1
 2958 0ec6 DA       		.byte	0xda
 2959 0ec7 41020000 		.4byte	0x241
 2960 0ecb 00000000 		.4byte	.LFB139
 2961 0ecf 50000000 		.4byte	.LFE139-.LFB139
 2962 0ed3 01       		.uleb128 0x1
 2963 0ed4 9C       		.byte	0x9c
 2964 0ed5 380F0000 		.4byte	0xf38
 2965 0ed9 34       		.uleb128 0x34
 2966 0eda 747000   		.ascii	"tp\000"
 2967 0edd 01       		.byte	0x1
 2968 0ede DA       		.byte	0xda
 2969 0edf 41020000 		.4byte	0x241
 2970 0ee3 46040000 		.4byte	.LLST1
 2971 0ee7 35       		.uleb128 0x35
 2972 0ee8 637000   		.ascii	"cp\000"
 2973 0eeb 01       		.byte	0x1
 2974 0eec DB       		.byte	0xdb
 2975 0eed 41020000 		.4byte	0x241
 2976 0ef1 7A040000 		.4byte	.LLST2
 2977 0ef5 2D       		.uleb128 0x2d
 2978 0ef6 BB070000 		.4byte	.LASF125
 2979 0efa 480F0000 		.4byte	0xf48
 2980 0efe 05       		.uleb128 0x5
 2981 0eff 03       		.byte	0x3
 2982 0f00 00000000 		.4byte	__func__.5722
 2983 0f04 29       		.uleb128 0x29
 2984 0f05 08000000 		.4byte	.LVL3
 2985 0f09 A4100000 		.4byte	0x10a4
 2986 0f0d 22       		.uleb128 0x22
 2987 0f0e 3E000000 		.4byte	.LVL9
 2988 0f12 8C100000 		.4byte	0x108c
 2989 0f16 240F0000 		.4byte	0xf24
 2990 0f1a 23       		.uleb128 0x23
 2991 0f1b 01       		.uleb128 0x1
 2992 0f1c 50       		.byte	0x50
 2993 0f1d 05       		.uleb128 0x5
 2994 0f1e 03       		.byte	0x3
 2995 0f1f 00000000 		.4byte	.LANCHOR1
 2996 0f23 00       		.byte	0
 2997 0f24 24       		.uleb128 0x24
 2998 0f25 46000000 		.4byte	.LVL10
 2999 0f29 8C100000 		.4byte	0x108c
 3000 0f2d 23       		.uleb128 0x23
 3001 0f2e 01       		.uleb128 0x1
 3002 0f2f 50       		.byte	0x50
 3003 0f30 05       		.uleb128 0x5
 3004 0f31 03       		.byte	0x3
 3005 0f32 00000000 		.4byte	.LANCHOR1
ARM GAS  /var/folders/t8/16hdwfmd2fg_d3q6dgx6bpmw0000gn/T//ccqUiayV.s 			page 54


 3006 0f36 00       		.byte	0
 3007 0f37 00       		.byte	0
 3008 0f38 15       		.uleb128 0x15
 3009 0f39 D7050000 		.4byte	0x5d7
 3010 0f3d 480F0000 		.4byte	0xf48
 3011 0f41 19       		.uleb128 0x19
 3012 0f42 2C000000 		.4byte	0x2c
 3013 0f46 0B       		.byte	0xb
 3014 0f47 00       		.byte	0
 3015 0f48 13       		.uleb128 0x13
 3016 0f49 380F0000 		.4byte	0xf38
 3017 0f4d 36       		.uleb128 0x36
 3018 0f4e 59020000 		.4byte	.LASF127
 3019 0f52 01       		.byte	0x1
 3020 0f53 41       		.byte	0x41
 3021 0f54 00000000 		.4byte	.LFB138
 3022 0f58 14000000 		.4byte	.LFE138-.LFB138
 3023 0f5c 01       		.uleb128 0x1
 3024 0f5d 9C       		.byte	0x9c
 3025 0f5e 7C0F0000 		.4byte	0xf7c
 3026 0f62 37       		.uleb128 0x37
 3027 0f63 22100000 		.4byte	0x1022
 3028 0f67 02000000 		.4byte	.LBB88
 3029 0f6b 00000000 		.4byte	.Ldebug_ranges0+0
 3030 0f6f 01       		.byte	0x1
 3031 0f70 43       		.byte	0x43
 3032 0f71 26       		.uleb128 0x26
 3033 0f72 2F100000 		.4byte	0x102f
 3034 0f76 9D040000 		.4byte	.LLST0
 3035 0f7a 00       		.byte	0
 3036 0f7b 00       		.byte	0
 3037 0f7c 38       		.uleb128 0x38
 3038 0f7d 19020000 		.4byte	.LASF133
 3039 0f81 05       		.byte	0x5
 3040 0f82 86       		.byte	0x86
 3041 0f83 03       		.byte	0x3
 3042 0f84 930F0000 		.4byte	0xf93
 3043 0f88 39       		.uleb128 0x39
 3044 0f89 737000   		.ascii	"sp\000"
 3045 0f8c 05       		.byte	0x5
 3046 0f8d 86       		.byte	0x86
 3047 0f8e 930F0000 		.4byte	0xf93
 3048 0f92 00       		.byte	0
 3049 0f93 0B       		.uleb128 0xb
 3050 0f94 04       		.byte	0x4
 3051 0f95 16070000 		.4byte	0x716
 3052 0f99 3A       		.uleb128 0x3a
 3053 0f9a 00030000 		.4byte	.LASF130
 3054 0f9e 06       		.byte	0x6
 3055 0f9f 7501     		.2byte	0x175
 3056 0fa1 CF090000 		.4byte	0x9cf
 3057 0fa5 03       		.byte	0x3
 3058 0fa6 B70F0000 		.4byte	0xfb7
 3059 0faa 3B       		.uleb128 0x3b
 3060 0fab 76747000 		.ascii	"vtp\000"
 3061 0faf 06       		.byte	0x6
 3062 0fb0 7501     		.2byte	0x175
ARM GAS  /var/folders/t8/16hdwfmd2fg_d3q6dgx6bpmw0000gn/T//ccqUiayV.s 			page 55


 3063 0fb2 E2050000 		.4byte	0x5e2
 3064 0fb6 00       		.byte	0
 3065 0fb7 3C       		.uleb128 0x3c
 3066 0fb8 71030000 		.4byte	.LASF128
 3067 0fbc 04       		.byte	0x4
 3068 0fbd B201     		.2byte	0x1b2
 3069 0fbf 03       		.byte	0x3
 3070 0fc0 3C       		.uleb128 0x3c
 3071 0fc1 08020000 		.4byte	.LASF129
 3072 0fc5 04       		.byte	0x4
 3073 0fc6 9E01     		.2byte	0x19e
 3074 0fc8 03       		.byte	0x3
 3075 0fc9 3D       		.uleb128 0x3d
 3076 0fca 86050000 		.4byte	.LASF155
 3077 0fce 02       		.byte	0x2
 3078 0fcf 8F02     		.2byte	0x28f
 3079 0fd1 CF090000 		.4byte	0x9cf
 3080 0fd5 03       		.byte	0x3
 3081 0fd6 3A       		.uleb128 0x3a
 3082 0fd7 17060000 		.4byte	.LASF131
 3083 0fdb 02       		.byte	0x2
 3084 0fdc 7B02     		.2byte	0x27b
 3085 0fde 41020000 		.4byte	0x241
 3086 0fe2 03       		.byte	0x3
 3087 0fe3 F30F0000 		.4byte	0xff3
 3088 0fe7 3B       		.uleb128 0x3b
 3089 0fe8 747000   		.ascii	"tp\000"
 3090 0feb 02       		.byte	0x2
 3091 0fec 7B02     		.2byte	0x27b
 3092 0fee 41020000 		.4byte	0x241
 3093 0ff2 00       		.byte	0
 3094 0ff3 3A       		.uleb128 0x3a
 3095 0ff4 CF040000 		.4byte	.LASF132
 3096 0ff8 02       		.byte	0x2
 3097 0ff9 6902     		.2byte	0x269
 3098 0ffb 41020000 		.4byte	0x241
 3099 0fff 03       		.byte	0x3
 3100 1000 1C100000 		.4byte	0x101c
 3101 1004 3B       		.uleb128 0x3b
 3102 1005 74717000 		.ascii	"tqp\000"
 3103 1009 02       		.byte	0x2
 3104 100a 6902     		.2byte	0x269
 3105 100c 1C100000 		.4byte	0x101c
 3106 1010 3E       		.uleb128 0x3e
 3107 1011 747000   		.ascii	"tp\000"
 3108 1014 02       		.byte	0x2
 3109 1015 6A02     		.2byte	0x26a
 3110 1017 41020000 		.4byte	0x241
 3111 101b 00       		.byte	0
 3112 101c 0B       		.uleb128 0xb
 3113 101d 04       		.byte	0x4
 3114 101e 6B020000 		.4byte	0x26b
 3115 1022 3F       		.uleb128 0x3f
 3116 1023 C2060000 		.4byte	.LASF134
 3117 1027 02       		.byte	0x2
 3118 1028 2402     		.2byte	0x224
 3119 102a 03       		.byte	0x3
ARM GAS  /var/folders/t8/16hdwfmd2fg_d3q6dgx6bpmw0000gn/T//ccqUiayV.s 			page 56


 3120 102b 3C100000 		.4byte	0x103c
 3121 102f 3B       		.uleb128 0x3b
 3122 1030 74717000 		.ascii	"tqp\000"
 3123 1034 02       		.byte	0x2
 3124 1035 2402     		.2byte	0x224
 3125 1037 1C100000 		.4byte	0x101c
 3126 103b 00       		.byte	0
 3127 103c 3C       		.uleb128 0x3c
 3128 103d CD060000 		.4byte	.LASF135
 3129 1041 0C       		.byte	0xc
 3130 1042 9001     		.2byte	0x190
 3131 1044 03       		.byte	0x3
 3132 1045 3C       		.uleb128 0x3c
 3133 1046 9A010000 		.4byte	.LASF136
 3134 104a 0C       		.byte	0xc
 3135 104b 8601     		.2byte	0x186
 3136 104d 03       		.byte	0x3
 3137 104e 3C       		.uleb128 0x3c
 3138 104f 04080000 		.4byte	.LASF137
 3139 1053 0C       		.byte	0xc
 3140 1054 7C01     		.2byte	0x17c
 3141 1056 03       		.byte	0x3
 3142 1057 3C       		.uleb128 0x3c
 3143 1058 7C010000 		.4byte	.LASF138
 3144 105c 0C       		.byte	0xc
 3145 105d 7301     		.2byte	0x173
 3146 105f 03       		.byte	0x3
 3147 1060 40       		.uleb128 0x40
 3148 1061 25080000 		.4byte	.LASF139
 3149 1065 03       		.byte	0x3
 3150 1066 94       		.byte	0x94
 3151 1067 C3000000 		.4byte	0xc3
 3152 106b 03       		.byte	0x3
 3153 106c 7C100000 		.4byte	0x107c
 3154 1070 41       		.uleb128 0x41
 3155 1071 B7020000 		.4byte	.LASF140
 3156 1075 03       		.byte	0x3
 3157 1076 96       		.byte	0x96
 3158 1077 C3000000 		.4byte	0xc3
 3159 107b 00       		.byte	0
 3160 107c 42       		.uleb128 0x42
 3161 107d 9F030000 		.4byte	.LASF141
 3162 1081 03       		.byte	0x3
 3163 1082 45       		.byte	0x45
 3164 1083 03       		.byte	0x3
 3165 1084 42       		.uleb128 0x42
 3166 1085 E7050000 		.4byte	.LASF142
 3167 1089 03       		.byte	0x3
 3168 108a 3A       		.byte	0x3a
 3169 108b 03       		.byte	0x3
 3170 108c 43       		.uleb128 0x43
 3171 108d 2C070000 		.4byte	.LASF143
 3172 1091 2C070000 		.4byte	.LASF143
 3173 1095 04       		.byte	0x4
 3174 1096 3201     		.2byte	0x132
 3175 1098 43       		.uleb128 0x43
 3176 1099 C2040000 		.4byte	.LASF144
ARM GAS  /var/folders/t8/16hdwfmd2fg_d3q6dgx6bpmw0000gn/T//ccqUiayV.s 			page 57


 3177 109d C2040000 		.4byte	.LASF144
 3178 10a1 0C       		.byte	0xc
 3179 10a2 3701     		.2byte	0x137
 3180 10a4 44       		.uleb128 0x44
 3181 10a5 EE040000 		.4byte	.LASF145
 3182 10a9 EE040000 		.4byte	.LASF145
 3183 10ad 0F       		.byte	0xf
 3184 10ae 9C       		.byte	0x9c
 3185 10af 44       		.uleb128 0x44
 3186 10b0 09050000 		.4byte	.LASF146
 3187 10b4 09050000 		.4byte	.LASF146
 3188 10b8 0F       		.byte	0xf
 3189 10b9 9D       		.byte	0x9d
 3190 10ba 44       		.uleb128 0x44
 3191 10bb 69060000 		.4byte	.LASF147
 3192 10bf 69060000 		.4byte	.LASF147
 3193 10c3 06       		.byte	0x6
 3194 10c4 BC       		.byte	0xbc
 3195 10c5 44       		.uleb128 0x44
 3196 10c6 A5040000 		.4byte	.LASF148
 3197 10ca A5040000 		.4byte	.LASF148
 3198 10ce 06       		.byte	0x6
 3199 10cf BE       		.byte	0xbe
 3200 10d0 44       		.uleb128 0x44
 3201 10d1 C7010000 		.4byte	.LASF149
 3202 10d5 C7010000 		.4byte	.LASF149
 3203 10d9 0F       		.byte	0xf
 3204 10da 98       		.byte	0x98
 3205 10db 44       		.uleb128 0x44
 3206 10dc 36070000 		.4byte	.LASF150
 3207 10e0 36070000 		.4byte	.LASF150
 3208 10e4 0F       		.byte	0xf
 3209 10e5 99       		.byte	0x99
 3210 10e6 00       		.byte	0
 3211              		.section	.debug_abbrev,"",%progbits
 3212              	.Ldebug_abbrev0:
 3213 0000 01       		.uleb128 0x1
 3214 0001 11       		.uleb128 0x11
 3215 0002 01       		.byte	0x1
 3216 0003 25       		.uleb128 0x25
 3217 0004 0E       		.uleb128 0xe
 3218 0005 13       		.uleb128 0x13
 3219 0006 0B       		.uleb128 0xb
 3220 0007 03       		.uleb128 0x3
 3221 0008 0E       		.uleb128 0xe
 3222 0009 1B       		.uleb128 0x1b
 3223 000a 0E       		.uleb128 0xe
 3224 000b 55       		.uleb128 0x55
 3225 000c 17       		.uleb128 0x17
 3226 000d 11       		.uleb128 0x11
 3227 000e 01       		.uleb128 0x1
 3228 000f 10       		.uleb128 0x10
 3229 0010 17       		.uleb128 0x17
 3230 0011 00       		.byte	0
 3231 0012 00       		.byte	0
 3232 0013 02       		.uleb128 0x2
 3233 0014 24       		.uleb128 0x24
ARM GAS  /var/folders/t8/16hdwfmd2fg_d3q6dgx6bpmw0000gn/T//ccqUiayV.s 			page 58


 3234 0015 00       		.byte	0
 3235 0016 0B       		.uleb128 0xb
 3236 0017 0B       		.uleb128 0xb
 3237 0018 3E       		.uleb128 0x3e
 3238 0019 0B       		.uleb128 0xb
 3239 001a 03       		.uleb128 0x3
 3240 001b 08       		.uleb128 0x8
 3241 001c 00       		.byte	0
 3242 001d 00       		.byte	0
 3243 001e 03       		.uleb128 0x3
 3244 001f 24       		.uleb128 0x24
 3245 0020 00       		.byte	0
 3246 0021 0B       		.uleb128 0xb
 3247 0022 0B       		.uleb128 0xb
 3248 0023 3E       		.uleb128 0x3e
 3249 0024 0B       		.uleb128 0xb
 3250 0025 03       		.uleb128 0x3
 3251 0026 0E       		.uleb128 0xe
 3252 0027 00       		.byte	0
 3253 0028 00       		.byte	0
 3254 0029 04       		.uleb128 0x4
 3255 002a 16       		.uleb128 0x16
 3256 002b 00       		.byte	0
 3257 002c 03       		.uleb128 0x3
 3258 002d 0E       		.uleb128 0xe
 3259 002e 3A       		.uleb128 0x3a
 3260 002f 0B       		.uleb128 0xb
 3261 0030 3B       		.uleb128 0x3b
 3262 0031 0B       		.uleb128 0xb
 3263 0032 49       		.uleb128 0x49
 3264 0033 13       		.uleb128 0x13
 3265 0034 00       		.byte	0
 3266 0035 00       		.byte	0
 3267 0036 05       		.uleb128 0x5
 3268 0037 35       		.uleb128 0x35
 3269 0038 00       		.byte	0
 3270 0039 49       		.uleb128 0x49
 3271 003a 13       		.uleb128 0x13
 3272 003b 00       		.byte	0
 3273 003c 00       		.byte	0
 3274 003d 06       		.uleb128 0x6
 3275 003e 13       		.uleb128 0x13
 3276 003f 01       		.byte	0x1
 3277 0040 03       		.uleb128 0x3
 3278 0041 0E       		.uleb128 0xe
 3279 0042 0B       		.uleb128 0xb
 3280 0043 0B       		.uleb128 0xb
 3281 0044 3A       		.uleb128 0x3a
 3282 0045 0B       		.uleb128 0xb
 3283 0046 3B       		.uleb128 0x3b
 3284 0047 0B       		.uleb128 0xb
 3285 0048 01       		.uleb128 0x1
 3286 0049 13       		.uleb128 0x13
 3287 004a 00       		.byte	0
 3288 004b 00       		.byte	0
 3289 004c 07       		.uleb128 0x7
 3290 004d 0D       		.uleb128 0xd
ARM GAS  /var/folders/t8/16hdwfmd2fg_d3q6dgx6bpmw0000gn/T//ccqUiayV.s 			page 59


 3291 004e 00       		.byte	0
 3292 004f 03       		.uleb128 0x3
 3293 0050 0E       		.uleb128 0xe
 3294 0051 3A       		.uleb128 0x3a
 3295 0052 0B       		.uleb128 0xb
 3296 0053 3B       		.uleb128 0x3b
 3297 0054 0B       		.uleb128 0xb
 3298 0055 49       		.uleb128 0x49
 3299 0056 13       		.uleb128 0x13
 3300 0057 38       		.uleb128 0x38
 3301 0058 0B       		.uleb128 0xb
 3302 0059 00       		.byte	0
 3303 005a 00       		.byte	0
 3304 005b 08       		.uleb128 0x8
 3305 005c 0D       		.uleb128 0xd
 3306 005d 00       		.byte	0
 3307 005e 03       		.uleb128 0x3
 3308 005f 08       		.uleb128 0x8
 3309 0060 3A       		.uleb128 0x3a
 3310 0061 0B       		.uleb128 0xb
 3311 0062 3B       		.uleb128 0x3b
 3312 0063 0B       		.uleb128 0xb
 3313 0064 49       		.uleb128 0x49
 3314 0065 13       		.uleb128 0x13
 3315 0066 38       		.uleb128 0x38
 3316 0067 0B       		.uleb128 0xb
 3317 0068 00       		.byte	0
 3318 0069 00       		.byte	0
 3319 006a 09       		.uleb128 0x9
 3320 006b 0D       		.uleb128 0xd
 3321 006c 00       		.byte	0
 3322 006d 03       		.uleb128 0x3
 3323 006e 08       		.uleb128 0x8
 3324 006f 3A       		.uleb128 0x3a
 3325 0070 0B       		.uleb128 0xb
 3326 0071 3B       		.uleb128 0x3b
 3327 0072 05       		.uleb128 0x5
 3328 0073 49       		.uleb128 0x49
 3329 0074 13       		.uleb128 0x13
 3330 0075 38       		.uleb128 0x38
 3331 0076 0B       		.uleb128 0xb
 3332 0077 00       		.byte	0
 3333 0078 00       		.byte	0
 3334 0079 0A       		.uleb128 0xa
 3335 007a 0D       		.uleb128 0xd
 3336 007b 00       		.byte	0
 3337 007c 03       		.uleb128 0x3
 3338 007d 0E       		.uleb128 0xe
 3339 007e 3A       		.uleb128 0x3a
 3340 007f 0B       		.uleb128 0xb
 3341 0080 3B       		.uleb128 0x3b
 3342 0081 05       		.uleb128 0x5
 3343 0082 49       		.uleb128 0x49
 3344 0083 13       		.uleb128 0x13
 3345 0084 38       		.uleb128 0x38
 3346 0085 0B       		.uleb128 0xb
 3347 0086 00       		.byte	0
ARM GAS  /var/folders/t8/16hdwfmd2fg_d3q6dgx6bpmw0000gn/T//ccqUiayV.s 			page 60


 3348 0087 00       		.byte	0
 3349 0088 0B       		.uleb128 0xb
 3350 0089 0F       		.uleb128 0xf
 3351 008a 00       		.byte	0
 3352 008b 0B       		.uleb128 0xb
 3353 008c 0B       		.uleb128 0xb
 3354 008d 49       		.uleb128 0x49
 3355 008e 13       		.uleb128 0x13
 3356 008f 00       		.byte	0
 3357 0090 00       		.byte	0
 3358 0091 0C       		.uleb128 0xc
 3359 0092 13       		.uleb128 0x13
 3360 0093 01       		.byte	0x1
 3361 0094 03       		.uleb128 0x3
 3362 0095 0E       		.uleb128 0xe
 3363 0096 0B       		.uleb128 0xb
 3364 0097 0B       		.uleb128 0xb
 3365 0098 3A       		.uleb128 0x3a
 3366 0099 0B       		.uleb128 0xb
 3367 009a 3B       		.uleb128 0x3b
 3368 009b 05       		.uleb128 0x5
 3369 009c 01       		.uleb128 0x1
 3370 009d 13       		.uleb128 0x13
 3371 009e 00       		.byte	0
 3372 009f 00       		.byte	0
 3373 00a0 0D       		.uleb128 0xd
 3374 00a1 15       		.uleb128 0x15
 3375 00a2 01       		.byte	0x1
 3376 00a3 27       		.uleb128 0x27
 3377 00a4 19       		.uleb128 0x19
 3378 00a5 01       		.uleb128 0x1
 3379 00a6 13       		.uleb128 0x13
 3380 00a7 00       		.byte	0
 3381 00a8 00       		.byte	0
 3382 00a9 0E       		.uleb128 0xe
 3383 00aa 05       		.uleb128 0x5
 3384 00ab 00       		.byte	0
 3385 00ac 49       		.uleb128 0x49
 3386 00ad 13       		.uleb128 0x13
 3387 00ae 00       		.byte	0
 3388 00af 00       		.byte	0
 3389 00b0 0F       		.uleb128 0xf
 3390 00b1 0F       		.uleb128 0xf
 3391 00b2 00       		.byte	0
 3392 00b3 0B       		.uleb128 0xb
 3393 00b4 0B       		.uleb128 0xb
 3394 00b5 00       		.byte	0
 3395 00b6 00       		.byte	0
 3396 00b7 10       		.uleb128 0x10
 3397 00b8 17       		.uleb128 0x17
 3398 00b9 01       		.byte	0x1
 3399 00ba 0B       		.uleb128 0xb
 3400 00bb 0B       		.uleb128 0xb
 3401 00bc 3A       		.uleb128 0x3a
 3402 00bd 0B       		.uleb128 0xb
 3403 00be 3B       		.uleb128 0x3b
 3404 00bf 0B       		.uleb128 0xb
ARM GAS  /var/folders/t8/16hdwfmd2fg_d3q6dgx6bpmw0000gn/T//ccqUiayV.s 			page 61


 3405 00c0 01       		.uleb128 0x1
 3406 00c1 13       		.uleb128 0x13
 3407 00c2 00       		.byte	0
 3408 00c3 00       		.byte	0
 3409 00c4 11       		.uleb128 0x11
 3410 00c5 0D       		.uleb128 0xd
 3411 00c6 00       		.byte	0
 3412 00c7 03       		.uleb128 0x3
 3413 00c8 0E       		.uleb128 0xe
 3414 00c9 3A       		.uleb128 0x3a
 3415 00ca 0B       		.uleb128 0xb
 3416 00cb 3B       		.uleb128 0x3b
 3417 00cc 0B       		.uleb128 0xb
 3418 00cd 49       		.uleb128 0x49
 3419 00ce 13       		.uleb128 0x13
 3420 00cf 00       		.byte	0
 3421 00d0 00       		.byte	0
 3422 00d1 12       		.uleb128 0x12
 3423 00d2 0D       		.uleb128 0xd
 3424 00d3 00       		.byte	0
 3425 00d4 03       		.uleb128 0x3
 3426 00d5 0E       		.uleb128 0xe
 3427 00d6 3A       		.uleb128 0x3a
 3428 00d7 0B       		.uleb128 0xb
 3429 00d8 3B       		.uleb128 0x3b
 3430 00d9 05       		.uleb128 0x5
 3431 00da 49       		.uleb128 0x49
 3432 00db 13       		.uleb128 0x13
 3433 00dc 00       		.byte	0
 3434 00dd 00       		.byte	0
 3435 00de 13       		.uleb128 0x13
 3436 00df 26       		.uleb128 0x26
 3437 00e0 00       		.byte	0
 3438 00e1 49       		.uleb128 0x49
 3439 00e2 13       		.uleb128 0x13
 3440 00e3 00       		.byte	0
 3441 00e4 00       		.byte	0
 3442 00e5 14       		.uleb128 0x14
 3443 00e6 34       		.uleb128 0x34
 3444 00e7 00       		.byte	0
 3445 00e8 03       		.uleb128 0x3
 3446 00e9 08       		.uleb128 0x8
 3447 00ea 3A       		.uleb128 0x3a
 3448 00eb 0B       		.uleb128 0xb
 3449 00ec 3B       		.uleb128 0x3b
 3450 00ed 05       		.uleb128 0x5
 3451 00ee 49       		.uleb128 0x49
 3452 00ef 13       		.uleb128 0x13
 3453 00f0 3F       		.uleb128 0x3f
 3454 00f1 19       		.uleb128 0x19
 3455 00f2 3C       		.uleb128 0x3c
 3456 00f3 19       		.uleb128 0x19
 3457 00f4 00       		.byte	0
 3458 00f5 00       		.byte	0
 3459 00f6 15       		.uleb128 0x15
 3460 00f7 01       		.uleb128 0x1
 3461 00f8 01       		.byte	0x1
ARM GAS  /var/folders/t8/16hdwfmd2fg_d3q6dgx6bpmw0000gn/T//ccqUiayV.s 			page 62


 3462 00f9 49       		.uleb128 0x49
 3463 00fa 13       		.uleb128 0x13
 3464 00fb 01       		.uleb128 0x1
 3465 00fc 13       		.uleb128 0x13
 3466 00fd 00       		.byte	0
 3467 00fe 00       		.byte	0
 3468 00ff 16       		.uleb128 0x16
 3469 0100 21       		.uleb128 0x21
 3470 0101 00       		.byte	0
 3471 0102 00       		.byte	0
 3472 0103 00       		.byte	0
 3473 0104 17       		.uleb128 0x17
 3474 0105 34       		.uleb128 0x34
 3475 0106 00       		.byte	0
 3476 0107 03       		.uleb128 0x3
 3477 0108 0E       		.uleb128 0xe
 3478 0109 3A       		.uleb128 0x3a
 3479 010a 0B       		.uleb128 0xb
 3480 010b 3B       		.uleb128 0x3b
 3481 010c 05       		.uleb128 0x5
 3482 010d 49       		.uleb128 0x49
 3483 010e 13       		.uleb128 0x13
 3484 010f 3F       		.uleb128 0x3f
 3485 0110 19       		.uleb128 0x19
 3486 0111 3C       		.uleb128 0x3c
 3487 0112 19       		.uleb128 0x19
 3488 0113 00       		.byte	0
 3489 0114 00       		.byte	0
 3490 0115 18       		.uleb128 0x18
 3491 0116 13       		.uleb128 0x13
 3492 0117 01       		.byte	0x1
 3493 0118 0B       		.uleb128 0xb
 3494 0119 0B       		.uleb128 0xb
 3495 011a 3A       		.uleb128 0x3a
 3496 011b 0B       		.uleb128 0xb
 3497 011c 3B       		.uleb128 0x3b
 3498 011d 0B       		.uleb128 0xb
 3499 011e 01       		.uleb128 0x1
 3500 011f 13       		.uleb128 0x13
 3501 0120 00       		.byte	0
 3502 0121 00       		.byte	0
 3503 0122 19       		.uleb128 0x19
 3504 0123 21       		.uleb128 0x21
 3505 0124 00       		.byte	0
 3506 0125 49       		.uleb128 0x49
 3507 0126 13       		.uleb128 0x13
 3508 0127 2F       		.uleb128 0x2f
 3509 0128 0B       		.uleb128 0xb
 3510 0129 00       		.byte	0
 3511 012a 00       		.byte	0
 3512 012b 1A       		.uleb128 0x1a
 3513 012c 34       		.uleb128 0x34
 3514 012d 00       		.byte	0
 3515 012e 03       		.uleb128 0x3
 3516 012f 0E       		.uleb128 0xe
 3517 0130 3A       		.uleb128 0x3a
 3518 0131 0B       		.uleb128 0xb
ARM GAS  /var/folders/t8/16hdwfmd2fg_d3q6dgx6bpmw0000gn/T//ccqUiayV.s 			page 63


 3519 0132 3B       		.uleb128 0x3b
 3520 0133 0B       		.uleb128 0xb
 3521 0134 49       		.uleb128 0x49
 3522 0135 13       		.uleb128 0x13
 3523 0136 3F       		.uleb128 0x3f
 3524 0137 19       		.uleb128 0x19
 3525 0138 3C       		.uleb128 0x3c
 3526 0139 19       		.uleb128 0x19
 3527 013a 00       		.byte	0
 3528 013b 00       		.byte	0
 3529 013c 1B       		.uleb128 0x1b
 3530 013d 34       		.uleb128 0x34
 3531 013e 00       		.byte	0
 3532 013f 47       		.uleb128 0x47
 3533 0140 13       		.uleb128 0x13
 3534 0141 3A       		.uleb128 0x3a
 3535 0142 0B       		.uleb128 0xb
 3536 0143 3B       		.uleb128 0x3b
 3537 0144 0B       		.uleb128 0xb
 3538 0145 02       		.uleb128 0x2
 3539 0146 18       		.uleb128 0x18
 3540 0147 00       		.byte	0
 3541 0148 00       		.byte	0
 3542 0149 1C       		.uleb128 0x1c
 3543 014a 2E       		.uleb128 0x2e
 3544 014b 01       		.byte	0x1
 3545 014c 3F       		.uleb128 0x3f
 3546 014d 19       		.uleb128 0x19
 3547 014e 03       		.uleb128 0x3
 3548 014f 0E       		.uleb128 0xe
 3549 0150 3A       		.uleb128 0x3a
 3550 0151 0B       		.uleb128 0xb
 3551 0152 3B       		.uleb128 0x3b
 3552 0153 05       		.uleb128 0x5
 3553 0154 27       		.uleb128 0x27
 3554 0155 19       		.uleb128 0x19
 3555 0156 11       		.uleb128 0x11
 3556 0157 01       		.uleb128 0x1
 3557 0158 12       		.uleb128 0x12
 3558 0159 06       		.uleb128 0x6
 3559 015a 40       		.uleb128 0x40
 3560 015b 18       		.uleb128 0x18
 3561 015c 9742     		.uleb128 0x2117
 3562 015e 19       		.uleb128 0x19
 3563 015f 01       		.uleb128 0x1
 3564 0160 13       		.uleb128 0x13
 3565 0161 00       		.byte	0
 3566 0162 00       		.byte	0
 3567 0163 1D       		.uleb128 0x1d
 3568 0164 34       		.uleb128 0x34
 3569 0165 00       		.byte	0
 3570 0166 03       		.uleb128 0x3
 3571 0167 08       		.uleb128 0x8
 3572 0168 3A       		.uleb128 0x3a
 3573 0169 0B       		.uleb128 0xb
 3574 016a 3B       		.uleb128 0x3b
 3575 016b 05       		.uleb128 0x5
ARM GAS  /var/folders/t8/16hdwfmd2fg_d3q6dgx6bpmw0000gn/T//ccqUiayV.s 			page 64


 3576 016c 49       		.uleb128 0x49
 3577 016d 13       		.uleb128 0x13
 3578 016e 02       		.uleb128 0x2
 3579 016f 17       		.uleb128 0x17
 3580 0170 00       		.byte	0
 3581 0171 00       		.byte	0
 3582 0172 1E       		.uleb128 0x1e
 3583 0173 0B       		.uleb128 0xb
 3584 0174 01       		.byte	0x1
 3585 0175 11       		.uleb128 0x11
 3586 0176 01       		.uleb128 0x1
 3587 0177 12       		.uleb128 0x12
 3588 0178 06       		.uleb128 0x6
 3589 0179 01       		.uleb128 0x1
 3590 017a 13       		.uleb128 0x13
 3591 017b 00       		.byte	0
 3592 017c 00       		.byte	0
 3593 017d 1F       		.uleb128 0x1f
 3594 017e 1D       		.uleb128 0x1d
 3595 017f 01       		.byte	0x1
 3596 0180 31       		.uleb128 0x31
 3597 0181 13       		.uleb128 0x13
 3598 0182 11       		.uleb128 0x11
 3599 0183 01       		.uleb128 0x1
 3600 0184 12       		.uleb128 0x12
 3601 0185 06       		.uleb128 0x6
 3602 0186 58       		.uleb128 0x58
 3603 0187 0B       		.uleb128 0xb
 3604 0188 59       		.uleb128 0x59
 3605 0189 05       		.uleb128 0x5
 3606 018a 01       		.uleb128 0x1
 3607 018b 13       		.uleb128 0x13
 3608 018c 00       		.byte	0
 3609 018d 00       		.byte	0
 3610 018e 20       		.uleb128 0x20
 3611 018f 0B       		.uleb128 0xb
 3612 0190 01       		.byte	0x1
 3613 0191 11       		.uleb128 0x11
 3614 0192 01       		.uleb128 0x1
 3615 0193 12       		.uleb128 0x12
 3616 0194 06       		.uleb128 0x6
 3617 0195 00       		.byte	0
 3618 0196 00       		.byte	0
 3619 0197 21       		.uleb128 0x21
 3620 0198 34       		.uleb128 0x34
 3621 0199 00       		.byte	0
 3622 019a 31       		.uleb128 0x31
 3623 019b 13       		.uleb128 0x13
 3624 019c 00       		.byte	0
 3625 019d 00       		.byte	0
 3626 019e 22       		.uleb128 0x22
 3627 019f 898201   		.uleb128 0x4109
 3628 01a2 01       		.byte	0x1
 3629 01a3 11       		.uleb128 0x11
 3630 01a4 01       		.uleb128 0x1
 3631 01a5 31       		.uleb128 0x31
 3632 01a6 13       		.uleb128 0x13
ARM GAS  /var/folders/t8/16hdwfmd2fg_d3q6dgx6bpmw0000gn/T//ccqUiayV.s 			page 65


 3633 01a7 01       		.uleb128 0x1
 3634 01a8 13       		.uleb128 0x13
 3635 01a9 00       		.byte	0
 3636 01aa 00       		.byte	0
 3637 01ab 23       		.uleb128 0x23
 3638 01ac 8A8201   		.uleb128 0x410a
 3639 01af 00       		.byte	0
 3640 01b0 02       		.uleb128 0x2
 3641 01b1 18       		.uleb128 0x18
 3642 01b2 9142     		.uleb128 0x2111
 3643 01b4 18       		.uleb128 0x18
 3644 01b5 00       		.byte	0
 3645 01b6 00       		.byte	0
 3646 01b7 24       		.uleb128 0x24
 3647 01b8 898201   		.uleb128 0x4109
 3648 01bb 01       		.byte	0x1
 3649 01bc 11       		.uleb128 0x11
 3650 01bd 01       		.uleb128 0x1
 3651 01be 31       		.uleb128 0x31
 3652 01bf 13       		.uleb128 0x13
 3653 01c0 00       		.byte	0
 3654 01c1 00       		.byte	0
 3655 01c2 25       		.uleb128 0x25
 3656 01c3 1D       		.uleb128 0x1d
 3657 01c4 01       		.byte	0x1
 3658 01c5 31       		.uleb128 0x31
 3659 01c6 13       		.uleb128 0x13
 3660 01c7 52       		.uleb128 0x52
 3661 01c8 01       		.uleb128 0x1
 3662 01c9 55       		.uleb128 0x55
 3663 01ca 17       		.uleb128 0x17
 3664 01cb 58       		.uleb128 0x58
 3665 01cc 0B       		.uleb128 0xb
 3666 01cd 59       		.uleb128 0x59
 3667 01ce 05       		.uleb128 0x5
 3668 01cf 01       		.uleb128 0x1
 3669 01d0 13       		.uleb128 0x13
 3670 01d1 00       		.byte	0
 3671 01d2 00       		.byte	0
 3672 01d3 26       		.uleb128 0x26
 3673 01d4 05       		.uleb128 0x5
 3674 01d5 00       		.byte	0
 3675 01d6 31       		.uleb128 0x31
 3676 01d7 13       		.uleb128 0x13
 3677 01d8 02       		.uleb128 0x2
 3678 01d9 17       		.uleb128 0x17
 3679 01da 00       		.byte	0
 3680 01db 00       		.byte	0
 3681 01dc 27       		.uleb128 0x27
 3682 01dd 0B       		.uleb128 0xb
 3683 01de 01       		.byte	0x1
 3684 01df 55       		.uleb128 0x55
 3685 01e0 17       		.uleb128 0x17
 3686 01e1 00       		.byte	0
 3687 01e2 00       		.byte	0
 3688 01e3 28       		.uleb128 0x28
 3689 01e4 34       		.uleb128 0x34
ARM GAS  /var/folders/t8/16hdwfmd2fg_d3q6dgx6bpmw0000gn/T//ccqUiayV.s 			page 66


 3690 01e5 00       		.byte	0
 3691 01e6 31       		.uleb128 0x31
 3692 01e7 13       		.uleb128 0x13
 3693 01e8 02       		.uleb128 0x2
 3694 01e9 17       		.uleb128 0x17
 3695 01ea 00       		.byte	0
 3696 01eb 00       		.byte	0
 3697 01ec 29       		.uleb128 0x29
 3698 01ed 898201   		.uleb128 0x4109
 3699 01f0 00       		.byte	0
 3700 01f1 11       		.uleb128 0x11
 3701 01f2 01       		.uleb128 0x1
 3702 01f3 31       		.uleb128 0x31
 3703 01f4 13       		.uleb128 0x13
 3704 01f5 00       		.byte	0
 3705 01f6 00       		.byte	0
 3706 01f7 2A       		.uleb128 0x2a
 3707 01f8 2E       		.uleb128 0x2e
 3708 01f9 01       		.byte	0x1
 3709 01fa 3F       		.uleb128 0x3f
 3710 01fb 19       		.uleb128 0x19
 3711 01fc 03       		.uleb128 0x3
 3712 01fd 0E       		.uleb128 0xe
 3713 01fe 3A       		.uleb128 0x3a
 3714 01ff 0B       		.uleb128 0xb
 3715 0200 3B       		.uleb128 0x3b
 3716 0201 05       		.uleb128 0x5
 3717 0202 27       		.uleb128 0x27
 3718 0203 19       		.uleb128 0x19
 3719 0204 49       		.uleb128 0x49
 3720 0205 13       		.uleb128 0x13
 3721 0206 11       		.uleb128 0x11
 3722 0207 01       		.uleb128 0x1
 3723 0208 12       		.uleb128 0x12
 3724 0209 06       		.uleb128 0x6
 3725 020a 40       		.uleb128 0x40
 3726 020b 18       		.uleb128 0x18
 3727 020c 9742     		.uleb128 0x2117
 3728 020e 19       		.uleb128 0x19
 3729 020f 01       		.uleb128 0x1
 3730 0210 13       		.uleb128 0x13
 3731 0211 00       		.byte	0
 3732 0212 00       		.byte	0
 3733 0213 2B       		.uleb128 0x2b
 3734 0214 34       		.uleb128 0x34
 3735 0215 00       		.byte	0
 3736 0216 03       		.uleb128 0x3
 3737 0217 08       		.uleb128 0x8
 3738 0218 3A       		.uleb128 0x3a
 3739 0219 0B       		.uleb128 0xb
 3740 021a 3B       		.uleb128 0x3b
 3741 021b 05       		.uleb128 0x5
 3742 021c 49       		.uleb128 0x49
 3743 021d 13       		.uleb128 0x13
 3744 021e 02       		.uleb128 0x2
 3745 021f 18       		.uleb128 0x18
 3746 0220 00       		.byte	0
ARM GAS  /var/folders/t8/16hdwfmd2fg_d3q6dgx6bpmw0000gn/T//ccqUiayV.s 			page 67


 3747 0221 00       		.byte	0
 3748 0222 2C       		.uleb128 0x2c
 3749 0223 05       		.uleb128 0x5
 3750 0224 00       		.byte	0
 3751 0225 03       		.uleb128 0x3
 3752 0226 08       		.uleb128 0x8
 3753 0227 3A       		.uleb128 0x3a
 3754 0228 0B       		.uleb128 0xb
 3755 0229 3B       		.uleb128 0x3b
 3756 022a 05       		.uleb128 0x5
 3757 022b 49       		.uleb128 0x49
 3758 022c 13       		.uleb128 0x13
 3759 022d 02       		.uleb128 0x2
 3760 022e 17       		.uleb128 0x17
 3761 022f 00       		.byte	0
 3762 0230 00       		.byte	0
 3763 0231 2D       		.uleb128 0x2d
 3764 0232 34       		.uleb128 0x34
 3765 0233 00       		.byte	0
 3766 0234 03       		.uleb128 0x3
 3767 0235 0E       		.uleb128 0xe
 3768 0236 49       		.uleb128 0x49
 3769 0237 13       		.uleb128 0x13
 3770 0238 34       		.uleb128 0x34
 3771 0239 19       		.uleb128 0x19
 3772 023a 02       		.uleb128 0x2
 3773 023b 18       		.uleb128 0x18
 3774 023c 00       		.byte	0
 3775 023d 00       		.byte	0
 3776 023e 2E       		.uleb128 0x2e
 3777 023f 0B       		.uleb128 0xb
 3778 0240 01       		.byte	0x1
 3779 0241 55       		.uleb128 0x55
 3780 0242 17       		.uleb128 0x17
 3781 0243 01       		.uleb128 0x1
 3782 0244 13       		.uleb128 0x13
 3783 0245 00       		.byte	0
 3784 0246 00       		.byte	0
 3785 0247 2F       		.uleb128 0x2f
 3786 0248 05       		.uleb128 0x5
 3787 0249 00       		.byte	0
 3788 024a 03       		.uleb128 0x3
 3789 024b 0E       		.uleb128 0xe
 3790 024c 3A       		.uleb128 0x3a
 3791 024d 0B       		.uleb128 0xb
 3792 024e 3B       		.uleb128 0x3b
 3793 024f 05       		.uleb128 0x5
 3794 0250 49       		.uleb128 0x49
 3795 0251 13       		.uleb128 0x13
 3796 0252 02       		.uleb128 0x2
 3797 0253 17       		.uleb128 0x17
 3798 0254 00       		.byte	0
 3799 0255 00       		.byte	0
 3800 0256 30       		.uleb128 0x30
 3801 0257 2E       		.uleb128 0x2e
 3802 0258 01       		.byte	0x1
 3803 0259 03       		.uleb128 0x3
ARM GAS  /var/folders/t8/16hdwfmd2fg_d3q6dgx6bpmw0000gn/T//ccqUiayV.s 			page 68


 3804 025a 0E       		.uleb128 0xe
 3805 025b 3A       		.uleb128 0x3a
 3806 025c 0B       		.uleb128 0xb
 3807 025d 3B       		.uleb128 0x3b
 3808 025e 05       		.uleb128 0x5
 3809 025f 27       		.uleb128 0x27
 3810 0260 19       		.uleb128 0x19
 3811 0261 11       		.uleb128 0x11
 3812 0262 01       		.uleb128 0x1
 3813 0263 12       		.uleb128 0x12
 3814 0264 06       		.uleb128 0x6
 3815 0265 40       		.uleb128 0x40
 3816 0266 18       		.uleb128 0x18
 3817 0267 9742     		.uleb128 0x2117
 3818 0269 19       		.uleb128 0x19
 3819 026a 01       		.uleb128 0x1
 3820 026b 13       		.uleb128 0x13
 3821 026c 00       		.byte	0
 3822 026d 00       		.byte	0
 3823 026e 31       		.uleb128 0x31
 3824 026f 1D       		.uleb128 0x1d
 3825 0270 01       		.byte	0x1
 3826 0271 31       		.uleb128 0x31
 3827 0272 13       		.uleb128 0x13
 3828 0273 11       		.uleb128 0x11
 3829 0274 01       		.uleb128 0x1
 3830 0275 12       		.uleb128 0x12
 3831 0276 06       		.uleb128 0x6
 3832 0277 58       		.uleb128 0x58
 3833 0278 0B       		.uleb128 0xb
 3834 0279 59       		.uleb128 0x59
 3835 027a 05       		.uleb128 0x5
 3836 027b 00       		.byte	0
 3837 027c 00       		.byte	0
 3838 027d 32       		.uleb128 0x32
 3839 027e 1D       		.uleb128 0x1d
 3840 027f 00       		.byte	0
 3841 0280 31       		.uleb128 0x31
 3842 0281 13       		.uleb128 0x13
 3843 0282 11       		.uleb128 0x11
 3844 0283 01       		.uleb128 0x1
 3845 0284 12       		.uleb128 0x12
 3846 0285 06       		.uleb128 0x6
 3847 0286 58       		.uleb128 0x58
 3848 0287 0B       		.uleb128 0xb
 3849 0288 59       		.uleb128 0x59
 3850 0289 05       		.uleb128 0x5
 3851 028a 00       		.byte	0
 3852 028b 00       		.byte	0
 3853 028c 33       		.uleb128 0x33
 3854 028d 2E       		.uleb128 0x2e
 3855 028e 01       		.byte	0x1
 3856 028f 3F       		.uleb128 0x3f
 3857 0290 19       		.uleb128 0x19
 3858 0291 03       		.uleb128 0x3
 3859 0292 0E       		.uleb128 0xe
 3860 0293 3A       		.uleb128 0x3a
ARM GAS  /var/folders/t8/16hdwfmd2fg_d3q6dgx6bpmw0000gn/T//ccqUiayV.s 			page 69


 3861 0294 0B       		.uleb128 0xb
 3862 0295 3B       		.uleb128 0x3b
 3863 0296 0B       		.uleb128 0xb
 3864 0297 27       		.uleb128 0x27
 3865 0298 19       		.uleb128 0x19
 3866 0299 49       		.uleb128 0x49
 3867 029a 13       		.uleb128 0x13
 3868 029b 11       		.uleb128 0x11
 3869 029c 01       		.uleb128 0x1
 3870 029d 12       		.uleb128 0x12
 3871 029e 06       		.uleb128 0x6
 3872 029f 40       		.uleb128 0x40
 3873 02a0 18       		.uleb128 0x18
 3874 02a1 9742     		.uleb128 0x2117
 3875 02a3 19       		.uleb128 0x19
 3876 02a4 01       		.uleb128 0x1
 3877 02a5 13       		.uleb128 0x13
 3878 02a6 00       		.byte	0
 3879 02a7 00       		.byte	0
 3880 02a8 34       		.uleb128 0x34
 3881 02a9 05       		.uleb128 0x5
 3882 02aa 00       		.byte	0
 3883 02ab 03       		.uleb128 0x3
 3884 02ac 08       		.uleb128 0x8
 3885 02ad 3A       		.uleb128 0x3a
 3886 02ae 0B       		.uleb128 0xb
 3887 02af 3B       		.uleb128 0x3b
 3888 02b0 0B       		.uleb128 0xb
 3889 02b1 49       		.uleb128 0x49
 3890 02b2 13       		.uleb128 0x13
 3891 02b3 02       		.uleb128 0x2
 3892 02b4 17       		.uleb128 0x17
 3893 02b5 00       		.byte	0
 3894 02b6 00       		.byte	0
 3895 02b7 35       		.uleb128 0x35
 3896 02b8 34       		.uleb128 0x34
 3897 02b9 00       		.byte	0
 3898 02ba 03       		.uleb128 0x3
 3899 02bb 08       		.uleb128 0x8
 3900 02bc 3A       		.uleb128 0x3a
 3901 02bd 0B       		.uleb128 0xb
 3902 02be 3B       		.uleb128 0x3b
 3903 02bf 0B       		.uleb128 0xb
 3904 02c0 49       		.uleb128 0x49
 3905 02c1 13       		.uleb128 0x13
 3906 02c2 02       		.uleb128 0x2
 3907 02c3 17       		.uleb128 0x17
 3908 02c4 00       		.byte	0
 3909 02c5 00       		.byte	0
 3910 02c6 36       		.uleb128 0x36
 3911 02c7 2E       		.uleb128 0x2e
 3912 02c8 01       		.byte	0x1
 3913 02c9 3F       		.uleb128 0x3f
 3914 02ca 19       		.uleb128 0x19
 3915 02cb 03       		.uleb128 0x3
 3916 02cc 0E       		.uleb128 0xe
 3917 02cd 3A       		.uleb128 0x3a
ARM GAS  /var/folders/t8/16hdwfmd2fg_d3q6dgx6bpmw0000gn/T//ccqUiayV.s 			page 70


 3918 02ce 0B       		.uleb128 0xb
 3919 02cf 3B       		.uleb128 0x3b
 3920 02d0 0B       		.uleb128 0xb
 3921 02d1 27       		.uleb128 0x27
 3922 02d2 19       		.uleb128 0x19
 3923 02d3 11       		.uleb128 0x11
 3924 02d4 01       		.uleb128 0x1
 3925 02d5 12       		.uleb128 0x12
 3926 02d6 06       		.uleb128 0x6
 3927 02d7 40       		.uleb128 0x40
 3928 02d8 18       		.uleb128 0x18
 3929 02d9 9742     		.uleb128 0x2117
 3930 02db 19       		.uleb128 0x19
 3931 02dc 01       		.uleb128 0x1
 3932 02dd 13       		.uleb128 0x13
 3933 02de 00       		.byte	0
 3934 02df 00       		.byte	0
 3935 02e0 37       		.uleb128 0x37
 3936 02e1 1D       		.uleb128 0x1d
 3937 02e2 01       		.byte	0x1
 3938 02e3 31       		.uleb128 0x31
 3939 02e4 13       		.uleb128 0x13
 3940 02e5 52       		.uleb128 0x52
 3941 02e6 01       		.uleb128 0x1
 3942 02e7 55       		.uleb128 0x55
 3943 02e8 17       		.uleb128 0x17
 3944 02e9 58       		.uleb128 0x58
 3945 02ea 0B       		.uleb128 0xb
 3946 02eb 59       		.uleb128 0x59
 3947 02ec 0B       		.uleb128 0xb
 3948 02ed 00       		.byte	0
 3949 02ee 00       		.byte	0
 3950 02ef 38       		.uleb128 0x38
 3951 02f0 2E       		.uleb128 0x2e
 3952 02f1 01       		.byte	0x1
 3953 02f2 03       		.uleb128 0x3
 3954 02f3 0E       		.uleb128 0xe
 3955 02f4 3A       		.uleb128 0x3a
 3956 02f5 0B       		.uleb128 0xb
 3957 02f6 3B       		.uleb128 0x3b
 3958 02f7 0B       		.uleb128 0xb
 3959 02f8 27       		.uleb128 0x27
 3960 02f9 19       		.uleb128 0x19
 3961 02fa 20       		.uleb128 0x20
 3962 02fb 0B       		.uleb128 0xb
 3963 02fc 01       		.uleb128 0x1
 3964 02fd 13       		.uleb128 0x13
 3965 02fe 00       		.byte	0
 3966 02ff 00       		.byte	0
 3967 0300 39       		.uleb128 0x39
 3968 0301 05       		.uleb128 0x5
 3969 0302 00       		.byte	0
 3970 0303 03       		.uleb128 0x3
 3971 0304 08       		.uleb128 0x8
 3972 0305 3A       		.uleb128 0x3a
 3973 0306 0B       		.uleb128 0xb
 3974 0307 3B       		.uleb128 0x3b
ARM GAS  /var/folders/t8/16hdwfmd2fg_d3q6dgx6bpmw0000gn/T//ccqUiayV.s 			page 71


 3975 0308 0B       		.uleb128 0xb
 3976 0309 49       		.uleb128 0x49
 3977 030a 13       		.uleb128 0x13
 3978 030b 00       		.byte	0
 3979 030c 00       		.byte	0
 3980 030d 3A       		.uleb128 0x3a
 3981 030e 2E       		.uleb128 0x2e
 3982 030f 01       		.byte	0x1
 3983 0310 03       		.uleb128 0x3
 3984 0311 0E       		.uleb128 0xe
 3985 0312 3A       		.uleb128 0x3a
 3986 0313 0B       		.uleb128 0xb
 3987 0314 3B       		.uleb128 0x3b
 3988 0315 05       		.uleb128 0x5
 3989 0316 27       		.uleb128 0x27
 3990 0317 19       		.uleb128 0x19
 3991 0318 49       		.uleb128 0x49
 3992 0319 13       		.uleb128 0x13
 3993 031a 20       		.uleb128 0x20
 3994 031b 0B       		.uleb128 0xb
 3995 031c 01       		.uleb128 0x1
 3996 031d 13       		.uleb128 0x13
 3997 031e 00       		.byte	0
 3998 031f 00       		.byte	0
 3999 0320 3B       		.uleb128 0x3b
 4000 0321 05       		.uleb128 0x5
 4001 0322 00       		.byte	0
 4002 0323 03       		.uleb128 0x3
 4003 0324 08       		.uleb128 0x8
 4004 0325 3A       		.uleb128 0x3a
 4005 0326 0B       		.uleb128 0xb
 4006 0327 3B       		.uleb128 0x3b
 4007 0328 05       		.uleb128 0x5
 4008 0329 49       		.uleb128 0x49
 4009 032a 13       		.uleb128 0x13
 4010 032b 00       		.byte	0
 4011 032c 00       		.byte	0
 4012 032d 3C       		.uleb128 0x3c
 4013 032e 2E       		.uleb128 0x2e
 4014 032f 00       		.byte	0
 4015 0330 03       		.uleb128 0x3
 4016 0331 0E       		.uleb128 0xe
 4017 0332 3A       		.uleb128 0x3a
 4018 0333 0B       		.uleb128 0xb
 4019 0334 3B       		.uleb128 0x3b
 4020 0335 05       		.uleb128 0x5
 4021 0336 27       		.uleb128 0x27
 4022 0337 19       		.uleb128 0x19
 4023 0338 20       		.uleb128 0x20
 4024 0339 0B       		.uleb128 0xb
 4025 033a 00       		.byte	0
 4026 033b 00       		.byte	0
 4027 033c 3D       		.uleb128 0x3d
 4028 033d 2E       		.uleb128 0x2e
 4029 033e 00       		.byte	0
 4030 033f 03       		.uleb128 0x3
 4031 0340 0E       		.uleb128 0xe
ARM GAS  /var/folders/t8/16hdwfmd2fg_d3q6dgx6bpmw0000gn/T//ccqUiayV.s 			page 72


 4032 0341 3A       		.uleb128 0x3a
 4033 0342 0B       		.uleb128 0xb
 4034 0343 3B       		.uleb128 0x3b
 4035 0344 05       		.uleb128 0x5
 4036 0345 27       		.uleb128 0x27
 4037 0346 19       		.uleb128 0x19
 4038 0347 49       		.uleb128 0x49
 4039 0348 13       		.uleb128 0x13
 4040 0349 20       		.uleb128 0x20
 4041 034a 0B       		.uleb128 0xb
 4042 034b 00       		.byte	0
 4043 034c 00       		.byte	0
 4044 034d 3E       		.uleb128 0x3e
 4045 034e 34       		.uleb128 0x34
 4046 034f 00       		.byte	0
 4047 0350 03       		.uleb128 0x3
 4048 0351 08       		.uleb128 0x8
 4049 0352 3A       		.uleb128 0x3a
 4050 0353 0B       		.uleb128 0xb
 4051 0354 3B       		.uleb128 0x3b
 4052 0355 05       		.uleb128 0x5
 4053 0356 49       		.uleb128 0x49
 4054 0357 13       		.uleb128 0x13
 4055 0358 00       		.byte	0
 4056 0359 00       		.byte	0
 4057 035a 3F       		.uleb128 0x3f
 4058 035b 2E       		.uleb128 0x2e
 4059 035c 01       		.byte	0x1
 4060 035d 03       		.uleb128 0x3
 4061 035e 0E       		.uleb128 0xe
 4062 035f 3A       		.uleb128 0x3a
 4063 0360 0B       		.uleb128 0xb
 4064 0361 3B       		.uleb128 0x3b
 4065 0362 05       		.uleb128 0x5
 4066 0363 27       		.uleb128 0x27
 4067 0364 19       		.uleb128 0x19
 4068 0365 20       		.uleb128 0x20
 4069 0366 0B       		.uleb128 0xb
 4070 0367 01       		.uleb128 0x1
 4071 0368 13       		.uleb128 0x13
 4072 0369 00       		.byte	0
 4073 036a 00       		.byte	0
 4074 036b 40       		.uleb128 0x40
 4075 036c 2E       		.uleb128 0x2e
 4076 036d 01       		.byte	0x1
 4077 036e 03       		.uleb128 0x3
 4078 036f 0E       		.uleb128 0xe
 4079 0370 3A       		.uleb128 0x3a
 4080 0371 0B       		.uleb128 0xb
 4081 0372 3B       		.uleb128 0x3b
 4082 0373 0B       		.uleb128 0xb
 4083 0374 27       		.uleb128 0x27
 4084 0375 19       		.uleb128 0x19
 4085 0376 49       		.uleb128 0x49
 4086 0377 13       		.uleb128 0x13
 4087 0378 20       		.uleb128 0x20
 4088 0379 0B       		.uleb128 0xb
ARM GAS  /var/folders/t8/16hdwfmd2fg_d3q6dgx6bpmw0000gn/T//ccqUiayV.s 			page 73


 4089 037a 01       		.uleb128 0x1
 4090 037b 13       		.uleb128 0x13
 4091 037c 00       		.byte	0
 4092 037d 00       		.byte	0
 4093 037e 41       		.uleb128 0x41
 4094 037f 34       		.uleb128 0x34
 4095 0380 00       		.byte	0
 4096 0381 03       		.uleb128 0x3
 4097 0382 0E       		.uleb128 0xe
 4098 0383 3A       		.uleb128 0x3a
 4099 0384 0B       		.uleb128 0xb
 4100 0385 3B       		.uleb128 0x3b
 4101 0386 0B       		.uleb128 0xb
 4102 0387 49       		.uleb128 0x49
 4103 0388 13       		.uleb128 0x13
 4104 0389 00       		.byte	0
 4105 038a 00       		.byte	0
 4106 038b 42       		.uleb128 0x42
 4107 038c 2E       		.uleb128 0x2e
 4108 038d 00       		.byte	0
 4109 038e 03       		.uleb128 0x3
 4110 038f 0E       		.uleb128 0xe
 4111 0390 3A       		.uleb128 0x3a
 4112 0391 0B       		.uleb128 0xb
 4113 0392 3B       		.uleb128 0x3b
 4114 0393 0B       		.uleb128 0xb
 4115 0394 27       		.uleb128 0x27
 4116 0395 19       		.uleb128 0x19
 4117 0396 20       		.uleb128 0x20
 4118 0397 0B       		.uleb128 0xb
 4119 0398 00       		.byte	0
 4120 0399 00       		.byte	0
 4121 039a 43       		.uleb128 0x43
 4122 039b 2E       		.uleb128 0x2e
 4123 039c 00       		.byte	0
 4124 039d 3F       		.uleb128 0x3f
 4125 039e 19       		.uleb128 0x19
 4126 039f 3C       		.uleb128 0x3c
 4127 03a0 19       		.uleb128 0x19
 4128 03a1 6E       		.uleb128 0x6e
 4129 03a2 0E       		.uleb128 0xe
 4130 03a3 03       		.uleb128 0x3
 4131 03a4 0E       		.uleb128 0xe
 4132 03a5 3A       		.uleb128 0x3a
 4133 03a6 0B       		.uleb128 0xb
 4134 03a7 3B       		.uleb128 0x3b
 4135 03a8 05       		.uleb128 0x5
 4136 03a9 00       		.byte	0
 4137 03aa 00       		.byte	0
 4138 03ab 44       		.uleb128 0x44
 4139 03ac 2E       		.uleb128 0x2e
 4140 03ad 00       		.byte	0
 4141 03ae 3F       		.uleb128 0x3f
 4142 03af 19       		.uleb128 0x19
 4143 03b0 3C       		.uleb128 0x3c
 4144 03b1 19       		.uleb128 0x19
 4145 03b2 6E       		.uleb128 0x6e
ARM GAS  /var/folders/t8/16hdwfmd2fg_d3q6dgx6bpmw0000gn/T//ccqUiayV.s 			page 74


 4146 03b3 0E       		.uleb128 0xe
 4147 03b4 03       		.uleb128 0x3
 4148 03b5 0E       		.uleb128 0xe
 4149 03b6 3A       		.uleb128 0x3a
 4150 03b7 0B       		.uleb128 0xb
 4151 03b8 3B       		.uleb128 0x3b
 4152 03b9 0B       		.uleb128 0xb
 4153 03ba 00       		.byte	0
 4154 03bb 00       		.byte	0
 4155 03bc 00       		.byte	0
 4156              		.section	.debug_loc,"",%progbits
 4157              	.Ldebug_loc0:
 4158              	.LLST29:
 4159 0000 0A000000 		.4byte	.LVL95
 4160 0004 21000000 		.4byte	.LVL97-1
 4161 0008 0100     		.2byte	0x1
 4162 000a 50       		.byte	0x50
 4163 000b 26000000 		.4byte	.LVL98
 4164 000f 36000000 		.4byte	.LVL101
 4165 0013 0100     		.2byte	0x1
 4166 0015 50       		.byte	0x50
 4167 0016 36000000 		.4byte	.LVL101
 4168 001a 42000000 		.4byte	.LVL104
 4169 001e 0100     		.2byte	0x1
 4170 0020 55       		.byte	0x55
 4171 0021 44000000 		.4byte	.LVL105
 4172 0025 47000000 		.4byte	.LVL106-1
 4173 0029 0100     		.2byte	0x1
 4174 002b 50       		.byte	0x50
 4175 002c 4A000000 		.4byte	.LVL107
 4176 0030 54000000 		.4byte	.LFE149
 4177 0034 0100     		.2byte	0x1
 4178 0036 50       		.byte	0x50
 4179 0037 00000000 		.4byte	0
 4180 003b 00000000 		.4byte	0
 4181              	.LLST32:
 4182 003f 2C000000 		.4byte	.LVL99
 4183 0043 30000000 		.4byte	.LVL100
 4184 0047 0100     		.2byte	0x1
 4185 0049 53       		.byte	0x53
 4186 004a 30000000 		.4byte	.LVL100
 4187 004e 39000000 		.4byte	.LVL102-1
 4188 0052 0300     		.2byte	0x3
 4189 0054 73       		.byte	0x73
 4190 0055 24       		.sleb128 36
 4191 0056 9F       		.byte	0x9f
 4192 0057 00000000 		.4byte	0
 4193 005b 00000000 		.4byte	0
 4194              	.LLST30:
 4195 005f 0A000000 		.4byte	.LVL95
 4196 0063 10000000 		.4byte	.LVL96
 4197 0067 0600     		.2byte	0x6
 4198 0069 03       		.byte	0x3
 4199 006a 00000000 		.4byte	ch
 4200 006e 9F       		.byte	0x9f
 4201 006f 00000000 		.4byte	0
 4202 0073 00000000 		.4byte	0
ARM GAS  /var/folders/t8/16hdwfmd2fg_d3q6dgx6bpmw0000gn/T//ccqUiayV.s 			page 75


 4203              	.LLST31:
 4204 0077 0A000000 		.4byte	.LVL95
 4205 007b 10000000 		.4byte	.LVL96
 4206 007f 0100     		.2byte	0x1
 4207 0081 53       		.byte	0x53
 4208 0082 00000000 		.4byte	0
 4209 0086 00000000 		.4byte	0
 4210              	.LLST25:
 4211 008a 0A000000 		.4byte	.LVL82
 4212 008e 19000000 		.4byte	.LVL84-1
 4213 0092 0100     		.2byte	0x1
 4214 0094 50       		.byte	0x50
 4215 0095 1C000000 		.4byte	.LVL85
 4216 0099 2A000000 		.4byte	.LVL88
 4217 009d 0100     		.2byte	0x1
 4218 009f 50       		.byte	0x50
 4219 00a0 2A000000 		.4byte	.LVL88
 4220 00a4 36000000 		.4byte	.LVL91
 4221 00a8 0100     		.2byte	0x1
 4222 00aa 55       		.byte	0x55
 4223 00ab 00000000 		.4byte	0
 4224 00af 00000000 		.4byte	0
 4225              	.LLST28:
 4226 00b3 20000000 		.4byte	.LVL86
 4227 00b7 24000000 		.4byte	.LVL87
 4228 00bb 0100     		.2byte	0x1
 4229 00bd 53       		.byte	0x53
 4230 00be 24000000 		.4byte	.LVL87
 4231 00c2 2D000000 		.4byte	.LVL89-1
 4232 00c6 0300     		.2byte	0x3
 4233 00c8 73       		.byte	0x73
 4234 00c9 24       		.sleb128 36
 4235 00ca 9F       		.byte	0x9f
 4236 00cb 00000000 		.4byte	0
 4237 00cf 00000000 		.4byte	0
 4238              	.LLST26:
 4239 00d3 0A000000 		.4byte	.LVL82
 4240 00d7 0E000000 		.4byte	.LVL83
 4241 00db 0600     		.2byte	0x6
 4242 00dd 03       		.byte	0x3
 4243 00de 00000000 		.4byte	ch
 4244 00e2 9F       		.byte	0x9f
 4245 00e3 00000000 		.4byte	0
 4246 00e7 00000000 		.4byte	0
 4247              	.LLST27:
 4248 00eb 0A000000 		.4byte	.LVL82
 4249 00ef 0E000000 		.4byte	.LVL83
 4250 00f3 0100     		.2byte	0x1
 4251 00f5 53       		.byte	0x53
 4252 00f6 00000000 		.4byte	0
 4253 00fa 00000000 		.4byte	0
 4254              	.LLST21:
 4255 00fe 0A000000 		.4byte	.LVL72
 4256 0102 1F000000 		.4byte	.LVL74-1
 4257 0106 0100     		.2byte	0x1
 4258 0108 50       		.byte	0x50
 4259 0109 22000000 		.4byte	.LVL75
ARM GAS  /var/folders/t8/16hdwfmd2fg_d3q6dgx6bpmw0000gn/T//ccqUiayV.s 			page 76


 4260 010d 30000000 		.4byte	.LVL78
 4261 0111 0100     		.2byte	0x1
 4262 0113 50       		.byte	0x50
 4263 0114 30000000 		.4byte	.LVL78
 4264 0118 3C000000 		.4byte	.LVL81
 4265 011c 0100     		.2byte	0x1
 4266 011e 55       		.byte	0x55
 4267 011f 00000000 		.4byte	0
 4268 0123 00000000 		.4byte	0
 4269              	.LLST24:
 4270 0127 26000000 		.4byte	.LVL76
 4271 012b 2A000000 		.4byte	.LVL77
 4272 012f 0100     		.2byte	0x1
 4273 0131 53       		.byte	0x53
 4274 0132 2A000000 		.4byte	.LVL77
 4275 0136 33000000 		.4byte	.LVL79-1
 4276 013a 0300     		.2byte	0x3
 4277 013c 73       		.byte	0x73
 4278 013d 24       		.sleb128 36
 4279 013e 9F       		.byte	0x9f
 4280 013f 00000000 		.4byte	0
 4281 0143 00000000 		.4byte	0
 4282              	.LLST22:
 4283 0147 0A000000 		.4byte	.LVL72
 4284 014b 0E000000 		.4byte	.LVL73
 4285 014f 0600     		.2byte	0x6
 4286 0151 03       		.byte	0x3
 4287 0152 00000000 		.4byte	ch
 4288 0156 9F       		.byte	0x9f
 4289 0157 00000000 		.4byte	0
 4290 015b 00000000 		.4byte	0
 4291              	.LLST23:
 4292 015f 0A000000 		.4byte	.LVL72
 4293 0163 0E000000 		.4byte	.LVL73
 4294 0167 0100     		.2byte	0x1
 4295 0169 53       		.byte	0x53
 4296 016a 00000000 		.4byte	0
 4297 016e 00000000 		.4byte	0
 4298              	.LLST17:
 4299 0172 00000000 		.4byte	.LVL52
 4300 0176 0D000000 		.4byte	.LVL54-1
 4301 017a 0100     		.2byte	0x1
 4302 017c 50       		.byte	0x50
 4303 017d 0D000000 		.4byte	.LVL54-1
 4304 0181 4C000000 		.4byte	.LVL61
 4305 0185 0100     		.2byte	0x1
 4306 0187 55       		.byte	0x55
 4307 0188 4C000000 		.4byte	.LVL61
 4308 018c 4E000000 		.4byte	.LVL64
 4309 0190 0400     		.2byte	0x4
 4310 0192 F3       		.byte	0xf3
 4311 0193 01       		.uleb128 0x1
 4312 0194 50       		.byte	0x50
 4313 0195 9F       		.byte	0x9f
 4314 0196 4E000000 		.4byte	.LVL64
 4315 019a 7C000000 		.4byte	.LFE144
 4316 019e 0100     		.2byte	0x1
ARM GAS  /var/folders/t8/16hdwfmd2fg_d3q6dgx6bpmw0000gn/T//ccqUiayV.s 			page 77


 4317 01a0 55       		.byte	0x55
 4318 01a1 00000000 		.4byte	0
 4319 01a5 00000000 		.4byte	0
 4320              	.LLST18:
 4321 01a9 00000000 		.4byte	.LVL52
 4322 01ad 0D000000 		.4byte	.LVL54-1
 4323 01b1 0100     		.2byte	0x1
 4324 01b3 51       		.byte	0x51
 4325 01b4 0D000000 		.4byte	.LVL54-1
 4326 01b8 4C000000 		.4byte	.LVL63
 4327 01bc 0100     		.2byte	0x1
 4328 01be 57       		.byte	0x57
 4329 01bf 4C000000 		.4byte	.LVL63
 4330 01c3 4E000000 		.4byte	.LVL64
 4331 01c7 0400     		.2byte	0x4
 4332 01c9 F3       		.byte	0xf3
 4333 01ca 01       		.uleb128 0x1
 4334 01cb 51       		.byte	0x51
 4335 01cc 9F       		.byte	0x9f
 4336 01cd 4E000000 		.4byte	.LVL64
 4337 01d1 7C000000 		.4byte	.LFE144
 4338 01d5 0100     		.2byte	0x1
 4339 01d7 57       		.byte	0x57
 4340 01d8 00000000 		.4byte	0
 4341 01dc 00000000 		.4byte	0
 4342              	.LLST19:
 4343 01e0 0A000000 		.4byte	.LVL53
 4344 01e4 34000000 		.4byte	.LVL56
 4345 01e8 0100     		.2byte	0x1
 4346 01ea 56       		.byte	0x56
 4347 01eb 34000000 		.4byte	.LVL56
 4348 01ef 44000000 		.4byte	.LVL59
 4349 01f3 0100     		.2byte	0x1
 4350 01f5 50       		.byte	0x50
 4351 01f6 44000000 		.4byte	.LVL59
 4352 01fa 4C000000 		.4byte	.LVL62
 4353 01fe 0100     		.2byte	0x1
 4354 0200 56       		.byte	0x56
 4355 0201 4E000000 		.4byte	.LVL64
 4356 0205 66000000 		.4byte	.LVL67
 4357 0209 0100     		.2byte	0x1
 4358 020b 56       		.byte	0x56
 4359 020c 66000000 		.4byte	.LVL67
 4360 0210 68000000 		.4byte	.LVL68
 4361 0214 0100     		.2byte	0x1
 4362 0216 50       		.byte	0x50
 4363 0217 68000000 		.4byte	.LVL68
 4364 021b 7C000000 		.4byte	.LFE144
 4365 021f 0100     		.2byte	0x1
 4366 0221 56       		.byte	0x56
 4367 0222 00000000 		.4byte	0
 4368 0226 00000000 		.4byte	0
 4369              	.LLST20:
 4370 022a 3C000000 		.4byte	.LVL57
 4371 022e 40000000 		.4byte	.LVL58
 4372 0232 0100     		.2byte	0x1
 4373 0234 53       		.byte	0x53
ARM GAS  /var/folders/t8/16hdwfmd2fg_d3q6dgx6bpmw0000gn/T//ccqUiayV.s 			page 78


 4374 0235 40000000 		.4byte	.LVL58
 4375 0239 44000000 		.4byte	.LVL59
 4376 023d 0300     		.2byte	0x3
 4377 023f 73       		.byte	0x73
 4378 0240 24       		.sleb128 36
 4379 0241 9F       		.byte	0x9f
 4380 0242 66000000 		.4byte	.LVL67
 4381 0246 6B000000 		.4byte	.LVL69-1
 4382 024a 0300     		.2byte	0x3
 4383 024c 73       		.byte	0x73
 4384 024d 24       		.sleb128 36
 4385 024e 9F       		.byte	0x9f
 4386 024f 00000000 		.4byte	0
 4387 0253 00000000 		.4byte	0
 4388              	.LLST14:
 4389 0257 00000000 		.4byte	.LVL42
 4390 025b 0B000000 		.4byte	.LVL43-1
 4391 025f 0100     		.2byte	0x1
 4392 0261 50       		.byte	0x50
 4393 0262 0B000000 		.4byte	.LVL43-1
 4394 0266 50000000 		.4byte	.LFE143
 4395 026a 0400     		.2byte	0x4
 4396 026c F3       		.byte	0xf3
 4397 026d 01       		.uleb128 0x1
 4398 026e 50       		.byte	0x50
 4399 026f 9F       		.byte	0x9f
 4400 0270 00000000 		.4byte	0
 4401 0274 00000000 		.4byte	0
 4402              	.LLST15:
 4403 0278 00000000 		.4byte	.LVL42
 4404 027c 0B000000 		.4byte	.LVL43-1
 4405 0280 0100     		.2byte	0x1
 4406 0282 51       		.byte	0x51
 4407 0283 0B000000 		.4byte	.LVL43-1
 4408 0287 3A000000 		.4byte	.LVL49
 4409 028b 0100     		.2byte	0x1
 4410 028d 55       		.byte	0x55
 4411 028e 3A000000 		.4byte	.LVL49
 4412 0292 3C000000 		.4byte	.LVL50
 4413 0296 0400     		.2byte	0x4
 4414 0298 F3       		.byte	0xf3
 4415 0299 01       		.uleb128 0x1
 4416 029a 51       		.byte	0x51
 4417 029b 9F       		.byte	0x9f
 4418 029c 3C000000 		.4byte	.LVL50
 4419 02a0 50000000 		.4byte	.LFE143
 4420 02a4 0100     		.2byte	0x1
 4421 02a6 55       		.byte	0x55
 4422 02a7 00000000 		.4byte	0
 4423 02ab 00000000 		.4byte	0
 4424              	.LLST16:
 4425 02af 24000000 		.4byte	.LVL45
 4426 02b3 30000000 		.4byte	.LVL47
 4427 02b7 0300     		.2byte	0x3
 4428 02b9 91       		.byte	0x91
 4429 02ba 5C       		.sleb128 -36
 4430 02bb 9F       		.byte	0x9f
ARM GAS  /var/folders/t8/16hdwfmd2fg_d3q6dgx6bpmw0000gn/T//ccqUiayV.s 			page 79


 4431 02bc 30000000 		.4byte	.LVL47
 4432 02c0 33000000 		.4byte	.LVL48-1
 4433 02c4 0100     		.2byte	0x1
 4434 02c6 50       		.byte	0x50
 4435 02c7 33000000 		.4byte	.LVL48-1
 4436 02cb 34000000 		.4byte	.LVL48
 4437 02cf 0300     		.2byte	0x3
 4438 02d1 91       		.byte	0x91
 4439 02d2 5C       		.sleb128 -36
 4440 02d3 9F       		.byte	0x9f
 4441 02d4 00000000 		.4byte	0
 4442 02d8 00000000 		.4byte	0
 4443              	.LLST3:
 4444 02dc 00000000 		.4byte	.LVL11
 4445 02e0 09000000 		.4byte	.LVL13-1
 4446 02e4 0100     		.2byte	0x1
 4447 02e6 50       		.byte	0x50
 4448 02e7 09000000 		.4byte	.LVL13-1
 4449 02eb 42000000 		.4byte	.LVL20
 4450 02ef 0100     		.2byte	0x1
 4451 02f1 54       		.byte	0x54
 4452 02f2 42000000 		.4byte	.LVL20
 4453 02f6 44000000 		.4byte	.LVL21
 4454 02fa 0400     		.2byte	0x4
 4455 02fc F3       		.byte	0xf3
 4456 02fd 01       		.uleb128 0x1
 4457 02fe 50       		.byte	0x50
 4458 02ff 9F       		.byte	0x9f
 4459 0300 44000000 		.4byte	.LVL21
 4460 0304 5C000000 		.4byte	.LFE142
 4461 0308 0100     		.2byte	0x1
 4462 030a 54       		.byte	0x54
 4463 030b 00000000 		.4byte	0
 4464 030f 00000000 		.4byte	0
 4465              	.LLST4:
 4466 0313 04000000 		.4byte	.LVL12
 4467 0317 09000000 		.4byte	.LVL13-1
 4468 031b 0100     		.2byte	0x1
 4469 031d 50       		.byte	0x50
 4470 031e 09000000 		.4byte	.LVL13-1
 4471 0322 42000000 		.4byte	.LVL20
 4472 0326 0100     		.2byte	0x1
 4473 0328 54       		.byte	0x54
 4474 0329 42000000 		.4byte	.LVL20
 4475 032d 44000000 		.4byte	.LVL21
 4476 0331 0400     		.2byte	0x4
 4477 0333 F3       		.byte	0xf3
 4478 0334 01       		.uleb128 0x1
 4479 0335 50       		.byte	0x50
 4480 0336 9F       		.byte	0x9f
 4481 0337 44000000 		.4byte	.LVL21
 4482 033b 5C000000 		.4byte	.LFE142
 4483 033f 0100     		.2byte	0x1
 4484 0341 54       		.byte	0x54
 4485 0342 00000000 		.4byte	0
 4486 0346 00000000 		.4byte	0
 4487              	.LLST5:
ARM GAS  /var/folders/t8/16hdwfmd2fg_d3q6dgx6bpmw0000gn/T//ccqUiayV.s 			page 80


 4488 034a 1C000000 		.4byte	.LVL14
 4489 034e 26000000 		.4byte	.LVL16
 4490 0352 0100     		.2byte	0x1
 4491 0354 55       		.byte	0x55
 4492 0355 00000000 		.4byte	0
 4493 0359 00000000 		.4byte	0
 4494              	.LLST6:
 4495 035d 26000000 		.4byte	.LVL16
 4496 0361 30000000 		.4byte	.LVL17
 4497 0365 0100     		.2byte	0x1
 4498 0367 54       		.byte	0x54
 4499 0368 00000000 		.4byte	0
 4500 036c 00000000 		.4byte	0
 4501              	.LLST9:
 4502 0370 00000000 		.4byte	.LVL32
 4503 0374 0B000000 		.4byte	.LVL34-1
 4504 0378 0100     		.2byte	0x1
 4505 037a 50       		.byte	0x50
 4506 037b 0B000000 		.4byte	.LVL34-1
 4507 037f 48000000 		.4byte	.LFE141
 4508 0383 0400     		.2byte	0x4
 4509 0385 F3       		.byte	0xf3
 4510 0386 01       		.uleb128 0x1
 4511 0387 50       		.byte	0x50
 4512 0388 9F       		.byte	0x9f
 4513 0389 00000000 		.4byte	0
 4514 038d 00000000 		.4byte	0
 4515              	.LLST10:
 4516 0391 08000000 		.4byte	.LVL33
 4517 0395 3E000000 		.4byte	.LVL41
 4518 0399 0100     		.2byte	0x1
 4519 039b 55       		.byte	0x55
 4520 039c 00000000 		.4byte	0
 4521 03a0 00000000 		.4byte	0
 4522              	.LLST13:
 4523 03a4 28000000 		.4byte	.LVL37
 4524 03a8 2C000000 		.4byte	.LVL38
 4525 03ac 0100     		.2byte	0x1
 4526 03ae 53       		.byte	0x53
 4527 03af 2C000000 		.4byte	.LVL38
 4528 03b3 35000000 		.4byte	.LVL39-1
 4529 03b7 0300     		.2byte	0x3
 4530 03b9 73       		.byte	0x73
 4531 03ba 24       		.sleb128 36
 4532 03bb 9F       		.byte	0x9f
 4533 03bc 00000000 		.4byte	0
 4534 03c0 00000000 		.4byte	0
 4535              	.LLST11:
 4536 03c4 18000000 		.4byte	.LVL35
 4537 03c8 1C000000 		.4byte	.LVL36
 4538 03cc 0600     		.2byte	0x6
 4539 03ce 03       		.byte	0x3
 4540 03cf 00000000 		.4byte	ch
 4541 03d3 9F       		.byte	0x9f
 4542 03d4 00000000 		.4byte	0
 4543 03d8 00000000 		.4byte	0
 4544              	.LLST12:
ARM GAS  /var/folders/t8/16hdwfmd2fg_d3q6dgx6bpmw0000gn/T//ccqUiayV.s 			page 81


 4545 03dc 18000000 		.4byte	.LVL35
 4546 03e0 1C000000 		.4byte	.LVL36
 4547 03e4 0100     		.2byte	0x1
 4548 03e6 50       		.byte	0x50
 4549 03e7 00000000 		.4byte	0
 4550 03eb 00000000 		.4byte	0
 4551              	.LLST7:
 4552 03ef 00000000 		.4byte	.LVL23
 4553 03f3 07000000 		.4byte	.LVL24-1
 4554 03f7 0100     		.2byte	0x1
 4555 03f9 50       		.byte	0x50
 4556 03fa 07000000 		.4byte	.LVL24-1
 4557 03fe 36000000 		.4byte	.LVL28
 4558 0402 0100     		.2byte	0x1
 4559 0404 54       		.byte	0x54
 4560 0405 36000000 		.4byte	.LVL28
 4561 0409 38000000 		.4byte	.LVL29
 4562 040d 0100     		.2byte	0x1
 4563 040f 50       		.byte	0x50
 4564 0410 38000000 		.4byte	.LVL29
 4565 0414 50000000 		.4byte	.LFE140
 4566 0418 0100     		.2byte	0x1
 4567 041a 54       		.byte	0x54
 4568 041b 00000000 		.4byte	0
 4569 041f 00000000 		.4byte	0
 4570              	.LLST8:
 4571 0423 1E000000 		.4byte	.LVL25
 4572 0427 22000000 		.4byte	.LVL26
 4573 042b 0600     		.2byte	0x6
 4574 042d 03       		.byte	0x3
 4575 042e 00000000 		.4byte	ch
 4576 0432 9F       		.byte	0x9f
 4577 0433 22000000 		.4byte	.LVL26
 4578 0437 38000000 		.4byte	.LVL29
 4579 043b 0100     		.2byte	0x1
 4580 043d 53       		.byte	0x53
 4581 043e 00000000 		.4byte	0
 4582 0442 00000000 		.4byte	0
 4583              	.LLST1:
 4584 0446 00000000 		.4byte	.LVL2
 4585 044a 07000000 		.4byte	.LVL3-1
 4586 044e 0100     		.2byte	0x1
 4587 0450 50       		.byte	0x50
 4588 0451 07000000 		.4byte	.LVL3-1
 4589 0455 36000000 		.4byte	.LVL7
 4590 0459 0100     		.2byte	0x1
 4591 045b 54       		.byte	0x54
 4592 045c 36000000 		.4byte	.LVL7
 4593 0460 38000000 		.4byte	.LVL8
 4594 0464 0100     		.2byte	0x1
 4595 0466 50       		.byte	0x50
 4596 0467 38000000 		.4byte	.LVL8
 4597 046b 50000000 		.4byte	.LFE139
 4598 046f 0100     		.2byte	0x1
 4599 0471 54       		.byte	0x54
 4600 0472 00000000 		.4byte	0
 4601 0476 00000000 		.4byte	0
ARM GAS  /var/folders/t8/16hdwfmd2fg_d3q6dgx6bpmw0000gn/T//ccqUiayV.s 			page 82


 4602              	.LLST2:
 4603 047a 1E000000 		.4byte	.LVL4
 4604 047e 22000000 		.4byte	.LVL5
 4605 0482 0600     		.2byte	0x6
 4606 0484 03       		.byte	0x3
 4607 0485 00000000 		.4byte	ch
 4608 0489 9F       		.byte	0x9f
 4609 048a 22000000 		.4byte	.LVL5
 4610 048e 38000000 		.4byte	.LVL8
 4611 0492 0100     		.2byte	0x1
 4612 0494 53       		.byte	0x53
 4613 0495 00000000 		.4byte	0
 4614 0499 00000000 		.4byte	0
 4615              	.LLST0:
 4616 049d 00000000 		.4byte	.LVL0
 4617 04a1 08000000 		.4byte	.LVL1
 4618 04a5 0600     		.2byte	0x6
 4619 04a7 03       		.byte	0x3
 4620 04a8 00000000 		.4byte	ch
 4621 04ac 9F       		.byte	0x9f
 4622 04ad 00000000 		.4byte	0
 4623 04b1 00000000 		.4byte	0
 4624              		.section	.debug_aranges,"",%progbits
 4625 0000 74000000 		.4byte	0x74
 4626 0004 0200     		.2byte	0x2
 4627 0006 00000000 		.4byte	.Ldebug_info0
 4628 000a 04       		.byte	0x4
 4629 000b 00       		.byte	0
 4630 000c 0000     		.2byte	0
 4631 000e 0000     		.2byte	0
 4632 0010 00000000 		.4byte	.LFB138
 4633 0014 14000000 		.4byte	.LFE138-.LFB138
 4634 0018 00000000 		.4byte	.LFB139
 4635 001c 50000000 		.4byte	.LFE139-.LFB139
 4636 0020 00000000 		.4byte	.LFB142
 4637 0024 5C000000 		.4byte	.LFE142-.LFB142
 4638 0028 00000000 		.4byte	.LFB140
 4639 002c 50000000 		.4byte	.LFE140-.LFB140
 4640 0030 00000000 		.4byte	.LFB141
 4641 0034 48000000 		.4byte	.LFE141-.LFB141
 4642 0038 00000000 		.4byte	.LFB143
 4643 003c 50000000 		.4byte	.LFE143-.LFB143
 4644 0040 00000000 		.4byte	.LFB144
 4645 0044 7C000000 		.4byte	.LFE144-.LFB144
 4646 0048 00000000 		.4byte	.LFB146
 4647 004c 28000000 		.4byte	.LFE146-.LFB146
 4648 0050 00000000 		.4byte	.LFB147
 4649 0054 48000000 		.4byte	.LFE147-.LFB147
 4650 0058 00000000 		.4byte	.LFB148
 4651 005c 40000000 		.4byte	.LFE148-.LFB148
 4652 0060 00000000 		.4byte	.LFB145
 4653 0064 24000000 		.4byte	.LFE145-.LFB145
 4654 0068 00000000 		.4byte	.LFB149
 4655 006c 54000000 		.4byte	.LFE149-.LFB149
 4656 0070 00000000 		.4byte	0
 4657 0074 00000000 		.4byte	0
 4658              		.section	.debug_ranges,"",%progbits
ARM GAS  /var/folders/t8/16hdwfmd2fg_d3q6dgx6bpmw0000gn/T//ccqUiayV.s 			page 83


 4659              	.Ldebug_ranges0:
 4660 0000 02000000 		.4byte	.LBB88
 4661 0004 04000000 		.4byte	.LBE88
 4662 0008 04000000 		.4byte	.LBB91
 4663 000c 08000000 		.4byte	.LBE91
 4664 0010 00000000 		.4byte	0
 4665 0014 00000000 		.4byte	0
 4666 0018 12000000 		.4byte	.LBB108
 4667 001c 14000000 		.4byte	.LBE108
 4668 0020 18000000 		.4byte	.LBB111
 4669 0024 1E000000 		.4byte	.LBE111
 4670 0028 00000000 		.4byte	0
 4671 002c 00000000 		.4byte	0
 4672 0030 38000000 		.4byte	.LBB118
 4673 0034 4C000000 		.4byte	.LBE118
 4674 0038 66000000 		.4byte	.LBB121
 4675 003c 7C000000 		.4byte	.LBE121
 4676 0040 00000000 		.4byte	0
 4677 0044 00000000 		.4byte	0
 4678 0048 06000000 		.4byte	.LBB122
 4679 004c 08000000 		.4byte	.LBE122
 4680 0050 0A000000 		.4byte	.LBB125
 4681 0054 10000000 		.4byte	.LBE125
 4682 0058 00000000 		.4byte	0
 4683 005c 00000000 		.4byte	0
 4684 0060 06000000 		.4byte	.LBB129
 4685 0064 08000000 		.4byte	.LBE129
 4686 0068 0A000000 		.4byte	.LBB132
 4687 006c 10000000 		.4byte	.LBE132
 4688 0070 00000000 		.4byte	0
 4689 0074 00000000 		.4byte	0
 4690 0078 06000000 		.4byte	.LBB138
 4691 007c 08000000 		.4byte	.LBE138
 4692 0080 0A000000 		.4byte	.LBB142
 4693 0084 0C000000 		.4byte	.LBE142
 4694 0088 0E000000 		.4byte	.LBB143
 4695 008c 12000000 		.4byte	.LBE143
 4696 0090 00000000 		.4byte	0
 4697 0094 00000000 		.4byte	0
 4698 0098 00000000 		.4byte	.LFB138
 4699 009c 14000000 		.4byte	.LFE138
 4700 00a0 00000000 		.4byte	.LFB139
 4701 00a4 50000000 		.4byte	.LFE139
 4702 00a8 00000000 		.4byte	.LFB142
 4703 00ac 5C000000 		.4byte	.LFE142
 4704 00b0 00000000 		.4byte	.LFB140
 4705 00b4 50000000 		.4byte	.LFE140
 4706 00b8 00000000 		.4byte	.LFB141
 4707 00bc 48000000 		.4byte	.LFE141
 4708 00c0 00000000 		.4byte	.LFB143
 4709 00c4 50000000 		.4byte	.LFE143
 4710 00c8 00000000 		.4byte	.LFB144
 4711 00cc 7C000000 		.4byte	.LFE144
 4712 00d0 00000000 		.4byte	.LFB146
 4713 00d4 28000000 		.4byte	.LFE146
 4714 00d8 00000000 		.4byte	.LFB147
 4715 00dc 48000000 		.4byte	.LFE147
ARM GAS  /var/folders/t8/16hdwfmd2fg_d3q6dgx6bpmw0000gn/T//ccqUiayV.s 			page 84


 4716 00e0 00000000 		.4byte	.LFB148
 4717 00e4 40000000 		.4byte	.LFE148
 4718 00e8 00000000 		.4byte	.LFB145
 4719 00ec 24000000 		.4byte	.LFE145
 4720 00f0 00000000 		.4byte	.LFB149
 4721 00f4 54000000 		.4byte	.LFE149
 4722 00f8 00000000 		.4byte	0
 4723 00fc 00000000 		.4byte	0
 4724              		.section	.debug_line,"",%progbits
 4725              	.Ldebug_line0:
 4726 0000 0C060000 		.section	.debug_str,"MS",%progbits,1
 4726      0200E602 
 4726      00000201 
 4726      FB0E0D00 
 4726      01010101 
 4727              	.LASF48:
 4728 0000 63685F74 		.ascii	"ch_threads_list\000"
 4728      68726561 
 4728      64735F6C 
 4728      69737400 
 4729              	.LASF96:
 4730 0010 74696D65 		.ascii	"timesize\000"
 4730      73697A65 
 4730      00
 4731              	.LASF151:
 4732 0019 474E5520 		.ascii	"GNU C99 7.2.1 20170904 (release) [ARM/embedded-7-br"
 4732      43393920 
 4732      372E322E 
 4732      31203230 
 4732      31373039 
 4733 004c 616E6368 		.ascii	"anch revision 255204] -mcpu=cortex-m0plus -mno-thum"
 4733      20726576 
 4733      6973696F 
 4733      6E203235 
 4733      35323034 
 4734 007f 622D696E 		.ascii	"b-interwork -mthumb -ggdb -O2 -std=gnu99 -fomit-fra"
 4734      74657277 
 4734      6F726B20 
 4734      2D6D7468 
 4734      756D6220 
 4735 00b2 6D652D70 		.ascii	"me-pointer -falign-functions=16 -ffunction-sections"
 4735      6F696E74 
 4735      6572202D 
 4735      66616C69 
 4735      676E2D66 
 4736 00e5 202D6664 		.ascii	" -fdata-sections -fno-common\000"
 4736      6174612D 
 4736      73656374 
 4736      696F6E73 
 4736      202D666E 
 4737              	.LASF84:
 4738 0102 77746D74 		.ascii	"wtmtxp\000"
 4738      787000
 4739              	.LASF74:
 4740 0109 72656761 		.ascii	"regarm_t\000"
 4740      726D5F74 
 4740      00
ARM GAS  /var/folders/t8/16hdwfmd2fg_d3q6dgx6bpmw0000gn/T//ccqUiayV.s 			page 85


 4741              	.LASF36:
 4742 0112 666C6167 		.ascii	"flags\000"
 4742      7300
 4743              	.LASF27:
 4744 0118 73797374 		.ascii	"systime_t\000"
 4744      696D655F 
 4744      7400
 4745              	.LASF43:
 4746 0122 7265616C 		.ascii	"realprio\000"
 4746      7072696F 
 4746      00
 4747              	.LASF41:
 4748 012b 6570656E 		.ascii	"epending\000"
 4748      64696E67 
 4748      00
 4749              	.LASF0:
 4750 0134 756E7369 		.ascii	"unsigned int\000"
 4750      676E6564 
 4750      20696E74 
 4750      00
 4751              	.LASF49:
 4752 0141 6E657874 		.ascii	"next\000"
 4752      00
 4753              	.LASF94:
 4754 0146 76657273 		.ascii	"version\000"
 4754      696F6E00 
 4755              	.LASF46:
 4756 014e 74687265 		.ascii	"threads_list_t\000"
 4756      6164735F 
 4756      6C697374 
 4756      5F7400
 4757              	.LASF7:
 4758 015d 5F5F696E 		.ascii	"__int32_t\000"
 4758      7433325F 
 4758      7400
 4759              	.LASF37:
 4760 0167 72656673 		.ascii	"refs\000"
 4760      00
 4761              	.LASF108:
 4762 016c 6F66665F 		.ascii	"off_time\000"
 4762      74696D65 
 4762      00
 4763              	.LASF80:
 4764 0175 77746F62 		.ascii	"wtobjp\000"
 4764      6A7000
 4765              	.LASF138:
 4766 017c 706F7274 		.ascii	"port_lock\000"
 4766      5F6C6F63 
 4766      6B00
 4767              	.LASF72:
 4768 0186 76746C69 		.ascii	"vtlist\000"
 4768      737400
 4769              	.LASF76:
 4770 018d 706F7274 		.ascii	"port_context\000"
 4770      5F636F6E 
 4770      74657874 
 4770      00
ARM GAS  /var/folders/t8/16hdwfmd2fg_d3q6dgx6bpmw0000gn/T//ccqUiayV.s 			page 86


 4771              	.LASF136:
 4772 019a 706F7274 		.ascii	"port_lock_from_isr\000"
 4772      5F6C6F63 
 4772      6B5F6672 
 4772      6F6D5F69 
 4772      737200
 4773              	.LASF54:
 4774 01ad 63685F72 		.ascii	"ch_ready_list\000"
 4774      65616479 
 4774      5F6C6973 
 4774      7400
 4775              	.LASF60:
 4776 01bb 66756E63 		.ascii	"func\000"
 4776      00
 4777              	.LASF85:
 4778 01c0 65776D61 		.ascii	"ewmask\000"
 4778      736B00
 4779              	.LASF149:
 4780 01c7 5F646267 		.ascii	"_dbg_check_lock_from_isr\000"
 4780      5F636865 
 4780      636B5F6C 
 4780      6F636B5F 
 4780      66726F6D 
 4781              	.LASF52:
 4782 01e0 70726576 		.ascii	"prev\000"
 4782      00
 4783              	.LASF113:
 4784 01e5 63685363 		.ascii	"chSchDoReschedule\000"
 4784      68446F52 
 4784      65736368 
 4784      6564756C 
 4784      6500
 4785              	.LASF51:
 4786 01f7 63685F74 		.ascii	"ch_threads_queue\000"
 4786      68726561 
 4786      64735F71 
 4786      75657565 
 4786      00
 4787              	.LASF129:
 4788 0208 63685379 		.ascii	"chSysLockFromISR\000"
 4788      734C6F63 
 4788      6B46726F 
 4788      6D495352 
 4788      00
 4789              	.LASF133:
 4790 0219 63685365 		.ascii	"chSemFastSignalI\000"
 4790      6D466173 
 4790      74536967 
 4790      6E616C49 
 4790      00
 4791              	.LASF100:
 4792 022a 6F66665F 		.ascii	"off_newer\000"
 4792      6E657765 
 4792      7200
 4793              	.LASF56:
 4794 0234 76746675 		.ascii	"vtfunc_t\000"
 4794      6E635F74 
ARM GAS  /var/folders/t8/16hdwfmd2fg_d3q6dgx6bpmw0000gn/T//ccqUiayV.s 			page 87


 4794      00
 4795              	.LASF126:
 4796 023d 63685363 		.ascii	"chSchReadyI\000"
 4796      68526561 
 4796      64794900 
 4797              	.LASF65:
 4798 0249 63685F73 		.ascii	"ch_system_debug\000"
 4798      79737465 
 4798      6D5F6465 
 4798      62756700 
 4799              	.LASF127:
 4800 0259 5F736368 		.ascii	"_scheduler_init\000"
 4800      6564756C 
 4800      65725F69 
 4800      6E697400 
 4801              	.LASF17:
 4802 0269 75696E74 		.ascii	"uint32_t\000"
 4802      33325F74 
 4802      00
 4803              	.LASF82:
 4804 0272 73656E74 		.ascii	"sentmsg\000"
 4804      6D736700 
 4805              	.LASF25:
 4806 027a 6576656E 		.ascii	"eventmask_t\000"
 4806      746D6173 
 4806      6B5F7400 
 4807              	.LASF97:
 4808 0286 74687265 		.ascii	"threadsize\000"
 4808      61647369 
 4808      7A6500
 4809              	.LASF86:
 4810 0291 63685F73 		.ascii	"ch_semaphore\000"
 4810      656D6170 
 4810      686F7265 
 4810      00
 4811              	.LASF23:
 4812 029e 74707269 		.ascii	"tprio_t\000"
 4812      6F5F7400 
 4813              	.LASF58:
 4814 02a6 63685F76 		.ascii	"ch_virtual_timer\000"
 4814      69727475 
 4814      616C5F74 
 4814      696D6572 
 4814      00
 4815              	.LASF140:
 4816 02b7 72657375 		.ascii	"result\000"
 4816      6C7400
 4817              	.LASF13:
 4818 02be 6C6F6E67 		.ascii	"long long unsigned int\000"
 4818      206C6F6E 
 4818      6720756E 
 4818      7369676E 
 4818      65642069 
 4819              	.LASF119:
 4820 02d5 63685363 		.ascii	"chSchIsPreemptionRequired\000"
 4820      68497350 
 4820      7265656D 
ARM GAS  /var/folders/t8/16hdwfmd2fg_d3q6dgx6bpmw0000gn/T//ccqUiayV.s 			page 88


 4820      7074696F 
 4820      6E526571 
 4821              	.LASF5:
 4822 02ef 5F5F7569 		.ascii	"__uint16_t\000"
 4822      6E743136 
 4822      5F7400
 4823              	.LASF26:
 4824 02fa 636E745F 		.ascii	"cnt_t\000"
 4824      7400
 4825              	.LASF130:
 4826 0300 63685654 		.ascii	"chVTIsArmedI\000"
 4826      49734172 
 4826      6D656449 
 4826      00
 4827              	.LASF103:
 4828 030d 6F66665F 		.ascii	"off_stklimit\000"
 4828      73746B6C 
 4828      696D6974 
 4828      00
 4829              	.LASF122:
 4830 031a 74696D65 		.ascii	"time\000"
 4830      00
 4831              	.LASF67:
 4832 031f 6973725F 		.ascii	"isr_cnt\000"
 4832      636E7400 
 4833              	.LASF88:
 4834 0327 6F776E65 		.ascii	"owner\000"
 4834      7200
 4835              	.LASF111:
 4836 032d 73656D61 		.ascii	"semaphore_t\000"
 4836      70686F72 
 4836      655F7400 
 4837              	.LASF50:
 4838 0339 74687265 		.ascii	"threads_queue_t\000"
 4838      6164735F 
 4838      71756575 
 4838      655F7400 
 4839              	.LASF42:
 4840 0349 6D74786C 		.ascii	"mtxlist\000"
 4840      69737400 
 4841              	.LASF62:
 4842 0351 63685F76 		.ascii	"ch_virtual_timers_list\000"
 4842      69727475 
 4842      616C5F74 
 4842      696D6572 
 4842      735F6C69 
 4843              	.LASF28:
 4844 0368 74687265 		.ascii	"thread_t\000"
 4844      61645F74 
 4844      00
 4845              	.LASF128:
 4846 0371 63685379 		.ascii	"chSysUnlockFromISR\000"
 4846      73556E6C 
 4846      6F636B46 
 4846      726F6D49 
 4846      535200
 4847              	.LASF101:
ARM GAS  /var/folders/t8/16hdwfmd2fg_d3q6dgx6bpmw0000gn/T//ccqUiayV.s 			page 89


 4848 0384 6F66665F 		.ascii	"off_older\000"
 4848      6F6C6465 
 4848      7200
 4849              	.LASF104:
 4850 038e 6F66665F 		.ascii	"off_state\000"
 4850      73746174 
 4850      6500
 4851              	.LASF78:
 4852 0398 7264796D 		.ascii	"rdymsg\000"
 4852      736700
 4853              	.LASF141:
 4854 039f 5F5F6469 		.ascii	"__disable_irq\000"
 4854      7361626C 
 4854      655F6972 
 4854      7100
 4855              	.LASF116:
 4856 03ad 5F426F6F 		.ascii	"_Bool\000"
 4856      6C00
 4857              	.LASF154:
 4858 03b3 77616B65 		.ascii	"wakeup\000"
 4858      757000
 4859              	.LASF115:
 4860 03ba 63685363 		.ascii	"chSchDoRescheduleBehind\000"
 4860      68446F52 
 4860      65736368 
 4860      6564756C 
 4860      65426568 
 4861              	.LASF87:
 4862 03d2 63685F6D 		.ascii	"ch_mutex\000"
 4862      75746578 
 4862      00
 4863              	.LASF12:
 4864 03db 5F5F7569 		.ascii	"__uint64_t\000"
 4864      6E743634 
 4864      5F7400
 4865              	.LASF99:
 4866 03e6 6F66665F 		.ascii	"off_ctx\000"
 4866      63747800 
 4867              	.LASF117:
 4868 03ee 63685363 		.ascii	"chSchRescheduleS\000"
 4868      68526573 
 4868      63686564 
 4868      756C6553 
 4868      00
 4869              	.LASF105:
 4870 03ff 6F66665F 		.ascii	"off_flags\000"
 4870      666C6167 
 4870      7300
 4871              	.LASF30:
 4872 0409 7072696F 		.ascii	"prio\000"
 4872      00
 4873              	.LASF89:
 4874 040e 63686172 		.ascii	"char\000"
 4874      00
 4875              	.LASF45:
 4876 0413 74687265 		.ascii	"thread_reference_t\000"
 4876      61645F72 
ARM GAS  /var/folders/t8/16hdwfmd2fg_d3q6dgx6bpmw0000gn/T//ccqUiayV.s 			page 90


 4876      65666572 
 4876      656E6365 
 4876      5F7400
 4877              	.LASF34:
 4878 0426 77616261 		.ascii	"wabase\000"
 4878      736500
 4879              	.LASF90:
 4880 042d 63685F69 		.ascii	"ch_idle_thread_wa\000"
 4880      646C655F 
 4880      74687265 
 4880      61645F77 
 4880      6100
 4881              	.LASF20:
 4882 043f 74737461 		.ascii	"tstate_t\000"
 4882      74655F74 
 4882      00
 4883              	.LASF14:
 4884 0448 75696E74 		.ascii	"uint8_t\000"
 4884      385F7400 
 4885              	.LASF40:
 4886 0450 6D736771 		.ascii	"msgqueue\000"
 4886      75657565 
 4886      00
 4887              	.LASF124:
 4888 0459 63685363 		.ascii	"chSchReadyAheadI\000"
 4888      68526561 
 4888      64794168 
 4888      65616449 
 4888      00
 4889              	.LASF47:
 4890 046a 63685F74 		.ascii	"ch_thread\000"
 4890      68726561 
 4890      6400
 4891              	.LASF102:
 4892 0474 6F66665F 		.ascii	"off_name\000"
 4892      6E616D65 
 4892      00
 4893              	.LASF64:
 4894 047d 73797374 		.ascii	"system_debug_t\000"
 4894      656D5F64 
 4894      65627567 
 4894      5F7400
 4895              	.LASF11:
 4896 048c 6C6F6E67 		.ascii	"long long int\000"
 4896      206C6F6E 
 4896      6720696E 
 4896      7400
 4897              	.LASF92:
 4898 049a 7A65726F 		.ascii	"zero\000"
 4898      00
 4899              	.LASF24:
 4900 049f 6D73675F 		.ascii	"msg_t\000"
 4900      7400
 4901              	.LASF148:
 4902 04a5 63685654 		.ascii	"chVTDoResetI\000"
 4902      446F5265 
 4902      73657449 
ARM GAS  /var/folders/t8/16hdwfmd2fg_d3q6dgx6bpmw0000gn/T//ccqUiayV.s 			page 91


 4902      00
 4903              	.LASF57:
 4904 04b2 76697274 		.ascii	"virtual_timer_t\000"
 4904      75616C5F 
 4904      74696D65 
 4904      725F7400 
 4905              	.LASF144:
 4906 04c2 5F706F72 		.ascii	"_port_switch\000"
 4906      745F7377 
 4906      69746368 
 4906      00
 4907              	.LASF132:
 4908 04cf 71756575 		.ascii	"queue_fifo_remove\000"
 4908      655F6669 
 4908      666F5F72 
 4908      656D6F76 
 4908      6500
 4909              	.LASF93:
 4910 04e1 73697A65 		.ascii	"size\000"
 4910      00
 4911              	.LASF95:
 4912 04e6 70747273 		.ascii	"ptrsize\000"
 4912      697A6500 
 4913              	.LASF145:
 4914 04ee 63684462 		.ascii	"chDbgCheckClassI\000"
 4914      67436865 
 4914      636B436C 
 4914      61737349 
 4914      00
 4915              	.LASF22:
 4916 04ff 74736C69 		.ascii	"tslices_t\000"
 4916      6365735F 
 4916      7400
 4917              	.LASF146:
 4918 0509 63684462 		.ascii	"chDbgCheckClassS\000"
 4918      67436865 
 4918      636B436C 
 4918      61737353 
 4918      00
 4919              	.LASF153:
 4920 051a 2F557365 		.ascii	"/Users/jpablobr/tmp/tmk/di0ib-tmk_keyboard/keyboard"
 4920      72732F6A 
 4920      7061626C 
 4920      6F62722F 
 4920      746D702F 
 4921 054d 2F746565 		.ascii	"/teensy_lc_menelaus\000"
 4921      6E73795F 
 4921      6C635F6D 
 4921      656E656C 
 4921      61757300 
 4922              	.LASF66:
 4923 0561 70616E69 		.ascii	"panic_msg\000"
 4923      635F6D73 
 4923      6700
 4924              	.LASF19:
 4925 056b 746D6F64 		.ascii	"tmode_t\000"
 4925      655F7400 
ARM GAS  /var/folders/t8/16hdwfmd2fg_d3q6dgx6bpmw0000gn/T//ccqUiayV.s 			page 92


 4926              	.LASF63:
 4927 0573 73797374 		.ascii	"systime\000"
 4927      696D6500 
 4928              	.LASF73:
 4929 057b 6D61696E 		.ascii	"mainthread\000"
 4929      74687265 
 4929      616400
 4930              	.LASF155:
 4931 0586 63685363 		.ascii	"chSchIsRescRequiredI\000"
 4931      68497352 
 4931      65736352 
 4931      65717569 
 4931      72656449 
 4932              	.LASF15:
 4933 059b 75696E74 		.ascii	"uint16_t\000"
 4933      31365F74 
 4933      00
 4934              	.LASF109:
 4935 05a4 63686465 		.ascii	"chdebug_t\000"
 4935      6275675F 
 4935      7400
 4936              	.LASF98:
 4937 05ae 6F66665F 		.ascii	"off_prio\000"
 4937      7072696F 
 4937      00
 4938              	.LASF68:
 4939 05b7 6C6F636B 		.ascii	"lock_cnt\000"
 4939      5F636E74 
 4939      00
 4940              	.LASF3:
 4941 05c0 73686F72 		.ascii	"short int\000"
 4941      7420696E 
 4941      7400
 4942              	.LASF8:
 4943 05ca 6C6F6E67 		.ascii	"long int\000"
 4943      20696E74 
 4943      00
 4944              	.LASF77:
 4945 05d3 706F7274 		.ascii	"port_intctx\000"
 4945      5F696E74 
 4945      63747800 
 4946              	.LASF38:
 4947 05df 70726565 		.ascii	"preempt\000"
 4947      6D707400 
 4948              	.LASF142:
 4949 05e7 5F5F656E 		.ascii	"__enable_irq\000"
 4949      61626C65 
 4949      5F697271 
 4949      00
 4950              	.LASF70:
 4951 05f4 63685F73 		.ascii	"ch_system\000"
 4951      79737465 
 4951      6D00
 4952              	.LASF18:
 4953 05fe 75696E74 		.ascii	"uint64_t\000"
 4953      36345F74 
 4953      00
ARM GAS  /var/folders/t8/16hdwfmd2fg_d3q6dgx6bpmw0000gn/T//ccqUiayV.s 			page 93


 4954              	.LASF71:
 4955 0607 726C6973 		.ascii	"rlist\000"
 4955      7400
 4956              	.LASF4:
 4957 060d 5F5F7569 		.ascii	"__uint8_t\000"
 4957      6E74385F 
 4957      7400
 4958              	.LASF131:
 4959 0617 71756575 		.ascii	"queue_dequeue\000"
 4959      655F6465 
 4959      71756575 
 4959      6500
 4960              	.LASF33:
 4961 0625 6E616D65 		.ascii	"name\000"
 4961      00
 4962              	.LASF123:
 4963 062a 63685363 		.ascii	"chSchGoSleepS\000"
 4963      68476F53 
 4963      6C656570 
 4963      5300
 4964              	.LASF91:
 4965 0638 6964656E 		.ascii	"identifier\000"
 4965      74696669 
 4965      657200
 4966              	.LASF107:
 4967 0643 6F66665F 		.ascii	"off_preempt\000"
 4967      70726565 
 4967      6D707400 
 4968              	.LASF21:
 4969 064f 74726566 		.ascii	"trefs_t\000"
 4969      735F7400 
 4970              	.LASF10:
 4971 0657 6C6F6E67 		.ascii	"long unsigned int\000"
 4971      20756E73 
 4971      69676E65 
 4971      6420696E 
 4971      7400
 4972              	.LASF147:
 4973 0669 63685654 		.ascii	"chVTDoSetI\000"
 4973      446F5365 
 4973      744900
 4974              	.LASF53:
 4975 0674 72656164 		.ascii	"ready_list_t\000"
 4975      795F6C69 
 4975      73745F74 
 4975      00
 4976              	.LASF120:
 4977 0681 63685363 		.ascii	"chSchGoSleepTimeoutS\000"
 4977      68476F53 
 4977      6C656570 
 4977      54696D65 
 4977      6F757453 
 4978              	.LASF29:
 4979 0696 71756575 		.ascii	"queue\000"
 4979      6500
 4980              	.LASF16:
 4981 069c 696E7433 		.ascii	"int32_t\000"
ARM GAS  /var/folders/t8/16hdwfmd2fg_d3q6dgx6bpmw0000gn/T//ccqUiayV.s 			page 94


 4981      325F7400 
 4982              	.LASF121:
 4983 06a4 6E657773 		.ascii	"newstate\000"
 4983      74617465 
 4983      00
 4984              	.LASF83:
 4985 06ad 77747365 		.ascii	"wtsemp\000"
 4985      6D7000
 4986              	.LASF112:
 4987 06b4 6D757465 		.ascii	"mutex_t\000"
 4987      785F7400 
 4988              	.LASF31:
 4989 06bc 6E657765 		.ascii	"newer\000"
 4989      7200
 4990              	.LASF134:
 4991 06c2 71756575 		.ascii	"queue_init\000"
 4991      655F696E 
 4991      697400
 4992              	.LASF135:
 4993 06cd 706F7274 		.ascii	"port_unlock_from_isr\000"
 4993      5F756E6C 
 4993      6F636B5F 
 4993      66726F6D 
 4993      5F697372 
 4994              	.LASF2:
 4995 06e2 756E7369 		.ascii	"unsigned char\000"
 4995      676E6564 
 4995      20636861 
 4995      7200
 4996              	.LASF9:
 4997 06f0 5F5F7569 		.ascii	"__uint32_t\000"
 4997      6E743332 
 4997      5F7400
 4998              	.LASF39:
 4999 06fb 77616974 		.ascii	"waiting\000"
 4999      696E6700 
 5000              	.LASF61:
 5001 0703 76697274 		.ascii	"virtual_timers_list_t\000"
 5001      75616C5F 
 5001      74696D65 
 5001      72735F6C 
 5001      6973745F 
 5002              	.LASF118:
 5003 0719 63685363 		.ascii	"chSchWakeupS\000"
 5003      6857616B 
 5003      65757053 
 5003      00
 5004              	.LASF35:
 5005 0726 73746174 		.ascii	"state\000"
 5005      6500
 5006              	.LASF143:
 5007 072c 63685379 		.ascii	"chSysHalt\000"
 5007      7348616C 
 5007      7400
 5008              	.LASF150:
 5009 0736 5F646267 		.ascii	"_dbg_check_unlock_from_isr\000"
 5009      5F636865 
ARM GAS  /var/folders/t8/16hdwfmd2fg_d3q6dgx6bpmw0000gn/T//ccqUiayV.s 			page 95


 5009      636B5F75 
 5009      6E6C6F63 
 5009      6B5F6672 
 5010              	.LASF114:
 5011 0751 63685363 		.ascii	"chSchDoRescheduleAhead\000"
 5011      68446F52 
 5011      65736368 
 5011      6564756C 
 5011      65416865 
 5012              	.LASF69:
 5013 0768 63685F73 		.ascii	"ch_system_t\000"
 5013      79737465 
 5013      6D5F7400 
 5014              	.LASF81:
 5015 0774 77747472 		.ascii	"wttrp\000"
 5015      7000
 5016              	.LASF1:
 5017 077a 7369676E 		.ascii	"signed char\000"
 5017      65642063 
 5017      68617200 
 5018              	.LASF59:
 5019 0786 64656C74 		.ascii	"delta\000"
 5019      6100
 5020              	.LASF6:
 5021 078c 73686F72 		.ascii	"short unsigned int\000"
 5021      7420756E 
 5021      7369676E 
 5021      65642069 
 5021      6E7400
 5022              	.LASF75:
 5023 079f 73746B61 		.ascii	"stkalign_t\000"
 5023      6C69676E 
 5023      5F7400
 5024              	.LASF106:
 5025 07aa 6F66665F 		.ascii	"off_refs\000"
 5025      72656673 
 5025      00
 5026              	.LASF55:
 5027 07b3 63757272 		.ascii	"current\000"
 5027      656E7400 
 5028              	.LASF125:
 5029 07bb 5F5F6675 		.ascii	"__func__\000"
 5029      6E635F5F 
 5029      00
 5030              	.LASF110:
 5031 07c4 63685F64 		.ascii	"ch_debug\000"
 5031      65627567 
 5031      00
 5032              	.LASF152:
 5033 07cd 2E2E2F2E 		.ascii	"../../tmk_core/tool/chibios/ChibiOS/os/rt/src/chsch"
 5033      2E2F746D 
 5033      6B5F636F 
 5033      72652F74 
 5033      6F6F6C2F 
 5034 0800 642E6300 		.ascii	"d.c\000"
 5035              	.LASF137:
 5036 0804 706F7274 		.ascii	"port_unlock\000"
ARM GAS  /var/folders/t8/16hdwfmd2fg_d3q6dgx6bpmw0000gn/T//ccqUiayV.s 			page 96


 5036      5F756E6C 
 5036      6F636B00 
 5037              	.LASF32:
 5038 0810 6F6C6465 		.ascii	"older\000"
 5038      7200
 5039              	.LASF79:
 5040 0816 65786974 		.ascii	"exitcode\000"
 5040      636F6465 
 5040      00
 5041              	.LASF44:
 5042 081f 6D706F6F 		.ascii	"mpool\000"
 5042      6C00
 5043              	.LASF139:
 5044 0825 5F5F6765 		.ascii	"__get_PSP\000"
 5044      745F5053 
 5044      5000
 5045              		.ident	"GCC: (GNU Tools for Arm Embedded Processors 7-2017-q4-major) 7.2.1 20170904 (release) [ARM
ARM GAS  /var/folders/t8/16hdwfmd2fg_d3q6dgx6bpmw0000gn/T//ccqUiayV.s 			page 97


DEFINED SYMBOLS
                            *ABS*:0000000000000000 chschd.c
/var/folders/t8/16hdwfmd2fg_d3q6dgx6bpmw0000gn/T//ccqUiayV.s:16     .text._scheduler_init:0000000000000000 $t
/var/folders/t8/16hdwfmd2fg_d3q6dgx6bpmw0000gn/T//ccqUiayV.s:24     .text._scheduler_init:0000000000000000 _scheduler_init
/var/folders/t8/16hdwfmd2fg_d3q6dgx6bpmw0000gn/T//ccqUiayV.s:64     .text._scheduler_init:0000000000000010 $d
/var/folders/t8/16hdwfmd2fg_d3q6dgx6bpmw0000gn/T//ccqUiayV.s:69     .text.chSchReadyI:0000000000000000 $t
/var/folders/t8/16hdwfmd2fg_d3q6dgx6bpmw0000gn/T//ccqUiayV.s:77     .text.chSchReadyI:0000000000000000 chSchReadyI
/var/folders/t8/16hdwfmd2fg_d3q6dgx6bpmw0000gn/T//ccqUiayV.s:157    .text.chSchReadyI:0000000000000048 $d
/var/folders/t8/16hdwfmd2fg_d3q6dgx6bpmw0000gn/T//ccqUiayV.s:163    .text.wakeup:0000000000000000 $t
/var/folders/t8/16hdwfmd2fg_d3q6dgx6bpmw0000gn/T//ccqUiayV.s:170    .text.wakeup:0000000000000000 wakeup
/var/folders/t8/16hdwfmd2fg_d3q6dgx6bpmw0000gn/T//ccqUiayV.s:220    .rodata.wakeup:0000000000000000 $d
/var/folders/t8/16hdwfmd2fg_d3q6dgx6bpmw0000gn/T//ccqUiayV.s:317    .text.wakeup:0000000000000058 $d
/var/folders/t8/16hdwfmd2fg_d3q6dgx6bpmw0000gn/T//ccqUiayV.s:322    .text.chSchReadyAheadI:0000000000000000 $t
/var/folders/t8/16hdwfmd2fg_d3q6dgx6bpmw0000gn/T//ccqUiayV.s:330    .text.chSchReadyAheadI:0000000000000000 chSchReadyAheadI
/var/folders/t8/16hdwfmd2fg_d3q6dgx6bpmw0000gn/T//ccqUiayV.s:410    .text.chSchReadyAheadI:0000000000000048 $d
/var/folders/t8/16hdwfmd2fg_d3q6dgx6bpmw0000gn/T//ccqUiayV.s:416    .text.chSchGoSleepS:0000000000000000 $t
/var/folders/t8/16hdwfmd2fg_d3q6dgx6bpmw0000gn/T//ccqUiayV.s:424    .text.chSchGoSleepS:0000000000000000 chSchGoSleepS
/var/folders/t8/16hdwfmd2fg_d3q6dgx6bpmw0000gn/T//ccqUiayV.s:518    .text.chSchGoSleepS:0000000000000040 $d
/var/folders/t8/16hdwfmd2fg_d3q6dgx6bpmw0000gn/T//ccqUiayV.s:524    .text.chSchGoSleepTimeoutS:0000000000000000 $t
/var/folders/t8/16hdwfmd2fg_d3q6dgx6bpmw0000gn/T//ccqUiayV.s:532    .text.chSchGoSleepTimeoutS:0000000000000000 chSchGoSleepTimeoutS
/var/folders/t8/16hdwfmd2fg_d3q6dgx6bpmw0000gn/T//ccqUiayV.s:607    .text.chSchGoSleepTimeoutS:0000000000000048 $d
/var/folders/t8/16hdwfmd2fg_d3q6dgx6bpmw0000gn/T//ccqUiayV.s:613    .text.chSchWakeupS:0000000000000000 $t
/var/folders/t8/16hdwfmd2fg_d3q6dgx6bpmw0000gn/T//ccqUiayV.s:621    .text.chSchWakeupS:0000000000000000 chSchWakeupS
/var/folders/t8/16hdwfmd2fg_d3q6dgx6bpmw0000gn/T//ccqUiayV.s:748    .text.chSchWakeupS:0000000000000070 $d
/var/folders/t8/16hdwfmd2fg_d3q6dgx6bpmw0000gn/T//ccqUiayV.s:756    .text.chSchIsPreemptionRequired:0000000000000000 $t
/var/folders/t8/16hdwfmd2fg_d3q6dgx6bpmw0000gn/T//ccqUiayV.s:764    .text.chSchIsPreemptionRequired:0000000000000000 chSchIsPreemptionRequired
/var/folders/t8/16hdwfmd2fg_d3q6dgx6bpmw0000gn/T//ccqUiayV.s:806    .text.chSchIsPreemptionRequired:0000000000000024 $d
/var/folders/t8/16hdwfmd2fg_d3q6dgx6bpmw0000gn/T//ccqUiayV.s:811    .text.chSchDoRescheduleBehind:0000000000000000 $t
/var/folders/t8/16hdwfmd2fg_d3q6dgx6bpmw0000gn/T//ccqUiayV.s:819    .text.chSchDoRescheduleBehind:0000000000000000 chSchDoRescheduleBehind
/var/folders/t8/16hdwfmd2fg_d3q6dgx6bpmw0000gn/T//ccqUiayV.s:909    .text.chSchDoRescheduleBehind:0000000000000040 $d
/var/folders/t8/16hdwfmd2fg_d3q6dgx6bpmw0000gn/T//ccqUiayV.s:915    .text.chSchDoRescheduleAhead:0000000000000000 $t
/var/folders/t8/16hdwfmd2fg_d3q6dgx6bpmw0000gn/T//ccqUiayV.s:923    .text.chSchDoRescheduleAhead:0000000000000000 chSchDoRescheduleAhead
/var/folders/t8/16hdwfmd2fg_d3q6dgx6bpmw0000gn/T//ccqUiayV.s:1008   .text.chSchDoRescheduleAhead:0000000000000038 $d
/var/folders/t8/16hdwfmd2fg_d3q6dgx6bpmw0000gn/T//ccqUiayV.s:1014   .text.chSchRescheduleS:0000000000000000 $t
/var/folders/t8/16hdwfmd2fg_d3q6dgx6bpmw0000gn/T//ccqUiayV.s:1022   .text.chSchRescheduleS:0000000000000000 chSchRescheduleS
/var/folders/t8/16hdwfmd2fg_d3q6dgx6bpmw0000gn/T//ccqUiayV.s:1061   .text.chSchRescheduleS:0000000000000020 $d
/var/folders/t8/16hdwfmd2fg_d3q6dgx6bpmw0000gn/T//ccqUiayV.s:1066   .text.chSchDoReschedule:0000000000000000 $t
/var/folders/t8/16hdwfmd2fg_d3q6dgx6bpmw0000gn/T//ccqUiayV.s:1074   .text.chSchDoReschedule:0000000000000000 chSchDoReschedule
/var/folders/t8/16hdwfmd2fg_d3q6dgx6bpmw0000gn/T//ccqUiayV.s:1184   .text.chSchDoReschedule:000000000000004c $d
/var/folders/t8/16hdwfmd2fg_d3q6dgx6bpmw0000gn/T//ccqUiayV.s:1195   .bss.ch:0000000000000000 ch
/var/folders/t8/16hdwfmd2fg_d3q6dgx6bpmw0000gn/T//ccqUiayV.s:1191   .bss.ch:0000000000000000 $d
/var/folders/t8/16hdwfmd2fg_d3q6dgx6bpmw0000gn/T//ccqUiayV.s:1198   .rodata.__func__.5722:0000000000000000 $d
/var/folders/t8/16hdwfmd2fg_d3q6dgx6bpmw0000gn/T//ccqUiayV.s:1202   .rodata.__func__.5722:0000000000000000 __func__.5722
/var/folders/t8/16hdwfmd2fg_d3q6dgx6bpmw0000gn/T//ccqUiayV.s:1205   .rodata.__func__.5729:0000000000000000 $d
/var/folders/t8/16hdwfmd2fg_d3q6dgx6bpmw0000gn/T//ccqUiayV.s:1209   .rodata.__func__.5729:0000000000000000 __func__.5729
/var/folders/t8/16hdwfmd2fg_d3q6dgx6bpmw0000gn/T//ccqUiayV.s:1212   .rodata.__func__.5758:0000000000000000 $d
/var/folders/t8/16hdwfmd2fg_d3q6dgx6bpmw0000gn/T//ccqUiayV.s:1216   .rodata.__func__.5758:0000000000000000 __func__.5758
/var/folders/t8/16hdwfmd2fg_d3q6dgx6bpmw0000gn/T//ccqUiayV.s:1219   .rodata.chSchGoSleepS.str1.4:0000000000000000 $d

UNDEFINED SYMBOLS
chDbgCheckClassI
chSysHalt
_dbg_check_lock_from_isr
_dbg_check_unlock_from_isr
chDbgCheckClassS
_port_switch
chVTDoSetI
ARM GAS  /var/folders/t8/16hdwfmd2fg_d3q6dgx6bpmw0000gn/T//ccqUiayV.s 			page 98


chVTDoResetI
