ARM GAS  /var/folders/t8/16hdwfmd2fg_d3q6dgx6bpmw0000gn/T//cciGhf3R.s 			page 1


   1              		.cpu cortex-m0plus
   2              		.eabi_attribute 20, 1
   3              		.eabi_attribute 21, 1
   4              		.eabi_attribute 23, 3
   5              		.eabi_attribute 24, 1
   6              		.eabi_attribute 25, 1
   7              		.eabi_attribute 26, 1
   8              		.eabi_attribute 30, 2
   9              		.eabi_attribute 34, 0
  10              		.eabi_attribute 18, 4
  11              		.file	"chsem.c"
  12              		.text
  13              	.Ltext0:
  14              		.cfi_sections	.debug_frame
  15              		.section	.text.chSemObjectInit,"ax",%progbits
  16              		.align	1
  17              		.p2align 4,,15
  18              		.global	chSemObjectInit
  19              		.syntax unified
  20              		.code	16
  21              		.thumb_func
  22              		.fpu softvfp
  23              		.type	chSemObjectInit, %function
  24              	chSemObjectInit:
  25              	.LFB138:
  26              		.file 1 "../../tmk_core/tool/chibios/ChibiOS/os/rt/src/chsem.c"
  27              		.loc 1 97 0
  28              		.cfi_startproc
  29              		@ args = 0, pretend = 0, frame = 0
  30              		@ frame_needed = 0, uses_anonymous_args = 0
  31              	.LVL0:
  32 0000 70B5     		push	{r4, r5, r6, lr}
  33              		.cfi_def_cfa_offset 16
  34              		.cfi_offset 4, -16
  35              		.cfi_offset 5, -12
  36              		.cfi_offset 6, -8
  37              		.cfi_offset 14, -4
  38              		.loc 1 97 0
  39 0002 0400     		movs	r4, r0
  40 0004 0D00     		movs	r5, r1
  41              		.loc 1 99 0
  42 0006 0028     		cmp	r0, #0
  43 0008 05D0     		beq	.L2
  44              		.loc 1 99 0 is_stmt 0 discriminator 3
  45 000a 0029     		cmp	r1, #0
  46 000c 03DB     		blt	.L2
  47              	.LVL1:
  48              	.L3:
  49              		.loc 1 102 0 is_stmt 1
  50 000e A560     		str	r5, [r4, #8]
  51              	.LBB103:
  52              	.LBB104:
  53              		.file 2 "../../tmk_core/tool/chibios/ChibiOS/os/rt/include/chschd.h"
  54              		.loc 2 550 0
  55 0010 2460     		str	r4, [r4]
  56              		.loc 2 551 0
  57 0012 6460     		str	r4, [r4, #4]
ARM GAS  /var/folders/t8/16hdwfmd2fg_d3q6dgx6bpmw0000gn/T//cciGhf3R.s 			page 2


  58              	.LVL2:
  59              	.LBE104:
  60              	.LBE103:
  61              		.loc 1 103 0
  62              		@ sp needed
  63              	.LVL3:
  64              	.LVL4:
  65 0014 70BD     		pop	{r4, r5, r6, pc}
  66              	.LVL5:
  67              	.L2:
  68              		.loc 1 99 0 discriminator 4
  69 0016 0248     		ldr	r0, .L8
  70              	.LVL6:
  71 0018 FFF7FEFF 		bl	chSysHalt
  72              	.LVL7:
  73 001c F7E7     		b	.L3
  74              	.L9:
  75 001e C046     		.align	2
  76              	.L8:
  77 0020 00000000 		.word	.LANCHOR0
  78              		.cfi_endproc
  79              	.LFE138:
  80              		.size	chSemObjectInit, .-chSemObjectInit
  81              		.section	.text.chSemResetI,"ax",%progbits
  82              		.align	1
  83              		.p2align 4,,15
  84              		.global	chSemResetI
  85              		.syntax unified
  86              		.code	16
  87              		.thumb_func
  88              		.fpu softvfp
  89              		.type	chSemResetI, %function
  90              	chSemResetI:
  91              	.LFB140:
  92              		.loc 1 147 0
  93              		.cfi_startproc
  94              		@ args = 0, pretend = 0, frame = 0
  95              		@ frame_needed = 0, uses_anonymous_args = 0
  96              	.LVL8:
  97 0000 70B5     		push	{r4, r5, r6, lr}
  98              		.cfi_def_cfa_offset 16
  99              		.cfi_offset 4, -16
 100              		.cfi_offset 5, -12
 101              		.cfi_offset 6, -8
 102              		.cfi_offset 14, -4
 103              		.loc 1 147 0
 104 0002 0400     		movs	r4, r0
 105 0004 0E00     		movs	r6, r1
 106              		.loc 1 150 0
 107 0006 FFF7FEFF 		bl	chDbgCheckClassI
 108              	.LVL9:
 109              		.loc 1 151 0
 110 000a 002C     		cmp	r4, #0
 111 000c 1CD0     		beq	.L11
 112              		.loc 1 151 0 is_stmt 0 discriminator 3
 113 000e 002E     		cmp	r6, #0
 114 0010 1ADB     		blt	.L11
ARM GAS  /var/folders/t8/16hdwfmd2fg_d3q6dgx6bpmw0000gn/T//cciGhf3R.s 			page 3


 115              		.loc 1 152 0 is_stmt 1 discriminator 1
 116 0012 A568     		ldr	r5, [r4, #8]
 117 0014 2368     		ldr	r3, [r4]
 118 0016 002D     		cmp	r5, #0
 119 0018 1DDB     		blt	.L13
 120              	.L22:
 121              		.loc 1 152 0 is_stmt 0 discriminator 3
 122 001a A342     		cmp	r3, r4
 123 001c 03D0     		beq	.L15
 124              	.L14:
 125              		.loc 1 152 0 discriminator 7
 126 001e 0F48     		ldr	r0, .L23
 127 0020 FFF7FEFF 		bl	chSysHalt
 128              	.LVL10:
 129 0024 A568     		ldr	r5, [r4, #8]
 130              	.L15:
 131              	.LVL11:
 132              		.loc 1 158 0 is_stmt 1
 133 0026 0135     		adds	r5, r5, #1
 134              		.loc 1 157 0
 135 0028 A660     		str	r6, [r4, #8]
 136              	.LVL12:
 137              		.loc 1 158 0
 138 002a 002D     		cmp	r5, #0
 139 002c 0BDC     		bgt	.L10
 140              		.loc 1 159 0
 141 002e 0226     		movs	r6, #2
 142              	.LVL13:
 143 0030 7642     		rsbs	r6, r6, #0
 144              	.LVL14:
 145              	.L17:
 146              	.LBB105:
 147              	.LBB106:
 148              		.loc 2 627 0
 149 0032 6068     		ldr	r0, [r4, #4]
 150              	.LVL15:
 151              	.LBE106:
 152              	.LBE105:
 153              		.loc 1 158 0
 154 0034 0135     		adds	r5, r5, #1
 155              	.LVL16:
 156              	.LBB108:
 157              	.LBB107:
 158              		.loc 2 629 0
 159 0036 4368     		ldr	r3, [r0, #4]
 160 0038 6360     		str	r3, [r4, #4]
 161              		.loc 2 630 0
 162 003a 1C60     		str	r4, [r3]
 163              	.LVL17:
 164              	.LBE107:
 165              	.LBE108:
 166              		.loc 1 159 0
 167 003c FFF7FEFF 		bl	chSchReadyI
 168              	.LVL18:
 169 0040 4662     		str	r6, [r0, #36]
 170              	.LVL19:
 171              		.loc 1 158 0
ARM GAS  /var/folders/t8/16hdwfmd2fg_d3q6dgx6bpmw0000gn/T//cciGhf3R.s 			page 4


 172 0042 012D     		cmp	r5, #1
 173 0044 F5D1     		bne	.L17
 174              	.L10:
 175              		.loc 1 161 0
 176              		@ sp needed
 177              	.LVL20:
 178              	.LVL21:
 179 0046 70BD     		pop	{r4, r5, r6, pc}
 180              	.LVL22:
 181              	.L11:
 182              		.loc 1 151 0 discriminator 4
 183 0048 0448     		ldr	r0, .L23
 184 004a FFF7FEFF 		bl	chSysHalt
 185              	.LVL23:
 186              		.loc 1 152 0 discriminator 4
 187 004e A568     		ldr	r5, [r4, #8]
 188 0050 2368     		ldr	r3, [r4]
 189 0052 002D     		cmp	r5, #0
 190 0054 E1DA     		bge	.L22
 191              	.L13:
 192              		.loc 1 152 0 is_stmt 0 discriminator 6
 193 0056 A342     		cmp	r3, r4
 194 0058 E5D1     		bne	.L15
 195 005a E0E7     		b	.L14
 196              	.L24:
 197              		.align	2
 198              	.L23:
 199 005c 00000000 		.word	.LANCHOR1
 200              		.cfi_endproc
 201              	.LFE140:
 202              		.size	chSemResetI, .-chSemResetI
 203              		.section	.text.chSemReset,"ax",%progbits
 204              		.align	1
 205              		.p2align 4,,15
 206              		.global	chSemReset
 207              		.syntax unified
 208              		.code	16
 209              		.thumb_func
 210              		.fpu softvfp
 211              		.type	chSemReset, %function
 212              	chSemReset:
 213              	.LFB139:
 214              		.loc 1 120 0 is_stmt 1
 215              		.cfi_startproc
 216              		@ args = 0, pretend = 0, frame = 0
 217              		@ frame_needed = 0, uses_anonymous_args = 0
 218              	.LVL24:
 219 0000 70B5     		push	{r4, r5, r6, lr}
 220              		.cfi_def_cfa_offset 16
 221              		.cfi_offset 4, -16
 222              		.cfi_offset 5, -12
 223              		.cfi_offset 6, -8
 224              		.cfi_offset 14, -4
 225              		.loc 1 120 0
 226 0002 0400     		movs	r4, r0
 227 0004 0D00     		movs	r5, r1
 228              	.LBB119:
ARM GAS  /var/folders/t8/16hdwfmd2fg_d3q6dgx6bpmw0000gn/T//cciGhf3R.s 			page 5


 229              	.LBB120:
 230              	.LBB121:
 231              	.LBB122:
 232              	.LBB123:
 233              		.file 3 "../../tmk_core/tool/chibios/ChibiOS/os/common/ext/CMSIS/include/cmsis_gcc.h"
 234              		.loc 3 71 0
 235              		.syntax divided
 236              	@ 71 "../../tmk_core/tool/chibios/ChibiOS/os/common/ext/CMSIS/include/cmsis_gcc.h" 1
 237 0006 72B6     		cpsid i
 238              	@ 0 "" 2
 239              		.thumb
 240              		.syntax unified
 241              	.LBE123:
 242              	.LBE122:
 243              	.LBE121:
 244              		.file 4 "../../tmk_core/tool/chibios/ChibiOS/os/rt/include/chsys.h"
 245              		.loc 4 378 0
 246 0008 FFF7FEFF 		bl	_dbg_check_lock
 247              	.LVL25:
 248              	.LBE120:
 249              	.LBE119:
 250              		.loc 1 123 0
 251 000c 2900     		movs	r1, r5
 252 000e 2000     		movs	r0, r4
 253 0010 FFF7FEFF 		bl	chSemResetI
 254              	.LVL26:
 255              		.loc 1 124 0
 256 0014 FFF7FEFF 		bl	chSchRescheduleS
 257              	.LVL27:
 258              	.LBB124:
 259              	.LBB125:
 260              		.loc 4 388 0
 261 0018 FFF7FEFF 		bl	_dbg_check_unlock
 262              	.LVL28:
 263              		.loc 4 395 0
 264 001c 074B     		ldr	r3, .L28
 265 001e 1A68     		ldr	r2, [r3]
 266 0020 9A42     		cmp	r2, r3
 267 0022 04D0     		beq	.L26
 268 0024 9B69     		ldr	r3, [r3, #24]
 269 0026 9968     		ldr	r1, [r3, #8]
 270 0028 9368     		ldr	r3, [r2, #8]
 271 002a 9942     		cmp	r1, r3
 272 002c 01D3     		bcc	.L27
 273              	.L26:
 274              	.LBB126:
 275              	.LBB127:
 276              	.LBB128:
 277              		.loc 3 60 0
 278              		.syntax divided
 279              	@ 60 "../../tmk_core/tool/chibios/ChibiOS/os/common/ext/CMSIS/include/cmsis_gcc.h" 1
 280 002e 62B6     		cpsie i
 281              	@ 0 "" 2
 282              		.thumb
 283              		.syntax unified
 284              	.LBE128:
 285              	.LBE127:
ARM GAS  /var/folders/t8/16hdwfmd2fg_d3q6dgx6bpmw0000gn/T//cciGhf3R.s 			page 6


 286              	.LBE126:
 287              	.LBE125:
 288              	.LBE124:
 289              		.loc 1 126 0
 290              		@ sp needed
 291              	.LVL29:
 292              	.LVL30:
 293 0030 70BD     		pop	{r4, r5, r6, pc}
 294              	.LVL31:
 295              	.L27:
 296              	.LBB130:
 297              	.LBB129:
 298              		.loc 4 395 0
 299 0032 0348     		ldr	r0, .L28+4
 300 0034 FFF7FEFF 		bl	chSysHalt
 301              	.LVL32:
 302 0038 F9E7     		b	.L26
 303              	.L29:
 304 003a C046     		.align	2
 305              	.L28:
 306 003c 00000000 		.word	ch
 307 0040 00000000 		.word	.LANCHOR2
 308              	.LBE129:
 309              	.LBE130:
 310              		.cfi_endproc
 311              	.LFE139:
 312              		.size	chSemReset, .-chSemReset
 313              		.section	.text.chSemWaitS,"ax",%progbits
 314              		.align	1
 315              		.p2align 4,,15
 316              		.global	chSemWaitS
 317              		.syntax unified
 318              		.code	16
 319              		.thumb_func
 320              		.fpu softvfp
 321              		.type	chSemWaitS, %function
 322              	chSemWaitS:
 323              	.LFB142:
 324              		.loc 1 197 0
 325              		.cfi_startproc
 326              		@ args = 0, pretend = 0, frame = 0
 327              		@ frame_needed = 0, uses_anonymous_args = 0
 328              	.LVL33:
 329 0000 70B5     		push	{r4, r5, r6, lr}
 330              		.cfi_def_cfa_offset 16
 331              		.cfi_offset 4, -16
 332              		.cfi_offset 5, -12
 333              		.cfi_offset 6, -8
 334              		.cfi_offset 14, -4
 335              		.loc 1 197 0
 336 0002 0400     		movs	r4, r0
 337              		.loc 1 199 0
 338 0004 FFF7FEFF 		bl	chDbgCheckClassS
 339              	.LVL34:
 340              		.loc 1 200 0
 341 0008 002C     		cmp	r4, #0
 342 000a 24D0     		beq	.L38
ARM GAS  /var/folders/t8/16hdwfmd2fg_d3q6dgx6bpmw0000gn/T//cciGhf3R.s 			page 7


 343              	.L31:
 344              		.loc 1 201 0 discriminator 1
 345 000c A368     		ldr	r3, [r4, #8]
 346 000e 2268     		ldr	r2, [r4]
 347 0010 002B     		cmp	r3, #0
 348 0012 0BDB     		blt	.L32
 349              		.loc 1 201 0 is_stmt 0 discriminator 3
 350 0014 A242     		cmp	r2, r4
 351 0016 03D0     		beq	.L34
 352              	.L33:
 353              		.loc 1 201 0 discriminator 7
 354 0018 1148     		ldr	r0, .L40
 355 001a FFF7FEFF 		bl	chSysHalt
 356              	.LVL35:
 357 001e A368     		ldr	r3, [r4, #8]
 358              	.L34:
 359              		.loc 1 205 0 is_stmt 1
 360 0020 013B     		subs	r3, r3, #1
 361 0022 A360     		str	r3, [r4, #8]
 362              		.loc 1 213 0
 363 0024 0020     		movs	r0, #0
 364              		.loc 1 205 0
 365 0026 002B     		cmp	r3, #0
 366 0028 07DB     		blt	.L39
 367              	.L30:
 368              		.loc 1 214 0
 369              		@ sp needed
 370              	.LVL36:
 371 002a 70BD     		pop	{r4, r5, r6, pc}
 372              	.LVL37:
 373              	.L32:
 374              		.loc 1 201 0 discriminator 6
 375 002c A242     		cmp	r2, r4
 376 002e F3D0     		beq	.L33
 377              		.loc 1 205 0
 378 0030 013B     		subs	r3, r3, #1
 379 0032 A360     		str	r3, [r4, #8]
 380              		.loc 1 213 0
 381 0034 0020     		movs	r0, #0
 382              		.loc 1 205 0
 383 0036 002B     		cmp	r3, #0
 384 0038 F7DA     		bge	.L30
 385              	.L39:
 386              	.LVL38:
 387              	.LBB143:
 388              	.LBB144:
 389              		.loc 1 206 0
 390 003a 0A4D     		ldr	r5, .L40+4
 391              	.LBB145:
 392              	.LBB146:
 393              		.loc 2 612 0
 394 003c 6268     		ldr	r2, [r4, #4]
 395              	.LBE146:
 396              	.LBE145:
 397              		.loc 1 206 0
 398 003e AB69     		ldr	r3, [r5, #24]
 399              		.loc 1 208 0
ARM GAS  /var/folders/t8/16hdwfmd2fg_d3q6dgx6bpmw0000gn/T//cciGhf3R.s 			page 8


 400 0040 0530     		adds	r0, r0, #5
 401              		.loc 1 206 0
 402 0042 5C62     		str	r4, [r3, #36]
 403              	.LVL39:
 404              	.LBB148:
 405              	.LBB147:
 406              		.loc 2 611 0
 407 0044 1C60     		str	r4, [r3]
 408              		.loc 2 612 0
 409 0046 5A60     		str	r2, [r3, #4]
 410              		.loc 2 613 0
 411 0048 1360     		str	r3, [r2]
 412              		.loc 2 614 0
 413 004a 6360     		str	r3, [r4, #4]
 414              	.LVL40:
 415              	.LBE147:
 416              	.LBE148:
 417              		.loc 1 208 0
 418 004c FFF7FEFF 		bl	chSchGoSleepS
 419              	.LVL41:
 420              		.loc 1 210 0
 421 0050 AB69     		ldr	r3, [r5, #24]
 422 0052 586A     		ldr	r0, [r3, #36]
 423              	.LVL42:
 424 0054 E9E7     		b	.L30
 425              	.L38:
 426              	.LBE144:
 427              	.LBE143:
 428              		.loc 1 200 0 discriminator 2
 429 0056 0248     		ldr	r0, .L40
 430 0058 FFF7FEFF 		bl	chSysHalt
 431              	.LVL43:
 432 005c D6E7     		b	.L31
 433              	.L41:
 434 005e C046     		.align	2
 435              	.L40:
 436 0060 00000000 		.word	.LANCHOR3
 437 0064 00000000 		.word	ch
 438              		.cfi_endproc
 439              	.LFE142:
 440              		.size	chSemWaitS, .-chSemWaitS
 441              		.section	.text.chSemWait,"ax",%progbits
 442              		.align	1
 443              		.p2align 4,,15
 444              		.global	chSemWait
 445              		.syntax unified
 446              		.code	16
 447              		.thumb_func
 448              		.fpu softvfp
 449              		.type	chSemWait, %function
 450              	chSemWait:
 451              	.LFB141:
 452              		.loc 1 175 0
 453              		.cfi_startproc
 454              		@ args = 0, pretend = 0, frame = 0
 455              		@ frame_needed = 0, uses_anonymous_args = 0
 456              	.LVL44:
ARM GAS  /var/folders/t8/16hdwfmd2fg_d3q6dgx6bpmw0000gn/T//cciGhf3R.s 			page 9


 457 0000 10B5     		push	{r4, lr}
 458              		.cfi_def_cfa_offset 8
 459              		.cfi_offset 4, -8
 460              		.cfi_offset 14, -4
 461              		.loc 1 175 0
 462 0002 0400     		movs	r4, r0
 463              	.LBB159:
 464              	.LBB160:
 465              	.LBB161:
 466              	.LBB162:
 467              	.LBB163:
 468              		.loc 3 71 0
 469              		.syntax divided
 470              	@ 71 "../../tmk_core/tool/chibios/ChibiOS/os/common/ext/CMSIS/include/cmsis_gcc.h" 1
 471 0004 72B6     		cpsid i
 472              	@ 0 "" 2
 473              		.thumb
 474              		.syntax unified
 475              	.LBE163:
 476              	.LBE162:
 477              	.LBE161:
 478              		.loc 4 378 0
 479 0006 FFF7FEFF 		bl	_dbg_check_lock
 480              	.LVL45:
 481              	.LBE160:
 482              	.LBE159:
 483              		.loc 1 179 0
 484 000a 2000     		movs	r0, r4
 485 000c FFF7FEFF 		bl	chSemWaitS
 486              	.LVL46:
 487 0010 0400     		movs	r4, r0
 488              	.LVL47:
 489              	.LBB164:
 490              	.LBB165:
 491              		.loc 4 388 0
 492 0012 FFF7FEFF 		bl	_dbg_check_unlock
 493              	.LVL48:
 494              		.loc 4 395 0
 495 0016 084B     		ldr	r3, .L45
 496 0018 1A68     		ldr	r2, [r3]
 497 001a 9A42     		cmp	r2, r3
 498 001c 04D0     		beq	.L43
 499 001e 9B69     		ldr	r3, [r3, #24]
 500 0020 9968     		ldr	r1, [r3, #8]
 501 0022 9368     		ldr	r3, [r2, #8]
 502 0024 9942     		cmp	r1, r3
 503 0026 02D3     		bcc	.L44
 504              	.L43:
 505              	.LBB166:
 506              	.LBB167:
 507              	.LBB168:
 508              		.loc 3 60 0
 509              		.syntax divided
 510              	@ 60 "../../tmk_core/tool/chibios/ChibiOS/os/common/ext/CMSIS/include/cmsis_gcc.h" 1
 511 0028 62B6     		cpsie i
 512              	@ 0 "" 2
 513              		.thumb
ARM GAS  /var/folders/t8/16hdwfmd2fg_d3q6dgx6bpmw0000gn/T//cciGhf3R.s 			page 10


 514              		.syntax unified
 515              	.LBE168:
 516              	.LBE167:
 517              	.LBE166:
 518              	.LBE165:
 519              	.LBE164:
 520              		.loc 1 183 0
 521 002a 2000     		movs	r0, r4
 522              		@ sp needed
 523              	.LVL49:
 524 002c 10BD     		pop	{r4, pc}
 525              	.LVL50:
 526              	.L44:
 527              	.LBB170:
 528              	.LBB169:
 529              		.loc 4 395 0
 530 002e 0348     		ldr	r0, .L45+4
 531 0030 FFF7FEFF 		bl	chSysHalt
 532              	.LVL51:
 533 0034 F8E7     		b	.L43
 534              	.L46:
 535 0036 C046     		.align	2
 536              	.L45:
 537 0038 00000000 		.word	ch
 538 003c 00000000 		.word	.LANCHOR2
 539              	.LBE169:
 540              	.LBE170:
 541              		.cfi_endproc
 542              	.LFE141:
 543              		.size	chSemWait, .-chSemWait
 544              		.section	.text.chSemWaitTimeoutS,"ax",%progbits
 545              		.align	1
 546              		.p2align 4,,15
 547              		.global	chSemWaitTimeoutS
 548              		.syntax unified
 549              		.code	16
 550              		.thumb_func
 551              		.fpu softvfp
 552              		.type	chSemWaitTimeoutS, %function
 553              	chSemWaitTimeoutS:
 554              	.LFB144:
 555              		.loc 1 264 0
 556              		.cfi_startproc
 557              		@ args = 0, pretend = 0, frame = 0
 558              		@ frame_needed = 0, uses_anonymous_args = 0
 559              	.LVL52:
 560 0000 70B5     		push	{r4, r5, r6, lr}
 561              		.cfi_def_cfa_offset 16
 562              		.cfi_offset 4, -16
 563              		.cfi_offset 5, -12
 564              		.cfi_offset 6, -8
 565              		.cfi_offset 14, -4
 566              		.loc 1 264 0
 567 0002 0400     		movs	r4, r0
 568 0004 0D00     		movs	r5, r1
 569              		.loc 1 266 0
 570 0006 FFF7FEFF 		bl	chDbgCheckClassS
ARM GAS  /var/folders/t8/16hdwfmd2fg_d3q6dgx6bpmw0000gn/T//cciGhf3R.s 			page 11


 571              	.LVL53:
 572              		.loc 1 267 0
 573 000a 002C     		cmp	r4, #0
 574 000c 25D0     		beq	.L56
 575              	.L48:
 576              		.loc 1 268 0 discriminator 1
 577 000e A368     		ldr	r3, [r4, #8]
 578 0010 2268     		ldr	r2, [r4]
 579 0012 002B     		cmp	r3, #0
 580 0014 0BDB     		blt	.L49
 581              		.loc 1 268 0 is_stmt 0 discriminator 3
 582 0016 A242     		cmp	r2, r4
 583 0018 03D0     		beq	.L51
 584              	.L50:
 585              		.loc 1 268 0 discriminator 7
 586 001a 1348     		ldr	r0, .L59
 587 001c FFF7FEFF 		bl	chSysHalt
 588              	.LVL54:
 589 0020 A368     		ldr	r3, [r4, #8]
 590              	.L51:
 591              		.loc 1 272 0 is_stmt 1
 592 0022 5A1E     		subs	r2, r3, #1
 593 0024 A260     		str	r2, [r4, #8]
 594              		.loc 1 284 0
 595 0026 0020     		movs	r0, #0
 596              		.loc 1 272 0
 597 0028 002A     		cmp	r2, #0
 598 002a 07DB     		blt	.L57
 599              	.L47:
 600              		.loc 1 285 0
 601              		@ sp needed
 602              	.LVL55:
 603              	.LVL56:
 604 002c 70BD     		pop	{r4, r5, r6, pc}
 605              	.LVL57:
 606              	.L49:
 607              		.loc 1 268 0 discriminator 6
 608 002e A242     		cmp	r2, r4
 609 0030 F3D0     		beq	.L50
 610              		.loc 1 272 0
 611 0032 5A1E     		subs	r2, r3, #1
 612 0034 A260     		str	r2, [r4, #8]
 613              		.loc 1 284 0
 614 0036 0020     		movs	r0, #0
 615              		.loc 1 272 0
 616 0038 002A     		cmp	r2, #0
 617 003a F7DA     		bge	.L47
 618              	.L57:
 619              		.loc 1 273 0
 620 003c 002D     		cmp	r5, #0
 621 003e 10D0     		beq	.L58
 622              	.LVL58:
 623              	.LBB183:
 624              	.LBB184:
 625              		.loc 1 278 0
 626 0040 0A4B     		ldr	r3, .L59+4
 627              	.LBB185:
ARM GAS  /var/folders/t8/16hdwfmd2fg_d3q6dgx6bpmw0000gn/T//cciGhf3R.s 			page 12


 628              	.LBB186:
 629              		.loc 2 612 0
 630 0042 6268     		ldr	r2, [r4, #4]
 631              	.LBE186:
 632              	.LBE185:
 633              		.loc 1 278 0
 634 0044 9B69     		ldr	r3, [r3, #24]
 635              		.loc 1 281 0
 636 0046 2900     		movs	r1, r5
 637              		.loc 1 278 0
 638 0048 5C62     		str	r4, [r3, #36]
 639              	.LVL59:
 640              	.LBB189:
 641              	.LBB187:
 642              		.loc 2 611 0
 643 004a 1C60     		str	r4, [r3]
 644              		.loc 2 612 0
 645 004c 5A60     		str	r2, [r3, #4]
 646              	.LBE187:
 647              	.LBE189:
 648              		.loc 1 281 0
 649 004e 0520     		movs	r0, #5
 650              	.LBB190:
 651              	.LBB188:
 652              		.loc 2 613 0
 653 0050 1360     		str	r3, [r2]
 654              		.loc 2 614 0
 655 0052 6360     		str	r3, [r4, #4]
 656              	.LVL60:
 657              	.LBE188:
 658              	.LBE190:
 659              		.loc 1 281 0
 660 0054 FFF7FEFF 		bl	chSchGoSleepTimeoutS
 661              	.LVL61:
 662 0058 E8E7     		b	.L47
 663              	.L56:
 664              	.LBE184:
 665              	.LBE183:
 666              		.loc 1 267 0 discriminator 2
 667 005a 0348     		ldr	r0, .L59
 668 005c FFF7FEFF 		bl	chSysHalt
 669              	.LVL62:
 670 0060 D5E7     		b	.L48
 671              	.L58:
 672              		.loc 1 274 0
 673 0062 A360     		str	r3, [r4, #8]
 674              		.loc 1 276 0
 675 0064 0138     		subs	r0, r0, #1
 676 0066 E1E7     		b	.L47
 677              	.L60:
 678              		.align	2
 679              	.L59:
 680 0068 00000000 		.word	.LANCHOR4
 681 006c 00000000 		.word	ch
 682              		.cfi_endproc
 683              	.LFE144:
 684              		.size	chSemWaitTimeoutS, .-chSemWaitTimeoutS
ARM GAS  /var/folders/t8/16hdwfmd2fg_d3q6dgx6bpmw0000gn/T//cciGhf3R.s 			page 13


 685              		.section	.text.chSemWaitTimeout,"ax",%progbits
 686              		.align	1
 687              		.p2align 4,,15
 688              		.global	chSemWaitTimeout
 689              		.syntax unified
 690              		.code	16
 691              		.thumb_func
 692              		.fpu softvfp
 693              		.type	chSemWaitTimeout, %function
 694              	chSemWaitTimeout:
 695              	.LFB143:
 696              		.loc 1 235 0
 697              		.cfi_startproc
 698              		@ args = 0, pretend = 0, frame = 0
 699              		@ frame_needed = 0, uses_anonymous_args = 0
 700              	.LVL63:
 701 0000 70B5     		push	{r4, r5, r6, lr}
 702              		.cfi_def_cfa_offset 16
 703              		.cfi_offset 4, -16
 704              		.cfi_offset 5, -12
 705              		.cfi_offset 6, -8
 706              		.cfi_offset 14, -4
 707              		.loc 1 235 0
 708 0002 0400     		movs	r4, r0
 709 0004 0D00     		movs	r5, r1
 710              	.LBB201:
 711              	.LBB202:
 712              	.LBB203:
 713              	.LBB204:
 714              	.LBB205:
 715              		.loc 3 71 0
 716              		.syntax divided
 717              	@ 71 "../../tmk_core/tool/chibios/ChibiOS/os/common/ext/CMSIS/include/cmsis_gcc.h" 1
 718 0006 72B6     		cpsid i
 719              	@ 0 "" 2
 720              		.thumb
 721              		.syntax unified
 722              	.LBE205:
 723              	.LBE204:
 724              	.LBE203:
 725              		.loc 4 378 0
 726 0008 FFF7FEFF 		bl	_dbg_check_lock
 727              	.LVL64:
 728              	.LBE202:
 729              	.LBE201:
 730              		.loc 1 239 0
 731 000c 2900     		movs	r1, r5
 732 000e 2000     		movs	r0, r4
 733 0010 FFF7FEFF 		bl	chSemWaitTimeoutS
 734              	.LVL65:
 735 0014 0400     		movs	r4, r0
 736              	.LVL66:
 737              	.LBB206:
 738              	.LBB207:
 739              		.loc 4 388 0
 740 0016 FFF7FEFF 		bl	_dbg_check_unlock
 741              	.LVL67:
ARM GAS  /var/folders/t8/16hdwfmd2fg_d3q6dgx6bpmw0000gn/T//cciGhf3R.s 			page 14


 742              		.loc 4 395 0
 743 001a 084B     		ldr	r3, .L64
 744 001c 1A68     		ldr	r2, [r3]
 745 001e 9A42     		cmp	r2, r3
 746 0020 04D0     		beq	.L62
 747 0022 9B69     		ldr	r3, [r3, #24]
 748 0024 9968     		ldr	r1, [r3, #8]
 749 0026 9368     		ldr	r3, [r2, #8]
 750 0028 9942     		cmp	r1, r3
 751 002a 02D3     		bcc	.L63
 752              	.L62:
 753              	.LBB208:
 754              	.LBB209:
 755              	.LBB210:
 756              		.loc 3 60 0
 757              		.syntax divided
 758              	@ 60 "../../tmk_core/tool/chibios/ChibiOS/os/common/ext/CMSIS/include/cmsis_gcc.h" 1
 759 002c 62B6     		cpsie i
 760              	@ 0 "" 2
 761              		.thumb
 762              		.syntax unified
 763              	.LBE210:
 764              	.LBE209:
 765              	.LBE208:
 766              	.LBE207:
 767              	.LBE206:
 768              		.loc 1 243 0
 769 002e 2000     		movs	r0, r4
 770              		@ sp needed
 771              	.LVL68:
 772              	.LVL69:
 773 0030 70BD     		pop	{r4, r5, r6, pc}
 774              	.LVL70:
 775              	.L63:
 776              	.LBB212:
 777              	.LBB211:
 778              		.loc 4 395 0
 779 0032 0348     		ldr	r0, .L64+4
 780 0034 FFF7FEFF 		bl	chSysHalt
 781              	.LVL71:
 782 0038 F8E7     		b	.L62
 783              	.L65:
 784 003a C046     		.align	2
 785              	.L64:
 786 003c 00000000 		.word	ch
 787 0040 00000000 		.word	.LANCHOR2
 788              	.LBE211:
 789              	.LBE212:
 790              		.cfi_endproc
 791              	.LFE143:
 792              		.size	chSemWaitTimeout, .-chSemWaitTimeout
 793              		.section	.text.chSemSignal,"ax",%progbits
 794              		.align	1
 795              		.p2align 4,,15
 796              		.global	chSemSignal
 797              		.syntax unified
 798              		.code	16
ARM GAS  /var/folders/t8/16hdwfmd2fg_d3q6dgx6bpmw0000gn/T//cciGhf3R.s 			page 15


 799              		.thumb_func
 800              		.fpu softvfp
 801              		.type	chSemSignal, %function
 802              	chSemSignal:
 803              	.LFB145:
 804              		.loc 1 294 0
 805              		.cfi_startproc
 806              		@ args = 0, pretend = 0, frame = 0
 807              		@ frame_needed = 0, uses_anonymous_args = 0
 808              	.LVL72:
 809 0000 10B5     		push	{r4, lr}
 810              		.cfi_def_cfa_offset 8
 811              		.cfi_offset 4, -8
 812              		.cfi_offset 14, -4
 813              		.loc 1 294 0
 814 0002 041E     		subs	r4, r0, #0
 815              		.loc 1 296 0
 816 0004 2CD0     		beq	.L73
 817              	.LVL73:
 818              	.L67:
 819              		.loc 1 297 0 discriminator 1
 820 0006 A268     		ldr	r2, [r4, #8]
 821 0008 2368     		ldr	r3, [r4]
 822 000a 002A     		cmp	r2, #0
 823 000c 1DDB     		blt	.L68
 824              		.loc 1 297 0 is_stmt 0 discriminator 3
 825 000e A342     		cmp	r3, r4
 826 0010 02D0     		beq	.L70
 827              	.L69:
 828              		.loc 1 297 0 discriminator 7
 829 0012 1548     		ldr	r0, .L76
 830 0014 FFF7FEFF 		bl	chSysHalt
 831              	.LVL74:
 832              	.L70:
 833              	.LBB229:
 834              	.LBB230:
 835              	.LBB231:
 836              	.LBB232:
 837              	.LBB233:
 838              		.loc 3 71 0 is_stmt 1
 839              		.syntax divided
 840              	@ 71 "../../tmk_core/tool/chibios/ChibiOS/os/common/ext/CMSIS/include/cmsis_gcc.h" 1
 841 0018 72B6     		cpsid i
 842              	@ 0 "" 2
 843              		.thumb
 844              		.syntax unified
 845              	.LBE233:
 846              	.LBE232:
 847              	.LBE231:
 848              		.loc 4 378 0
 849 001a FFF7FEFF 		bl	_dbg_check_lock
 850              	.LVL75:
 851              	.LBE230:
 852              	.LBE229:
 853              		.loc 1 302 0
 854 001e A368     		ldr	r3, [r4, #8]
 855 0020 0133     		adds	r3, r3, #1
ARM GAS  /var/folders/t8/16hdwfmd2fg_d3q6dgx6bpmw0000gn/T//cciGhf3R.s 			page 16


 856 0022 A360     		str	r3, [r4, #8]
 857 0024 002B     		cmp	r3, #0
 858 0026 13DD     		ble	.L74
 859              	.L71:
 860              	.LBB234:
 861              	.LBB235:
 862              		.loc 4 388 0
 863 0028 FFF7FEFF 		bl	_dbg_check_unlock
 864              	.LVL76:
 865              		.loc 4 395 0
 866 002c 0F4B     		ldr	r3, .L76+4
 867 002e 1A68     		ldr	r2, [r3]
 868 0030 9A42     		cmp	r2, r3
 869 0032 04D0     		beq	.L72
 870 0034 9B69     		ldr	r3, [r3, #24]
 871 0036 9968     		ldr	r1, [r3, #8]
 872 0038 9368     		ldr	r3, [r2, #8]
 873 003a 9942     		cmp	r1, r3
 874 003c 01D3     		bcc	.L75
 875              	.L72:
 876              	.LBB236:
 877              	.LBB237:
 878              	.LBB238:
 879              		.loc 3 60 0
 880              		.syntax divided
 881              	@ 60 "../../tmk_core/tool/chibios/ChibiOS/os/common/ext/CMSIS/include/cmsis_gcc.h" 1
 882 003e 62B6     		cpsie i
 883              	@ 0 "" 2
 884              		.thumb
 885              		.syntax unified
 886              	.LBE238:
 887              	.LBE237:
 888              	.LBE236:
 889              	.LBE235:
 890              	.LBE234:
 891              		.loc 1 306 0
 892              		@ sp needed
 893              	.LVL77:
 894 0040 10BD     		pop	{r4, pc}
 895              	.LVL78:
 896              	.L75:
 897              	.LBB240:
 898              	.LBB239:
 899              		.loc 4 395 0
 900 0042 0B48     		ldr	r0, .L76+8
 901 0044 FFF7FEFF 		bl	chSysHalt
 902              	.LVL79:
 903 0048 F9E7     		b	.L72
 904              	.L68:
 905              	.LBE239:
 906              	.LBE240:
 907              		.loc 1 297 0 discriminator 6
 908 004a A342     		cmp	r3, r4
 909 004c E4D1     		bne	.L70
 910 004e E0E7     		b	.L69
 911              	.L74:
 912              	.LVL80:
ARM GAS  /var/folders/t8/16hdwfmd2fg_d3q6dgx6bpmw0000gn/T//cciGhf3R.s 			page 17


 913              	.LBB241:
 914              	.LBB242:
 915              		.loc 2 618 0
 916 0050 2068     		ldr	r0, [r4]
 917              	.LVL81:
 918              	.LBE242:
 919              	.LBE241:
 920              		.loc 1 303 0
 921 0052 0021     		movs	r1, #0
 922              	.LBB244:
 923              	.LBB243:
 924              		.loc 2 620 0
 925 0054 0368     		ldr	r3, [r0]
 926 0056 2360     		str	r3, [r4]
 927              		.loc 2 621 0
 928 0058 5C60     		str	r4, [r3, #4]
 929              	.LVL82:
 930              	.LBE243:
 931              	.LBE244:
 932              		.loc 1 303 0
 933 005a FFF7FEFF 		bl	chSchWakeupS
 934              	.LVL83:
 935 005e E3E7     		b	.L71
 936              	.LVL84:
 937              	.L73:
 938              		.loc 1 296 0 discriminator 2
 939 0060 0148     		ldr	r0, .L76
 940              	.LVL85:
 941 0062 FFF7FEFF 		bl	chSysHalt
 942              	.LVL86:
 943 0066 CEE7     		b	.L67
 944              	.L77:
 945              		.align	2
 946              	.L76:
 947 0068 00000000 		.word	.LANCHOR5
 948 006c 00000000 		.word	ch
 949 0070 00000000 		.word	.LANCHOR2
 950              		.cfi_endproc
 951              	.LFE145:
 952              		.size	chSemSignal, .-chSemSignal
 953              		.section	.text.chSemSignalI,"ax",%progbits
 954              		.align	1
 955              		.p2align 4,,15
 956              		.global	chSemSignalI
 957              		.syntax unified
 958              		.code	16
 959              		.thumb_func
 960              		.fpu softvfp
 961              		.type	chSemSignalI, %function
 962              	chSemSignalI:
 963              	.LFB146:
 964              		.loc 1 319 0
 965              		.cfi_startproc
 966              		@ args = 0, pretend = 0, frame = 0
 967              		@ frame_needed = 0, uses_anonymous_args = 0
 968              	.LVL87:
 969 0000 10B5     		push	{r4, lr}
ARM GAS  /var/folders/t8/16hdwfmd2fg_d3q6dgx6bpmw0000gn/T//cciGhf3R.s 			page 18


 970              		.cfi_def_cfa_offset 8
 971              		.cfi_offset 4, -8
 972              		.cfi_offset 14, -4
 973              		.loc 1 319 0
 974 0002 0400     		movs	r4, r0
 975              		.loc 1 321 0
 976 0004 FFF7FEFF 		bl	chDbgCheckClassI
 977              	.LVL88:
 978              		.loc 1 322 0
 979 0008 002C     		cmp	r4, #0
 980 000a 1DD0     		beq	.L85
 981              	.L79:
 982              		.loc 1 323 0 discriminator 1
 983 000c A368     		ldr	r3, [r4, #8]
 984 000e 2268     		ldr	r2, [r4]
 985 0010 002B     		cmp	r3, #0
 986 0012 0ADB     		blt	.L80
 987              		.loc 1 323 0 is_stmt 0 discriminator 3
 988 0014 A242     		cmp	r2, r4
 989 0016 03D0     		beq	.L82
 990              	.L81:
 991              		.loc 1 323 0 discriminator 7
 992 0018 0D48     		ldr	r0, .L87
 993 001a FFF7FEFF 		bl	chSysHalt
 994              	.LVL89:
 995 001e A368     		ldr	r3, [r4, #8]
 996              	.L82:
 997              		.loc 1 327 0 is_stmt 1
 998 0020 0133     		adds	r3, r3, #1
 999 0022 A360     		str	r3, [r4, #8]
 1000 0024 002B     		cmp	r3, #0
 1001 0026 06DD     		ble	.L86
 1002              	.L78:
 1003              		.loc 1 334 0
 1004              		@ sp needed
 1005              	.LVL90:
 1006 0028 10BD     		pop	{r4, pc}
 1007              	.LVL91:
 1008              	.L80:
 1009              		.loc 1 323 0 discriminator 6
 1010 002a A242     		cmp	r2, r4
 1011 002c F4D0     		beq	.L81
 1012              		.loc 1 327 0
 1013 002e 0133     		adds	r3, r3, #1
 1014 0030 A360     		str	r3, [r4, #8]
 1015 0032 002B     		cmp	r3, #0
 1016 0034 F8DC     		bgt	.L78
 1017              	.L86:
 1018              	.LVL92:
 1019              	.LBB245:
 1020              	.LBB246:
 1021              	.LBB247:
 1022              		.loc 2 618 0
 1023 0036 2068     		ldr	r0, [r4]
 1024              	.LVL93:
 1025              		.loc 2 620 0
 1026 0038 0368     		ldr	r3, [r0]
ARM GAS  /var/folders/t8/16hdwfmd2fg_d3q6dgx6bpmw0000gn/T//cciGhf3R.s 			page 19


 1027 003a 2360     		str	r3, [r4]
 1028              		.loc 2 621 0
 1029 003c 5C60     		str	r4, [r3, #4]
 1030              	.LVL94:
 1031              	.LBE247:
 1032              	.LBE246:
 1033              		.loc 1 331 0
 1034 003e 0023     		movs	r3, #0
 1035 0040 4362     		str	r3, [r0, #36]
 1036              		.loc 1 332 0
 1037 0042 FFF7FEFF 		bl	chSchReadyI
 1038              	.LVL95:
 1039              	.LBE245:
 1040              		.loc 1 334 0
 1041 0046 EFE7     		b	.L78
 1042              	.L85:
 1043              		.loc 1 322 0 discriminator 2
 1044 0048 0148     		ldr	r0, .L87
 1045 004a FFF7FEFF 		bl	chSysHalt
 1046              	.LVL96:
 1047 004e DDE7     		b	.L79
 1048              	.L88:
 1049              		.align	2
 1050              	.L87:
 1051 0050 00000000 		.word	.LANCHOR6
 1052              		.cfi_endproc
 1053              	.LFE146:
 1054              		.size	chSemSignalI, .-chSemSignalI
 1055              		.section	.text.chSemAddCounterI,"ax",%progbits
 1056              		.align	1
 1057              		.p2align 4,,15
 1058              		.global	chSemAddCounterI
 1059              		.syntax unified
 1060              		.code	16
 1061              		.thumb_func
 1062              		.fpu softvfp
 1063              		.type	chSemAddCounterI, %function
 1064              	chSemAddCounterI:
 1065              	.LFB147:
 1066              		.loc 1 349 0
 1067              		.cfi_startproc
 1068              		@ args = 0, pretend = 0, frame = 0
 1069              		@ frame_needed = 0, uses_anonymous_args = 0
 1070              	.LVL97:
 1071 0000 70B5     		push	{r4, r5, r6, lr}
 1072              		.cfi_def_cfa_offset 16
 1073              		.cfi_offset 4, -16
 1074              		.cfi_offset 5, -12
 1075              		.cfi_offset 6, -8
 1076              		.cfi_offset 14, -4
 1077              		.loc 1 349 0
 1078 0002 0400     		movs	r4, r0
 1079 0004 0D00     		movs	r5, r1
 1080              		.loc 1 351 0
 1081 0006 FFF7FEFF 		bl	chDbgCheckClassI
 1082              	.LVL98:
 1083              		.loc 1 352 0
ARM GAS  /var/folders/t8/16hdwfmd2fg_d3q6dgx6bpmw0000gn/T//cciGhf3R.s 			page 20


 1084 000a 002C     		cmp	r4, #0
 1085 000c 21D0     		beq	.L90
 1086              		.loc 1 352 0 is_stmt 0 discriminator 3
 1087 000e 002D     		cmp	r5, #0
 1088 0010 1FDD     		ble	.L90
 1089              		.loc 1 353 0 is_stmt 1 discriminator 1
 1090 0012 A268     		ldr	r2, [r4, #8]
 1091 0014 2368     		ldr	r3, [r4]
 1092 0016 002A     		cmp	r2, #0
 1093 0018 22DB     		blt	.L92
 1094              	.L102:
 1095              		.loc 1 353 0 is_stmt 0 discriminator 3
 1096 001a A342     		cmp	r3, r4
 1097 001c 02D0     		beq	.L94
 1098              	.L93:
 1099              		.loc 1 353 0 discriminator 7
 1100 001e 1248     		ldr	r0, .L103
 1101 0020 FFF7FEFF 		bl	chSysHalt
 1102              	.LVL99:
 1103              	.L94:
 1104              		.loc 1 357 0 is_stmt 1
 1105 0024 002D     		cmp	r5, #0
 1106 0026 13DD     		ble	.L89
 1107              		.loc 1 359 0
 1108 0028 0026     		movs	r6, #0
 1109 002a 02E0     		b	.L97
 1110              	.L96:
 1111              		.loc 1 361 0
 1112 002c 013D     		subs	r5, r5, #1
 1113              	.LVL100:
 1114              		.loc 1 357 0
 1115 002e 002D     		cmp	r5, #0
 1116 0030 0ED0     		beq	.L89
 1117              	.L97:
 1118              		.loc 1 358 0
 1119 0032 A368     		ldr	r3, [r4, #8]
 1120 0034 0133     		adds	r3, r3, #1
 1121 0036 A360     		str	r3, [r4, #8]
 1122 0038 002B     		cmp	r3, #0
 1123 003a F7DC     		bgt	.L96
 1124              	.LVL101:
 1125              	.LBB248:
 1126              	.LBB249:
 1127              		.loc 2 618 0
 1128 003c 2068     		ldr	r0, [r4]
 1129              	.LVL102:
 1130              	.LBE249:
 1131              	.LBE248:
 1132              		.loc 1 361 0
 1133 003e 013D     		subs	r5, r5, #1
 1134              	.LVL103:
 1135              	.LBB251:
 1136              	.LBB250:
 1137              		.loc 2 620 0
 1138 0040 0368     		ldr	r3, [r0]
 1139 0042 2360     		str	r3, [r4]
 1140              		.loc 2 621 0
ARM GAS  /var/folders/t8/16hdwfmd2fg_d3q6dgx6bpmw0000gn/T//cciGhf3R.s 			page 21


 1141 0044 5C60     		str	r4, [r3, #4]
 1142              	.LVL104:
 1143              	.LBE250:
 1144              	.LBE251:
 1145              		.loc 1 359 0
 1146 0046 FFF7FEFF 		bl	chSchReadyI
 1147              	.LVL105:
 1148 004a 4662     		str	r6, [r0, #36]
 1149              		.loc 1 357 0
 1150 004c 002D     		cmp	r5, #0
 1151 004e F0D1     		bne	.L97
 1152              	.L89:
 1153              		.loc 1 363 0
 1154              		@ sp needed
 1155              	.LVL106:
 1156              	.LVL107:
 1157 0050 70BD     		pop	{r4, r5, r6, pc}
 1158              	.LVL108:
 1159              	.L90:
 1160              		.loc 1 352 0 discriminator 4
 1161 0052 0548     		ldr	r0, .L103
 1162 0054 FFF7FEFF 		bl	chSysHalt
 1163              	.LVL109:
 1164              		.loc 1 353 0 discriminator 4
 1165 0058 A268     		ldr	r2, [r4, #8]
 1166 005a 2368     		ldr	r3, [r4]
 1167 005c 002A     		cmp	r2, #0
 1168 005e DCDA     		bge	.L102
 1169              	.L92:
 1170              		.loc 1 353 0 is_stmt 0 discriminator 6
 1171 0060 A342     		cmp	r3, r4
 1172 0062 DFD1     		bne	.L94
 1173 0064 DBE7     		b	.L93
 1174              	.L104:
 1175 0066 C046     		.align	2
 1176              	.L103:
 1177 0068 00000000 		.word	.LANCHOR7
 1178              		.cfi_endproc
 1179              	.LFE147:
 1180              		.size	chSemAddCounterI, .-chSemAddCounterI
 1181              		.section	.text.chSemSignalWait,"ax",%progbits
 1182              		.align	1
 1183              		.p2align 4,,15
 1184              		.global	chSemSignalWait
 1185              		.syntax unified
 1186              		.code	16
 1187              		.thumb_func
 1188              		.fpu softvfp
 1189              		.type	chSemSignalWait, %function
 1190              	chSemSignalWait:
 1191              	.LFB148:
 1192              		.loc 1 378 0 is_stmt 1
 1193              		.cfi_startproc
 1194              		@ args = 0, pretend = 0, frame = 0
 1195              		@ frame_needed = 0, uses_anonymous_args = 0
 1196              	.LVL110:
 1197 0000 70B5     		push	{r4, r5, r6, lr}
ARM GAS  /var/folders/t8/16hdwfmd2fg_d3q6dgx6bpmw0000gn/T//cciGhf3R.s 			page 22


 1198              		.cfi_def_cfa_offset 16
 1199              		.cfi_offset 4, -16
 1200              		.cfi_offset 5, -12
 1201              		.cfi_offset 6, -8
 1202              		.cfi_offset 14, -4
 1203              		.loc 1 378 0
 1204 0002 0500     		movs	r5, r0
 1205 0004 0C00     		movs	r4, r1
 1206              		.loc 1 381 0
 1207 0006 0028     		cmp	r0, #0
 1208 0008 3BD0     		beq	.L106
 1209              		.loc 1 381 0 is_stmt 0 discriminator 3
 1210 000a 0029     		cmp	r1, #0
 1211 000c 39D0     		beq	.L106
 1212              	.LVL111:
 1213              	.L107:
 1214              		.loc 1 382 0 is_stmt 1 discriminator 1
 1215 000e AA68     		ldr	r2, [r5, #8]
 1216 0010 2B68     		ldr	r3, [r5]
 1217 0012 002A     		cmp	r2, #0
 1218 0014 32DB     		blt	.L108
 1219              		.loc 1 382 0 is_stmt 0 discriminator 3
 1220 0016 AB42     		cmp	r3, r5
 1221 0018 02D0     		beq	.L110
 1222              	.L109:
 1223              		.loc 1 382 0 discriminator 7
 1224 001a 2748     		ldr	r0, .L124
 1225 001c FFF7FEFF 		bl	chSysHalt
 1226              	.LVL112:
 1227              	.L110:
 1228              		.loc 1 385 0 is_stmt 1 discriminator 1
 1229 0020 A268     		ldr	r2, [r4, #8]
 1230 0022 2368     		ldr	r3, [r4]
 1231 0024 002A     		cmp	r2, #0
 1232 0026 26DB     		blt	.L111
 1233              		.loc 1 385 0 is_stmt 0 discriminator 3
 1234 0028 A342     		cmp	r3, r4
 1235 002a 02D0     		beq	.L113
 1236              	.L112:
 1237              		.loc 1 385 0 discriminator 7
 1238 002c 2248     		ldr	r0, .L124
 1239 002e FFF7FEFF 		bl	chSysHalt
 1240              	.LVL113:
 1241              	.L113:
 1242              	.LBB275:
 1243              	.LBB276:
 1244              	.LBB277:
 1245              	.LBB278:
 1246              	.LBB279:
 1247              		.loc 3 71 0 is_stmt 1
 1248              		.syntax divided
 1249              	@ 71 "../../tmk_core/tool/chibios/ChibiOS/os/common/ext/CMSIS/include/cmsis_gcc.h" 1
 1250 0032 72B6     		cpsid i
 1251              	@ 0 "" 2
 1252              		.thumb
 1253              		.syntax unified
 1254              	.LBE279:
ARM GAS  /var/folders/t8/16hdwfmd2fg_d3q6dgx6bpmw0000gn/T//cciGhf3R.s 			page 23


 1255              	.LBE278:
 1256              	.LBE277:
 1257              		.loc 4 378 0
 1258 0034 FFF7FEFF 		bl	_dbg_check_lock
 1259              	.LVL114:
 1260              	.LBE276:
 1261              	.LBE275:
 1262              		.loc 1 390 0
 1263 0038 AB68     		ldr	r3, [r5, #8]
 1264 003a 0133     		adds	r3, r3, #1
 1265 003c AB60     		str	r3, [r5, #8]
 1266 003e 002B     		cmp	r3, #0
 1267 0040 30DD     		ble	.L121
 1268              	.L114:
 1269              		.loc 1 393 0
 1270 0042 A368     		ldr	r3, [r4, #8]
 1271 0044 013B     		subs	r3, r3, #1
 1272 0046 A360     		str	r3, [r4, #8]
 1273 0048 002B     		cmp	r3, #0
 1274 004a 1EDB     		blt	.L122
 1275              		.loc 1 402 0
 1276 004c 0024     		movs	r4, #0
 1277              	.LVL115:
 1278              		.loc 1 401 0
 1279 004e FFF7FEFF 		bl	chSchRescheduleS
 1280              	.LVL116:
 1281 0052 1A4D     		ldr	r5, .L124+4
 1282              	.LVL117:
 1283              	.L116:
 1284              	.LBB280:
 1285              	.LBB281:
 1286              		.loc 4 388 0
 1287 0054 FFF7FEFF 		bl	_dbg_check_unlock
 1288              	.LVL118:
 1289              		.loc 4 395 0
 1290 0058 2B68     		ldr	r3, [r5]
 1291 005a AB42     		cmp	r3, r5
 1292 005c 04D0     		beq	.L117
 1293 005e AA69     		ldr	r2, [r5, #24]
 1294 0060 9B68     		ldr	r3, [r3, #8]
 1295 0062 9268     		ldr	r2, [r2, #8]
 1296 0064 9A42     		cmp	r2, r3
 1297 0066 02D3     		bcc	.L123
 1298              	.L117:
 1299              	.LBB282:
 1300              	.LBB283:
 1301              	.LBB284:
 1302              		.loc 3 60 0
 1303              		.syntax divided
 1304              	@ 60 "../../tmk_core/tool/chibios/ChibiOS/os/common/ext/CMSIS/include/cmsis_gcc.h" 1
 1305 0068 62B6     		cpsie i
 1306              	@ 0 "" 2
 1307              		.thumb
 1308              		.syntax unified
 1309              	.LBE284:
 1310              	.LBE283:
 1311              	.LBE282:
ARM GAS  /var/folders/t8/16hdwfmd2fg_d3q6dgx6bpmw0000gn/T//cciGhf3R.s 			page 24


 1312              	.LBE281:
 1313              	.LBE280:
 1314              		.loc 1 407 0
 1315 006a 2000     		movs	r0, r4
 1316              		@ sp needed
 1317              	.LVL119:
 1318 006c 70BD     		pop	{r4, r5, r6, pc}
 1319              	.LVL120:
 1320              	.L123:
 1321              	.LBB286:
 1322              	.LBB285:
 1323              		.loc 4 395 0
 1324 006e 1448     		ldr	r0, .L124+8
 1325 0070 FFF7FEFF 		bl	chSysHalt
 1326              	.LVL121:
 1327 0074 F8E7     		b	.L117
 1328              	.LVL122:
 1329              	.L111:
 1330              	.LBE285:
 1331              	.LBE286:
 1332              		.loc 1 385 0 discriminator 6
 1333 0076 A342     		cmp	r3, r4
 1334 0078 DBD1     		bne	.L113
 1335 007a D7E7     		b	.L112
 1336              	.L108:
 1337              		.loc 1 382 0 discriminator 6
 1338 007c AB42     		cmp	r3, r5
 1339 007e CFD1     		bne	.L110
 1340 0080 CBE7     		b	.L109
 1341              	.LVL123:
 1342              	.L106:
 1343              		.loc 1 381 0 discriminator 4
 1344 0082 0D48     		ldr	r0, .L124
 1345              	.LVL124:
 1346 0084 FFF7FEFF 		bl	chSysHalt
 1347              	.LVL125:
 1348 0088 C1E7     		b	.L107
 1349              	.L122:
 1350              	.LBB287:
 1351              		.loc 1 394 0
 1352 008a 0C4D     		ldr	r5, .L124+4
 1353              	.LVL126:
 1354              	.LBB288:
 1355              	.LBB289:
 1356              		.loc 2 612 0
 1357 008c 6368     		ldr	r3, [r4, #4]
 1358              	.LBE289:
 1359              	.LBE288:
 1360              		.loc 1 394 0
 1361 008e AE69     		ldr	r6, [r5, #24]
 1362              	.LVL127:
 1363              		.loc 1 397 0
 1364 0090 0520     		movs	r0, #5
 1365              	.LBB291:
 1366              	.LBB290:
 1367              		.loc 2 611 0
 1368 0092 3460     		str	r4, [r6]
ARM GAS  /var/folders/t8/16hdwfmd2fg_d3q6dgx6bpmw0000gn/T//cciGhf3R.s 			page 25


 1369              		.loc 2 612 0
 1370 0094 7360     		str	r3, [r6, #4]
 1371              		.loc 2 613 0
 1372 0096 1E60     		str	r6, [r3]
 1373              		.loc 2 614 0
 1374 0098 6660     		str	r6, [r4, #4]
 1375              	.LVL128:
 1376              	.LBE290:
 1377              	.LBE291:
 1378              		.loc 1 396 0
 1379 009a 7462     		str	r4, [r6, #36]
 1380              		.loc 1 397 0
 1381 009c FFF7FEFF 		bl	chSchGoSleepS
 1382              	.LVL129:
 1383              		.loc 1 398 0
 1384 00a0 746A     		ldr	r4, [r6, #36]
 1385              	.LVL130:
 1386              	.LBE287:
 1387 00a2 D7E7     		b	.L116
 1388              	.LVL131:
 1389              	.L121:
 1390              	.LBB292:
 1391              	.LBB293:
 1392              		.loc 2 618 0
 1393 00a4 2868     		ldr	r0, [r5]
 1394              	.LVL132:
 1395              		.loc 2 620 0
 1396 00a6 0368     		ldr	r3, [r0]
 1397 00a8 2B60     		str	r3, [r5]
 1398              		.loc 2 621 0
 1399 00aa 5D60     		str	r5, [r3, #4]
 1400              	.LVL133:
 1401              	.LBE293:
 1402              	.LBE292:
 1403              		.loc 1 391 0
 1404 00ac FFF7FEFF 		bl	chSchReadyI
 1405              	.LVL134:
 1406 00b0 0023     		movs	r3, #0
 1407 00b2 4362     		str	r3, [r0, #36]
 1408 00b4 C5E7     		b	.L114
 1409              	.L125:
 1410 00b6 C046     		.align	2
 1411              	.L124:
 1412 00b8 00000000 		.word	.LANCHOR8
 1413 00bc 00000000 		.word	ch
 1414 00c0 00000000 		.word	.LANCHOR2
 1415              		.cfi_endproc
 1416              	.LFE148:
 1417              		.size	chSemSignalWait, .-chSemSignalWait
 1418              		.section	.rodata.__func__.5043,"a",%progbits
 1419              		.align	2
 1420              		.set	.LANCHOR2,. + 0
 1421              		.type	__func__.5043, %object
 1422              		.size	__func__.5043, 12
 1423              	__func__.5043:
 1424 0000 63685379 		.ascii	"chSysUnlock\000"
 1424      73556E6C 
ARM GAS  /var/folders/t8/16hdwfmd2fg_d3q6dgx6bpmw0000gn/T//cciGhf3R.s 			page 26


 1424      6F636B00 
 1425              		.section	.rodata.__func__.5718,"a",%progbits
 1426              		.align	2
 1427              		.set	.LANCHOR0,. + 0
 1428              		.type	__func__.5718, %object
 1429              		.size	__func__.5718, 16
 1430              	__func__.5718:
 1431 0000 63685365 		.ascii	"chSemObjectInit\000"
 1431      6D4F626A 
 1431      65637449 
 1431      6E697400 
 1432              		.section	.rodata.__func__.5728,"a",%progbits
 1433              		.align	2
 1434              		.set	.LANCHOR1,. + 0
 1435              		.type	__func__.5728, %object
 1436              		.size	__func__.5728, 12
 1437              	__func__.5728:
 1438 0000 63685365 		.ascii	"chSemResetI\000"
 1438      6D526573 
 1438      65744900 
 1439              		.section	.rodata.__func__.5739,"a",%progbits
 1440              		.align	2
 1441              		.set	.LANCHOR3,. + 0
 1442              		.type	__func__.5739, %object
 1443              		.size	__func__.5739, 11
 1444              	__func__.5739:
 1445 0000 63685365 		.ascii	"chSemWaitS\000"
 1445      6D576169 
 1445      745300
 1446              		.section	.rodata.__func__.5749,"a",%progbits
 1447              		.align	2
 1448              		.set	.LANCHOR4,. + 0
 1449              		.type	__func__.5749, %object
 1450              		.size	__func__.5749, 18
 1451              	__func__.5749:
 1452 0000 63685365 		.ascii	"chSemWaitTimeoutS\000"
 1452      6D576169 
 1452      7454696D 
 1452      656F7574 
 1452      5300
 1453              		.section	.rodata.__func__.5753,"a",%progbits
 1454              		.align	2
 1455              		.set	.LANCHOR5,. + 0
 1456              		.type	__func__.5753, %object
 1457              		.size	__func__.5753, 12
 1458              	__func__.5753:
 1459 0000 63685365 		.ascii	"chSemSignal\000"
 1459      6D536967 
 1459      6E616C00 
 1460              		.section	.rodata.__func__.5757,"a",%progbits
 1461              		.align	2
 1462              		.set	.LANCHOR6,. + 0
 1463              		.type	__func__.5757, %object
 1464              		.size	__func__.5757, 13
 1465              	__func__.5757:
 1466 0000 63685365 		.ascii	"chSemSignalI\000"
 1466      6D536967 
ARM GAS  /var/folders/t8/16hdwfmd2fg_d3q6dgx6bpmw0000gn/T//cciGhf3R.s 			page 27


 1466      6E616C49 
 1466      00
 1467              		.section	.rodata.__func__.5763,"a",%progbits
 1468              		.align	2
 1469              		.set	.LANCHOR7,. + 0
 1470              		.type	__func__.5763, %object
 1471              		.size	__func__.5763, 17
 1472              	__func__.5763:
 1473 0000 63685365 		.ascii	"chSemAddCounterI\000"
 1473      6D416464 
 1473      436F756E 
 1473      74657249 
 1473      00
 1474              		.section	.rodata.__func__.5772,"a",%progbits
 1475              		.align	2
 1476              		.set	.LANCHOR8,. + 0
 1477              		.type	__func__.5772, %object
 1478              		.size	__func__.5772, 16
 1479              	__func__.5772:
 1480 0000 63685365 		.ascii	"chSemSignalWait\000"
 1480      6D536967 
 1480      6E616C57 
 1480      61697400 
 1481              		.text
 1482              	.Letext0:
 1483              		.file 5 "/usr/local/Caskroom/gcc-arm-embedded/7-2017-q4-major/gcc-arm-none-eabi-7-2017-q4-major/ar
 1484              		.file 6 "/usr/local/Caskroom/gcc-arm-embedded/7-2017-q4-major/gcc-arm-none-eabi-7-2017-q4-major/ar
 1485              		.file 7 "../../tmk_core/tool/chibios/ChibiOS/os/common/ports/ARMCMx/compilers/GCC/chtypes.h"
 1486              		.file 8 "../../tmk_core/tool/chibios/ChibiOS/os/rt/include/chsystypes.h"
 1487              		.file 9 "../../tmk_core/tool/chibios/ChibiOS/os/common/ports/ARMCMx/chcore.h"
 1488              		.file 10 "../../tmk_core/tool/chibios/ChibiOS/os/common/ports/ARMCMx/chcore_v6m.h"
 1489              		.file 11 "../../tmk_core/tool/chibios/ChibiOS/os/rt/include/chsem.h"
 1490              		.file 12 "../../tmk_core/tool/chibios/ChibiOS/os/rt/include/chmtx.h"
 1491              		.file 13 "../../tmk_core/tool/chibios/ChibiOS/os/rt/include/chregistry.h"
 1492              		.file 14 "../../tmk_core/tool/chibios/ChibiOS/os/rt/include/chdebug.h"