ARM GAS  /var/folders/t8/16hdwfmd2fg_d3q6dgx6bpmw0000gn/T//ccDKACFo.s 			page 1


   1              		.cpu cortex-m0plus
   2              		.eabi_attribute 20, 1
   3              		.eabi_attribute 21, 1
   4              		.eabi_attribute 23, 3
   5              		.eabi_attribute 24, 1
   6              		.eabi_attribute 25, 1
   7              		.eabi_attribute 26, 1
   8              		.eabi_attribute 30, 2
   9              		.eabi_attribute 34, 0
  10              		.eabi_attribute 18, 4
  11              		.file	"chsys.c"
  12              		.text
  13              	.Ltext0:
  14              		.cfi_sections	.debug_frame
  15              		.section	.text._idle_thread,"ax",%progbits
  16              		.align	1
  17              		.p2align 4,,15
  18              		.syntax unified
  19              		.code	16
  20              		.thumb_func
  21              		.fpu softvfp
  22              		.type	_idle_thread, %function
  23              	_idle_thread:
  24              	.LFB138:
  25              		.file 1 "../../tmk_core/tool/chibios/ChibiOS/os/rt/src/chsys.c"
  26              		.loc 1 72 0
  27              		.cfi_startproc
  28              		@ Volatile: function does not return.
  29              		@ args = 0, pretend = 0, frame = 0
  30              		@ frame_needed = 0, uses_anonymous_args = 0
  31              		@ link register save eliminated.
  32              	.LVL0:
  33              	.L2:
  34              	.LBB118:
  35              	.LBB119:
  36              	.LBB120:
  37              		.file 2 "../../tmk_core/tool/chibios/ChibiOS/os/common/ext/CMSIS/include/cmsis_gcc.h"
  38              		.loc 2 385 0 discriminator 1
  39              		.syntax divided
  40              	@ 385 "../../tmk_core/tool/chibios/ChibiOS/os/common/ext/CMSIS/include/cmsis_gcc.h" 1
  41 0000 30BF     		wfi
  42              	@ 0 "" 2
  43              		.thumb
  44              		.syntax unified
  45 0002 FDE7     		b	.L2
  46              	.LBE120:
  47              	.LBE119:
  48              	.LBE118:
  49              		.cfi_endproc
  50              	.LFE138:
  51              		.size	_idle_thread, .-_idle_thread
  52              		.section	.text.chSysInit,"ax",%progbits
  53              		.align	1
  54              		.p2align 4,,15
  55              		.global	chSysInit
  56              		.syntax unified
  57              		.code	16
ARM GAS  /var/folders/t8/16hdwfmd2fg_d3q6dgx6bpmw0000gn/T//ccDKACFo.s 			page 2


  58              		.thumb_func
  59              		.fpu softvfp
  60              		.type	chSysInit, %function
  61              	chSysInit:
  62              	.LFB139:
  63              		.loc 1 100 0
  64              		.cfi_startproc
  65              		@ args = 0, pretend = 0, frame = 0
  66              		@ frame_needed = 0, uses_anonymous_args = 0
  67 0000 10B5     		push	{r4, lr}
  68              		.cfi_def_cfa_offset 8
  69              		.cfi_offset 4, -8
  70              		.cfi_offset 14, -4
  71              		.loc 1 102 0
  72 0002 FFF7FEFF 		bl	_scheduler_init
  73              	.LVL1:
  74              		.loc 1 103 0
  75 0006 FFF7FEFF 		bl	_vt_init
  76              	.LVL2:
  77              		.loc 1 107 0
  78 000a 0023     		movs	r3, #0
  79 000c 0F4C     		ldr	r4, .L5
  80 000e 2363     		str	r3, [r4, #48]
  81              		.loc 1 108 0
  82 0010 6363     		str	r3, [r4, #52]
  83              		.loc 1 114 0
  84 0012 FFF7FEFF 		bl	_core_init
  85              	.LVL3:
  86              		.loc 1 117 0
  87 0016 FFF7FEFF 		bl	_heap_init
  88              	.LVL4:
  89              		.loc 1 126 0
  90 001a 2000     		movs	r0, r4
  91 001c 8022     		movs	r2, #128
  92 001e 0C49     		ldr	r1, .L5+4
  93 0020 3830     		adds	r0, r0, #56
  94 0022 FFF7FEFF 		bl	_thread_init
  95              	.LVL5:
  96              	.LBB121:
  97              		.loc 1 140 0
  98 0026 0B4B     		ldr	r3, .L5+8
  99              	.LBE121:
 100              		.loc 1 147 0
 101 0028 0122     		movs	r2, #1
 102              	.LBB122:
 103              		.loc 1 140 0
 104 002a C361     		str	r3, [r0, #28]
 105              	.LBE122:
 106              		.loc 1 147 0
 107 002c 2023     		movs	r3, #32
 108 002e C254     		strb	r2, [r0, r3]
 109              	.LVL6:
 110              	.LBB123:
 111              	.LBB124:
 112              	.LBB125:
 113              		.file 3 "../../tmk_core/tool/chibios/ChibiOS/os/common/ext/CMSIS/include/core_cm0plus.h"
 114              		.loc 3 808 0
ARM GAS  /var/folders/t8/16hdwfmd2fg_d3q6dgx6bpmw0000gn/T//ccDKACFo.s 			page 3


 115 0030 094A     		ldr	r2, .L5+12
 116 0032 0A49     		ldr	r1, .L5+16
 117 0034 136A     		ldr	r3, [r2, #32]
 118              	.LBE125:
 119              	.LBE124:
 120              	.LBE123:
 121              		.loc 1 126 0
 122 0036 A061     		str	r0, [r4, #24]
 123              	.LBB128:
 124              	.LBB127:
 125              	.LBB126:
 126              		.loc 3 808 0
 127 0038 0B40     		ands	r3, r1
 128 003a 1362     		str	r3, [r2, #32]
 129              	.LVL7:
 130              	.LBE126:
 131              	.LBE127:
 132              	.LBE128:
 133              	.LBB129:
 134              	.LBB130:
 135              		.file 4 "../../tmk_core/tool/chibios/ChibiOS/os/rt/include/chsys.h"
 136              		.loc 4 365 0
 137 003c FFF7FEFF 		bl	_dbg_check_enable
 138              	.LVL8:
 139              	.LBB131:
 140              	.LBB132:
 141              	.LBB133:
 142              		.loc 2 60 0
 143              		.syntax divided
 144              	@ 60 "../../tmk_core/tool/chibios/ChibiOS/os/common/ext/CMSIS/include/cmsis_gcc.h" 1
 145 0040 62B6     		cpsie i
 146              	@ 0 "" 2
 147              		.thumb
 148              		.syntax unified
 149              	.LBE133:
 150              	.LBE132:
 151              	.LBE131:
 152              	.LBE130:
 153              	.LBE129:
 154              	.LBB134:
 155              		.loc 1 175 0
 156 0042 0748     		ldr	r0, .L5+20
 157 0044 FFF7FEFF 		bl	chThdCreate
 158              	.LVL9:
 159              	.LBE134:
 160              		.loc 1 178 0
 161              		@ sp needed
 162 0048 10BD     		pop	{r4, pc}
 163              	.L6:
 164 004a C046     		.align	2
 165              	.L5:
 166 004c 00000000 		.word	ch
 167 0050 00000000 		.word	ch_debug
 168 0054 00000000 		.word	__main_thread_stack_base__
 169 0058 00ED00E0 		.word	-536810240
 170 005c FFFF00FF 		.word	-16711681
 171 0060 00000000 		.word	.LANCHOR0
ARM GAS  /var/folders/t8/16hdwfmd2fg_d3q6dgx6bpmw0000gn/T//ccDKACFo.s 			page 4


 172              		.cfi_endproc
 173              	.LFE139:
 174              		.size	chSysInit, .-chSysInit
 175              		.section	.text.chSysHalt,"ax",%progbits
 176              		.align	1
 177              		.p2align 4,,15
 178              		.global	chSysHalt
 179              		.syntax unified
 180              		.code	16
 181              		.thumb_func
 182              		.fpu softvfp
 183              		.type	chSysHalt, %function
 184              	chSysHalt:
 185              	.LFB140:
 186              		.loc 1 192 0
 187              		.cfi_startproc
 188              		@ Volatile: function does not return.
 189              		@ args = 0, pretend = 0, frame = 0
 190              		@ frame_needed = 0, uses_anonymous_args = 0
 191              		@ link register save eliminated.
 192              	.LVL10:
 193              	.LBB135:
 194              	.LBB136:
 195              	.LBB137:
 196              		.loc 2 71 0
 197              		.syntax divided
 198              	@ 71 "../../tmk_core/tool/chibios/ChibiOS/os/common/ext/CMSIS/include/cmsis_gcc.h" 1
 199 0000 72B6     		cpsid i
 200              	@ 0 "" 2
 201              		.thumb
 202              		.syntax unified
 203              	.LBE137:
 204              	.LBE136:
 205              	.LBE135:
 206              		.loc 1 200 0
 207 0002 014B     		ldr	r3, .L9
 208 0004 D862     		str	r0, [r3, #44]
 209              	.L8:
 210 0006 FEE7     		b	.L8
 211              	.L10:
 212              		.align	2
 213              	.L9:
 214 0008 00000000 		.word	ch
 215              		.cfi_endproc
 216              	.LFE140:
 217              		.size	chSysHalt, .-chSysHalt
 218              		.section	.text.chSysIntegrityCheckI,"ax",%progbits
 219              		.align	1
 220              		.p2align 4,,15
 221              		.global	chSysIntegrityCheckI
 222              		.syntax unified
 223              		.code	16
 224              		.thumb_func
 225              		.fpu softvfp
 226              		.type	chSysIntegrityCheckI, %function
 227              	chSysIntegrityCheckI:
 228              	.LFB141:
ARM GAS  /var/folders/t8/16hdwfmd2fg_d3q6dgx6bpmw0000gn/T//ccDKACFo.s 			page 5


 229              		.loc 1 234 0
 230              		.cfi_startproc
 231              		@ args = 0, pretend = 0, frame = 0
 232              		@ frame_needed = 0, uses_anonymous_args = 0
 233              	.LVL11:
 234 0000 10B5     		push	{r4, lr}
 235              		.cfi_def_cfa_offset 8
 236              		.cfi_offset 4, -8
 237              		.cfi_offset 14, -4
 238              		.loc 1 234 0
 239 0002 0400     		movs	r4, r0
 240              		.loc 1 237 0
 241 0004 FFF7FEFF 		bl	chDbgCheckClassI
 242              	.LVL12:
 243              		.loc 1 240 0
 244 0008 E307     		lsls	r3, r4, #31
 245 000a 12D5     		bpl	.L12
 246              	.LVL13:
 247              	.LBB138:
 248              		.loc 1 245 0
 249 000c 264B     		ldr	r3, .L55
 250              		.loc 1 244 0
 251 000e 0022     		movs	r2, #0
 252              		.loc 1 245 0
 253 0010 1968     		ldr	r1, [r3]
 254              	.LVL14:
 255 0012 5868     		ldr	r0, [r3, #4]
 256              		.loc 1 246 0
 257 0014 9942     		cmp	r1, r3
 258 0016 39D0     		beq	.L13
 259              	.LVL15:
 260              	.L14:
 261              		.loc 1 248 0
 262 0018 0968     		ldr	r1, [r1]
 263              	.LVL16:
 264              		.loc 1 247 0
 265 001a 0132     		adds	r2, r2, #1
 266              	.LVL17:
 267              		.loc 1 246 0
 268 001c 9942     		cmp	r1, r3
 269 001e FBD1     		bne	.L14
 270              	.LVL18:
 271              		.loc 1 253 0
 272 0020 8842     		cmp	r0, r1
 273 0022 36D0     		beq	.L38
 274              	.LVL19:
 275              	.L18:
 276              		.loc 1 255 0
 277 0024 4068     		ldr	r0, [r0, #4]
 278              	.LVL20:
 279              		.loc 1 254 0
 280 0026 013A     		subs	r2, r2, #1
 281              	.LVL21:
 282              		.loc 1 253 0
 283 0028 9842     		cmp	r0, r3
 284 002a FBD1     		bne	.L18
 285              		.loc 1 260 0
ARM GAS  /var/folders/t8/16hdwfmd2fg_d3q6dgx6bpmw0000gn/T//ccDKACFo.s 			page 6


 286 002c 0120     		movs	r0, #1
 287              	.LVL22:
 288              		.loc 1 259 0
 289 002e 002A     		cmp	r2, #0
 290 0030 2BD1     		bne	.L17
 291              	.LVL23:
 292              	.L12:
 293              	.LBE138:
 294              		.loc 1 265 0
 295 0032 A307     		lsls	r3, r4, #30
 296 0034 13D5     		bpl	.L19
 297              	.LVL24:
 298              	.LBB139:
 299              		.loc 1 270 0
 300 0036 1C49     		ldr	r1, .L55
 301 0038 CA69     		ldr	r2, [r1, #28]
 302              	.LVL25:
 303 003a 086A     		ldr	r0, [r1, #32]
 304              		.loc 1 271 0
 305 003c 1C31     		adds	r1, r1, #28
 306 003e 8A42     		cmp	r2, r1
 307 0040 29D0     		beq	.L20
 308              		.loc 1 269 0
 309 0042 0023     		movs	r3, #0
 310              	.LVL26:
 311              	.L21:
 312              		.loc 1 273 0
 313 0044 1268     		ldr	r2, [r2]
 314              	.LVL27:
 315              		.loc 1 272 0
 316 0046 0133     		adds	r3, r3, #1
 317              	.LVL28:
 318              		.loc 1 271 0
 319 0048 8A42     		cmp	r2, r1
 320 004a FBD1     		bne	.L21
 321              	.LVL29:
 322              		.loc 1 278 0
 323 004c 9042     		cmp	r0, r2
 324 004e 20D0     		beq	.L38
 325              	.LVL30:
 326              	.L24:
 327              		.loc 1 280 0
 328 0050 4068     		ldr	r0, [r0, #4]
 329              	.LVL31:
 330              		.loc 1 279 0
 331 0052 013B     		subs	r3, r3, #1
 332              	.LVL32:
 333              		.loc 1 278 0
 334 0054 8842     		cmp	r0, r1
 335 0056 FBD1     		bne	.L24
 336              	.LBE139:
 337              	.LBB140:
 338              		.loc 1 260 0
 339 0058 0120     		movs	r0, #1
 340              	.LVL33:
 341              	.LBE140:
 342              	.LBB141:
ARM GAS  /var/folders/t8/16hdwfmd2fg_d3q6dgx6bpmw0000gn/T//ccDKACFo.s 			page 7


 343              		.loc 1 284 0
 344 005a 002B     		cmp	r3, #0
 345 005c 15D1     		bne	.L17
 346              	.LVL34:
 347              	.L19:
 348              	.LBE141:
 349              		.loc 1 321 0
 350 005e 0020     		movs	r0, #0
 351              		.loc 1 290 0
 352 0060 6307     		lsls	r3, r4, #29
 353 0062 12D5     		bpl	.L17
 354              	.LVL35:
 355              	.LBB142:
 356              		.loc 1 295 0
 357 0064 104B     		ldr	r3, .L55
 358              		.loc 1 294 0
 359 0066 0022     		movs	r2, #0
 360              		.loc 1 295 0
 361 0068 1969     		ldr	r1, [r3, #16]
 362              	.LVL36:
 363 006a 5C69     		ldr	r4, [r3, #20]
 364              	.LVL37:
 365              		.loc 1 296 0
 366 006c 9942     		cmp	r1, r3
 367 006e 17D0     		beq	.L25
 368              	.LVL38:
 369              	.L26:
 370              		.loc 1 298 0
 371 0070 0969     		ldr	r1, [r1, #16]
 372              	.LVL39:
 373              		.loc 1 297 0
 374 0072 0132     		adds	r2, r2, #1
 375              	.LVL40:
 376              		.loc 1 296 0
 377 0074 9942     		cmp	r1, r3
 378 0076 FBD1     		bne	.L26
 379              	.LVL41:
 380              		.loc 1 303 0
 381 0078 8C42     		cmp	r4, r1
 382 007a 0AD0     		beq	.L38
 383              	.LVL42:
 384              	.L29:
 385              		.loc 1 305 0
 386 007c 6469     		ldr	r4, [r4, #20]
 387              	.LVL43:
 388              		.loc 1 304 0
 389 007e 013A     		subs	r2, r2, #1
 390              	.LVL44:
 391              		.loc 1 303 0
 392 0080 9C42     		cmp	r4, r3
 393 0082 FBD1     		bne	.L29
 394              		.loc 1 309 0
 395 0084 501E     		subs	r0, r2, #1
 396 0086 8241     		sbcs	r2, r2, r0
 397              	.LVL45:
 398 0088 D0B2     		uxtb	r0, r2
 399              	.LVL46:
ARM GAS  /var/folders/t8/16hdwfmd2fg_d3q6dgx6bpmw0000gn/T//ccDKACFo.s 			page 8


 400              	.L17:
 401              	.LBE142:
 402              		.loc 1 322 0
 403              		@ sp needed
 404 008a 10BD     		pop	{r4, pc}
 405              	.LVL47:
 406              	.L13:
 407              	.LBB143:
 408              		.loc 1 253 0
 409 008c 9842     		cmp	r0, r3
 410 008e C9D1     		bne	.L18
 411 0090 CFE7     		b	.L12
 412              	.LVL48:
 413              	.L38:
 414              		.loc 1 260 0
 415 0092 0120     		movs	r0, #1
 416 0094 F9E7     		b	.L17
 417              	.LVL49:
 418              	.L20:
 419              	.LBE143:
 420              	.LBB144:
 421              		.loc 1 278 0
 422 0096 9042     		cmp	r0, r2
 423 0098 E1D0     		beq	.L19
 424              		.loc 1 269 0
 425 009a 0023     		movs	r3, #0
 426 009c 1100     		movs	r1, r2
 427 009e D7E7     		b	.L24
 428              	.LVL50:
 429              	.L25:
 430              	.LBE144:
 431              	.LBB145:
 432              		.loc 1 303 0
 433 00a0 8C42     		cmp	r4, r1
 434 00a2 EBD1     		bne	.L29
 435 00a4 F1E7     		b	.L17
 436              	.L56:
 437 00a6 C046     		.align	2
 438              	.L55:
 439 00a8 00000000 		.word	ch
 440              	.LBE145:
 441              		.cfi_endproc
 442              	.LFE141:
 443              		.size	chSysIntegrityCheckI, .-chSysIntegrityCheckI
 444              		.section	.text.chSysTimerHandlerI,"ax",%progbits
 445              		.align	1
 446              		.p2align 4,,15
 447              		.global	chSysTimerHandlerI
 448              		.syntax unified
 449              		.code	16
 450              		.thumb_func
 451              		.fpu softvfp
 452              		.type	chSysTimerHandlerI, %function
 453              	chSysTimerHandlerI:
 454              	.LFB142:
 455              		.loc 1 335 0
 456              		.cfi_startproc
ARM GAS  /var/folders/t8/16hdwfmd2fg_d3q6dgx6bpmw0000gn/T//ccDKACFo.s 			page 9


 457              		@ args = 0, pretend = 0, frame = 0
 458              		@ frame_needed = 0, uses_anonymous_args = 0
 459 0000 F0B5     		push	{r4, r5, r6, r7, lr}
 460              		.cfi_def_cfa_offset 20
 461              		.cfi_offset 4, -20
 462              		.cfi_offset 5, -16
 463              		.cfi_offset 6, -12
 464              		.cfi_offset 7, -8
 465              		.cfi_offset 14, -4
 466 0002 C646     		mov	lr, r8
 467 0004 00B5     		push	{lr}
 468              		.cfi_def_cfa_offset 24
 469              		.cfi_offset 8, -24
 470              		.loc 1 337 0
 471 0006 FFF7FEFF 		bl	chDbgCheckClassI
 472              	.LVL51:
 473              		.loc 1 341 0
 474 000a 2322     		movs	r2, #35
 475 000c 154D     		ldr	r5, .L66
 476 000e A969     		ldr	r1, [r5, #24]
 477 0010 8B5C     		ldrb	r3, [r1, r2]
 478 0012 002B     		cmp	r3, #0
 479 0014 01D0     		beq	.L58
 480              		.loc 1 343 0
 481 0016 013B     		subs	r3, r3, #1
 482 0018 8B54     		strb	r3, [r1, r2]
 483              	.L58:
 484              	.LBB161:
 485              	.LBB162:
 486              		.file 5 "../../tmk_core/tool/chibios/ChibiOS/os/rt/include/chvt.h"
 487              		.loc 5 508 0
 488 001a 2F00     		movs	r7, r5
 489              		.loc 5 504 0
 490 001c FFF7FEFF 		bl	chDbgCheckClassI
 491              	.LVL52:
 492              		.loc 5 507 0
 493 0020 AB6A     		ldr	r3, [r5, #40]
 494              		.loc 5 508 0
 495 0022 EC69     		ldr	r4, [r5, #28]
 496              		.loc 5 507 0
 497 0024 0133     		adds	r3, r3, #1
 498              		.loc 5 508 0
 499 0026 1C37     		adds	r7, r7, #28
 500              		.loc 5 507 0
 501 0028 AB62     		str	r3, [r5, #40]
 502              		.loc 5 508 0
 503 002a BC42     		cmp	r4, r7
 504 002c 17D0     		beq	.L57
 505              		.loc 5 510 0
 506 002e A368     		ldr	r3, [r4, #8]
 507 0030 013B     		subs	r3, r3, #1
 508 0032 A360     		str	r3, [r4, #8]
 509              		.loc 5 511 0
 510 0034 002B     		cmp	r3, #0
 511 0036 12D1     		bne	.L57
 512              	.LBB163:
 513              		.loc 5 517 0
ARM GAS  /var/folders/t8/16hdwfmd2fg_d3q6dgx6bpmw0000gn/T//ccDKACFo.s 			page 10


 514 0038 9846     		mov	r8, r3
 515              	.L60:
 516              	.LVL53:
 517 003a 4346     		mov	r3, r8
 518              		.loc 5 516 0
 519 003c E668     		ldr	r6, [r4, #12]
 520              	.LVL54:
 521              		.loc 5 517 0
 522 003e E360     		str	r3, [r4, #12]
 523              		.loc 5 518 0
 524 0040 2368     		ldr	r3, [r4]
 525 0042 5F60     		str	r7, [r3, #4]
 526              		.loc 5 519 0
 527 0044 EB61     		str	r3, [r5, #28]
 528              	.LBB164:
 529              	.LBB165:
 530              		.loc 4 436 0
 531 0046 FFF7FEFF 		bl	_dbg_check_unlock_from_isr
 532              	.LVL55:
 533              	.LBB166:
 534              	.LBB167:
 535              	.LBB168:
 536              	.LBB169:
 537              		.loc 2 60 0
 538              		.syntax divided
 539              	@ 60 "../../tmk_core/tool/chibios/ChibiOS/os/common/ext/CMSIS/include/cmsis_gcc.h" 1
 540 004a 62B6     		cpsie i
 541              	@ 0 "" 2
 542              		.thumb
 543              		.syntax unified
 544              	.LBE169:
 545              	.LBE168:
 546              	.LBE167:
 547              	.LBE166:
 548              	.LBE165:
 549              	.LBE164:
 550              		.loc 5 521 0
 551 004c 2069     		ldr	r0, [r4, #16]
 552 004e B047     		blx	r6
 553              	.LVL56:
 554              	.LBB170:
 555              	.LBB171:
 556              	.LBB172:
 557              	.LBB173:
 558              	.LBB174:
 559              	.LBB175:
 560              		.loc 2 71 0
 561              		.syntax divided
 562              	@ 71 "../../tmk_core/tool/chibios/ChibiOS/os/common/ext/CMSIS/include/cmsis_gcc.h" 1
 563 0050 72B6     		cpsid i
 564              	@ 0 "" 2
 565              		.thumb
 566              		.syntax unified
 567              	.LBE175:
 568              	.LBE174:
 569              	.LBE173:
 570              	.LBE172:
ARM GAS  /var/folders/t8/16hdwfmd2fg_d3q6dgx6bpmw0000gn/T//ccDKACFo.s 			page 11


 571              		.loc 4 418 0
 572 0052 FFF7FEFF 		bl	_dbg_check_lock_from_isr
 573              	.LVL57:
 574              	.LBE171:
 575              	.LBE170:
 576              	.LBE163:
 577              		.loc 5 511 0
 578 0056 EC69     		ldr	r4, [r5, #28]
 579              	.LVL58:
 580 0058 A368     		ldr	r3, [r4, #8]
 581 005a 002B     		cmp	r3, #0
 582 005c EDD0     		beq	.L60
 583              	.LVL59:
 584              	.L57:
 585              	.LBE162:
 586              	.LBE161:
 587              		.loc 1 351 0
 588              		@ sp needed
 589 005e 04BC     		pop	{r2}
 590 0060 9046     		mov	r8, r2
 591 0062 F0BD     		pop	{r4, r5, r6, r7, pc}
 592              	.L67:
 593              		.align	2
 594              	.L66:
 595 0064 00000000 		.word	ch
 596              		.cfi_endproc
 597              	.LFE142:
 598              		.size	chSysTimerHandlerI, .-chSysTimerHandlerI
 599              		.section	.text.chSysGetStatusAndLockX,"ax",%progbits
 600              		.align	1
 601              		.p2align 4,,15
 602              		.global	chSysGetStatusAndLockX
 603              		.syntax unified
 604              		.code	16
 605              		.thumb_func
 606              		.fpu softvfp
 607              		.type	chSysGetStatusAndLockX, %function
 608              	chSysGetStatusAndLockX:
 609              	.LFB143:
 610              		.loc 1 366 0
 611              		.cfi_startproc
 612              		@ args = 0, pretend = 0, frame = 0
 613              		@ frame_needed = 0, uses_anonymous_args = 0
 614 0000 10B5     		push	{r4, lr}
 615              		.cfi_def_cfa_offset 8
 616              		.cfi_offset 4, -8
 617              		.cfi_offset 14, -4
 618              	.LBB176:
 619              	.LBB177:
 620              	.LBB178:
 621              		.loc 2 203 0
 622              		.syntax divided
 623              	@ 203 "../../tmk_core/tool/chibios/ChibiOS/os/common/ext/CMSIS/include/cmsis_gcc.h" 1
 624 0002 EFF31084 		MRS r4, primask
 625              	@ 0 "" 2
 626              		.thumb
 627              		.syntax unified
ARM GAS  /var/folders/t8/16hdwfmd2fg_d3q6dgx6bpmw0000gn/T//ccDKACFo.s 			page 12


 628              	.LBE178:
 629              	.LBE177:
 630              	.LBE176:
 631              		.loc 1 369 0
 632 0006 E307     		lsls	r3, r4, #31
 633 0008 06D4     		bmi	.L68
 634              	.LBB179:
 635              	.LBB180:
 636              	.LBB181:
 637              	.LBB182:
 638              		.loc 2 109 0
 639              		.syntax divided
 640              	@ 109 "../../tmk_core/tool/chibios/ChibiOS/os/common/ext/CMSIS/include/cmsis_gcc.h" 1
 641 000a EFF30583 		MRS r3, ipsr
 642              	@ 0 "" 2
 643              		.thumb
 644              		.syntax unified
 645              	.LBE182:
 646              	.LBE181:
 647              		.file 6 "../../tmk_core/tool/chibios/ChibiOS/os/common/ports/ARMCMx/chcore_v6m.h"
 648              		.loc 6 364 0
 649 000e DB05     		lsls	r3, r3, #23
 650              	.LBE180:
 651              	.LBE179:
 652              		.loc 1 370 0
 653 0010 04D1     		bne	.L71
 654              	.LBB183:
 655              	.LBB184:
 656              	.LBB185:
 657              	.LBB186:
 658              	.LBB187:
 659              		.loc 2 71 0
 660              		.syntax divided
 661              	@ 71 "../../tmk_core/tool/chibios/ChibiOS/os/common/ext/CMSIS/include/cmsis_gcc.h" 1
 662 0012 72B6     		cpsid i
 663              	@ 0 "" 2
 664              		.thumb
 665              		.syntax unified
 666              	.LBE187:
 667              	.LBE186:
 668              	.LBE185:
 669              		.loc 4 378 0
 670 0014 FFF7FEFF 		bl	_dbg_check_lock
 671              	.LVL60:
 672              	.L68:
 673              	.LBE184:
 674              	.LBE183:
 675              		.loc 1 378 0
 676 0018 2000     		movs	r0, r4
 677              		@ sp needed
 678 001a 10BD     		pop	{r4, pc}
 679              	.L71:
 680              	.LBB188:
 681              	.LBB189:
 682              	.LBB190:
 683              	.LBB191:
 684              	.LBB192:
ARM GAS  /var/folders/t8/16hdwfmd2fg_d3q6dgx6bpmw0000gn/T//ccDKACFo.s 			page 13


 685              	.LBB193:
 686              		.loc 2 71 0
 687              		.syntax divided
 688              	@ 71 "../../tmk_core/tool/chibios/ChibiOS/os/common/ext/CMSIS/include/cmsis_gcc.h" 1
 689 001c 72B6     		cpsid i
 690              	@ 0 "" 2
 691              		.thumb
 692              		.syntax unified
 693              	.LBE193:
 694              	.LBE192:
 695              	.LBE191:
 696              	.LBE190:
 697              		.loc 4 418 0
 698 001e FFF7FEFF 		bl	_dbg_check_lock_from_isr
 699              	.LVL61:
 700 0022 F9E7     		b	.L68
 701              	.LBE189:
 702              	.LBE188:
 703              		.cfi_endproc
 704              	.LFE143:
 705              		.size	chSysGetStatusAndLockX, .-chSysGetStatusAndLockX
 706              		.section	.text.chSysRestoreStatusX,"ax",%progbits
 707              		.align	1
 708              		.p2align 4,,15
 709              		.global	chSysRestoreStatusX
 710              		.syntax unified
 711              		.code	16
 712              		.thumb_func
 713              		.fpu softvfp
 714              		.type	chSysRestoreStatusX, %function
 715              	chSysRestoreStatusX:
 716              	.LFB144:
 717              		.loc 1 389 0
 718              		.cfi_startproc
 719              		@ args = 0, pretend = 0, frame = 0
 720              		@ frame_needed = 0, uses_anonymous_args = 0
 721              	.LVL62:
 722 0000 10B5     		push	{r4, lr}
 723              		.cfi_def_cfa_offset 8
 724              		.cfi_offset 4, -8
 725              		.cfi_offset 14, -4
 726              		.loc 1 391 0
 727 0002 C307     		lsls	r3, r0, #31
 728 0004 15D4     		bmi	.L72
 729              	.LBB216:
 730              	.LBB217:
 731              	.LBB218:
 732              	.LBB219:
 733              		.loc 2 109 0
 734              		.syntax divided
 735              	@ 109 "../../tmk_core/tool/chibios/ChibiOS/os/common/ext/CMSIS/include/cmsis_gcc.h" 1
 736 0006 EFF30583 		MRS r3, ipsr
 737              	@ 0 "" 2
 738              		.thumb
 739              		.syntax unified
 740              	.LBE219:
 741              	.LBE218:
ARM GAS  /var/folders/t8/16hdwfmd2fg_d3q6dgx6bpmw0000gn/T//ccDKACFo.s 			page 14


 742              		.loc 6 364 0
 743 000a DB05     		lsls	r3, r3, #23
 744              	.LBE217:
 745              	.LBE216:
 746              		.loc 1 392 0
 747 000c 12D1     		bne	.L77
 748              		.loc 1 396 0
 749 000e FFF7FEFF 		bl	chSchRescheduleS
 750              	.LVL63:
 751              	.LBB220:
 752              	.LBB221:
 753              		.loc 4 388 0
 754 0012 FFF7FEFF 		bl	_dbg_check_unlock
 755              	.LVL64:
 756              		.loc 4 395 0
 757 0016 094B     		ldr	r3, .L78
 758 0018 1A68     		ldr	r2, [r3]
 759 001a 9A42     		cmp	r2, r3
 760 001c 08D0     		beq	.L75
 761 001e 9969     		ldr	r1, [r3, #24]
 762 0020 9268     		ldr	r2, [r2, #8]
 763 0022 8968     		ldr	r1, [r1, #8]
 764 0024 9142     		cmp	r1, r2
 765 0026 03D2     		bcs	.L75
 766              	.LVL65:
 767              	.LBB222:
 768              	.LBB223:
 769              	.LBB224:
 770              	.LBB225:
 771              	.LBB226:
 772              		.loc 2 71 0
 773              		.syntax divided
 774              	@ 71 "../../tmk_core/tool/chibios/ChibiOS/os/common/ext/CMSIS/include/cmsis_gcc.h" 1
 775 0028 72B6     		cpsid i
 776              	@ 0 "" 2
 777              		.thumb
 778              		.syntax unified
 779              	.LBE226:
 780              	.LBE225:
 781              	.LBE224:
 782              		.loc 1 200 0
 783 002a 054A     		ldr	r2, .L78+4
 784 002c DA62     		str	r2, [r3, #44]
 785              	.L76:
 786 002e FEE7     		b	.L76
 787              	.LVL66:
 788              	.L75:
 789              	.LBE223:
 790              	.LBE222:
 791              	.LBB227:
 792              	.LBB228:
 793              	.LBB229:
 794              		.loc 2 60 0
 795              		.syntax divided
 796              	@ 60 "../../tmk_core/tool/chibios/ChibiOS/os/common/ext/CMSIS/include/cmsis_gcc.h" 1
 797 0030 62B6     		cpsie i
 798              	@ 0 "" 2
ARM GAS  /var/folders/t8/16hdwfmd2fg_d3q6dgx6bpmw0000gn/T//ccDKACFo.s 			page 15


 799              		.thumb
 800              		.syntax unified
 801              	.L72:
 802              	.LBE229:
 803              	.LBE228:
 804              	.LBE227:
 805              	.LBE221:
 806              	.LBE220:
 807              		.loc 1 400 0
 808              		@ sp needed
 809 0032 10BD     		pop	{r4, pc}
 810              	.LVL67:
 811              	.L77:
 812              	.LBB230:
 813              	.LBB231:
 814              		.loc 4 436 0
 815 0034 FFF7FEFF 		bl	_dbg_check_unlock_from_isr
 816              	.LVL68:
 817              	.LBB232:
 818              	.LBB233:
 819              	.LBB234:
 820              	.LBB235:
 821              		.loc 2 60 0
 822              		.syntax divided
 823              	@ 60 "../../tmk_core/tool/chibios/ChibiOS/os/common/ext/CMSIS/include/cmsis_gcc.h" 1
 824 0038 62B6     		cpsie i
 825              	@ 0 "" 2
 826              		.thumb
 827              		.syntax unified
 828 003a FAE7     		b	.L72
 829              	.L79:
 830              		.align	2
 831              	.L78:
 832 003c 00000000 		.word	ch
 833 0040 00000000 		.word	.LANCHOR1
 834              	.LBE235:
 835              	.LBE234:
 836              	.LBE233:
 837              	.LBE232:
 838              	.LBE231:
 839              	.LBE230:
 840              		.cfi_endproc
 841              	.LFE144:
 842              		.size	chSysRestoreStatusX, .-chSysRestoreStatusX
 843              		.global	ch_idle_thread_wa
 844              		.section	.bss.ch_idle_thread_wa,"aw",%nobits
 845              		.align	3
 846              		.type	ch_idle_thread_wa, %object
 847              		.size	ch_idle_thread_wa, 216
 848              	ch_idle_thread_wa:
 849 0000 00000000 		.space	216
 849      00000000 
 849      00000000 
 849      00000000 
 849      00000000 
 850              		.section	.rodata.__func__.5043,"a",%progbits
 851              		.align	2
ARM GAS  /var/folders/t8/16hdwfmd2fg_d3q6dgx6bpmw0000gn/T//ccDKACFo.s 			page 16


 852              		.set	.LANCHOR1,. + 0
 853              		.type	__func__.5043, %object
 854              		.size	__func__.5043, 12
 855              	__func__.5043:
 856 0000 63685379 		.ascii	"chSysUnlock\000"
 856      73556E6C 
 856      6F636B00 
 857              		.section	.rodata.idle_descriptor.5724,"a",%progbits
 858              		.align	2
 859              		.set	.LANCHOR0,. + 0
 860              		.type	idle_descriptor.5724, %object
 861              		.size	idle_descriptor.5724, 24
 862              	idle_descriptor.5724:
 863 0000 00000000 		.word	.LC12
 864 0004 00000000 		.word	ch_idle_thread_wa
 865 0008 D8000000 		.word	ch_idle_thread_wa+216
 866 000c 01000000 		.word	1
 867 0010 00000000 		.word	_idle_thread
 868 0014 00000000 		.word	0
 869              		.section	.rodata.str1.4,"aMS",%progbits,1
 870              		.align	2
 871              	.LC12:
 872 0000 69646C65 		.ascii	"idle\000"
 872      00
 873              		.text
 874              	.Letext0:
 875              		.file 7 "/usr/local/Caskroom/gcc-arm-embedded/7-2017-q4-major/gcc-arm-none-eabi-7-2017-q4-major/li
 876              		.file 8 "/usr/local/Caskroom/gcc-arm-embedded/7-2017-q4-major/gcc-arm-none-eabi-7-2017-q4-major/ar
 877              		.file 9 "/usr/local/Caskroom/gcc-arm-embedded/7-2017-q4-major/gcc-arm-none-eabi-7-2017-q4-major/ar
 878              		.file 10 "../../tmk_core/tool/chibios/ChibiOS/os/common/ports/ARMCMx/compilers/GCC/chtypes.h"
 879              		.file 11 "../../tmk_core/tool/chibios/ChibiOS/os/rt/include/chsystypes.h"
 880              		.file 12 "../../tmk_core/tool/chibios/ChibiOS/os/rt/include/chschd.h"
 881              		.file 13 "../../tmk_core/tool/chibios/ChibiOS-Contrib/os/common/ext/CMSIS/KINETIS/kl26z.h"
 882              		.file 14 "../../tmk_core/tool/chibios/ChibiOS/os/common/ports/ARMCMx/chcore.h"
 883              		.file 15 "../../tmk_core/tool/chibios/ChibiOS/os/rt/include/chsem.h"
 884              		.file 16 "../../tmk_core/tool/chibios/ChibiOS/os/rt/include/chmtx.h"
 885              		.file 17 "../../tmk_core/tool/chibios/ChibiOS/os/rt/include/chthreads.h"
 886              		.file 18 "../../tmk_core/tool/chibios/ChibiOS/os/rt/include/chregistry.h"
 887              		.file 19 "../../tmk_core/tool/chibios/ChibiOS/os/rt/include/chdebug.h"
 888              		.file 20 "../../tmk_core/tool/chibios/ChibiOS/os/common/oslib/include/chmemcore.h"
 889              		.file 21 "../../tmk_core/tool/chibios/ChibiOS/os/common/oslib/include/chheap.h"
 890              		.section	.debug_info,"",%progbits
 891              	.Ldebug_info0:
 892 0000 0F120000 		.4byte	0x120f
 893 0004 0400     		.2byte	0x4
 894 0006 00000000 		.4byte	.Ldebug_abbrev0
 895 000a 04       		.byte	0x4
 896 000b 01       		.uleb128 0x1
 897 000c 2E000000 		.4byte	.LASF225
 898 0010 0C       		.byte	0xc
 899 0011 63080000 		.4byte	.LASF226
 900 0015 0B070000 		.4byte	.LASF227
 901 0019 88000000 		.4byte	.Ldebug_ranges0+0x88
 902 001d 00000000 		.4byte	0
 903 0021 00000000 		.4byte	.Ldebug_line0
 904 0025 02       		.uleb128 0x2
 905 0026 04       		.byte	0x4
ARM GAS  /var/folders/t8/16hdwfmd2fg_d3q6dgx6bpmw0000gn/T//ccDKACFo.s 			page 17


 906 0027 05       		.byte	0x5
 907 0028 696E7400 		.ascii	"int\000"
 908 002c 03       		.uleb128 0x3
 909 002d 9E040000 		.4byte	.LASF2
 910 0031 07       		.byte	0x7
 911 0032 D8       		.byte	0xd8
 912 0033 37000000 		.4byte	0x37
 913 0037 04       		.uleb128 0x4
 914 0038 04       		.byte	0x4
 915 0039 07       		.byte	0x7
 916 003a C8010000 		.4byte	.LASF0
 917 003e 04       		.uleb128 0x4
 918 003f 01       		.byte	0x1
 919 0040 06       		.byte	0x6
 920 0041 550A0000 		.4byte	.LASF1
 921 0045 03       		.uleb128 0x3
 922 0046 C8080000 		.4byte	.LASF3
 923 004a 08       		.byte	0x8
 924 004b 2B       		.byte	0x2b
 925 004c 50000000 		.4byte	0x50
 926 0050 04       		.uleb128 0x4
 927 0051 01       		.byte	0x1
 928 0052 08       		.byte	0x8
 929 0053 AD090000 		.4byte	.LASF4
 930 0057 04       		.uleb128 0x4
 931 0058 02       		.byte	0x2
 932 0059 05       		.byte	0x5
 933 005a E2070000 		.4byte	.LASF5
 934 005e 03       		.uleb128 0x3
 935 005f DE030000 		.4byte	.LASF6
 936 0063 08       		.byte	0x8
 937 0064 39       		.byte	0x39
 938 0065 69000000 		.4byte	0x69
 939 0069 04       		.uleb128 0x4
 940 006a 02       		.byte	0x2
 941 006b 07       		.byte	0x7
 942 006c 670A0000 		.4byte	.LASF7
 943 0070 03       		.uleb128 0x3
 944 0071 FF010000 		.4byte	.LASF8
 945 0075 08       		.byte	0x8
 946 0076 4D       		.byte	0x4d
 947 0077 7B000000 		.4byte	0x7b
 948 007b 04       		.uleb128 0x4
 949 007c 04       		.byte	0x4
 950 007d 05       		.byte	0x5
 951 007e F8070000 		.4byte	.LASF9
 952 0082 03       		.uleb128 0x3
 953 0083 BB090000 		.4byte	.LASF10
 954 0087 08       		.byte	0x8
 955 0088 4F       		.byte	0x4f
 956 0089 8D000000 		.4byte	0x8d
 957 008d 04       		.uleb128 0x4
 958 008e 04       		.byte	0x4
 959 008f 07       		.byte	0x7
 960 0090 4D090000 		.4byte	.LASF11
 961 0094 04       		.uleb128 0x4
 962 0095 08       		.byte	0x8
ARM GAS  /var/folders/t8/16hdwfmd2fg_d3q6dgx6bpmw0000gn/T//ccDKACFo.s 			page 18


 963 0096 05       		.byte	0x5
 964 0097 80060000 		.4byte	.LASF12
 965 009b 03       		.uleb128 0x3
 966 009c 04050000 		.4byte	.LASF13
 967 00a0 08       		.byte	0x8
 968 00a1 69       		.byte	0x69
 969 00a2 A6000000 		.4byte	0xa6
 970 00a6 04       		.uleb128 0x4
 971 00a7 08       		.byte	0x8
 972 00a8 07       		.byte	0x7
 973 00a9 A8030000 		.4byte	.LASF14
 974 00ad 03       		.uleb128 0x3
 975 00ae 09060000 		.4byte	.LASF15
 976 00b2 09       		.byte	0x9
 977 00b3 18       		.byte	0x18
 978 00b4 45000000 		.4byte	0x45
 979 00b8 03       		.uleb128 0x3
 980 00b9 86070000 		.4byte	.LASF16
 981 00bd 09       		.byte	0x9
 982 00be 24       		.byte	0x24
 983 00bf 5E000000 		.4byte	0x5e
 984 00c3 03       		.uleb128 0x3
 985 00c4 72090000 		.4byte	.LASF17
 986 00c8 09       		.byte	0x9
 987 00c9 2C       		.byte	0x2c
 988 00ca 70000000 		.4byte	0x70
 989 00ce 03       		.uleb128 0x3
 990 00cf 06030000 		.4byte	.LASF18
 991 00d3 09       		.byte	0x9
 992 00d4 30       		.byte	0x30
 993 00d5 82000000 		.4byte	0x82
 994 00d9 05       		.uleb128 0x5
 995 00da CE000000 		.4byte	0xce
 996 00de 06       		.uleb128 0x6
 997 00df D9000000 		.4byte	0xd9
 998 00e3 03       		.uleb128 0x3
 999 00e4 99080000 		.4byte	.LASF19
 1000 00e8 09       		.byte	0x9
 1001 00e9 3C       		.byte	0x3c
 1002 00ea 9B000000 		.4byte	0x9b
 1003 00ee 03       		.uleb128 0x3
 1004 00ef E2010000 		.4byte	.LASF20
 1005 00f3 0A       		.byte	0xa
 1006 00f4 3B       		.byte	0x3b
 1007 00f5 CE000000 		.4byte	0xce
 1008 00f9 03       		.uleb128 0x3
 1009 00fa 6B070000 		.4byte	.LASF21
 1010 00fe 0A       		.byte	0xa
 1011 00ff 3C       		.byte	0x3c
 1012 0100 AD000000 		.4byte	0xad
 1013 0104 03       		.uleb128 0x3
 1014 0105 E6050000 		.4byte	.LASF22
 1015 0109 0A       		.byte	0xa
 1016 010a 3D       		.byte	0x3d
 1017 010b AD000000 		.4byte	0xad
 1018 010f 03       		.uleb128 0x3
 1019 0110 45090000 		.4byte	.LASF23
ARM GAS  /var/folders/t8/16hdwfmd2fg_d3q6dgx6bpmw0000gn/T//ccDKACFo.s 			page 19


 1020 0114 0A       		.byte	0xa
 1021 0115 3E       		.byte	0x3e
 1022 0116 AD000000 		.4byte	0xad
 1023 011a 03       		.uleb128 0x3
 1024 011b 01070000 		.4byte	.LASF24
 1025 011f 0A       		.byte	0xa
 1026 0120 3F       		.byte	0x3f
 1027 0121 AD000000 		.4byte	0xad
 1028 0125 03       		.uleb128 0x3
 1029 0126 60030000 		.4byte	.LASF25
 1030 012a 0A       		.byte	0xa
 1031 012b 40       		.byte	0x40
 1032 012c CE000000 		.4byte	0xce
 1033 0130 03       		.uleb128 0x3
 1034 0131 A0060000 		.4byte	.LASF26
 1035 0135 0A       		.byte	0xa
 1036 0136 41       		.byte	0x41
 1037 0137 C3000000 		.4byte	0xc3
 1038 013b 03       		.uleb128 0x3
 1039 013c 23030000 		.4byte	.LASF27
 1040 0140 0A       		.byte	0xa
 1041 0141 43       		.byte	0x43
 1042 0142 CE000000 		.4byte	0xce
 1043 0146 03       		.uleb128 0x3
 1044 0147 E9030000 		.4byte	.LASF28
 1045 014b 0A       		.byte	0xa
 1046 014c 45       		.byte	0x45
 1047 014d C3000000 		.4byte	0xc3
 1048 0151 03       		.uleb128 0x3
 1049 0152 81010000 		.4byte	.LASF29
 1050 0156 0B       		.byte	0xb
 1051 0157 33       		.byte	0x33
 1052 0158 CE000000 		.4byte	0xce
 1053 015c 05       		.uleb128 0x5
 1054 015d 51010000 		.4byte	0x151
 1055 0161 03       		.uleb128 0x3
 1056 0162 60040000 		.4byte	.LASF30
 1057 0166 0B       		.byte	0xb
 1058 0167 3F       		.byte	0x3f
 1059 0168 6C010000 		.4byte	0x16c
 1060 016c 07       		.uleb128 0x7
 1061 016d 49060000 		.4byte	.LASF49
 1062 0171 44       		.byte	0x44
 1063 0172 0C       		.byte	0xc
 1064 0173 9A       		.byte	0x9a
 1065 0174 56020000 		.4byte	0x256
 1066 0178 08       		.uleb128 0x8
 1067 0179 6C090000 		.4byte	.LASF31
 1068 017d 0C       		.byte	0xc
 1069 017e 9B       		.byte	0x9b
 1070 017f 8B020000 		.4byte	0x28b
 1071 0183 00       		.byte	0
 1072 0184 08       		.uleb128 0x8
 1073 0185 64050000 		.4byte	.LASF32
 1074 0189 0C       		.byte	0xc
 1075 018a 9C       		.byte	0x9c
 1076 018b 25010000 		.4byte	0x125
ARM GAS  /var/folders/t8/16hdwfmd2fg_d3q6dgx6bpmw0000gn/T//ccDKACFo.s 			page 20


 1077 018f 08       		.byte	0x8
 1078 0190 09       		.uleb128 0x9
 1079 0191 63747800 		.ascii	"ctx\000"
 1080 0195 0C       		.byte	0xc
 1081 0196 9D       		.byte	0x9d
 1082 0197 13070000 		.4byte	0x713
 1083 019b 0C       		.byte	0xc
 1084 019c 08       		.uleb128 0x8
 1085 019d 82090000 		.4byte	.LASF33
 1086 01a1 0C       		.byte	0xc
 1087 01a2 9F       		.byte	0x9f
 1088 01a3 61020000 		.4byte	0x261
 1089 01a7 10       		.byte	0x10
 1090 01a8 08       		.uleb128 0x8
 1091 01a9 010B0000 		.4byte	.LASF34
 1092 01ad 0C       		.byte	0xc
 1093 01ae A0       		.byte	0xa0
 1094 01af 61020000 		.4byte	0x261
 1095 01b3 14       		.byte	0x14
 1096 01b4 08       		.uleb128 0x8
 1097 01b5 F9080000 		.4byte	.LASF35
 1098 01b9 0C       		.byte	0xc
 1099 01ba A7       		.byte	0xa7
 1100 01bb 6E080000 		.4byte	0x86e
 1101 01bf 18       		.byte	0x18
 1102 01c0 08       		.uleb128 0x8
 1103 01c1 BE050000 		.4byte	.LASF36
 1104 01c5 0C       		.byte	0xc
 1105 01c6 B0       		.byte	0xb0
 1106 01c7 85080000 		.4byte	0x885
 1107 01cb 1C       		.byte	0x1c
 1108 01cc 08       		.uleb128 0x8
 1109 01cd 1D0A0000 		.4byte	.LASF37
 1110 01d1 0C       		.byte	0xc
 1111 01d2 B5       		.byte	0xb5
 1112 01d3 04010000 		.4byte	0x104
 1113 01d7 20       		.byte	0x20
 1114 01d8 08       		.uleb128 0x8
 1115 01d9 7B010000 		.4byte	.LASF38
 1116 01dd 0C       		.byte	0xc
 1117 01de B9       		.byte	0xb9
 1118 01df F9000000 		.4byte	0xf9
 1119 01e3 21       		.byte	0x21
 1120 01e4 08       		.uleb128 0x8
 1121 01e5 09020000 		.4byte	.LASF39
 1122 01e9 0C       		.byte	0xc
 1123 01ea BE       		.byte	0xbe
 1124 01eb 0F010000 		.4byte	0x10f
 1125 01ef 22       		.byte	0x22
 1126 01f0 08       		.uleb128 0x8
 1127 01f1 0D080000 		.4byte	.LASF40
 1128 01f5 0C       		.byte	0xc
 1129 01f6 C4       		.byte	0xc4
 1130 01f7 1A010000 		.4byte	0x11a
 1131 01fb 23       		.byte	0x23
 1132 01fc 0A       		.uleb128 0xa
 1133 01fd 7500     		.ascii	"u\000"
ARM GAS  /var/folders/t8/16hdwfmd2fg_d3q6dgx6bpmw0000gn/T//ccDKACFo.s 			page 21


 1134 01ff 0C       		.byte	0xc
 1135 0200 0F01     		.2byte	0x10f
 1136 0202 A3070000 		.4byte	0x7a3
 1137 0206 24       		.byte	0x24
 1138 0207 0B       		.uleb128 0xb
 1139 0208 C6090000 		.4byte	.LASF41
 1140 020c 0C       		.byte	0xc
 1141 020d 1401     		.2byte	0x114
 1142 020f 67020000 		.4byte	0x267
 1143 0213 28       		.byte	0x28
 1144 0214 0B       		.uleb128 0xb
 1145 0215 11060000 		.4byte	.LASF42
 1146 0219 0C       		.byte	0xc
 1147 021a 1A01     		.2byte	0x11a
 1148 021c 8B020000 		.4byte	0x28b
 1149 0220 2C       		.byte	0x2c
 1150 0221 0B       		.uleb128 0xb
 1151 0222 BF010000 		.4byte	.LASF43
 1152 0226 0C       		.byte	0xc
 1153 0227 2001     		.2byte	0x120
 1154 0229 3B010000 		.4byte	0x13b
 1155 022d 34       		.byte	0x34
 1156 022e 0B       		.uleb128 0xb
 1157 022f 41040000 		.4byte	.LASF44
 1158 0233 0C       		.byte	0xc
 1159 0234 2701     		.2byte	0x127
 1160 0236 68080000 		.4byte	0x868
 1161 023a 38       		.byte	0x38
 1162 023b 0B       		.uleb128 0xb
 1163 023c 94010000 		.4byte	.LASF45
 1164 0240 0C       		.byte	0xc
 1165 0241 2B01     		.2byte	0x12b
 1166 0243 25010000 		.4byte	0x125
 1167 0247 3C       		.byte	0x3c
 1168 0248 0B       		.uleb128 0xb
 1169 0249 100B0000 		.4byte	.LASF46
 1170 024d 0C       		.byte	0xc
 1171 024e 3201     		.2byte	0x132
 1172 0250 3E030000 		.4byte	0x33e
 1173 0254 40       		.byte	0x40
 1174 0255 00       		.byte	0
 1175 0256 03       		.uleb128 0x3
 1176 0257 A1050000 		.4byte	.LASF47
 1177 025b 0B       		.byte	0xb
 1178 025c 44       		.byte	0x44
 1179 025d 61020000 		.4byte	0x261
 1180 0261 0C       		.uleb128 0xc
 1181 0262 04       		.byte	0x4
 1182 0263 61010000 		.4byte	0x161
 1183 0267 03       		.uleb128 0x3
 1184 0268 EB010000 		.4byte	.LASF48
 1185 026c 0B       		.byte	0xb
 1186 026d 49       		.byte	0x49
 1187 026e 72020000 		.4byte	0x272
 1188 0272 07       		.uleb128 0x7
 1189 0273 00000000 		.4byte	.LASF50
 1190 0277 04       		.byte	0x4
ARM GAS  /var/folders/t8/16hdwfmd2fg_d3q6dgx6bpmw0000gn/T//ccDKACFo.s 			page 22


 1191 0278 0C       		.byte	0xc
 1192 0279 88       		.byte	0x88
 1193 027a 8B020000 		.4byte	0x28b
 1194 027e 08       		.uleb128 0x8
 1195 027f D5010000 		.4byte	.LASF51
 1196 0283 0C       		.byte	0xc
 1197 0284 89       		.byte	0x89
 1198 0285 61020000 		.4byte	0x261
 1199 0289 00       		.byte	0
 1200 028a 00       		.byte	0
 1201 028b 03       		.uleb128 0x3
 1202 028c 31040000 		.4byte	.LASF52
 1203 0290 0B       		.byte	0xb
 1204 0291 50       		.byte	0x50
 1205 0292 96020000 		.4byte	0x296
 1206 0296 07       		.uleb128 0x7
 1207 0297 9D020000 		.4byte	.LASF53
 1208 029b 08       		.byte	0x8
 1209 029c 0C       		.byte	0xc
 1210 029d 8F       		.byte	0x8f
 1211 029e BB020000 		.4byte	0x2bb
 1212 02a2 08       		.uleb128 0x8
 1213 02a3 D5010000 		.4byte	.LASF51
 1214 02a7 0C       		.byte	0xc
 1215 02a8 90       		.byte	0x90
 1216 02a9 61020000 		.4byte	0x261
 1217 02ad 00       		.byte	0
 1218 02ae 08       		.uleb128 0x8
 1219 02af 98020000 		.4byte	.LASF54
 1220 02b3 0C       		.byte	0xc
 1221 02b4 91       		.byte	0x91
 1222 02b5 61020000 		.4byte	0x261
 1223 02b9 04       		.byte	0x4
 1224 02ba 00       		.byte	0
 1225 02bb 03       		.uleb128 0x3
 1226 02bc 5F090000 		.4byte	.LASF55
 1227 02c0 0B       		.byte	0xb
 1228 02c1 57       		.byte	0x57
 1229 02c2 C6020000 		.4byte	0x2c6
 1230 02c6 0D       		.uleb128 0xd
 1231 02c7 5B020000 		.4byte	.LASF56
 1232 02cb 1C       		.byte	0x1c
 1233 02cc 0C       		.byte	0xc
 1234 02cd 6A01     		.2byte	0x16a
 1235 02cf 22030000 		.4byte	0x322
 1236 02d3 0B       		.uleb128 0xb
 1237 02d4 6C090000 		.4byte	.LASF31
 1238 02d8 0C       		.byte	0xc
 1239 02d9 6B01     		.2byte	0x16b
 1240 02db 8B020000 		.4byte	0x28b
 1241 02df 00       		.byte	0
 1242 02e0 0B       		.uleb128 0xb
 1243 02e1 64050000 		.4byte	.LASF32
 1244 02e5 0C       		.byte	0xc
 1245 02e6 6C01     		.2byte	0x16c
 1246 02e8 25010000 		.4byte	0x125
 1247 02ec 08       		.byte	0x8
ARM GAS  /var/folders/t8/16hdwfmd2fg_d3q6dgx6bpmw0000gn/T//ccDKACFo.s 			page 23


 1248 02ed 0A       		.uleb128 0xa
 1249 02ee 63747800 		.ascii	"ctx\000"
 1250 02f2 0C       		.byte	0xc
 1251 02f3 6E01     		.2byte	0x16e
 1252 02f5 13070000 		.4byte	0x713
 1253 02f9 0C       		.byte	0xc
 1254 02fa 0B       		.uleb128 0xb
 1255 02fb 82090000 		.4byte	.LASF33
 1256 02ff 0C       		.byte	0xc
 1257 0300 7101     		.2byte	0x171
 1258 0302 61020000 		.4byte	0x261
 1259 0306 10       		.byte	0x10
 1260 0307 0B       		.uleb128 0xb
 1261 0308 010B0000 		.4byte	.LASF34
 1262 030c 0C       		.byte	0xc
 1263 030d 7201     		.2byte	0x172
 1264 030f 61020000 		.4byte	0x261
 1265 0313 14       		.byte	0x14
 1266 0314 0B       		.uleb128 0xb
 1267 0315 B20A0000 		.4byte	.LASF57
 1268 0319 0C       		.byte	0xc
 1269 031a 7501     		.2byte	0x175
 1270 031c 61020000 		.4byte	0x261
 1271 0320 18       		.byte	0x18
 1272 0321 00       		.byte	0
 1273 0322 03       		.uleb128 0x3
 1274 0323 CE020000 		.4byte	.LASF58
 1275 0327 0B       		.byte	0xb
 1276 0328 5C       		.byte	0x5c
 1277 0329 2D030000 		.4byte	0x32d
 1278 032d 0C       		.uleb128 0xc
 1279 032e 04       		.byte	0x4
 1280 032f 33030000 		.4byte	0x333
 1281 0333 0E       		.uleb128 0xe
 1282 0334 3E030000 		.4byte	0x33e
 1283 0338 0F       		.uleb128 0xf
 1284 0339 3E030000 		.4byte	0x33e
 1285 033d 00       		.byte	0
 1286 033e 10       		.uleb128 0x10
 1287 033f 04       		.byte	0x4
 1288 0340 03       		.uleb128 0x3
 1289 0341 B8060000 		.4byte	.LASF59
 1290 0345 0B       		.byte	0xb
 1291 0346 61       		.byte	0x61
 1292 0347 4B030000 		.4byte	0x34b
 1293 034b 0D       		.uleb128 0xd
 1294 034c 7E030000 		.4byte	.LASF60
 1295 0350 14       		.byte	0x14
 1296 0351 0C       		.byte	0xc
 1297 0352 4501     		.2byte	0x145
 1298 0354 9A030000 		.4byte	0x39a
 1299 0358 0B       		.uleb128 0xb
 1300 0359 D5010000 		.4byte	.LASF51
 1301 035d 0C       		.byte	0xc
 1302 035e 4601     		.2byte	0x146
 1303 0360 8B080000 		.4byte	0x88b
 1304 0364 00       		.byte	0
ARM GAS  /var/folders/t8/16hdwfmd2fg_d3q6dgx6bpmw0000gn/T//ccDKACFo.s 			page 24


 1305 0365 0B       		.uleb128 0xb
 1306 0366 98020000 		.4byte	.LASF54
 1307 036a 0C       		.byte	0xc
 1308 036b 4701     		.2byte	0x147
 1309 036d 8B080000 		.4byte	0x88b
 1310 0371 04       		.byte	0x4
 1311 0372 0B       		.uleb128 0xb
 1312 0373 610A0000 		.4byte	.LASF61
 1313 0377 0C       		.byte	0xc
 1314 0378 4801     		.2byte	0x148
 1315 037a 51010000 		.4byte	0x151
 1316 037e 08       		.byte	0x8
 1317 037f 0B       		.uleb128 0xb
 1318 0380 69020000 		.4byte	.LASF62
 1319 0384 0C       		.byte	0xc
 1320 0385 4901     		.2byte	0x149
 1321 0387 22030000 		.4byte	0x322
 1322 038b 0C       		.byte	0xc
 1323 038c 0A       		.uleb128 0xa
 1324 038d 70617200 		.ascii	"par\000"
 1325 0391 0C       		.byte	0xc
 1326 0392 4B01     		.2byte	0x14b
 1327 0394 3E030000 		.4byte	0x33e
 1328 0398 10       		.byte	0x10
 1329 0399 00       		.byte	0
 1330 039a 03       		.uleb128 0x3
 1331 039b D4090000 		.4byte	.LASF63
 1332 039f 0B       		.byte	0xb
 1333 03a0 66       		.byte	0x66
 1334 03a1 A5030000 		.4byte	0x3a5
 1335 03a5 0D       		.uleb128 0xd
 1336 03a6 49040000 		.4byte	.LASF64
 1337 03aa 10       		.byte	0x10
 1338 03ab 0C       		.byte	0xc
 1339 03ac 5501     		.2byte	0x155
 1340 03ae E7030000 		.4byte	0x3e7
 1341 03b2 0B       		.uleb128 0xb
 1342 03b3 D5010000 		.4byte	.LASF51
 1343 03b7 0C       		.byte	0xc
 1344 03b8 5601     		.2byte	0x156
 1345 03ba 8B080000 		.4byte	0x88b
 1346 03be 00       		.byte	0
 1347 03bf 0B       		.uleb128 0xb
 1348 03c0 98020000 		.4byte	.LASF54
 1349 03c4 0C       		.byte	0xc
 1350 03c5 5801     		.2byte	0x158
 1351 03c7 8B080000 		.4byte	0x88b
 1352 03cb 04       		.byte	0x4
 1353 03cc 0B       		.uleb128 0xb
 1354 03cd 610A0000 		.4byte	.LASF61
 1355 03d1 0C       		.byte	0xc
 1356 03d2 5A01     		.2byte	0x15a
 1357 03d4 51010000 		.4byte	0x151
 1358 03d8 08       		.byte	0x8
 1359 03d9 0B       		.uleb128 0xb
 1360 03da 73070000 		.4byte	.LASF65
 1361 03de 0C       		.byte	0xc
ARM GAS  /var/folders/t8/16hdwfmd2fg_d3q6dgx6bpmw0000gn/T//ccDKACFo.s 			page 25


 1362 03df 5C01     		.2byte	0x15c
 1363 03e1 5C010000 		.4byte	0x15c
 1364 03e5 0C       		.byte	0xc
 1365 03e6 00       		.byte	0
 1366 03e7 03       		.uleb128 0x3
 1367 03e8 5C060000 		.4byte	.LASF66
 1368 03ec 0B       		.byte	0xb
 1369 03ed 6B       		.byte	0x6b
 1370 03ee F2030000 		.4byte	0x3f2
 1371 03f2 0D       		.uleb128 0xd
 1372 03f3 D7020000 		.4byte	.LASF67
 1373 03f7 0C       		.byte	0xc
 1374 03f8 0C       		.byte	0xc
 1375 03f9 7C01     		.2byte	0x17c
 1376 03fb 27040000 		.4byte	0x427
 1377 03ff 0B       		.uleb128 0xb
 1378 0400 61070000 		.4byte	.LASF68
 1379 0404 0C       		.byte	0xc
 1380 0405 8401     		.2byte	0x184
 1381 0407 74080000 		.4byte	0x874
 1382 040b 00       		.byte	0
 1383 040c 0B       		.uleb128 0xb
 1384 040d 17040000 		.4byte	.LASF69
 1385 0411 0C       		.byte	0xc
 1386 0412 8901     		.2byte	0x189
 1387 0414 46010000 		.4byte	0x146
 1388 0418 04       		.byte	0x4
 1389 0419 0B       		.uleb128 0xb
 1390 041a A7070000 		.4byte	.LASF70
 1391 041e 0C       		.byte	0xc
 1392 041f 8D01     		.2byte	0x18d
 1393 0421 46010000 		.4byte	0x146
 1394 0425 08       		.byte	0x8
 1395 0426 00       		.byte	0
 1396 0427 03       		.uleb128 0x3
 1397 0428 380A0000 		.4byte	.LASF71
 1398 042c 0B       		.byte	0xb
 1399 042d 70       		.byte	0x70
 1400 042e 32040000 		.4byte	0x432
 1401 0432 0D       		.uleb128 0xd
 1402 0433 4E080000 		.4byte	.LASF72
 1403 0437 7C       		.byte	0x7c
 1404 0438 0C       		.byte	0xc
 1405 0439 9C01     		.2byte	0x19c
 1406 043b 74040000 		.4byte	0x474
 1407 043f 0B       		.uleb128 0xb
 1408 0440 A2080000 		.4byte	.LASF73
 1409 0444 0C       		.byte	0xc
 1410 0445 A001     		.2byte	0x1a0
 1411 0447 BB020000 		.4byte	0x2bb
 1412 044b 00       		.byte	0
 1413 044c 0B       		.uleb128 0xb
 1414 044d 28020000 		.4byte	.LASF74
 1415 0451 0C       		.byte	0xc
 1416 0452 A401     		.2byte	0x1a4
 1417 0454 9A030000 		.4byte	0x39a
 1418 0458 1C       		.byte	0x1c
ARM GAS  /var/folders/t8/16hdwfmd2fg_d3q6dgx6bpmw0000gn/T//ccDKACFo.s 			page 26


 1419 0459 0A       		.uleb128 0xa
 1420 045a 64626700 		.ascii	"dbg\000"
 1421 045e 0C       		.byte	0xc
 1422 045f A801     		.2byte	0x1a8
 1423 0461 E7030000 		.4byte	0x3e7
 1424 0465 2C       		.byte	0x2c
 1425 0466 0B       		.uleb128 0xb
 1426 0467 7B070000 		.4byte	.LASF75
 1427 046b 0C       		.byte	0xc
 1428 046c AC01     		.2byte	0x1ac
 1429 046e 61010000 		.4byte	0x161
 1430 0472 38       		.byte	0x38
 1431 0473 00       		.byte	0
 1432 0474 11       		.uleb128 0x11
 1433 0475 8F070000 		.4byte	.LASF203
 1434 0479 05       		.byte	0x5
 1435 047a 01       		.byte	0x1
 1436 047b 3E000000 		.4byte	0x3e
 1437 047f 0D       		.byte	0xd
 1438 0480 28       		.byte	0x28
 1439 0481 6A050000 		.4byte	0x56a
 1440 0485 12       		.uleb128 0x12
 1441 0486 440A0000 		.4byte	.LASF76
 1442 048a 71       		.sleb128 -15
 1443 048b 12       		.uleb128 0x12
 1444 048c 15080000 		.4byte	.LASF77
 1445 0490 72       		.sleb128 -14
 1446 0491 12       		.uleb128 0x12
 1447 0492 A30A0000 		.4byte	.LASF78
 1448 0496 73       		.sleb128 -13
 1449 0497 12       		.uleb128 0x12
 1450 0498 EA090000 		.4byte	.LASF79
 1451 049c 7B       		.sleb128 -5
 1452 049d 12       		.uleb128 0x12
 1453 049e B8020000 		.4byte	.LASF80
 1454 04a2 7E       		.sleb128 -2
 1455 04a3 12       		.uleb128 0x12
 1456 04a4 2D090000 		.4byte	.LASF81
 1457 04a8 7F       		.sleb128 -1
 1458 04a9 13       		.uleb128 0x13
 1459 04aa FE080000 		.4byte	.LASF82
 1460 04ae 00       		.byte	0
 1461 04af 13       		.uleb128 0x13
 1462 04b0 5A050000 		.4byte	.LASF83
 1463 04b4 01       		.byte	0x1
 1464 04b5 13       		.uleb128 0x13
 1465 04b6 5B010000 		.4byte	.LASF84
 1466 04ba 02       		.byte	0x2
 1467 04bb 13       		.uleb128 0x13
 1468 04bc F7060000 		.4byte	.LASF85
 1469 04c0 03       		.byte	0x3
 1470 04c1 13       		.uleb128 0x13
 1471 04c2 69050000 		.4byte	.LASF86
 1472 04c6 04       		.byte	0x4
 1473 04c7 13       		.uleb128 0x13
 1474 04c8 160B0000 		.4byte	.LASF87
 1475 04cc 05       		.byte	0x5
ARM GAS  /var/folders/t8/16hdwfmd2fg_d3q6dgx6bpmw0000gn/T//ccDKACFo.s 			page 27


 1476 04cd 13       		.uleb128 0x13
 1477 04ce E40A0000 		.4byte	.LASF88
 1478 04d2 06       		.byte	0x6
 1479 04d3 13       		.uleb128 0x13
 1480 04d4 DD040000 		.4byte	.LASF89
 1481 04d8 07       		.byte	0x7
 1482 04d9 13       		.uleb128 0x13
 1483 04da B5010000 		.4byte	.LASF90
 1484 04de 08       		.byte	0x8
 1485 04df 13       		.uleb128 0x13
 1486 04e0 AE020000 		.4byte	.LASF91
 1487 04e4 09       		.byte	0x9
 1488 04e5 13       		.uleb128 0x13
 1489 04e6 57070000 		.4byte	.LASF92
 1490 04ea 0A       		.byte	0xa
 1491 04eb 13       		.uleb128 0x13
 1492 04ec 8F030000 		.4byte	.LASF93
 1493 04f0 0B       		.byte	0xb
 1494 04f1 13       		.uleb128 0x13
 1495 04f2 58080000 		.4byte	.LASF94
 1496 04f6 0C       		.byte	0xc
 1497 04f7 13       		.uleb128 0x13
 1498 04f8 E7040000 		.4byte	.LASF95
 1499 04fc 0D       		.byte	0xd
 1500 04fd 13       		.uleb128 0x13
 1501 04fe 2D0A0000 		.4byte	.LASF96
 1502 0502 0E       		.byte	0xe
 1503 0503 13       		.uleb128 0x13
 1504 0504 08090000 		.4byte	.LASF97
 1505 0508 0F       		.byte	0xf
 1506 0509 13       		.uleb128 0x13
 1507 050a 8E090000 		.4byte	.LASF98
 1508 050e 10       		.byte	0x10
 1509 050f 13       		.uleb128 0x13
 1510 0510 6E020000 		.4byte	.LASF99
 1511 0514 11       		.byte	0x11
 1512 0515 13       		.uleb128 0x13
 1513 0516 23090000 		.4byte	.LASF100
 1514 051a 12       		.byte	0x12
 1515 051b 13       		.uleb128 0x13
 1516 051c 87050000 		.4byte	.LASF101
 1517 0520 13       		.byte	0x13
 1518 0521 13       		.uleb128 0x13
 1519 0522 B4050000 		.4byte	.LASF102
 1520 0526 14       		.byte	0x14
 1521 0527 13       		.uleb128 0x13
 1522 0528 AB010000 		.4byte	.LASF103
 1523 052c 15       		.byte	0x15
 1524 052d 13       		.uleb128 0x13
 1525 052e 36010000 		.4byte	.LASF104
 1526 0532 16       		.byte	0x16
 1527 0533 13       		.uleb128 0x13
 1528 0534 DC050000 		.4byte	.LASF105
 1529 0538 17       		.byte	0x17
 1530 0539 13       		.uleb128 0x13
 1531 053a 6E010000 		.4byte	.LASF106
 1532 053e 18       		.byte	0x18
ARM GAS  /var/folders/t8/16hdwfmd2fg_d3q6dgx6bpmw0000gn/T//ccDKACFo.s 			page 28


 1533 053f 13       		.uleb128 0x13
 1534 0540 46050000 		.4byte	.LASF107
 1535 0544 19       		.byte	0x19
 1536 0545 13       		.uleb128 0x13
 1537 0546 10000000 		.4byte	.LASF108
 1538 054a 1A       		.byte	0x1a
 1539 054b 13       		.uleb128 0x13
 1540 054c BF080000 		.4byte	.LASF109
 1541 0550 1B       		.byte	0x1b
 1542 0551 13       		.uleb128 0x13
 1543 0552 94060000 		.4byte	.LASF110
 1544 0556 1C       		.byte	0x1c
 1545 0557 13       		.uleb128 0x13
 1546 0558 E7020000 		.4byte	.LASF111
 1547 055c 1D       		.byte	0x1d
 1548 055d 13       		.uleb128 0x13
 1549 055e 0F050000 		.4byte	.LASF112
 1550 0562 1E       		.byte	0x1e
 1551 0563 13       		.uleb128 0x13
 1552 0564 23000000 		.4byte	.LASF113
 1553 0568 1F       		.byte	0x1f
 1554 0569 00       		.byte	0
 1555 056a 03       		.uleb128 0x3
 1556 056b 69040000 		.4byte	.LASF114
 1557 056f 0D       		.byte	0xd
 1558 0570 53       		.byte	0x53
 1559 0571 74040000 		.4byte	0x474
 1560 0575 14       		.uleb128 0x14
 1561 0576 2003     		.2byte	0x320
 1562 0578 03       		.byte	0x3
 1563 0579 7801     		.2byte	0x178
 1564 057b 07060000 		.4byte	0x607
 1565 057f 0B       		.uleb128 0xb
 1566 0580 43030000 		.4byte	.LASF115
 1567 0584 03       		.byte	0x3
 1568 0585 7A01     		.2byte	0x17a
 1569 0587 17060000 		.4byte	0x617
 1570 058b 00       		.byte	0
 1571 058c 0B       		.uleb128 0xb
 1572 058d B0070000 		.4byte	.LASF116
 1573 0591 03       		.byte	0x3
 1574 0592 7B01     		.2byte	0x17b
 1575 0594 1C060000 		.4byte	0x61c
 1576 0598 04       		.byte	0x4
 1577 0599 0B       		.uleb128 0xb
 1578 059a 180A0000 		.4byte	.LASF117
 1579 059e 03       		.byte	0x3
 1580 059f 7C01     		.2byte	0x17c
 1581 05a1 17060000 		.4byte	0x617
 1582 05a5 80       		.byte	0x80
 1583 05a6 0B       		.uleb128 0xb
 1584 05a7 75030000 		.4byte	.LASF118
 1585 05ab 03       		.byte	0x3
 1586 05ac 7D01     		.2byte	0x17d
 1587 05ae 1C060000 		.4byte	0x61c
 1588 05b2 84       		.byte	0x84
 1589 05b3 15       		.uleb128 0x15
ARM GAS  /var/folders/t8/16hdwfmd2fg_d3q6dgx6bpmw0000gn/T//ccDKACFo.s 			page 29


 1590 05b4 C30A0000 		.4byte	.LASF119
 1591 05b8 03       		.byte	0x3
 1592 05b9 7E01     		.2byte	0x17e
 1593 05bb 17060000 		.4byte	0x617
 1594 05bf 0001     		.2byte	0x100
 1595 05c1 15       		.uleb128 0x15
 1596 05c2 C4070000 		.4byte	.LASF120
 1597 05c6 03       		.byte	0x3
 1598 05c7 7F01     		.2byte	0x17f
 1599 05c9 1C060000 		.4byte	0x61c
 1600 05cd 0401     		.2byte	0x104
 1601 05cf 15       		.uleb128 0x15
 1602 05d0 52070000 		.4byte	.LASF121
 1603 05d4 03       		.byte	0x3
 1604 05d5 8001     		.2byte	0x180
 1605 05d7 17060000 		.4byte	0x617
 1606 05db 8001     		.2byte	0x180
 1607 05dd 15       		.uleb128 0x15
 1608 05de CE070000 		.4byte	.LASF122
 1609 05e2 03       		.byte	0x3
 1610 05e3 8101     		.2byte	0x181
 1611 05e5 1C060000 		.4byte	0x61c
 1612 05e9 8401     		.2byte	0x184
 1613 05eb 15       		.uleb128 0x15
 1614 05ec D8070000 		.4byte	.LASF123
 1615 05f0 03       		.byte	0x3
 1616 05f1 8201     		.2byte	0x182
 1617 05f3 2C060000 		.4byte	0x62c
 1618 05f7 0002     		.2byte	0x200
 1619 05f9 16       		.uleb128 0x16
 1620 05fa 495000   		.ascii	"IP\000"
 1621 05fd 03       		.byte	0x3
 1622 05fe 8301     		.2byte	0x183
 1623 0600 4C060000 		.4byte	0x64c
 1624 0604 0003     		.2byte	0x300
 1625 0606 00       		.byte	0
 1626 0607 17       		.uleb128 0x17
 1627 0608 D9000000 		.4byte	0xd9
 1628 060c 17060000 		.4byte	0x617
 1629 0610 18       		.uleb128 0x18
 1630 0611 37000000 		.4byte	0x37
 1631 0615 00       		.byte	0
 1632 0616 00       		.byte	0
 1633 0617 05       		.uleb128 0x5
 1634 0618 07060000 		.4byte	0x607
 1635 061c 17       		.uleb128 0x17
 1636 061d CE000000 		.4byte	0xce
 1637 0621 2C060000 		.4byte	0x62c
 1638 0625 18       		.uleb128 0x18
 1639 0626 37000000 		.4byte	0x37
 1640 062a 1E       		.byte	0x1e
 1641 062b 00       		.byte	0
 1642 062c 17       		.uleb128 0x17
 1643 062d CE000000 		.4byte	0xce
 1644 0631 3C060000 		.4byte	0x63c
 1645 0635 18       		.uleb128 0x18
 1646 0636 37000000 		.4byte	0x37
ARM GAS  /var/folders/t8/16hdwfmd2fg_d3q6dgx6bpmw0000gn/T//ccDKACFo.s 			page 30


 1647 063a 3F       		.byte	0x3f
 1648 063b 00       		.byte	0
 1649 063c 17       		.uleb128 0x17
 1650 063d D9000000 		.4byte	0xd9
 1651 0641 4C060000 		.4byte	0x64c
 1652 0645 18       		.uleb128 0x18
 1653 0646 37000000 		.4byte	0x37
 1654 064a 07       		.byte	0x7
 1655 064b 00       		.byte	0
 1656 064c 05       		.uleb128 0x5
 1657 064d 3C060000 		.4byte	0x63c
 1658 0651 19       		.uleb128 0x19
 1659 0652 E6080000 		.4byte	.LASF124
 1660 0656 03       		.byte	0x3
 1661 0657 8401     		.2byte	0x184
 1662 0659 75050000 		.4byte	0x575
 1663 065d 1A       		.uleb128 0x1a
 1664 065e 28       		.byte	0x28
 1665 065f 03       		.byte	0x3
 1666 0660 9301     		.2byte	0x193
 1667 0662 DC060000 		.4byte	0x6dc
 1668 0666 0B       		.uleb128 0xb
 1669 0667 C5040000 		.4byte	.LASF125
 1670 066b 03       		.byte	0x3
 1671 066c 9501     		.2byte	0x195
 1672 066e DE000000 		.4byte	0xde
 1673 0672 00       		.byte	0
 1674 0673 0B       		.uleb128 0xb
 1675 0674 D7050000 		.4byte	.LASF126
 1676 0678 03       		.byte	0x3
 1677 0679 9601     		.2byte	0x196
 1678 067b D9000000 		.4byte	0xd9
 1679 067f 04       		.byte	0x4
 1680 0680 0B       		.uleb128 0xb
 1681 0681 12090000 		.4byte	.LASF127
 1682 0685 03       		.byte	0x3
 1683 0686 9801     		.2byte	0x198
 1684 0688 D9000000 		.4byte	0xd9
 1685 068c 08       		.byte	0x8
 1686 068d 0B       		.uleb128 0xb
 1687 068e EF050000 		.4byte	.LASF128
 1688 0692 03       		.byte	0x3
 1689 0693 9C01     		.2byte	0x19c
 1690 0695 D9000000 		.4byte	0xd9
 1691 0699 0C       		.byte	0xc
 1692 069a 0A       		.uleb128 0xa
 1693 069b 53435200 		.ascii	"SCR\000"
 1694 069f 03       		.byte	0x3
 1695 06a0 9D01     		.2byte	0x19d
 1696 06a2 D9000000 		.4byte	0xd9
 1697 06a6 10       		.byte	0x10
 1698 06a7 0A       		.uleb128 0xa
 1699 06a8 43435200 		.ascii	"CCR\000"
 1700 06ac 03       		.byte	0x3
 1701 06ad 9E01     		.2byte	0x19e
 1702 06af D9000000 		.4byte	0xd9
 1703 06b3 14       		.byte	0x14
ARM GAS  /var/folders/t8/16hdwfmd2fg_d3q6dgx6bpmw0000gn/T//ccDKACFo.s 			page 31


 1704 06b4 0B       		.uleb128 0xb
 1705 06b5 BA070000 		.4byte	.LASF129
 1706 06b9 03       		.byte	0x3
 1707 06ba 9F01     		.2byte	0x19f
 1708 06bc CE000000 		.4byte	0xce
 1709 06c0 18       		.byte	0x18
 1710 06c1 0A       		.uleb128 0xa
 1711 06c2 53485000 		.ascii	"SHP\000"
 1712 06c6 03       		.byte	0x3
 1713 06c7 A001     		.2byte	0x1a0
 1714 06c9 EC060000 		.4byte	0x6ec
 1715 06cd 1C       		.byte	0x1c
 1716 06ce 0B       		.uleb128 0xb
 1717 06cf 8E060000 		.4byte	.LASF130
 1718 06d3 03       		.byte	0x3
 1719 06d4 A101     		.2byte	0x1a1
 1720 06d6 D9000000 		.4byte	0xd9
 1721 06da 24       		.byte	0x24
 1722 06db 00       		.byte	0
 1723 06dc 17       		.uleb128 0x17
 1724 06dd D9000000 		.4byte	0xd9
 1725 06e1 EC060000 		.4byte	0x6ec
 1726 06e5 18       		.uleb128 0x18
 1727 06e6 37000000 		.4byte	0x37
 1728 06ea 01       		.byte	0x1
 1729 06eb 00       		.byte	0
 1730 06ec 05       		.uleb128 0x5
 1731 06ed DC060000 		.4byte	0x6dc
 1732 06f1 19       		.uleb128 0x19
 1733 06f2 F0080000 		.4byte	.LASF131
 1734 06f6 03       		.byte	0x3
 1735 06f7 A201     		.2byte	0x1a2
 1736 06f9 5D060000 		.4byte	0x65d
 1737 06fd 03       		.uleb128 0x3
 1738 06fe 52010000 		.4byte	.LASF132
 1739 0702 0E       		.byte	0xe
 1740 0703 65       		.byte	0x65
 1741 0704 3E030000 		.4byte	0x33e
 1742 0708 03       		.uleb128 0x3
 1743 0709 7A0A0000 		.4byte	.LASF133
 1744 070d 0E       		.byte	0xe
 1745 070e 6D       		.byte	0x6d
 1746 070f E3000000 		.4byte	0xe3
 1747 0713 07       		.uleb128 0x7
 1748 0714 2F020000 		.4byte	.LASF134
 1749 0718 04       		.byte	0x4
 1750 0719 0E       		.byte	0xe
 1751 071a 89       		.byte	0x89
 1752 071b 2B070000 		.4byte	0x72b
 1753 071f 09       		.uleb128 0x9
 1754 0720 737000   		.ascii	"sp\000"
 1755 0723 0E       		.byte	0xe
 1756 0724 8A       		.byte	0x8a
 1757 0725 9D070000 		.4byte	0x79d
 1758 0729 00       		.byte	0
 1759 072a 00       		.byte	0
 1760 072b 07       		.uleb128 0x7
ARM GAS  /var/folders/t8/16hdwfmd2fg_d3q6dgx6bpmw0000gn/T//ccDKACFo.s 			page 32


 1761 072c 01080000 		.4byte	.LASF135
 1762 0730 24       		.byte	0x24
 1763 0731 06       		.byte	0x6
 1764 0732 C3       		.byte	0xc3
 1765 0733 9D070000 		.4byte	0x79d
 1766 0737 09       		.uleb128 0x9
 1767 0738 723800   		.ascii	"r8\000"
 1768 073b 06       		.byte	0x6
 1769 073c C4       		.byte	0xc4
 1770 073d FD060000 		.4byte	0x6fd
 1771 0741 00       		.byte	0
 1772 0742 09       		.uleb128 0x9
 1773 0743 723900   		.ascii	"r9\000"
 1774 0746 06       		.byte	0x6
 1775 0747 C5       		.byte	0xc5
 1776 0748 FD060000 		.4byte	0x6fd
 1777 074c 04       		.byte	0x4
 1778 074d 09       		.uleb128 0x9
 1779 074e 72313000 		.ascii	"r10\000"
 1780 0752 06       		.byte	0x6
 1781 0753 C6       		.byte	0xc6
 1782 0754 FD060000 		.4byte	0x6fd
 1783 0758 08       		.byte	0x8
 1784 0759 09       		.uleb128 0x9
 1785 075a 72313100 		.ascii	"r11\000"
 1786 075e 06       		.byte	0x6
 1787 075f C7       		.byte	0xc7
 1788 0760 FD060000 		.4byte	0x6fd
 1789 0764 0C       		.byte	0xc
 1790 0765 09       		.uleb128 0x9
 1791 0766 723400   		.ascii	"r4\000"
 1792 0769 06       		.byte	0x6
 1793 076a C8       		.byte	0xc8
 1794 076b FD060000 		.4byte	0x6fd
 1795 076f 10       		.byte	0x10
 1796 0770 09       		.uleb128 0x9
 1797 0771 723500   		.ascii	"r5\000"
 1798 0774 06       		.byte	0x6
 1799 0775 C9       		.byte	0xc9
 1800 0776 FD060000 		.4byte	0x6fd
 1801 077a 14       		.byte	0x14
 1802 077b 09       		.uleb128 0x9
 1803 077c 723600   		.ascii	"r6\000"
 1804 077f 06       		.byte	0x6
 1805 0780 CA       		.byte	0xca
 1806 0781 FD060000 		.4byte	0x6fd
 1807 0785 18       		.byte	0x18
 1808 0786 09       		.uleb128 0x9
 1809 0787 723700   		.ascii	"r7\000"
 1810 078a 06       		.byte	0x6
 1811 078b CB       		.byte	0xcb
 1812 078c FD060000 		.4byte	0x6fd
 1813 0790 1C       		.byte	0x1c
 1814 0791 09       		.uleb128 0x9
 1815 0792 6C7200   		.ascii	"lr\000"
 1816 0795 06       		.byte	0x6
 1817 0796 CC       		.byte	0xcc
ARM GAS  /var/folders/t8/16hdwfmd2fg_d3q6dgx6bpmw0000gn/T//ccDKACFo.s 			page 33


 1818 0797 FD060000 		.4byte	0x6fd
 1819 079b 20       		.byte	0x20
 1820 079c 00       		.byte	0
 1821 079d 0C       		.uleb128 0xc
 1822 079e 04       		.byte	0x4
 1823 079f 2B070000 		.4byte	0x72b
 1824 07a3 1B       		.uleb128 0x1b
 1825 07a4 04       		.byte	0x4
 1826 07a5 0C       		.byte	0xc
 1827 07a6 D2       		.byte	0xd2
 1828 07a7 06080000 		.4byte	0x806
 1829 07ab 1C       		.uleb128 0x1c
 1830 07ac A5040000 		.4byte	.LASF136
 1831 07b0 0C       		.byte	0xc
 1832 07b1 D9       		.byte	0xd9
 1833 07b2 30010000 		.4byte	0x130
 1834 07b6 1C       		.uleb128 0x1c
 1835 07b7 070B0000 		.4byte	.LASF137
 1836 07bb 0C       		.byte	0xc
 1837 07bc E0       		.byte	0xe0
 1838 07bd 30010000 		.4byte	0x130
 1839 07c1 1C       		.uleb128 0x1c
 1840 07c2 17020000 		.4byte	.LASF138
 1841 07c6 0C       		.byte	0xc
 1842 07c7 E7       		.byte	0xe7
 1843 07c8 3E030000 		.4byte	0x33e
 1844 07cc 1C       		.uleb128 0x1c
 1845 07cd 4F0A0000 		.4byte	.LASF139
 1846 07d1 0C       		.byte	0xc
 1847 07d2 EE       		.byte	0xee
 1848 07d3 06080000 		.4byte	0x806
 1849 07d7 1C       		.uleb128 0x1c
 1850 07d8 0F030000 		.4byte	.LASF140
 1851 07dc 0C       		.byte	0xc
 1852 07dd F3       		.byte	0xf3
 1853 07de 30010000 		.4byte	0x130
 1854 07e2 1C       		.uleb128 0x1c
 1855 07e3 FA0A0000 		.4byte	.LASF141
 1856 07e7 0C       		.byte	0xc
 1857 07e8 FC       		.byte	0xfc
 1858 07e9 31080000 		.4byte	0x831
 1859 07ed 1D       		.uleb128 0x1d
 1860 07ee 17010000 		.4byte	.LASF142
 1861 07f2 0C       		.byte	0xc
 1862 07f3 0501     		.2byte	0x105
 1863 07f5 68080000 		.4byte	0x868
 1864 07f9 1D       		.uleb128 0x1d
 1865 07fa 78020000 		.4byte	.LASF143
 1866 07fe 0C       		.byte	0xc
 1867 07ff 0D01     		.2byte	0x10d
 1868 0801 3B010000 		.4byte	0x13b
 1869 0805 00       		.byte	0
 1870 0806 0C       		.uleb128 0xc
 1871 0807 04       		.byte	0x4
 1872 0808 56020000 		.4byte	0x256
 1873 080c 07       		.uleb128 0x7
 1874 080d 53030000 		.4byte	.LASF144
ARM GAS  /var/folders/t8/16hdwfmd2fg_d3q6dgx6bpmw0000gn/T//ccDKACFo.s 			page 34


 1875 0811 0C       		.byte	0xc
 1876 0812 0F       		.byte	0xf
 1877 0813 34       		.byte	0x34
 1878 0814 31080000 		.4byte	0x831
 1879 0818 08       		.uleb128 0x8
 1880 0819 6C090000 		.4byte	.LASF31
 1881 081d 0F       		.byte	0xf
 1882 081e 35       		.byte	0x35
 1883 081f 8B020000 		.4byte	0x28b
 1884 0823 00       		.byte	0
 1885 0824 09       		.uleb128 0x9
 1886 0825 636E7400 		.ascii	"cnt\000"
 1887 0829 0F       		.byte	0xf
 1888 082a 37       		.byte	0x37
 1889 082b 46010000 		.4byte	0x146
 1890 082f 08       		.byte	0x8
 1891 0830 00       		.byte	0
 1892 0831 0C       		.uleb128 0xc
 1893 0832 04       		.byte	0x4
 1894 0833 0C080000 		.4byte	0x80c
 1895 0837 07       		.uleb128 0x7
 1896 0838 FB040000 		.4byte	.LASF145
 1897 083c 10       		.byte	0x10
 1898 083d 10       		.byte	0x10
 1899 083e 39       		.byte	0x39
 1900 083f 68080000 		.4byte	0x868
 1901 0843 08       		.uleb128 0x8
 1902 0844 6C090000 		.4byte	.LASF31
 1903 0848 10       		.byte	0x10
 1904 0849 3A       		.byte	0x3a
 1905 084a 8B020000 		.4byte	0x28b
 1906 084e 00       		.byte	0
 1907 084f 08       		.uleb128 0x8
 1908 0850 2B040000 		.4byte	.LASF146
 1909 0854 10       		.byte	0x10
 1910 0855 3C       		.byte	0x3c
 1911 0856 61020000 		.4byte	0x261
 1912 085a 08       		.byte	0x8
 1913 085b 08       		.uleb128 0x8
 1914 085c D5010000 		.4byte	.LASF51
 1915 0860 10       		.byte	0x10
 1916 0861 3E       		.byte	0x3e
 1917 0862 360A0000 		.4byte	0xa36
 1918 0866 0C       		.byte	0xc
 1919 0867 00       		.byte	0
 1920 0868 0C       		.uleb128 0xc
 1921 0869 04       		.byte	0x4
 1922 086a 37080000 		.4byte	0x837
 1923 086e 0C       		.uleb128 0xc
 1924 086f 04       		.byte	0x4
 1925 0870 80080000 		.4byte	0x880
 1926 0874 05       		.uleb128 0x5
 1927 0875 6E080000 		.4byte	0x86e
 1928 0879 04       		.uleb128 0x4
 1929 087a 01       		.byte	0x1
 1930 087b 08       		.byte	0x8
 1931 087c 78050000 		.4byte	.LASF147
ARM GAS  /var/folders/t8/16hdwfmd2fg_d3q6dgx6bpmw0000gn/T//ccDKACFo.s 			page 35


 1932 0880 06       		.uleb128 0x6
 1933 0881 79080000 		.4byte	0x879
 1934 0885 0C       		.uleb128 0xc
 1935 0886 04       		.byte	0x4
 1936 0887 08070000 		.4byte	0x708
 1937 088b 0C       		.uleb128 0xc
 1938 088c 04       		.byte	0x4
 1939 088d 40030000 		.4byte	0x340
 1940 0891 1E       		.uleb128 0x1e
 1941 0892 636800   		.ascii	"ch\000"
 1942 0895 0C       		.byte	0xc
 1943 0896 D201     		.2byte	0x1d2
 1944 0898 27040000 		.4byte	0x427
 1945 089c 17       		.uleb128 0x17
 1946 089d 08070000 		.4byte	0x708
 1947 08a1 A7080000 		.4byte	0x8a7
 1948 08a5 1F       		.uleb128 0x1f
 1949 08a6 00       		.byte	0
 1950 08a7 20       		.uleb128 0x20
 1951 08a8 C5050000 		.4byte	.LASF148
 1952 08ac 04       		.byte	0x4
 1953 08ad 2B01     		.2byte	0x12b
 1954 08af 9C080000 		.4byte	0x89c
 1955 08b3 03       		.uleb128 0x3
 1956 08b4 99030000 		.4byte	.LASF149
 1957 08b8 11       		.byte	0x11
 1958 08b9 40       		.byte	0x40
 1959 08ba 2D030000 		.4byte	0x32d
 1960 08be 21       		.uleb128 0x21
 1961 08bf 18       		.byte	0x18
 1962 08c0 11       		.byte	0x11
 1963 08c1 45       		.byte	0x45
 1964 08c2 0F090000 		.4byte	0x90f
 1965 08c6 08       		.uleb128 0x8
 1966 08c7 F9080000 		.4byte	.LASF35
 1967 08cb 11       		.byte	0x11
 1968 08cc 49       		.byte	0x49
 1969 08cd 6E080000 		.4byte	0x86e
 1970 08d1 00       		.byte	0
 1971 08d2 08       		.uleb128 0x8
 1972 08d3 30010000 		.4byte	.LASF150
 1973 08d7 11       		.byte	0x11
 1974 08d8 4D       		.byte	0x4d
 1975 08d9 85080000 		.4byte	0x885
 1976 08dd 04       		.byte	0x4
 1977 08de 08       		.uleb128 0x8
 1978 08df 7B060000 		.4byte	.LASF151
 1979 08e3 11       		.byte	0x11
 1980 08e4 51       		.byte	0x51
 1981 08e5 85080000 		.4byte	0x885
 1982 08e9 08       		.byte	0x8
 1983 08ea 08       		.uleb128 0x8
 1984 08eb 64050000 		.4byte	.LASF32
 1985 08ef 11       		.byte	0x11
 1986 08f0 55       		.byte	0x55
 1987 08f1 25010000 		.4byte	0x125
 1988 08f5 0C       		.byte	0xc
ARM GAS  /var/folders/t8/16hdwfmd2fg_d3q6dgx6bpmw0000gn/T//ccDKACFo.s 			page 36


 1989 08f6 08       		.uleb128 0x8
 1990 08f7 CE090000 		.4byte	.LASF152
 1991 08fb 11       		.byte	0x11
 1992 08fc 59       		.byte	0x59
 1993 08fd B3080000 		.4byte	0x8b3
 1994 0901 10       		.byte	0x10
 1995 0902 09       		.uleb128 0x9
 1996 0903 61726700 		.ascii	"arg\000"
 1997 0907 11       		.byte	0x11
 1998 0908 5D       		.byte	0x5d
 1999 0909 3E030000 		.4byte	0x33e
 2000 090d 14       		.byte	0x14
 2001 090e 00       		.byte	0
 2002 090f 03       		.uleb128 0x3
 2003 0910 2F030000 		.4byte	.LASF153
 2004 0914 11       		.byte	0x11
 2005 0915 5E       		.byte	0x5e
 2006 0916 BE080000 		.4byte	0x8be
 2007 091a 06       		.uleb128 0x6
 2008 091b 0F090000 		.4byte	0x90f
 2009 091f 21       		.uleb128 0x21
 2010 0920 16       		.byte	0x16
 2011 0921 12       		.byte	0x12
 2012 0922 34       		.byte	0x34
 2013 0923 000A0000 		.4byte	0xa00
 2014 0927 08       		.uleb128 0x8
 2015 0928 3A090000 		.4byte	.LASF154
 2016 092c 12       		.byte	0x12
 2017 092d 35       		.byte	0x35
 2018 092e 000A0000 		.4byte	0xa00
 2019 0932 00       		.byte	0
 2020 0933 08       		.uleb128 0x8
 2021 0934 FA010000 		.4byte	.LASF155
 2022 0938 12       		.byte	0x12
 2023 0939 36       		.byte	0x36
 2024 093a AD000000 		.4byte	0xad
 2025 093e 04       		.byte	0x4
 2026 093f 08       		.uleb128 0x8
 2027 0940 C8060000 		.4byte	.LASF156
 2028 0944 12       		.byte	0x12
 2029 0945 37       		.byte	0x37
 2030 0946 AD000000 		.4byte	0xad
 2031 094a 05       		.byte	0x5
 2032 094b 08       		.uleb128 0x8
 2033 094c DA010000 		.4byte	.LASF157
 2034 0950 12       		.byte	0x12
 2035 0951 38       		.byte	0x38
 2036 0952 B8000000 		.4byte	0xb8
 2037 0956 06       		.byte	0x6
 2038 0957 08       		.uleb128 0x8
 2039 0958 CD060000 		.4byte	.LASF158
 2040 095c 12       		.byte	0x12
 2041 095d 39       		.byte	0x39
 2042 095e AD000000 		.4byte	0xad
 2043 0962 08       		.byte	0x8
 2044 0963 08       		.uleb128 0x8
 2045 0964 1A000000 		.4byte	.LASF159
ARM GAS  /var/folders/t8/16hdwfmd2fg_d3q6dgx6bpmw0000gn/T//ccDKACFo.s 			page 37


 2046 0968 12       		.byte	0x12
 2047 0969 3A       		.byte	0x3a
 2048 096a AD000000 		.4byte	0xad
 2049 096e 09       		.byte	0x9
 2050 096f 08       		.uleb128 0x8
 2051 0970 48030000 		.4byte	.LASF160
 2052 0974 12       		.byte	0x12
 2053 0975 3B       		.byte	0x3b
 2054 0976 AD000000 		.4byte	0xad
 2055 097a 0A       		.byte	0xa
 2056 097b 08       		.uleb128 0x8
 2057 097c 9E070000 		.4byte	.LASF161
 2058 0980 12       		.byte	0x12
 2059 0981 3C       		.byte	0x3c
 2060 0982 AD000000 		.4byte	0xad
 2061 0986 0B       		.byte	0xb
 2062 0987 08       		.uleb128 0x8
 2063 0988 19050000 		.4byte	.LASF162
 2064 098c 12       		.byte	0x12
 2065 098d 3D       		.byte	0x3d
 2066 098e AD000000 		.4byte	0xad
 2067 0992 0C       		.byte	0xc
 2068 0993 08       		.uleb128 0x8
 2069 0994 C4020000 		.4byte	.LASF163
 2070 0998 12       		.byte	0x12
 2071 0999 3E       		.byte	0x3e
 2072 099a AD000000 		.4byte	0xad
 2073 099e 0D       		.byte	0xd
 2074 099f 08       		.uleb128 0x8
 2075 09a0 8A040000 		.4byte	.LASF164
 2076 09a4 12       		.byte	0x12
 2077 09a5 3F       		.byte	0x3f
 2078 09a6 AD000000 		.4byte	0xad
 2079 09aa 0E       		.byte	0xe
 2080 09ab 08       		.uleb128 0x8
 2081 09ac 53060000 		.4byte	.LASF165
 2082 09b0 12       		.byte	0x12
 2083 09b1 40       		.byte	0x40
 2084 09b2 AD000000 		.4byte	0xad
 2085 09b6 0F       		.byte	0xf
 2086 09b7 08       		.uleb128 0x8
 2087 09b8 0A040000 		.4byte	.LASF166
 2088 09bc 12       		.byte	0x12
 2089 09bd 41       		.byte	0x41
 2090 09be AD000000 		.4byte	0xad
 2091 09c2 10       		.byte	0x10
 2092 09c3 08       		.uleb128 0x8
 2093 09c4 94040000 		.4byte	.LASF167
 2094 09c8 12       		.byte	0x12
 2095 09c9 42       		.byte	0x42
 2096 09ca AD000000 		.4byte	0xad
 2097 09ce 11       		.byte	0x11
 2098 09cf 08       		.uleb128 0x8
 2099 09d0 50050000 		.4byte	.LASF168
 2100 09d4 12       		.byte	0x12
 2101 09d5 43       		.byte	0x43
 2102 09d6 AD000000 		.4byte	0xad
ARM GAS  /var/folders/t8/16hdwfmd2fg_d3q6dgx6bpmw0000gn/T//ccDKACFo.s 			page 38


 2103 09da 12       		.byte	0x12
 2104 09db 08       		.uleb128 0x8
 2105 09dc 850A0000 		.4byte	.LASF169
 2106 09e0 12       		.byte	0x12
 2107 09e1 44       		.byte	0x44
 2108 09e2 AD000000 		.4byte	0xad
 2109 09e6 13       		.byte	0x13
 2110 09e7 08       		.uleb128 0x8
 2111 09e8 17090000 		.4byte	.LASF170
 2112 09ec 12       		.byte	0x12
 2113 09ed 45       		.byte	0x45
 2114 09ee AD000000 		.4byte	0xad
 2115 09f2 14       		.byte	0x14
 2116 09f3 08       		.uleb128 0x8
 2117 09f4 0E020000 		.4byte	.LASF171
 2118 09f8 12       		.byte	0x12
 2119 09f9 46       		.byte	0x46
 2120 09fa AD000000 		.4byte	0xad
 2121 09fe 15       		.byte	0x15
 2122 09ff 00       		.byte	0
 2123 0a00 17       		.uleb128 0x17
 2124 0a01 79080000 		.4byte	0x879
 2125 0a05 100A0000 		.4byte	0xa10
 2126 0a09 18       		.uleb128 0x18
 2127 0a0a 37000000 		.4byte	0x37
 2128 0a0e 03       		.byte	0x3
 2129 0a0f 00       		.byte	0
 2130 0a10 03       		.uleb128 0x3
 2131 0a11 94070000 		.4byte	.LASF172
 2132 0a15 12       		.byte	0x12
 2133 0a16 47       		.byte	0x47
 2134 0a17 1F090000 		.4byte	0x91f
 2135 0a1b 06       		.uleb128 0x6
 2136 0a1c 100A0000 		.4byte	0xa10
 2137 0a20 22       		.uleb128 0x22
 2138 0a21 C80A0000 		.4byte	.LASF173
 2139 0a25 12       		.byte	0x12
 2140 0a26 6C       		.byte	0x6c
 2141 0a27 1B0A0000 		.4byte	0xa1b
 2142 0a2b 03       		.uleb128 0x3
 2143 0a2c 7A090000 		.4byte	.LASF174
 2144 0a30 10       		.byte	0x10
 2145 0a31 34       		.byte	0x34
 2146 0a32 37080000 		.4byte	0x837
 2147 0a36 0C       		.uleb128 0xc
 2148 0a37 04       		.byte	0x4
 2149 0a38 2B0A0000 		.4byte	0xa2b
 2150 0a3c 23       		.uleb128 0x23
 2151 0a3d A7080000 		.4byte	0x8a7
 2152 0a41 01       		.byte	0x1
 2153 0a42 2E       		.byte	0x2e
 2154 0a43 05       		.uleb128 0x5
 2155 0a44 03       		.byte	0x3
 2156 0a45 00000000 		.4byte	ch_idle_thread_wa
 2157 0a49 24       		.uleb128 0x24
 2158 0a4a 1A060000 		.4byte	.LASF175
 2159 0a4e 01       		.byte	0x1
ARM GAS  /var/folders/t8/16hdwfmd2fg_d3q6dgx6bpmw0000gn/T//ccDKACFo.s 			page 39


 2160 0a4f 8501     		.2byte	0x185
 2161 0a51 00000000 		.4byte	.LFB144
 2162 0a55 44000000 		.4byte	.LFE144-.LFB144
 2163 0a59 01       		.uleb128 0x1
 2164 0a5a 9C       		.byte	0x9c
 2165 0a5b 920B0000 		.4byte	0xb92
 2166 0a5f 25       		.uleb128 0x25
 2167 0a60 73747300 		.ascii	"sts\000"
 2168 0a64 01       		.byte	0x1
 2169 0a65 8501     		.2byte	0x185
 2170 0a67 EE000000 		.4byte	0xee
 2171 0a6b 00000000 		.4byte	.LLST9
 2172 0a6f 26       		.uleb128 0x26
 2173 0a70 7E100000 		.4byte	0x107e
 2174 0a74 06000000 		.4byte	.LBB216
 2175 0a78 06000000 		.4byte	.LBE216-.LBB216
 2176 0a7c 01       		.byte	0x1
 2177 0a7d 8801     		.2byte	0x188
 2178 0a7f A40A0000 		.4byte	0xaa4
 2179 0a83 27       		.uleb128 0x27
 2180 0a84 0A110000 		.4byte	0x110a
 2181 0a88 06000000 		.4byte	.LBB218
 2182 0a8c 04000000 		.4byte	.LBE218-.LBB218
 2183 0a90 06       		.byte	0x6
 2184 0a91 6C01     		.2byte	0x16c
 2185 0a93 28       		.uleb128 0x28
 2186 0a94 06000000 		.4byte	.LBB219
 2187 0a98 04000000 		.4byte	.LBE219-.LBB219
 2188 0a9c 29       		.uleb128 0x29
 2189 0a9d 1A110000 		.4byte	0x111a
 2190 0aa1 00       		.byte	0
 2191 0aa2 00       		.byte	0
 2192 0aa3 00       		.byte	0
 2193 0aa4 26       		.uleb128 0x26
 2194 0aa5 FD0F0000 		.4byte	0xffd
 2195 0aa9 12000000 		.4byte	.LBB220
 2196 0aad 20000000 		.4byte	.LBE220-.LBB220
 2197 0ab1 01       		.byte	0x1
 2198 0ab2 8D01     		.2byte	0x18d
 2199 0ab4 340B0000 		.4byte	0xb34
 2200 0ab8 28       		.uleb128 0x28
 2201 0ab9 12000000 		.4byte	.LBB221
 2202 0abd 20000000 		.4byte	.LBE221-.LBB221
 2203 0ac1 29       		.uleb128 0x29
 2204 0ac2 0A100000 		.4byte	0x100a
 2205 0ac6 26       		.uleb128 0x26
 2206 0ac7 5B0E0000 		.4byte	0xe5b
 2207 0acb 28000000 		.4byte	.LBB222
 2208 0acf 08000000 		.4byte	.LBE222-.LBB222
 2209 0ad3 04       		.byte	0x4
 2210 0ad4 8B01     		.2byte	0x18b
 2211 0ad6 040B0000 		.4byte	0xb04
 2212 0ada 2A       		.uleb128 0x2a
 2213 0adb 670E0000 		.4byte	0xe67
 2214 0adf 3A000000 		.4byte	.LLST10
 2215 0ae3 2B       		.uleb128 0x2b
 2216 0ae4 51100000 		.4byte	0x1051
ARM GAS  /var/folders/t8/16hdwfmd2fg_d3q6dgx6bpmw0000gn/T//ccDKACFo.s 			page 40


 2217 0ae8 28000000 		.4byte	.LBB224
 2218 0aec 02000000 		.4byte	.LBE224-.LBB224
 2219 0af0 01       		.byte	0x1
 2220 0af1 C2       		.byte	0xc2
 2221 0af2 2C       		.uleb128 0x2c
 2222 0af3 26110000 		.4byte	0x1126
 2223 0af7 28000000 		.4byte	.LBB225
 2224 0afb 02000000 		.4byte	.LBE225-.LBB225
 2225 0aff 06       		.byte	0x6
 2226 0b00 9A01     		.2byte	0x19a
 2227 0b02 00       		.byte	0
 2228 0b03 00       		.byte	0
 2229 0b04 26       		.uleb128 0x26
 2230 0b05 6C100000 		.4byte	0x106c
 2231 0b09 30000000 		.4byte	.LBB227
 2232 0b0d 02000000 		.4byte	.LBE227-.LBB227
 2233 0b11 04       		.byte	0x4
 2234 0b12 8F01     		.2byte	0x18f
 2235 0b14 290B0000 		.4byte	0xb29
 2236 0b18 2C       		.uleb128 0x2c
 2237 0b19 2E110000 		.4byte	0x112e
 2238 0b1d 30000000 		.4byte	.LBB228
 2239 0b21 02000000 		.4byte	.LBE228-.LBB228
 2240 0b25 06       		.byte	0x6
 2241 0b26 7E01     		.2byte	0x17e
 2242 0b28 00       		.byte	0
 2243 0b29 2D       		.uleb128 0x2d
 2244 0b2a 16000000 		.4byte	.LVL64
 2245 0b2e 81110000 		.4byte	0x1181
 2246 0b32 00       		.byte	0
 2247 0b33 00       		.byte	0
 2248 0b34 26       		.uleb128 0x26
 2249 0b35 EB0F0000 		.4byte	0xfeb
 2250 0b39 34000000 		.4byte	.LBB230
 2251 0b3d 10000000 		.4byte	.LBE230-.LBB230
 2252 0b41 01       		.byte	0x1
 2253 0b42 8901     		.2byte	0x189
 2254 0b44 880B0000 		.4byte	0xb88
 2255 0b48 26       		.uleb128 0x26
 2256 0b49 5A100000 		.4byte	0x105a
 2257 0b4d 38000000 		.4byte	.LBB232
 2258 0b51 0C000000 		.4byte	.LBE232-.LBB232
 2259 0b55 04       		.byte	0x4
 2260 0b56 B601     		.2byte	0x1b6
 2261 0b58 7E0B0000 		.4byte	0xb7e
 2262 0b5c 27       		.uleb128 0x27
 2263 0b5d 6C100000 		.4byte	0x106c
 2264 0b61 38000000 		.4byte	.LBB233
 2265 0b65 0C000000 		.4byte	.LBE233-.LBB233
 2266 0b69 06       		.byte	0x6
 2267 0b6a 9201     		.2byte	0x192
 2268 0b6c 2C       		.uleb128 0x2c
 2269 0b6d 2E110000 		.4byte	0x112e
 2270 0b71 38000000 		.4byte	.LBB234
 2271 0b75 0C000000 		.4byte	.LBE234-.LBB234
 2272 0b79 06       		.byte	0x6
 2273 0b7a 7E01     		.2byte	0x17e
ARM GAS  /var/folders/t8/16hdwfmd2fg_d3q6dgx6bpmw0000gn/T//ccDKACFo.s 			page 41


 2274 0b7c 00       		.byte	0
 2275 0b7d 00       		.byte	0
 2276 0b7e 2D       		.uleb128 0x2d
 2277 0b7f 38000000 		.4byte	.LVL68
 2278 0b83 8C110000 		.4byte	0x118c
 2279 0b87 00       		.byte	0
 2280 0b88 2D       		.uleb128 0x2d
 2281 0b89 12000000 		.4byte	.LVL63
 2282 0b8d 97110000 		.4byte	0x1197
 2283 0b91 00       		.byte	0
 2284 0b92 2E       		.uleb128 0x2e
 2285 0b93 A8080000 		.4byte	.LASF177
 2286 0b97 01       		.byte	0x1
 2287 0b98 6E01     		.2byte	0x16e
 2288 0b9a EE000000 		.4byte	0xee
 2289 0b9e 00000000 		.4byte	.LFB143
 2290 0ba2 24000000 		.4byte	.LFE143-.LFB143
 2291 0ba6 01       		.uleb128 0x1
 2292 0ba7 9C       		.byte	0x9c
 2293 0ba8 B80C0000 		.4byte	0xcb8
 2294 0bac 2F       		.uleb128 0x2f
 2295 0bad 73747300 		.ascii	"sts\000"
 2296 0bb1 01       		.byte	0x1
 2297 0bb2 7001     		.2byte	0x170
 2298 0bb4 EE000000 		.4byte	0xee
 2299 0bb8 26       		.uleb128 0x26
 2300 0bb9 A9100000 		.4byte	0x10a9
 2301 0bbd 02000000 		.4byte	.LBB176
 2302 0bc1 04000000 		.4byte	.LBE176-.LBB176
 2303 0bc5 01       		.byte	0x1
 2304 0bc6 7001     		.2byte	0x170
 2305 0bc8 EF0B0000 		.4byte	0xbef
 2306 0bcc 27       		.uleb128 0x27
 2307 0bcd EE100000 		.4byte	0x10ee
 2308 0bd1 02000000 		.4byte	.LBB177
 2309 0bd5 04000000 		.4byte	.LBE177-.LBB177
 2310 0bd9 06       		.byte	0x6
 2311 0bda 5201     		.2byte	0x152
 2312 0bdc 28       		.uleb128 0x28
 2313 0bdd 02000000 		.4byte	.LBB178
 2314 0be1 04000000 		.4byte	.LBE178-.LBB178
 2315 0be5 30       		.uleb128 0x30
 2316 0be6 FE100000 		.4byte	0x10fe
 2317 0bea 01       		.uleb128 0x1
 2318 0beb 54       		.byte	0x54
 2319 0bec 00       		.byte	0
 2320 0bed 00       		.byte	0
 2321 0bee 00       		.byte	0
 2322 0bef 26       		.uleb128 0x26
 2323 0bf0 7E100000 		.4byte	0x107e
 2324 0bf4 0A000000 		.4byte	.LBB179
 2325 0bf8 06000000 		.4byte	.LBE179-.LBB179
 2326 0bfc 01       		.byte	0x1
 2327 0bfd 7201     		.2byte	0x172
 2328 0bff 240C0000 		.4byte	0xc24
 2329 0c03 27       		.uleb128 0x27
 2330 0c04 0A110000 		.4byte	0x110a
ARM GAS  /var/folders/t8/16hdwfmd2fg_d3q6dgx6bpmw0000gn/T//ccDKACFo.s 			page 42


 2331 0c08 0A000000 		.4byte	.LBB181
 2332 0c0c 04000000 		.4byte	.LBE181-.LBB181
 2333 0c10 06       		.byte	0x6
 2334 0c11 6C01     		.2byte	0x16c
 2335 0c13 28       		.uleb128 0x28
 2336 0c14 0A000000 		.4byte	.LBB182
 2337 0c18 04000000 		.4byte	.LBE182-.LBB182
 2338 0c1c 29       		.uleb128 0x29
 2339 0c1d 1A110000 		.4byte	0x111a
 2340 0c21 00       		.byte	0
 2341 0c22 00       		.byte	0
 2342 0c23 00       		.byte	0
 2343 0c24 26       		.uleb128 0x26
 2344 0c25 2D100000 		.4byte	0x102d
 2345 0c29 12000000 		.4byte	.LBB183
 2346 0c2d 06000000 		.4byte	.LBE183-.LBB183
 2347 0c31 01       		.byte	0x1
 2348 0c32 7601     		.2byte	0x176
 2349 0c34 670C0000 		.4byte	0xc67
 2350 0c38 26       		.uleb128 0x26
 2351 0c39 75100000 		.4byte	0x1075
 2352 0c3d 12000000 		.4byte	.LBB185
 2353 0c41 02000000 		.4byte	.LBE185-.LBB185
 2354 0c45 04       		.byte	0x4
 2355 0c46 7801     		.2byte	0x178
 2356 0c48 5D0C0000 		.4byte	0xc5d
 2357 0c4c 2C       		.uleb128 0x2c
 2358 0c4d 26110000 		.4byte	0x1126
 2359 0c51 12000000 		.4byte	.LBB186
 2360 0c55 02000000 		.4byte	.LBE186-.LBB186
 2361 0c59 06       		.byte	0x6
 2362 0c5a 7501     		.2byte	0x175
 2363 0c5c 00       		.byte	0
 2364 0c5d 2D       		.uleb128 0x2d
 2365 0c5e 18000000 		.4byte	.LVL60
 2366 0c62 A3110000 		.4byte	0x11a3
 2367 0c66 00       		.byte	0
 2368 0c67 27       		.uleb128 0x27
 2369 0c68 F40F0000 		.4byte	0xff4
 2370 0c6c 1C000000 		.4byte	.LBB188
 2371 0c70 08000000 		.4byte	.LBE188-.LBB188
 2372 0c74 01       		.byte	0x1
 2373 0c75 7301     		.2byte	0x173
 2374 0c77 26       		.uleb128 0x26
 2375 0c78 63100000 		.4byte	0x1063
 2376 0c7c 1C000000 		.4byte	.LBB190
 2377 0c80 02000000 		.4byte	.LBE190-.LBB190
 2378 0c84 04       		.byte	0x4
 2379 0c85 A001     		.2byte	0x1a0
 2380 0c87 AD0C0000 		.4byte	0xcad
 2381 0c8b 27       		.uleb128 0x27
 2382 0c8c 75100000 		.4byte	0x1075
 2383 0c90 1C000000 		.4byte	.LBB191
 2384 0c94 02000000 		.4byte	.LBE191-.LBB191
 2385 0c98 06       		.byte	0x6
 2386 0c99 8801     		.2byte	0x188
 2387 0c9b 2C       		.uleb128 0x2c
ARM GAS  /var/folders/t8/16hdwfmd2fg_d3q6dgx6bpmw0000gn/T//ccDKACFo.s 			page 43


 2388 0c9c 26110000 		.4byte	0x1126
 2389 0ca0 1C000000 		.4byte	.LBB192
 2390 0ca4 02000000 		.4byte	.LBE192-.LBB192
 2391 0ca8 06       		.byte	0x6
 2392 0ca9 7501     		.2byte	0x175
 2393 0cab 00       		.byte	0
 2394 0cac 00       		.byte	0
 2395 0cad 2D       		.uleb128 0x2d
 2396 0cae 22000000 		.4byte	.LVL61
 2397 0cb2 AE110000 		.4byte	0x11ae
 2398 0cb6 00       		.byte	0
 2399 0cb7 00       		.byte	0
 2400 0cb8 24       		.uleb128 0x24
 2401 0cb9 3F010000 		.4byte	.LASF176
 2402 0cbd 01       		.byte	0x1
 2403 0cbe 4F01     		.2byte	0x14f
 2404 0cc0 00000000 		.4byte	.LFB142
 2405 0cc4 68000000 		.4byte	.LFE142-.LFB142
 2406 0cc8 01       		.uleb128 0x1
 2407 0cc9 9C       		.byte	0x9c
 2408 0cca CA0D0000 		.4byte	0xdca
 2409 0cce 26       		.uleb128 0x26
 2410 0ccf C40F0000 		.4byte	0xfc4
 2411 0cd3 1A000000 		.4byte	.LBB161
 2412 0cd7 44000000 		.4byte	.LBE161-.LBB161
 2413 0cdb 01       		.byte	0x1
 2414 0cdc 5D01     		.2byte	0x15d
 2415 0cde C00D0000 		.4byte	0xdc0
 2416 0ce2 31       		.uleb128 0x31
 2417 0ce3 D10F0000 		.4byte	0xfd1
 2418 0ce7 38000000 		.4byte	.LBB163
 2419 0ceb 1E000000 		.4byte	.LBE163-.LBB163
 2420 0cef B60D0000 		.4byte	0xdb6
 2421 0cf3 32       		.uleb128 0x32
 2422 0cf4 D20F0000 		.4byte	0xfd2
 2423 0cf8 52000000 		.4byte	.LLST7
 2424 0cfc 32       		.uleb128 0x32
 2425 0cfd DE0F0000 		.4byte	0xfde
 2426 0d01 65000000 		.4byte	.LLST8
 2427 0d05 26       		.uleb128 0x26
 2428 0d06 EB0F0000 		.4byte	0xfeb
 2429 0d0a 46000000 		.4byte	.LBB164
 2430 0d0e 06000000 		.4byte	.LBE164-.LBB164
 2431 0d12 05       		.byte	0x5
 2432 0d13 0802     		.2byte	0x208
 2433 0d15 590D0000 		.4byte	0xd59
 2434 0d19 26       		.uleb128 0x26
 2435 0d1a 5A100000 		.4byte	0x105a
 2436 0d1e 4A000000 		.4byte	.LBB166
 2437 0d22 02000000 		.4byte	.LBE166-.LBB166
 2438 0d26 04       		.byte	0x4
 2439 0d27 B601     		.2byte	0x1b6
 2440 0d29 4F0D0000 		.4byte	0xd4f
 2441 0d2d 27       		.uleb128 0x27
 2442 0d2e 6C100000 		.4byte	0x106c
 2443 0d32 4A000000 		.4byte	.LBB167
 2444 0d36 02000000 		.4byte	.LBE167-.LBB167
ARM GAS  /var/folders/t8/16hdwfmd2fg_d3q6dgx6bpmw0000gn/T//ccDKACFo.s 			page 44


 2445 0d3a 06       		.byte	0x6
 2446 0d3b 9201     		.2byte	0x192
 2447 0d3d 2C       		.uleb128 0x2c
 2448 0d3e 2E110000 		.4byte	0x112e
 2449 0d42 4A000000 		.4byte	.LBB168
 2450 0d46 02000000 		.4byte	.LBE168-.LBB168
 2451 0d4a 06       		.byte	0x6
 2452 0d4b 7E01     		.2byte	0x17e
 2453 0d4d 00       		.byte	0
 2454 0d4e 00       		.byte	0
 2455 0d4f 2D       		.uleb128 0x2d
 2456 0d50 4A000000 		.4byte	.LVL55
 2457 0d54 8C110000 		.4byte	0x118c
 2458 0d58 00       		.byte	0
 2459 0d59 26       		.uleb128 0x26
 2460 0d5a F40F0000 		.4byte	0xff4
 2461 0d5e 50000000 		.4byte	.LBB170
 2462 0d62 06000000 		.4byte	.LBE170-.LBB170
 2463 0d66 05       		.byte	0x5
 2464 0d67 0A02     		.2byte	0x20a
 2465 0d69 AD0D0000 		.4byte	0xdad
 2466 0d6d 26       		.uleb128 0x26
 2467 0d6e 63100000 		.4byte	0x1063
 2468 0d72 50000000 		.4byte	.LBB172
 2469 0d76 02000000 		.4byte	.LBE172-.LBB172
 2470 0d7a 04       		.byte	0x4
 2471 0d7b A001     		.2byte	0x1a0
 2472 0d7d A30D0000 		.4byte	0xda3
 2473 0d81 27       		.uleb128 0x27
 2474 0d82 75100000 		.4byte	0x1075
 2475 0d86 50000000 		.4byte	.LBB173
 2476 0d8a 02000000 		.4byte	.LBE173-.LBB173
 2477 0d8e 06       		.byte	0x6
 2478 0d8f 8801     		.2byte	0x188
 2479 0d91 2C       		.uleb128 0x2c
 2480 0d92 26110000 		.4byte	0x1126
 2481 0d96 50000000 		.4byte	.LBB174
 2482 0d9a 02000000 		.4byte	.LBE174-.LBB174
 2483 0d9e 06       		.byte	0x6
 2484 0d9f 7501     		.2byte	0x175
 2485 0da1 00       		.byte	0
 2486 0da2 00       		.byte	0
 2487 0da3 2D       		.uleb128 0x2d
 2488 0da4 56000000 		.4byte	.LVL57
 2489 0da8 AE110000 		.4byte	0x11ae
 2490 0dac 00       		.byte	0
 2491 0dad 33       		.uleb128 0x33
 2492 0dae 50000000 		.4byte	.LVL56
 2493 0db2 02       		.uleb128 0x2
 2494 0db3 76       		.byte	0x76
 2495 0db4 00       		.sleb128 0
 2496 0db5 00       		.byte	0
 2497 0db6 2D       		.uleb128 0x2d
 2498 0db7 20000000 		.4byte	.LVL52
 2499 0dbb B9110000 		.4byte	0x11b9
 2500 0dbf 00       		.byte	0
 2501 0dc0 2D       		.uleb128 0x2d
ARM GAS  /var/folders/t8/16hdwfmd2fg_d3q6dgx6bpmw0000gn/T//ccDKACFo.s 			page 45


 2502 0dc1 0A000000 		.4byte	.LVL51
 2503 0dc5 B9110000 		.4byte	0x11b9
 2504 0dc9 00       		.byte	0
 2505 0dca 34       		.uleb128 0x34
 2506 0dcb 8E0A0000 		.4byte	.LASF178
 2507 0dcf 01       		.byte	0x1
 2508 0dd0 EA       		.byte	0xea
 2509 0dd1 540E0000 		.4byte	0xe54
 2510 0dd5 00000000 		.4byte	.LFB141
 2511 0dd9 AC000000 		.4byte	.LFE141-.LFB141
 2512 0ddd 01       		.uleb128 0x1
 2513 0dde 9C       		.byte	0x9c
 2514 0ddf 540E0000 		.4byte	0xe54
 2515 0de3 35       		.uleb128 0x35
 2516 0de4 8B010000 		.4byte	.LASF179
 2517 0de8 01       		.byte	0x1
 2518 0de9 EA       		.byte	0xea
 2519 0dea 37000000 		.4byte	0x37
 2520 0dee 78000000 		.4byte	.LLST2
 2521 0df2 36       		.uleb128 0x36
 2522 0df3 6E00     		.ascii	"n\000"
 2523 0df5 01       		.byte	0x1
 2524 0df6 EB       		.byte	0xeb
 2525 0df7 46010000 		.4byte	0x146
 2526 0dfb D6000000 		.4byte	.LLST3
 2527 0dff 37       		.uleb128 0x37
 2528 0e00 30000000 		.4byte	.Ldebug_ranges0+0x30
 2529 0e04 170E0000 		.4byte	0xe17
 2530 0e08 36       		.uleb128 0x36
 2531 0e09 747000   		.ascii	"tp\000"
 2532 0e0c 01       		.byte	0x1
 2533 0e0d F1       		.byte	0xf1
 2534 0e0e 61020000 		.4byte	0x261
 2535 0e12 3B010000 		.4byte	.LLST4
 2536 0e16 00       		.byte	0
 2537 0e17 37       		.uleb128 0x37
 2538 0e18 50000000 		.4byte	.Ldebug_ranges0+0x50
 2539 0e1c 310E0000 		.4byte	0xe31
 2540 0e20 38       		.uleb128 0x38
 2541 0e21 76747000 		.ascii	"vtp\000"
 2542 0e25 01       		.byte	0x1
 2543 0e26 0A01     		.2byte	0x10a
 2544 0e28 8B080000 		.4byte	0x88b
 2545 0e2c 6F010000 		.4byte	.LLST5
 2546 0e30 00       		.byte	0
 2547 0e31 37       		.uleb128 0x37
 2548 0e32 70000000 		.4byte	.Ldebug_ranges0+0x70
 2549 0e36 4A0E0000 		.4byte	0xe4a
 2550 0e3a 38       		.uleb128 0x38
 2551 0e3b 747000   		.ascii	"tp\000"
 2552 0e3e 01       		.byte	0x1
 2553 0e3f 2301     		.2byte	0x123
 2554 0e41 61020000 		.4byte	0x261
 2555 0e45 A3010000 		.4byte	.LLST6
 2556 0e49 00       		.byte	0
 2557 0e4a 2D       		.uleb128 0x2d
 2558 0e4b 08000000 		.4byte	.LVL12
ARM GAS  /var/folders/t8/16hdwfmd2fg_d3q6dgx6bpmw0000gn/T//ccDKACFo.s 			page 46


 2559 0e4f B9110000 		.4byte	0x11b9
 2560 0e53 00       		.byte	0
 2561 0e54 04       		.uleb128 0x4
 2562 0e55 01       		.byte	0x1
 2563 0e56 02       		.byte	0x2
 2564 0e57 D7040000 		.4byte	.LASF180
 2565 0e5b 39       		.uleb128 0x39
 2566 0e5c 230A0000 		.4byte	.LASF228
 2567 0e60 01       		.byte	0x1
 2568 0e61 C0       		.byte	0xc0
 2569 0e62 01       		.byte	0x1
 2570 0e63 730E0000 		.4byte	0xe73
 2571 0e67 3A       		.uleb128 0x3a
 2572 0e68 CA030000 		.4byte	.LASF198
 2573 0e6c 01       		.byte	0x1
 2574 0e6d C0       		.byte	0xc0
 2575 0e6e 6E080000 		.4byte	0x86e
 2576 0e72 00       		.byte	0
 2577 0e73 3B       		.uleb128 0x3b
 2578 0e74 7D050000 		.4byte	.LASF181
 2579 0e78 01       		.byte	0x1
 2580 0e79 64       		.byte	0x64
 2581 0e7a 00000000 		.4byte	.LFB139
 2582 0e7e 64000000 		.4byte	.LFE139-.LFB139
 2583 0e82 01       		.uleb128 0x1
 2584 0e83 9C       		.byte	0x9c
 2585 0e84 830F0000 		.4byte	0xf83
 2586 0e88 37       		.uleb128 0x37
 2587 0e89 00000000 		.4byte	.Ldebug_ranges0+0
 2588 0e8d 9D0E0000 		.4byte	0xe9d
 2589 0e91 22       		.uleb128 0x22
 2590 0e92 2E060000 		.4byte	.LASF182
 2591 0e96 01       		.byte	0x1
 2592 0e97 8B       		.byte	0x8b
 2593 0e98 08070000 		.4byte	0x708
 2594 0e9c 00       		.byte	0
 2595 0e9d 3C       		.uleb128 0x3c
 2596 0e9e 42000000 		.4byte	.LBB134
 2597 0ea2 06000000 		.4byte	.LBE134-.LBB134
 2598 0ea6 CF0E0000 		.4byte	0xecf
 2599 0eaa 3D       		.uleb128 0x3d
 2600 0eab 91050000 		.4byte	.LASF183
 2601 0eaf 01       		.byte	0x1
 2602 0eb0 A3       		.byte	0xa3
 2603 0eb1 1A090000 		.4byte	0x91a
 2604 0eb5 05       		.uleb128 0x5
 2605 0eb6 03       		.byte	0x3
 2606 0eb7 00000000 		.4byte	idle_descriptor.5724
 2607 0ebb 3E       		.uleb128 0x3e
 2608 0ebc 48000000 		.4byte	.LVL9
 2609 0ec0 C4110000 		.4byte	0x11c4
 2610 0ec4 3F       		.uleb128 0x3f
 2611 0ec5 01       		.uleb128 0x1
 2612 0ec6 50       		.byte	0x50
 2613 0ec7 05       		.uleb128 0x5
 2614 0ec8 03       		.byte	0x3
 2615 0ec9 00000000 		.4byte	.LANCHOR0
ARM GAS  /var/folders/t8/16hdwfmd2fg_d3q6dgx6bpmw0000gn/T//ccDKACFo.s 			page 47


 2616 0ecd 00       		.byte	0
 2617 0ece 00       		.byte	0
 2618 0ecf 40       		.uleb128 0x40
 2619 0ed0 B6100000 		.4byte	0x10b6
 2620 0ed4 30000000 		.4byte	.LBB123
 2621 0ed8 18000000 		.4byte	.Ldebug_ranges0+0x18
 2622 0edc 01       		.byte	0x1
 2623 0edd 97       		.byte	0x97
 2624 0ede 060F0000 		.4byte	0xf06
 2625 0ee2 41       		.uleb128 0x41
 2626 0ee3 BF100000 		.4byte	0x10bf
 2627 0ee7 30000000 		.4byte	.LBB124
 2628 0eeb 18000000 		.4byte	.Ldebug_ranges0+0x18
 2629 0eef 06       		.byte	0x6
 2630 0ef0 4801     		.2byte	0x148
 2631 0ef2 2A       		.uleb128 0x2a
 2632 0ef3 D8100000 		.4byte	0x10d8
 2633 0ef7 D7010000 		.4byte	.LLST0
 2634 0efb 2A       		.uleb128 0x2a
 2635 0efc CC100000 		.4byte	0x10cc
 2636 0f00 EB010000 		.4byte	.LLST1
 2637 0f04 00       		.byte	0
 2638 0f05 00       		.byte	0
 2639 0f06 42       		.uleb128 0x42
 2640 0f07 36100000 		.4byte	0x1036
 2641 0f0b 3C000000 		.4byte	.LBB129
 2642 0f0f 06000000 		.4byte	.LBE129-.LBB129
 2643 0f13 01       		.byte	0x1
 2644 0f14 9F       		.byte	0x9f
 2645 0f15 480F0000 		.4byte	0xf48
 2646 0f19 26       		.uleb128 0x26
 2647 0f1a 48100000 		.4byte	0x1048
 2648 0f1e 40000000 		.4byte	.LBB131
 2649 0f22 02000000 		.4byte	.LBE131-.LBB131
 2650 0f26 04       		.byte	0x4
 2651 0f27 6E01     		.2byte	0x16e
 2652 0f29 3E0F0000 		.4byte	0xf3e
 2653 0f2d 2C       		.uleb128 0x2c
 2654 0f2e 2E110000 		.4byte	0x112e
 2655 0f32 40000000 		.4byte	.LBB132
 2656 0f36 02000000 		.4byte	.LBE132-.LBB132
 2657 0f3a 06       		.byte	0x6
 2658 0f3b AA01     		.2byte	0x1aa
 2659 0f3d 00       		.byte	0
 2660 0f3e 2D       		.uleb128 0x2d
 2661 0f3f 40000000 		.4byte	.LVL8
 2662 0f43 CF110000 		.4byte	0x11cf
 2663 0f47 00       		.byte	0
 2664 0f48 2D       		.uleb128 0x2d
 2665 0f49 06000000 		.4byte	.LVL1
 2666 0f4d DA110000 		.4byte	0x11da
 2667 0f51 2D       		.uleb128 0x2d
 2668 0f52 0A000000 		.4byte	.LVL2
 2669 0f56 E6110000 		.4byte	0x11e6
 2670 0f5a 2D       		.uleb128 0x2d
 2671 0f5b 16000000 		.4byte	.LVL3
 2672 0f5f F1110000 		.4byte	0x11f1
ARM GAS  /var/folders/t8/16hdwfmd2fg_d3q6dgx6bpmw0000gn/T//ccDKACFo.s 			page 48


 2673 0f63 2D       		.uleb128 0x2d
 2674 0f64 1A000000 		.4byte	.LVL4
 2675 0f68 FC110000 		.4byte	0x11fc
 2676 0f6c 3E       		.uleb128 0x3e
 2677 0f6d 26000000 		.4byte	.LVL5
 2678 0f71 07120000 		.4byte	0x1207
 2679 0f75 3F       		.uleb128 0x3f
 2680 0f76 01       		.uleb128 0x1
 2681 0f77 50       		.byte	0x50
 2682 0f78 02       		.uleb128 0x2
 2683 0f79 74       		.byte	0x74
 2684 0f7a 38       		.sleb128 56
 2685 0f7b 3F       		.uleb128 0x3f
 2686 0f7c 01       		.uleb128 0x1
 2687 0f7d 52       		.byte	0x52
 2688 0f7e 02       		.uleb128 0x2
 2689 0f7f 08       		.byte	0x8
 2690 0f80 80       		.byte	0x80
 2691 0f81 00       		.byte	0
 2692 0f82 00       		.byte	0
 2693 0f83 43       		.uleb128 0x43
 2694 0f84 ED0A0000 		.4byte	.LASF229
 2695 0f88 01       		.byte	0x1
 2696 0f89 48       		.byte	0x48
 2697 0f8a 00000000 		.4byte	.LFB138
 2698 0f8e 04000000 		.4byte	.LFE138-.LFB138
 2699 0f92 01       		.uleb128 0x1
 2700 0f93 9C       		.byte	0x9c
 2701 0f94 C40F0000 		.4byte	0xfc4
 2702 0f98 44       		.uleb128 0x44
 2703 0f99 7000     		.ascii	"p\000"
 2704 0f9b 01       		.byte	0x1
 2705 0f9c 48       		.byte	0x48
 2706 0f9d 3E030000 		.4byte	0x33e
 2707 0fa1 01       		.uleb128 0x1
 2708 0fa2 50       		.byte	0x50
 2709 0fa3 2B       		.uleb128 0x2b
 2710 0fa4 3F100000 		.4byte	0x103f
 2711 0fa8 00000000 		.4byte	.LBB118
 2712 0fac 04000000 		.4byte	.LBE118-.LBB118
 2713 0fb0 01       		.byte	0x1
 2714 0fb1 4F       		.byte	0x4f
 2715 0fb2 2C       		.uleb128 0x2c
 2716 0fb3 E5100000 		.4byte	0x10e5
 2717 0fb7 00000000 		.4byte	.LBB119
 2718 0fbb 04000000 		.4byte	.LBE119-.LBB119
 2719 0fbf 06       		.byte	0x6
 2720 0fc0 B801     		.2byte	0x1b8
 2721 0fc2 00       		.byte	0
 2722 0fc3 00       		.byte	0
 2723 0fc4 45       		.uleb128 0x45
 2724 0fc5 7E040000 		.4byte	.LASF186
 2725 0fc9 05       		.byte	0x5
 2726 0fca F601     		.2byte	0x1f6
 2727 0fcc 03       		.byte	0x3
 2728 0fcd EB0F0000 		.4byte	0xfeb
 2729 0fd1 46       		.uleb128 0x46
ARM GAS  /var/folders/t8/16hdwfmd2fg_d3q6dgx6bpmw0000gn/T//ccDKACFo.s 			page 49


 2730 0fd2 2F       		.uleb128 0x2f
 2731 0fd3 76747000 		.ascii	"vtp\000"
 2732 0fd7 05       		.byte	0x5
 2733 0fd8 0002     		.2byte	0x200
 2734 0fda 8B080000 		.4byte	0x88b
 2735 0fde 2F       		.uleb128 0x2f
 2736 0fdf 666E00   		.ascii	"fn\000"
 2737 0fe2 05       		.byte	0x5
 2738 0fe3 0102     		.2byte	0x201
 2739 0fe5 22030000 		.4byte	0x322
 2740 0fe9 00       		.byte	0
 2741 0fea 00       		.byte	0
 2742 0feb 47       		.uleb128 0x47
 2743 0fec D10A0000 		.4byte	.LASF184
 2744 0ff0 04       		.byte	0x4
 2745 0ff1 B201     		.2byte	0x1b2
 2746 0ff3 03       		.byte	0x3
 2747 0ff4 47       		.uleb128 0x47
 2748 0ff5 070A0000 		.4byte	.LASF185
 2749 0ff9 04       		.byte	0x4
 2750 0ffa 9E01     		.2byte	0x19e
 2751 0ffc 03       		.byte	0x3
 2752 0ffd 45       		.uleb128 0x45
 2753 0ffe 1F040000 		.4byte	.LASF187
 2754 1002 04       		.byte	0x4
 2755 1003 8201     		.2byte	0x182
 2756 1005 03       		.byte	0x3
 2757 1006 18100000 		.4byte	0x1018
 2758 100a 48       		.uleb128 0x48
 2759 100b BA0A0000 		.4byte	.LASF188
 2760 100f 28100000 		.4byte	0x1028
 2761 1013 1F040000 		.4byte	.LASF187
 2762 1017 00       		.byte	0
 2763 1018 17       		.uleb128 0x17
 2764 1019 80080000 		.4byte	0x880
 2765 101d 28100000 		.4byte	0x1028
 2766 1021 18       		.uleb128 0x18
 2767 1022 37000000 		.4byte	0x37
 2768 1026 0B       		.byte	0xb
 2769 1027 00       		.byte	0
 2770 1028 06       		.uleb128 0x6
 2771 1029 18100000 		.4byte	0x1018
 2772 102d 47       		.uleb128 0x47
 2773 102e 32050000 		.4byte	.LASF189
 2774 1032 04       		.byte	0x4
 2775 1033 7601     		.2byte	0x176
 2776 1035 03       		.byte	0x3
 2777 1036 47       		.uleb128 0x47
 2778 1037 EC070000 		.4byte	.LASF190
 2779 103b 04       		.byte	0x4
 2780 103c 6B01     		.2byte	0x16b
 2781 103e 03       		.byte	0x3
 2782 103f 47       		.uleb128 0x47
 2783 1040 36080000 		.4byte	.LASF191
 2784 1044 06       		.byte	0x6
 2785 1045 B501     		.2byte	0x1b5
 2786 1047 03       		.byte	0x3
ARM GAS  /var/folders/t8/16hdwfmd2fg_d3q6dgx6bpmw0000gn/T//ccDKACFo.s 			page 50


 2787 1048 47       		.uleb128 0x47
 2788 1049 CB040000 		.4byte	.LASF192
 2789 104d 06       		.byte	0x6
 2790 104e A801     		.2byte	0x1a8
 2791 1050 03       		.byte	0x3
 2792 1051 47       		.uleb128 0x47
 2793 1052 D1030000 		.4byte	.LASF193
 2794 1056 06       		.byte	0x6
 2795 1057 9801     		.2byte	0x198
 2796 1059 03       		.byte	0x3
 2797 105a 47       		.uleb128 0x47
 2798 105b 98090000 		.4byte	.LASF194
 2799 105f 06       		.byte	0x6
 2800 1060 9001     		.2byte	0x190
 2801 1062 03       		.byte	0x3
 2802 1063 47       		.uleb128 0x47
 2803 1064 3C020000 		.4byte	.LASF195
 2804 1068 06       		.byte	0x6
 2805 1069 8601     		.2byte	0x186
 2806 106b 03       		.byte	0x3
 2807 106c 47       		.uleb128 0x47
 2808 106d 4F020000 		.4byte	.LASF196
 2809 1071 06       		.byte	0x6
 2810 1072 7C01     		.2byte	0x17c
 2811 1074 03       		.byte	0x3
 2812 1075 47       		.uleb128 0x47
 2813 1076 1E020000 		.4byte	.LASF197
 2814 107a 06       		.byte	0x6
 2815 107b 7301     		.2byte	0x173
 2816 107d 03       		.byte	0x3
 2817 107e 49       		.uleb128 0x49
 2818 107f F5050000 		.4byte	.LASF199
 2819 1083 06       		.byte	0x6
 2820 1084 6A01     		.2byte	0x16a
 2821 1086 540E0000 		.4byte	0xe54
 2822 108a 03       		.byte	0x3
 2823 108b 4A       		.uleb128 0x4a
 2824 108c F6090000 		.4byte	.LASF206
 2825 1090 06       		.byte	0x6
 2826 1091 5E01     		.2byte	0x15e
 2827 1093 540E0000 		.4byte	0xe54
 2828 1097 03       		.byte	0x3
 2829 1098 A9100000 		.4byte	0x10a9
 2830 109c 4B       		.uleb128 0x4b
 2831 109d 73747300 		.ascii	"sts\000"
 2832 10a1 06       		.byte	0x6
 2833 10a2 5E01     		.2byte	0x15e
 2834 10a4 EE000000 		.4byte	0xee
 2835 10a8 00       		.byte	0
 2836 10a9 49       		.uleb128 0x49
 2837 10aa D2080000 		.4byte	.LASF200
 2838 10ae 06       		.byte	0x6
 2839 10af 5001     		.2byte	0x150
 2840 10b1 EE000000 		.4byte	0xee
 2841 10b5 03       		.byte	0x3
 2842 10b6 47       		.uleb128 0x47
 2843 10b7 3C050000 		.4byte	.LASF201
ARM GAS  /var/folders/t8/16hdwfmd2fg_d3q6dgx6bpmw0000gn/T//ccDKACFo.s 			page 51


 2844 10bb 06       		.byte	0x6
 2845 10bc 4601     		.2byte	0x146
 2846 10be 03       		.byte	0x3
 2847 10bf 45       		.uleb128 0x45
 2848 10c0 D5060000 		.4byte	.LASF202
 2849 10c4 03       		.byte	0x3
 2850 10c5 2403     		.2byte	0x324
 2851 10c7 03       		.byte	0x3
 2852 10c8 E5100000 		.4byte	0x10e5
 2853 10cc 4C       		.uleb128 0x4c
 2854 10cd 8F070000 		.4byte	.LASF203
 2855 10d1 03       		.byte	0x3
 2856 10d2 2403     		.2byte	0x324
 2857 10d4 6A050000 		.4byte	0x56a
 2858 10d8 4C       		.uleb128 0x4c
 2859 10d9 F2040000 		.4byte	.LASF204
 2860 10dd 03       		.byte	0x3
 2861 10de 2403     		.2byte	0x324
 2862 10e0 CE000000 		.4byte	0xce
 2863 10e4 00       		.byte	0
 2864 10e5 47       		.uleb128 0x47
 2865 10e6 88090000 		.4byte	.LASF205
 2866 10ea 02       		.byte	0x2
 2867 10eb 7F01     		.2byte	0x17f
 2868 10ed 03       		.byte	0x3
 2869 10ee 4D       		.uleb128 0x4d
 2870 10ef 9D010000 		.4byte	.LASF207
 2871 10f3 02       		.byte	0x2
 2872 10f4 C7       		.byte	0xc7
 2873 10f5 CE000000 		.4byte	0xce
 2874 10f9 03       		.byte	0x3
 2875 10fa 0A110000 		.4byte	0x110a
 2876 10fe 4E       		.uleb128 0x4e
 2877 10ff A1030000 		.4byte	.LASF208
 2878 1103 02       		.byte	0x2
 2879 1104 C9       		.byte	0xc9
 2880 1105 CE000000 		.4byte	0xce
 2881 1109 00       		.byte	0
 2882 110a 4D       		.uleb128 0x4d
 2883 110b BF030000 		.4byte	.LASF209
 2884 110f 02       		.byte	0x2
 2885 1110 69       		.byte	0x69
 2886 1111 CE000000 		.4byte	0xce
 2887 1115 03       		.byte	0x3
 2888 1116 26110000 		.4byte	0x1126
 2889 111a 4E       		.uleb128 0x4e
 2890 111b A1030000 		.4byte	.LASF208
 2891 111f 02       		.byte	0x2
 2892 1120 6B       		.byte	0x6b
 2893 1121 CE000000 		.4byte	0xce
 2894 1125 00       		.byte	0
 2895 1126 4F       		.uleb128 0x4f
 2896 1127 B7040000 		.4byte	.LASF210
 2897 112b 02       		.byte	0x2
 2898 112c 45       		.byte	0x45
 2899 112d 03       		.byte	0x3
 2900 112e 4F       		.uleb128 0x4f
ARM GAS  /var/folders/t8/16hdwfmd2fg_d3q6dgx6bpmw0000gn/T//ccDKACFo.s 			page 52


 2901 112f 29080000 		.4byte	.LASF211
 2902 1133 02       		.byte	0x2
 2903 1134 3A       		.byte	0x3a
 2904 1135 03       		.byte	0x3
 2905 1136 50       		.uleb128 0x50
 2906 1137 5B0E0000 		.4byte	0xe5b
 2907 113b 00000000 		.4byte	.LFB140
 2908 113f 0C000000 		.4byte	.LFE140-.LFB140
 2909 1143 01       		.uleb128 0x1
 2910 1144 9C       		.byte	0x9c
 2911 1145 71110000 		.4byte	0x1171
 2912 1149 51       		.uleb128 0x51
 2913 114a 670E0000 		.4byte	0xe67
 2914 114e 01       		.uleb128 0x1
 2915 114f 50       		.byte	0x50
 2916 1150 2B       		.uleb128 0x2b
 2917 1151 51100000 		.4byte	0x1051
 2918 1155 00000000 		.4byte	.LBB135
 2919 1159 02000000 		.4byte	.LBE135-.LBB135
 2920 115d 01       		.byte	0x1
 2921 115e C2       		.byte	0xc2
 2922 115f 2C       		.uleb128 0x2c
 2923 1160 26110000 		.4byte	0x1126
 2924 1164 00000000 		.4byte	.LBB136
 2925 1168 02000000 		.4byte	.LBE136-.LBB136
 2926 116c 06       		.byte	0x6
 2927 116d 9A01     		.2byte	0x19a
 2928 116f 00       		.byte	0
 2929 1170 00       		.byte	0
 2930 1171 52       		.uleb128 0x52
 2931 1172 0E       		.uleb128 0xe
 2932 1173 9E       		.byte	0x9e
 2933 1174 0C       		.uleb128 0xc
 2934 1175 63       		.byte	0x63
 2935 1176 68       		.byte	0x68
 2936 1177 53       		.byte	0x53
 2937 1178 79       		.byte	0x79
 2938 1179 73       		.byte	0x73
 2939 117a 55       		.byte	0x55
 2940 117b 6E       		.byte	0x6e
 2941 117c 6C       		.byte	0x6c
 2942 117d 6F       		.byte	0x6f
 2943 117e 63       		.byte	0x63
 2944 117f 6B       		.byte	0x6b
 2945 1180 00       		.byte	0
 2946 1181 53       		.uleb128 0x53
 2947 1182 1E010000 		.4byte	.LASF212
 2948 1186 1E010000 		.4byte	.LASF212
 2949 118a 13       		.byte	0x13
 2950 118b 97       		.byte	0x97
 2951 118c 53       		.uleb128 0x53
 2952 118d EF030000 		.4byte	.LASF213
 2953 1191 EF030000 		.4byte	.LASF213
 2954 1195 13       		.byte	0x13
 2955 1196 99       		.byte	0x99
 2956 1197 54       		.uleb128 0x54
 2957 1198 21050000 		.4byte	.LASF214
ARM GAS  /var/folders/t8/16hdwfmd2fg_d3q6dgx6bpmw0000gn/T//ccDKACFo.s 			page 53


 2958 119c 21050000 		.4byte	.LASF214
 2959 11a0 0C       		.byte	0xc
 2960 11a1 E101     		.2byte	0x1e1
 2961 11a3 53       		.uleb128 0x53
 2962 11a4 6B060000 		.4byte	.LASF215
 2963 11a8 6B060000 		.4byte	.LASF215
 2964 11ac 13       		.byte	0x13
 2965 11ad 96       		.byte	0x96
 2966 11ae 53       		.uleb128 0x53
 2967 11af 7F020000 		.4byte	.LASF216
 2968 11b3 7F020000 		.4byte	.LASF216
 2969 11b7 13       		.byte	0x13
 2970 11b8 98       		.byte	0x98
 2971 11b9 53       		.uleb128 0x53
 2972 11ba E6060000 		.4byte	.LASF217
 2973 11be E6060000 		.4byte	.LASF217
 2974 11c2 13       		.byte	0x13
 2975 11c3 9C       		.byte	0x9c
 2976 11c4 53       		.uleb128 0x53
 2977 11c5 17030000 		.4byte	.LASF218
 2978 11c9 17030000 		.4byte	.LASF218
 2979 11cd 11       		.byte	0x11
 2980 11ce E9       		.byte	0xe9
 2981 11cf 53       		.uleb128 0x53
 2982 11d0 A6060000 		.4byte	.LASF219
 2983 11d4 A6060000 		.4byte	.LASF219
 2984 11d8 13       		.byte	0x13
 2985 11d9 95       		.byte	0x95
 2986 11da 54       		.uleb128 0x54
 2987 11db F6020000 		.4byte	.LASF220
 2988 11df F6020000 		.4byte	.LASF220
 2989 11e3 0C       		.byte	0xc
 2990 11e4 DB01     		.2byte	0x1db
 2991 11e6 53       		.uleb128 0x53
 2992 11e7 65010000 		.4byte	.LASF221
 2993 11eb 65010000 		.4byte	.LASF221
 2994 11ef 05       		.byte	0x5
 2995 11f0 BB       		.byte	0xbb
 2996 11f1 53       		.uleb128 0x53
 2997 11f2 73040000 		.4byte	.LASF222
 2998 11f6 73040000 		.4byte	.LASF222
 2999 11fa 14       		.byte	0x14
 3000 11fb 54       		.byte	0x54
 3001 11fc 53       		.uleb128 0x53
 3002 11fd AC040000 		.4byte	.LASF223
 3003 1201 AC040000 		.4byte	.LASF223
 3004 1205 15       		.byte	0x15
 3005 1206 7E       		.byte	0x7e
 3006 1207 53       		.uleb128 0x53
 3007 1208 68030000 		.4byte	.LASF224
 3008 120c 68030000 		.4byte	.LASF224
 3009 1210 11       		.byte	0x11
 3010 1211 E2       		.byte	0xe2
 3011 1212 00       		.byte	0
 3012              		.section	.debug_abbrev,"",%progbits
 3013              	.Ldebug_abbrev0:
 3014 0000 01       		.uleb128 0x1
ARM GAS  /var/folders/t8/16hdwfmd2fg_d3q6dgx6bpmw0000gn/T//ccDKACFo.s 			page 54


 3015 0001 11       		.uleb128 0x11
 3016 0002 01       		.byte	0x1
 3017 0003 25       		.uleb128 0x25
 3018 0004 0E       		.uleb128 0xe
 3019 0005 13       		.uleb128 0x13
 3020 0006 0B       		.uleb128 0xb
 3021 0007 03       		.uleb128 0x3
 3022 0008 0E       		.uleb128 0xe
 3023 0009 1B       		.uleb128 0x1b
 3024 000a 0E       		.uleb128 0xe
 3025 000b 55       		.uleb128 0x55
 3026 000c 17       		.uleb128 0x17
 3027 000d 11       		.uleb128 0x11
 3028 000e 01       		.uleb128 0x1
 3029 000f 10       		.uleb128 0x10
 3030 0010 17       		.uleb128 0x17
 3031 0011 00       		.byte	0
 3032 0012 00       		.byte	0
 3033 0013 02       		.uleb128 0x2
 3034 0014 24       		.uleb128 0x24
 3035 0015 00       		.byte	0
 3036 0016 0B       		.uleb128 0xb
 3037 0017 0B       		.uleb128 0xb
 3038 0018 3E       		.uleb128 0x3e
 3039 0019 0B       		.uleb128 0xb
 3040 001a 03       		.uleb128 0x3
 3041 001b 08       		.uleb128 0x8
 3042 001c 00       		.byte	0
 3043 001d 00       		.byte	0
 3044 001e 03       		.uleb128 0x3
 3045 001f 16       		.uleb128 0x16
 3046 0020 00       		.byte	0
 3047 0021 03       		.uleb128 0x3
 3048 0022 0E       		.uleb128 0xe
 3049 0023 3A       		.uleb128 0x3a
 3050 0024 0B       		.uleb128 0xb
 3051 0025 3B       		.uleb128 0x3b
 3052 0026 0B       		.uleb128 0xb
 3053 0027 49       		.uleb128 0x49
 3054 0028 13       		.uleb128 0x13
 3055 0029 00       		.byte	0
 3056 002a 00       		.byte	0
 3057 002b 04       		.uleb128 0x4
 3058 002c 24       		.uleb128 0x24
 3059 002d 00       		.byte	0
 3060 002e 0B       		.uleb128 0xb
 3061 002f 0B       		.uleb128 0xb
 3062 0030 3E       		.uleb128 0x3e
 3063 0031 0B       		.uleb128 0xb
 3064 0032 03       		.uleb128 0x3
 3065 0033 0E       		.uleb128 0xe
 3066 0034 00       		.byte	0
 3067 0035 00       		.byte	0
 3068 0036 05       		.uleb128 0x5
 3069 0037 35       		.uleb128 0x35
 3070 0038 00       		.byte	0
 3071 0039 49       		.uleb128 0x49
ARM GAS  /var/folders/t8/16hdwfmd2fg_d3q6dgx6bpmw0000gn/T//ccDKACFo.s 			page 55


 3072 003a 13       		.uleb128 0x13
 3073 003b 00       		.byte	0
 3074 003c 00       		.byte	0
 3075 003d 06       		.uleb128 0x6
 3076 003e 26       		.uleb128 0x26
 3077 003f 00       		.byte	0
 3078 0040 49       		.uleb128 0x49
 3079 0041 13       		.uleb128 0x13
 3080 0042 00       		.byte	0
 3081 0043 00       		.byte	0
 3082 0044 07       		.uleb128 0x7
 3083 0045 13       		.uleb128 0x13
 3084 0046 01       		.byte	0x1
 3085 0047 03       		.uleb128 0x3
 3086 0048 0E       		.uleb128 0xe
 3087 0049 0B       		.uleb128 0xb
 3088 004a 0B       		.uleb128 0xb
 3089 004b 3A       		.uleb128 0x3a
 3090 004c 0B       		.uleb128 0xb
 3091 004d 3B       		.uleb128 0x3b
 3092 004e 0B       		.uleb128 0xb
 3093 004f 01       		.uleb128 0x1
 3094 0050 13       		.uleb128 0x13
 3095 0051 00       		.byte	0
 3096 0052 00       		.byte	0
 3097 0053 08       		.uleb128 0x8
 3098 0054 0D       		.uleb128 0xd
 3099 0055 00       		.byte	0
 3100 0056 03       		.uleb128 0x3
 3101 0057 0E       		.uleb128 0xe
 3102 0058 3A       		.uleb128 0x3a
 3103 0059 0B       		.uleb128 0xb
 3104 005a 3B       		.uleb128 0x3b
 3105 005b 0B       		.uleb128 0xb
 3106 005c 49       		.uleb128 0x49
 3107 005d 13       		.uleb128 0x13
 3108 005e 38       		.uleb128 0x38
 3109 005f 0B       		.uleb128 0xb
 3110 0060 00       		.byte	0
 3111 0061 00       		.byte	0
 3112 0062 09       		.uleb128 0x9
 3113 0063 0D       		.uleb128 0xd
 3114 0064 00       		.byte	0
 3115 0065 03       		.uleb128 0x3
 3116 0066 08       		.uleb128 0x8
 3117 0067 3A       		.uleb128 0x3a
 3118 0068 0B       		.uleb128 0xb
 3119 0069 3B       		.uleb128 0x3b
 3120 006a 0B       		.uleb128 0xb
 3121 006b 49       		.uleb128 0x49
 3122 006c 13       		.uleb128 0x13
 3123 006d 38       		.uleb128 0x38
 3124 006e 0B       		.uleb128 0xb
 3125 006f 00       		.byte	0
 3126 0070 00       		.byte	0
 3127 0071 0A       		.uleb128 0xa
 3128 0072 0D       		.uleb128 0xd
ARM GAS  /var/folders/t8/16hdwfmd2fg_d3q6dgx6bpmw0000gn/T//ccDKACFo.s 			page 56


 3129 0073 00       		.byte	0
 3130 0074 03       		.uleb128 0x3
 3131 0075 08       		.uleb128 0x8
 3132 0076 3A       		.uleb128 0x3a
 3133 0077 0B       		.uleb128 0xb
 3134 0078 3B       		.uleb128 0x3b
 3135 0079 05       		.uleb128 0x5
 3136 007a 49       		.uleb128 0x49
 3137 007b 13       		.uleb128 0x13
 3138 007c 38       		.uleb128 0x38
 3139 007d 0B       		.uleb128 0xb
 3140 007e 00       		.byte	0
 3141 007f 00       		.byte	0
 3142 0080 0B       		.uleb128 0xb
 3143 0081 0D       		.uleb128 0xd
 3144 0082 00       		.byte	0
 3145 0083 03       		.uleb128 0x3
 3146 0084 0E       		.uleb128 0xe
 3147 0085 3A       		.uleb128 0x3a
 3148 0086 0B       		.uleb128 0xb
 3149 0087 3B       		.uleb128 0x3b
 3150 0088 05       		.uleb128 0x5
 3151 0089 49       		.uleb128 0x49
 3152 008a 13       		.uleb128 0x13
 3153 008b 38       		.uleb128 0x38
 3154 008c 0B       		.uleb128 0xb
 3155 008d 00       		.byte	0
 3156 008e 00       		.byte	0
 3157 008f 0C       		.uleb128 0xc
 3158 0090 0F       		.uleb128 0xf
 3159 0091 00       		.byte	0
 3160 0092 0B       		.uleb128 0xb
 3161 0093 0B       		.uleb128 0xb
 3162 0094 49       		.uleb128 0x49
 3163 0095 13       		.uleb128 0x13
 3164 0096 00       		.byte	0
 3165 0097 00       		.byte	0
 3166 0098 0D       		.uleb128 0xd
 3167 0099 13       		.uleb128 0x13
 3168 009a 01       		.byte	0x1
 3169 009b 03       		.uleb128 0x3
 3170 009c 0E       		.uleb128 0xe
 3171 009d 0B       		.uleb128 0xb
 3172 009e 0B       		.uleb128 0xb
 3173 009f 3A       		.uleb128 0x3a
 3174 00a0 0B       		.uleb128 0xb
 3175 00a1 3B       		.uleb128 0x3b
 3176 00a2 05       		.uleb128 0x5
 3177 00a3 01       		.uleb128 0x1
 3178 00a4 13       		.uleb128 0x13
 3179 00a5 00       		.byte	0
 3180 00a6 00       		.byte	0
 3181 00a7 0E       		.uleb128 0xe
 3182 00a8 15       		.uleb128 0x15
 3183 00a9 01       		.byte	0x1
 3184 00aa 27       		.uleb128 0x27
 3185 00ab 19       		.uleb128 0x19
ARM GAS  /var/folders/t8/16hdwfmd2fg_d3q6dgx6bpmw0000gn/T//ccDKACFo.s 			page 57


 3186 00ac 01       		.uleb128 0x1
 3187 00ad 13       		.uleb128 0x13
 3188 00ae 00       		.byte	0
 3189 00af 00       		.byte	0
 3190 00b0 0F       		.uleb128 0xf
 3191 00b1 05       		.uleb128 0x5
 3192 00b2 00       		.byte	0
 3193 00b3 49       		.uleb128 0x49
 3194 00b4 13       		.uleb128 0x13
 3195 00b5 00       		.byte	0
 3196 00b6 00       		.byte	0
 3197 00b7 10       		.uleb128 0x10
 3198 00b8 0F       		.uleb128 0xf
 3199 00b9 00       		.byte	0
 3200 00ba 0B       		.uleb128 0xb
 3201 00bb 0B       		.uleb128 0xb
 3202 00bc 00       		.byte	0
 3203 00bd 00       		.byte	0
 3204 00be 11       		.uleb128 0x11
 3205 00bf 04       		.uleb128 0x4
 3206 00c0 01       		.byte	0x1
 3207 00c1 03       		.uleb128 0x3
 3208 00c2 0E       		.uleb128 0xe
 3209 00c3 3E       		.uleb128 0x3e
 3210 00c4 0B       		.uleb128 0xb
 3211 00c5 0B       		.uleb128 0xb
 3212 00c6 0B       		.uleb128 0xb
 3213 00c7 49       		.uleb128 0x49
 3214 00c8 13       		.uleb128 0x13
 3215 00c9 3A       		.uleb128 0x3a
 3216 00ca 0B       		.uleb128 0xb
 3217 00cb 3B       		.uleb128 0x3b
 3218 00cc 0B       		.uleb128 0xb
 3219 00cd 01       		.uleb128 0x1
 3220 00ce 13       		.uleb128 0x13
 3221 00cf 00       		.byte	0
 3222 00d0 00       		.byte	0
 3223 00d1 12       		.uleb128 0x12
 3224 00d2 28       		.uleb128 0x28
 3225 00d3 00       		.byte	0
 3226 00d4 03       		.uleb128 0x3
 3227 00d5 0E       		.uleb128 0xe
 3228 00d6 1C       		.uleb128 0x1c
 3229 00d7 0D       		.uleb128 0xd
 3230 00d8 00       		.byte	0
 3231 00d9 00       		.byte	0
 3232 00da 13       		.uleb128 0x13
 3233 00db 28       		.uleb128 0x28
 3234 00dc 00       		.byte	0
 3235 00dd 03       		.uleb128 0x3
 3236 00de 0E       		.uleb128 0xe
 3237 00df 1C       		.uleb128 0x1c
 3238 00e0 0B       		.uleb128 0xb
 3239 00e1 00       		.byte	0
 3240 00e2 00       		.byte	0
 3241 00e3 14       		.uleb128 0x14
 3242 00e4 13       		.uleb128 0x13
ARM GAS  /var/folders/t8/16hdwfmd2fg_d3q6dgx6bpmw0000gn/T//ccDKACFo.s 			page 58


 3243 00e5 01       		.byte	0x1
 3244 00e6 0B       		.uleb128 0xb
 3245 00e7 05       		.uleb128 0x5
 3246 00e8 3A       		.uleb128 0x3a
 3247 00e9 0B       		.uleb128 0xb
 3248 00ea 3B       		.uleb128 0x3b
 3249 00eb 05       		.uleb128 0x5
 3250 00ec 01       		.uleb128 0x1
 3251 00ed 13       		.uleb128 0x13
 3252 00ee 00       		.byte	0
 3253 00ef 00       		.byte	0
 3254 00f0 15       		.uleb128 0x15
 3255 00f1 0D       		.uleb128 0xd
 3256 00f2 00       		.byte	0
 3257 00f3 03       		.uleb128 0x3
 3258 00f4 0E       		.uleb128 0xe
 3259 00f5 3A       		.uleb128 0x3a
 3260 00f6 0B       		.uleb128 0xb
 3261 00f7 3B       		.uleb128 0x3b
 3262 00f8 05       		.uleb128 0x5
 3263 00f9 49       		.uleb128 0x49
 3264 00fa 13       		.uleb128 0x13
 3265 00fb 38       		.uleb128 0x38
 3266 00fc 05       		.uleb128 0x5
 3267 00fd 00       		.byte	0
 3268 00fe 00       		.byte	0
 3269 00ff 16       		.uleb128 0x16
 3270 0100 0D       		.uleb128 0xd
 3271 0101 00       		.byte	0
 3272 0102 03       		.uleb128 0x3
 3273 0103 08       		.uleb128 0x8
 3274 0104 3A       		.uleb128 0x3a
 3275 0105 0B       		.uleb128 0xb
 3276 0106 3B       		.uleb128 0x3b
 3277 0107 05       		.uleb128 0x5
 3278 0108 49       		.uleb128 0x49
 3279 0109 13       		.uleb128 0x13
 3280 010a 38       		.uleb128 0x38
 3281 010b 05       		.uleb128 0x5
 3282 010c 00       		.byte	0
 3283 010d 00       		.byte	0
 3284 010e 17       		.uleb128 0x17
 3285 010f 01       		.uleb128 0x1
 3286 0110 01       		.byte	0x1
 3287 0111 49       		.uleb128 0x49
 3288 0112 13       		.uleb128 0x13
 3289 0113 01       		.uleb128 0x1
 3290 0114 13       		.uleb128 0x13
 3291 0115 00       		.byte	0
 3292 0116 00       		.byte	0
 3293 0117 18       		.uleb128 0x18
 3294 0118 21       		.uleb128 0x21
 3295 0119 00       		.byte	0
 3296 011a 49       		.uleb128 0x49
 3297 011b 13       		.uleb128 0x13
 3298 011c 2F       		.uleb128 0x2f
 3299 011d 0B       		.uleb128 0xb
ARM GAS  /var/folders/t8/16hdwfmd2fg_d3q6dgx6bpmw0000gn/T//ccDKACFo.s 			page 59


 3300 011e 00       		.byte	0
 3301 011f 00       		.byte	0
 3302 0120 19       		.uleb128 0x19
 3303 0121 16       		.uleb128 0x16
 3304 0122 00       		.byte	0
 3305 0123 03       		.uleb128 0x3
 3306 0124 0E       		.uleb128 0xe
 3307 0125 3A       		.uleb128 0x3a
 3308 0126 0B       		.uleb128 0xb
 3309 0127 3B       		.uleb128 0x3b
 3310 0128 05       		.uleb128 0x5
 3311 0129 49       		.uleb128 0x49
 3312 012a 13       		.uleb128 0x13
 3313 012b 00       		.byte	0
 3314 012c 00       		.byte	0
 3315 012d 1A       		.uleb128 0x1a
 3316 012e 13       		.uleb128 0x13
 3317 012f 01       		.byte	0x1
 3318 0130 0B       		.uleb128 0xb
 3319 0131 0B       		.uleb128 0xb
 3320 0132 3A       		.uleb128 0x3a
 3321 0133 0B       		.uleb128 0xb
 3322 0134 3B       		.uleb128 0x3b
 3323 0135 05       		.uleb128 0x5
 3324 0136 01       		.uleb128 0x1
 3325 0137 13       		.uleb128 0x13
 3326 0138 00       		.byte	0
 3327 0139 00       		.byte	0
 3328 013a 1B       		.uleb128 0x1b
 3329 013b 17       		.uleb128 0x17
 3330 013c 01       		.byte	0x1
 3331 013d 0B       		.uleb128 0xb
 3332 013e 0B       		.uleb128 0xb
 3333 013f 3A       		.uleb128 0x3a
 3334 0140 0B       		.uleb128 0xb
 3335 0141 3B       		.uleb128 0x3b
 3336 0142 0B       		.uleb128 0xb
 3337 0143 01       		.uleb128 0x1
 3338 0144 13       		.uleb128 0x13
 3339 0145 00       		.byte	0
 3340 0146 00       		.byte	0
 3341 0147 1C       		.uleb128 0x1c
 3342 0148 0D       		.uleb128 0xd
 3343 0149 00       		.byte	0
 3344 014a 03       		.uleb128 0x3
 3345 014b 0E       		.uleb128 0xe
 3346 014c 3A       		.uleb128 0x3a
 3347 014d 0B       		.uleb128 0xb
 3348 014e 3B       		.uleb128 0x3b
 3349 014f 0B       		.uleb128 0xb
 3350 0150 49       		.uleb128 0x49
 3351 0151 13       		.uleb128 0x13
 3352 0152 00       		.byte	0
 3353 0153 00       		.byte	0
 3354 0154 1D       		.uleb128 0x1d
 3355 0155 0D       		.uleb128 0xd
 3356 0156 00       		.byte	0
ARM GAS  /var/folders/t8/16hdwfmd2fg_d3q6dgx6bpmw0000gn/T//ccDKACFo.s 			page 60


 3357 0157 03       		.uleb128 0x3
 3358 0158 0E       		.uleb128 0xe
 3359 0159 3A       		.uleb128 0x3a
 3360 015a 0B       		.uleb128 0xb
 3361 015b 3B       		.uleb128 0x3b
 3362 015c 05       		.uleb128 0x5
 3363 015d 49       		.uleb128 0x49
 3364 015e 13       		.uleb128 0x13
 3365 015f 00       		.byte	0
 3366 0160 00       		.byte	0
 3367 0161 1E       		.uleb128 0x1e
 3368 0162 34       		.uleb128 0x34
 3369 0163 00       		.byte	0
 3370 0164 03       		.uleb128 0x3
 3371 0165 08       		.uleb128 0x8
 3372 0166 3A       		.uleb128 0x3a
 3373 0167 0B       		.uleb128 0xb
 3374 0168 3B       		.uleb128 0x3b
 3375 0169 05       		.uleb128 0x5
 3376 016a 49       		.uleb128 0x49
 3377 016b 13       		.uleb128 0x13
 3378 016c 3F       		.uleb128 0x3f
 3379 016d 19       		.uleb128 0x19
 3380 016e 3C       		.uleb128 0x3c
 3381 016f 19       		.uleb128 0x19
 3382 0170 00       		.byte	0
 3383 0171 00       		.byte	0
 3384 0172 1F       		.uleb128 0x1f
 3385 0173 21       		.uleb128 0x21
 3386 0174 00       		.byte	0
 3387 0175 00       		.byte	0
 3388 0176 00       		.byte	0
 3389 0177 20       		.uleb128 0x20
 3390 0178 34       		.uleb128 0x34
 3391 0179 00       		.byte	0
 3392 017a 03       		.uleb128 0x3
 3393 017b 0E       		.uleb128 0xe
 3394 017c 3A       		.uleb128 0x3a
 3395 017d 0B       		.uleb128 0xb
 3396 017e 3B       		.uleb128 0x3b
 3397 017f 05       		.uleb128 0x5
 3398 0180 49       		.uleb128 0x49
 3399 0181 13       		.uleb128 0x13
 3400 0182 3F       		.uleb128 0x3f
 3401 0183 19       		.uleb128 0x19
 3402 0184 3C       		.uleb128 0x3c
 3403 0185 19       		.uleb128 0x19
 3404 0186 00       		.byte	0
 3405 0187 00       		.byte	0
 3406 0188 21       		.uleb128 0x21
 3407 0189 13       		.uleb128 0x13
 3408 018a 01       		.byte	0x1
 3409 018b 0B       		.uleb128 0xb
 3410 018c 0B       		.uleb128 0xb
 3411 018d 3A       		.uleb128 0x3a
 3412 018e 0B       		.uleb128 0xb
 3413 018f 3B       		.uleb128 0x3b
ARM GAS  /var/folders/t8/16hdwfmd2fg_d3q6dgx6bpmw0000gn/T//ccDKACFo.s 			page 61


 3414 0190 0B       		.uleb128 0xb
 3415 0191 01       		.uleb128 0x1
 3416 0192 13       		.uleb128 0x13
 3417 0193 00       		.byte	0
 3418 0194 00       		.byte	0
 3419 0195 22       		.uleb128 0x22
 3420 0196 34       		.uleb128 0x34
 3421 0197 00       		.byte	0
 3422 0198 03       		.uleb128 0x3
 3423 0199 0E       		.uleb128 0xe
 3424 019a 3A       		.uleb128 0x3a
 3425 019b 0B       		.uleb128 0xb
 3426 019c 3B       		.uleb128 0x3b
 3427 019d 0B       		.uleb128 0xb
 3428 019e 49       		.uleb128 0x49
 3429 019f 13       		.uleb128 0x13
 3430 01a0 3F       		.uleb128 0x3f
 3431 01a1 19       		.uleb128 0x19
 3432 01a2 3C       		.uleb128 0x3c
 3433 01a3 19       		.uleb128 0x19
 3434 01a4 00       		.byte	0
 3435 01a5 00       		.byte	0
 3436 01a6 23       		.uleb128 0x23
 3437 01a7 34       		.uleb128 0x34
 3438 01a8 00       		.byte	0
 3439 01a9 47       		.uleb128 0x47
 3440 01aa 13       		.uleb128 0x13
 3441 01ab 3A       		.uleb128 0x3a
 3442 01ac 0B       		.uleb128 0xb
 3443 01ad 3B       		.uleb128 0x3b
 3444 01ae 0B       		.uleb128 0xb
 3445 01af 02       		.uleb128 0x2
 3446 01b0 18       		.uleb128 0x18
 3447 01b1 00       		.byte	0
 3448 01b2 00       		.byte	0
 3449 01b3 24       		.uleb128 0x24
 3450 01b4 2E       		.uleb128 0x2e
 3451 01b5 01       		.byte	0x1
 3452 01b6 3F       		.uleb128 0x3f
 3453 01b7 19       		.uleb128 0x19
 3454 01b8 03       		.uleb128 0x3
 3455 01b9 0E       		.uleb128 0xe
 3456 01ba 3A       		.uleb128 0x3a
 3457 01bb 0B       		.uleb128 0xb
 3458 01bc 3B       		.uleb128 0x3b
 3459 01bd 05       		.uleb128 0x5
 3460 01be 27       		.uleb128 0x27
 3461 01bf 19       		.uleb128 0x19
 3462 01c0 11       		.uleb128 0x11
 3463 01c1 01       		.uleb128 0x1
 3464 01c2 12       		.uleb128 0x12
 3465 01c3 06       		.uleb128 0x6
 3466 01c4 40       		.uleb128 0x40
 3467 01c5 18       		.uleb128 0x18
 3468 01c6 9742     		.uleb128 0x2117
 3469 01c8 19       		.uleb128 0x19
 3470 01c9 01       		.uleb128 0x1
ARM GAS  /var/folders/t8/16hdwfmd2fg_d3q6dgx6bpmw0000gn/T//ccDKACFo.s 			page 62


 3471 01ca 13       		.uleb128 0x13
 3472 01cb 00       		.byte	0
 3473 01cc 00       		.byte	0
 3474 01cd 25       		.uleb128 0x25
 3475 01ce 05       		.uleb128 0x5
 3476 01cf 00       		.byte	0
 3477 01d0 03       		.uleb128 0x3
 3478 01d1 08       		.uleb128 0x8
 3479 01d2 3A       		.uleb128 0x3a
 3480 01d3 0B       		.uleb128 0xb
 3481 01d4 3B       		.uleb128 0x3b
 3482 01d5 05       		.uleb128 0x5
 3483 01d6 49       		.uleb128 0x49
 3484 01d7 13       		.uleb128 0x13
 3485 01d8 02       		.uleb128 0x2
 3486 01d9 17       		.uleb128 0x17
 3487 01da 00       		.byte	0
 3488 01db 00       		.byte	0
 3489 01dc 26       		.uleb128 0x26
 3490 01dd 1D       		.uleb128 0x1d
 3491 01de 01       		.byte	0x1
 3492 01df 31       		.uleb128 0x31
 3493 01e0 13       		.uleb128 0x13
 3494 01e1 11       		.uleb128 0x11
 3495 01e2 01       		.uleb128 0x1
 3496 01e3 12       		.uleb128 0x12
 3497 01e4 06       		.uleb128 0x6
 3498 01e5 58       		.uleb128 0x58
 3499 01e6 0B       		.uleb128 0xb
 3500 01e7 59       		.uleb128 0x59
 3501 01e8 05       		.uleb128 0x5
 3502 01e9 01       		.uleb128 0x1
 3503 01ea 13       		.uleb128 0x13
 3504 01eb 00       		.byte	0
 3505 01ec 00       		.byte	0
 3506 01ed 27       		.uleb128 0x27
 3507 01ee 1D       		.uleb128 0x1d
 3508 01ef 01       		.byte	0x1
 3509 01f0 31       		.uleb128 0x31
 3510 01f1 13       		.uleb128 0x13
 3511 01f2 11       		.uleb128 0x11
 3512 01f3 01       		.uleb128 0x1
 3513 01f4 12       		.uleb128 0x12
 3514 01f5 06       		.uleb128 0x6
 3515 01f6 58       		.uleb128 0x58
 3516 01f7 0B       		.uleb128 0xb
 3517 01f8 59       		.uleb128 0x59
 3518 01f9 05       		.uleb128 0x5
 3519 01fa 00       		.byte	0
 3520 01fb 00       		.byte	0
 3521 01fc 28       		.uleb128 0x28
 3522 01fd 0B       		.uleb128 0xb
 3523 01fe 01       		.byte	0x1
 3524 01ff 11       		.uleb128 0x11
 3525 0200 01       		.uleb128 0x1
 3526 0201 12       		.uleb128 0x12
 3527 0202 06       		.uleb128 0x6
ARM GAS  /var/folders/t8/16hdwfmd2fg_d3q6dgx6bpmw0000gn/T//ccDKACFo.s 			page 63


 3528 0203 00       		.byte	0
 3529 0204 00       		.byte	0
 3530 0205 29       		.uleb128 0x29
 3531 0206 34       		.uleb128 0x34
 3532 0207 00       		.byte	0
 3533 0208 31       		.uleb128 0x31
 3534 0209 13       		.uleb128 0x13
 3535 020a 00       		.byte	0
 3536 020b 00       		.byte	0
 3537 020c 2A       		.uleb128 0x2a
 3538 020d 05       		.uleb128 0x5
 3539 020e 00       		.byte	0
 3540 020f 31       		.uleb128 0x31
 3541 0210 13       		.uleb128 0x13
 3542 0211 02       		.uleb128 0x2
 3543 0212 17       		.uleb128 0x17
 3544 0213 00       		.byte	0
 3545 0214 00       		.byte	0
 3546 0215 2B       		.uleb128 0x2b
 3547 0216 1D       		.uleb128 0x1d
 3548 0217 01       		.byte	0x1
 3549 0218 31       		.uleb128 0x31
 3550 0219 13       		.uleb128 0x13
 3551 021a 11       		.uleb128 0x11
 3552 021b 01       		.uleb128 0x1
 3553 021c 12       		.uleb128 0x12
 3554 021d 06       		.uleb128 0x6
 3555 021e 58       		.uleb128 0x58
 3556 021f 0B       		.uleb128 0xb
 3557 0220 59       		.uleb128 0x59
 3558 0221 0B       		.uleb128 0xb
 3559 0222 00       		.byte	0
 3560 0223 00       		.byte	0
 3561 0224 2C       		.uleb128 0x2c
 3562 0225 1D       		.uleb128 0x1d
 3563 0226 00       		.byte	0
 3564 0227 31       		.uleb128 0x31
 3565 0228 13       		.uleb128 0x13
 3566 0229 11       		.uleb128 0x11
 3567 022a 01       		.uleb128 0x1
 3568 022b 12       		.uleb128 0x12
 3569 022c 06       		.uleb128 0x6
 3570 022d 58       		.uleb128 0x58
 3571 022e 0B       		.uleb128 0xb
 3572 022f 59       		.uleb128 0x59
 3573 0230 05       		.uleb128 0x5
 3574 0231 00       		.byte	0
 3575 0232 00       		.byte	0
 3576 0233 2D       		.uleb128 0x2d
 3577 0234 898201   		.uleb128 0x4109
 3578 0237 00       		.byte	0
 3579 0238 11       		.uleb128 0x11
 3580 0239 01       		.uleb128 0x1
 3581 023a 31       		.uleb128 0x31
 3582 023b 13       		.uleb128 0x13
 3583 023c 00       		.byte	0
 3584 023d 00       		.byte	0
ARM GAS  /var/folders/t8/16hdwfmd2fg_d3q6dgx6bpmw0000gn/T//ccDKACFo.s 			page 64


 3585 023e 2E       		.uleb128 0x2e
 3586 023f 2E       		.uleb128 0x2e
 3587 0240 01       		.byte	0x1
 3588 0241 3F       		.uleb128 0x3f
 3589 0242 19       		.uleb128 0x19
 3590 0243 03       		.uleb128 0x3
 3591 0244 0E       		.uleb128 0xe
 3592 0245 3A       		.uleb128 0x3a
 3593 0246 0B       		.uleb128 0xb
 3594 0247 3B       		.uleb128 0x3b
 3595 0248 05       		.uleb128 0x5
 3596 0249 27       		.uleb128 0x27
 3597 024a 19       		.uleb128 0x19
 3598 024b 49       		.uleb128 0x49
 3599 024c 13       		.uleb128 0x13
 3600 024d 11       		.uleb128 0x11
 3601 024e 01       		.uleb128 0x1
 3602 024f 12       		.uleb128 0x12
 3603 0250 06       		.uleb128 0x6
 3604 0251 40       		.uleb128 0x40
 3605 0252 18       		.uleb128 0x18
 3606 0253 9742     		.uleb128 0x2117
 3607 0255 19       		.uleb128 0x19
 3608 0256 01       		.uleb128 0x1
 3609 0257 13       		.uleb128 0x13
 3610 0258 00       		.byte	0
 3611 0259 00       		.byte	0
 3612 025a 2F       		.uleb128 0x2f
 3613 025b 34       		.uleb128 0x34
 3614 025c 00       		.byte	0
 3615 025d 03       		.uleb128 0x3
 3616 025e 08       		.uleb128 0x8
 3617 025f 3A       		.uleb128 0x3a
 3618 0260 0B       		.uleb128 0xb
 3619 0261 3B       		.uleb128 0x3b
 3620 0262 05       		.uleb128 0x5
 3621 0263 49       		.uleb128 0x49
 3622 0264 13       		.uleb128 0x13
 3623 0265 00       		.byte	0
 3624 0266 00       		.byte	0
 3625 0267 30       		.uleb128 0x30
 3626 0268 34       		.uleb128 0x34
 3627 0269 00       		.byte	0
 3628 026a 31       		.uleb128 0x31
 3629 026b 13       		.uleb128 0x13
 3630 026c 02       		.uleb128 0x2
 3631 026d 18       		.uleb128 0x18
 3632 026e 00       		.byte	0
 3633 026f 00       		.byte	0
 3634 0270 31       		.uleb128 0x31
 3635 0271 0B       		.uleb128 0xb
 3636 0272 01       		.byte	0x1
 3637 0273 31       		.uleb128 0x31
 3638 0274 13       		.uleb128 0x13
 3639 0275 11       		.uleb128 0x11
 3640 0276 01       		.uleb128 0x1
 3641 0277 12       		.uleb128 0x12
ARM GAS  /var/folders/t8/16hdwfmd2fg_d3q6dgx6bpmw0000gn/T//ccDKACFo.s 			page 65


 3642 0278 06       		.uleb128 0x6
 3643 0279 01       		.uleb128 0x1
 3644 027a 13       		.uleb128 0x13
 3645 027b 00       		.byte	0
 3646 027c 00       		.byte	0
 3647 027d 32       		.uleb128 0x32
 3648 027e 34       		.uleb128 0x34
 3649 027f 00       		.byte	0
 3650 0280 31       		.uleb128 0x31
 3651 0281 13       		.uleb128 0x13
 3652 0282 02       		.uleb128 0x2
 3653 0283 17       		.uleb128 0x17
 3654 0284 00       		.byte	0
 3655 0285 00       		.byte	0
 3656 0286 33       		.uleb128 0x33
 3657 0287 898201   		.uleb128 0x4109
 3658 028a 00       		.byte	0
 3659 028b 11       		.uleb128 0x11
 3660 028c 01       		.uleb128 0x1
 3661 028d 9342     		.uleb128 0x2113
 3662 028f 18       		.uleb128 0x18
 3663 0290 00       		.byte	0
 3664 0291 00       		.byte	0
 3665 0292 34       		.uleb128 0x34
 3666 0293 2E       		.uleb128 0x2e
 3667 0294 01       		.byte	0x1
 3668 0295 3F       		.uleb128 0x3f
 3669 0296 19       		.uleb128 0x19
 3670 0297 03       		.uleb128 0x3
 3671 0298 0E       		.uleb128 0xe
 3672 0299 3A       		.uleb128 0x3a
 3673 029a 0B       		.uleb128 0xb
 3674 029b 3B       		.uleb128 0x3b
 3675 029c 0B       		.uleb128 0xb
 3676 029d 27       		.uleb128 0x27
 3677 029e 19       		.uleb128 0x19
 3678 029f 49       		.uleb128 0x49
 3679 02a0 13       		.uleb128 0x13
 3680 02a1 11       		.uleb128 0x11
 3681 02a2 01       		.uleb128 0x1
 3682 02a3 12       		.uleb128 0x12
 3683 02a4 06       		.uleb128 0x6
 3684 02a5 40       		.uleb128 0x40
 3685 02a6 18       		.uleb128 0x18
 3686 02a7 9742     		.uleb128 0x2117
 3687 02a9 19       		.uleb128 0x19
 3688 02aa 01       		.uleb128 0x1
 3689 02ab 13       		.uleb128 0x13
 3690 02ac 00       		.byte	0
 3691 02ad 00       		.byte	0
 3692 02ae 35       		.uleb128 0x35
 3693 02af 05       		.uleb128 0x5
 3694 02b0 00       		.byte	0
 3695 02b1 03       		.uleb128 0x3
 3696 02b2 0E       		.uleb128 0xe
 3697 02b3 3A       		.uleb128 0x3a
 3698 02b4 0B       		.uleb128 0xb
ARM GAS  /var/folders/t8/16hdwfmd2fg_d3q6dgx6bpmw0000gn/T//ccDKACFo.s 			page 66


 3699 02b5 3B       		.uleb128 0x3b
 3700 02b6 0B       		.uleb128 0xb
 3701 02b7 49       		.uleb128 0x49
 3702 02b8 13       		.uleb128 0x13
 3703 02b9 02       		.uleb128 0x2
 3704 02ba 17       		.uleb128 0x17
 3705 02bb 00       		.byte	0
 3706 02bc 00       		.byte	0
 3707 02bd 36       		.uleb128 0x36
 3708 02be 34       		.uleb128 0x34
 3709 02bf 00       		.byte	0
 3710 02c0 03       		.uleb128 0x3
 3711 02c1 08       		.uleb128 0x8
 3712 02c2 3A       		.uleb128 0x3a
 3713 02c3 0B       		.uleb128 0xb
 3714 02c4 3B       		.uleb128 0x3b
 3715 02c5 0B       		.uleb128 0xb
 3716 02c6 49       		.uleb128 0x49
 3717 02c7 13       		.uleb128 0x13
 3718 02c8 02       		.uleb128 0x2
 3719 02c9 17       		.uleb128 0x17
 3720 02ca 00       		.byte	0
 3721 02cb 00       		.byte	0
 3722 02cc 37       		.uleb128 0x37
 3723 02cd 0B       		.uleb128 0xb
 3724 02ce 01       		.byte	0x1
 3725 02cf 55       		.uleb128 0x55
 3726 02d0 17       		.uleb128 0x17
 3727 02d1 01       		.uleb128 0x1
 3728 02d2 13       		.uleb128 0x13
 3729 02d3 00       		.byte	0
 3730 02d4 00       		.byte	0
 3731 02d5 38       		.uleb128 0x38
 3732 02d6 34       		.uleb128 0x34
 3733 02d7 00       		.byte	0
 3734 02d8 03       		.uleb128 0x3
 3735 02d9 08       		.uleb128 0x8
 3736 02da 3A       		.uleb128 0x3a
 3737 02db 0B       		.uleb128 0xb
 3738 02dc 3B       		.uleb128 0x3b
 3739 02dd 05       		.uleb128 0x5
 3740 02de 49       		.uleb128 0x49
 3741 02df 13       		.uleb128 0x13
 3742 02e0 02       		.uleb128 0x2
 3743 02e1 17       		.uleb128 0x17
 3744 02e2 00       		.byte	0
 3745 02e3 00       		.byte	0
 3746 02e4 39       		.uleb128 0x39
 3747 02e5 2E       		.uleb128 0x2e
 3748 02e6 01       		.byte	0x1
 3749 02e7 3F       		.uleb128 0x3f
 3750 02e8 19       		.uleb128 0x19
 3751 02e9 03       		.uleb128 0x3
 3752 02ea 0E       		.uleb128 0xe
 3753 02eb 3A       		.uleb128 0x3a
 3754 02ec 0B       		.uleb128 0xb
 3755 02ed 3B       		.uleb128 0x3b
ARM GAS  /var/folders/t8/16hdwfmd2fg_d3q6dgx6bpmw0000gn/T//ccDKACFo.s 			page 67


 3756 02ee 0B       		.uleb128 0xb
 3757 02ef 27       		.uleb128 0x27
 3758 02f0 19       		.uleb128 0x19
 3759 02f1 20       		.uleb128 0x20
 3760 02f2 0B       		.uleb128 0xb
 3761 02f3 01       		.uleb128 0x1
 3762 02f4 13       		.uleb128 0x13
 3763 02f5 00       		.byte	0
 3764 02f6 00       		.byte	0
 3765 02f7 3A       		.uleb128 0x3a
 3766 02f8 05       		.uleb128 0x5
 3767 02f9 00       		.byte	0
 3768 02fa 03       		.uleb128 0x3
 3769 02fb 0E       		.uleb128 0xe
 3770 02fc 3A       		.uleb128 0x3a
 3771 02fd 0B       		.uleb128 0xb
 3772 02fe 3B       		.uleb128 0x3b
 3773 02ff 0B       		.uleb128 0xb
 3774 0300 49       		.uleb128 0x49
 3775 0301 13       		.uleb128 0x13
 3776 0302 00       		.byte	0
 3777 0303 00       		.byte	0
 3778 0304 3B       		.uleb128 0x3b
 3779 0305 2E       		.uleb128 0x2e
 3780 0306 01       		.byte	0x1
 3781 0307 3F       		.uleb128 0x3f
 3782 0308 19       		.uleb128 0x19
 3783 0309 03       		.uleb128 0x3
 3784 030a 0E       		.uleb128 0xe
 3785 030b 3A       		.uleb128 0x3a
 3786 030c 0B       		.uleb128 0xb
 3787 030d 3B       		.uleb128 0x3b
 3788 030e 0B       		.uleb128 0xb
 3789 030f 27       		.uleb128 0x27
 3790 0310 19       		.uleb128 0x19
 3791 0311 11       		.uleb128 0x11
 3792 0312 01       		.uleb128 0x1
 3793 0313 12       		.uleb128 0x12
 3794 0314 06       		.uleb128 0x6
 3795 0315 40       		.uleb128 0x40
 3796 0316 18       		.uleb128 0x18
 3797 0317 9742     		.uleb128 0x2117
 3798 0319 19       		.uleb128 0x19
 3799 031a 01       		.uleb128 0x1
 3800 031b 13       		.uleb128 0x13
 3801 031c 00       		.byte	0
 3802 031d 00       		.byte	0
 3803 031e 3C       		.uleb128 0x3c
 3804 031f 0B       		.uleb128 0xb
 3805 0320 01       		.byte	0x1
 3806 0321 11       		.uleb128 0x11
 3807 0322 01       		.uleb128 0x1
 3808 0323 12       		.uleb128 0x12
 3809 0324 06       		.uleb128 0x6
 3810 0325 01       		.uleb128 0x1
 3811 0326 13       		.uleb128 0x13
 3812 0327 00       		.byte	0
ARM GAS  /var/folders/t8/16hdwfmd2fg_d3q6dgx6bpmw0000gn/T//ccDKACFo.s 			page 68


 3813 0328 00       		.byte	0
 3814 0329 3D       		.uleb128 0x3d
 3815 032a 34       		.uleb128 0x34
 3816 032b 00       		.byte	0
 3817 032c 03       		.uleb128 0x3
 3818 032d 0E       		.uleb128 0xe
 3819 032e 3A       		.uleb128 0x3a
 3820 032f 0B       		.uleb128 0xb
 3821 0330 3B       		.uleb128 0x3b
 3822 0331 0B       		.uleb128 0xb
 3823 0332 49       		.uleb128 0x49
 3824 0333 13       		.uleb128 0x13
 3825 0334 02       		.uleb128 0x2
 3826 0335 18       		.uleb128 0x18
 3827 0336 00       		.byte	0
 3828 0337 00       		.byte	0
 3829 0338 3E       		.uleb128 0x3e
 3830 0339 898201   		.uleb128 0x4109
 3831 033c 01       		.byte	0x1
 3832 033d 11       		.uleb128 0x11
 3833 033e 01       		.uleb128 0x1
 3834 033f 31       		.uleb128 0x31
 3835 0340 13       		.uleb128 0x13
 3836 0341 00       		.byte	0
 3837 0342 00       		.byte	0
 3838 0343 3F       		.uleb128 0x3f
 3839 0344 8A8201   		.uleb128 0x410a
 3840 0347 00       		.byte	0
 3841 0348 02       		.uleb128 0x2
 3842 0349 18       		.uleb128 0x18
 3843 034a 9142     		.uleb128 0x2111
 3844 034c 18       		.uleb128 0x18
 3845 034d 00       		.byte	0
 3846 034e 00       		.byte	0
 3847 034f 40       		.uleb128 0x40
 3848 0350 1D       		.uleb128 0x1d
 3849 0351 01       		.byte	0x1
 3850 0352 31       		.uleb128 0x31
 3851 0353 13       		.uleb128 0x13
 3852 0354 52       		.uleb128 0x52
 3853 0355 01       		.uleb128 0x1
 3854 0356 55       		.uleb128 0x55
 3855 0357 17       		.uleb128 0x17
 3856 0358 58       		.uleb128 0x58
 3857 0359 0B       		.uleb128 0xb
 3858 035a 59       		.uleb128 0x59
 3859 035b 0B       		.uleb128 0xb
 3860 035c 01       		.uleb128 0x1
 3861 035d 13       		.uleb128 0x13
 3862 035e 00       		.byte	0
 3863 035f 00       		.byte	0
 3864 0360 41       		.uleb128 0x41
 3865 0361 1D       		.uleb128 0x1d
 3866 0362 01       		.byte	0x1
 3867 0363 31       		.uleb128 0x31
 3868 0364 13       		.uleb128 0x13
 3869 0365 52       		.uleb128 0x52
ARM GAS  /var/folders/t8/16hdwfmd2fg_d3q6dgx6bpmw0000gn/T//ccDKACFo.s 			page 69


 3870 0366 01       		.uleb128 0x1
 3871 0367 55       		.uleb128 0x55
 3872 0368 17       		.uleb128 0x17
 3873 0369 58       		.uleb128 0x58
 3874 036a 0B       		.uleb128 0xb
 3875 036b 59       		.uleb128 0x59
 3876 036c 05       		.uleb128 0x5
 3877 036d 00       		.byte	0
 3878 036e 00       		.byte	0
 3879 036f 42       		.uleb128 0x42
 3880 0370 1D       		.uleb128 0x1d
 3881 0371 01       		.byte	0x1
 3882 0372 31       		.uleb128 0x31
 3883 0373 13       		.uleb128 0x13
 3884 0374 11       		.uleb128 0x11
 3885 0375 01       		.uleb128 0x1
 3886 0376 12       		.uleb128 0x12
 3887 0377 06       		.uleb128 0x6
 3888 0378 58       		.uleb128 0x58
 3889 0379 0B       		.uleb128 0xb
 3890 037a 59       		.uleb128 0x59
 3891 037b 0B       		.uleb128 0xb
 3892 037c 01       		.uleb128 0x1
 3893 037d 13       		.uleb128 0x13
 3894 037e 00       		.byte	0
 3895 037f 00       		.byte	0
 3896 0380 43       		.uleb128 0x43
 3897 0381 2E       		.uleb128 0x2e
 3898 0382 01       		.byte	0x1
 3899 0383 03       		.uleb128 0x3
 3900 0384 0E       		.uleb128 0xe
 3901 0385 3A       		.uleb128 0x3a
 3902 0386 0B       		.uleb128 0xb
 3903 0387 3B       		.uleb128 0x3b
 3904 0388 0B       		.uleb128 0xb
 3905 0389 27       		.uleb128 0x27
 3906 038a 19       		.uleb128 0x19
 3907 038b 11       		.uleb128 0x11
 3908 038c 01       		.uleb128 0x1
 3909 038d 12       		.uleb128 0x12
 3910 038e 06       		.uleb128 0x6
 3911 038f 40       		.uleb128 0x40
 3912 0390 18       		.uleb128 0x18
 3913 0391 9742     		.uleb128 0x2117
 3914 0393 19       		.uleb128 0x19
 3915 0394 01       		.uleb128 0x1
 3916 0395 13       		.uleb128 0x13
 3917 0396 00       		.byte	0
 3918 0397 00       		.byte	0
 3919 0398 44       		.uleb128 0x44
 3920 0399 05       		.uleb128 0x5
 3921 039a 00       		.byte	0
 3922 039b 03       		.uleb128 0x3
 3923 039c 08       		.uleb128 0x8
 3924 039d 3A       		.uleb128 0x3a
 3925 039e 0B       		.uleb128 0xb
 3926 039f 3B       		.uleb128 0x3b
ARM GAS  /var/folders/t8/16hdwfmd2fg_d3q6dgx6bpmw0000gn/T//ccDKACFo.s 			page 70


 3927 03a0 0B       		.uleb128 0xb
 3928 03a1 49       		.uleb128 0x49
 3929 03a2 13       		.uleb128 0x13
 3930 03a3 02       		.uleb128 0x2
 3931 03a4 18       		.uleb128 0x18
 3932 03a5 00       		.byte	0
 3933 03a6 00       		.byte	0
 3934 03a7 45       		.uleb128 0x45
 3935 03a8 2E       		.uleb128 0x2e
 3936 03a9 01       		.byte	0x1
 3937 03aa 03       		.uleb128 0x3
 3938 03ab 0E       		.uleb128 0xe
 3939 03ac 3A       		.uleb128 0x3a
 3940 03ad 0B       		.uleb128 0xb
 3941 03ae 3B       		.uleb128 0x3b
 3942 03af 05       		.uleb128 0x5
 3943 03b0 27       		.uleb128 0x27
 3944 03b1 19       		.uleb128 0x19
 3945 03b2 20       		.uleb128 0x20
 3946 03b3 0B       		.uleb128 0xb
 3947 03b4 01       		.uleb128 0x1
 3948 03b5 13       		.uleb128 0x13
 3949 03b6 00       		.byte	0
 3950 03b7 00       		.byte	0
 3951 03b8 46       		.uleb128 0x46
 3952 03b9 0B       		.uleb128 0xb
 3953 03ba 01       		.byte	0x1
 3954 03bb 00       		.byte	0
 3955 03bc 00       		.byte	0
 3956 03bd 47       		.uleb128 0x47
 3957 03be 2E       		.uleb128 0x2e
 3958 03bf 00       		.byte	0
 3959 03c0 03       		.uleb128 0x3
 3960 03c1 0E       		.uleb128 0xe
 3961 03c2 3A       		.uleb128 0x3a
 3962 03c3 0B       		.uleb128 0xb
 3963 03c4 3B       		.uleb128 0x3b
 3964 03c5 05       		.uleb128 0x5
 3965 03c6 27       		.uleb128 0x27
 3966 03c7 19       		.uleb128 0x19
 3967 03c8 20       		.uleb128 0x20
 3968 03c9 0B       		.uleb128 0xb
 3969 03ca 00       		.byte	0
 3970 03cb 00       		.byte	0
 3971 03cc 48       		.uleb128 0x48
 3972 03cd 34       		.uleb128 0x34
 3973 03ce 00       		.byte	0
 3974 03cf 03       		.uleb128 0x3
 3975 03d0 0E       		.uleb128 0xe
 3976 03d1 49       		.uleb128 0x49
 3977 03d2 13       		.uleb128 0x13
 3978 03d3 34       		.uleb128 0x34
 3979 03d4 19       		.uleb128 0x19
 3980 03d5 1C       		.uleb128 0x1c
 3981 03d6 0E       		.uleb128 0xe
 3982 03d7 00       		.byte	0
 3983 03d8 00       		.byte	0
ARM GAS  /var/folders/t8/16hdwfmd2fg_d3q6dgx6bpmw0000gn/T//ccDKACFo.s 			page 71


 3984 03d9 49       		.uleb128 0x49
 3985 03da 2E       		.uleb128 0x2e
 3986 03db 00       		.byte	0
 3987 03dc 03       		.uleb128 0x3
 3988 03dd 0E       		.uleb128 0xe
 3989 03de 3A       		.uleb128 0x3a
 3990 03df 0B       		.uleb128 0xb
 3991 03e0 3B       		.uleb128 0x3b
 3992 03e1 05       		.uleb128 0x5
 3993 03e2 27       		.uleb128 0x27
 3994 03e3 19       		.uleb128 0x19
 3995 03e4 49       		.uleb128 0x49
 3996 03e5 13       		.uleb128 0x13
 3997 03e6 20       		.uleb128 0x20
 3998 03e7 0B       		.uleb128 0xb
 3999 03e8 00       		.byte	0
 4000 03e9 00       		.byte	0
 4001 03ea 4A       		.uleb128 0x4a
 4002 03eb 2E       		.uleb128 0x2e
 4003 03ec 01       		.byte	0x1
 4004 03ed 03       		.uleb128 0x3
 4005 03ee 0E       		.uleb128 0xe
 4006 03ef 3A       		.uleb128 0x3a
 4007 03f0 0B       		.uleb128 0xb
 4008 03f1 3B       		.uleb128 0x3b
 4009 03f2 05       		.uleb128 0x5
 4010 03f3 27       		.uleb128 0x27
 4011 03f4 19       		.uleb128 0x19
 4012 03f5 49       		.uleb128 0x49
 4013 03f6 13       		.uleb128 0x13
 4014 03f7 20       		.uleb128 0x20
 4015 03f8 0B       		.uleb128 0xb
 4016 03f9 01       		.uleb128 0x1
 4017 03fa 13       		.uleb128 0x13
 4018 03fb 00       		.byte	0
 4019 03fc 00       		.byte	0
 4020 03fd 4B       		.uleb128 0x4b
 4021 03fe 05       		.uleb128 0x5
 4022 03ff 00       		.byte	0
 4023 0400 03       		.uleb128 0x3
 4024 0401 08       		.uleb128 0x8
 4025 0402 3A       		.uleb128 0x3a
 4026 0403 0B       		.uleb128 0xb
 4027 0404 3B       		.uleb128 0x3b
 4028 0405 05       		.uleb128 0x5
 4029 0406 49       		.uleb128 0x49
 4030 0407 13       		.uleb128 0x13
 4031 0408 00       		.byte	0
 4032 0409 00       		.byte	0
 4033 040a 4C       		.uleb128 0x4c
 4034 040b 05       		.uleb128 0x5
 4035 040c 00       		.byte	0
 4036 040d 03       		.uleb128 0x3
 4037 040e 0E       		.uleb128 0xe
 4038 040f 3A       		.uleb128 0x3a
 4039 0410 0B       		.uleb128 0xb
 4040 0411 3B       		.uleb128 0x3b
ARM GAS  /var/folders/t8/16hdwfmd2fg_d3q6dgx6bpmw0000gn/T//ccDKACFo.s 			page 72


 4041 0412 05       		.uleb128 0x5
 4042 0413 49       		.uleb128 0x49
 4043 0414 13       		.uleb128 0x13
 4044 0415 00       		.byte	0
 4045 0416 00       		.byte	0
 4046 0417 4D       		.uleb128 0x4d
 4047 0418 2E       		.uleb128 0x2e
 4048 0419 01       		.byte	0x1
 4049 041a 03       		.uleb128 0x3
 4050 041b 0E       		.uleb128 0xe
 4051 041c 3A       		.uleb128 0x3a
 4052 041d 0B       		.uleb128 0xb
 4053 041e 3B       		.uleb128 0x3b
 4054 041f 0B       		.uleb128 0xb
 4055 0420 27       		.uleb128 0x27
 4056 0421 19       		.uleb128 0x19
 4057 0422 49       		.uleb128 0x49
 4058 0423 13       		.uleb128 0x13
 4059 0424 20       		.uleb128 0x20
 4060 0425 0B       		.uleb128 0xb
 4061 0426 01       		.uleb128 0x1
 4062 0427 13       		.uleb128 0x13
 4063 0428 00       		.byte	0
 4064 0429 00       		.byte	0
 4065 042a 4E       		.uleb128 0x4e
 4066 042b 34       		.uleb128 0x34
 4067 042c 00       		.byte	0
 4068 042d 03       		.uleb128 0x3
 4069 042e 0E       		.uleb128 0xe
 4070 042f 3A       		.uleb128 0x3a
 4071 0430 0B       		.uleb128 0xb
 4072 0431 3B       		.uleb128 0x3b
 4073 0432 0B       		.uleb128 0xb
 4074 0433 49       		.uleb128 0x49
 4075 0434 13       		.uleb128 0x13
 4076 0435 00       		.byte	0
 4077 0436 00       		.byte	0
 4078 0437 4F       		.uleb128 0x4f
 4079 0438 2E       		.uleb128 0x2e
 4080 0439 00       		.byte	0
 4081 043a 03       		.uleb128 0x3
 4082 043b 0E       		.uleb128 0xe
 4083 043c 3A       		.uleb128 0x3a
 4084 043d 0B       		.uleb128 0xb
 4085 043e 3B       		.uleb128 0x3b
 4086 043f 0B       		.uleb128 0xb
 4087 0440 27       		.uleb128 0x27
 4088 0441 19       		.uleb128 0x19
 4089 0442 20       		.uleb128 0x20
 4090 0443 0B       		.uleb128 0xb
 4091 0444 00       		.byte	0
 4092 0445 00       		.byte	0
 4093 0446 50       		.uleb128 0x50
 4094 0447 2E       		.uleb128 0x2e
 4095 0448 01       		.byte	0x1
 4096 0449 31       		.uleb128 0x31
 4097 044a 13       		.uleb128 0x13
ARM GAS  /var/folders/t8/16hdwfmd2fg_d3q6dgx6bpmw0000gn/T//ccDKACFo.s 			page 73


 4098 044b 11       		.uleb128 0x11
 4099 044c 01       		.uleb128 0x1
 4100 044d 12       		.uleb128 0x12
 4101 044e 06       		.uleb128 0x6
 4102 044f 40       		.uleb128 0x40
 4103 0450 18       		.uleb128 0x18
 4104 0451 9742     		.uleb128 0x2117
 4105 0453 19       		.uleb128 0x19
 4106 0454 01       		.uleb128 0x1
 4107 0455 13       		.uleb128 0x13
 4108 0456 00       		.byte	0
 4109 0457 00       		.byte	0
 4110 0458 51       		.uleb128 0x51
 4111 0459 05       		.uleb128 0x5
 4112 045a 00       		.byte	0
 4113 045b 31       		.uleb128 0x31
 4114 045c 13       		.uleb128 0x13
 4115 045d 02       		.uleb128 0x2
 4116 045e 18       		.uleb128 0x18
 4117 045f 00       		.byte	0
 4118 0460 00       		.byte	0
 4119 0461 52       		.uleb128 0x52
 4120 0462 36       		.uleb128 0x36
 4121 0463 00       		.byte	0
 4122 0464 02       		.uleb128 0x2
 4123 0465 18       		.uleb128 0x18
 4124 0466 00       		.byte	0
 4125 0467 00       		.byte	0
 4126 0468 53       		.uleb128 0x53
 4127 0469 2E       		.uleb128 0x2e
 4128 046a 00       		.byte	0
 4129 046b 3F       		.uleb128 0x3f
 4130 046c 19       		.uleb128 0x19
 4131 046d 3C       		.uleb128 0x3c
 4132 046e 19       		.uleb128 0x19
 4133 046f 6E       		.uleb128 0x6e
 4134 0470 0E       		.uleb128 0xe
 4135 0471 03       		.uleb128 0x3
 4136 0472 0E       		.uleb128 0xe
 4137 0473 3A       		.uleb128 0x3a
 4138 0474 0B       		.uleb128 0xb
 4139 0475 3B       		.uleb128 0x3b
 4140 0476 0B       		.uleb128 0xb
 4141 0477 00       		.byte	0
 4142 0478 00       		.byte	0
 4143 0479 54       		.uleb128 0x54
 4144 047a 2E       		.uleb128 0x2e
 4145 047b 00       		.byte	0
 4146 047c 3F       		.uleb128 0x3f
 4147 047d 19       		.uleb128 0x19
 4148 047e 3C       		.uleb128 0x3c
 4149 047f 19       		.uleb128 0x19
 4150 0480 6E       		.uleb128 0x6e
 4151 0481 0E       		.uleb128 0xe
 4152 0482 03       		.uleb128 0x3
 4153 0483 0E       		.uleb128 0xe
 4154 0484 3A       		.uleb128 0x3a
ARM GAS  /var/folders/t8/16hdwfmd2fg_d3q6dgx6bpmw0000gn/T//ccDKACFo.s 			page 74


 4155 0485 0B       		.uleb128 0xb
 4156 0486 3B       		.uleb128 0x3b
 4157 0487 05       		.uleb128 0x5
 4158 0488 00       		.byte	0
 4159 0489 00       		.byte	0
 4160 048a 00       		.byte	0
 4161              		.section	.debug_loc,"",%progbits
 4162              	.Ldebug_loc0:
 4163              	.LLST9:
 4164 0000 00000000 		.4byte	.LVL62
 4165 0004 11000000 		.4byte	.LVL63-1
 4166 0008 0100     		.2byte	0x1
 4167 000a 50       		.byte	0x50
 4168 000b 11000000 		.4byte	.LVL63-1
 4169 000f 34000000 		.4byte	.LVL67
 4170 0013 0400     		.2byte	0x4
 4171 0015 F3       		.byte	0xf3
 4172 0016 01       		.uleb128 0x1
 4173 0017 50       		.byte	0x50
 4174 0018 9F       		.byte	0x9f
 4175 0019 34000000 		.4byte	.LVL67
 4176 001d 37000000 		.4byte	.LVL68-1
 4177 0021 0100     		.2byte	0x1
 4178 0023 50       		.byte	0x50
 4179 0024 37000000 		.4byte	.LVL68-1
 4180 0028 44000000 		.4byte	.LFE144
 4181 002c 0400     		.2byte	0x4
 4182 002e F3       		.byte	0xf3
 4183 002f 01       		.uleb128 0x1
 4184 0030 50       		.byte	0x50
 4185 0031 9F       		.byte	0x9f
 4186 0032 00000000 		.4byte	0
 4187 0036 00000000 		.4byte	0
 4188              	.LLST10:
 4189 003a 28000000 		.4byte	.LVL65
 4190 003e 30000000 		.4byte	.LVL66
 4191 0042 0600     		.2byte	0x6
 4192 0044 F2       		.byte	0xf2
 4193 0045 71110000 		.4byte	.Ldebug_info0+4465
 4194 0049 00       		.sleb128 0
 4195 004a 00000000 		.4byte	0
 4196 004e 00000000 		.4byte	0
 4197              	.LLST7:
 4198 0052 3A000000 		.4byte	.LVL53
 4199 0056 58000000 		.4byte	.LVL58
 4200 005a 0100     		.2byte	0x1
 4201 005c 54       		.byte	0x54
 4202 005d 00000000 		.4byte	0
 4203 0061 00000000 		.4byte	0
 4204              	.LLST8:
 4205 0065 3E000000 		.4byte	.LVL54
 4206 0069 5E000000 		.4byte	.LVL59
 4207 006d 0100     		.2byte	0x1
 4208 006f 56       		.byte	0x56
 4209 0070 00000000 		.4byte	0
 4210 0074 00000000 		.4byte	0
 4211              	.LLST2:
ARM GAS  /var/folders/t8/16hdwfmd2fg_d3q6dgx6bpmw0000gn/T//ccDKACFo.s 			page 75


 4212 0078 00000000 		.4byte	.LVL11
 4213 007c 07000000 		.4byte	.LVL12-1
 4214 0080 0100     		.2byte	0x1
 4215 0082 50       		.byte	0x50
 4216 0083 07000000 		.4byte	.LVL12-1
 4217 0087 6C000000 		.4byte	.LVL37
 4218 008b 0100     		.2byte	0x1
 4219 008d 54       		.byte	0x54
 4220 008e 6C000000 		.4byte	.LVL37
 4221 0092 8C000000 		.4byte	.LVL47
 4222 0096 0400     		.2byte	0x4
 4223 0098 F3       		.byte	0xf3
 4224 0099 01       		.uleb128 0x1
 4225 009a 50       		.byte	0x50
 4226 009b 9F       		.byte	0x9f
 4227 009c 8C000000 		.4byte	.LVL47
 4228 00a0 92000000 		.4byte	.LVL48
 4229 00a4 0100     		.2byte	0x1
 4230 00a6 54       		.byte	0x54
 4231 00a7 92000000 		.4byte	.LVL48
 4232 00ab 96000000 		.4byte	.LVL49
 4233 00af 0400     		.2byte	0x4
 4234 00b1 F3       		.byte	0xf3
 4235 00b2 01       		.uleb128 0x1
 4236 00b3 50       		.byte	0x50
 4237 00b4 9F       		.byte	0x9f
 4238 00b5 96000000 		.4byte	.LVL49
 4239 00b9 A0000000 		.4byte	.LVL50
 4240 00bd 0100     		.2byte	0x1
 4241 00bf 54       		.byte	0x54
 4242 00c0 A0000000 		.4byte	.LVL50
 4243 00c4 AC000000 		.4byte	.LFE141
 4244 00c8 0400     		.2byte	0x4
 4245 00ca F3       		.byte	0xf3
 4246 00cb 01       		.uleb128 0x1
 4247 00cc 50       		.byte	0x50
 4248 00cd 9F       		.byte	0x9f
 4249 00ce 00000000 		.4byte	0
 4250 00d2 00000000 		.4byte	0
 4251              	.LLST3:
 4252 00d6 0C000000 		.4byte	.LVL13
 4253 00da 18000000 		.4byte	.LVL15
 4254 00de 0200     		.2byte	0x2
 4255 00e0 30       		.byte	0x30
 4256 00e1 9F       		.byte	0x9f
 4257 00e2 18000000 		.4byte	.LVL15
 4258 00e6 32000000 		.4byte	.LVL23
 4259 00ea 0100     		.2byte	0x1
 4260 00ec 52       		.byte	0x52
 4261 00ed 36000000 		.4byte	.LVL24
 4262 00f1 44000000 		.4byte	.LVL26
 4263 00f5 0200     		.2byte	0x2
 4264 00f7 30       		.byte	0x30
 4265 00f8 9F       		.byte	0x9f
 4266 00f9 44000000 		.4byte	.LVL26
 4267 00fd 5E000000 		.4byte	.LVL34
 4268 0101 0100     		.2byte	0x1
ARM GAS  /var/folders/t8/16hdwfmd2fg_d3q6dgx6bpmw0000gn/T//ccDKACFo.s 			page 76


 4269 0103 53       		.byte	0x53
 4270 0104 64000000 		.4byte	.LVL35
 4271 0108 70000000 		.4byte	.LVL38
 4272 010c 0200     		.2byte	0x2
 4273 010e 30       		.byte	0x30
 4274 010f 9F       		.byte	0x9f
 4275 0110 70000000 		.4byte	.LVL38
 4276 0114 88000000 		.4byte	.LVL45
 4277 0118 0100     		.2byte	0x1
 4278 011a 52       		.byte	0x52
 4279 011b 8C000000 		.4byte	.LVL47
 4280 011f 92000000 		.4byte	.LVL48
 4281 0123 0200     		.2byte	0x2
 4282 0125 30       		.byte	0x30
 4283 0126 9F       		.byte	0x9f
 4284 0127 96000000 		.4byte	.LVL49
 4285 012b AC000000 		.4byte	.LFE141
 4286 012f 0200     		.2byte	0x2
 4287 0131 30       		.byte	0x30
 4288 0132 9F       		.byte	0x9f
 4289 0133 00000000 		.4byte	0
 4290 0137 00000000 		.4byte	0
 4291              	.LLST4:
 4292 013b 12000000 		.4byte	.LVL14
 4293 013f 1A000000 		.4byte	.LVL16
 4294 0143 0100     		.2byte	0x1
 4295 0145 51       		.byte	0x51
 4296 0146 1C000000 		.4byte	.LVL17
 4297 014a 20000000 		.4byte	.LVL18
 4298 014e 0100     		.2byte	0x1
 4299 0150 51       		.byte	0x51
 4300 0151 24000000 		.4byte	.LVL19
 4301 0155 26000000 		.4byte	.LVL20
 4302 0159 0100     		.2byte	0x1
 4303 015b 50       		.byte	0x50
 4304 015c 28000000 		.4byte	.LVL21
 4305 0160 2E000000 		.4byte	.LVL22
 4306 0164 0100     		.2byte	0x1
 4307 0166 50       		.byte	0x50
 4308 0167 00000000 		.4byte	0
 4309 016b 00000000 		.4byte	0
 4310              	.LLST5:
 4311 016f 3A000000 		.4byte	.LVL25
 4312 0173 46000000 		.4byte	.LVL27
 4313 0177 0100     		.2byte	0x1
 4314 0179 52       		.byte	0x52
 4315 017a 48000000 		.4byte	.LVL28
 4316 017e 4C000000 		.4byte	.LVL29
 4317 0182 0100     		.2byte	0x1
 4318 0184 52       		.byte	0x52
 4319 0185 50000000 		.4byte	.LVL30
 4320 0189 52000000 		.4byte	.LVL31
 4321 018d 0100     		.2byte	0x1
 4322 018f 50       		.byte	0x50
 4323 0190 54000000 		.4byte	.LVL32
 4324 0194 5A000000 		.4byte	.LVL33
 4325 0198 0100     		.2byte	0x1
ARM GAS  /var/folders/t8/16hdwfmd2fg_d3q6dgx6bpmw0000gn/T//ccDKACFo.s 			page 77


 4326 019a 50       		.byte	0x50
 4327 019b 00000000 		.4byte	0
 4328 019f 00000000 		.4byte	0
 4329              	.LLST6:
 4330 01a3 6A000000 		.4byte	.LVL36
 4331 01a7 72000000 		.4byte	.LVL39
 4332 01ab 0100     		.2byte	0x1
 4333 01ad 51       		.byte	0x51
 4334 01ae 74000000 		.4byte	.LVL40
 4335 01b2 78000000 		.4byte	.LVL41
 4336 01b6 0100     		.2byte	0x1
 4337 01b8 51       		.byte	0x51
 4338 01b9 7C000000 		.4byte	.LVL42
 4339 01bd 7E000000 		.4byte	.LVL43
 4340 01c1 0100     		.2byte	0x1
 4341 01c3 54       		.byte	0x54
 4342 01c4 80000000 		.4byte	.LVL44
 4343 01c8 8A000000 		.4byte	.LVL46
 4344 01cc 0100     		.2byte	0x1
 4345 01ce 54       		.byte	0x54
 4346 01cf 00000000 		.4byte	0
 4347 01d3 00000000 		.4byte	0
 4348              	.LLST0:
 4349 01d7 30000000 		.4byte	.LVL6
 4350 01db 3C000000 		.4byte	.LVL7
 4351 01df 0200     		.2byte	0x2
 4352 01e1 30       		.byte	0x30
 4353 01e2 9F       		.byte	0x9f
 4354 01e3 00000000 		.4byte	0
 4355 01e7 00000000 		.4byte	0
 4356              	.LLST1:
 4357 01eb 30000000 		.4byte	.LVL6
 4358 01ef 3C000000 		.4byte	.LVL7
 4359 01f3 0300     		.2byte	0x3
 4360 01f5 09       		.byte	0x9
 4361 01f6 FE       		.byte	0xfe
 4362 01f7 9F       		.byte	0x9f
 4363 01f8 00000000 		.4byte	0
 4364 01fc 00000000 		.4byte	0
 4365              		.section	.debug_aranges,"",%progbits
 4366 0000 4C000000 		.4byte	0x4c
 4367 0004 0200     		.2byte	0x2
 4368 0006 00000000 		.4byte	.Ldebug_info0
 4369 000a 04       		.byte	0x4
 4370 000b 00       		.byte	0
 4371 000c 0000     		.2byte	0
 4372 000e 0000     		.2byte	0
 4373 0010 00000000 		.4byte	.LFB138
 4374 0014 04000000 		.4byte	.LFE138-.LFB138
 4375 0018 00000000 		.4byte	.LFB139
 4376 001c 64000000 		.4byte	.LFE139-.LFB139
 4377 0020 00000000 		.4byte	.LFB140
 4378 0024 0C000000 		.4byte	.LFE140-.LFB140
 4379 0028 00000000 		.4byte	.LFB141
 4380 002c AC000000 		.4byte	.LFE141-.LFB141
 4381 0030 00000000 		.4byte	.LFB142
 4382 0034 68000000 		.4byte	.LFE142-.LFB142
ARM GAS  /var/folders/t8/16hdwfmd2fg_d3q6dgx6bpmw0000gn/T//ccDKACFo.s 			page 78


 4383 0038 00000000 		.4byte	.LFB143
 4384 003c 24000000 		.4byte	.LFE143-.LFB143
 4385 0040 00000000 		.4byte	.LFB144
 4386 0044 44000000 		.4byte	.LFE144-.LFB144
 4387 0048 00000000 		.4byte	0
 4388 004c 00000000 		.4byte	0
 4389              		.section	.debug_ranges,"",%progbits
 4390              	.Ldebug_ranges0:
 4391 0000 26000000 		.4byte	.LBB121
 4392 0004 28000000 		.4byte	.LBE121
 4393 0008 2A000000 		.4byte	.LBB122
 4394 000c 2C000000 		.4byte	.LBE122
 4395 0010 00000000 		.4byte	0
 4396 0014 00000000 		.4byte	0
 4397 0018 30000000 		.4byte	.LBB123
 4398 001c 36000000 		.4byte	.LBE123
 4399 0020 38000000 		.4byte	.LBB128
 4400 0024 3C000000 		.4byte	.LBE128
 4401 0028 00000000 		.4byte	0
 4402 002c 00000000 		.4byte	0
 4403 0030 0C000000 		.4byte	.LBB138
 4404 0034 32000000 		.4byte	.LBE138
 4405 0038 58000000 		.4byte	.LBB140
 4406 003c 5A000000 		.4byte	.LBE140
 4407 0040 8C000000 		.4byte	.LBB143
 4408 0044 96000000 		.4byte	.LBE143
 4409 0048 00000000 		.4byte	0
 4410 004c 00000000 		.4byte	0
 4411 0050 36000000 		.4byte	.LBB139
 4412 0054 58000000 		.4byte	.LBE139
 4413 0058 5A000000 		.4byte	.LBB141
 4414 005c 5E000000 		.4byte	.LBE141
 4415 0060 96000000 		.4byte	.LBB144
 4416 0064 A0000000 		.4byte	.LBE144
 4417 0068 00000000 		.4byte	0
 4418 006c 00000000 		.4byte	0
 4419 0070 64000000 		.4byte	.LBB142
 4420 0074 8A000000 		.4byte	.LBE142
 4421 0078 A0000000 		.4byte	.LBB145
 4422 007c AC000000 		.4byte	.LBE145
 4423 0080 00000000 		.4byte	0
 4424 0084 00000000 		.4byte	0
 4425 0088 00000000 		.4byte	.LFB138
 4426 008c 04000000 		.4byte	.LFE138
 4427 0090 00000000 		.4byte	.LFB139
 4428 0094 64000000 		.4byte	.LFE139
 4429 0098 00000000 		.4byte	.LFB140
 4430 009c 0C000000 		.4byte	.LFE140
 4431 00a0 00000000 		.4byte	.LFB141
 4432 00a4 AC000000 		.4byte	.LFE141
 4433 00a8 00000000 		.4byte	.LFB142
 4434 00ac 68000000 		.4byte	.LFE142
 4435 00b0 00000000 		.4byte	.LFB143
 4436 00b4 24000000 		.4byte	.LFE143
 4437 00b8 00000000 		.4byte	.LFB144
 4438 00bc 44000000 		.4byte	.LFE144
 4439 00c0 00000000 		.4byte	0
ARM GAS  /var/folders/t8/16hdwfmd2fg_d3q6dgx6bpmw0000gn/T//ccDKACFo.s 			page 79


 4440 00c4 00000000 		.4byte	0
 4441              		.section	.debug_line,"",%progbits
 4442              	.Ldebug_line0:
 4443 0000 F0050000 		.section	.debug_str,"MS",%progbits,1
 4443      02003704 
 4443      00000201 
 4443      FB0E0D00 
 4443      01010101 
 4444              	.LASF50:
 4445 0000 63685F74 		.ascii	"ch_threads_list\000"
 4445      68726561 
 4445      64735F6C 
 4445      69737400 
 4446              	.LASF108:
 4447 0010 54534930 		.ascii	"TSI0_IRQn\000"
 4447      5F495251 
 4447      6E00
 4448              	.LASF159:
 4449 001a 74696D65 		.ascii	"timesize\000"
 4449      73697A65 
 4449      00
 4450              	.LASF113:
 4451 0023 50494E43 		.ascii	"PINCD_IRQn\000"
 4451      445F4952 
 4451      516E00
 4452              	.LASF225:
 4453 002e 474E5520 		.ascii	"GNU C99 7.2.1 20170904 (release) [ARM/embedded-7-br"
 4453      43393920 
 4453      372E322E 
 4453      31203230 
 4453      31373039 
 4454 0061 616E6368 		.ascii	"anch revision 255204] -mcpu=cortex-m0plus -mno-thum"
 4454      20726576 
 4454      6973696F 
 4454      6E203235 
 4454      35323034 
 4455 0094 622D696E 		.ascii	"b-interwork -mthumb -ggdb -O2 -std=gnu99 -fomit-fra"
 4455      74657277 
 4455      6F726B20 
 4455      2D6D7468 
 4455      756D6220 
 4456 00c7 6D652D70 		.ascii	"me-pointer -falign-functions=16 -ffunction-sections"
 4456      6F696E74 
 4456      6572202D 
 4456      66616C69 
 4456      676E2D66 
 4457 00fa 202D6664 		.ascii	" -fdata-sections -fno-common\000"
 4457      6174612D 
 4457      73656374 
 4457      696F6E73 
 4457      202D666E 
 4458              	.LASF142:
 4459 0117 77746D74 		.ascii	"wtmtxp\000"
 4459      787000
 4460              	.LASF212:
 4461 011e 5F646267 		.ascii	"_dbg_check_unlock\000"
 4461      5F636865 
ARM GAS  /var/folders/t8/16hdwfmd2fg_d3q6dgx6bpmw0000gn/T//ccDKACFo.s 			page 80


 4461      636B5F75 
 4461      6E6C6F63 
 4461      6B00
 4462              	.LASF150:
 4463 0130 77626173 		.ascii	"wbase\000"
 4463      6500
 4464              	.LASF104:
 4465 0136 5049545F 		.ascii	"PIT_IRQn\000"
 4465      4952516E 
 4465      00
 4466              	.LASF176:
 4467 013f 63685379 		.ascii	"chSysTimerHandlerI\000"
 4467      7354696D 
 4467      65724861 
 4467      6E646C65 
 4467      724900
 4468              	.LASF132:
 4469 0152 72656761 		.ascii	"regarm_t\000"
 4469      726D5F74 
 4469      00
 4470              	.LASF84:
 4471 015b 444D4132 		.ascii	"DMA2_IRQn\000"
 4471      5F495251 
 4471      6E00
 4472              	.LASF221:
 4473 0165 5F76745F 		.ascii	"_vt_init\000"
 4473      696E6974 
 4473      00
 4474              	.LASF106:
 4475 016e 5553425F 		.ascii	"USB_OTG_IRQn\000"
 4475      4F54475F 
 4475      4952516E 
 4475      00
 4476              	.LASF38:
 4477 017b 666C6167 		.ascii	"flags\000"
 4477      7300
 4478              	.LASF29:
 4479 0181 73797374 		.ascii	"systime_t\000"
 4479      696D655F 
 4479      7400
 4480              	.LASF179:
 4481 018b 74657374 		.ascii	"testmask\000"
 4481      6D61736B 
 4481      00
 4482              	.LASF45:
 4483 0194 7265616C 		.ascii	"realprio\000"
 4483      7072696F 
 4483      00
 4484              	.LASF207:
 4485 019d 5F5F6765 		.ascii	"__get_PRIMASK\000"
 4485      745F5052 
 4485      494D4153 
 4485      4B00
 4486              	.LASF103:
 4487 01ab 52544331 		.ascii	"RTC1_IRQn\000"
 4487      5F495251 
 4487      6E00
ARM GAS  /var/folders/t8/16hdwfmd2fg_d3q6dgx6bpmw0000gn/T//ccDKACFo.s 			page 81


 4488              	.LASF90:
 4489 01b5 49324330 		.ascii	"I2C0_IRQn\000"
 4489      5F495251 
 4489      6E00
 4490              	.LASF43:
 4491 01bf 6570656E 		.ascii	"epending\000"
 4491      64696E67 
 4491      00
 4492              	.LASF0:
 4493 01c8 756E7369 		.ascii	"unsigned int\000"
 4493      676E6564 
 4493      20696E74 
 4493      00
 4494              	.LASF51:
 4495 01d5 6E657874 		.ascii	"next\000"
 4495      00
 4496              	.LASF157:
 4497 01da 76657273 		.ascii	"version\000"
 4497      696F6E00 
 4498              	.LASF20:
 4499 01e2 73797373 		.ascii	"syssts_t\000"
 4499      74735F74 
 4499      00
 4500              	.LASF48:
 4501 01eb 74687265 		.ascii	"threads_list_t\000"
 4501      6164735F 
 4501      6C697374 
 4501      5F7400
 4502              	.LASF155:
 4503 01fa 7A65726F 		.ascii	"zero\000"
 4503      00
 4504              	.LASF8:
 4505 01ff 5F5F696E 		.ascii	"__int32_t\000"
 4505      7433325F 
 4505      7400
 4506              	.LASF39:
 4507 0209 72656673 		.ascii	"refs\000"
 4507      00
 4508              	.LASF171:
 4509 020e 6F66665F 		.ascii	"off_time\000"
 4509      74696D65 
 4509      00
 4510              	.LASF138:
 4511 0217 77746F62 		.ascii	"wtobjp\000"
 4511      6A7000
 4512              	.LASF197:
 4513 021e 706F7274 		.ascii	"port_lock\000"
 4513      5F6C6F63 
 4513      6B00
 4514              	.LASF74:
 4515 0228 76746C69 		.ascii	"vtlist\000"
 4515      737400
 4516              	.LASF134:
 4517 022f 706F7274 		.ascii	"port_context\000"
 4517      5F636F6E 
 4517      74657874 
 4517      00
ARM GAS  /var/folders/t8/16hdwfmd2fg_d3q6dgx6bpmw0000gn/T//ccDKACFo.s 			page 82


 4518              	.LASF195:
 4519 023c 706F7274 		.ascii	"port_lock_from_isr\000"
 4519      5F6C6F63 
 4519      6B5F6672 
 4519      6F6D5F69 
 4519      737200
 4520              	.LASF196:
 4521 024f 706F7274 		.ascii	"port_unlock\000"
 4521      5F756E6C 
 4521      6F636B00 
 4522              	.LASF56:
 4523 025b 63685F72 		.ascii	"ch_ready_list\000"
 4523      65616479 
 4523      5F6C6973 
 4523      7400
 4524              	.LASF62:
 4525 0269 66756E63 		.ascii	"func\000"
 4525      00
 4526              	.LASF99:
 4527 026e 54504D30 		.ascii	"TPM0_IRQn\000"
 4527      5F495251 
 4527      6E00
 4528              	.LASF143:
 4529 0278 65776D61 		.ascii	"ewmask\000"
 4529      736B00
 4530              	.LASF216:
 4531 027f 5F646267 		.ascii	"_dbg_check_lock_from_isr\000"
 4531      5F636865 
 4531      636B5F6C 
 4531      6F636B5F 
 4531      66726F6D 
 4532              	.LASF54:
 4533 0298 70726576 		.ascii	"prev\000"
 4533      00
 4534              	.LASF53:
 4535 029d 63685F74 		.ascii	"ch_threads_queue\000"
 4535      68726561 
 4535      64735F71 
 4535      75657565 
 4535      00
 4536              	.LASF91:
 4537 02ae 49324331 		.ascii	"I2C1_IRQn\000"
 4537      5F495251 
 4537      6E00
 4538              	.LASF80:
 4539 02b8 50656E64 		.ascii	"PendSV_IRQn\000"
 4539      53565F49 
 4539      52516E00 
 4540              	.LASF163:
 4541 02c4 6F66665F 		.ascii	"off_newer\000"
 4541      6E657765 
 4541      7200
 4542              	.LASF58:
 4543 02ce 76746675 		.ascii	"vtfunc_t\000"
 4543      6E635F74 
 4543      00
 4544              	.LASF67:
ARM GAS  /var/folders/t8/16hdwfmd2fg_d3q6dgx6bpmw0000gn/T//ccDKACFo.s 			page 83


 4545 02d7 63685F73 		.ascii	"ch_system_debug\000"
 4545      79737465 
 4545      6D5F6465 
 4545      62756700 
 4546              	.LASF111:
 4547 02e7 52657365 		.ascii	"Reserved2_IRQn\000"
 4547      72766564 
 4547      325F4952 
 4547      516E00
 4548              	.LASF220:
 4549 02f6 5F736368 		.ascii	"_scheduler_init\000"
 4549      6564756C 
 4549      65725F69 
 4549      6E697400 
 4550              	.LASF18:
 4551 0306 75696E74 		.ascii	"uint32_t\000"
 4551      33325F74 
 4551      00
 4552              	.LASF140:
 4553 030f 73656E74 		.ascii	"sentmsg\000"
 4553      6D736700 
 4554              	.LASF218:
 4555 0317 63685468 		.ascii	"chThdCreate\000"
 4555      64437265 
 4555      61746500 
 4556              	.LASF27:
 4557 0323 6576656E 		.ascii	"eventmask_t\000"
 4557      746D6173 
 4557      6B5F7400 
 4558              	.LASF153:
 4559 032f 74687265 		.ascii	"thread_descriptor_t\000"
 4559      61645F64 
 4559      65736372 
 4559      6970746F 
 4559      725F7400 
 4560              	.LASF115:
 4561 0343 49534552 		.ascii	"ISER\000"
 4561      00
 4562              	.LASF160:
 4563 0348 74687265 		.ascii	"threadsize\000"
 4563      61647369 
 4563      7A6500
 4564              	.LASF144:
 4565 0353 63685F73 		.ascii	"ch_semaphore\000"
 4565      656D6170 
 4565      686F7265 
 4565      00
 4566              	.LASF25:
 4567 0360 74707269 		.ascii	"tprio_t\000"
 4567      6F5F7400 
 4568              	.LASF224:
 4569 0368 5F746872 		.ascii	"_thread_init\000"
 4569      6561645F 
 4569      696E6974 
 4569      00
 4570              	.LASF118:
 4571 0375 52534552 		.ascii	"RSERVED1\000"
ARM GAS  /var/folders/t8/16hdwfmd2fg_d3q6dgx6bpmw0000gn/T//ccDKACFo.s 			page 84


 4571      56454431 
 4571      00
 4572              	.LASF60:
 4573 037e 63685F76 		.ascii	"ch_virtual_timer\000"
 4573      69727475 
 4573      616C5F74 
 4573      696D6572 
 4573      00
 4574              	.LASF93:
 4575 038f 53504931 		.ascii	"SPI1_IRQn\000"
 4575      5F495251 
 4575      6E00
 4576              	.LASF149:
 4577 0399 7466756E 		.ascii	"tfunc_t\000"
 4577      635F7400 
 4578              	.LASF208:
 4579 03a1 72657375 		.ascii	"result\000"
 4579      6C7400
 4580              	.LASF14:
 4581 03a8 6C6F6E67 		.ascii	"long long unsigned int\000"
 4581      206C6F6E 
 4581      6720756E 
 4581      7369676E 
 4581      65642069 
 4582              	.LASF209:
 4583 03bf 5F5F6765 		.ascii	"__get_IPSR\000"
 4583      745F4950 
 4583      535200
 4584              	.LASF198:
 4585 03ca 72656173 		.ascii	"reason\000"
 4585      6F6E00
 4586              	.LASF193:
 4587 03d1 706F7274 		.ascii	"port_disable\000"
 4587      5F646973 
 4587      61626C65 
 4587      00
 4588              	.LASF6:
 4589 03de 5F5F7569 		.ascii	"__uint16_t\000"
 4589      6E743136 
 4589      5F7400
 4590              	.LASF28:
 4591 03e9 636E745F 		.ascii	"cnt_t\000"
 4591      7400
 4592              	.LASF213:
 4593 03ef 5F646267 		.ascii	"_dbg_check_unlock_from_isr\000"
 4593      5F636865 
 4593      636B5F75 
 4593      6E6C6F63 
 4593      6B5F6672 
 4594              	.LASF166:
 4595 040a 6F66665F 		.ascii	"off_stklimit\000"
 4595      73746B6C 
 4595      696D6974 
 4595      00
 4596              	.LASF69:
 4597 0417 6973725F 		.ascii	"isr_cnt\000"
 4597      636E7400 
ARM GAS  /var/folders/t8/16hdwfmd2fg_d3q6dgx6bpmw0000gn/T//ccDKACFo.s 			page 85


 4598              	.LASF187:
 4599 041f 63685379 		.ascii	"chSysUnlock\000"
 4599      73556E6C 
 4599      6F636B00 
 4600              	.LASF146:
 4601 042b 6F776E65 		.ascii	"owner\000"
 4601      7200
 4602              	.LASF52:
 4603 0431 74687265 		.ascii	"threads_queue_t\000"
 4603      6164735F 
 4603      71756575 
 4603      655F7400 
 4604              	.LASF44:
 4605 0441 6D74786C 		.ascii	"mtxlist\000"
 4605      69737400 
 4606              	.LASF64:
 4607 0449 63685F76 		.ascii	"ch_virtual_timers_list\000"
 4607      69727475 
 4607      616C5F74 
 4607      696D6572 
 4607      735F6C69 
 4608              	.LASF30:
 4609 0460 74687265 		.ascii	"thread_t\000"
 4609      61645F74 
 4609      00
 4610              	.LASF114:
 4611 0469 4952516E 		.ascii	"IRQn_Type\000"
 4611      5F547970 
 4611      6500
 4612              	.LASF222:
 4613 0473 5F636F72 		.ascii	"_core_init\000"
 4613      655F696E 
 4613      697400
 4614              	.LASF186:
 4615 047e 63685654 		.ascii	"chVTDoTickI\000"
 4615      446F5469 
 4615      636B4900 
 4616              	.LASF164:
 4617 048a 6F66665F 		.ascii	"off_older\000"
 4617      6F6C6465 
 4617      7200
 4618              	.LASF167:
 4619 0494 6F66665F 		.ascii	"off_state\000"
 4619      73746174 
 4619      6500
 4620              	.LASF2:
 4621 049e 73697A65 		.ascii	"size_t\000"
 4621      5F7400
 4622              	.LASF136:
 4623 04a5 7264796D 		.ascii	"rdymsg\000"
 4623      736700
 4624              	.LASF223:
 4625 04ac 5F686561 		.ascii	"_heap_init\000"
 4625      705F696E 
 4625      697400
 4626              	.LASF210:
 4627 04b7 5F5F6469 		.ascii	"__disable_irq\000"
ARM GAS  /var/folders/t8/16hdwfmd2fg_d3q6dgx6bpmw0000gn/T//ccDKACFo.s 			page 86


 4627      7361626C 
 4627      655F6972 
 4627      7100
 4628              	.LASF125:
 4629 04c5 43505549 		.ascii	"CPUID\000"
 4629      4400
 4630              	.LASF192:
 4631 04cb 706F7274 		.ascii	"port_enable\000"
 4631      5F656E61 
 4631      626C6500 
 4632              	.LASF180:
 4633 04d7 5F426F6F 		.ascii	"_Bool\000"
 4633      6C00
 4634              	.LASF89:
 4635 04dd 4C4C5755 		.ascii	"LLWU_IRQn\000"
 4635      5F495251 
 4635      6E00
 4636              	.LASF95:
 4637 04e7 55415254 		.ascii	"UART1_IRQn\000"
 4637      315F4952 
 4637      516E00
 4638              	.LASF204:
 4639 04f2 7072696F 		.ascii	"priority\000"
 4639      72697479 
 4639      00
 4640              	.LASF145:
 4641 04fb 63685F6D 		.ascii	"ch_mutex\000"
 4641      75746578 
 4641      00
 4642              	.LASF13:
 4643 0504 5F5F7569 		.ascii	"__uint64_t\000"
 4643      6E743634 
 4643      5F7400
 4644              	.LASF112:
 4645 050f 50494E41 		.ascii	"PINA_IRQn\000"
 4645      5F495251 
 4645      6E00
 4646              	.LASF162:
 4647 0519 6F66665F 		.ascii	"off_ctx\000"
 4647      63747800 
 4648              	.LASF214:
 4649 0521 63685363 		.ascii	"chSchRescheduleS\000"
 4649      68526573 
 4649      63686564 
 4649      756C6553 
 4649      00
 4650              	.LASF189:
 4651 0532 63685379 		.ascii	"chSysLock\000"
 4651      734C6F63 
 4651      6B00
 4652              	.LASF201:
 4653 053c 706F7274 		.ascii	"port_init\000"
 4653      5F696E69 
 4653      7400
 4654              	.LASF107:
 4655 0546 44414330 		.ascii	"DAC0_IRQn\000"
 4655      5F495251 
ARM GAS  /var/folders/t8/16hdwfmd2fg_d3q6dgx6bpmw0000gn/T//ccDKACFo.s 			page 87


 4655      6E00
 4656              	.LASF168:
 4657 0550 6F66665F 		.ascii	"off_flags\000"
 4657      666C6167 
 4657      7300
 4658              	.LASF83:
 4659 055a 444D4131 		.ascii	"DMA1_IRQn\000"
 4659      5F495251 
 4659      6E00
 4660              	.LASF32:
 4661 0564 7072696F 		.ascii	"prio\000"
 4661      00
 4662              	.LASF86:
 4663 0569 52657365 		.ascii	"Reserved0_IRQn\000"
 4663      72766564 
 4663      305F4952 
 4663      516E00
 4664              	.LASF147:
 4665 0578 63686172 		.ascii	"char\000"
 4665      00
 4666              	.LASF181:
 4667 057d 63685379 		.ascii	"chSysInit\000"
 4667      73496E69 
 4667      7400
 4668              	.LASF101:
 4669 0587 54504D32 		.ascii	"TPM2_IRQn\000"
 4669      5F495251 
 4669      6E00
 4670              	.LASF183:
 4671 0591 69646C65 		.ascii	"idle_descriptor\000"
 4671      5F646573 
 4671      63726970 
 4671      746F7200 
 4672              	.LASF47:
 4673 05a1 74687265 		.ascii	"thread_reference_t\000"
 4673      61645F72 
 4673      65666572 
 4673      656E6365 
 4673      5F7400
 4674              	.LASF102:
 4675 05b4 52544330 		.ascii	"RTC0_IRQn\000"
 4675      5F495251 
 4675      6E00
 4676              	.LASF36:
 4677 05be 77616261 		.ascii	"wabase\000"
 4677      736500
 4678              	.LASF148:
 4679 05c5 63685F69 		.ascii	"ch_idle_thread_wa\000"
 4679      646C655F 
 4679      74687265 
 4679      61645F77 
 4679      6100
 4680              	.LASF126:
 4681 05d7 49435352 		.ascii	"ICSR\000"
 4681      00
 4682              	.LASF105:
 4683 05dc 49325330 		.ascii	"I2S0_IRQn\000"
ARM GAS  /var/folders/t8/16hdwfmd2fg_d3q6dgx6bpmw0000gn/T//ccDKACFo.s 			page 88


 4683      5F495251 
 4683      6E00
 4684              	.LASF22:
 4685 05e6 74737461 		.ascii	"tstate_t\000"
 4685      74655F74 
 4685      00
 4686              	.LASF128:
 4687 05ef 41495243 		.ascii	"AIRCR\000"
 4687      5200
 4688              	.LASF199:
 4689 05f5 706F7274 		.ascii	"port_is_isr_context\000"
 4689      5F69735F 
 4689      6973725F 
 4689      636F6E74 
 4689      65787400 
 4690              	.LASF15:
 4691 0609 75696E74 		.ascii	"uint8_t\000"
 4691      385F7400 
 4692              	.LASF42:
 4693 0611 6D736771 		.ascii	"msgqueue\000"
 4693      75657565 
 4693      00
 4694              	.LASF175:
 4695 061a 63685379 		.ascii	"chSysRestoreStatusX\000"
 4695      73526573 
 4695      746F7265 
 4695      53746174 
 4695      75735800 
 4696              	.LASF182:
 4697 062e 5F5F6D61 		.ascii	"__main_thread_stack_base__\000"
 4697      696E5F74 
 4697      68726561 
 4697      645F7374 
 4697      61636B5F 
 4698              	.LASF49:
 4699 0649 63685F74 		.ascii	"ch_thread\000"
 4699      68726561 
 4699      6400
 4700              	.LASF165:
 4701 0653 6F66665F 		.ascii	"off_name\000"
 4701      6E616D65 
 4701      00
 4702              	.LASF66:
 4703 065c 73797374 		.ascii	"system_debug_t\000"
 4703      656D5F64 
 4703      65627567 
 4703      5F7400
 4704              	.LASF215:
 4705 066b 5F646267 		.ascii	"_dbg_check_lock\000"
 4705      5F636865 
 4705      636B5F6C 
 4705      6F636B00 
 4706              	.LASF151:
 4707 067b 77656E64 		.ascii	"wend\000"
 4707      00
 4708              	.LASF12:
 4709 0680 6C6F6E67 		.ascii	"long long int\000"
ARM GAS  /var/folders/t8/16hdwfmd2fg_d3q6dgx6bpmw0000gn/T//ccDKACFo.s 			page 89


 4709      206C6F6E 
 4709      6720696E 
 4709      7400
 4710              	.LASF130:
 4711 068e 53484353 		.ascii	"SHCSR\000"
 4711      5200
 4712              	.LASF110:
 4713 0694 4C50544D 		.ascii	"LPTMR0_IRQn\000"
 4713      52305F49 
 4713      52516E00 
 4714              	.LASF26:
 4715 06a0 6D73675F 		.ascii	"msg_t\000"
 4715      7400
 4716              	.LASF219:
 4717 06a6 5F646267 		.ascii	"_dbg_check_enable\000"
 4717      5F636865 
 4717      636B5F65 
 4717      6E61626C 
 4717      6500
 4718              	.LASF59:
 4719 06b8 76697274 		.ascii	"virtual_timer_t\000"
 4719      75616C5F 
 4719      74696D65 
 4719      725F7400 
 4720              	.LASF156:
 4721 06c8 73697A65 		.ascii	"size\000"
 4721      00
 4722              	.LASF158:
 4723 06cd 70747273 		.ascii	"ptrsize\000"
 4723      697A6500 
 4724              	.LASF202:
 4725 06d5 4E564943 		.ascii	"NVIC_SetPriority\000"
 4725      5F536574 
 4725      5072696F 
 4725      72697479 
 4725      00
 4726              	.LASF217:
 4727 06e6 63684462 		.ascii	"chDbgCheckClassI\000"
 4727      67436865 
 4727      636B436C 
 4727      61737349 
 4727      00
 4728              	.LASF85:
 4729 06f7 444D4133 		.ascii	"DMA3_IRQn\000"
 4729      5F495251 
 4729      6E00
 4730              	.LASF24:
 4731 0701 74736C69 		.ascii	"tslices_t\000"
 4731      6365735F 
 4731      7400
 4732              	.LASF227:
 4733 070b 2F557365 		.ascii	"/Users/jpablobr/tmp/tmk/di0ib-tmk_keyboard/keyboard"
 4733      72732F6A 
 4733      7061626C 
 4733      6F62722F 
 4733      746D702F 
 4734 073e 2F746565 		.ascii	"/teensy_lc_menelaus\000"
ARM GAS  /var/folders/t8/16hdwfmd2fg_d3q6dgx6bpmw0000gn/T//ccDKACFo.s 			page 90


 4734      6E73795F 
 4734      6C635F6D 
 4734      656E656C 
 4734      61757300 
 4735              	.LASF121:
 4736 0752 49435052 		.ascii	"ICPR\000"
 4736      00
 4737              	.LASF92:
 4738 0757 53504930 		.ascii	"SPI0_IRQn\000"
 4738      5F495251 
 4738      6E00
 4739              	.LASF68:
 4740 0761 70616E69 		.ascii	"panic_msg\000"
 4740      635F6D73 
 4740      6700
 4741              	.LASF21:
 4742 076b 746D6F64 		.ascii	"tmode_t\000"
 4742      655F7400 
 4743              	.LASF65:
 4744 0773 73797374 		.ascii	"systime\000"
 4744      696D6500 
 4745              	.LASF75:
 4746 077b 6D61696E 		.ascii	"mainthread\000"
 4746      74687265 
 4746      616400
 4747              	.LASF16:
 4748 0786 75696E74 		.ascii	"uint16_t\000"
 4748      31365F74 
 4748      00
 4749              	.LASF203:
 4750 078f 4952516E 		.ascii	"IRQn\000"
 4750      00
 4751              	.LASF172:
 4752 0794 63686465 		.ascii	"chdebug_t\000"
 4752      6275675F 
 4752      7400
 4753              	.LASF161:
 4754 079e 6F66665F 		.ascii	"off_prio\000"
 4754      7072696F 
 4754      00
 4755              	.LASF70:
 4756 07a7 6C6F636B 		.ascii	"lock_cnt\000"
 4756      5F636E74 
 4756      00
 4757              	.LASF116:
 4758 07b0 52455345 		.ascii	"RESERVED0\000"
 4758      52564544 
 4758      3000
 4759              	.LASF129:
 4760 07ba 52455345 		.ascii	"RESERVED1\000"
 4760      52564544 
 4760      3100
 4761              	.LASF120:
 4762 07c4 52455345 		.ascii	"RESERVED2\000"
 4762      52564544 
 4762      3200
 4763              	.LASF122:
ARM GAS  /var/folders/t8/16hdwfmd2fg_d3q6dgx6bpmw0000gn/T//ccDKACFo.s 			page 91


 4764 07ce 52455345 		.ascii	"RESERVED3\000"
 4764      52564544 
 4764      3300
 4765              	.LASF123:
 4766 07d8 52455345 		.ascii	"RESERVED4\000"
 4766      52564544 
 4766      3400
 4767              	.LASF5:
 4768 07e2 73686F72 		.ascii	"short int\000"
 4768      7420696E 
 4768      7400
 4769              	.LASF190:
 4770 07ec 63685379 		.ascii	"chSysEnable\000"
 4770      73456E61 
 4770      626C6500 
 4771              	.LASF9:
 4772 07f8 6C6F6E67 		.ascii	"long int\000"
 4772      20696E74 
 4772      00
 4773              	.LASF135:
 4774 0801 706F7274 		.ascii	"port_intctx\000"
 4774      5F696E74 
 4774      63747800 
 4775              	.LASF40:
 4776 080d 70726565 		.ascii	"preempt\000"
 4776      6D707400 
 4777              	.LASF77:
 4778 0815 4E6F6E4D 		.ascii	"NonMaskableInt_IRQn\000"
 4778      61736B61 
 4778      626C6549 
 4778      6E745F49 
 4778      52516E00 
 4779              	.LASF211:
 4780 0829 5F5F656E 		.ascii	"__enable_irq\000"
 4780      61626C65 
 4780      5F697271 
 4780      00
 4781              	.LASF191:
 4782 0836 706F7274 		.ascii	"port_wait_for_interrupt\000"
 4782      5F776169 
 4782      745F666F 
 4782      725F696E 
 4782      74657272 
 4783              	.LASF72:
 4784 084e 63685F73 		.ascii	"ch_system\000"
 4784      79737465 
 4784      6D00
 4785              	.LASF94:
 4786 0858 55415254 		.ascii	"UART0_IRQn\000"
 4786      305F4952 
 4786      516E00
 4787              	.LASF226:
 4788 0863 2E2E2F2E 		.ascii	"../../tmk_core/tool/chibios/ChibiOS/os/rt/src/chsys"
 4788      2E2F746D 
 4788      6B5F636F 
 4788      72652F74 
 4788      6F6F6C2F 
ARM GAS  /var/folders/t8/16hdwfmd2fg_d3q6dgx6bpmw0000gn/T//ccDKACFo.s 			page 92


 4789 0896 2E6300   		.ascii	".c\000"
 4790              	.LASF19:
 4791 0899 75696E74 		.ascii	"uint64_t\000"
 4791      36345F74 
 4791      00
 4792              	.LASF73:
 4793 08a2 726C6973 		.ascii	"rlist\000"
 4793      7400
 4794              	.LASF177:
 4795 08a8 63685379 		.ascii	"chSysGetStatusAndLockX\000"
 4795      73476574 
 4795      53746174 
 4795      7573416E 
 4795      644C6F63 
 4796              	.LASF109:
 4797 08bf 4D43475F 		.ascii	"MCG_IRQn\000"
 4797      4952516E 
 4797      00
 4798              	.LASF3:
 4799 08c8 5F5F7569 		.ascii	"__uint8_t\000"
 4799      6E74385F 
 4799      7400
 4800              	.LASF200:
 4801 08d2 706F7274 		.ascii	"port_get_irq_status\000"
 4801      5F676574 
 4801      5F697271 
 4801      5F737461 
 4801      74757300 
 4802              	.LASF124:
 4803 08e6 4E564943 		.ascii	"NVIC_Type\000"
 4803      5F547970 
 4803      6500
 4804              	.LASF131:
 4805 08f0 5343425F 		.ascii	"SCB_Type\000"
 4805      54797065 
 4805      00
 4806              	.LASF35:
 4807 08f9 6E616D65 		.ascii	"name\000"
 4807      00
 4808              	.LASF82:
 4809 08fe 444D4130 		.ascii	"DMA0_IRQn\000"
 4809      5F495251 
 4809      6E00
 4810              	.LASF97:
 4811 0908 41444330 		.ascii	"ADC0_IRQn\000"
 4811      5F495251 
 4811      6E00
 4812              	.LASF127:
 4813 0912 56544F52 		.ascii	"VTOR\000"
 4813      00
 4814              	.LASF170:
 4815 0917 6F66665F 		.ascii	"off_preempt\000"
 4815      70726565 
 4815      6D707400 
 4816              	.LASF100:
 4817 0923 54504D31 		.ascii	"TPM1_IRQn\000"
 4817      5F495251 
ARM GAS  /var/folders/t8/16hdwfmd2fg_d3q6dgx6bpmw0000gn/T//ccDKACFo.s 			page 93


 4817      6E00
 4818              	.LASF81:
 4819 092d 53797354 		.ascii	"SysTick_IRQn\000"
 4819      69636B5F 
 4819      4952516E 
 4819      00
 4820              	.LASF154:
 4821 093a 6964656E 		.ascii	"identifier\000"
 4821      74696669 
 4821      657200
 4822              	.LASF23:
 4823 0945 74726566 		.ascii	"trefs_t\000"
 4823      735F7400 
 4824              	.LASF11:
 4825 094d 6C6F6E67 		.ascii	"long unsigned int\000"
 4825      20756E73 
 4825      69676E65 
 4825      6420696E 
 4825      7400
 4826              	.LASF55:
 4827 095f 72656164 		.ascii	"ready_list_t\000"
 4827      795F6C69 
 4827      73745F74 
 4827      00
 4828              	.LASF31:
 4829 096c 71756575 		.ascii	"queue\000"
 4829      6500
 4830              	.LASF17:
 4831 0972 696E7433 		.ascii	"int32_t\000"
 4831      325F7400 
 4832              	.LASF174:
 4833 097a 6D757465 		.ascii	"mutex_t\000"
 4833      785F7400 
 4834              	.LASF33:
 4835 0982 6E657765 		.ascii	"newer\000"
 4835      7200
 4836              	.LASF205:
 4837 0988 5F5F5746 		.ascii	"__WFI\000"
 4837      4900
 4838              	.LASF98:
 4839 098e 434D5030 		.ascii	"CMP0_IRQn\000"
 4839      5F495251 
 4839      6E00
 4840              	.LASF194:
 4841 0998 706F7274 		.ascii	"port_unlock_from_isr\000"
 4841      5F756E6C 
 4841      6F636B5F 
 4841      66726F6D 
 4841      5F697372 
 4842              	.LASF4:
 4843 09ad 756E7369 		.ascii	"unsigned char\000"
 4843      676E6564 
 4843      20636861 
 4843      7200
 4844              	.LASF10:
 4845 09bb 5F5F7569 		.ascii	"__uint32_t\000"
 4845      6E743332 
ARM GAS  /var/folders/t8/16hdwfmd2fg_d3q6dgx6bpmw0000gn/T//ccDKACFo.s 			page 94


 4845      5F7400
 4846              	.LASF41:
 4847 09c6 77616974 		.ascii	"waiting\000"
 4847      696E6700 
 4848              	.LASF152:
 4849 09ce 66756E63 		.ascii	"funcp\000"
 4849      7000
 4850              	.LASF63:
 4851 09d4 76697274 		.ascii	"virtual_timers_list_t\000"
 4851      75616C5F 
 4851      74696D65 
 4851      72735F6C 
 4851      6973745F 
 4852              	.LASF79:
 4853 09ea 53564361 		.ascii	"SVCall_IRQn\000"
 4853      6C6C5F49 
 4853      52516E00 
 4854              	.LASF206:
 4855 09f6 706F7274 		.ascii	"port_irq_enabled\000"
 4855      5F697271 
 4855      5F656E61 
 4855      626C6564 
 4855      00
 4856              	.LASF185:
 4857 0a07 63685379 		.ascii	"chSysLockFromISR\000"
 4857      734C6F63 
 4857      6B46726F 
 4857      6D495352 
 4857      00
 4858              	.LASF117:
 4859 0a18 49434552 		.ascii	"ICER\000"
 4859      00
 4860              	.LASF37:
 4861 0a1d 73746174 		.ascii	"state\000"
 4861      6500
 4862              	.LASF228:
 4863 0a23 63685379 		.ascii	"chSysHalt\000"
 4863      7348616C 
 4863      7400
 4864              	.LASF96:
 4865 0a2d 55415254 		.ascii	"UART2_IRQn\000"
 4865      325F4952 
 4865      516E00
 4866              	.LASF71:
 4867 0a38 63685F73 		.ascii	"ch_system_t\000"
 4867      79737465 
 4867      6D5F7400 
 4868              	.LASF76:
 4869 0a44 52657365 		.ascii	"Reset_IRQn\000"
 4869      745F4952 
 4869      516E00
 4870              	.LASF139:
 4871 0a4f 77747472 		.ascii	"wttrp\000"
 4871      7000
 4872              	.LASF1:
 4873 0a55 7369676E 		.ascii	"signed char\000"
 4873      65642063 
ARM GAS  /var/folders/t8/16hdwfmd2fg_d3q6dgx6bpmw0000gn/T//ccDKACFo.s 			page 95


 4873      68617200 
 4874              	.LASF61:
 4875 0a61 64656C74 		.ascii	"delta\000"
 4875      6100
 4876              	.LASF7:
 4877 0a67 73686F72 		.ascii	"short unsigned int\000"
 4877      7420756E 
 4877      7369676E 
 4877      65642069 
 4877      6E7400
 4878              	.LASF133:
 4879 0a7a 73746B61 		.ascii	"stkalign_t\000"
 4879      6C69676E 
 4879      5F7400
 4880              	.LASF169:
 4881 0a85 6F66665F 		.ascii	"off_refs\000"
 4881      72656673 
 4881      00
 4882              	.LASF178:
 4883 0a8e 63685379 		.ascii	"chSysIntegrityCheckI\000"
 4883      73496E74 
 4883      65677269 
 4883      74794368 
 4883      65636B49 
 4884              	.LASF78:
 4885 0aa3 48617264 		.ascii	"HardFault_IRQn\000"
 4885      4661756C 
 4885      745F4952 
 4885      516E00
 4886              	.LASF57:
 4887 0ab2 63757272 		.ascii	"current\000"
 4887      656E7400 
 4888              	.LASF188:
 4889 0aba 5F5F6675 		.ascii	"__func__\000"
 4889      6E635F5F 
 4889      00
 4890              	.LASF119:
 4891 0ac3 49535052 		.ascii	"ISPR\000"
 4891      00
 4892              	.LASF173:
 4893 0ac8 63685F64 		.ascii	"ch_debug\000"
 4893      65627567 
 4893      00
 4894              	.LASF184:
 4895 0ad1 63685379 		.ascii	"chSysUnlockFromISR\000"
 4895      73556E6C 
 4895      6F636B46 
 4895      726F6D49 
 4895      535200
 4896              	.LASF88:
 4897 0ae4 504D435F 		.ascii	"PMC_IRQn\000"
 4897      4952516E 
 4897      00
 4898              	.LASF229:
 4899 0aed 5F69646C 		.ascii	"_idle_thread\000"
 4899      655F7468 
 4899      72656164 
ARM GAS  /var/folders/t8/16hdwfmd2fg_d3q6dgx6bpmw0000gn/T//ccDKACFo.s 			page 96


 4899      00
 4900              	.LASF141:
 4901 0afa 77747365 		.ascii	"wtsemp\000"
 4901      6D7000
 4902              	.LASF34:
 4903 0b01 6F6C6465 		.ascii	"older\000"
 4903      7200
 4904              	.LASF137:
 4905 0b07 65786974 		.ascii	"exitcode\000"
 4905      636F6465 
 4905      00
 4906              	.LASF46:
 4907 0b10 6D706F6F 		.ascii	"mpool\000"
 4907      6C00
 4908              	.LASF87:
 4909 0b16 46544641 		.ascii	"FTFA_IRQn\000"
 4909      5F495251 
 4909      6E00
 4910              		.ident	"GCC: (GNU Tools for Arm Embedded Processors 7-2017-q4-major) 7.2.1 20170904 (release) [ARM
ARM GAS  /var/folders/t8/16hdwfmd2fg_d3q6dgx6bpmw0000gn/T//ccDKACFo.s 			page 97


DEFINED SYMBOLS
                            *ABS*:0000000000000000 chsys.c
/var/folders/t8/16hdwfmd2fg_d3q6dgx6bpmw0000gn/T//ccDKACFo.s:16     .text._idle_thread:0000000000000000 $t
/var/folders/t8/16hdwfmd2fg_d3q6dgx6bpmw0000gn/T//ccDKACFo.s:23     .text._idle_thread:0000000000000000 _idle_thread
/var/folders/t8/16hdwfmd2fg_d3q6dgx6bpmw0000gn/T//ccDKACFo.s:53     .text.chSysInit:0000000000000000 $t
/var/folders/t8/16hdwfmd2fg_d3q6dgx6bpmw0000gn/T//ccDKACFo.s:61     .text.chSysInit:0000000000000000 chSysInit
/var/folders/t8/16hdwfmd2fg_d3q6dgx6bpmw0000gn/T//ccDKACFo.s:166    .text.chSysInit:000000000000004c $d
/var/folders/t8/16hdwfmd2fg_d3q6dgx6bpmw0000gn/T//ccDKACFo.s:176    .text.chSysHalt:0000000000000000 $t
/var/folders/t8/16hdwfmd2fg_d3q6dgx6bpmw0000gn/T//ccDKACFo.s:184    .text.chSysHalt:0000000000000000 chSysHalt
/var/folders/t8/16hdwfmd2fg_d3q6dgx6bpmw0000gn/T//ccDKACFo.s:214    .text.chSysHalt:0000000000000008 $d
/var/folders/t8/16hdwfmd2fg_d3q6dgx6bpmw0000gn/T//ccDKACFo.s:219    .text.chSysIntegrityCheckI:0000000000000000 $t
/var/folders/t8/16hdwfmd2fg_d3q6dgx6bpmw0000gn/T//ccDKACFo.s:227    .text.chSysIntegrityCheckI:0000000000000000 chSysIntegrityCheckI
/var/folders/t8/16hdwfmd2fg_d3q6dgx6bpmw0000gn/T//ccDKACFo.s:439    .text.chSysIntegrityCheckI:00000000000000a8 $d
/var/folders/t8/16hdwfmd2fg_d3q6dgx6bpmw0000gn/T//ccDKACFo.s:445    .text.chSysTimerHandlerI:0000000000000000 $t
/var/folders/t8/16hdwfmd2fg_d3q6dgx6bpmw0000gn/T//ccDKACFo.s:453    .text.chSysTimerHandlerI:0000000000000000 chSysTimerHandlerI
/var/folders/t8/16hdwfmd2fg_d3q6dgx6bpmw0000gn/T//ccDKACFo.s:595    .text.chSysTimerHandlerI:0000000000000064 $d
/var/folders/t8/16hdwfmd2fg_d3q6dgx6bpmw0000gn/T//ccDKACFo.s:600    .text.chSysGetStatusAndLockX:0000000000000000 $t
/var/folders/t8/16hdwfmd2fg_d3q6dgx6bpmw0000gn/T//ccDKACFo.s:608    .text.chSysGetStatusAndLockX:0000000000000000 chSysGetStatusAndLockX
/var/folders/t8/16hdwfmd2fg_d3q6dgx6bpmw0000gn/T//ccDKACFo.s:707    .text.chSysRestoreStatusX:0000000000000000 $t
/var/folders/t8/16hdwfmd2fg_d3q6dgx6bpmw0000gn/T//ccDKACFo.s:715    .text.chSysRestoreStatusX:0000000000000000 chSysRestoreStatusX
/var/folders/t8/16hdwfmd2fg_d3q6dgx6bpmw0000gn/T//ccDKACFo.s:832    .text.chSysRestoreStatusX:000000000000003c $d
/var/folders/t8/16hdwfmd2fg_d3q6dgx6bpmw0000gn/T//ccDKACFo.s:848    .bss.ch_idle_thread_wa:0000000000000000 ch_idle_thread_wa
/var/folders/t8/16hdwfmd2fg_d3q6dgx6bpmw0000gn/T//ccDKACFo.s:845    .bss.ch_idle_thread_wa:0000000000000000 $d
/var/folders/t8/16hdwfmd2fg_d3q6dgx6bpmw0000gn/T//ccDKACFo.s:851    .rodata.__func__.5043:0000000000000000 $d
/var/folders/t8/16hdwfmd2fg_d3q6dgx6bpmw0000gn/T//ccDKACFo.s:855    .rodata.__func__.5043:0000000000000000 __func__.5043
/var/folders/t8/16hdwfmd2fg_d3q6dgx6bpmw0000gn/T//ccDKACFo.s:858    .rodata.idle_descriptor.5724:0000000000000000 $d
/var/folders/t8/16hdwfmd2fg_d3q6dgx6bpmw0000gn/T//ccDKACFo.s:862    .rodata.idle_descriptor.5724:0000000000000000 idle_descriptor.5724
/var/folders/t8/16hdwfmd2fg_d3q6dgx6bpmw0000gn/T//ccDKACFo.s:870    .rodata.str1.4:0000000000000000 $d

UNDEFINED SYMBOLS
_scheduler_init
_vt_init
_core_init
_heap_init
_thread_init
_dbg_check_enable
chThdCreate
ch
ch_debug
__main_thread_stack_base__
chDbgCheckClassI
_dbg_check_unlock_from_isr
_dbg_check_lock_from_isr
_dbg_check_lock
chSchRescheduleS
_dbg_check_unlock
