ARM GAS  /var/folders/t8/16hdwfmd2fg_d3q6dgx6bpmw0000gn/T//ccDKACFo.s 			page 1


   1              		.cpu cortex-m0plus
   2              		.eabi_attribute 20, 1
   3              		.eabi_attribute 21, 1
   4              		.eabi_attribute 23, 3
   5              		.eabi_attribute 24, 1
   6              		.eabi_attribute 25, 1
   7              		.eabi_attribute 26, 1
   8              		.eabi_attribute 30, 2
   9              		.eabi_attribute 34, 0
  10              		.eabi_attribute 18, 4
  11              		.file	"chsys.c"
  12              		.text
  13              	.Ltext0:
  14              		.cfi_sections	.debug_frame
  15              		.section	.text._idle_thread,"ax",%progbits
  16              		.align	1
  17              		.p2align 4,,15
  18              		.syntax unified
  19              		.code	16
  20              		.thumb_func
  21              		.fpu softvfp
  22              		.type	_idle_thread, %function
  23              	_idle_thread:
  24              	.LFB138:
  25              		.file 1 "../../tmk_core/tool/chibios/ChibiOS/os/rt/src/chsys.c"
  26              		.loc 1 72 0
  27              		.cfi_startproc
  28              		@ Volatile: function does not return.
  29              		@ args = 0, pretend = 0, frame = 0
  30              		@ frame_needed = 0, uses_anonymous_args = 0
  31              		@ link register save eliminated.
  32              	.LVL0:
  33              	.L2:
  34              	.LBB118:
  35              	.LBB119:
  36              	.LBB120:
  37              		.file 2 "../../tmk_core/tool/chibios/ChibiOS/os/common/ext/CMSIS/include/cmsis_gcc.h"
  38              		.loc 2 385 0 discriminator 1
  39              		.syntax divided
  40              	@ 385 "../../tmk_core/tool/chibios/ChibiOS/os/common/ext/CMSIS/include/cmsis_gcc.h" 1
  41 0000 30BF     		wfi
  42              	@ 0 "" 2
  43              		.thumb
  44              		.syntax unified
  45 0002 FDE7     		b	.L2
  46              	.LBE120:
  47              	.LBE119:
  48              	.LBE118:
  49              		.cfi_endproc
  50              	.LFE138:
  51              		.size	_idle_thread, .-_idle_thread
  52              		.section	.text.chSysInit,"ax",%progbits
  53              		.align	1
  54              		.p2align 4,,15
  55              		.global	chSysInit
  56              		.syntax unified
  57              		.code	16
ARM GAS  /var/folders/t8/16hdwfmd2fg_d3q6dgx6bpmw0000gn/T//ccDKACFo.s 			page 2


  58              		.thumb_func
  59              		.fpu softvfp
  60              		.type	chSysInit, %function
  61              	chSysInit:
  62              	.LFB139:
  63              		.loc 1 100 0
  64              		.cfi_startproc
  65              		@ args = 0, pretend = 0, frame = 0
  66              		@ frame_needed = 0, uses_anonymous_args = 0
  67 0000 10B5     		push	{r4, lr}
  68              		.cfi_def_cfa_offset 8
  69              		.cfi_offset 4, -8
  70              		.cfi_offset 14, -4
  71              		.loc 1 102 0
  72 0002 FFF7FEFF 		bl	_scheduler_init
  73              	.LVL1:
  74              		.loc 1 103 0
  75 0006 FFF7FEFF 		bl	_vt_init
  76              	.LVL2:
  77              		.loc 1 107 0
  78 000a 0023     		movs	r3, #0
  79 000c 0F4C     		ldr	r4, .L5
  80 000e 2363     		str	r3, [r4, #48]
  81              		.loc 1 108 0
  82 0010 6363     		str	r3, [r4, #52]
  83              		.loc 1 114 0
  84 0012 FFF7FEFF 		bl	_core_init
  85              	.LVL3:
  86              		.loc 1 117 0
  87 0016 FFF7FEFF 		bl	_heap_init
  88              	.LVL4:
  89              		.loc 1 126 0
  90 001a 2000     		movs	r0, r4
  91 001c 8022     		movs	r2, #128
  92 001e 0C49     		ldr	r1, .L5+4
  93 0020 3830     		adds	r0, r0, #56
  94 0022 FFF7FEFF 		bl	_thread_init
  95              	.LVL5:
  96              	.LBB121:
  97              		.loc 1 140 0
  98 0026 0B4B     		ldr	r3, .L5+8
  99              	.LBE121:
 100              		.loc 1 147 0
 101 0028 0122     		movs	r2, #1
 102              	.LBB122:
 103              		.loc 1 140 0
 104 002a C361     		str	r3, [r0, #28]
 105              	.LBE122:
 106              		.loc 1 147 0
 107 002c 2023     		movs	r3, #32
 108 002e C254     		strb	r2, [r0, r3]
 109              	.LVL6:
 110              	.LBB123:
 111              	.LBB124:
 112              	.LBB125:
 113              		.file 3 "../../tmk_core/tool/chibios/ChibiOS/os/common/ext/CMSIS/include/core_cm0plus.h"
 114              		.loc 3 808 0
ARM GAS  /var/folders/t8/16hdwfmd2fg_d3q6dgx6bpmw0000gn/T//ccDKACFo.s 			page 3


 115 0030 094A     		ldr	r2, .L5+12
 116 0032 0A49     		ldr	r1, .L5+16
 117 0034 136A     		ldr	r3, [r2, #32]
 118              	.LBE125:
 119              	.LBE124:
 120              	.LBE123:
 121              		.loc 1 126 0
 122 0036 A061     		str	r0, [r4, #24]
 123              	.LBB128:
 124              	.LBB127:
 125              	.LBB126:
 126              		.loc 3 808 0
 127 0038 0B40     		ands	r3, r1
 128 003a 1362     		str	r3, [r2, #32]
 129              	.LVL7:
 130              	.LBE126:
 131              	.LBE127:
 132              	.LBE128:
 133              	.LBB129:
 134              	.LBB130:
 135              		.file 4 "../../tmk_core/tool/chibios/ChibiOS/os/rt/include/chsys.h"
 136              		.loc 4 365 0
 137 003c FFF7FEFF 		bl	_dbg_check_enable
 138              	.LVL8:
 139              	.LBB131:
 140              	.LBB132:
 141              	.LBB133:
 142              		.loc 2 60 0
 143              		.syntax divided
 144              	@ 60 "../../tmk_core/tool/chibios/ChibiOS/os/common/ext/CMSIS/include/cmsis_gcc.h" 1
 145 0040 62B6     		cpsie i
 146              	@ 0 "" 2
 147              		.thumb
 148              		.syntax unified
 149              	.LBE133:
 150              	.LBE132:
 151              	.LBE131:
 152              	.LBE130:
 153              	.LBE129:
 154              	.LBB134:
 155              		.loc 1 175 0
 156 0042 0748     		ldr	r0, .L5+20
 157 0044 FFF7FEFF 		bl	chThdCreate
 158              	.LVL9:
 159              	.LBE134:
 160              		.loc 1 178 0
 161              		@ sp needed
 162 0048 10BD     		pop	{r4, pc}
 163              	.L6:
 164 004a C046     		.align	2
 165              	.L5:
 166 004c 00000000 		.word	ch
 167 0050 00000000 		.word	ch_debug
 168 0054 00000000 		.word	__main_thread_stack_base__
 169 0058 00ED00E0 		.word	-536810240
 170 005c FFFF00FF 		.word	-16711681
 171 0060 00000000 		.word	.LANCHOR0
ARM GAS  /var/folders/t8/16hdwfmd2fg_d3q6dgx6bpmw0000gn/T//ccDKACFo.s 			page 4


 172              		.cfi_endproc
 173              	.LFE139:
 174              		.size	chSysInit, .-chSysInit
 175              		.section	.text.chSysHalt,"ax",%progbits
 176              		.align	1
 177              		.p2align 4,,15
 178              		.global	chSysHalt
 179              		.syntax unified
 180              		.code	16
 181              		.thumb_func
 182              		.fpu softvfp
 183              		.type	chSysHalt, %function
 184              	chSysHalt:
 185              	.LFB140:
 186              		.loc 1 192 0
 187              		.cfi_startproc
 188              		@ Volatile: function does not return.
 189              		@ args = 0, pretend = 0, frame = 0
 190              		@ frame_needed = 0, uses_anonymous_args = 0
 191              		@ link register save eliminated.
 192              	.LVL10:
 193              	.LBB135:
 194              	.LBB136:
 195              	.LBB137:
 196              		.loc 2 71 0
 197              		.syntax divided
 198              	@ 71 "../../tmk_core/tool/chibios/ChibiOS/os/common/ext/CMSIS/include/cmsis_gcc.h" 1
 199 0000 72B6     		cpsid i
 200              	@ 0 "" 2
 201              		.thumb
 202              		.syntax unified
 203              	.LBE137:
 204              	.LBE136:
 205              	.LBE135:
 206              		.loc 1 200 0
 207 0002 014B     		ldr	r3, .L9
 208 0004 D862     		str	r0, [r3, #44]
 209              	.L8:
 210 0006 FEE7     		b	.L8
 211              	.L10:
 212              		.align	2
 213              	.L9:
 214 0008 00000000 		.word	ch
 215              		.cfi_endproc
 216              	.LFE140:
 217              		.size	chSysHalt, .-chSysHalt
 218              		.section	.text.chSysIntegrityCheckI,"ax",%progbits
 219              		.align	1
 220              		.p2align 4,,15
 221              		.global	chSysIntegrityCheckI
 222              		.syntax unified
 223              		.code	16
 224              		.thumb_func
 225              		.fpu softvfp
 226              		.type	chSysIntegrityCheckI, %function
 227              	chSysIntegrityCheckI:
 228              	.LFB141:
ARM GAS  /var/folders/t8/16hdwfmd2fg_d3q6dgx6bpmw0000gn/T//ccDKACFo.s 			page 5


 229              		.loc 1 234 0
 230              		.cfi_startproc
 231              		@ args = 0, pretend = 0, frame = 0
 232              		@ frame_needed = 0, uses_anonymous_args = 0
 233              	.LVL11:
 234 0000 10B5     		push	{r4, lr}
 235              		.cfi_def_cfa_offset 8
 236              		.cfi_offset 4, -8
 237              		.cfi_offset 14, -4
 238              		.loc 1 234 0
 239 0002 0400     		movs	r4, r0
 240              		.loc 1 237 0
 241 0004 FFF7FEFF 		bl	chDbgCheckClassI
 242              	.LVL12:
 243              		.loc 1 240 0
 244 0008 E307     		lsls	r3, r4, #31
 245 000a 12D5     		bpl	.L12
 246              	.LVL13:
 247              	.LBB138:
 248              		.loc 1 245 0
 249 000c 264B     		ldr	r3, .L55
 250              		.loc 1 244 0
 251 000e 0022     		movs	r2, #0
 252              		.loc 1 245 0
 253 0010 1968     		ldr	r1, [r3]
 254              	.LVL14:
 255 0012 5868     		ldr	r0, [r3, #4]
 256              		.loc 1 246 0
 257 0014 9942     		cmp	r1, r3
 258 0016 39D0     		beq	.L13
 259              	.LVL15:
 260              	.L14:
 261              		.loc 1 248 0
 262 0018 0968     		ldr	r1, [r1]
 263              	.LVL16:
 264              		.loc 1 247 0
 265 001a 0132     		adds	r2, r2, #1
 266              	.LVL17:
 267              		.loc 1 246 0
 268 001c 9942     		cmp	r1, r3
 269 001e FBD1     		bne	.L14
 270              	.LVL18:
 271              		.loc 1 253 0
 272 0020 8842     		cmp	r0, r1
 273 0022 36D0     		beq	.L38
 274              	.LVL19:
 275              	.L18:
 276              		.loc 1 255 0
 277 0024 4068     		ldr	r0, [r0, #4]
 278              	.LVL20:
 279              		.loc 1 254 0
 280 0026 013A     		subs	r2, r2, #1
 281              	.LVL21:
 282              		.loc 1 253 0
 283 0028 9842     		cmp	r0, r3
 284 002a FBD1     		bne	.L18
 285              		.loc 1 260 0
ARM GAS  /var/folders/t8/16hdwfmd2fg_d3q6dgx6bpmw0000gn/T//ccDKACFo.s 			page 6


 286 002c 0120     		movs	r0, #1
 287              	.LVL22:
 288              		.loc 1 259 0
 289 002e 002A     		cmp	r2, #0
 290 0030 2BD1     		bne	.L17
 291              	.LVL23:
 292              	.L12:
 293              	.LBE138:
 294              		.loc 1 265 0
 295 0032 A307     		lsls	r3, r4, #30
 296 0034 13D5     		bpl	.L19
 297              	.LVL24:
 298              	.LBB139:
 299              		.loc 1 270 0
 300 0036 1C49     		ldr	r1, .L55
 301 0038 CA69     		ldr	r2, [r1, #28]
 302              	.LVL25:
 303 003a 086A     		ldr	r0, [r1, #32]
 304              		.loc 1 271 0
 305 003c 1C31     		adds	r1, r1, #28
 306 003e 8A42     		cmp	r2, r1
 307 0040 29D0     		beq	.L20
 308              		.loc 1 269 0
 309 0042 0023     		movs	r3, #0
 310              	.LVL26:
 311              	.L21:
 312              		.loc 1 273 0
 313 0044 1268     		ldr	r2, [r2]
 314              	.LVL27:
 315              		.loc 1 272 0
 316 0046 0133     		adds	r3, r3, #1
 317              	.LVL28:
 318              		.loc 1 271 0
 319 0048 8A42     		cmp	r2, r1
 320 004a FBD1     		bne	.L21
 321              	.LVL29:
 322              		.loc 1 278 0
 323 004c 9042     		cmp	r0, r2
 324 004e 20D0     		beq	.L38
 325              	.LVL30:
 326              	.L24:
 327              		.loc 1 280 0
 328 0050 4068     		ldr	r0, [r0, #4]
 329              	.LVL31:
 330              		.loc 1 279 0
 331 0052 013B     		subs	r3, r3, #1
 332              	.LVL32:
 333              		.loc 1 278 0
 334 0054 8842     		cmp	r0, r1
 335 0056 FBD1     		bne	.L24
 336              	.LBE139:
 337              	.LBB140:
 338              		.loc 1 260 0
 339 0058 0120     		movs	r0, #1
 340              	.LVL33:
 341              	.LBE140:
 342              	.LBB141:
ARM GAS  /var/folders/t8/16hdwfmd2fg_d3q6dgx6bpmw0000gn/T//ccDKACFo.s 			page 7


 343              		.loc 1 284 0
 344 005a 002B     		cmp	r3, #0
 345 005c 15D1     		bne	.L17
 346              	.LVL34:
 347              	.L19:
 348              	.LBE141:
 349              		.loc 1 321 0
 350 005e 0020     		movs	r0, #0
 351              		.loc 1 290 0
 352 0060 6307     		lsls	r3, r4, #29
 353 0062 12D5     		bpl	.L17
 354              	.LVL35:
 355              	.LBB142:
 356              		.loc 1 295 0
 357 0064 104B     		ldr	r3, .L55
 358              		.loc 1 294 0
 359 0066 0022     		movs	r2, #0
 360              		.loc 1 295 0
 361 0068 1969     		ldr	r1, [r3, #16]
 362              	.LVL36:
 363 006a 5C69     		ldr	r4, [r3, #20]
 364              	.LVL37:
 365              		.loc 1 296 0
 366 006c 9942     		cmp	r1, r3
 367 006e 17D0     		beq	.L25
 368              	.LVL38:
 369              	.L26:
 370              		.loc 1 298 0
 371 0070 0969     		ldr	r1, [r1, #16]
 372              	.LVL39:
 373              		.loc 1 297 0
 374 0072 0132     		adds	r2, r2, #1
 375              	.LVL40:
 376              		.loc 1 296 0
 377 0074 9942     		cmp	r1, r3
 378 0076 FBD1     		bne	.L26
 379              	.LVL41:
 380              		.loc 1 303 0
 381 0078 8C42     		cmp	r4, r1
 382 007a 0AD0     		beq	.L38
 383              	.LVL42:
 384              	.L29:
 385              		.loc 1 305 0
 386 007c 6469     		ldr	r4, [r4, #20]
 387              	.LVL43:
 388              		.loc 1 304 0
 389 007e 013A     		subs	r2, r2, #1
 390              	.LVL44:
 391              		.loc 1 303 0
 392 0080 9C42     		cmp	r4, r3
 393 0082 FBD1     		bne	.L29
 394              		.loc 1 309 0
 395 0084 501E     		subs	r0, r2, #1
 396 0086 8241     		sbcs	r2, r2, r0
 397              	.LVL45:
 398 0088 D0B2     		uxtb	r0, r2
 399              	.LVL46:
ARM GAS  /var/folders/t8/16hdwfmd2fg_d3q6dgx6bpmw0000gn/T//ccDKACFo.s 			page 8


 400              	.L17:
 401              	.LBE142:
 402              		.loc 1 322 0
 403              		@ sp needed
 404 008a 10BD     		pop	{r4, pc}
 405              	.LVL47:
 406              	.L13:
 407              	.LBB143:
 408              		.loc 1 253 0
 409 008c 9842     		cmp	r0, r3
 410 008e C9D1     		bne	.L18
 411 0090 CFE7     		b	.L12
 412              	.LVL48:
 413              	.L38:
 414              		.loc 1 260 0
 415 0092 0120     		movs	r0, #1
 416 0094 F9E7     		b	.L17
 417              	.LVL49:
 418              	.L20:
 419              	.LBE143:
 420              	.LBB144:
 421              		.loc 1 278 0
 422 0096 9042     		cmp	r0, r2
 423 0098 E1D0     		beq	.L19
 424              		.loc 1 269 0
 425 009a 0023     		movs	r3, #0
 426 009c 1100     		movs	r1, r2
 427 009e D7E7     		b	.L24
 428              	.LVL50:
 429              	.L25:
 430              	.LBE144:
 431              	.LBB145:
 432              		.loc 1 303 0
 433 00a0 8C42     		cmp	r4, r1
 434 00a2 EBD1     		bne	.L29
 435 00a4 F1E7     		b	.L17
 436              	.L56:
 437 00a6 C046     		.align	2
 438              	.L55:
 439 00a8 00000000 		.word	ch
 440              	.LBE145:
 441              		.cfi_endproc
 442              	.LFE141:
 443              		.size	chSysIntegrityCheckI, .-chSysIntegrityCheckI
 444              		.section	.text.chSysTimerHandlerI,"ax",%progbits
 445              		.align	1
 446              		.p2align 4,,15
 447              		.global	chSysTimerHandlerI
 448              		.syntax unified
 449              		.code	16
 450              		.thumb_func
 451              		.fpu softvfp
 452              		.type	chSysTimerHandlerI, %function
 453              	chSysTimerHandlerI:
 454              	.LFB142:
 455              		.loc 1 335 0
 456              		.cfi_startproc
ARM GAS  /var/folders/t8/16hdwfmd2fg_d3q6dgx6bpmw0000gn/T//ccDKACFo.s 			page 9


 457              		@ args = 0, pretend = 0, frame = 0
 458              		@ frame_needed = 0, uses_anonymous_args = 0
 459 0000 F0B5     		push	{r4, r5, r6, r7, lr}
 460              		.cfi_def_cfa_offset 20
 461              		.cfi_offset 4, -20
 462              		.cfi_offset 5, -16
 463              		.cfi_offset 6, -12
 464              		.cfi_offset 7, -8
 465              		.cfi_offset 14, -4
 466 0002 C646     		mov	lr, r8
 467 0004 00B5     		push	{lr}
 468              		.cfi_def_cfa_offset 24
 469              		.cfi_offset 8, -24
 470              		.loc 1 337 0
 471 0006 FFF7FEFF 		bl	chDbgCheckClassI
 472              	.LVL51:
 473              		.loc 1 341 0
 474 000a 2322     		movs	r2, #35
 475 000c 154D     		ldr	r5, .L66
 476 000e A969     		ldr	r1, [r5, #24]
 477 0010 8B5C     		ldrb	r3, [r1, r2]
 478 0012 002B     		cmp	r3, #0
 479 0014 01D0     		beq	.L58
 480              		.loc 1 343 0
 481 0016 013B     		subs	r3, r3, #1
 482 0018 8B54     		strb	r3, [r1, r2]
 483              	.L58:
 484              	.LBB161:
 485              	.LBB162:
 486              		.file 5 "../../tmk_core/tool/chibios/ChibiOS/os/rt/include/chvt.h"
 487              		.loc 5 508 0
 488 001a 2F00     		movs	r7, r5
 489              		.loc 5 504 0
 490 001c FFF7FEFF 		bl	chDbgCheckClassI
 491              	.LVL52:
 492              		.loc 5 507 0
 493 0020 AB6A     		ldr	r3, [r5, #40]
 494              		.loc 5 508 0
 495 0022 EC69     		ldr	r4, [r5, #28]
 496              		.loc 5 507 0
 497 0024 0133     		adds	r3, r3, #1
 498              		.loc 5 508 0
 499 0026 1C37     		adds	r7, r7, #28
 500              		.loc 5 507 0
 501 0028 AB62     		str	r3, [r5, #40]
 502              		.loc 5 508 0
 503 002a BC42     		cmp	r4, r7
 504 002c 17D0     		beq	.L57
 505              		.loc 5 510 0
 506 002e A368     		ldr	r3, [r4, #8]
 507 0030 013B     		subs	r3, r3, #1
 508 0032 A360     		str	r3, [r4, #8]
 509              		.loc 5 511 0
 510 0034 002B     		cmp	r3, #0
 511 0036 12D1     		bne	.L57
 512              	.LBB163:
 513              		.loc 5 517 0
ARM GAS  /var/folders/t8/16hdwfmd2fg_d3q6dgx6bpmw0000gn/T//ccDKACFo.s 			page 10


 514 0038 9846     		mov	r8, r3
 515              	.L60:
 516              	.LVL53:
 517 003a 4346     		mov	r3, r8
 518              		.loc 5 516 0
 519 003c E668     		ldr	r6, [r4, #12]
 520              	.LVL54:
 521              		.loc 5 517 0
 522 003e E360     		str	r3, [r4, #12]
 523              		.loc 5 518 0
 524 0040 2368     		ldr	r3, [r4]
 525 0042 5F60     		str	r7, [r3, #4]
 526              		.loc 5 519 0
 527 0044 EB61     		str	r3, [r5, #28]
 528              	.LBB164:
 529              	.LBB165:
 530              		.loc 4 436 0
 531 0046 FFF7FEFF 		bl	_dbg_check_unlock_from_isr
 532              	.LVL55:
 533              	.LBB166:
 534              	.LBB167:
 535              	.LBB168:
 536              	.LBB169:
 537              		.loc 2 60 0
 538              		.syntax divided
 539              	@ 60 "../../tmk_core/tool/chibios/ChibiOS/os/common/ext/CMSIS/include/cmsis_gcc.h" 1
 540 004a 62B6     		cpsie i
 541              	@ 0 "" 2
 542              		.thumb
 543              		.syntax unified
 544              	.LBE169:
 545              	.LBE168:
 546              	.LBE167:
 547              	.LBE166:
 548              	.LBE165:
 549              	.LBE164:
 550              		.loc 5 521 0
 551 004c 2069     		ldr	r0, [r4, #16]
 552 004e B047     		blx	r6
 553              	.LVL56:
 554              	.LBB170:
 555              	.LBB171:
 556              	.LBB172:
 557              	.LBB173:
 558              	.LBB174:
 559              	.LBB175:
 560              		.loc 2 71 0
 561              		.syntax divided
 562              	@ 71 "../../tmk_core/tool/chibios/ChibiOS/os/common/ext/CMSIS/include/cmsis_gcc.h" 1
 563 0050 72B6     		cpsid i
 564              	@ 0 "" 2
 565              		.thumb
 566              		.syntax unified
 567              	.LBE175:
 568              	.LBE174:
 569              	.LBE173:
 570              	.LBE172:
ARM GAS  /var/folders/t8/16hdwfmd2fg_d3q6dgx6bpmw0000gn/T//ccDKACFo.s 			page 11


 571              		.loc 4 418 0
 572 0052 FFF7FEFF 		bl	_dbg_check_lock_from_isr
 573              	.LVL57:
 574              	.LBE171:
 575              	.LBE170:
 576              	.LBE163:
 577              		.loc 5 511 0
 578 0056 EC69     		ldr	r4, [r5, #28]
 579              	.LVL58:
 580 0058 A368     		ldr	r3, [r4, #8]
 581 005a 002B     		cmp	r3, #0
 582 005c EDD0     		beq	.L60
 583              	.LVL59:
 584              	.L57:
 585              	.LBE162:
 586              	.LBE161:
 587              		.loc 1 351 0
 588              		@ sp needed
 589 005e 04BC     		pop	{r2}
 590 0060 9046     		mov	r8, r2
 591 0062 F0BD     		pop	{r4, r5, r6, r7, pc}
 592              	.L67:
 593              		.align	2
 594              	.L66:
 595 0064 00000000 		.word	ch
 596              		.cfi_endproc
 597              	.LFE142:
 598              		.size	chSysTimerHandlerI, .-chSysTimerHandlerI
 599              		.section	.text.chSysGetStatusAndLockX,"ax",%progbits
 600              		.align	1
 601              		.p2align 4,,15
 602              		.global	chSysGetStatusAndLockX
 603              		.syntax unified
 604              		.code	16
 605              		.thumb_func
 606              		.fpu softvfp
 607              		.type	chSysGetStatusAndLockX, %function
 608              	chSysGetStatusAndLockX:
 609              	.LFB143:
 610              		.loc 1 366 0
 611              		.cfi_startproc
 612              		@ args = 0, pretend = 0, frame = 0
 613              		@ frame_needed = 0, uses_anonymous_args = 0
 614 0000 10B5     		push	{r4, lr}
 615              		.cfi_def_cfa_offset 8
 616              		.cfi_offset 4, -8
 617              		.cfi_offset 14, -4
 618              	.LBB176:
 619              	.LBB177:
 620              	.LBB178:
 621              		.loc 2 203 0
 622              		.syntax divided
 623              	@ 203 "../../tmk_core/tool/chibios/ChibiOS/os/common/ext/CMSIS/include/cmsis_gcc.h" 1
 624 0002 EFF31084 		MRS r4, primask
 625              	@ 0 "" 2
 626              		.thumb
 627              		.syntax unified
ARM GAS  /var/folders/t8/16hdwfmd2fg_d3q6dgx6bpmw0000gn/T//ccDKACFo.s 			page 12


 628              	.LBE178:
 629              	.LBE177:
 630              	.LBE176:
 631              		.loc 1 369 0
 632 0006 E307     		lsls	r3, r4, #31
 633 0008 06D4     		bmi	.L68
 634              	.LBB179:
 635              	.LBB180:
 636              	.LBB181:
 637              	.LBB182:
 638              		.loc 2 109 0
 639              		.syntax divided
 640              	@ 109 "../../tmk_core/tool/chibios/ChibiOS/os/common/ext/CMSIS/include/cmsis_gcc.h" 1
 641 000a EFF30583 		MRS r3, ipsr
 642              	@ 0 "" 2
 643              		.thumb
 644              		.syntax unified
 645              	.LBE182:
 646              	.LBE181:
 647              		.file 6 "../../tmk_core/tool/chibios/ChibiOS/os/common/ports/ARMCMx/chcore_v6m.h"
 648              		.loc 6 364 0
 649 000e DB05     		lsls	r3, r3, #23
 650              	.LBE180:
 651              	.LBE179:
 652              		.loc 1 370 0
 653 0010 04D1     		bne	.L71
 654              	.LBB183:
 655              	.LBB184:
 656              	.LBB185:
 657              	.LBB186:
 658              	.LBB187:
 659              		.loc 2 71 0
 660              		.syntax divided
 661              	@ 71 "../../tmk_core/tool/chibios/ChibiOS/os/common/ext/CMSIS/include/cmsis_gcc.h" 1
 662 0012 72B6     		cpsid i
 663              	@ 0 "" 2
 664              		.thumb
 665              		.syntax unified
 666              	.LBE187:
 667              	.LBE186:
 668              	.LBE185:
 669              		.loc 4 378 0
 670 0014 FFF7FEFF 		bl	_dbg_check_lock
 671              	.LVL60:
 672              	.L68:
 673              	.LBE184:
 674              	.LBE183:
 675              		.loc 1 378 0
 676 0018 2000     		movs	r0, r4
 677              		@ sp needed
 678 001a 10BD     		pop	{r4, pc}
 679              	.L71:
 680              	.LBB188:
 681              	.LBB189:
 682              	.LBB190:
 683              	.LBB191:
 684              	.LBB192:
ARM GAS  /var/folders/t8/16hdwfmd2fg_d3q6dgx6bpmw0000gn/T//ccDKACFo.s 			page 13


 685              	.LBB193:
 686              		.loc 2 71 0
 687              		.syntax divided
 688              	@ 71 "../../tmk_core/tool/chibios/ChibiOS/os/common/ext/CMSIS/include/cmsis_gcc.h" 1
 689 001c 72B6     		cpsid i
 690              	@ 0 "" 2
 691              		.thumb
 692              		.syntax unified
 693              	.LBE193:
 694              	.LBE192:
 695              	.LBE191:
 696              	.LBE190:
 697              		.loc 4 418 0
 698 001e FFF7FEFF 		bl	_dbg_check_lock_from_isr
 699              	.LVL61:
 700 0022 F9E7     		b	.L68
 701              	.LBE189:
 702              	.LBE188:
 703              		.cfi_endproc
 704              	.LFE143:
 705              		.size	chSysGetStatusAndLockX, .-chSysGetStatusAndLockX
 706              		.section	.text.chSysRestoreStatusX,"ax",%progbits
 707              		.align	1
 708              		.p2align 4,,15
 709              		.global	chSysRestoreStatusX
 710              		.syntax unified
 711              		.code	16
 712              		.thumb_func
 713              		.fpu softvfp
 714              		.type	chSysRestoreStatusX, %function
 715              	chSysRestoreStatusX:
 716              	.LFB144:
 717              		.loc 1 389 0
 718              		.cfi_startproc
 719              		@ args = 0, pretend = 0, frame = 0
 720              		@ frame_needed = 0, uses_anonymous_args = 0
 721              	.LVL62:
 722 0000 10B5     		push	{r4, lr}
 723              		.cfi_def_cfa_offset 8
 724              		.cfi_offset 4, -8
 725              		.cfi_offset 14, -4
 726              		.loc 1 391 0
 727 0002 C307     		lsls	r3, r0, #31
 728 0004 15D4     		bmi	.L72
 729              	.LBB216:
 730              	.LBB217:
 731              	.LBB218:
 732              	.LBB219:
 733              		.loc 2 109 0
 734              		.syntax divided
 735              	@ 109 "../../tmk_core/tool/chibios/ChibiOS/os/common/ext/CMSIS/include/cmsis_gcc.h" 1
 736 0006 EFF30583 		MRS r3, ipsr
 737              	@ 0 "" 2
 738              		.thumb
 739              		.syntax unified
 740              	.LBE219:
 741              	.LBE218:
ARM GAS  /var/folders/t8/16hdwfmd2fg_d3q6dgx6bpmw0000gn/T//ccDKACFo.s 			page 14


 742              		.loc 6 364 0
 743 000a DB05     		lsls	r3, r3, #23
 744              	.LBE217:
 745              	.LBE216:
 746              		.loc 1 392 0
 747 000c 12D1     		bne	.L77
 748              		.loc 1 396 0
 749 000e FFF7FEFF 		bl	chSchRescheduleS
 750              	.LVL63:
 751              	.LBB220:
 752              	.LBB221:
 753              		.loc 4 388 0
 754 0012 FFF7FEFF 		bl	_dbg_check_unlock
 755              	.LVL64:
 756              		.loc 4 395 0
 757 0016 094B     		ldr	r3, .L78
 758 0018 1A68     		ldr	r2, [r3]
 759 001a 9A42     		cmp	r2, r3
 760 001c 08D0     		beq	.L75
 761 001e 9969     		ldr	r1, [r3, #24]
 762 0020 9268     		ldr	r2, [r2, #8]
 763 0022 8968     		ldr	r1, [r1, #8]
 764 0024 9142     		cmp	r1, r2
 765 0026 03D2     		bcs	.L75
 766              	.LVL65:
 767              	.LBB222:
 768              	.LBB223:
 769              	.LBB224:
 770              	.LBB225:
 771              	.LBB226:
 772              		.loc 2 71 0
 773              		.syntax divided
 774              	@ 71 "../../tmk_core/tool/chibios/ChibiOS/os/common/ext/CMSIS/include/cmsis_gcc.h" 1
 775 0028 72B6     		cpsid i
 776              	@ 0 "" 2
 777              		.thumb
 778              		.syntax unified
 779              	.LBE226:
 780              	.LBE225:
 781              	.LBE224:
 782              		.loc 1 200 0
 783 002a 054A     		ldr	r2, .L78+4
 784 002c DA62     		str	r2, [r3, #44]
 785              	.L76:
 786 002e FEE7     		b	.L76
 787              	.LVL66:
 788              	.L75:
 789              	.LBE223:
 790              	.LBE222:
 791              	.LBB227:
 792              	.LBB228:
 793              	.LBB229:
 794              		.loc 2 60 0
 795              		.syntax divided
 796              	@ 60 "../../tmk_core/tool/chibios/ChibiOS/os/common/ext/CMSIS/include/cmsis_gcc.h" 1
 797 0030 62B6     		cpsie i
 798              	@ 0 "" 2
ARM GAS  /var/folders/t8/16hdwfmd2fg_d3q6dgx6bpmw0000gn/T//ccDKACFo.s 			page 15


 799              		.thumb
 800              		.syntax unified
 801              	.L72:
 802              	.LBE229:
 803              	.LBE228:
 804              	.LBE227:
 805              	.LBE221:
 806              	.LBE220:
 807              		.loc 1 400 0
 808              		@ sp needed
 809 0032 10BD     		pop	{r4, pc}
 810              	.LVL67:
 811              	.L77:
 812              	.LBB230:
 813              	.LBB231:
 814              		.loc 4 436 0
 815 0034 FFF7FEFF 		bl	_dbg_check_unlock_from_isr
 816              	.LVL68:
 817              	.LBB232:
 818              	.LBB233:
 819              	.LBB234:
 820              	.LBB235:
 821              		.loc 2 60 0
 822              		.syntax divided
 823              	@ 60 "../../tmk_core/tool/chibios/ChibiOS/os/common/ext/CMSIS/include/cmsis_gcc.h" 1
 824 0038 62B6     		cpsie i
 825              	@ 0 "" 2
 826              		.thumb
 827              		.syntax unified
 828 003a FAE7     		b	.L72
 829              	.L79:
 830              		.align	2
 831              	.L78:
 832 003c 00000000 		.word	ch
 833 0040 00000000 		.word	.LANCHOR1
 834              	.LBE235:
 835              	.LBE234:
 836              	.LBE233:
 837              	.LBE232:
 838              	.LBE231:
 839              	.LBE230:
 840              		.cfi_endproc
 841              	.LFE144:
 842              		.size	chSysRestoreStatusX, .-chSysRestoreStatusX
 843              		.global	ch_idle_thread_wa
 844              		.section	.bss.ch_idle_thread_wa,"aw",%nobits
 845              		.align	3
 846              		.type	ch_idle_thread_wa, %object
 847              		.size	ch_idle_thread_wa, 216
 848              	ch_idle_thread_wa:
 849 0000 00000000 		.space	216
 849      00000000 
 849      00000000 
 849      00000000 
 849      00000000 
 850              		.section	.rodata.__func__.5043,"a",%progbits
 851              		.align	2
ARM GAS  /var/folders/t8/16hdwfmd2fg_d3q6dgx6bpmw0000gn/T//ccDKACFo.s 			page 16


 852              		.set	.LANCHOR1,. + 0
 853              		.type	__func__.5043, %object
 854              		.size	__func__.5043, 12
 855              	__func__.5043:
 856 0000 63685379 		.ascii	"chSysUnlock\000"
 856      73556E6C 
 856      6F636B00 
 857              		.section	.rodata.idle_descriptor.5724,"a",%progbits
 858              		.align	2
 859              		.set	.LANCHOR0,. + 0
 860              		.type	idle_descriptor.5724, %object
 861              		.size	idle_descriptor.5724, 24
 862              	idle_descriptor.5724:
 863 0000 00000000 		.word	.LC12
 864 0004 00000000 		.word	ch_idle_thread_wa
 865 0008 D8000000 		.word	ch_idle_thread_wa+216
 866 000c 01000000 		.word	1
 867 0010 00000000 		.word	_idle_thread
 868 0014 00000000 		.word	0
 869              		.section	.rodata.str1.4,"aMS",%progbits,1
 870              		.align	2
 871              	.LC12:
 872 0000 69646C65 		.ascii	"idle\000"
 872      00
 873              		.text
 874              	.Letext0:
 875              		.file 7 "/usr/local/Caskroom/gcc-arm-embedded/7-2017-q4-major/gcc-arm-none-eabi-7-2017-q4-major/li
 876              		.file 8 "/usr/local/Caskroom/gcc-arm-embedded/7-2017-q4-major/gcc-arm-none-eabi-7-2017-q4-major/ar
 877              		.file 9 "/usr/local/Caskroom/gcc-arm-embedded/7-2017-q4-major/gcc-arm-none-eabi-7-2017-q4-major/ar
 878              		.file 10 "../../tmk_core/tool/chibios/ChibiOS/os/common/ports/ARMCMx/compilers/GCC/chtypes.h"
 879              		.file 11 "../../tmk_core/tool/chibios/ChibiOS/os/rt/include/chsystypes.h"
 880              		.file 12 "../../tmk_core/tool/chibios/ChibiOS/os/rt/include/chschd.h"
 881              		.file 13 "../../tmk_core/tool/chibios/ChibiOS-Contrib/os/common/ext/CMSIS/KINETIS/kl26z.h"
 882              		.file 14 "../../tmk_core/tool/chibios/ChibiOS/os/common/ports/ARMCMx/chcore.h"
 883              		.file 15 "../../tmk_core/tool/chibios/ChibiOS/os/rt/include/chsem.h"
 884              		.file 16 "../../tmk_core/tool/chibios/ChibiOS/os/rt/include/chmtx.h"
 885              		.file 17 "../../tmk_core/tool/chibios/ChibiOS/os/rt/include/chthreads.h"
 886              		.file 18 "../../tmk_core/tool/chibios/ChibiOS/os/rt/include/chregistry.h"
 887              		.file 19 "../../tmk_core/tool/chibios/ChibiOS/os/rt/include/chdebug.h"
 888              		.file 20 "../../tmk_core/tool/chibios/ChibiOS/os/common/oslib/include/chmemcore.h"
 889              		.file 21 "../../tmk_core/tool/chibios/ChibiOS/os/common/oslib/include/chheap.h"