ARM GAS  /var/folders/t8/16hdwfmd2fg_d3q6dgx6bpmw0000gn/T//ccWsgl5d.s 			page 1


   1              		.cpu cortex-m0plus
   2              		.eabi_attribute 20, 1
   3              		.eabi_attribute 21, 1
   4              		.eabi_attribute 23, 3
   5              		.eabi_attribute 24, 1
   6              		.eabi_attribute 25, 1
   7              		.eabi_attribute 26, 1
   8              		.eabi_attribute 30, 2
   9              		.eabi_attribute 34, 0
  10              		.eabi_attribute 18, 4
  11              		.file	"chthreads.c"
  12              		.text
  13              	.Ltext0:
  14              		.cfi_sections	.debug_frame
  15              		.section	.text._thread_init,"ax",%progbits
  16              		.align	1
  17              		.p2align 4,,15
  18              		.global	_thread_init
  19              		.syntax unified
  20              		.code	16
  21              		.thumb_func
  22              		.fpu softvfp
  23              		.type	_thread_init, %function
  24              	_thread_init:
  25              	.LFB138:
  26              		.file 1 "../../tmk_core/tool/chibios/ChibiOS/os/rt/src/chthreads.c"
  27              		.loc 1 88 0
  28              		.cfi_startproc
  29              		@ args = 0, pretend = 0, frame = 0
  30              		@ frame_needed = 0, uses_anonymous_args = 0
  31              		@ link register save eliminated.
  32              	.LVL0:
  33              		.loc 1 98 0
  34 0000 0023     		movs	r3, #0
  35 0002 8363     		str	r3, [r0, #56]
  36              		.loc 1 101 0
  37 0004 4363     		str	r3, [r0, #52]
  38              		.loc 1 91 0
  39 0006 094B     		ldr	r3, .L3
  40              		.loc 1 90 0
  41 0008 8260     		str	r2, [r0, #8]
  42              		.loc 1 91 0
  43 000a 0362     		str	r3, [r0, #32]
  44              		.loc 1 109 0
  45 000c 084B     		ldr	r3, .L3+4
  46              		.loc 1 97 0
  47 000e C263     		str	r2, [r0, #60]
  48              		.loc 1 109 0
  49 0010 5A69     		ldr	r2, [r3, #20]
  50              	.LVL1:
  51 0012 0361     		str	r3, [r0, #16]
  52 0014 4261     		str	r2, [r0, #20]
  53              		.loc 1 108 0
  54 0016 8161     		str	r1, [r0, #24]
  55              		.loc 1 109 0
  56 0018 1061     		str	r0, [r2, #16]
  57 001a 5861     		str	r0, [r3, #20]
ARM GAS  /var/folders/t8/16hdwfmd2fg_d3q6dgx6bpmw0000gn/T//ccWsgl5d.s 			page 2


  58              	.LVL2:
  59              		.loc 1 114 0
  60 001c 0300     		movs	r3, r0
  61 001e 2833     		adds	r3, r3, #40
  62              	.LVL3:
  63              	.LBB154:
  64              	.LBB155:
  65              		.file 2 "../../tmk_core/tool/chibios/ChibiOS/os/rt/include/chschd.h"
  66              		.loc 2 512 0
  67 0020 8362     		str	r3, [r0, #40]
  68              	.LVL4:
  69              	.LBE155:
  70              	.LBE154:
  71              		.loc 1 117 0
  72 0022 0433     		adds	r3, r3, #4
  73              	.LVL5:
  74              	.LBB156:
  75              	.LBB157:
  76              		.loc 2 550 0
  77 0024 C362     		str	r3, [r0, #44]
  78              		.loc 2 551 0
  79 0026 0363     		str	r3, [r0, #48]
  80              	.LVL6:
  81              	.LBE157:
  82              	.LBE156:
  83              		.loc 1 124 0
  84              		@ sp needed
  85 0028 7047     		bx	lr
  86              	.L4:
  87 002a C046     		.align	2
  88              	.L3:
  89 002c 02000114 		.word	335609858
  90 0030 00000000 		.word	ch
  91              		.cfi_endproc
  92              	.LFE138:
  93              		.size	_thread_init, .-_thread_init
  94              		.section	.text._thread_memfill,"ax",%progbits
  95              		.align	1
  96              		.p2align 4,,15
  97              		.global	_thread_memfill
  98              		.syntax unified
  99              		.code	16
 100              		.thumb_func
 101              		.fpu softvfp
 102              		.type	_thread_memfill, %function
 103              	_thread_memfill:
 104              	.LFB139:
 105              		.loc 1 136 0
 106              		.cfi_startproc
 107              		@ args = 0, pretend = 0, frame = 0
 108              		@ frame_needed = 0, uses_anonymous_args = 0
 109              		@ link register save eliminated.
 110              	.LVL7:
 111              		.loc 1 138 0
 112 0000 8842     		cmp	r0, r1
 113 0002 03D2     		bcs	.L5
 114              	.LVL8:
ARM GAS  /var/folders/t8/16hdwfmd2fg_d3q6dgx6bpmw0000gn/T//ccWsgl5d.s 			page 3


 115              	.L7:
 116              		.loc 1 139 0
 117 0004 0270     		strb	r2, [r0]
 118 0006 0130     		adds	r0, r0, #1
 119              	.LVL9:
 120              		.loc 1 138 0
 121 0008 8142     		cmp	r1, r0
 122 000a FBD1     		bne	.L7
 123              	.LVL10:
 124              	.L5:
 125              		.loc 1 141 0
 126              		@ sp needed
 127 000c 7047     		bx	lr
 128              		.cfi_endproc
 129              	.LFE139:
 130              		.size	_thread_memfill, .-_thread_memfill
 131 000e C046     		.section	.text.chThdCreateSuspendedI,"ax",%progbits
 132              		.align	1
 133              		.p2align 4,,15
 134              		.global	chThdCreateSuspendedI
 135              		.syntax unified
 136              		.code	16
 137              		.thumb_func
 138              		.fpu softvfp
 139              		.type	chThdCreateSuspendedI, %function
 140              	chThdCreateSuspendedI:
 141              	.LFB140:
 142              		.loc 1 167 0
 143              		.cfi_startproc
 144              		@ args = 0, pretend = 0, frame = 0
 145              		@ frame_needed = 0, uses_anonymous_args = 0
 146              	.LVL11:
 147 0000 70B5     		push	{r4, r5, r6, lr}
 148              		.cfi_def_cfa_offset 16
 149              		.cfi_offset 4, -16
 150              		.cfi_offset 5, -12
 151              		.cfi_offset 6, -8
 152              		.cfi_offset 14, -4
 153              		.loc 1 167 0
 154 0002 0400     		movs	r4, r0
 155              		.loc 1 170 0
 156 0004 FFF7FEFF 		bl	chDbgCheckClassI
 157              	.LVL12:
 158              		.loc 1 171 0
 159 0008 002C     		cmp	r4, #0
 160 000a 47D0     		beq	.L15
 161              	.L10:
 162              		.loc 1 172 0 discriminator 1
 163 000c 0723     		movs	r3, #7
 164 000e 6268     		ldr	r2, [r4, #4]
 165 0010 1A42     		tst	r2, r3
 166 0012 02D1     		bne	.L11
 167              		.loc 1 172 0 is_stmt 0 discriminator 3
 168 0014 A168     		ldr	r1, [r4, #8]
 169 0016 1942     		tst	r1, r3
 170 0018 3AD0     		beq	.L16
 171              	.L11:
ARM GAS  /var/folders/t8/16hdwfmd2fg_d3q6dgx6bpmw0000gn/T//ccWsgl5d.s 			page 4


 172              		.loc 1 172 0 discriminator 8
 173 001a 2248     		ldr	r0, .L17
 174 001c FFF7FEFF 		bl	chSysHalt
 175              	.LVL13:
 176              	.L12:
 177              		.loc 1 176 0 is_stmt 1 discriminator 1
 178 0020 E168     		ldr	r1, [r4, #12]
 179 0022 FF29     		cmp	r1, #255
 180 0024 2ED8     		bhi	.L13
 181              		.loc 1 176 0 is_stmt 0 discriminator 3
 182 0026 2569     		ldr	r5, [r4, #16]
 183 0028 002D     		cmp	r5, #0
 184 002a 2BD0     		beq	.L13
 185              	.L14:
 186              		.loc 1 181 0 is_stmt 1
 187 002c A368     		ldr	r3, [r4, #8]
 188              		.loc 1 186 0
 189 002e 6268     		ldr	r2, [r4, #4]
 190              		.loc 1 181 0
 191 0030 1800     		movs	r0, r3
 192 0032 4838     		subs	r0, r0, #72
 193              	.LVL14:
 194              		.loc 1 186 0
 195 0034 C261     		str	r2, [r0, #28]
 196              		.loc 1 190 0
 197 0036 1A00     		movs	r2, r3
 198 0038 6C3A     		subs	r2, r2, #108
 199 003a C260     		str	r2, [r0, #12]
 200 003c 1561     		str	r5, [r2, #16]
 201 003e 6569     		ldr	r5, [r4, #20]
 202              		.loc 1 194 0
 203              		@ sp needed
 204              		.loc 1 190 0
 205 0040 5561     		str	r5, [r2, #20]
 206 0042 194D     		ldr	r5, .L17+4
 207 0044 1562     		str	r5, [r2, #32]
 208              		.loc 1 193 0
 209 0046 2268     		ldr	r2, [r4]
 210              	.LBB158:
 211              	.LBB159:
 212              		.loc 1 91 0
 213 0048 0224     		movs	r4, #2
 214              	.LVL15:
 215              	.LBE159:
 216              	.LBE158:
 217              		.loc 1 193 0
 218 004a 8261     		str	r2, [r0, #24]
 219              	.LVL16:
 220              	.LBB167:
 221              	.LBB166:
 222              		.loc 1 91 0
 223 004c 2022     		movs	r2, #32
 224              	.LVL17:
 225              		.loc 1 90 0
 226 004e 8160     		str	r1, [r0, #8]
 227              		.loc 1 91 0
 228 0050 8454     		strb	r4, [r0, r2]
ARM GAS  /var/folders/t8/16hdwfmd2fg_d3q6dgx6bpmw0000gn/T//ccWsgl5d.s 			page 5


 229              	.LVL18:
 230              		.loc 1 92 0
 231 0052 0022     		movs	r2, #0
 232              		.loc 1 94 0
 233 0054 1425     		movs	r5, #20
 234              		.loc 1 92 0
 235 0056 1F34     		adds	r4, r4, #31
 236 0058 0255     		strb	r2, [r0, r4]
 237              		.loc 1 94 0
 238 005a 0234     		adds	r4, r4, #2
 239 005c 0555     		strb	r5, [r0, r4]
 240              		.loc 1 97 0
 241 005e C163     		str	r1, [r0, #60]
 242              		.loc 1 107 0
 243 0060 0121     		movs	r1, #1
 244              		.loc 1 98 0
 245 0062 8263     		str	r2, [r0, #56]
 246              		.loc 1 101 0
 247 0064 4263     		str	r2, [r0, #52]
 248              		.loc 1 107 0
 249 0066 2232     		adds	r2, r2, #34
 250 0068 8154     		strb	r1, [r0, r2]
 251              		.loc 1 109 0
 252 006a 104A     		ldr	r2, .L17+8
 253 006c 5169     		ldr	r1, [r2, #20]
 254 006e 0261     		str	r2, [r0, #16]
 255 0070 4161     		str	r1, [r0, #20]
 256 0072 0861     		str	r0, [r1, #16]
 257 0074 5061     		str	r0, [r2, #20]
 258              	.LVL19:
 259              	.LBB160:
 260              	.LBB161:
 261              		.loc 2 512 0
 262 0076 1A00     		movs	r2, r3
 263              	.LBE161:
 264              	.LBE160:
 265              		.loc 1 117 0
 266 0078 1C3B     		subs	r3, r3, #28
 267              	.LVL20:
 268              	.LBB163:
 269              	.LBB162:
 270              		.loc 2 512 0
 271 007a 203A     		subs	r2, r2, #32
 272              	.LVL21:
 273 007c 1260     		str	r2, [r2]
 274              	.LVL22:
 275              	.LBE162:
 276              	.LBE163:
 277              	.LBB164:
 278              	.LBB165:
 279              		.loc 2 550 0
 280 007e 1B60     		str	r3, [r3]
 281              		.loc 2 551 0
 282 0080 5B60     		str	r3, [r3, #4]
 283              	.LVL23:
 284              	.LBE165:
 285              	.LBE164:
ARM GAS  /var/folders/t8/16hdwfmd2fg_d3q6dgx6bpmw0000gn/T//ccWsgl5d.s 			page 6


 286              	.LBE166:
 287              	.LBE167:
 288              		.loc 1 194 0
 289 0082 70BD     		pop	{r4, r5, r6, pc}
 290              	.LVL24:
 291              	.L13:
 292              		.loc 1 176 0 discriminator 4
 293 0084 0748     		ldr	r0, .L17
 294 0086 FFF7FEFF 		bl	chSysHalt
 295              	.LVL25:
 296 008a 2569     		ldr	r5, [r4, #16]
 297 008c E168     		ldr	r1, [r4, #12]
 298 008e CDE7     		b	.L14
 299              	.L16:
 300              		.loc 1 172 0 discriminator 5
 301 0090 8A42     		cmp	r2, r1
 302 0092 C2D2     		bcs	.L11
 303              		.loc 1 172 0 is_stmt 0 discriminator 7
 304 0094 8A1A     		subs	r2, r1, r2
 305 0096 C72A     		cmp	r2, #199
 306 0098 C2D8     		bhi	.L12
 307 009a BEE7     		b	.L11
 308              	.L15:
 309              		.loc 1 171 0 is_stmt 1 discriminator 2
 310 009c 0148     		ldr	r0, .L17
 311 009e FFF7FEFF 		bl	chSysHalt
 312              	.LVL26:
 313 00a2 B3E7     		b	.L10
 314              	.L18:
 315              		.align	2
 316              	.L17:
 317 00a4 00000000 		.word	.LANCHOR0
 318 00a8 00000000 		.word	_port_thread_start
 319 00ac 00000000 		.word	ch
 320              		.cfi_endproc
 321              	.LFE140:
 322              		.size	chThdCreateSuspendedI, .-chThdCreateSuspendedI
 323              		.section	.text.chThdCreateSuspended,"ax",%progbits
 324              		.align	1
 325              		.p2align 4,,15
 326              		.global	chThdCreateSuspended
 327              		.syntax unified
 328              		.code	16
 329              		.thumb_func
 330              		.fpu softvfp
 331              		.type	chThdCreateSuspended, %function
 332              	chThdCreateSuspended:
 333              	.LFB141:
 334              		.loc 1 216 0
 335              		.cfi_startproc
 336              		@ args = 0, pretend = 0, frame = 0
 337              		@ frame_needed = 0, uses_anonymous_args = 0
 338              	.LVL27:
 339 0000 10B5     		push	{r4, lr}
 340              		.cfi_def_cfa_offset 8
 341              		.cfi_offset 4, -8
 342              		.cfi_offset 14, -4
ARM GAS  /var/folders/t8/16hdwfmd2fg_d3q6dgx6bpmw0000gn/T//ccWsgl5d.s 			page 7


 343              		.loc 1 216 0
 344 0002 0400     		movs	r4, r0
 345              		.loc 1 220 0
 346 0004 4068     		ldr	r0, [r0, #4]
 347              	.LVL28:
 348 0006 FFF7FEFF 		bl	chRegFindThreadByWorkingArea
 349              	.LVL29:
 350 000a 0028     		cmp	r0, #0
 351 000c 02D0     		beq	.L20
 352              		.loc 1 220 0 is_stmt 0 discriminator 2
 353 000e 1248     		ldr	r0, .L29
 354 0010 FFF7FEFF 		bl	chSysHalt
 355              	.LVL30:
 356              	.L20:
 357              		.loc 1 225 0 is_stmt 1
 358 0014 6368     		ldr	r3, [r4, #4]
 359              		.loc 1 226 0
 360 0016 A268     		ldr	r2, [r4, #8]
 361              	.LVL31:
 362              	.LBB180:
 363              	.LBB181:
 364              		.loc 1 138 0
 365 0018 9342     		cmp	r3, r2
 366 001a 04D2     		bcs	.L21
 367              		.loc 1 139 0
 368 001c 5521     		movs	r1, #85
 369              	.LVL32:
 370              	.L22:
 371 001e 1970     		strb	r1, [r3]
 372 0020 0133     		adds	r3, r3, #1
 373              	.LVL33:
 374              		.loc 1 138 0
 375 0022 9A42     		cmp	r2, r3
 376 0024 FBD1     		bne	.L22
 377              	.LVL34:
 378              	.L21:
 379              	.LBE181:
 380              	.LBE180:
 381              	.LBB182:
 382              	.LBB183:
 383              	.LBB184:
 384              	.LBB185:
 385              	.LBB186:
 386              		.file 3 "../../tmk_core/tool/chibios/ChibiOS/os/common/ext/CMSIS/include/cmsis_gcc.h"
 387              		.loc 3 71 0
 388              		.syntax divided
 389              	@ 71 "../../tmk_core/tool/chibios/ChibiOS/os/common/ext/CMSIS/include/cmsis_gcc.h" 1
 390 0026 72B6     		cpsid i
 391              	@ 0 "" 2
 392              		.thumb
 393              		.syntax unified
 394              	.LBE186:
 395              	.LBE185:
 396              	.LBE184:
 397              		.file 4 "../../tmk_core/tool/chibios/ChibiOS/os/rt/include/chsys.h"
 398              		.loc 4 378 0
 399 0028 FFF7FEFF 		bl	_dbg_check_lock
ARM GAS  /var/folders/t8/16hdwfmd2fg_d3q6dgx6bpmw0000gn/T//ccWsgl5d.s 			page 8


 400              	.LVL35:
 401              	.LBE183:
 402              	.LBE182:
 403              		.loc 1 231 0
 404 002c 2000     		movs	r0, r4
 405 002e FFF7FEFF 		bl	chThdCreateSuspendedI
 406              	.LVL36:
 407 0032 0400     		movs	r4, r0
 408              	.LVL37:
 409              	.LBB187:
 410              	.LBB188:
 411              		.loc 4 388 0
 412 0034 FFF7FEFF 		bl	_dbg_check_unlock
 413              	.LVL38:
 414              		.loc 4 395 0
 415 0038 084B     		ldr	r3, .L29+4
 416 003a 1A68     		ldr	r2, [r3]
 417 003c 9A42     		cmp	r2, r3
 418 003e 04D0     		beq	.L23
 419 0040 9B69     		ldr	r3, [r3, #24]
 420 0042 9968     		ldr	r1, [r3, #8]
 421 0044 9368     		ldr	r3, [r2, #8]
 422 0046 9942     		cmp	r1, r3
 423 0048 02D3     		bcc	.L28
 424              	.L23:
 425              	.LBB189:
 426              	.LBB190:
 427              	.LBB191:
 428              		.loc 3 60 0
 429              		.syntax divided
 430              	@ 60 "../../tmk_core/tool/chibios/ChibiOS/os/common/ext/CMSIS/include/cmsis_gcc.h" 1
 431 004a 62B6     		cpsie i
 432              	@ 0 "" 2
 433              		.thumb
 434              		.syntax unified
 435              	.LBE191:
 436              	.LBE190:
 437              	.LBE189:
 438              	.LBE188:
 439              	.LBE187:
 440              		.loc 1 235 0
 441 004c 2000     		movs	r0, r4
 442              		@ sp needed
 443              	.LVL39:
 444 004e 10BD     		pop	{r4, pc}
 445              	.LVL40:
 446              	.L28:
 447              	.LBB193:
 448              	.LBB192:
 449              		.loc 4 395 0
 450 0050 0348     		ldr	r0, .L29+8
 451 0052 FFF7FEFF 		bl	chSysHalt
 452              	.LVL41:
 453 0056 F8E7     		b	.L23
 454              	.L30:
 455              		.align	2
 456              	.L29:
ARM GAS  /var/folders/t8/16hdwfmd2fg_d3q6dgx6bpmw0000gn/T//ccWsgl5d.s 			page 9


 457 0058 00000000 		.word	.LANCHOR1
 458 005c 00000000 		.word	ch
 459 0060 00000000 		.word	.LANCHOR2
 460              	.LBE192:
 461              	.LBE193:
 462              		.cfi_endproc
 463              	.LFE141:
 464              		.size	chThdCreateSuspended, .-chThdCreateSuspended
 465              		.section	.text.chThdCreateI,"ax",%progbits
 466              		.align	1
 467              		.p2align 4,,15
 468              		.global	chThdCreateI
 469              		.syntax unified
 470              		.code	16
 471              		.thumb_func
 472              		.fpu softvfp
 473              		.type	chThdCreateI, %function
 474              	chThdCreateI:
 475              	.LFB142:
 476              		.loc 1 259 0
 477              		.cfi_startproc
 478              		@ args = 0, pretend = 0, frame = 0
 479              		@ frame_needed = 0, uses_anonymous_args = 0
 480              	.LVL42:
 481 0000 10B5     		push	{r4, lr}
 482              		.cfi_def_cfa_offset 8
 483              		.cfi_offset 4, -8
 484              		.cfi_offset 14, -4
 485              		.loc 1 261 0
 486 0002 FFF7FEFF 		bl	chThdCreateSuspendedI
 487              	.LVL43:
 488 0006 FFF7FEFF 		bl	chSchReadyI
 489              	.LVL44:
 490              		.loc 1 262 0
 491              		@ sp needed
 492 000a 10BD     		pop	{r4, pc}
 493              		.cfi_endproc
 494              	.LFE142:
 495              		.size	chThdCreateI, .-chThdCreateI
 496              		.section	.text.chThdCreate,"ax",%progbits
 497              		.align	1
 498              		.p2align 4,,15
 499              		.global	chThdCreate
 500              		.syntax unified
 501              		.code	16
 502              		.thumb_func
 503              		.fpu softvfp
 504              		.type	chThdCreate, %function
 505              	chThdCreate:
 506              	.LFB143:
 507              		.loc 1 280 0
 508              		.cfi_startproc
 509              		@ args = 0, pretend = 0, frame = 0
 510              		@ frame_needed = 0, uses_anonymous_args = 0
 511              	.LVL45:
 512 0000 10B5     		push	{r4, lr}
 513              		.cfi_def_cfa_offset 8
ARM GAS  /var/folders/t8/16hdwfmd2fg_d3q6dgx6bpmw0000gn/T//ccWsgl5d.s 			page 10


 514              		.cfi_offset 4, -8
 515              		.cfi_offset 14, -4
 516              		.loc 1 280 0
 517 0002 0400     		movs	r4, r0
 518              		.loc 1 284 0
 519 0004 4068     		ldr	r0, [r0, #4]
 520              	.LVL46:
 521 0006 FFF7FEFF 		bl	chRegFindThreadByWorkingArea
 522              	.LVL47:
 523 000a 0028     		cmp	r0, #0
 524 000c 02D0     		beq	.L33
 525              		.loc 1 284 0 is_stmt 0 discriminator 2
 526 000e 1448     		ldr	r0, .L42
 527 0010 FFF7FEFF 		bl	chSysHalt
 528              	.LVL48:
 529              	.L33:
 530              		.loc 1 289 0 is_stmt 1
 531 0014 6368     		ldr	r3, [r4, #4]
 532              		.loc 1 290 0
 533 0016 A268     		ldr	r2, [r4, #8]
 534              	.LVL49:
 535              	.LBB206:
 536              	.LBB207:
 537              		.loc 1 138 0
 538 0018 9342     		cmp	r3, r2
 539 001a 04D2     		bcs	.L34
 540              		.loc 1 139 0
 541 001c 5521     		movs	r1, #85
 542              	.LVL50:
 543              	.L35:
 544 001e 1970     		strb	r1, [r3]
 545 0020 0133     		adds	r3, r3, #1
 546              	.LVL51:
 547              		.loc 1 138 0
 548 0022 9A42     		cmp	r2, r3
 549 0024 FBD1     		bne	.L35
 550              	.LVL52:
 551              	.L34:
 552              	.LBE207:
 553              	.LBE206:
 554              	.LBB208:
 555              	.LBB209:
 556              	.LBB210:
 557              	.LBB211:
 558              	.LBB212:
 559              		.loc 3 71 0
 560              		.syntax divided
 561              	@ 71 "../../tmk_core/tool/chibios/ChibiOS/os/common/ext/CMSIS/include/cmsis_gcc.h" 1
 562 0026 72B6     		cpsid i
 563              	@ 0 "" 2
 564              		.thumb
 565              		.syntax unified
 566              	.LBE212:
 567              	.LBE211:
 568              	.LBE210:
 569              		.loc 4 378 0
 570 0028 FFF7FEFF 		bl	_dbg_check_lock
ARM GAS  /var/folders/t8/16hdwfmd2fg_d3q6dgx6bpmw0000gn/T//ccWsgl5d.s 			page 11


 571              	.LVL53:
 572              	.LBE209:
 573              	.LBE208:
 574              		.loc 1 295 0
 575 002c 2000     		movs	r0, r4
 576 002e FFF7FEFF 		bl	chThdCreateSuspendedI
 577              	.LVL54:
 578              		.loc 1 296 0
 579 0032 0021     		movs	r1, #0
 580              		.loc 1 295 0
 581 0034 0400     		movs	r4, r0
 582              	.LVL55:
 583              		.loc 1 296 0
 584 0036 FFF7FEFF 		bl	chSchWakeupS
 585              	.LVL56:
 586              	.LBB213:
 587              	.LBB214:
 588              		.loc 4 388 0
 589 003a FFF7FEFF 		bl	_dbg_check_unlock
 590              	.LVL57:
 591              		.loc 4 395 0
 592 003e 094B     		ldr	r3, .L42+4
 593 0040 1A68     		ldr	r2, [r3]
 594 0042 9A42     		cmp	r2, r3
 595 0044 04D0     		beq	.L36
 596 0046 9B69     		ldr	r3, [r3, #24]
 597 0048 9968     		ldr	r1, [r3, #8]
 598 004a 9368     		ldr	r3, [r2, #8]
 599 004c 9942     		cmp	r1, r3
 600 004e 02D3     		bcc	.L41
 601              	.L36:
 602              	.LBB215:
 603              	.LBB216:
 604              	.LBB217:
 605              		.loc 3 60 0
 606              		.syntax divided
 607              	@ 60 "../../tmk_core/tool/chibios/ChibiOS/os/common/ext/CMSIS/include/cmsis_gcc.h" 1
 608 0050 62B6     		cpsie i
 609              	@ 0 "" 2
 610              		.thumb
 611              		.syntax unified
 612              	.LBE217:
 613              	.LBE216:
 614              	.LBE215:
 615              	.LBE214:
 616              	.LBE213:
 617              		.loc 1 300 0
 618 0052 2000     		movs	r0, r4
 619              		@ sp needed
 620              	.LVL58:
 621 0054 10BD     		pop	{r4, pc}
 622              	.LVL59:
 623              	.L41:
 624              	.LBB219:
 625              	.LBB218:
 626              		.loc 4 395 0
 627 0056 0448     		ldr	r0, .L42+8
ARM GAS  /var/folders/t8/16hdwfmd2fg_d3q6dgx6bpmw0000gn/T//ccWsgl5d.s 			page 12


 628 0058 FFF7FEFF 		bl	chSysHalt
 629              	.LVL60:
 630 005c F8E7     		b	.L36
 631              	.L43:
 632 005e C046     		.align	2
 633              	.L42:
 634 0060 00000000 		.word	.LANCHOR3
 635 0064 00000000 		.word	ch
 636 0068 00000000 		.word	.LANCHOR2
 637              	.LBE218:
 638              	.LBE219:
 639              		.cfi_endproc
 640              	.LFE143:
 641              		.size	chThdCreate, .-chThdCreate
 642              		.section	.text.chThdCreateStatic,"ax",%progbits
 643              		.align	1
 644              		.p2align 4,,15
 645              		.global	chThdCreateStatic
 646              		.syntax unified
 647              		.code	16
 648              		.thumb_func
 649              		.fpu softvfp
 650              		.type	chThdCreateStatic, %function
 651              	chThdCreateStatic:
 652              	.LFB144:
 653              		.loc 1 323 0
 654              		.cfi_startproc
 655              		@ args = 4, pretend = 0, frame = 0
 656              		@ frame_needed = 0, uses_anonymous_args = 0
 657              	.LVL61:
 658 0000 F8B5     		push	{r3, r4, r5, r6, r7, lr}
 659              		.cfi_def_cfa_offset 24
 660              		.cfi_offset 3, -24
 661              		.cfi_offset 4, -20
 662              		.cfi_offset 5, -16
 663              		.cfi_offset 6, -12
 664              		.cfi_offset 7, -8
 665              		.cfi_offset 14, -4
 666              		.loc 1 323 0
 667 0002 0500     		movs	r5, r0
 668 0004 0C00     		movs	r4, r1
 669 0006 1600     		movs	r6, r2
 670 0008 1F00     		movs	r7, r3
 671              		.loc 1 326 0
 672 000a 0028     		cmp	r0, #0
 673 000c 02D0     		beq	.L45
 674              		.loc 1 326 0 is_stmt 0 discriminator 3
 675 000e 0723     		movs	r3, #7
 676              	.LVL62:
 677 0010 1842     		tst	r0, r3
 678 0012 47D0     		beq	.L58
 679              	.L45:
 680              		.loc 1 326 0 discriminator 12
 681 0014 2A48     		ldr	r0, .L60
 682              	.LVL63:
 683 0016 FFF7FEFF 		bl	chSysHalt
 684              	.LVL64:
ARM GAS  /var/folders/t8/16hdwfmd2fg_d3q6dgx6bpmw0000gn/T//ccWsgl5d.s 			page 13


 685              	.L46:
 686              		.loc 1 333 0 is_stmt 1 discriminator 1
 687 001a 2800     		movs	r0, r5
 688 001c FFF7FEFF 		bl	chRegFindThreadByWorkingArea
 689              	.LVL65:
 690 0020 0028     		cmp	r0, #0
 691 0022 02D0     		beq	.L47
 692              		.loc 1 333 0 is_stmt 0 discriminator 2
 693 0024 2648     		ldr	r0, .L60
 694 0026 FFF7FEFF 		bl	chSysHalt
 695              	.LVL66:
 696              	.L47:
 697              		.loc 1 338 0 is_stmt 1
 698 002a 2A19     		adds	r2, r5, r4
 699              	.LVL67:
 700              	.LBB238:
 701              	.LBB239:
 702              		.loc 1 138 0
 703 002c AA42     		cmp	r2, r5
 704 002e 05D9     		bls	.L48
 705 0030 2B00     		movs	r3, r5
 706              		.loc 1 139 0
 707 0032 5521     		movs	r1, #85
 708              	.LVL68:
 709              	.L49:
 710 0034 1970     		strb	r1, [r3]
 711 0036 0133     		adds	r3, r3, #1
 712              	.LVL69:
 713              		.loc 1 138 0
 714 0038 9A42     		cmp	r2, r3
 715 003a FBD1     		bne	.L49
 716              	.LVL70:
 717              	.L48:
 718              	.LBE239:
 719              	.LBE238:
 720              	.LBB240:
 721              	.LBB241:
 722              	.LBB242:
 723              	.LBB243:
 724              	.LBB244:
 725              		.loc 3 71 0
 726              		.syntax divided
 727              	@ 71 "../../tmk_core/tool/chibios/ChibiOS/os/common/ext/CMSIS/include/cmsis_gcc.h" 1
 728 003c 72B6     		cpsid i
 729              	@ 0 "" 2
 730              		.thumb
 731              		.syntax unified
 732              	.LBE244:
 733              	.LBE243:
 734              	.LBE242:
 735              	.LBE241:
 736              	.LBE240:
 737              		.loc 1 348 0
 738 003e 483C     		subs	r4, r4, #72
 739              	.LVL71:
 740 0040 2C19     		adds	r4, r5, r4
 741              	.LVL72:
ARM GAS  /var/folders/t8/16hdwfmd2fg_d3q6dgx6bpmw0000gn/T//ccWsgl5d.s 			page 14


 742              	.LBB246:
 743              	.LBB245:
 744              		.loc 4 378 0
 745 0042 FFF7FEFF 		bl	_dbg_check_lock
 746              	.LVL73:
 747              	.LBE245:
 748              	.LBE246:
 749              		.loc 1 357 0
 750 0046 2300     		movs	r3, r4
 751 0048 069A     		ldr	r2, [sp, #24]
 752 004a 243B     		subs	r3, r3, #36
 753 004c E360     		str	r3, [r4, #12]
 754              		.loc 1 353 0
 755 004e E561     		str	r5, [r4, #28]
 756              		.loc 1 357 0
 757 0050 5A61     		str	r2, [r3, #20]
 758 0052 1C4A     		ldr	r2, .L60+4
 759 0054 1F61     		str	r7, [r3, #16]
 760 0056 1A62     		str	r2, [r3, #32]
 761              	.LVL74:
 762              	.LBB247:
 763              	.LBB248:
 764              		.loc 1 98 0
 765 0058 0023     		movs	r3, #0
 766 005a A363     		str	r3, [r4, #56]
 767              		.loc 1 101 0
 768 005c 6363     		str	r3, [r4, #52]
 769              		.loc 1 91 0
 770 005e 1A4B     		ldr	r3, .L60+8
 771              		.loc 1 109 0
 772 0060 1A4D     		ldr	r5, .L60+12
 773              	.LVL75:
 774              		.loc 1 91 0
 775 0062 2362     		str	r3, [r4, #32]
 776              		.loc 1 108 0
 777 0064 1A4B     		ldr	r3, .L60+16
 778              		.loc 1 90 0
 779 0066 A660     		str	r6, [r4, #8]
 780              		.loc 1 108 0
 781 0068 A361     		str	r3, [r4, #24]
 782              		.loc 1 109 0
 783 006a 6B69     		ldr	r3, [r5, #20]
 784 006c 2561     		str	r5, [r4, #16]
 785 006e 6361     		str	r3, [r4, #20]
 786              		.loc 1 97 0
 787 0070 E663     		str	r6, [r4, #60]
 788              		.loc 1 109 0
 789 0072 1C61     		str	r4, [r3, #16]
 790              		.loc 1 114 0
 791 0074 2300     		movs	r3, r4
 792 0076 2833     		adds	r3, r3, #40
 793              	.LBB249:
 794              	.LBB250:
 795              		.loc 2 512 0
 796 0078 A362     		str	r3, [r4, #40]
 797              	.LBE250:
 798              	.LBE249:
ARM GAS  /var/folders/t8/16hdwfmd2fg_d3q6dgx6bpmw0000gn/T//ccWsgl5d.s 			page 15


 799              		.loc 1 117 0
 800 007a 0433     		adds	r3, r3, #4
 801              	.LBB251:
 802              	.LBB252:
 803              		.loc 2 550 0
 804 007c E362     		str	r3, [r4, #44]
 805              		.loc 2 551 0
 806 007e 2363     		str	r3, [r4, #48]
 807              	.LBE252:
 808              	.LBE251:
 809              	.LBE248:
 810              	.LBE247:
 811              		.loc 1 362 0
 812 0080 0021     		movs	r1, #0
 813 0082 2000     		movs	r0, r4
 814              	.LBB254:
 815              	.LBB253:
 816              		.loc 1 109 0
 817 0084 6C61     		str	r4, [r5, #20]
 818              	.LVL76:
 819              	.LBE253:
 820              	.LBE254:
 821              		.loc 1 362 0
 822 0086 FFF7FEFF 		bl	chSchWakeupS
 823              	.LVL77:
 824              	.LBB255:
 825              	.LBB256:
 826              		.loc 4 388 0
 827 008a FFF7FEFF 		bl	_dbg_check_unlock
 828              	.LVL78:
 829              		.loc 4 395 0
 830 008e 2B68     		ldr	r3, [r5]
 831 0090 AB42     		cmp	r3, r5
 832 0092 04D0     		beq	.L50
 833 0094 AA69     		ldr	r2, [r5, #24]
 834 0096 9B68     		ldr	r3, [r3, #8]
 835 0098 9268     		ldr	r2, [r2, #8]
 836 009a 9A42     		cmp	r2, r3
 837 009c 0BD3     		bcc	.L59
 838              	.L50:
 839              	.LBB257:
 840              	.LBB258:
 841              	.LBB259:
 842              		.loc 3 60 0
 843              		.syntax divided
 844              	@ 60 "../../tmk_core/tool/chibios/ChibiOS/os/common/ext/CMSIS/include/cmsis_gcc.h" 1
 845 009e 62B6     		cpsie i
 846              	@ 0 "" 2
 847              		.thumb
 848              		.syntax unified
 849              	.LBE259:
 850              	.LBE258:
 851              	.LBE257:
 852              	.LBE256:
 853              	.LBE255:
 854              		.loc 1 366 0
 855 00a0 2000     		movs	r0, r4
ARM GAS  /var/folders/t8/16hdwfmd2fg_d3q6dgx6bpmw0000gn/T//ccWsgl5d.s 			page 16


 856              		@ sp needed
 857              	.LVL79:
 858              	.LVL80:
 859 00a2 F8BD     		pop	{r3, r4, r5, r6, r7, pc}
 860              	.LVL81:
 861              	.L58:
 862              		.loc 1 326 0 discriminator 5
 863 00a4 C729     		cmp	r1, #199
 864 00a6 B5D9     		bls	.L45
 865              		.loc 1 326 0 is_stmt 0 discriminator 7
 866 00a8 0B42     		tst	r3, r1
 867 00aa B3D1     		bne	.L45
 868              		.loc 1 326 0 discriminator 9
 869 00ac FF2A     		cmp	r2, #255
 870 00ae B1D8     		bhi	.L45
 871              		.loc 1 326 0 discriminator 11
 872 00b0 002F     		cmp	r7, #0
 873 00b2 B2D1     		bne	.L46
 874 00b4 AEE7     		b	.L45
 875              	.LVL82:
 876              	.L59:
 877              	.LBB261:
 878              	.LBB260:
 879              		.loc 4 395 0 is_stmt 1
 880 00b6 0748     		ldr	r0, .L60+20
 881 00b8 FFF7FEFF 		bl	chSysHalt
 882              	.LVL83:
 883 00bc EFE7     		b	.L50
 884              	.L61:
 885 00be C046     		.align	2
 886              	.L60:
 887 00c0 00000000 		.word	.LANCHOR4
 888 00c4 00000000 		.word	_port_thread_start
 889 00c8 02000114 		.word	335609858
 890 00cc 00000000 		.word	ch
 891 00d0 00000000 		.word	.LC14
 892 00d4 00000000 		.word	.LANCHOR2
 893              	.LBE260:
 894              	.LBE261:
 895              		.cfi_endproc
 896              	.LFE144:
 897              		.size	chThdCreateStatic, .-chThdCreateStatic
 898              		.section	.text.chThdStart,"ax",%progbits
 899              		.align	1
 900              		.p2align 4,,15
 901              		.global	chThdStart
 902              		.syntax unified
 903              		.code	16
 904              		.thumb_func
 905              		.fpu softvfp
 906              		.type	chThdStart, %function
 907              	chThdStart:
 908              	.LFB145:
 909              		.loc 1 377 0
 910              		.cfi_startproc
 911              		@ args = 0, pretend = 0, frame = 0
 912              		@ frame_needed = 0, uses_anonymous_args = 0
ARM GAS  /var/folders/t8/16hdwfmd2fg_d3q6dgx6bpmw0000gn/T//ccWsgl5d.s 			page 17


 913              	.LVL84:
 914 0000 10B5     		push	{r4, lr}
 915              		.cfi_def_cfa_offset 8
 916              		.cfi_offset 4, -8
 917              		.cfi_offset 14, -4
 918              		.loc 1 377 0
 919 0002 0400     		movs	r4, r0
 920              	.LBB272:
 921              	.LBB273:
 922              	.LBB274:
 923              	.LBB275:
 924              	.LBB276:
 925              		.loc 3 71 0
 926              		.syntax divided
 927              	@ 71 "../../tmk_core/tool/chibios/ChibiOS/os/common/ext/CMSIS/include/cmsis_gcc.h" 1
 928 0004 72B6     		cpsid i
 929              	@ 0 "" 2
 930              		.thumb
 931              		.syntax unified
 932              	.LBE276:
 933              	.LBE275:
 934              	.LBE274:
 935              		.loc 4 378 0
 936 0006 FFF7FEFF 		bl	_dbg_check_lock
 937              	.LVL85:
 938              	.LBE273:
 939              	.LBE272:
 940              		.loc 1 380 0
 941 000a 2023     		movs	r3, #32
 942 000c E35C     		ldrb	r3, [r4, r3]
 943 000e 022B     		cmp	r3, #2
 944 0010 02D0     		beq	.L63
 945              		.loc 1 380 0 is_stmt 0 discriminator 2
 946 0012 0C48     		ldr	r0, .L69
 947 0014 FFF7FEFF 		bl	chSysHalt
 948              	.LVL86:
 949              	.L63:
 950              		.loc 1 381 0 is_stmt 1
 951 0018 0021     		movs	r1, #0
 952 001a 2000     		movs	r0, r4
 953 001c FFF7FEFF 		bl	chSchWakeupS
 954              	.LVL87:
 955              	.LBB277:
 956              	.LBB278:
 957              		.loc 4 388 0
 958 0020 FFF7FEFF 		bl	_dbg_check_unlock
 959              	.LVL88:
 960              		.loc 4 395 0
 961 0024 084B     		ldr	r3, .L69+4
 962 0026 1A68     		ldr	r2, [r3]
 963 0028 9A42     		cmp	r2, r3
 964 002a 04D0     		beq	.L64
 965 002c 9B69     		ldr	r3, [r3, #24]
 966 002e 9968     		ldr	r1, [r3, #8]
 967 0030 9368     		ldr	r3, [r2, #8]
 968 0032 9942     		cmp	r1, r3
 969 0034 02D3     		bcc	.L68
ARM GAS  /var/folders/t8/16hdwfmd2fg_d3q6dgx6bpmw0000gn/T//ccWsgl5d.s 			page 18


 970              	.L64:
 971              	.LBB279:
 972              	.LBB280:
 973              	.LBB281:
 974              		.loc 3 60 0
 975              		.syntax divided
 976              	@ 60 "../../tmk_core/tool/chibios/ChibiOS/os/common/ext/CMSIS/include/cmsis_gcc.h" 1
 977 0036 62B6     		cpsie i
 978              	@ 0 "" 2
 979              		.thumb
 980              		.syntax unified
 981              	.LBE281:
 982              	.LBE280:
 983              	.LBE279:
 984              	.LBE278:
 985              	.LBE277:
 986              		.loc 1 385 0
 987 0038 2000     		movs	r0, r4
 988              		@ sp needed
 989              	.LVL89:
 990 003a 10BD     		pop	{r4, pc}
 991              	.LVL90:
 992              	.L68:
 993              	.LBB283:
 994              	.LBB282:
 995              		.loc 4 395 0
 996 003c 0348     		ldr	r0, .L69+8
 997 003e FFF7FEFF 		bl	chSysHalt
 998              	.LVL91:
 999 0042 F8E7     		b	.L64
 1000              	.L70:
 1001              		.align	2
 1002              	.L69:
 1003 0044 00000000 		.word	.LANCHOR5
 1004 0048 00000000 		.word	ch
 1005 004c 00000000 		.word	.LANCHOR2
 1006              	.LBE282:
 1007              	.LBE283:
 1008              		.cfi_endproc
 1009              	.LFE145:
 1010              		.size	chThdStart, .-chThdStart
 1011              		.section	.text.chThdAddRef,"ax",%progbits
 1012              		.align	1
 1013              		.p2align 4,,15
 1014              		.global	chThdAddRef
 1015              		.syntax unified
 1016              		.code	16
 1017              		.thumb_func
 1018              		.fpu softvfp
 1019              		.type	chThdAddRef, %function
 1020              	chThdAddRef:
 1021              	.LFB146:
 1022              		.loc 1 399 0
 1023              		.cfi_startproc
 1024              		@ args = 0, pretend = 0, frame = 0
 1025              		@ frame_needed = 0, uses_anonymous_args = 0
 1026              	.LVL92:
ARM GAS  /var/folders/t8/16hdwfmd2fg_d3q6dgx6bpmw0000gn/T//ccWsgl5d.s 			page 19


 1027 0000 70B5     		push	{r4, r5, r6, lr}
 1028              		.cfi_def_cfa_offset 16
 1029              		.cfi_offset 4, -16
 1030              		.cfi_offset 5, -12
 1031              		.cfi_offset 6, -8
 1032              		.cfi_offset 14, -4
 1033              		.loc 1 399 0
 1034 0002 0400     		movs	r4, r0
 1035              	.LBB294:
 1036              	.LBB295:
 1037              	.LBB296:
 1038              	.LBB297:
 1039              	.LBB298:
 1040              		.loc 3 71 0
 1041              		.syntax divided
 1042              	@ 71 "../../tmk_core/tool/chibios/ChibiOS/os/common/ext/CMSIS/include/cmsis_gcc.h" 1
 1043 0004 72B6     		cpsid i
 1044              	@ 0 "" 2
 1045              		.thumb
 1046              		.syntax unified
 1047              	.LBE298:
 1048              	.LBE297:
 1049              	.LBE296:
 1050              	.LBE295:
 1051              	.LBE294:
 1052              		.loc 1 402 0
 1053 0006 2225     		movs	r5, #34
 1054              	.LBB300:
 1055              	.LBB299:
 1056              		.loc 4 378 0
 1057 0008 FFF7FEFF 		bl	_dbg_check_lock
 1058              	.LVL93:
 1059              	.LBE299:
 1060              	.LBE300:
 1061              		.loc 1 402 0
 1062 000c 635D     		ldrb	r3, [r4, r5]
 1063 000e FF2B     		cmp	r3, #255
 1064 0010 14D0     		beq	.L74
 1065              	.L72:
 1066              		.loc 1 403 0
 1067 0012 2222     		movs	r2, #34
 1068 0014 0133     		adds	r3, r3, #1
 1069 0016 A354     		strb	r3, [r4, r2]
 1070              	.LBB301:
 1071              	.LBB302:
 1072              		.loc 4 388 0
 1073 0018 FFF7FEFF 		bl	_dbg_check_unlock
 1074              	.LVL94:
 1075              		.loc 4 395 0
 1076 001c 0A4B     		ldr	r3, .L76
 1077 001e 1A68     		ldr	r2, [r3]
 1078 0020 9A42     		cmp	r2, r3
 1079 0022 04D0     		beq	.L73
 1080 0024 9B69     		ldr	r3, [r3, #24]
 1081 0026 9968     		ldr	r1, [r3, #8]
 1082 0028 9368     		ldr	r3, [r2, #8]
 1083 002a 9942     		cmp	r1, r3
ARM GAS  /var/folders/t8/16hdwfmd2fg_d3q6dgx6bpmw0000gn/T//ccWsgl5d.s 			page 20


 1084 002c 02D3     		bcc	.L75
 1085              	.L73:
 1086              	.LBB303:
 1087              	.LBB304:
 1088              	.LBB305:
 1089              		.loc 3 60 0
 1090              		.syntax divided
 1091              	@ 60 "../../tmk_core/tool/chibios/ChibiOS/os/common/ext/CMSIS/include/cmsis_gcc.h" 1
 1092 002e 62B6     		cpsie i
 1093              	@ 0 "" 2
 1094              		.thumb
 1095              		.syntax unified
 1096              	.LBE305:
 1097              	.LBE304:
 1098              	.LBE303:
 1099              	.LBE302:
 1100              	.LBE301:
 1101              		.loc 1 407 0
 1102 0030 2000     		movs	r0, r4
 1103              		@ sp needed
 1104              	.LVL95:
 1105 0032 70BD     		pop	{r4, r5, r6, pc}
 1106              	.LVL96:
 1107              	.L75:
 1108              	.LBB307:
 1109              	.LBB306:
 1110              		.loc 4 395 0
 1111 0034 0548     		ldr	r0, .L76+4
 1112 0036 FFF7FEFF 		bl	chSysHalt
 1113              	.LVL97:
 1114 003a F8E7     		b	.L73
 1115              	.L74:
 1116              	.LBE306:
 1117              	.LBE307:
 1118              		.loc 1 402 0 discriminator 2
 1119 003c 0448     		ldr	r0, .L76+8
 1120 003e FFF7FEFF 		bl	chSysHalt
 1121              	.LVL98:
 1122 0042 635D     		ldrb	r3, [r4, r5]
 1123 0044 E5E7     		b	.L72
 1124              	.L77:
 1125 0046 C046     		.align	2
 1126              	.L76:
 1127 0048 00000000 		.word	ch
 1128 004c 00000000 		.word	.LANCHOR2
 1129 0050 00000000 		.word	.LANCHOR6
 1130              		.cfi_endproc
 1131              	.LFE146:
 1132              		.size	chThdAddRef, .-chThdAddRef
 1133              		.section	.text.chThdRelease,"ax",%progbits
 1134              		.align	1
 1135              		.p2align 4,,15
 1136              		.global	chThdRelease
 1137              		.syntax unified
 1138              		.code	16
 1139              		.thumb_func
 1140              		.fpu softvfp
ARM GAS  /var/folders/t8/16hdwfmd2fg_d3q6dgx6bpmw0000gn/T//ccWsgl5d.s 			page 21


 1141              		.type	chThdRelease, %function
 1142              	chThdRelease:
 1143              	.LFB147:
 1144              		.loc 1 425 0
 1145              		.cfi_startproc
 1146              		@ args = 0, pretend = 0, frame = 0
 1147              		@ frame_needed = 0, uses_anonymous_args = 0
 1148              	.LVL99:
 1149 0000 70B5     		push	{r4, r5, r6, lr}
 1150              		.cfi_def_cfa_offset 16
 1151              		.cfi_offset 4, -16
 1152              		.cfi_offset 5, -12
 1153              		.cfi_offset 6, -8
 1154              		.cfi_offset 14, -4
 1155              		.loc 1 425 0
 1156 0002 0400     		movs	r4, r0
 1157              	.LBB334:
 1158              	.LBB335:
 1159              	.LBB336:
 1160              	.LBB337:
 1161              	.LBB338:
 1162              		.loc 3 71 0
 1163              		.syntax divided
 1164              	@ 71 "../../tmk_core/tool/chibios/ChibiOS/os/common/ext/CMSIS/include/cmsis_gcc.h" 1
 1165 0004 72B6     		cpsid i
 1166              	@ 0 "" 2
 1167              		.thumb
 1168              		.syntax unified
 1169              	.LBE338:
 1170              	.LBE337:
 1171              	.LBE336:
 1172              	.LBE335:
 1173              	.LBE334:
 1174              		.loc 1 428 0
 1175 0006 2225     		movs	r5, #34
 1176              	.LBB340:
 1177              	.LBB339:
 1178              		.loc 4 378 0
 1179 0008 FFF7FEFF 		bl	_dbg_check_lock
 1180              	.LVL100:
 1181              	.LBE339:
 1182              	.LBE340:
 1183              		.loc 1 428 0
 1184 000c 635D     		ldrb	r3, [r4, r5]
 1185 000e 002B     		cmp	r3, #0
 1186 0010 32D0     		beq	.L86
 1187              	.L79:
 1188              		.loc 1 429 0
 1189 0012 2222     		movs	r2, #34
 1190 0014 013B     		subs	r3, r3, #1
 1191 0016 A354     		strb	r3, [r4, r2]
 1192              		.loc 1 434 0
 1193 0018 226A     		ldr	r2, [r4, #32]
 1194 001a 204B     		ldr	r3, .L90
 1195 001c 1340     		ands	r3, r2
 1196 001e 0F2B     		cmp	r3, #15
 1197 0020 0CD0     		beq	.L87
ARM GAS  /var/folders/t8/16hdwfmd2fg_d3q6dgx6bpmw0000gn/T//ccWsgl5d.s 			page 22


 1198              	.LBB341:
 1199              	.LBB342:
 1200              		.loc 4 388 0
 1201 0022 FFF7FEFF 		bl	_dbg_check_unlock
 1202              	.LVL101:
 1203              		.loc 4 395 0
 1204 0026 1E4B     		ldr	r3, .L90+4
 1205 0028 1A68     		ldr	r2, [r3]
 1206 002a 9A42     		cmp	r2, r3
 1207 002c 04D0     		beq	.L85
 1208 002e 9B69     		ldr	r3, [r3, #24]
 1209 0030 9968     		ldr	r1, [r3, #8]
 1210 0032 9368     		ldr	r3, [r2, #8]
 1211 0034 9942     		cmp	r1, r3
 1212 0036 24D3     		bcc	.L88
 1213              	.L85:
 1214              	.LBB343:
 1215              	.LBB344:
 1216              	.LBB345:
 1217              		.loc 3 60 0
 1218              		.syntax divided
 1219              	@ 60 "../../tmk_core/tool/chibios/ChibiOS/os/common/ext/CMSIS/include/cmsis_gcc.h" 1
 1220 0038 62B6     		cpsie i
 1221              	@ 0 "" 2
 1222              		.thumb
 1223              		.syntax unified
 1224              	.L78:
 1225              	.LBE345:
 1226              	.LBE344:
 1227              	.LBE343:
 1228              	.LBE342:
 1229              	.LBE341:
 1230              		.loc 1 458 0
 1231              		@ sp needed
 1232              	.LVL102:
 1233 003a 70BD     		pop	{r4, r5, r6, pc}
 1234              	.LVL103:
 1235              	.L87:
 1236              		.loc 1 435 0
 1237 003c 6369     		ldr	r3, [r4, #20]
 1238 003e 2269     		ldr	r2, [r4, #16]
 1239 0040 1A61     		str	r2, [r3, #16]
 1240 0042 2269     		ldr	r2, [r4, #16]
 1241 0044 5361     		str	r3, [r2, #20]
 1242              	.LBB347:
 1243              	.LBB348:
 1244              		.loc 4 388 0
 1245 0046 FFF7FEFF 		bl	_dbg_check_unlock
 1246              	.LVL104:
 1247              		.loc 4 395 0
 1248 004a 154B     		ldr	r3, .L90+4
 1249 004c 1A68     		ldr	r2, [r3]
 1250 004e 9A42     		cmp	r2, r3
 1251 0050 04D0     		beq	.L81
 1252 0052 9B69     		ldr	r3, [r3, #24]
 1253 0054 9968     		ldr	r1, [r3, #8]
 1254 0056 9368     		ldr	r3, [r2, #8]
ARM GAS  /var/folders/t8/16hdwfmd2fg_d3q6dgx6bpmw0000gn/T//ccWsgl5d.s 			page 23


 1255 0058 9942     		cmp	r1, r3
 1256 005a 16D3     		bcc	.L89
 1257              	.L81:
 1258              	.LBB349:
 1259              	.LBB350:
 1260              	.LBB351:
 1261              		.loc 3 60 0
 1262              		.syntax divided
 1263              	@ 60 "../../tmk_core/tool/chibios/ChibiOS/os/common/ext/CMSIS/include/cmsis_gcc.h" 1
 1264 005c 62B6     		cpsie i
 1265              	@ 0 "" 2
 1266              		.thumb
 1267              		.syntax unified
 1268              	.LBE351:
 1269              	.LBE350:
 1270              	.LBE349:
 1271              	.LBE348:
 1272              	.LBE347:
 1273              		.loc 1 439 0
 1274 005e 2123     		movs	r3, #33
 1275 0060 E25C     		ldrb	r2, [r4, r3]
 1276 0062 1E3B     		subs	r3, r3, #30
 1277 0064 1340     		ands	r3, r2
 1278 0066 012B     		cmp	r3, #1
 1279 0068 13D0     		beq	.L83
 1280 006a 022B     		cmp	r3, #2
 1281 006c E5D1     		bne	.L78
 1282              	.LVL105:
 1283              	.LBB353:
 1284              	.LBB354:
 1285              		.loc 1 447 0
 1286 006e E169     		ldr	r1, [r4, #28]
 1287 0070 206C     		ldr	r0, [r4, #64]
 1288 0072 FFF7FEFF 		bl	chPoolFree
 1289              	.LVL106:
 1290 0076 E0E7     		b	.L78
 1291              	.LVL107:
 1292              	.L86:
 1293              	.LBE354:
 1294              	.LBE353:
 1295              		.loc 1 428 0 discriminator 2
 1296 0078 0A48     		ldr	r0, .L90+8
 1297 007a FFF7FEFF 		bl	chSysHalt
 1298              	.LVL108:
 1299 007e 635D     		ldrb	r3, [r4, r5]
 1300 0080 C7E7     		b	.L79
 1301              	.L88:
 1302              	.LBB355:
 1303              	.LBB346:
 1304              		.loc 4 395 0
 1305 0082 0948     		ldr	r0, .L90+12
 1306 0084 FFF7FEFF 		bl	chSysHalt
 1307              	.LVL109:
 1308 0088 D6E7     		b	.L85
 1309              	.L89:
 1310              	.LBE346:
 1311              	.LBE355:
ARM GAS  /var/folders/t8/16hdwfmd2fg_d3q6dgx6bpmw0000gn/T//ccWsgl5d.s 			page 24


 1312              	.LBB356:
 1313              	.LBB352:
 1314 008a 0748     		ldr	r0, .L90+12
 1315 008c FFF7FEFF 		bl	chSysHalt
 1316              	.LVL110:
 1317 0090 E4E7     		b	.L81
 1318              	.L83:
 1319              	.LVL111:
 1320              	.LBE352:
 1321              	.LBE356:
 1322              		.loc 1 442 0
 1323 0092 E069     		ldr	r0, [r4, #28]
 1324 0094 FFF7FEFF 		bl	chHeapFree
 1325              	.LVL112:
 1326              		.loc 1 443 0
 1327 0098 CFE7     		b	.L78
 1328              	.L91:
 1329 009a C046     		.align	2
 1330              	.L90:
 1331 009c FF00FF00 		.word	16711935
 1332 00a0 00000000 		.word	ch
 1333 00a4 00000000 		.word	.LANCHOR7
 1334 00a8 00000000 		.word	.LANCHOR2
 1335              		.cfi_endproc
 1336              	.LFE147:
 1337              		.size	chThdRelease, .-chThdRelease
 1338              		.section	.text.chThdExitS,"ax",%progbits
 1339              		.align	1
 1340              		.p2align 4,,15
 1341              		.global	chThdExitS
 1342              		.syntax unified
 1343              		.code	16
 1344              		.thumb_func
 1345              		.fpu softvfp
 1346              		.type	chThdExitS, %function
 1347              	chThdExitS:
 1348              	.LFB149:
 1349              		.loc 1 499 0
 1350              		.cfi_startproc
 1351              		@ args = 0, pretend = 0, frame = 0
 1352              		@ frame_needed = 0, uses_anonymous_args = 0
 1353              	.LVL113:
 1354              		.loc 1 500 0
 1355 0000 114B     		ldr	r3, .L97
 1356              		.loc 1 499 0
 1357 0002 70B5     		push	{r4, r5, r6, lr}
 1358              		.cfi_def_cfa_offset 16
 1359              		.cfi_offset 4, -16
 1360              		.cfi_offset 5, -12
 1361              		.cfi_offset 6, -8
 1362              		.cfi_offset 14, -4
 1363              		.loc 1 500 0
 1364 0004 9C69     		ldr	r4, [r3, #24]
 1365              	.LVL114:
 1366              		.loc 1 510 0
 1367 0006 2500     		movs	r5, r4
 1368              		.loc 1 503 0
ARM GAS  /var/folders/t8/16hdwfmd2fg_d3q6dgx6bpmw0000gn/T//ccWsgl5d.s 			page 25


 1369 0008 6062     		str	r0, [r4, #36]
 1370              	.LBB357:
 1371              	.LBB358:
 1372              		.loc 2 538 0
 1373 000a A06A     		ldr	r0, [r4, #40]
 1374              	.LVL115:
 1375              	.LBE358:
 1376              	.LBE357:
 1377              		.loc 1 510 0
 1378 000c 2835     		adds	r5, r5, #40
 1379              	.LVL116:
 1380 000e A842     		cmp	r0, r5
 1381 0010 06D0     		beq	.L93
 1382              	.LVL117:
 1383              	.L94:
 1384              	.LBB360:
 1385              	.LBB361:
 1386              		.loc 2 592 0
 1387 0012 0368     		ldr	r3, [r0]
 1388 0014 A362     		str	r3, [r4, #40]
 1389              	.LVL118:
 1390              	.LBE361:
 1391              	.LBE360:
 1392              		.loc 1 511 0
 1393 0016 FFF7FEFF 		bl	chSchReadyI
 1394              	.LVL119:
 1395              	.LBB362:
 1396              	.LBB359:
 1397              		.loc 2 538 0
 1398 001a A06A     		ldr	r0, [r4, #40]
 1399              	.LVL120:
 1400              	.LBE359:
 1401              	.LBE362:
 1402              		.loc 1 510 0
 1403 001c A842     		cmp	r0, r5
 1404 001e F8D1     		bne	.L94
 1405              	.L93:
 1406              		.loc 1 519 0
 1407 0020 2223     		movs	r3, #34
 1408 0022 E35C     		ldrb	r3, [r4, r3]
 1409 0024 002B     		cmp	r3, #0
 1410 0026 08D1     		bne	.L95
 1411              		.loc 1 520 0 discriminator 1
 1412 0028 2133     		adds	r3, r3, #33
 1413              		.loc 1 519 0 discriminator 1
 1414 002a E35C     		ldrb	r3, [r4, r3]
 1415 002c 9B07     		lsls	r3, r3, #30
 1416 002e 04D1     		bne	.L95
 1417              		.loc 1 521 0
 1418 0030 2269     		ldr	r2, [r4, #16]
 1419 0032 6369     		ldr	r3, [r4, #20]
 1420 0034 1A61     		str	r2, [r3, #16]
 1421 0036 2269     		ldr	r2, [r4, #16]
 1422 0038 5361     		str	r3, [r2, #20]
 1423              	.L95:
 1424              		.loc 1 531 0
 1425 003a 0F20     		movs	r0, #15
ARM GAS  /var/folders/t8/16hdwfmd2fg_d3q6dgx6bpmw0000gn/T//ccWsgl5d.s 			page 26


 1426 003c FFF7FEFF 		bl	chSchGoSleepS
 1427              	.LVL121:
 1428              		.loc 1 534 0
 1429 0040 0248     		ldr	r0, .L97+4
 1430 0042 FFF7FEFF 		bl	chSysHalt
 1431              	.LVL122:
 1432              		.loc 1 535 0
 1433              		@ sp needed
 1434              	.LVL123:
 1435              	.LVL124:
 1436 0046 70BD     		pop	{r4, r5, r6, pc}
 1437              	.L98:
 1438              		.align	2
 1439              	.L97:
 1440 0048 00000000 		.word	ch
 1441 004c 00000000 		.word	.LANCHOR8
 1442              		.cfi_endproc
 1443              	.LFE149:
 1444              		.size	chThdExitS, .-chThdExitS
 1445              		.section	.text.chThdExit,"ax",%progbits
 1446              		.align	1
 1447              		.p2align 4,,15
 1448              		.global	chThdExit
 1449              		.syntax unified
 1450              		.code	16
 1451              		.thumb_func
 1452              		.fpu softvfp
 1453              		.type	chThdExit, %function
 1454              	chThdExit:
 1455              	.LFB148:
 1456              		.loc 1 475 0
 1457              		.cfi_startproc
 1458              		@ args = 0, pretend = 0, frame = 0
 1459              		@ frame_needed = 0, uses_anonymous_args = 0
 1460              	.LVL125:
 1461 0000 10B5     		push	{r4, lr}
 1462              		.cfi_def_cfa_offset 8
 1463              		.cfi_offset 4, -8
 1464              		.cfi_offset 14, -4
 1465              		.loc 1 475 0
 1466 0002 0400     		movs	r4, r0
 1467              	.LBB363:
 1468              	.LBB364:
 1469              	.LBB365:
 1470              	.LBB366:
 1471              	.LBB367:
 1472              		.loc 3 71 0
 1473              		.syntax divided
 1474              	@ 71 "../../tmk_core/tool/chibios/ChibiOS/os/common/ext/CMSIS/include/cmsis_gcc.h" 1
 1475 0004 72B6     		cpsid i
 1476              	@ 0 "" 2
 1477              		.thumb
 1478              		.syntax unified
 1479              	.LBE367:
 1480              	.LBE366:
 1481              	.LBE365:
 1482              		.loc 4 378 0
ARM GAS  /var/folders/t8/16hdwfmd2fg_d3q6dgx6bpmw0000gn/T//ccWsgl5d.s 			page 27


 1483 0006 FFF7FEFF 		bl	_dbg_check_lock
 1484              	.LVL126:
 1485              	.LBE364:
 1486              	.LBE363:
 1487              		.loc 1 478 0
 1488 000a 2000     		movs	r0, r4
 1489 000c FFF7FEFF 		bl	chThdExitS
 1490              	.LVL127:
 1491              		.loc 1 480 0
 1492              		@ sp needed
 1493              	.LVL128:
 1494 0010 10BD     		pop	{r4, pc}
 1495              		.cfi_endproc
 1496              	.LFE148:
 1497              		.size	chThdExit, .-chThdExit
 1498 0012 C046     		.section	.text.chThdWait,"ax",%progbits
 1499              		.align	1
 1500              		.p2align 4,,15
 1501              		.global	chThdWait
 1502              		.syntax unified
 1503              		.code	16
 1504              		.thumb_func
 1505              		.fpu softvfp
 1506              		.type	chThdWait, %function
 1507              	chThdWait:
 1508              	.LFB150:
 1509              		.loc 1 557 0
 1510              		.cfi_startproc
 1511              		@ args = 0, pretend = 0, frame = 0
 1512              		@ frame_needed = 0, uses_anonymous_args = 0
 1513              	.LVL129:
 1514 0000 70B5     		push	{r4, r5, r6, lr}
 1515              		.cfi_def_cfa_offset 16
 1516              		.cfi_offset 4, -16
 1517              		.cfi_offset 5, -12
 1518              		.cfi_offset 6, -8
 1519              		.cfi_offset 14, -4
 1520              		.loc 1 557 0
 1521 0002 041E     		subs	r4, r0, #0
 1522              		.loc 1 560 0
 1523 0004 32D0     		beq	.L109
 1524              	.LVL130:
 1525              	.L101:
 1526              	.LBB380:
 1527              	.LBB381:
 1528              	.LBB382:
 1529              	.LBB383:
 1530              	.LBB384:
 1531              		.loc 3 71 0
 1532              		.syntax divided
 1533              	@ 71 "../../tmk_core/tool/chibios/ChibiOS/os/common/ext/CMSIS/include/cmsis_gcc.h" 1
 1534 0006 72B6     		cpsid i
 1535              	@ 0 "" 2
 1536              		.thumb
 1537              		.syntax unified
 1538              	.LBE384:
 1539              	.LBE383:
ARM GAS  /var/folders/t8/16hdwfmd2fg_d3q6dgx6bpmw0000gn/T//ccWsgl5d.s 			page 28


 1540              	.LBE382:
 1541              		.loc 4 378 0
 1542 0008 FFF7FEFF 		bl	_dbg_check_lock
 1543              	.LVL131:
 1544              	.LBE381:
 1545              	.LBE380:
 1546              		.loc 1 563 0
 1547 000c 194D     		ldr	r5, .L113
 1548 000e AB69     		ldr	r3, [r5, #24]
 1549 0010 A342     		cmp	r3, r4
 1550 0012 27D0     		beq	.L110
 1551              	.L102:
 1552              		.loc 1 565 0 discriminator 1
 1553 0014 2223     		movs	r3, #34
 1554 0016 E35C     		ldrb	r3, [r4, r3]
 1555 0018 002B     		cmp	r3, #0
 1556 001a 1FD0     		beq	.L111
 1557              	.L103:
 1558              		.loc 1 568 0
 1559 001c 2023     		movs	r3, #32
 1560 001e E35C     		ldrb	r3, [r4, r3]
 1561 0020 0F2B     		cmp	r3, #15
 1562 0022 06D0     		beq	.L104
 1563              		.loc 1 569 0
 1564 0024 AB69     		ldr	r3, [r5, #24]
 1565              	.LVL132:
 1566              	.LBB385:
 1567              	.LBB386:
 1568              		.loc 2 585 0
 1569 0026 A26A     		ldr	r2, [r4, #40]
 1570              	.LBE386:
 1571              	.LBE385:
 1572              		.loc 1 570 0
 1573 0028 0920     		movs	r0, #9
 1574              	.LBB388:
 1575              	.LBB387:
 1576              		.loc 2 585 0
 1577 002a 1A60     		str	r2, [r3]
 1578              		.loc 2 586 0
 1579 002c A362     		str	r3, [r4, #40]
 1580              	.LVL133:
 1581              	.LBE387:
 1582              	.LBE388:
 1583              		.loc 1 570 0
 1584 002e FFF7FEFF 		bl	chSchGoSleepS
 1585              	.LVL134:
 1586              	.L104:
 1587              		.loc 1 572 0
 1588 0032 666A     		ldr	r6, [r4, #36]
 1589              	.LVL135:
 1590              	.LBB389:
 1591              	.LBB390:
 1592              		.loc 4 388 0
 1593 0034 FFF7FEFF 		bl	_dbg_check_unlock
 1594              	.LVL136:
 1595              		.loc 4 395 0
 1596 0038 2B68     		ldr	r3, [r5]
ARM GAS  /var/folders/t8/16hdwfmd2fg_d3q6dgx6bpmw0000gn/T//ccWsgl5d.s 			page 29


 1597 003a AB42     		cmp	r3, r5
 1598 003c 04D0     		beq	.L105
 1599 003e AA69     		ldr	r2, [r5, #24]
 1600 0040 9B68     		ldr	r3, [r3, #8]
 1601 0042 9268     		ldr	r2, [r2, #8]
 1602 0044 9A42     		cmp	r2, r3
 1603 0046 05D3     		bcc	.L112
 1604              	.L105:
 1605              	.LBB391:
 1606              	.LBB392:
 1607              	.LBB393:
 1608              		.loc 3 60 0
 1609              		.syntax divided
 1610              	@ 60 "../../tmk_core/tool/chibios/ChibiOS/os/common/ext/CMSIS/include/cmsis_gcc.h" 1
 1611 0048 62B6     		cpsie i
 1612              	@ 0 "" 2
 1613              		.thumb
 1614              		.syntax unified
 1615              	.LBE393:
 1616              	.LBE392:
 1617              	.LBE391:
 1618              	.LBE390:
 1619              	.LBE389:
 1620              		.loc 1 577 0
 1621 004a 2000     		movs	r0, r4
 1622 004c FFF7FEFF 		bl	chThdRelease
 1623              	.LVL137:
 1624              		.loc 1 581 0
 1625              		@ sp needed
 1626 0050 3000     		movs	r0, r6
 1627              	.LVL138:
 1628              	.LVL139:
 1629 0052 70BD     		pop	{r4, r5, r6, pc}
 1630              	.LVL140:
 1631              	.L112:
 1632              	.LBB395:
 1633              	.LBB394:
 1634              		.loc 4 395 0
 1635 0054 0848     		ldr	r0, .L113+4
 1636 0056 FFF7FEFF 		bl	chSysHalt
 1637              	.LVL141:
 1638 005a F5E7     		b	.L105
 1639              	.LVL142:
 1640              	.L111:
 1641              	.LBE394:
 1642              	.LBE395:
 1643              		.loc 1 565 0 discriminator 2
 1644 005c 0748     		ldr	r0, .L113+8
 1645 005e FFF7FEFF 		bl	chSysHalt
 1646              	.LVL143:
 1647 0062 DBE7     		b	.L103
 1648              	.L110:
 1649              		.loc 1 563 0 discriminator 2
 1650 0064 0548     		ldr	r0, .L113+8
 1651 0066 FFF7FEFF 		bl	chSysHalt
 1652              	.LVL144:
 1653 006a D3E7     		b	.L102
ARM GAS  /var/folders/t8/16hdwfmd2fg_d3q6dgx6bpmw0000gn/T//ccWsgl5d.s 			page 30


 1654              	.LVL145:
 1655              	.L109:
 1656              		.loc 1 560 0 discriminator 2
 1657 006c 0348     		ldr	r0, .L113+8
 1658              	.LVL146:
 1659 006e FFF7FEFF 		bl	chSysHalt
 1660              	.LVL147:
 1661 0072 C8E7     		b	.L101
 1662              	.L114:
 1663              		.align	2
 1664              	.L113:
 1665 0074 00000000 		.word	ch
 1666 0078 00000000 		.word	.LANCHOR2
 1667 007c 00000000 		.word	.LANCHOR9
 1668              		.cfi_endproc
 1669              	.LFE150:
 1670              		.size	chThdWait, .-chThdWait
 1671              		.section	.text.chThdSetPriority,"ax",%progbits
 1672              		.align	1
 1673              		.p2align 4,,15
 1674              		.global	chThdSetPriority
 1675              		.syntax unified
 1676              		.code	16
 1677              		.thumb_func
 1678              		.fpu softvfp
 1679              		.type	chThdSetPriority, %function
 1680              	chThdSetPriority:
 1681              	.LFB151:
 1682              		.loc 1 596 0
 1683              		.cfi_startproc
 1684              		@ args = 0, pretend = 0, frame = 0
 1685              		@ frame_needed = 0, uses_anonymous_args = 0
 1686              	.LVL148:
 1687 0000 70B5     		push	{r4, r5, r6, lr}
 1688              		.cfi_def_cfa_offset 16
 1689              		.cfi_offset 4, -16
 1690              		.cfi_offset 5, -12
 1691              		.cfi_offset 6, -8
 1692              		.cfi_offset 14, -4
 1693              		.loc 1 596 0
 1694 0002 0500     		movs	r5, r0
 1695              		.loc 1 599 0
 1696 0004 FF28     		cmp	r0, #255
 1697 0006 1FD8     		bhi	.L120
 1698              	.LVL149:
 1699              	.L116:
 1700              	.LBB406:
 1701              	.LBB407:
 1702              	.LBB408:
 1703              	.LBB409:
 1704              	.LBB410:
 1705              		.loc 3 71 0
 1706              		.syntax divided
 1707              	@ 71 "../../tmk_core/tool/chibios/ChibiOS/os/common/ext/CMSIS/include/cmsis_gcc.h" 1
 1708 0008 72B6     		cpsid i
 1709              	@ 0 "" 2
 1710              		.thumb
ARM GAS  /var/folders/t8/16hdwfmd2fg_d3q6dgx6bpmw0000gn/T//ccWsgl5d.s 			page 31


 1711              		.syntax unified
 1712              	.LBE410:
 1713              	.LBE409:
 1714              	.LBE408:
 1715              		.loc 4 378 0
 1716 000a FFF7FEFF 		bl	_dbg_check_lock
 1717              	.LVL150:
 1718              	.LBE407:
 1719              	.LBE406:
 1720              		.loc 1 603 0
 1721 000e 104C     		ldr	r4, .L122
 1722 0010 A369     		ldr	r3, [r4, #24]
 1723 0012 DE6B     		ldr	r6, [r3, #60]
 1724              	.LVL151:
 1725              		.loc 1 604 0
 1726 0014 9A68     		ldr	r2, [r3, #8]
 1727 0016 B242     		cmp	r2, r6
 1728 0018 01D0     		beq	.L117
 1729              		.loc 1 604 0 is_stmt 0 discriminator 1
 1730 001a AA42     		cmp	r2, r5
 1731 001c 00D2     		bcs	.L118
 1732              	.L117:
 1733              		.loc 1 605 0 is_stmt 1
 1734 001e 9D60     		str	r5, [r3, #8]
 1735              	.L118:
 1736              		.loc 1 607 0
 1737 0020 DD63     		str	r5, [r3, #60]
 1738              		.loc 1 612 0
 1739 0022 FFF7FEFF 		bl	chSchRescheduleS
 1740              	.LVL152:
 1741              	.LBB411:
 1742              	.LBB412:
 1743              		.loc 4 388 0
 1744 0026 FFF7FEFF 		bl	_dbg_check_unlock
 1745              	.LVL153:
 1746              		.loc 4 395 0
 1747 002a 2368     		ldr	r3, [r4]
 1748 002c A342     		cmp	r3, r4
 1749 002e 04D0     		beq	.L119
 1750 0030 A269     		ldr	r2, [r4, #24]
 1751 0032 9B68     		ldr	r3, [r3, #8]
 1752 0034 9268     		ldr	r2, [r2, #8]
 1753 0036 9A42     		cmp	r2, r3
 1754 0038 02D3     		bcc	.L121
 1755              	.L119:
 1756              	.LBB413:
 1757              	.LBB414:
 1758              	.LBB415:
 1759              		.loc 3 60 0
 1760              		.syntax divided
 1761              	@ 60 "../../tmk_core/tool/chibios/ChibiOS/os/common/ext/CMSIS/include/cmsis_gcc.h" 1
 1762 003a 62B6     		cpsie i
 1763              	@ 0 "" 2
 1764              		.thumb
 1765              		.syntax unified
 1766              	.LBE415:
 1767              	.LBE414:
ARM GAS  /var/folders/t8/16hdwfmd2fg_d3q6dgx6bpmw0000gn/T//ccWsgl5d.s 			page 32


 1768              	.LBE413:
 1769              	.LBE412:
 1770              	.LBE411:
 1771              		.loc 1 616 0
 1772 003c 3000     		movs	r0, r6
 1773              		@ sp needed
 1774              	.LVL154:
 1775              	.LVL155:
 1776 003e 70BD     		pop	{r4, r5, r6, pc}
 1777              	.LVL156:
 1778              	.L121:
 1779              	.LBB417:
 1780              	.LBB416:
 1781              		.loc 4 395 0
 1782 0040 0448     		ldr	r0, .L122+4
 1783 0042 FFF7FEFF 		bl	chSysHalt
 1784              	.LVL157:
 1785 0046 F8E7     		b	.L119
 1786              	.LVL158:
 1787              	.L120:
 1788              	.LBE416:
 1789              	.LBE417:
 1790              		.loc 1 599 0 discriminator 2
 1791 0048 0348     		ldr	r0, .L122+8
 1792              	.LVL159:
 1793 004a FFF7FEFF 		bl	chSysHalt
 1794              	.LVL160:
 1795 004e DBE7     		b	.L116
 1796              	.L123:
 1797              		.align	2
 1798              	.L122:
 1799 0050 00000000 		.word	ch
 1800 0054 00000000 		.word	.LANCHOR2
 1801 0058 00000000 		.word	.LANCHOR10
 1802              		.cfi_endproc
 1803              	.LFE151:
 1804              		.size	chThdSetPriority, .-chThdSetPriority
 1805              		.section	.text.chThdTerminate,"ax",%progbits
 1806              		.align	1
 1807              		.p2align 4,,15
 1808              		.global	chThdTerminate
 1809              		.syntax unified
 1810              		.code	16
 1811              		.thumb_func
 1812              		.fpu softvfp
 1813              		.type	chThdTerminate, %function
 1814              	chThdTerminate:
 1815              	.LFB152:
 1816              		.loc 1 630 0
 1817              		.cfi_startproc
 1818              		@ args = 0, pretend = 0, frame = 0
 1819              		@ frame_needed = 0, uses_anonymous_args = 0
 1820              	.LVL161:
 1821 0000 10B5     		push	{r4, lr}
 1822              		.cfi_def_cfa_offset 8
 1823              		.cfi_offset 4, -8
 1824              		.cfi_offset 14, -4
ARM GAS  /var/folders/t8/16hdwfmd2fg_d3q6dgx6bpmw0000gn/T//ccWsgl5d.s 			page 33


 1825              		.loc 1 630 0
 1826 0002 0400     		movs	r4, r0
 1827              	.LBB428:
 1828              	.LBB429:
 1829              	.LBB430:
 1830              	.LBB431:
 1831              	.LBB432:
 1832              		.loc 3 71 0
 1833              		.syntax divided
 1834              	@ 71 "../../tmk_core/tool/chibios/ChibiOS/os/common/ext/CMSIS/include/cmsis_gcc.h" 1
 1835 0004 72B6     		cpsid i
 1836              	@ 0 "" 2
 1837              		.thumb
 1838              		.syntax unified
 1839              	.LBE432:
 1840              	.LBE431:
 1841              	.LBE430:
 1842              		.loc 4 378 0
 1843 0006 FFF7FEFF 		bl	_dbg_check_lock
 1844              	.LVL162:
 1845              	.LBE429:
 1846              	.LBE428:
 1847              		.loc 1 633 0
 1848 000a 2122     		movs	r2, #33
 1849 000c 0421     		movs	r1, #4
 1850 000e A35C     		ldrb	r3, [r4, r2]
 1851 0010 0B43     		orrs	r3, r1
 1852 0012 A354     		strb	r3, [r4, r2]
 1853              	.LBB433:
 1854              	.LBB434:
 1855              		.loc 4 388 0
 1856 0014 FFF7FEFF 		bl	_dbg_check_unlock
 1857              	.LVL163:
 1858              		.loc 4 395 0
 1859 0018 074B     		ldr	r3, .L127
 1860 001a 1A68     		ldr	r2, [r3]
 1861 001c 9A42     		cmp	r2, r3
 1862 001e 04D0     		beq	.L125
 1863 0020 9B69     		ldr	r3, [r3, #24]
 1864 0022 9968     		ldr	r1, [r3, #8]
 1865 0024 9368     		ldr	r3, [r2, #8]
 1866 0026 9942     		cmp	r1, r3
 1867 0028 01D3     		bcc	.L126
 1868              	.L125:
 1869              	.LBB435:
 1870              	.LBB436:
 1871              	.LBB437:
 1872              		.loc 3 60 0
 1873              		.syntax divided
 1874              	@ 60 "../../tmk_core/tool/chibios/ChibiOS/os/common/ext/CMSIS/include/cmsis_gcc.h" 1
 1875 002a 62B6     		cpsie i
 1876              	@ 0 "" 2
 1877              		.thumb
 1878              		.syntax unified
 1879              	.LBE437:
 1880              	.LBE436:
 1881              	.LBE435:
ARM GAS  /var/folders/t8/16hdwfmd2fg_d3q6dgx6bpmw0000gn/T//ccWsgl5d.s 			page 34


 1882              	.LBE434:
 1883              	.LBE433:
 1884              		.loc 1 635 0
 1885              		@ sp needed
 1886              	.LVL164:
 1887 002c 10BD     		pop	{r4, pc}
 1888              	.LVL165:
 1889              	.L126:
 1890              	.LBB439:
 1891              	.LBB438:
 1892              		.loc 4 395 0
 1893 002e 0348     		ldr	r0, .L127+4
 1894 0030 FFF7FEFF 		bl	chSysHalt
 1895              	.LVL166:
 1896 0034 F9E7     		b	.L125
 1897              	.L128:
 1898 0036 C046     		.align	2
 1899              	.L127:
 1900 0038 00000000 		.word	ch
 1901 003c 00000000 		.word	.LANCHOR2
 1902              	.LBE438:
 1903              	.LBE439:
 1904              		.cfi_endproc
 1905              	.LFE152:
 1906              		.size	chThdTerminate, .-chThdTerminate
 1907              		.section	.text.chThdSleep,"ax",%progbits
 1908              		.align	1
 1909              		.p2align 4,,15
 1910              		.global	chThdSleep
 1911              		.syntax unified
 1912              		.code	16
 1913              		.thumb_func
 1914              		.fpu softvfp
 1915              		.type	chThdSleep, %function
 1916              	chThdSleep:
 1917              	.LFB153:
 1918              		.loc 1 649 0
 1919              		.cfi_startproc
 1920              		@ args = 0, pretend = 0, frame = 0
 1921              		@ frame_needed = 0, uses_anonymous_args = 0
 1922              	.LVL167:
 1923 0000 10B5     		push	{r4, lr}
 1924              		.cfi_def_cfa_offset 8
 1925              		.cfi_offset 4, -8
 1926              		.cfi_offset 14, -4
 1927              		.loc 1 649 0
 1928 0002 0400     		movs	r4, r0
 1929              	.LBB452:
 1930              	.LBB453:
 1931              	.LBB454:
 1932              	.LBB455:
 1933              	.LBB456:
 1934              		.loc 3 71 0
 1935              		.syntax divided
 1936              	@ 71 "../../tmk_core/tool/chibios/ChibiOS/os/common/ext/CMSIS/include/cmsis_gcc.h" 1
 1937 0004 72B6     		cpsid i
 1938              	@ 0 "" 2
ARM GAS  /var/folders/t8/16hdwfmd2fg_d3q6dgx6bpmw0000gn/T//ccWsgl5d.s 			page 35


 1939              		.thumb
 1940              		.syntax unified
 1941              	.LBE456:
 1942              	.LBE455:
 1943              	.LBE454:
 1944              		.loc 4 378 0
 1945 0006 FFF7FEFF 		bl	_dbg_check_lock
 1946              	.LVL168:
 1947              	.LBE453:
 1948              	.LBE452:
 1949              	.LBB457:
 1950              	.LBB458:
 1951              		.file 5 "../../tmk_core/tool/chibios/ChibiOS/os/rt/include/chthreads.h"
 1952              		.loc 5 383 0
 1953 000a 002C     		cmp	r4, #0
 1954 000c 02D1     		bne	.L130
 1955 000e 0C48     		ldr	r0, .L133
 1956 0010 FFF7FEFF 		bl	chSysHalt
 1957              	.LVL169:
 1958              	.L130:
 1959              		.loc 5 385 0
 1960 0014 2100     		movs	r1, r4
 1961 0016 0820     		movs	r0, #8
 1962 0018 FFF7FEFF 		bl	chSchGoSleepTimeoutS
 1963              	.LVL170:
 1964              	.LBE458:
 1965              	.LBE457:
 1966              	.LBB459:
 1967              	.LBB460:
 1968              		.loc 4 388 0
 1969 001c FFF7FEFF 		bl	_dbg_check_unlock
 1970              	.LVL171:
 1971              		.loc 4 395 0
 1972 0020 084B     		ldr	r3, .L133+4
 1973 0022 1A68     		ldr	r2, [r3]
 1974 0024 9A42     		cmp	r2, r3
 1975 0026 04D0     		beq	.L131
 1976 0028 9B69     		ldr	r3, [r3, #24]
 1977 002a 9968     		ldr	r1, [r3, #8]
 1978 002c 9368     		ldr	r3, [r2, #8]
 1979 002e 9942     		cmp	r1, r3
 1980 0030 01D3     		bcc	.L132
 1981              	.L131:
 1982              	.LBB461:
 1983              	.LBB462:
 1984              	.LBB463:
 1985              		.loc 3 60 0
 1986              		.syntax divided
 1987              	@ 60 "../../tmk_core/tool/chibios/ChibiOS/os/common/ext/CMSIS/include/cmsis_gcc.h" 1
 1988 0032 62B6     		cpsie i
 1989              	@ 0 "" 2
 1990              		.thumb
 1991              		.syntax unified
 1992              	.LBE463:
 1993              	.LBE462:
 1994              	.LBE461:
 1995              	.LBE460:
ARM GAS  /var/folders/t8/16hdwfmd2fg_d3q6dgx6bpmw0000gn/T//ccWsgl5d.s 			page 36


 1996              	.LBE459:
 1997              		.loc 1 654 0
 1998              		@ sp needed
 1999              	.LVL172:
 2000 0034 10BD     		pop	{r4, pc}
 2001              	.LVL173:
 2002              	.L132:
 2003              	.LBB465:
 2004              	.LBB464:
 2005              		.loc 4 395 0
 2006 0036 0448     		ldr	r0, .L133+8
 2007 0038 FFF7FEFF 		bl	chSysHalt
 2008              	.LVL174:
 2009 003c F9E7     		b	.L131
 2010              	.L134:
 2011 003e C046     		.align	2
 2012              	.L133:
 2013 0040 00000000 		.word	.LANCHOR11
 2014 0044 00000000 		.word	ch
 2015 0048 00000000 		.word	.LANCHOR2
 2016              	.LBE464:
 2017              	.LBE465:
 2018              		.cfi_endproc
 2019              	.LFE153:
 2020              		.size	chThdSleep, .-chThdSleep
 2021              		.section	.text.chThdSleepUntil,"ax",%progbits
 2022              		.align	1
 2023              		.p2align 4,,15
 2024              		.global	chThdSleepUntil
 2025              		.syntax unified
 2026              		.code	16
 2027              		.thumb_func
 2028              		.fpu softvfp
 2029              		.type	chThdSleepUntil, %function
 2030              	chThdSleepUntil:
 2031              	.LFB154:
 2032              		.loc 1 669 0
 2033              		.cfi_startproc
 2034              		@ args = 0, pretend = 0, frame = 0
 2035              		@ frame_needed = 0, uses_anonymous_args = 0
 2036              	.LVL175:
 2037 0000 70B5     		push	{r4, r5, r6, lr}
 2038              		.cfi_def_cfa_offset 16
 2039              		.cfi_offset 4, -16
 2040              		.cfi_offset 5, -12
 2041              		.cfi_offset 6, -8
 2042              		.cfi_offset 14, -4
 2043              		.loc 1 669 0
 2044 0002 0500     		movs	r5, r0
 2045              	.LBB480:
 2046              	.LBB481:
 2047              	.LBB482:
 2048              	.LBB483:
 2049              	.LBB484:
 2050              		.loc 3 71 0
 2051              		.syntax divided
 2052              	@ 71 "../../tmk_core/tool/chibios/ChibiOS/os/common/ext/CMSIS/include/cmsis_gcc.h" 1
ARM GAS  /var/folders/t8/16hdwfmd2fg_d3q6dgx6bpmw0000gn/T//ccWsgl5d.s 			page 37


 2053 0004 72B6     		cpsid i
 2054              	@ 0 "" 2
 2055              		.thumb
 2056              		.syntax unified
 2057              	.LBE484:
 2058              	.LBE483:
 2059              	.LBE482:
 2060              		.loc 4 378 0
 2061 0006 FFF7FEFF 		bl	_dbg_check_lock
 2062              	.LVL176:
 2063              	.LBE481:
 2064              	.LBE480:
 2065              	.LBB485:
 2066              	.LBB486:
 2067              		.file 6 "../../tmk_core/tool/chibios/ChibiOS/os/rt/include/chvt.h"
 2068              		.loc 6 231 0
 2069 000a 0B4C     		ldr	r4, .L142
 2070 000c A16A     		ldr	r1, [r4, #40]
 2071              	.LBE486:
 2072              	.LBE485:
 2073              		.loc 1 672 0
 2074 000e 691A     		subs	r1, r5, r1
 2075              	.LVL177:
 2076              		.loc 1 673 0
 2077 0010 02D0     		beq	.L136
 2078              	.LVL178:
 2079              	.LBB487:
 2080              	.LBB488:
 2081              		.loc 5 385 0
 2082 0012 0820     		movs	r0, #8
 2083 0014 FFF7FEFF 		bl	chSchGoSleepTimeoutS
 2084              	.LVL179:
 2085              	.L136:
 2086              	.LBE488:
 2087              	.LBE487:
 2088              	.LBB489:
 2089              	.LBB490:
 2090              		.loc 4 388 0
 2091 0018 FFF7FEFF 		bl	_dbg_check_unlock
 2092              	.LVL180:
 2093              		.loc 4 395 0
 2094 001c 2368     		ldr	r3, [r4]
 2095 001e A342     		cmp	r3, r4
 2096 0020 04D0     		beq	.L137
 2097 0022 A269     		ldr	r2, [r4, #24]
 2098 0024 9B68     		ldr	r3, [r3, #8]
 2099 0026 9268     		ldr	r2, [r2, #8]
 2100 0028 9A42     		cmp	r2, r3
 2101 002a 01D3     		bcc	.L141
 2102              	.L137:
 2103              	.LBB491:
 2104              	.LBB492:
 2105              	.LBB493:
 2106              		.loc 3 60 0
 2107              		.syntax divided
 2108              	@ 60 "../../tmk_core/tool/chibios/ChibiOS/os/common/ext/CMSIS/include/cmsis_gcc.h" 1
 2109 002c 62B6     		cpsie i
ARM GAS  /var/folders/t8/16hdwfmd2fg_d3q6dgx6bpmw0000gn/T//ccWsgl5d.s 			page 38


 2110              	@ 0 "" 2
 2111              		.thumb
 2112              		.syntax unified
 2113              	.LBE493:
 2114              	.LBE492:
 2115              	.LBE491:
 2116              	.LBE490:
 2117              	.LBE489:
 2118              		.loc 1 677 0
 2119              		@ sp needed
 2120 002e 70BD     		pop	{r4, r5, r6, pc}
 2121              	.L141:
 2122              	.LBB495:
 2123              	.LBB494:
 2124              		.loc 4 395 0
 2125 0030 0248     		ldr	r0, .L142+4
 2126 0032 FFF7FEFF 		bl	chSysHalt
 2127              	.LVL181:
 2128 0036 F9E7     		b	.L137
 2129              	.L143:
 2130              		.align	2
 2131              	.L142:
 2132 0038 00000000 		.word	ch
 2133 003c 00000000 		.word	.LANCHOR2
 2134              	.LBE494:
 2135              	.LBE495:
 2136              		.cfi_endproc
 2137              	.LFE154:
 2138              		.size	chThdSleepUntil, .-chThdSleepUntil
 2139              		.section	.text.chThdSleepUntilWindowed,"ax",%progbits
 2140              		.align	1
 2141              		.p2align 4,,15
 2142              		.global	chThdSleepUntilWindowed
 2143              		.syntax unified
 2144              		.code	16
 2145              		.thumb_func
 2146              		.fpu softvfp
 2147              		.type	chThdSleepUntilWindowed, %function
 2148              	chThdSleepUntilWindowed:
 2149              	.LFB155:
 2150              		.loc 1 693 0
 2151              		.cfi_startproc
 2152              		@ args = 0, pretend = 0, frame = 0
 2153              		@ frame_needed = 0, uses_anonymous_args = 0
 2154              	.LVL182:
 2155 0000 70B5     		push	{r4, r5, r6, lr}
 2156              		.cfi_def_cfa_offset 16
 2157              		.cfi_offset 4, -16
 2158              		.cfi_offset 5, -12
 2159              		.cfi_offset 6, -8
 2160              		.cfi_offset 14, -4
 2161              		.loc 1 693 0
 2162 0002 0400     		movs	r4, r0
 2163 0004 0E00     		movs	r6, r1
 2164              	.LBB512:
 2165              	.LBB513:
 2166              	.LBB514:
ARM GAS  /var/folders/t8/16hdwfmd2fg_d3q6dgx6bpmw0000gn/T//ccWsgl5d.s 			page 39


 2167              	.LBB515:
 2168              	.LBB516:
 2169              		.loc 3 71 0
 2170              		.syntax divided
 2171              	@ 71 "../../tmk_core/tool/chibios/ChibiOS/os/common/ext/CMSIS/include/cmsis_gcc.h" 1
 2172 0006 72B6     		cpsid i
 2173              	@ 0 "" 2
 2174              		.thumb
 2175              		.syntax unified
 2176              	.LBE516:
 2177              	.LBE515:
 2178              	.LBE514:
 2179              		.loc 4 378 0
 2180 0008 FFF7FEFF 		bl	_dbg_check_lock
 2181              	.LVL183:
 2182              	.LBE513:
 2183              	.LBE512:
 2184              	.LBB517:
 2185              	.LBB518:
 2186              		.loc 6 231 0
 2187 000c 104D     		ldr	r5, .L150
 2188 000e A96A     		ldr	r1, [r5, #40]
 2189              	.LBE518:
 2190              	.LBE517:
 2191              	.LBB519:
 2192              	.LBB520:
 2193              		.loc 6 288 0
 2194 0010 0B1B     		subs	r3, r1, r4
 2195 0012 341B     		subs	r4, r6, r4
 2196              	.LVL184:
 2197              	.LBE520:
 2198              	.LBE519:
 2199              		.loc 1 698 0
 2200 0014 A342     		cmp	r3, r4
 2201 0016 10D3     		bcc	.L148
 2202              	.L145:
 2203              	.LBB521:
 2204              	.LBB522:
 2205              		.loc 4 388 0
 2206 0018 FFF7FEFF 		bl	_dbg_check_unlock
 2207              	.LVL185:
 2208              		.loc 4 395 0
 2209 001c 2B68     		ldr	r3, [r5]
 2210 001e AB42     		cmp	r3, r5
 2211 0020 04D0     		beq	.L147
 2212 0022 AA69     		ldr	r2, [r5, #24]
 2213 0024 9B68     		ldr	r3, [r3, #8]
 2214 0026 9268     		ldr	r2, [r2, #8]
 2215 0028 9A42     		cmp	r2, r3
 2216 002a 02D3     		bcc	.L149
 2217              	.L147:
 2218              	.LBB523:
 2219              	.LBB524:
 2220              	.LBB525:
 2221              		.loc 3 60 0
 2222              		.syntax divided
 2223              	@ 60 "../../tmk_core/tool/chibios/ChibiOS/os/common/ext/CMSIS/include/cmsis_gcc.h" 1
ARM GAS  /var/folders/t8/16hdwfmd2fg_d3q6dgx6bpmw0000gn/T//ccWsgl5d.s 			page 40


 2224 002c 62B6     		cpsie i
 2225              	@ 0 "" 2
 2226              		.thumb
 2227              		.syntax unified
 2228              	.LBE525:
 2229              	.LBE524:
 2230              	.LBE523:
 2231              	.LBE522:
 2232              	.LBE521:
 2233              		.loc 1 704 0
 2234 002e 3000     		movs	r0, r6
 2235              		@ sp needed
 2236              	.LVL186:
 2237 0030 70BD     		pop	{r4, r5, r6, pc}
 2238              	.LVL187:
 2239              	.L149:
 2240              	.LBB527:
 2241              	.LBB526:
 2242              		.loc 4 395 0
 2243 0032 0848     		ldr	r0, .L150+4
 2244 0034 FFF7FEFF 		bl	chSysHalt
 2245              	.LVL188:
 2246 0038 F8E7     		b	.L147
 2247              	.L148:
 2248              	.LBE526:
 2249              	.LBE527:
 2250              		.loc 1 699 0
 2251 003a 741A     		subs	r4, r6, r1
 2252              	.LVL189:
 2253              	.LBB528:
 2254              	.LBB529:
 2255              		.loc 5 383 0
 2256 003c 02D1     		bne	.L146
 2257 003e 0648     		ldr	r0, .L150+8
 2258 0040 FFF7FEFF 		bl	chSysHalt
 2259              	.LVL190:
 2260              	.L146:
 2261              		.loc 5 385 0
 2262 0044 2100     		movs	r1, r4
 2263 0046 0820     		movs	r0, #8
 2264 0048 FFF7FEFF 		bl	chSchGoSleepTimeoutS
 2265              	.LVL191:
 2266 004c E4E7     		b	.L145
 2267              	.L151:
 2268 004e C046     		.align	2
 2269              	.L150:
 2270 0050 00000000 		.word	ch
 2271 0054 00000000 		.word	.LANCHOR2
 2272 0058 00000000 		.word	.LANCHOR11
 2273              	.LBE529:
 2274              	.LBE528:
 2275              		.cfi_endproc
 2276              	.LFE155:
 2277              		.size	chThdSleepUntilWindowed, .-chThdSleepUntilWindowed
 2278              		.section	.text.chThdYield,"ax",%progbits
 2279              		.align	1
 2280              		.p2align 4,,15
ARM GAS  /var/folders/t8/16hdwfmd2fg_d3q6dgx6bpmw0000gn/T//ccWsgl5d.s 			page 41


 2281              		.global	chThdYield
 2282              		.syntax unified
 2283              		.code	16
 2284              		.thumb_func
 2285              		.fpu softvfp
 2286              		.type	chThdYield, %function
 2287              	chThdYield:
 2288              	.LFB156:
 2289              		.loc 1 713 0
 2290              		.cfi_startproc
 2291              		@ args = 0, pretend = 0, frame = 0
 2292              		@ frame_needed = 0, uses_anonymous_args = 0
 2293 0000 10B5     		push	{r4, lr}
 2294              		.cfi_def_cfa_offset 8
 2295              		.cfi_offset 4, -8
 2296              		.cfi_offset 14, -4
 2297              	.LBB544:
 2298              	.LBB545:
 2299              	.LBB546:
 2300              	.LBB547:
 2301              	.LBB548:
 2302              		.loc 3 71 0
 2303              		.syntax divided
 2304              	@ 71 "../../tmk_core/tool/chibios/ChibiOS/os/common/ext/CMSIS/include/cmsis_gcc.h" 1
 2305 0002 72B6     		cpsid i
 2306              	@ 0 "" 2
 2307              		.thumb
 2308              		.syntax unified
 2309              	.LBE548:
 2310              	.LBE547:
 2311              	.LBE546:
 2312              		.loc 4 378 0
 2313 0004 FFF7FEFF 		bl	_dbg_check_lock
 2314              	.LVL192:
 2315              	.LBE545:
 2316              	.LBE544:
 2317              	.LBB549:
 2318              	.LBB550:
 2319              		.loc 2 689 0
 2320 0008 FFF7FEFF 		bl	chDbgCheckClassS
 2321              	.LVL193:
 2322              	.LBB551:
 2323              	.LBB552:
 2324              		.loc 2 675 0
 2325 000c FFF7FEFF 		bl	chDbgCheckClassS
 2326              	.LVL194:
 2327              		.loc 2 677 0
 2328 0010 0C4C     		ldr	r4, .L156
 2329 0012 2268     		ldr	r2, [r4]
 2330 0014 A369     		ldr	r3, [r4, #24]
 2331              	.LBE552:
 2332              	.LBE551:
 2333              		.loc 2 691 0
 2334 0016 9268     		ldr	r2, [r2, #8]
 2335 0018 9B68     		ldr	r3, [r3, #8]
 2336 001a 9A42     		cmp	r2, r3
 2337 001c 01D3     		bcc	.L153
ARM GAS  /var/folders/t8/16hdwfmd2fg_d3q6dgx6bpmw0000gn/T//ccWsgl5d.s 			page 42


 2338              		.loc 2 692 0
 2339 001e FFF7FEFF 		bl	chSchDoRescheduleBehind
 2340              	.LVL195:
 2341              	.L153:
 2342              	.LBE550:
 2343              	.LBE549:
 2344              	.LBB553:
 2345              	.LBB554:
 2346              		.loc 4 388 0
 2347 0022 FFF7FEFF 		bl	_dbg_check_unlock
 2348              	.LVL196:
 2349              		.loc 4 395 0
 2350 0026 2368     		ldr	r3, [r4]
 2351 0028 A342     		cmp	r3, r4
 2352 002a 04D0     		beq	.L154
 2353 002c A269     		ldr	r2, [r4, #24]
 2354 002e 9B68     		ldr	r3, [r3, #8]
 2355 0030 9268     		ldr	r2, [r2, #8]
 2356 0032 9A42     		cmp	r2, r3
 2357 0034 01D3     		bcc	.L155
 2358              	.L154:
 2359              	.LBB555:
 2360              	.LBB556:
 2361              	.LBB557:
 2362              		.loc 3 60 0
 2363              		.syntax divided
 2364              	@ 60 "../../tmk_core/tool/chibios/ChibiOS/os/common/ext/CMSIS/include/cmsis_gcc.h" 1
 2365 0036 62B6     		cpsie i
 2366              	@ 0 "" 2
 2367              		.thumb
 2368              		.syntax unified
 2369              	.LBE557:
 2370              	.LBE556:
 2371              	.LBE555:
 2372              	.LBE554:
 2373              	.LBE553:
 2374              		.loc 1 718 0
 2375              		@ sp needed
 2376 0038 10BD     		pop	{r4, pc}
 2377              	.L155:
 2378              	.LBB559:
 2379              	.LBB558:
 2380              		.loc 4 395 0
 2381 003a 0348     		ldr	r0, .L156+4
 2382 003c FFF7FEFF 		bl	chSysHalt
 2383              	.LVL197:
 2384 0040 F9E7     		b	.L154
 2385              	.L157:
 2386 0042 C046     		.align	2
 2387              	.L156:
 2388 0044 00000000 		.word	ch
 2389 0048 00000000 		.word	.LANCHOR2
 2390              	.LBE558:
 2391              	.LBE559:
 2392              		.cfi_endproc
 2393              	.LFE156:
 2394              		.size	chThdYield, .-chThdYield
ARM GAS  /var/folders/t8/16hdwfmd2fg_d3q6dgx6bpmw0000gn/T//ccWsgl5d.s 			page 43


 2395              		.section	.text.chThdSuspendS,"ax",%progbits
 2396              		.align	1
 2397              		.p2align 4,,15
 2398              		.global	chThdSuspendS
 2399              		.syntax unified
 2400              		.code	16
 2401              		.thumb_func
 2402              		.fpu softvfp
 2403              		.type	chThdSuspendS, %function
 2404              	chThdSuspendS:
 2405              	.LFB157:
 2406              		.loc 1 730 0
 2407              		.cfi_startproc
 2408              		@ args = 0, pretend = 0, frame = 0
 2409              		@ frame_needed = 0, uses_anonymous_args = 0
 2410              	.LVL198:
 2411 0000 70B5     		push	{r4, r5, r6, lr}
 2412              		.cfi_def_cfa_offset 16
 2413              		.cfi_offset 4, -16
 2414              		.cfi_offset 5, -12
 2415              		.cfi_offset 6, -8
 2416              		.cfi_offset 14, -4
 2417              		.loc 1 733 0
 2418 0002 0368     		ldr	r3, [r0]
 2419              	.LBB560:
 2420              	.LBB561:
 2421              		.loc 5 277 0
 2422 0004 074D     		ldr	r5, .L163
 2423              	.LBE561:
 2424              	.LBE560:
 2425              		.loc 1 730 0
 2426 0006 0400     		movs	r4, r0
 2427              	.LBB563:
 2428              	.LBB562:
 2429              		.loc 5 277 0
 2430 0008 AE69     		ldr	r6, [r5, #24]
 2431              	.LBE562:
 2432              	.LBE563:
 2433              		.loc 1 733 0
 2434 000a 002B     		cmp	r3, #0
 2435 000c 02D0     		beq	.L159
 2436              		.loc 1 733 0 is_stmt 0 discriminator 2
 2437 000e 0648     		ldr	r0, .L163+4
 2438              	.LVL199:
 2439 0010 FFF7FEFF 		bl	chSysHalt
 2440              	.LVL200:
 2441              	.L159:
 2442              		.loc 1 735 0 is_stmt 1
 2443 0014 2660     		str	r6, [r4]
 2444              		.loc 1 737 0
 2445 0016 0320     		movs	r0, #3
 2446              		.loc 1 736 0
 2447 0018 7462     		str	r4, [r6, #36]
 2448              		.loc 1 737 0
 2449 001a FFF7FEFF 		bl	chSchGoSleepS
 2450              	.LVL201:
 2451              		.loc 1 739 0
ARM GAS  /var/folders/t8/16hdwfmd2fg_d3q6dgx6bpmw0000gn/T//ccWsgl5d.s 			page 44


 2452 001e AB69     		ldr	r3, [r5, #24]
 2453              		.loc 1 740 0
 2454              		@ sp needed
 2455              		.loc 1 739 0
 2456 0020 586A     		ldr	r0, [r3, #36]
 2457              	.LVL202:
 2458              		.loc 1 740 0
 2459 0022 70BD     		pop	{r4, r5, r6, pc}
 2460              	.L164:
 2461              		.align	2
 2462              	.L163:
 2463 0024 00000000 		.word	ch
 2464 0028 00000000 		.word	.LANCHOR12
 2465              		.cfi_endproc
 2466              	.LFE157:
 2467              		.size	chThdSuspendS, .-chThdSuspendS
 2468              		.section	.text.chThdSuspendTimeoutS,"ax",%progbits
 2469              		.align	1
 2470              		.p2align 4,,15
 2471              		.global	chThdSuspendTimeoutS
 2472              		.syntax unified
 2473              		.code	16
 2474              		.thumb_func
 2475              		.fpu softvfp
 2476              		.type	chThdSuspendTimeoutS, %function
 2477              	chThdSuspendTimeoutS:
 2478              	.LFB158:
 2479              		.loc 1 761 0
 2480              		.cfi_startproc
 2481              		@ args = 0, pretend = 0, frame = 0
 2482              		@ frame_needed = 0, uses_anonymous_args = 0
 2483              	.LVL203:
 2484              	.LBB564:
 2485              	.LBB565:
 2486              		.loc 5 277 0
 2487 0000 0B4B     		ldr	r3, .L172
 2488              	.LBE565:
 2489              	.LBE564:
 2490              		.loc 1 761 0
 2491 0002 70B5     		push	{r4, r5, r6, lr}
 2492              		.cfi_def_cfa_offset 16
 2493              		.cfi_offset 4, -16
 2494              		.cfi_offset 5, -12
 2495              		.cfi_offset 6, -8
 2496              		.cfi_offset 14, -4
 2497              	.LBB567:
 2498              	.LBB566:
 2499              		.loc 5 277 0
 2500 0004 9E69     		ldr	r6, [r3, #24]
 2501              	.LBE566:
 2502              	.LBE567:
 2503              		.loc 1 764 0
 2504 0006 0368     		ldr	r3, [r0]
 2505              		.loc 1 761 0
 2506 0008 0400     		movs	r4, r0
 2507 000a 0D00     		movs	r5, r1
 2508              		.loc 1 764 0
ARM GAS  /var/folders/t8/16hdwfmd2fg_d3q6dgx6bpmw0000gn/T//ccWsgl5d.s 			page 45


 2509 000c 002B     		cmp	r3, #0
 2510 000e 02D0     		beq	.L166
 2511              		.loc 1 764 0 is_stmt 0 discriminator 2
 2512 0010 0848     		ldr	r0, .L172+4
 2513              	.LVL204:
 2514 0012 FFF7FEFF 		bl	chSysHalt
 2515              	.LVL205:
 2516              	.L166:
 2517              		.loc 1 766 0 is_stmt 1
 2518 0016 002D     		cmp	r5, #0
 2519 0018 06D0     		beq	.L168
 2520              		.loc 1 770 0
 2521 001a 2660     		str	r6, [r4]
 2522              		.loc 1 773 0
 2523 001c 2900     		movs	r1, r5
 2524              		.loc 1 771 0
 2525 001e 7462     		str	r4, [r6, #36]
 2526              		.loc 1 773 0
 2527 0020 0320     		movs	r0, #3
 2528 0022 FFF7FEFF 		bl	chSchGoSleepTimeoutS
 2529              	.LVL206:
 2530              	.L165:
 2531              		.loc 1 774 0
 2532              		@ sp needed
 2533              	.LVL207:
 2534              	.LVL208:
 2535 0026 70BD     		pop	{r4, r5, r6, pc}
 2536              	.LVL209:
 2537              	.L168:
 2538              		.loc 1 767 0
 2539 0028 0120     		movs	r0, #1
 2540 002a 4042     		rsbs	r0, r0, #0
 2541 002c FBE7     		b	.L165
 2542              	.L173:
 2543 002e C046     		.align	2
 2544              	.L172:
 2545 0030 00000000 		.word	ch
 2546 0034 00000000 		.word	.LANCHOR13
 2547              		.cfi_endproc
 2548              	.LFE158:
 2549              		.size	chThdSuspendTimeoutS, .-chThdSuspendTimeoutS
 2550              		.section	.text.chThdResumeI,"ax",%progbits
 2551              		.align	1
 2552              		.p2align 4,,15
 2553              		.global	chThdResumeI
 2554              		.syntax unified
 2555              		.code	16
 2556              		.thumb_func
 2557              		.fpu softvfp
 2558              		.type	chThdResumeI, %function
 2559              	chThdResumeI:
 2560              	.LFB159:
 2561              		.loc 1 786 0
 2562              		.cfi_startproc
 2563              		@ args = 0, pretend = 0, frame = 0
 2564              		@ frame_needed = 0, uses_anonymous_args = 0
 2565              	.LVL210:
ARM GAS  /var/folders/t8/16hdwfmd2fg_d3q6dgx6bpmw0000gn/T//ccWsgl5d.s 			page 46


 2566 0000 70B5     		push	{r4, r5, r6, lr}
 2567              		.cfi_def_cfa_offset 16
 2568              		.cfi_offset 4, -16
 2569              		.cfi_offset 5, -12
 2570              		.cfi_offset 6, -8
 2571              		.cfi_offset 14, -4
 2572              		.loc 1 788 0
 2573 0002 0468     		ldr	r4, [r0]
 2574              		.loc 1 786 0
 2575 0004 0500     		movs	r5, r0
 2576 0006 0E00     		movs	r6, r1
 2577              		.loc 1 788 0
 2578 0008 002C     		cmp	r4, #0
 2579 000a 09D0     		beq	.L174
 2580              	.LVL211:
 2581              	.LBB568:
 2582              		.loc 1 791 0
 2583 000c 2023     		movs	r3, #32
 2584 000e E35C     		ldrb	r3, [r4, r3]
 2585 0010 032B     		cmp	r3, #3
 2586 0012 06D1     		bne	.L183
 2587              	.LVL212:
 2588              	.L176:
 2589              		.loc 1 793 0
 2590 0014 0023     		movs	r3, #0
 2591              		.loc 1 795 0
 2592 0016 2000     		movs	r0, r4
 2593              		.loc 1 793 0
 2594 0018 2B60     		str	r3, [r5]
 2595              		.loc 1 794 0
 2596 001a 6662     		str	r6, [r4, #36]
 2597              		.loc 1 795 0
 2598 001c FFF7FEFF 		bl	chSchReadyI
 2599              	.LVL213:
 2600              	.L174:
 2601              	.LBE568:
 2602              		.loc 1 797 0
 2603              		@ sp needed
 2604              	.LVL214:
 2605              	.LVL215:
 2606 0020 70BD     		pop	{r4, r5, r6, pc}
 2607              	.LVL216:
 2608              	.L183:
 2609              	.LBB569:
 2610              		.loc 1 791 0 discriminator 2
 2611 0022 0248     		ldr	r0, .L184
 2612              	.LVL217:
 2613 0024 FFF7FEFF 		bl	chSysHalt
 2614              	.LVL218:
 2615 0028 F4E7     		b	.L176
 2616              	.L185:
 2617 002a C046     		.align	2
 2618              	.L184:
 2619 002c 00000000 		.word	.LANCHOR14
 2620              	.LBE569:
 2621              		.cfi_endproc
 2622              	.LFE159:
ARM GAS  /var/folders/t8/16hdwfmd2fg_d3q6dgx6bpmw0000gn/T//ccWsgl5d.s 			page 47


 2623              		.size	chThdResumeI, .-chThdResumeI
 2624              		.section	.text.chThdResumeS,"ax",%progbits
 2625              		.align	1
 2626              		.p2align 4,,15
 2627              		.global	chThdResumeS
 2628              		.syntax unified
 2629              		.code	16
 2630              		.thumb_func
 2631              		.fpu softvfp
 2632              		.type	chThdResumeS, %function
 2633              	chThdResumeS:
 2634              	.LFB160:
 2635              		.loc 1 809 0
 2636              		.cfi_startproc
 2637              		@ args = 0, pretend = 0, frame = 0
 2638              		@ frame_needed = 0, uses_anonymous_args = 0
 2639              	.LVL219:
 2640 0000 70B5     		push	{r4, r5, r6, lr}
 2641              		.cfi_def_cfa_offset 16
 2642              		.cfi_offset 4, -16
 2643              		.cfi_offset 5, -12
 2644              		.cfi_offset 6, -8
 2645              		.cfi_offset 14, -4
 2646              		.loc 1 811 0
 2647 0002 0468     		ldr	r4, [r0]
 2648              		.loc 1 809 0
 2649 0004 0500     		movs	r5, r0
 2650 0006 0E00     		movs	r6, r1
 2651              		.loc 1 811 0
 2652 0008 002C     		cmp	r4, #0
 2653 000a 09D0     		beq	.L186
 2654              	.LVL220:
 2655              	.LBB570:
 2656              		.loc 1 814 0
 2657 000c 2023     		movs	r3, #32
 2658 000e E35C     		ldrb	r3, [r4, r3]
 2659 0010 032B     		cmp	r3, #3
 2660 0012 06D1     		bne	.L195
 2661              	.LVL221:
 2662              	.L188:
 2663              		.loc 1 816 0
 2664 0014 0023     		movs	r3, #0
 2665              		.loc 1 817 0
 2666 0016 3100     		movs	r1, r6
 2667              		.loc 1 816 0
 2668 0018 2B60     		str	r3, [r5]
 2669              		.loc 1 817 0
 2670 001a 2000     		movs	r0, r4
 2671 001c FFF7FEFF 		bl	chSchWakeupS
 2672              	.LVL222:
 2673              	.L186:
 2674              	.LBE570:
 2675              		.loc 1 819 0
 2676              		@ sp needed
 2677              	.LVL223:
 2678              	.LVL224:
 2679 0020 70BD     		pop	{r4, r5, r6, pc}
ARM GAS  /var/folders/t8/16hdwfmd2fg_d3q6dgx6bpmw0000gn/T//ccWsgl5d.s 			page 48


 2680              	.LVL225:
 2681              	.L195:
 2682              	.LBB571:
 2683              		.loc 1 814 0 discriminator 2
 2684 0022 0248     		ldr	r0, .L196
 2685              	.LVL226:
 2686 0024 FFF7FEFF 		bl	chSysHalt
 2687              	.LVL227:
 2688 0028 F4E7     		b	.L188
 2689              	.L197:
 2690 002a C046     		.align	2
 2691              	.L196:
 2692 002c 00000000 		.word	.LANCHOR15
 2693              	.LBE571:
 2694              		.cfi_endproc
 2695              	.LFE160:
 2696              		.size	chThdResumeS, .-chThdResumeS
 2697              		.section	.text.chThdResume,"ax",%progbits
 2698              		.align	1
 2699              		.p2align 4,,15
 2700              		.global	chThdResume
 2701              		.syntax unified
 2702              		.code	16
 2703              		.thumb_func
 2704              		.fpu softvfp
 2705              		.type	chThdResume, %function
 2706              	chThdResume:
 2707              	.LFB161:
 2708              		.loc 1 831 0
 2709              		.cfi_startproc
 2710              		@ args = 0, pretend = 0, frame = 0
 2711              		@ frame_needed = 0, uses_anonymous_args = 0
 2712              	.LVL228:
 2713 0000 70B5     		push	{r4, r5, r6, lr}
 2714              		.cfi_def_cfa_offset 16
 2715              		.cfi_offset 4, -16
 2716              		.cfi_offset 5, -12
 2717              		.cfi_offset 6, -8
 2718              		.cfi_offset 14, -4
 2719              		.loc 1 831 0
 2720 0002 0400     		movs	r4, r0
 2721 0004 0D00     		movs	r5, r1
 2722              	.LBB582:
 2723              	.LBB583:
 2724              	.LBB584:
 2725              	.LBB585:
 2726              	.LBB586:
 2727              		.loc 3 71 0
 2728              		.syntax divided
 2729              	@ 71 "../../tmk_core/tool/chibios/ChibiOS/os/common/ext/CMSIS/include/cmsis_gcc.h" 1
 2730 0006 72B6     		cpsid i
 2731              	@ 0 "" 2
 2732              		.thumb
 2733              		.syntax unified
 2734              	.LBE586:
 2735              	.LBE585:
 2736              	.LBE584:
ARM GAS  /var/folders/t8/16hdwfmd2fg_d3q6dgx6bpmw0000gn/T//ccWsgl5d.s 			page 49


 2737              		.loc 4 378 0
 2738 0008 FFF7FEFF 		bl	_dbg_check_lock
 2739              	.LVL229:
 2740              	.LBE583:
 2741              	.LBE582:
 2742              		.loc 1 834 0
 2743 000c 2900     		movs	r1, r5
 2744 000e 2000     		movs	r0, r4
 2745 0010 FFF7FEFF 		bl	chThdResumeS
 2746              	.LVL230:
 2747              	.LBB587:
 2748              	.LBB588:
 2749              		.loc 4 388 0
 2750 0014 FFF7FEFF 		bl	_dbg_check_unlock
 2751              	.LVL231:
 2752              		.loc 4 395 0
 2753 0018 074B     		ldr	r3, .L201
 2754 001a 1A68     		ldr	r2, [r3]
 2755 001c 9A42     		cmp	r2, r3
 2756 001e 04D0     		beq	.L199
 2757 0020 9B69     		ldr	r3, [r3, #24]
 2758 0022 9968     		ldr	r1, [r3, #8]
 2759 0024 9368     		ldr	r3, [r2, #8]
 2760 0026 9942     		cmp	r1, r3
 2761 0028 01D3     		bcc	.L200
 2762              	.L199:
 2763              	.LBB589:
 2764              	.LBB590:
 2765              	.LBB591:
 2766              		.loc 3 60 0
 2767              		.syntax divided
 2768              	@ 60 "../../tmk_core/tool/chibios/ChibiOS/os/common/ext/CMSIS/include/cmsis_gcc.h" 1
 2769 002a 62B6     		cpsie i
 2770              	@ 0 "" 2
 2771              		.thumb
 2772              		.syntax unified
 2773              	.LBE591:
 2774              	.LBE590:
 2775              	.LBE589:
 2776              	.LBE588:
 2777              	.LBE587:
 2778              		.loc 1 836 0
 2779              		@ sp needed
 2780              	.LVL232:
 2781              	.LVL233:
 2782 002c 70BD     		pop	{r4, r5, r6, pc}
 2783              	.LVL234:
 2784              	.L200:
 2785              	.LBB593:
 2786              	.LBB592:
 2787              		.loc 4 395 0
 2788 002e 0348     		ldr	r0, .L201+4
 2789 0030 FFF7FEFF 		bl	chSysHalt
 2790              	.LVL235:
 2791 0034 F9E7     		b	.L199
 2792              	.L202:
 2793 0036 C046     		.align	2
ARM GAS  /var/folders/t8/16hdwfmd2fg_d3q6dgx6bpmw0000gn/T//ccWsgl5d.s 			page 50


 2794              	.L201:
 2795 0038 00000000 		.word	ch
 2796 003c 00000000 		.word	.LANCHOR2
 2797              	.LBE592:
 2798              	.LBE593:
 2799              		.cfi_endproc
 2800              	.LFE161:
 2801              		.size	chThdResume, .-chThdResume
 2802              		.section	.text.chThdEnqueueTimeoutS,"ax",%progbits
 2803              		.align	1
 2804              		.p2align 4,,15
 2805              		.global	chThdEnqueueTimeoutS
 2806              		.syntax unified
 2807              		.code	16
 2808              		.thumb_func
 2809              		.fpu softvfp
 2810              		.type	chThdEnqueueTimeoutS, %function
 2811              	chThdEnqueueTimeoutS:
 2812              	.LFB162:
 2813              		.loc 1 861 0
 2814              		.cfi_startproc
 2815              		@ args = 0, pretend = 0, frame = 0
 2816              		@ frame_needed = 0, uses_anonymous_args = 0
 2817              	.LVL236:
 2818 0000 10B5     		push	{r4, lr}
 2819              		.cfi_def_cfa_offset 8
 2820              		.cfi_offset 4, -8
 2821              		.cfi_offset 14, -4
 2822              		.loc 1 863 0
 2823 0002 0029     		cmp	r1, #0
 2824 0004 0AD0     		beq	.L205
 2825              		.loc 1 867 0
 2826 0006 074B     		ldr	r3, .L206
 2827              	.LBB594:
 2828              	.LBB595:
 2829              		.loc 2 612 0
 2830 0008 4268     		ldr	r2, [r0, #4]
 2831              	.LBE595:
 2832              	.LBE594:
 2833              		.loc 1 867 0
 2834 000a 9B69     		ldr	r3, [r3, #24]
 2835              	.LVL237:
 2836              	.LBB597:
 2837              	.LBB596:
 2838              		.loc 2 611 0
 2839 000c 1860     		str	r0, [r3]
 2840              		.loc 2 612 0
 2841 000e 5A60     		str	r2, [r3, #4]
 2842              		.loc 2 613 0
 2843 0010 1360     		str	r3, [r2]
 2844              		.loc 2 614 0
 2845 0012 4360     		str	r3, [r0, #4]
 2846              	.LVL238:
 2847              	.LBE596:
 2848              	.LBE597:
 2849              		.loc 1 869 0
 2850 0014 0420     		movs	r0, #4
ARM GAS  /var/folders/t8/16hdwfmd2fg_d3q6dgx6bpmw0000gn/T//ccWsgl5d.s 			page 51


 2851              	.LVL239:
 2852 0016 FFF7FEFF 		bl	chSchGoSleepTimeoutS
 2853              	.LVL240:
 2854              	.L203:
 2855              		.loc 1 870 0
 2856              		@ sp needed
 2857 001a 10BD     		pop	{r4, pc}
 2858              	.LVL241:
 2859              	.L205:
 2860              		.loc 1 864 0
 2861 001c 0120     		movs	r0, #1
 2862              	.LVL242:
 2863 001e 4042     		rsbs	r0, r0, #0
 2864 0020 FBE7     		b	.L203
 2865              	.L207:
 2866 0022 C046     		.align	2
 2867              	.L206:
 2868 0024 00000000 		.word	ch
 2869              		.cfi_endproc
 2870              	.LFE162:
 2871              		.size	chThdEnqueueTimeoutS, .-chThdEnqueueTimeoutS
 2872              		.section	.text.chThdDequeueNextI,"ax",%progbits
 2873              		.align	1
 2874              		.p2align 4,,15
 2875              		.global	chThdDequeueNextI
 2876              		.syntax unified
 2877              		.code	16
 2878              		.thumb_func
 2879              		.fpu softvfp
 2880              		.type	chThdDequeueNextI, %function
 2881              	chThdDequeueNextI:
 2882              	.LFB163:
 2883              		.loc 1 881 0
 2884              		.cfi_startproc
 2885              		@ args = 0, pretend = 0, frame = 0
 2886              		@ frame_needed = 0, uses_anonymous_args = 0
 2887              	.LVL243:
 2888 0000 70B5     		push	{r4, r5, r6, lr}
 2889              		.cfi_def_cfa_offset 16
 2890              		.cfi_offset 4, -16
 2891              		.cfi_offset 5, -12
 2892              		.cfi_offset 6, -8
 2893              		.cfi_offset 14, -4
 2894              	.LBB606:
 2895              	.LBB607:
 2896              		.loc 2 577 0
 2897 0002 0468     		ldr	r4, [r0]
 2898              	.LVL244:
 2899              	.LBE607:
 2900              	.LBE606:
 2901              		.loc 1 881 0
 2902 0004 0D00     		movs	r5, r1
 2903              		.loc 1 883 0
 2904 0006 A042     		cmp	r0, r4
 2905 0008 0DD0     		beq	.L208
 2906              	.LVL245:
 2907              	.LBB608:
ARM GAS  /var/folders/t8/16hdwfmd2fg_d3q6dgx6bpmw0000gn/T//ccWsgl5d.s 			page 52


 2908              	.LBB609:
 2909              	.LBB610:
 2910              	.LBB611:
 2911              		.loc 2 620 0
 2912 000a 2368     		ldr	r3, [r4]
 2913 000c 0360     		str	r3, [r0]
 2914              		.loc 2 621 0
 2915 000e 5860     		str	r0, [r3, #4]
 2916              	.LVL246:
 2917              	.LBE611:
 2918              	.LBE610:
 2919              		.loc 5 435 0
 2920 0010 2023     		movs	r3, #32
 2921 0012 E35C     		ldrb	r3, [r4, r3]
 2922 0014 042B     		cmp	r3, #4
 2923 0016 02D0     		beq	.L210
 2924 0018 0348     		ldr	r0, .L214
 2925              	.LVL247:
 2926 001a FFF7FEFF 		bl	chSysHalt
 2927              	.LVL248:
 2928              	.L210:
 2929              		.loc 5 437 0
 2930 001e 6562     		str	r5, [r4, #36]
 2931              		.loc 5 438 0
 2932 0020 2000     		movs	r0, r4
 2933 0022 FFF7FEFF 		bl	chSchReadyI
 2934              	.LVL249:
 2935              	.L208:
 2936              	.LBE609:
 2937              	.LBE608:
 2938              		.loc 1 886 0
 2939              		@ sp needed
 2940              	.LVL250:
 2941 0026 70BD     		pop	{r4, r5, r6, pc}
 2942              	.L215:
 2943              		.align	2
 2944              	.L214:
 2945 0028 00000000 		.word	.LANCHOR16
 2946              		.cfi_endproc
 2947              	.LFE163:
 2948              		.size	chThdDequeueNextI, .-chThdDequeueNextI
 2949              		.section	.text.chThdDequeueAllI,"ax",%progbits
 2950              		.align	1
 2951              		.p2align 4,,15
 2952              		.global	chThdDequeueAllI
 2953              		.syntax unified
 2954              		.code	16
 2955              		.thumb_func
 2956              		.fpu softvfp
 2957              		.type	chThdDequeueAllI, %function
 2958              	chThdDequeueAllI:
 2959              	.LFB164:
 2960              		.loc 1 896 0
 2961              		.cfi_startproc
 2962              		@ args = 0, pretend = 0, frame = 0
 2963              		@ frame_needed = 0, uses_anonymous_args = 0
 2964              	.LVL251:
ARM GAS  /var/folders/t8/16hdwfmd2fg_d3q6dgx6bpmw0000gn/T//ccWsgl5d.s 			page 53


 2965 0000 F0B5     		push	{r4, r5, r6, r7, lr}
 2966              		.cfi_def_cfa_offset 20
 2967              		.cfi_offset 4, -20
 2968              		.cfi_offset 5, -16
 2969              		.cfi_offset 6, -12
 2970              		.cfi_offset 7, -8
 2971              		.cfi_offset 14, -4
 2972 0002 C646     		mov	lr, r8
 2973              	.LBB620:
 2974              	.LBB621:
 2975              		.loc 2 577 0
 2976 0004 0468     		ldr	r4, [r0]
 2977              	.LVL252:
 2978              	.LBE621:
 2979              	.LBE620:
 2980              		.loc 1 896 0
 2981 0006 00B5     		push	{lr}
 2982              		.cfi_def_cfa_offset 24
 2983              		.cfi_offset 8, -24
 2984              		.loc 1 896 0
 2985 0008 0500     		movs	r5, r0
 2986 000a 0E00     		movs	r6, r1
 2987              		.loc 1 898 0
 2988 000c A042     		cmp	r0, r4
 2989 000e 12D0     		beq	.L216
 2990              	.LBB623:
 2991              	.LBB624:
 2992              		.loc 5 435 0
 2993 0010 0A4B     		ldr	r3, .L224
 2994 0012 2027     		movs	r7, #32
 2995 0014 9846     		mov	r8, r3
 2996              	.LVL253:
 2997              	.L219:
 2998              	.LBB625:
 2999              	.LBB626:
 3000              		.loc 2 620 0
 3001 0016 2368     		ldr	r3, [r4]
 3002 0018 2B60     		str	r3, [r5]
 3003              	.LVL254:
 3004              		.loc 2 621 0
 3005 001a 5D60     		str	r5, [r3, #4]
 3006              	.LVL255:
 3007              	.LBE626:
 3008              	.LBE625:
 3009              		.loc 5 435 0
 3010 001c E35D     		ldrb	r3, [r4, r7]
 3011 001e 042B     		cmp	r3, #4
 3012 0020 02D0     		beq	.L218
 3013 0022 4046     		mov	r0, r8
 3014 0024 FFF7FEFF 		bl	chSysHalt
 3015              	.LVL256:
 3016              	.L218:
 3017              		.loc 5 437 0
 3018 0028 6662     		str	r6, [r4, #36]
 3019              		.loc 5 438 0
 3020 002a 2000     		movs	r0, r4
 3021 002c FFF7FEFF 		bl	chSchReadyI
ARM GAS  /var/folders/t8/16hdwfmd2fg_d3q6dgx6bpmw0000gn/T//ccWsgl5d.s 			page 54


 3022              	.LVL257:
 3023              	.LBE624:
 3024              	.LBE623:
 3025              	.LBB627:
 3026              	.LBB622:
 3027              		.loc 2 577 0
 3028 0030 2C68     		ldr	r4, [r5]
 3029              	.LVL258:
 3030              	.LBE622:
 3031              	.LBE627:
 3032              		.loc 1 898 0
 3033 0032 A542     		cmp	r5, r4
 3034 0034 EFD1     		bne	.L219
 3035              	.LVL259:
 3036              	.L216:
 3037              		.loc 1 901 0
 3038              		@ sp needed
 3039              	.LVL260:
 3040              	.LVL261:
 3041 0036 04BC     		pop	{r2}
 3042 0038 9046     		mov	r8, r2
 3043 003a F0BD     		pop	{r4, r5, r6, r7, pc}
 3044              	.L225:
 3045              		.align	2
 3046              	.L224:
 3047 003c 00000000 		.word	.LANCHOR16
 3048              		.cfi_endproc
 3049              	.LFE164:
 3050              		.size	chThdDequeueAllI, .-chThdDequeueAllI
 3051              		.section	.rodata.__func__.5043,"a",%progbits
 3052              		.align	2
 3053              		.set	.LANCHOR2,. + 0
 3054              		.type	__func__.5043, %object
 3055              		.size	__func__.5043, 12
 3056              	__func__.5043:
 3057 0000 63685379 		.ascii	"chSysUnlock\000"
 3057      73556E6C 
 3057      6F636B00 
 3058              		.section	.rodata.__func__.5232,"a",%progbits
 3059              		.align	2
 3060              		.set	.LANCHOR11,. + 0
 3061              		.type	__func__.5232, %object
 3062              		.size	__func__.5232, 12
 3063              	__func__.5232:
 3064 0000 63685468 		.ascii	"chThdSleepS\000"
 3064      64536C65 
 3064      65705300 
 3065              		.section	.rodata.__func__.5244,"a",%progbits
 3066              		.align	2
 3067              		.set	.LANCHOR16,. + 0
 3068              		.type	__func__.5244, %object
 3069              		.size	__func__.5244, 20
 3070              	__func__.5244:
 3071 0000 63685468 		.ascii	"chThdDoDequeueNextI\000"
 3071      64446F44 
 3071      65717565 
 3071      75654E65 
ARM GAS  /var/folders/t8/16hdwfmd2fg_d3q6dgx6bpmw0000gn/T//ccWsgl5d.s 			page 55


 3071      78744900 
 3072              		.section	.rodata.__func__.5731,"a",%progbits
 3073              		.align	2
 3074              		.set	.LANCHOR0,. + 0
 3075              		.type	__func__.5731, %object
 3076              		.size	__func__.5731, 22
 3077              	__func__.5731:
 3078 0000 63685468 		.ascii	"chThdCreateSuspendedI\000"
 3078      64437265 
 3078      61746553 
 3078      75737065 
 3078      6E646564 
 3079              		.section	.rodata.__func__.5736,"a",%progbits
 3080              		.align	2
 3081              		.set	.LANCHOR1,. + 0
 3082              		.type	__func__.5736, %object
 3083              		.size	__func__.5736, 21
 3084              	__func__.5736:
 3085 0000 63685468 		.ascii	"chThdCreateSuspended\000"
 3085      64437265 
 3085      61746553 
 3085      75737065 
 3085      6E646564 
 3086              		.section	.rodata.__func__.5744,"a",%progbits
 3087              		.align	2
 3088              		.set	.LANCHOR3,. + 0
 3089              		.type	__func__.5744, %object
 3090              		.size	__func__.5744, 12
 3091              	__func__.5744:
 3092 0000 63685468 		.ascii	"chThdCreate\000"
 3092      64437265 
 3092      61746500 
 3093              		.section	.rodata.__func__.5753,"a",%progbits
 3094              		.align	2
 3095              		.set	.LANCHOR4,. + 0
 3096              		.type	__func__.5753, %object
 3097              		.size	__func__.5753, 18
 3098              	__func__.5753:
 3099 0000 63685468 		.ascii	"chThdCreateStatic\000"
 3099      64437265 
 3099      61746553 
 3099      74617469 
 3099      6300
 3100              		.section	.rodata.__func__.5757,"a",%progbits
 3101              		.align	2
 3102              		.set	.LANCHOR5,. + 0
 3103              		.type	__func__.5757, %object
 3104              		.size	__func__.5757, 11
 3105              	__func__.5757:
 3106 0000 63685468 		.ascii	"chThdStart\000"
 3106      64537461 
 3106      727400
 3107              		.section	.rodata.__func__.5761,"a",%progbits
 3108              		.align	2
 3109              		.set	.LANCHOR6,. + 0
 3110              		.type	__func__.5761, %object
 3111              		.size	__func__.5761, 12
ARM GAS  /var/folders/t8/16hdwfmd2fg_d3q6dgx6bpmw0000gn/T//ccWsgl5d.s 			page 56


 3112              	__func__.5761:
 3113 0000 63685468 		.ascii	"chThdAddRef\000"
 3113      64416464 
 3113      52656600 
 3114              		.section	.rodata.__func__.5765,"a",%progbits
 3115              		.align	2
 3116              		.set	.LANCHOR7,. + 0
 3117              		.type	__func__.5765, %object
 3118              		.size	__func__.5765, 13
 3119              	__func__.5765:
 3120 0000 63685468 		.ascii	"chThdRelease\000"
 3120      6452656C 
 3120      65617365 
 3120      00
 3121              		.section	.rodata.__func__.5780,"a",%progbits
 3122              		.align	2
 3123              		.set	.LANCHOR8,. + 0
 3124              		.type	__func__.5780, %object
 3125              		.size	__func__.5780, 11
 3126              	__func__.5780:
 3127 0000 63685468 		.ascii	"chThdExitS\000"
 3127      64457869 
 3127      745300
 3128              		.section	.rodata.__func__.5785,"a",%progbits
 3129              		.align	2
 3130              		.set	.LANCHOR9,. + 0
 3131              		.type	__func__.5785, %object
 3132              		.size	__func__.5785, 10
 3133              	__func__.5785:
 3134 0000 63685468 		.ascii	"chThdWait\000"
 3134      64576169 
 3134      7400
 3135              		.section	.rodata.__func__.5790,"a",%progbits
 3136              		.align	2
 3137              		.set	.LANCHOR10,. + 0
 3138              		.type	__func__.5790, %object
 3139              		.size	__func__.5790, 17
 3140              	__func__.5790:
 3141 0000 63685468 		.ascii	"chThdSetPriority\000"
 3141      64536574 
 3141      5072696F 
 3141      72697479 
 3141      00
 3142              		.section	.rodata.__func__.5812,"a",%progbits
 3143              		.align	2
 3144              		.set	.LANCHOR12,. + 0
 3145              		.type	__func__.5812, %object
 3146              		.size	__func__.5812, 14
 3147              	__func__.5812:
 3148 0000 63685468 		.ascii	"chThdSuspendS\000"
 3148      64537573 
 3148      70656E64 
 3148      5300
 3149              		.section	.rodata.__func__.5818,"a",%progbits
 3150              		.align	2
 3151              		.set	.LANCHOR13,. + 0
 3152              		.type	__func__.5818, %object
ARM GAS  /var/folders/t8/16hdwfmd2fg_d3q6dgx6bpmw0000gn/T//ccWsgl5d.s 			page 57


 3153              		.size	__func__.5818, 21
 3154              	__func__.5818:
 3155 0000 63685468 		.ascii	"chThdSuspendTimeoutS\000"
 3155      64537573 
 3155      70656E64 
 3155      54696D65 
 3155      6F757453 
 3156              		.section	.rodata.__func__.5824,"a",%progbits
 3157              		.align	2
 3158              		.set	.LANCHOR14,. + 0
 3159              		.type	__func__.5824, %object
 3160              		.size	__func__.5824, 13
 3161              	__func__.5824:
 3162 0000 63685468 		.ascii	"chThdResumeI\000"
 3162      64526573 
 3162      756D6549 
 3162      00
 3163              		.section	.rodata.__func__.5830,"a",%progbits
 3164              		.align	2
 3165              		.set	.LANCHOR15,. + 0
 3166              		.type	__func__.5830, %object
 3167              		.size	__func__.5830, 13
 3168              	__func__.5830:
 3169 0000 63685468 		.ascii	"chThdResumeS\000"
 3169      64526573 
 3169      756D6553 
 3169      00
 3170              		.section	.rodata.chThdCreateStatic.str1.4,"aMS",%progbits,1
 3171              		.align	2
 3172              	.LC14:
 3173 0000 6E6F6E61 		.ascii	"noname\000"
 3173      6D6500
 3174              		.text
 3175              	.Letext0:
 3176              		.file 7 "/usr/local/Caskroom/gcc-arm-embedded/7-2017-q4-major/gcc-arm-none-eabi-7-2017-q4-major/li
 3177              		.file 8 "/usr/local/Caskroom/gcc-arm-embedded/7-2017-q4-major/gcc-arm-none-eabi-7-2017-q4-major/ar
 3178              		.file 9 "/usr/local/Caskroom/gcc-arm-embedded/7-2017-q4-major/gcc-arm-none-eabi-7-2017-q4-major/ar
 3179              		.file 10 "../../tmk_core/tool/chibios/ChibiOS/os/common/ports/ARMCMx/compilers/GCC/chtypes.h"
 3180              		.file 11 "../../tmk_core/tool/chibios/ChibiOS/os/rt/include/chsystypes.h"
 3181              		.file 12 "../../tmk_core/tool/chibios/ChibiOS/os/common/ports/ARMCMx/chcore.h"
 3182              		.file 13 "../../tmk_core/tool/chibios/ChibiOS/os/common/ports/ARMCMx/chcore_v6m.h"
 3183              		.file 14 "../../tmk_core/tool/chibios/ChibiOS/os/rt/include/chsem.h"
 3184              		.file 15 "../../tmk_core/tool/chibios/ChibiOS/os/rt/include/chmtx.h"
 3185              		.file 16 "../../tmk_core/tool/chibios/ChibiOS/os/rt/include/chregistry.h"
 3186              		.file 17 "../../tmk_core/tool/chibios/ChibiOS/os/rt/include/chdebug.h"
 3187              		.file 18 "../../tmk_core/tool/chibios/ChibiOS/os/common/oslib/include/chmempools.h"
 3188              		.file 19 "../../tmk_core/tool/chibios/ChibiOS/os/common/oslib/include/chheap.h"