ARM GAS  /var/folders/t8/16hdwfmd2fg_d3q6dgx6bpmw0000gn/T//ccdqvDSM.s 			page 1


   1              		.cpu cortex-m0plus
   2              		.eabi_attribute 20, 1
   3              		.eabi_attribute 21, 1
   4              		.eabi_attribute 23, 3
   5              		.eabi_attribute 24, 1
   6              		.eabi_attribute 25, 1
   7              		.eabi_attribute 26, 1
   8              		.eabi_attribute 30, 2
   9              		.eabi_attribute 34, 0
  10              		.eabi_attribute 18, 4
  11              		.file	"chvt.c"
  12              		.text
  13              	.Ltext0:
  14              		.cfi_sections	.debug_frame
  15              		.section	.text._vt_init,"ax",%progbits
  16              		.align	1
  17              		.p2align 4,,15
  18              		.global	_vt_init
  19              		.syntax unified
  20              		.code	16
  21              		.thumb_func
  22              		.fpu softvfp
  23              		.type	_vt_init, %function
  24              	_vt_init:
  25              	.LFB138:
  26              		.file 1 "../../tmk_core/tool/chibios/ChibiOS/os/rt/src/chvt.c"
  27              		.loc 1 61 0
  28              		.cfi_startproc
  29              		@ args = 0, pretend = 0, frame = 0
  30              		@ frame_needed = 0, uses_anonymous_args = 0
  31              		@ link register save eliminated.
  32              		.loc 1 63 0
  33 0000 054B     		ldr	r3, .L3
  34              		.loc 1 71 0
  35              		@ sp needed
  36              		.loc 1 63 0
  37 0002 1A00     		movs	r2, r3
  38 0004 1C32     		adds	r2, r2, #28
  39 0006 DA61     		str	r2, [r3, #28]
  40              		.loc 1 64 0
  41 0008 1A62     		str	r2, [r3, #32]
  42              		.loc 1 65 0
  43 000a 0122     		movs	r2, #1
  44 000c 5242     		rsbs	r2, r2, #0
  45 000e 5A62     		str	r2, [r3, #36]
  46              		.loc 1 67 0
  47 0010 0022     		movs	r2, #0
  48 0012 9A62     		str	r2, [r3, #40]
  49              		.loc 1 71 0
  50 0014 7047     		bx	lr
  51              	.L4:
  52 0016 C046     		.align	2
  53              	.L3:
  54 0018 00000000 		.word	ch
  55              		.cfi_endproc
  56              	.LFE138:
  57              		.size	_vt_init, .-_vt_init
ARM GAS  /var/folders/t8/16hdwfmd2fg_d3q6dgx6bpmw0000gn/T//ccdqvDSM.s 			page 2


  58              		.section	.text.chVTDoSetI,"ax",%progbits
  59              		.align	1
  60              		.p2align 4,,15
  61              		.global	chVTDoSetI
  62              		.syntax unified
  63              		.code	16
  64              		.thumb_func
  65              		.fpu softvfp
  66              		.type	chVTDoSetI, %function
  67              	chVTDoSetI:
  68              	.LFB139:
  69              		.loc 1 96 0
  70              		.cfi_startproc
  71              		@ args = 0, pretend = 0, frame = 0
  72              		@ frame_needed = 0, uses_anonymous_args = 0
  73              	.LVL0:
  74 0000 F8B5     		push	{r3, r4, r5, r6, r7, lr}
  75              		.cfi_def_cfa_offset 24
  76              		.cfi_offset 3, -24
  77              		.cfi_offset 4, -20
  78              		.cfi_offset 5, -16
  79              		.cfi_offset 6, -12
  80              		.cfi_offset 7, -8
  81              		.cfi_offset 14, -4
  82              		.loc 1 96 0
  83 0002 0500     		movs	r5, r0
  84 0004 0C00     		movs	r4, r1
  85 0006 1600     		movs	r6, r2
  86 0008 1F00     		movs	r7, r3
  87              		.loc 1 100 0
  88 000a FFF7FEFF 		bl	chDbgCheckClassI
  89              	.LVL1:
  90              		.loc 1 101 0
  91 000e 002D     		cmp	r5, #0
  92 0010 1CD0     		beq	.L6
  93              		.loc 1 101 0 is_stmt 0 discriminator 3
  94 0012 002E     		cmp	r6, #0
  95 0014 1AD0     		beq	.L6
  96              		.loc 1 101 0 discriminator 5
  97 0016 002C     		cmp	r4, #0
  98 0018 18D0     		beq	.L6
  99              	.L7:
 100              		.loc 1 159 0 is_stmt 1
 101 001a 0E49     		ldr	r1, .L17
 102              		.loc 1 103 0
 103 001c 2F61     		str	r7, [r5, #16]
 104              		.loc 1 159 0
 105 001e CB69     		ldr	r3, [r1, #28]
 106              		.loc 1 104 0
 107 0020 EE60     		str	r6, [r5, #12]
 108              	.LVL2:
 109              		.loc 1 164 0
 110 0022 9A68     		ldr	r2, [r3, #8]
 111 0024 9442     		cmp	r4, r2
 112 0026 04D9     		bls	.L8
 113              	.LVL3:
 114              	.L9:
ARM GAS  /var/folders/t8/16hdwfmd2fg_d3q6dgx6bpmw0000gn/T//ccdqvDSM.s 			page 3


 115              		.loc 1 166 0
 116 0028 1B68     		ldr	r3, [r3]
 117              	.LVL4:
 118              		.loc 1 165 0
 119 002a A41A     		subs	r4, r4, r2
 120              	.LVL5:
 121              		.loc 1 164 0
 122 002c 9A68     		ldr	r2, [r3, #8]
 123 002e A242     		cmp	r2, r4
 124 0030 FAD3     		bcc	.L9
 125              	.L8:
 126              		.loc 1 171 0
 127 0032 5A68     		ldr	r2, [r3, #4]
 128              		.loc 1 170 0
 129 0034 2B60     		str	r3, [r5]
 130              		.loc 1 171 0
 131 0036 6A60     		str	r2, [r5, #4]
 132              		.loc 1 172 0
 133 0038 1560     		str	r5, [r2]
 134              		.loc 1 173 0
 135 003a 5D60     		str	r5, [r3, #4]
 136              		.loc 1 174 0
 137 003c AC60     		str	r4, [r5, #8]
 138              		.loc 1 178 0
 139 003e 9A68     		ldr	r2, [r3, #8]
 140              		.loc 1 180 0
 141              		@ sp needed
 142              		.loc 1 178 0
 143 0040 141B     		subs	r4, r2, r4
 144              	.LVL6:
 145 0042 9C60     		str	r4, [r3, #8]
 146              	.LVL7:
 147              		.loc 1 179 0
 148 0044 0123     		movs	r3, #1
 149              	.LVL8:
 150 0046 5B42     		rsbs	r3, r3, #0
 151 0048 4B62     		str	r3, [r1, #36]
 152              	.LVL9:
 153              	.LVL10:
 154              	.LVL11:
 155              		.loc 1 180 0
 156 004a F8BD     		pop	{r3, r4, r5, r6, r7, pc}
 157              	.LVL12:
 158              	.L6:
 159              		.loc 1 101 0 discriminator 6
 160 004c 0248     		ldr	r0, .L17+4
 161 004e FFF7FEFF 		bl	chSysHalt
 162              	.LVL13:
 163 0052 E2E7     		b	.L7
 164              	.L18:
 165              		.align	2
 166              	.L17:
 167 0054 00000000 		.word	ch
 168 0058 00000000 		.word	.LANCHOR0
 169              		.cfi_endproc
 170              	.LFE139:
 171              		.size	chVTDoSetI, .-chVTDoSetI
ARM GAS  /var/folders/t8/16hdwfmd2fg_d3q6dgx6bpmw0000gn/T//ccdqvDSM.s 			page 4


 172              		.section	.text.chVTDoResetI,"ax",%progbits
 173              		.align	1
 174              		.p2align 4,,15
 175              		.global	chVTDoResetI
 176              		.syntax unified
 177              		.code	16
 178              		.thumb_func
 179              		.fpu softvfp
 180              		.type	chVTDoResetI, %function
 181              	chVTDoResetI:
 182              	.LFB140:
 183              		.loc 1 190 0
 184              		.cfi_startproc
 185              		@ args = 0, pretend = 0, frame = 0
 186              		@ frame_needed = 0, uses_anonymous_args = 0
 187              	.LVL14:
 188 0000 10B5     		push	{r4, lr}
 189              		.cfi_def_cfa_offset 8
 190              		.cfi_offset 4, -8
 191              		.cfi_offset 14, -4
 192              		.loc 1 190 0
 193 0002 0400     		movs	r4, r0
 194              		.loc 1 192 0
 195 0004 FFF7FEFF 		bl	chDbgCheckClassI
 196              	.LVL15:
 197              		.loc 1 193 0
 198 0008 002C     		cmp	r4, #0
 199 000a 17D0     		beq	.L22
 200              	.L20:
 201              		.loc 1 194 0 discriminator 1
 202 000c E368     		ldr	r3, [r4, #12]
 203 000e 002B     		cmp	r3, #0
 204 0010 10D0     		beq	.L23
 205              	.L21:
 206              		.loc 1 199 0
 207 0012 A168     		ldr	r1, [r4, #8]
 208 0014 2368     		ldr	r3, [r4]
 209 0016 8C46     		mov	ip, r1
 210 0018 9A68     		ldr	r2, [r3, #8]
 211              		.loc 1 268 0
 212              		@ sp needed
 213              		.loc 1 199 0
 214 001a 6244     		add	r2, r2, ip
 215 001c 9A60     		str	r2, [r3, #8]
 216              		.loc 1 202 0
 217 001e 6268     		ldr	r2, [r4, #4]
 218 0020 1360     		str	r3, [r2]
 219              		.loc 1 203 0
 220 0022 2368     		ldr	r3, [r4]
 221 0024 5A60     		str	r2, [r3, #4]
 222              		.loc 1 204 0
 223 0026 0023     		movs	r3, #0
 224              		.loc 1 208 0
 225 0028 0122     		movs	r2, #1
 226              		.loc 1 204 0
 227 002a E360     		str	r3, [r4, #12]
 228              		.loc 1 208 0
ARM GAS  /var/folders/t8/16hdwfmd2fg_d3q6dgx6bpmw0000gn/T//ccdqvDSM.s 			page 5


 229 002c 054B     		ldr	r3, .L24
 230 002e 5242     		rsbs	r2, r2, #0
 231 0030 5A62     		str	r2, [r3, #36]
 232              	.LVL16:
 233              		.loc 1 268 0
 234 0032 10BD     		pop	{r4, pc}
 235              	.LVL17:
 236              	.L23:
 237              		.loc 1 194 0 discriminator 2
 238 0034 0448     		ldr	r0, .L24+4
 239 0036 FFF7FEFF 		bl	chSysHalt
 240              	.LVL18:
 241 003a EAE7     		b	.L21
 242              	.L22:
 243              		.loc 1 193 0 discriminator 2
 244 003c 0248     		ldr	r0, .L24+4
 245 003e FFF7FEFF 		bl	chSysHalt
 246              	.LVL19:
 247 0042 E3E7     		b	.L20
 248              	.L25:
 249              		.align	2
 250              	.L24:
 251 0044 00000000 		.word	ch
 252 0048 00000000 		.word	.LANCHOR1
 253              		.cfi_endproc
 254              	.LFE140:
 255              		.size	chVTDoResetI, .-chVTDoResetI
 256              		.section	.rodata.__func__.5725,"a",%progbits
 257              		.align	2
 258              		.set	.LANCHOR0,. + 0
 259              		.type	__func__.5725, %object
 260              		.size	__func__.5725, 11
 261              	__func__.5725:
 262 0000 63685654 		.ascii	"chVTDoSetI\000"
 262      446F5365 
 262      744900
 263              		.section	.rodata.__func__.5732,"a",%progbits
 264              		.align	2
 265              		.set	.LANCHOR1,. + 0
 266              		.type	__func__.5732, %object
 267              		.size	__func__.5732, 13
 268              	__func__.5732:
 269 0000 63685654 		.ascii	"chVTDoResetI\000"
 269      446F5265 
 269      73657449 
 269      00
 270              		.text
 271              	.Letext0:
 272              		.file 2 "/usr/local/Caskroom/gcc-arm-embedded/7-2017-q4-major/gcc-arm-none-eabi-7-2017-q4-major/ar
 273              		.file 3 "/usr/local/Caskroom/gcc-arm-embedded/7-2017-q4-major/gcc-arm-none-eabi-7-2017-q4-major/ar
 274              		.file 4 "../../tmk_core/tool/chibios/ChibiOS/os/common/ports/ARMCMx/compilers/GCC/chtypes.h"
 275              		.file 5 "../../tmk_core/tool/chibios/ChibiOS/os/rt/include/chsystypes.h"
 276              		.file 6 "../../tmk_core/tool/chibios/ChibiOS/os/rt/include/chschd.h"
 277              		.file 7 "../../tmk_core/tool/chibios/ChibiOS/os/common/ports/ARMCMx/chcore.h"
 278              		.file 8 "../../tmk_core/tool/chibios/ChibiOS/os/common/ports/ARMCMx/chcore_v6m.h"
 279              		.file 9 "../../tmk_core/tool/chibios/ChibiOS/os/rt/include/chsem.h"
 280              		.file 10 "../../tmk_core/tool/chibios/ChibiOS/os/rt/include/chmtx.h"
ARM GAS  /var/folders/t8/16hdwfmd2fg_d3q6dgx6bpmw0000gn/T//ccdqvDSM.s 			page 6


 281              		.file 11 "../../tmk_core/tool/chibios/ChibiOS/os/rt/include/chregistry.h"
 282              		.file 12 "../../tmk_core/tool/chibios/ChibiOS/os/rt/include/chsys.h"
 283              		.file 13 "../../tmk_core/tool/chibios/ChibiOS/os/rt/include/chdebug.h"