ARM GAS  /var/folders/t8/16hdwfmd2fg_d3q6dgx6bpmw0000gn/T//ccdqvDSM.s 			page 1


   1              		.cpu cortex-m0plus
   2              		.eabi_attribute 20, 1
   3              		.eabi_attribute 21, 1
   4              		.eabi_attribute 23, 3
   5              		.eabi_attribute 24, 1
   6              		.eabi_attribute 25, 1
   7              		.eabi_attribute 26, 1
   8              		.eabi_attribute 30, 2
   9              		.eabi_attribute 34, 0
  10              		.eabi_attribute 18, 4
  11              		.file	"chvt.c"
  12              		.text
  13              	.Ltext0:
  14              		.cfi_sections	.debug_frame
  15              		.section	.text._vt_init,"ax",%progbits
  16              		.align	1
  17              		.p2align 4,,15
  18              		.global	_vt_init
  19              		.syntax unified
  20              		.code	16
  21              		.thumb_func
  22              		.fpu softvfp
  23              		.type	_vt_init, %function
  24              	_vt_init:
  25              	.LFB138:
  26              		.file 1 "../../tmk_core/tool/chibios/ChibiOS/os/rt/src/chvt.c"
  27              		.loc 1 61 0
  28              		.cfi_startproc
  29              		@ args = 0, pretend = 0, frame = 0
  30              		@ frame_needed = 0, uses_anonymous_args = 0
  31              		@ link register save eliminated.
  32              		.loc 1 63 0
  33 0000 054B     		ldr	r3, .L3
  34              		.loc 1 71 0
  35              		@ sp needed
  36              		.loc 1 63 0
  37 0002 1A00     		movs	r2, r3
  38 0004 1C32     		adds	r2, r2, #28
  39 0006 DA61     		str	r2, [r3, #28]
  40              		.loc 1 64 0
  41 0008 1A62     		str	r2, [r3, #32]
  42              		.loc 1 65 0
  43 000a 0122     		movs	r2, #1
  44 000c 5242     		rsbs	r2, r2, #0
  45 000e 5A62     		str	r2, [r3, #36]
  46              		.loc 1 67 0
  47 0010 0022     		movs	r2, #0
  48 0012 9A62     		str	r2, [r3, #40]
  49              		.loc 1 71 0
  50 0014 7047     		bx	lr
  51              	.L4:
  52 0016 C046     		.align	2
  53              	.L3:
  54 0018 00000000 		.word	ch
  55              		.cfi_endproc
  56              	.LFE138:
  57              		.size	_vt_init, .-_vt_init
ARM GAS  /var/folders/t8/16hdwfmd2fg_d3q6dgx6bpmw0000gn/T//ccdqvDSM.s 			page 2


  58              		.section	.text.chVTDoSetI,"ax",%progbits
  59              		.align	1
  60              		.p2align 4,,15
  61              		.global	chVTDoSetI
  62              		.syntax unified
  63              		.code	16
  64              		.thumb_func
  65              		.fpu softvfp
  66              		.type	chVTDoSetI, %function
  67              	chVTDoSetI:
  68              	.LFB139:
  69              		.loc 1 96 0
  70              		.cfi_startproc
  71              		@ args = 0, pretend = 0, frame = 0
  72              		@ frame_needed = 0, uses_anonymous_args = 0
  73              	.LVL0:
  74 0000 F8B5     		push	{r3, r4, r5, r6, r7, lr}
  75              		.cfi_def_cfa_offset 24
  76              		.cfi_offset 3, -24
  77              		.cfi_offset 4, -20
  78              		.cfi_offset 5, -16
  79              		.cfi_offset 6, -12
  80              		.cfi_offset 7, -8
  81              		.cfi_offset 14, -4
  82              		.loc 1 96 0
  83 0002 0500     		movs	r5, r0
  84 0004 0C00     		movs	r4, r1
  85 0006 1600     		movs	r6, r2
  86 0008 1F00     		movs	r7, r3
  87              		.loc 1 100 0
  88 000a FFF7FEFF 		bl	chDbgCheckClassI
  89              	.LVL1:
  90              		.loc 1 101 0
  91 000e 002D     		cmp	r5, #0
  92 0010 1CD0     		beq	.L6
  93              		.loc 1 101 0 is_stmt 0 discriminator 3
  94 0012 002E     		cmp	r6, #0
  95 0014 1AD0     		beq	.L6
  96              		.loc 1 101 0 discriminator 5
  97 0016 002C     		cmp	r4, #0
  98 0018 18D0     		beq	.L6
  99              	.L7:
 100              		.loc 1 159 0 is_stmt 1
 101 001a 0E49     		ldr	r1, .L17
 102              		.loc 1 103 0
 103 001c 2F61     		str	r7, [r5, #16]
 104              		.loc 1 159 0
 105 001e CB69     		ldr	r3, [r1, #28]
 106              		.loc 1 104 0
 107 0020 EE60     		str	r6, [r5, #12]
 108              	.LVL2:
 109              		.loc 1 164 0
 110 0022 9A68     		ldr	r2, [r3, #8]
 111 0024 9442     		cmp	r4, r2
 112 0026 04D9     		bls	.L8
 113              	.LVL3:
 114              	.L9:
ARM GAS  /var/folders/t8/16hdwfmd2fg_d3q6dgx6bpmw0000gn/T//ccdqvDSM.s 			page 3


 115              		.loc 1 166 0
 116 0028 1B68     		ldr	r3, [r3]
 117              	.LVL4:
 118              		.loc 1 165 0
 119 002a A41A     		subs	r4, r4, r2
 120              	.LVL5:
 121              		.loc 1 164 0
 122 002c 9A68     		ldr	r2, [r3, #8]
 123 002e A242     		cmp	r2, r4
 124 0030 FAD3     		bcc	.L9
 125              	.L8:
 126              		.loc 1 171 0
 127 0032 5A68     		ldr	r2, [r3, #4]
 128              		.loc 1 170 0
 129 0034 2B60     		str	r3, [r5]
 130              		.loc 1 171 0
 131 0036 6A60     		str	r2, [r5, #4]
 132              		.loc 1 172 0
 133 0038 1560     		str	r5, [r2]
 134              		.loc 1 173 0
 135 003a 5D60     		str	r5, [r3, #4]
 136              		.loc 1 174 0
 137 003c AC60     		str	r4, [r5, #8]
 138              		.loc 1 178 0
 139 003e 9A68     		ldr	r2, [r3, #8]
 140              		.loc 1 180 0
 141              		@ sp needed
 142              		.loc 1 178 0
 143 0040 141B     		subs	r4, r2, r4
 144              	.LVL6:
 145 0042 9C60     		str	r4, [r3, #8]
 146              	.LVL7:
 147              		.loc 1 179 0
 148 0044 0123     		movs	r3, #1
 149              	.LVL8:
 150 0046 5B42     		rsbs	r3, r3, #0
 151 0048 4B62     		str	r3, [r1, #36]
 152              	.LVL9:
 153              	.LVL10:
 154              	.LVL11:
 155              		.loc 1 180 0
 156 004a F8BD     		pop	{r3, r4, r5, r6, r7, pc}
 157              	.LVL12:
 158              	.L6:
 159              		.loc 1 101 0 discriminator 6
 160 004c 0248     		ldr	r0, .L17+4
 161 004e FFF7FEFF 		bl	chSysHalt
 162              	.LVL13:
 163 0052 E2E7     		b	.L7
 164              	.L18:
 165              		.align	2
 166              	.L17:
 167 0054 00000000 		.word	ch
 168 0058 00000000 		.word	.LANCHOR0
 169              		.cfi_endproc
 170              	.LFE139:
 171              		.size	chVTDoSetI, .-chVTDoSetI
ARM GAS  /var/folders/t8/16hdwfmd2fg_d3q6dgx6bpmw0000gn/T//ccdqvDSM.s 			page 4


 172              		.section	.text.chVTDoResetI,"ax",%progbits
 173              		.align	1
 174              		.p2align 4,,15
 175              		.global	chVTDoResetI
 176              		.syntax unified
 177              		.code	16
 178              		.thumb_func
 179              		.fpu softvfp
 180              		.type	chVTDoResetI, %function
 181              	chVTDoResetI:
 182              	.LFB140:
 183              		.loc 1 190 0
 184              		.cfi_startproc
 185              		@ args = 0, pretend = 0, frame = 0
 186              		@ frame_needed = 0, uses_anonymous_args = 0
 187              	.LVL14:
 188 0000 10B5     		push	{r4, lr}
 189              		.cfi_def_cfa_offset 8
 190              		.cfi_offset 4, -8
 191              		.cfi_offset 14, -4
 192              		.loc 1 190 0
 193 0002 0400     		movs	r4, r0
 194              		.loc 1 192 0
 195 0004 FFF7FEFF 		bl	chDbgCheckClassI
 196              	.LVL15:
 197              		.loc 1 193 0
 198 0008 002C     		cmp	r4, #0
 199 000a 17D0     		beq	.L22
 200              	.L20:
 201              		.loc 1 194 0 discriminator 1
 202 000c E368     		ldr	r3, [r4, #12]
 203 000e 002B     		cmp	r3, #0
 204 0010 10D0     		beq	.L23
 205              	.L21:
 206              		.loc 1 199 0
 207 0012 A168     		ldr	r1, [r4, #8]
 208 0014 2368     		ldr	r3, [r4]
 209 0016 8C46     		mov	ip, r1
 210 0018 9A68     		ldr	r2, [r3, #8]
 211              		.loc 1 268 0
 212              		@ sp needed
 213              		.loc 1 199 0
 214 001a 6244     		add	r2, r2, ip
 215 001c 9A60     		str	r2, [r3, #8]
 216              		.loc 1 202 0
 217 001e 6268     		ldr	r2, [r4, #4]
 218 0020 1360     		str	r3, [r2]
 219              		.loc 1 203 0
 220 0022 2368     		ldr	r3, [r4]
 221 0024 5A60     		str	r2, [r3, #4]
 222              		.loc 1 204 0
 223 0026 0023     		movs	r3, #0
 224              		.loc 1 208 0
 225 0028 0122     		movs	r2, #1
 226              		.loc 1 204 0
 227 002a E360     		str	r3, [r4, #12]
 228              		.loc 1 208 0
ARM GAS  /var/folders/t8/16hdwfmd2fg_d3q6dgx6bpmw0000gn/T//ccdqvDSM.s 			page 5


 229 002c 054B     		ldr	r3, .L24
 230 002e 5242     		rsbs	r2, r2, #0
 231 0030 5A62     		str	r2, [r3, #36]
 232              	.LVL16:
 233              		.loc 1 268 0
 234 0032 10BD     		pop	{r4, pc}
 235              	.LVL17:
 236              	.L23:
 237              		.loc 1 194 0 discriminator 2
 238 0034 0448     		ldr	r0, .L24+4
 239 0036 FFF7FEFF 		bl	chSysHalt
 240              	.LVL18:
 241 003a EAE7     		b	.L21
 242              	.L22:
 243              		.loc 1 193 0 discriminator 2
 244 003c 0248     		ldr	r0, .L24+4
 245 003e FFF7FEFF 		bl	chSysHalt
 246              	.LVL19:
 247 0042 E3E7     		b	.L20
 248              	.L25:
 249              		.align	2
 250              	.L24:
 251 0044 00000000 		.word	ch
 252 0048 00000000 		.word	.LANCHOR1
 253              		.cfi_endproc
 254              	.LFE140:
 255              		.size	chVTDoResetI, .-chVTDoResetI
 256              		.section	.rodata.__func__.5725,"a",%progbits
 257              		.align	2
 258              		.set	.LANCHOR0,. + 0
 259              		.type	__func__.5725, %object
 260              		.size	__func__.5725, 11
 261              	__func__.5725:
 262 0000 63685654 		.ascii	"chVTDoSetI\000"
 262      446F5365 
 262      744900
 263              		.section	.rodata.__func__.5732,"a",%progbits
 264              		.align	2
 265              		.set	.LANCHOR1,. + 0
 266              		.type	__func__.5732, %object
 267              		.size	__func__.5732, 13
 268              	__func__.5732:
 269 0000 63685654 		.ascii	"chVTDoResetI\000"
 269      446F5265 
 269      73657449 
 269      00
 270              		.text
 271              	.Letext0:
 272              		.file 2 "/usr/local/Caskroom/gcc-arm-embedded/7-2017-q4-major/gcc-arm-none-eabi-7-2017-q4-major/ar
 273              		.file 3 "/usr/local/Caskroom/gcc-arm-embedded/7-2017-q4-major/gcc-arm-none-eabi-7-2017-q4-major/ar
 274              		.file 4 "../../tmk_core/tool/chibios/ChibiOS/os/common/ports/ARMCMx/compilers/GCC/chtypes.h"
 275              		.file 5 "../../tmk_core/tool/chibios/ChibiOS/os/rt/include/chsystypes.h"
 276              		.file 6 "../../tmk_core/tool/chibios/ChibiOS/os/rt/include/chschd.h"
 277              		.file 7 "../../tmk_core/tool/chibios/ChibiOS/os/common/ports/ARMCMx/chcore.h"
 278              		.file 8 "../../tmk_core/tool/chibios/ChibiOS/os/common/ports/ARMCMx/chcore_v6m.h"
 279              		.file 9 "../../tmk_core/tool/chibios/ChibiOS/os/rt/include/chsem.h"
 280              		.file 10 "../../tmk_core/tool/chibios/ChibiOS/os/rt/include/chmtx.h"
ARM GAS  /var/folders/t8/16hdwfmd2fg_d3q6dgx6bpmw0000gn/T//ccdqvDSM.s 			page 6


 281              		.file 11 "../../tmk_core/tool/chibios/ChibiOS/os/rt/include/chregistry.h"
 282              		.file 12 "../../tmk_core/tool/chibios/ChibiOS/os/rt/include/chsys.h"
 283              		.file 13 "../../tmk_core/tool/chibios/ChibiOS/os/rt/include/chdebug.h"
 284              		.section	.debug_info,"",%progbits
 285              	.Ldebug_info0:
 286 0000 76080000 		.4byte	0x876
 287 0004 0400     		.2byte	0x4
 288 0006 00000000 		.4byte	.Ldebug_abbrev0
 289 000a 04       		.byte	0x4
 290 000b 01       		.uleb128 0x1
 291 000c 19000000 		.4byte	.LASF119
 292 0010 0C       		.byte	0xc
 293 0011 95040000 		.4byte	.LASF120
 294 0015 CD030000 		.4byte	.LASF121
 295 0019 00000000 		.4byte	.Ldebug_ranges0+0
 296 001d 00000000 		.4byte	0
 297 0021 00000000 		.4byte	.Ldebug_line0
 298 0025 02       		.uleb128 0x2
 299 0026 04       		.byte	0x4
 300 0027 05       		.byte	0x5
 301 0028 696E7400 		.ascii	"int\000"
 302 002c 03       		.uleb128 0x3
 303 002d 04       		.byte	0x4
 304 002e 07       		.byte	0x7
 305 002f 44010000 		.4byte	.LASF0
 306 0033 03       		.uleb128 0x3
 307 0034 01       		.byte	0x1
 308 0035 06       		.byte	0x6
 309 0036 AD050000 		.4byte	.LASF1
 310 003a 04       		.uleb128 0x4
 311 003b D9040000 		.4byte	.LASF4
 312 003f 02       		.byte	0x2
 313 0040 2B       		.byte	0x2b
 314 0041 45000000 		.4byte	0x45
 315 0045 03       		.uleb128 0x3
 316 0046 01       		.byte	0x1
 317 0047 08       		.byte	0x8
 318 0048 54050000 		.4byte	.LASF2
 319 004c 03       		.uleb128 0x3
 320 004d 02       		.byte	0x2
 321 004e 05       		.byte	0x5
 322 004f 5E040000 		.4byte	.LASF3
 323 0053 04       		.uleb128 0x4
 324 0054 58020000 		.4byte	.LASF5
 325 0058 02       		.byte	0x2
 326 0059 39       		.byte	0x39
 327 005a 5E000000 		.4byte	0x5e
 328 005e 03       		.uleb128 0x3
 329 005f 02       		.byte	0x2
 330 0060 07       		.byte	0x7
 331 0061 BF050000 		.4byte	.LASF6
 332 0065 04       		.uleb128 0x4
 333 0066 6D010000 		.4byte	.LASF7
 334 006a 02       		.byte	0x2
 335 006b 4D       		.byte	0x4d
 336 006c 70000000 		.4byte	0x70
 337 0070 03       		.uleb128 0x3
ARM GAS  /var/folders/t8/16hdwfmd2fg_d3q6dgx6bpmw0000gn/T//ccdqvDSM.s 			page 7


 338 0071 04       		.byte	0x4
 339 0072 05       		.byte	0x5
 340 0073 68040000 		.4byte	.LASF8
 341 0077 04       		.uleb128 0x4
 342 0078 62050000 		.4byte	.LASF9
 343 007c 02       		.byte	0x2
 344 007d 4F       		.byte	0x4f
 345 007e 82000000 		.4byte	0x82
 346 0082 03       		.uleb128 0x3
 347 0083 04       		.byte	0x4
 348 0084 07       		.byte	0x7
 349 0085 07050000 		.4byte	.LASF10
 350 0089 03       		.uleb128 0x3
 351 008a 08       		.byte	0x8
 352 008b 05       		.byte	0x5
 353 008c 6F030000 		.4byte	.LASF11
 354 0090 04       		.uleb128 0x4
 355 0091 E0020000 		.4byte	.LASF12
 356 0095 02       		.byte	0x2
 357 0096 69       		.byte	0x69
 358 0097 9B000000 		.4byte	0x9b
 359 009b 03       		.uleb128 0x3
 360 009c 08       		.byte	0x8
 361 009d 07       		.byte	0x7
 362 009e 41020000 		.4byte	.LASF13
 363 00a2 04       		.uleb128 0x4
 364 00a3 3C030000 		.4byte	.LASF14
 365 00a7 03       		.byte	0x3
 366 00a8 18       		.byte	0x18
 367 00a9 3A000000 		.4byte	0x3a
 368 00ad 04       		.uleb128 0x4
 369 00ae 39040000 		.4byte	.LASF15
 370 00b2 03       		.byte	0x3
 371 00b3 24       		.byte	0x24
 372 00b4 53000000 		.4byte	0x53
 373 00b8 04       		.uleb128 0x4
 374 00b9 37050000 		.4byte	.LASF16
 375 00bd 03       		.byte	0x3
 376 00be 2C       		.byte	0x2c
 377 00bf 65000000 		.4byte	0x65
 378 00c3 04       		.uleb128 0x4
 379 00c4 F3010000 		.4byte	.LASF17
 380 00c8 03       		.byte	0x3
 381 00c9 30       		.byte	0x30
 382 00ca 77000000 		.4byte	0x77
 383 00ce 04       		.uleb128 0x4
 384 00cf CA040000 		.4byte	.LASF18
 385 00d3 03       		.byte	0x3
 386 00d4 3C       		.byte	0x3c
 387 00d5 90000000 		.4byte	0x90
 388 00d9 04       		.uleb128 0x4
 389 00da 1E040000 		.4byte	.LASF19
 390 00de 04       		.byte	0x4
 391 00df 3C       		.byte	0x3c
 392 00e0 A2000000 		.4byte	0xa2
 393 00e4 04       		.uleb128 0x4
 394 00e5 33030000 		.4byte	.LASF20
ARM GAS  /var/folders/t8/16hdwfmd2fg_d3q6dgx6bpmw0000gn/T//ccdqvDSM.s 			page 8


 395 00e9 04       		.byte	0x4
 396 00ea 3D       		.byte	0x3d
 397 00eb A2000000 		.4byte	0xa2
 398 00ef 04       		.uleb128 0x4
 399 00f0 FF040000 		.4byte	.LASF21
 400 00f4 04       		.byte	0x4
 401 00f5 3E       		.byte	0x3e
 402 00f6 A2000000 		.4byte	0xa2
 403 00fa 04       		.uleb128 0x4
 404 00fb C3030000 		.4byte	.LASF22
 405 00ff 04       		.byte	0x4
 406 0100 3F       		.byte	0x3f
 407 0101 A2000000 		.4byte	0xa2
 408 0105 04       		.uleb128 0x4
 409 0106 28020000 		.4byte	.LASF23
 410 010a 04       		.byte	0x4
 411 010b 40       		.byte	0x40
 412 010c C3000000 		.4byte	0xc3
 413 0110 04       		.uleb128 0x4
 414 0111 82030000 		.4byte	.LASF24
 415 0115 04       		.byte	0x4
 416 0116 41       		.byte	0x41
 417 0117 B8000000 		.4byte	0xb8
 418 011b 04       		.uleb128 0x4
 419 011c 04020000 		.4byte	.LASF25
 420 0120 04       		.byte	0x4
 421 0121 43       		.byte	0x43
 422 0122 C3000000 		.4byte	0xc3
 423 0126 04       		.uleb128 0x4
 424 0127 63020000 		.4byte	.LASF26
 425 012b 04       		.byte	0x4
 426 012c 45       		.byte	0x45
 427 012d B8000000 		.4byte	0xb8
 428 0131 04       		.uleb128 0x4
 429 0132 21010000 		.4byte	.LASF27
 430 0136 05       		.byte	0x5
 431 0137 33       		.byte	0x33
 432 0138 C3000000 		.4byte	0xc3
 433 013c 05       		.uleb128 0x5
 434 013d 31010000 		.4byte	0x131
 435 0141 04       		.uleb128 0x4
 436 0142 B3020000 		.4byte	.LASF28
 437 0146 05       		.byte	0x5
 438 0147 3F       		.byte	0x3f
 439 0148 4C010000 		.4byte	0x14c
 440 014c 06       		.uleb128 0x6
 441 014d 4D030000 		.4byte	.LASF47
 442 0151 44       		.byte	0x44
 443 0152 06       		.byte	0x6
 444 0153 9A       		.byte	0x9a
 445 0154 36020000 		.4byte	0x236
 446 0158 07       		.uleb128 0x7
 447 0159 31050000 		.4byte	.LASF29
 448 015d 06       		.byte	0x6
 449 015e 9B       		.byte	0x9b
 450 015f 6B020000 		.4byte	0x26b
 451 0163 00       		.byte	0
ARM GAS  /var/folders/t8/16hdwfmd2fg_d3q6dgx6bpmw0000gn/T//ccdqvDSM.s 			page 9


 452 0164 07       		.uleb128 0x7
 453 0165 FD020000 		.4byte	.LASF30
 454 0169 06       		.byte	0x6
 455 016a 9C       		.byte	0x9c
 456 016b 05010000 		.4byte	0x105
 457 016f 08       		.byte	0x8
 458 0170 08       		.uleb128 0x8
 459 0171 63747800 		.ascii	"ctx\000"
 460 0175 06       		.byte	0x6
 461 0176 9D       		.byte	0x9d
 462 0177 6A040000 		.4byte	0x46a
 463 017b 0C       		.byte	0xc
 464 017c 07       		.uleb128 0x7
 465 017d 4E050000 		.4byte	.LASF31
 466 0181 06       		.byte	0x6
 467 0182 9F       		.byte	0x9f
 468 0183 41020000 		.4byte	0x241
 469 0187 10       		.byte	0x10
 470 0188 07       		.uleb128 0x7
 471 0189 00060000 		.4byte	.LASF32
 472 018d 06       		.byte	0x6
 473 018e A0       		.byte	0xa0
 474 018f 41020000 		.4byte	0x241
 475 0193 14       		.byte	0x14
 476 0194 07       		.uleb128 0x7
 477 0195 E3040000 		.4byte	.LASF33
 478 0199 06       		.byte	0x6
 479 019a A7       		.byte	0xa7
 480 019b C5050000 		.4byte	0x5c5
 481 019f 18       		.byte	0x18
 482 01a0 07       		.uleb128 0x7
 483 01a1 1A030000 		.4byte	.LASF34
 484 01a5 06       		.byte	0x6
 485 01a6 B0       		.byte	0xb0
 486 01a7 DC050000 		.4byte	0x5dc
 487 01ab 1C       		.byte	0x1c
 488 01ac 07       		.uleb128 0x7
 489 01ad 8B050000 		.4byte	.LASF35
 490 01b1 06       		.byte	0x6
 491 01b2 B5       		.byte	0xb5
 492 01b3 E4000000 		.4byte	0xe4
 493 01b7 20       		.byte	0x20
 494 01b8 07       		.uleb128 0x7
 495 01b9 1B010000 		.4byte	.LASF36
 496 01bd 06       		.byte	0x6
 497 01be B9       		.byte	0xb9
 498 01bf D9000000 		.4byte	0xd9
 499 01c3 21       		.byte	0x21
 500 01c4 07       		.uleb128 0x7
 501 01c5 77010000 		.4byte	.LASF37
 502 01c9 06       		.byte	0x6
 503 01ca BE       		.byte	0xbe
 504 01cb EF000000 		.4byte	0xef
 505 01cf 22       		.byte	0x22
 506 01d0 07       		.uleb128 0x7
 507 01d1 7D040000 		.4byte	.LASF38
 508 01d5 06       		.byte	0x6
ARM GAS  /var/folders/t8/16hdwfmd2fg_d3q6dgx6bpmw0000gn/T//ccdqvDSM.s 			page 10


 509 01d6 C4       		.byte	0xc4
 510 01d7 FA000000 		.4byte	0xfa
 511 01db 23       		.byte	0x23
 512 01dc 09       		.uleb128 0x9
 513 01dd 7500     		.ascii	"u\000"
 514 01df 06       		.byte	0x6
 515 01e0 0F01     		.2byte	0x10f
 516 01e2 FA040000 		.4byte	0x4fa
 517 01e6 24       		.byte	0x24
 518 01e7 0A       		.uleb128 0xa
 519 01e8 6D050000 		.4byte	.LASF39
 520 01ec 06       		.byte	0x6
 521 01ed 1401     		.2byte	0x114
 522 01ef 47020000 		.4byte	0x247
 523 01f3 28       		.byte	0x28
 524 01f4 0A       		.uleb128 0xa
 525 01f5 44030000 		.4byte	.LASF40
 526 01f9 06       		.byte	0x6
 527 01fa 1A01     		.2byte	0x11a
 528 01fc 6B020000 		.4byte	0x26b
 529 0200 2C       		.byte	0x2c
 530 0201 0A       		.uleb128 0xa
 531 0202 3B010000 		.4byte	.LASF41
 532 0206 06       		.byte	0x6
 533 0207 2001     		.2byte	0x120
 534 0209 1B010000 		.4byte	0x11b
 535 020d 34       		.byte	0x34
 536 020e 0A       		.uleb128 0xa
 537 020f 94020000 		.4byte	.LASF42
 538 0213 06       		.byte	0x6
 539 0214 2701     		.2byte	0x127
 540 0216 BF050000 		.4byte	0x5bf
 541 021a 38       		.byte	0x38
 542 021b 0A       		.uleb128 0xa
 543 021c 2B010000 		.4byte	.LASF43
 544 0220 06       		.byte	0x6
 545 0221 2B01     		.2byte	0x12b
 546 0223 05010000 		.4byte	0x105
 547 0227 3C       		.byte	0x3c
 548 0228 0A       		.uleb128 0xa
 549 0229 0F060000 		.4byte	.LASF44
 550 022d 06       		.byte	0x6
 551 022e 3201     		.2byte	0x132
 552 0230 1E030000 		.4byte	0x31e
 553 0234 40       		.byte	0x40
 554 0235 00       		.byte	0
 555 0236 04       		.uleb128 0x4
 556 0237 07030000 		.4byte	.LASF45
 557 023b 05       		.byte	0x5
 558 023c 44       		.byte	0x44
 559 023d 41020000 		.4byte	0x241
 560 0241 0B       		.uleb128 0xb
 561 0242 04       		.byte	0x4
 562 0243 41010000 		.4byte	0x141
 563 0247 04       		.uleb128 0x4
 564 0248 5E010000 		.4byte	.LASF46
 565 024c 05       		.byte	0x5
ARM GAS  /var/folders/t8/16hdwfmd2fg_d3q6dgx6bpmw0000gn/T//ccdqvDSM.s 			page 11


 566 024d 49       		.byte	0x49
 567 024e 52020000 		.4byte	0x252
 568 0252 06       		.uleb128 0x6
 569 0253 00000000 		.4byte	.LASF48
 570 0257 04       		.byte	0x4
 571 0258 06       		.byte	0x6
 572 0259 88       		.byte	0x88
 573 025a 6B020000 		.4byte	0x26b
 574 025e 07       		.uleb128 0x7
 575 025f 51010000 		.4byte	.LASF49
 576 0263 06       		.byte	0x6
 577 0264 89       		.byte	0x89
 578 0265 41020000 		.4byte	0x241
 579 0269 00       		.byte	0
 580 026a 00       		.byte	0
 581 026b 04       		.uleb128 0x4
 582 026c 84020000 		.4byte	.LASF50
 583 0270 05       		.byte	0x5
 584 0271 50       		.byte	0x50
 585 0272 76020000 		.4byte	0x276
 586 0276 06       		.uleb128 0x6
 587 0277 BF010000 		.4byte	.LASF51
 588 027b 08       		.byte	0x8
 589 027c 06       		.byte	0x6
 590 027d 8F       		.byte	0x8f
 591 027e 9B020000 		.4byte	0x29b
 592 0282 07       		.uleb128 0x7
 593 0283 51010000 		.4byte	.LASF49
 594 0287 06       		.byte	0x6
 595 0288 90       		.byte	0x90
 596 0289 41020000 		.4byte	0x241
 597 028d 00       		.byte	0
 598 028e 07       		.uleb128 0x7
 599 028f BA010000 		.4byte	.LASF52
 600 0293 06       		.byte	0x6
 601 0294 91       		.byte	0x91
 602 0295 41020000 		.4byte	0x241
 603 0299 04       		.byte	0x4
 604 029a 00       		.byte	0
 605 029b 04       		.uleb128 0x4
 606 029c 24050000 		.4byte	.LASF53
 607 02a0 05       		.byte	0x5
 608 02a1 57       		.byte	0x57
 609 02a2 A6020000 		.4byte	0x2a6
 610 02a6 0C       		.uleb128 0xc
 611 02a7 A0010000 		.4byte	.LASF54
 612 02ab 1C       		.byte	0x1c
 613 02ac 06       		.byte	0x6
 614 02ad 6A01     		.2byte	0x16a
 615 02af 02030000 		.4byte	0x302
 616 02b3 0A       		.uleb128 0xa
 617 02b4 31050000 		.4byte	.LASF29
 618 02b8 06       		.byte	0x6
 619 02b9 6B01     		.2byte	0x16b
 620 02bb 6B020000 		.4byte	0x26b
 621 02bf 00       		.byte	0
 622 02c0 0A       		.uleb128 0xa
ARM GAS  /var/folders/t8/16hdwfmd2fg_d3q6dgx6bpmw0000gn/T//ccdqvDSM.s 			page 12


 623 02c1 FD020000 		.4byte	.LASF30
 624 02c5 06       		.byte	0x6
 625 02c6 6C01     		.2byte	0x16c
 626 02c8 05010000 		.4byte	0x105
 627 02cc 08       		.byte	0x8
 628 02cd 09       		.uleb128 0x9
 629 02ce 63747800 		.ascii	"ctx\000"
 630 02d2 06       		.byte	0x6
 631 02d3 6E01     		.2byte	0x16e
 632 02d5 6A040000 		.4byte	0x46a
 633 02d9 0C       		.byte	0xc
 634 02da 0A       		.uleb128 0xa
 635 02db 4E050000 		.4byte	.LASF31
 636 02df 06       		.byte	0x6
 637 02e0 7101     		.2byte	0x171
 638 02e2 41020000 		.4byte	0x241
 639 02e6 10       		.byte	0x10
 640 02e7 0A       		.uleb128 0xa
 641 02e8 00060000 		.4byte	.LASF32
 642 02ec 06       		.byte	0x6
 643 02ed 7201     		.2byte	0x172
 644 02ef 41020000 		.4byte	0x241
 645 02f3 14       		.byte	0x14
 646 02f4 0A       		.uleb128 0xa
 647 02f5 E6050000 		.4byte	.LASF55
 648 02f9 06       		.byte	0x6
 649 02fa 7501     		.2byte	0x175
 650 02fc 41020000 		.4byte	0x241
 651 0300 18       		.byte	0x18
 652 0301 00       		.byte	0
 653 0302 04       		.uleb128 0x4
 654 0303 DA010000 		.4byte	.LASF56
 655 0307 05       		.byte	0x5
 656 0308 5C       		.byte	0x5c
 657 0309 0D030000 		.4byte	0x30d
 658 030d 0B       		.uleb128 0xb
 659 030e 04       		.byte	0x4
 660 030f 13030000 		.4byte	0x313
 661 0313 0D       		.uleb128 0xd
 662 0314 1E030000 		.4byte	0x31e
 663 0318 0E       		.uleb128 0xe
 664 0319 1E030000 		.4byte	0x31e
 665 031d 00       		.byte	0
 666 031e 0F       		.uleb128 0xf
 667 031f 04       		.byte	0x4
 668 0320 04       		.uleb128 0x4
 669 0321 95030000 		.4byte	.LASF57
 670 0325 05       		.byte	0x5
 671 0326 61       		.byte	0x61
 672 0327 2B030000 		.4byte	0x32b
 673 032b 0C       		.uleb128 0xc
 674 032c 30020000 		.4byte	.LASF58
 675 0330 14       		.byte	0x14
 676 0331 06       		.byte	0x6
 677 0332 4501     		.2byte	0x145
 678 0334 7A030000 		.4byte	0x37a
 679 0338 0A       		.uleb128 0xa
ARM GAS  /var/folders/t8/16hdwfmd2fg_d3q6dgx6bpmw0000gn/T//ccdqvDSM.s 			page 13


 680 0339 51010000 		.4byte	.LASF49
 681 033d 06       		.byte	0x6
 682 033e 4601     		.2byte	0x146
 683 0340 E2050000 		.4byte	0x5e2
 684 0344 00       		.byte	0
 685 0345 0A       		.uleb128 0xa
 686 0346 BA010000 		.4byte	.LASF52
 687 034a 06       		.byte	0x6
 688 034b 4701     		.2byte	0x147
 689 034d E2050000 		.4byte	0x5e2
 690 0351 04       		.byte	0x4
 691 0352 0A       		.uleb128 0xa
 692 0353 B9050000 		.4byte	.LASF59
 693 0357 06       		.byte	0x6
 694 0358 4801     		.2byte	0x148
 695 035a 31010000 		.4byte	0x131
 696 035e 08       		.byte	0x8
 697 035f 0A       		.uleb128 0xa
 698 0360 AE010000 		.4byte	.LASF60
 699 0364 06       		.byte	0x6
 700 0365 4901     		.2byte	0x149
 701 0367 02030000 		.4byte	0x302
 702 036b 0C       		.byte	0xc
 703 036c 09       		.uleb128 0x9
 704 036d 70617200 		.ascii	"par\000"
 705 0371 06       		.byte	0x6
 706 0372 4B01     		.2byte	0x14b
 707 0374 1E030000 		.4byte	0x31e
 708 0378 10       		.byte	0x10
 709 0379 00       		.byte	0
 710 037a 04       		.uleb128 0x4
 711 037b 75050000 		.4byte	.LASF61
 712 037f 05       		.byte	0x5
 713 0380 66       		.byte	0x66
 714 0381 85030000 		.4byte	0x385
 715 0385 0C       		.uleb128 0xc
 716 0386 9C020000 		.4byte	.LASF62
 717 038a 10       		.byte	0x10
 718 038b 06       		.byte	0x6
 719 038c 5501     		.2byte	0x155
 720 038e C7030000 		.4byte	0x3c7
 721 0392 0A       		.uleb128 0xa
 722 0393 51010000 		.4byte	.LASF49
 723 0397 06       		.byte	0x6
 724 0398 5601     		.2byte	0x156
 725 039a E2050000 		.4byte	0x5e2
 726 039e 00       		.byte	0
 727 039f 0A       		.uleb128 0xa
 728 03a0 BA010000 		.4byte	.LASF52
 729 03a4 06       		.byte	0x6
 730 03a5 5801     		.2byte	0x158
 731 03a7 E2050000 		.4byte	0x5e2
 732 03ab 04       		.byte	0x4
 733 03ac 0A       		.uleb128 0xa
 734 03ad B9050000 		.4byte	.LASF59
 735 03b1 06       		.byte	0x6
 736 03b2 5A01     		.2byte	0x15a
ARM GAS  /var/folders/t8/16hdwfmd2fg_d3q6dgx6bpmw0000gn/T//ccdqvDSM.s 			page 14


 737 03b4 31010000 		.4byte	0x131
 738 03b8 08       		.byte	0x8
 739 03b9 0A       		.uleb128 0xa
 740 03ba 26040000 		.4byte	.LASF63
 741 03be 06       		.byte	0x6
 742 03bf 5C01     		.2byte	0x15c
 743 03c1 3C010000 		.4byte	0x13c
 744 03c5 0C       		.byte	0xc
 745 03c6 00       		.byte	0
 746 03c7 04       		.uleb128 0x4
 747 03c8 60030000 		.4byte	.LASF64
 748 03cc 05       		.byte	0x5
 749 03cd 6B       		.byte	0x6b
 750 03ce D2030000 		.4byte	0x3d2
 751 03d2 0C       		.uleb128 0xc
 752 03d3 E3010000 		.4byte	.LASF65
 753 03d7 0C       		.byte	0xc
 754 03d8 06       		.byte	0x6
 755 03d9 7C01     		.2byte	0x17c
 756 03db 07040000 		.4byte	0x407
 757 03df 0A       		.uleb128 0xa
 758 03e0 14040000 		.4byte	.LASF66
 759 03e4 06       		.byte	0x6
 760 03e5 8401     		.2byte	0x184
 761 03e7 CB050000 		.4byte	0x5cb
 762 03eb 00       		.byte	0
 763 03ec 0A       		.uleb128 0xa
 764 03ed 76020000 		.4byte	.LASF67
 765 03f1 06       		.byte	0x6
 766 03f2 8901     		.2byte	0x189
 767 03f4 26010000 		.4byte	0x126
 768 03f8 04       		.byte	0x4
 769 03f9 0A       		.uleb128 0xa
 770 03fa 55040000 		.4byte	.LASF68
 771 03fe 06       		.byte	0x6
 772 03ff 8D01     		.2byte	0x18d
 773 0401 26010000 		.4byte	0x126
 774 0405 08       		.byte	0x8
 775 0406 00       		.byte	0
 776 0407 04       		.uleb128 0x4
 777 0408 9B050000 		.4byte	.LASF69
 778 040c 05       		.byte	0x5
 779 040d 70       		.byte	0x70
 780 040e 12040000 		.4byte	0x412
 781 0412 0C       		.uleb128 0xc
 782 0413 8B040000 		.4byte	.LASF70
 783 0417 7C       		.byte	0x7c
 784 0418 06       		.byte	0x6
 785 0419 9C01     		.2byte	0x19c
 786 041b 54040000 		.4byte	0x454
 787 041f 0A       		.uleb128 0xa
 788 0420 D3040000 		.4byte	.LASF71
 789 0424 06       		.byte	0x6
 790 0425 A001     		.2byte	0x1a0
 791 0427 9B020000 		.4byte	0x29b
 792 042b 00       		.byte	0
 793 042c 0A       		.uleb128 0xa
ARM GAS  /var/folders/t8/16hdwfmd2fg_d3q6dgx6bpmw0000gn/T//ccdqvDSM.s 			page 15


 794 042d 8C010000 		.4byte	.LASF72
 795 0431 06       		.byte	0x6
 796 0432 A401     		.2byte	0x1a4
 797 0434 7A030000 		.4byte	0x37a
 798 0438 1C       		.byte	0x1c
 799 0439 09       		.uleb128 0x9
 800 043a 64626700 		.ascii	"dbg\000"
 801 043e 06       		.byte	0x6
 802 043f A801     		.2byte	0x1a8
 803 0441 C7030000 		.4byte	0x3c7
 804 0445 2C       		.byte	0x2c
 805 0446 0A       		.uleb128 0xa
 806 0447 2E040000 		.4byte	.LASF73
 807 044b 06       		.byte	0x6
 808 044c AC01     		.2byte	0x1ac
 809 044e 41010000 		.4byte	0x141
 810 0452 38       		.byte	0x38
 811 0453 00       		.byte	0
 812 0454 04       		.uleb128 0x4
 813 0455 09010000 		.4byte	.LASF74
 814 0459 07       		.byte	0x7
 815 045a 65       		.byte	0x65
 816 045b 1E030000 		.4byte	0x31e
 817 045f 04       		.uleb128 0x4
 818 0460 D2050000 		.4byte	.LASF75
 819 0464 07       		.byte	0x7
 820 0465 6D       		.byte	0x6d
 821 0466 CE000000 		.4byte	0xce
 822 046a 06       		.uleb128 0x6
 823 046b 93010000 		.4byte	.LASF76
 824 046f 04       		.byte	0x4
 825 0470 07       		.byte	0x7
 826 0471 89       		.byte	0x89
 827 0472 82040000 		.4byte	0x482
 828 0476 08       		.uleb128 0x8
 829 0477 737000   		.ascii	"sp\000"
 830 047a 07       		.byte	0x7
 831 047b 8A       		.byte	0x8a
 832 047c F4040000 		.4byte	0x4f4
 833 0480 00       		.byte	0
 834 0481 00       		.byte	0
 835 0482 06       		.uleb128 0x6
 836 0483 71040000 		.4byte	.LASF77
 837 0487 24       		.byte	0x24
 838 0488 08       		.byte	0x8
 839 0489 C3       		.byte	0xc3
 840 048a F4040000 		.4byte	0x4f4
 841 048e 08       		.uleb128 0x8
 842 048f 723800   		.ascii	"r8\000"
 843 0492 08       		.byte	0x8
 844 0493 C4       		.byte	0xc4
 845 0494 54040000 		.4byte	0x454
 846 0498 00       		.byte	0
 847 0499 08       		.uleb128 0x8
 848 049a 723900   		.ascii	"r9\000"
 849 049d 08       		.byte	0x8
 850 049e C5       		.byte	0xc5
ARM GAS  /var/folders/t8/16hdwfmd2fg_d3q6dgx6bpmw0000gn/T//ccdqvDSM.s 			page 16


 851 049f 54040000 		.4byte	0x454
 852 04a3 04       		.byte	0x4
 853 04a4 08       		.uleb128 0x8
 854 04a5 72313000 		.ascii	"r10\000"
 855 04a9 08       		.byte	0x8
 856 04aa C6       		.byte	0xc6
 857 04ab 54040000 		.4byte	0x454
 858 04af 08       		.byte	0x8
 859 04b0 08       		.uleb128 0x8
 860 04b1 72313100 		.ascii	"r11\000"
 861 04b5 08       		.byte	0x8
 862 04b6 C7       		.byte	0xc7
 863 04b7 54040000 		.4byte	0x454
 864 04bb 0C       		.byte	0xc
 865 04bc 08       		.uleb128 0x8
 866 04bd 723400   		.ascii	"r4\000"
 867 04c0 08       		.byte	0x8
 868 04c1 C8       		.byte	0xc8
 869 04c2 54040000 		.4byte	0x454
 870 04c6 10       		.byte	0x10
 871 04c7 08       		.uleb128 0x8
 872 04c8 723500   		.ascii	"r5\000"
 873 04cb 08       		.byte	0x8
 874 04cc C9       		.byte	0xc9
 875 04cd 54040000 		.4byte	0x454
 876 04d1 14       		.byte	0x14
 877 04d2 08       		.uleb128 0x8
 878 04d3 723600   		.ascii	"r6\000"
 879 04d6 08       		.byte	0x8
 880 04d7 CA       		.byte	0xca
 881 04d8 54040000 		.4byte	0x454
 882 04dc 18       		.byte	0x18
 883 04dd 08       		.uleb128 0x8
 884 04de 723700   		.ascii	"r7\000"
 885 04e1 08       		.byte	0x8
 886 04e2 CB       		.byte	0xcb
 887 04e3 54040000 		.4byte	0x454
 888 04e7 1C       		.byte	0x1c
 889 04e8 08       		.uleb128 0x8
 890 04e9 6C7200   		.ascii	"lr\000"
 891 04ec 08       		.byte	0x8
 892 04ed CC       		.byte	0xcc
 893 04ee 54040000 		.4byte	0x454
 894 04f2 20       		.byte	0x20
 895 04f3 00       		.byte	0
 896 04f4 0B       		.uleb128 0xb
 897 04f5 04       		.byte	0x4
 898 04f6 82040000 		.4byte	0x482
 899 04fa 10       		.uleb128 0x10
 900 04fb 04       		.byte	0x4
 901 04fc 06       		.byte	0x6
 902 04fd D2       		.byte	0xd2
 903 04fe 5D050000 		.4byte	0x55d
 904 0502 11       		.uleb128 0x11
 905 0503 D0020000 		.4byte	.LASF78
 906 0507 06       		.byte	0x6
 907 0508 D9       		.byte	0xd9
ARM GAS  /var/folders/t8/16hdwfmd2fg_d3q6dgx6bpmw0000gn/T//ccdqvDSM.s 			page 17


 908 0509 10010000 		.4byte	0x110
 909 050d 11       		.uleb128 0x11
 910 050e 06060000 		.4byte	.LASF79
 911 0512 06       		.byte	0x6
 912 0513 E0       		.byte	0xe0
 913 0514 10010000 		.4byte	0x110
 914 0518 11       		.uleb128 0x11
 915 0519 85010000 		.4byte	.LASF80
 916 051d 06       		.byte	0x6
 917 051e E7       		.byte	0xe7
 918 051f 1E030000 		.4byte	0x31e
 919 0523 11       		.uleb128 0x11
 920 0524 A7050000 		.4byte	.LASF81
 921 0528 06       		.byte	0x6
 922 0529 EE       		.byte	0xee
 923 052a 5D050000 		.4byte	0x55d
 924 052e 11       		.uleb128 0x11
 925 052f FC010000 		.4byte	.LASF82
 926 0533 06       		.byte	0x6
 927 0534 F3       		.byte	0xf3
 928 0535 10010000 		.4byte	0x110
 929 0539 11       		.uleb128 0x11
 930 053a 3F050000 		.4byte	.LASF83
 931 053e 06       		.byte	0x6
 932 053f FC       		.byte	0xfc
 933 0540 88050000 		.4byte	0x588
 934 0544 12       		.uleb128 0x12
 935 0545 02010000 		.4byte	.LASF84
 936 0549 06       		.byte	0x6
 937 054a 0501     		.2byte	0x105
 938 054c BF050000 		.4byte	0x5bf
 939 0550 12       		.uleb128 0x12
 940 0551 B3010000 		.4byte	.LASF85
 941 0555 06       		.byte	0x6
 942 0556 0D01     		.2byte	0x10d
 943 0558 1B010000 		.4byte	0x11b
 944 055c 00       		.byte	0
 945 055d 0B       		.uleb128 0xb
 946 055e 04       		.byte	0x4
 947 055f 36020000 		.4byte	0x236
 948 0563 06       		.uleb128 0x6
 949 0564 1B020000 		.4byte	.LASF86
 950 0568 0C       		.byte	0xc
 951 0569 09       		.byte	0x9
 952 056a 34       		.byte	0x34
 953 056b 88050000 		.4byte	0x588
 954 056f 07       		.uleb128 0x7
 955 0570 31050000 		.4byte	.LASF29
 956 0574 09       		.byte	0x9
 957 0575 35       		.byte	0x35
 958 0576 6B020000 		.4byte	0x26b
 959 057a 00       		.byte	0
 960 057b 08       		.uleb128 0x8
 961 057c 636E7400 		.ascii	"cnt\000"
 962 0580 09       		.byte	0x9
 963 0581 37       		.byte	0x37
 964 0582 26010000 		.4byte	0x126
ARM GAS  /var/folders/t8/16hdwfmd2fg_d3q6dgx6bpmw0000gn/T//ccdqvDSM.s 			page 18


 965 0586 08       		.byte	0x8
 966 0587 00       		.byte	0
 967 0588 0B       		.uleb128 0xb
 968 0589 04       		.byte	0x4
 969 058a 63050000 		.4byte	0x563
 970 058e 06       		.uleb128 0x6
 971 058f D7020000 		.4byte	.LASF87
 972 0593 10       		.byte	0x10
 973 0594 0A       		.byte	0xa
 974 0595 39       		.byte	0x39
 975 0596 BF050000 		.4byte	0x5bf
 976 059a 07       		.uleb128 0x7
 977 059b 31050000 		.4byte	.LASF29
 978 059f 0A       		.byte	0xa
 979 05a0 3A       		.byte	0x3a
 980 05a1 6B020000 		.4byte	0x26b
 981 05a5 00       		.byte	0
 982 05a6 07       		.uleb128 0x7
 983 05a7 7E020000 		.4byte	.LASF88
 984 05ab 0A       		.byte	0xa
 985 05ac 3C       		.byte	0x3c
 986 05ad 41020000 		.4byte	0x241
 987 05b1 08       		.byte	0x8
 988 05b2 07       		.uleb128 0x7
 989 05b3 51010000 		.4byte	.LASF49
 990 05b7 0A       		.byte	0xa
 991 05b8 3E       		.byte	0x3e
 992 05b9 21070000 		.4byte	0x721
 993 05bd 0C       		.byte	0xc
 994 05be 00       		.byte	0
 995 05bf 0B       		.uleb128 0xb
 996 05c0 04       		.byte	0x4
 997 05c1 8E050000 		.4byte	0x58e
 998 05c5 0B       		.uleb128 0xb
 999 05c6 04       		.byte	0x4
 1000 05c7 D7050000 		.4byte	0x5d7
 1001 05cb 05       		.uleb128 0x5
 1002 05cc C5050000 		.4byte	0x5c5
 1003 05d0 03       		.uleb128 0x3
 1004 05d1 01       		.byte	0x1
 1005 05d2 08       		.byte	0x8
 1006 05d3 02030000 		.4byte	.LASF89
 1007 05d7 13       		.uleb128 0x13
 1008 05d8 D0050000 		.4byte	0x5d0
 1009 05dc 0B       		.uleb128 0xb
 1010 05dd 04       		.byte	0x4
 1011 05de 5F040000 		.4byte	0x45f
 1012 05e2 0B       		.uleb128 0xb
 1013 05e3 04       		.byte	0x4
 1014 05e4 20030000 		.4byte	0x320
 1015 05e8 14       		.uleb128 0x14
 1016 05e9 636800   		.ascii	"ch\000"
 1017 05ec 06       		.byte	0x6
 1018 05ed D201     		.2byte	0x1d2
 1019 05ef 07040000 		.4byte	0x407
 1020 05f3 15       		.uleb128 0x15
 1021 05f4 5F040000 		.4byte	0x45f
ARM GAS  /var/folders/t8/16hdwfmd2fg_d3q6dgx6bpmw0000gn/T//ccdqvDSM.s 			page 19


 1022 05f8 FE050000 		.4byte	0x5fe
 1023 05fc 16       		.uleb128 0x16
 1024 05fd 00       		.byte	0
 1025 05fe 17       		.uleb128 0x17
 1026 05ff 21030000 		.4byte	.LASF90
 1027 0603 0C       		.byte	0xc
 1028 0604 2B01     		.2byte	0x12b
 1029 0606 F3050000 		.4byte	0x5f3
 1030 060a 18       		.uleb128 0x18
 1031 060b 16       		.byte	0x16
 1032 060c 0B       		.byte	0xb
 1033 060d 34       		.byte	0x34
 1034 060e EB060000 		.4byte	0x6eb
 1035 0612 07       		.uleb128 0x7
 1036 0613 E8040000 		.4byte	.LASF91
 1037 0617 0B       		.byte	0xb
 1038 0618 35       		.byte	0x35
 1039 0619 EB060000 		.4byte	0x6eb
 1040 061d 00       		.byte	0
 1041 061e 07       		.uleb128 0x7
 1042 061f 7D030000 		.4byte	.LASF92
 1043 0623 0B       		.byte	0xb
 1044 0624 36       		.byte	0x36
 1045 0625 A2000000 		.4byte	0xa2
 1046 0629 04       		.byte	0x4
 1047 062a 07       		.uleb128 0x7
 1048 062b A5030000 		.4byte	.LASF93
 1049 062f 0B       		.byte	0xb
 1050 0630 37       		.byte	0x37
 1051 0631 A2000000 		.4byte	0xa2
 1052 0635 05       		.byte	0x5
 1053 0636 07       		.uleb128 0x7
 1054 0637 56010000 		.4byte	.LASF94
 1055 063b 0B       		.byte	0xb
 1056 063c 38       		.byte	0x38
 1057 063d AD000000 		.4byte	0xad
 1058 0641 06       		.byte	0x6
 1059 0642 07       		.uleb128 0x7
 1060 0643 AA030000 		.4byte	.LASF95
 1061 0647 0B       		.byte	0xb
 1062 0648 39       		.byte	0x39
 1063 0649 A2000000 		.4byte	0xa2
 1064 064d 08       		.byte	0x8
 1065 064e 07       		.uleb128 0x7
 1066 064f 10000000 		.4byte	.LASF96
 1067 0653 0B       		.byte	0xb
 1068 0654 3A       		.byte	0x3a
 1069 0655 A2000000 		.4byte	0xa2
 1070 0659 09       		.byte	0x9
 1071 065a 07       		.uleb128 0x7
 1072 065b 10020000 		.4byte	.LASF97
 1073 065f 0B       		.byte	0xb
 1074 0660 3B       		.byte	0x3b
 1075 0661 A2000000 		.4byte	0xa2
 1076 0665 0A       		.byte	0xa
 1077 0666 07       		.uleb128 0x7
 1078 0667 4C040000 		.4byte	.LASF98
ARM GAS  /var/folders/t8/16hdwfmd2fg_d3q6dgx6bpmw0000gn/T//ccdqvDSM.s 			page 20


 1079 066b 0B       		.byte	0xb
 1080 066c 3C       		.byte	0x3c
 1081 066d A2000000 		.4byte	0xa2
 1082 0671 0B       		.byte	0xb
 1083 0672 07       		.uleb128 0x7
 1084 0673 EB020000 		.4byte	.LASF99
 1085 0677 0B       		.byte	0xb
 1086 0678 3D       		.byte	0x3d
 1087 0679 A2000000 		.4byte	0xa2
 1088 067d 0C       		.byte	0xc
 1089 067e 07       		.uleb128 0x7
 1090 067f D0010000 		.4byte	.LASF100
 1091 0683 0B       		.byte	0xb
 1092 0684 3E       		.byte	0x3e
 1093 0685 A2000000 		.4byte	0xa2
 1094 0689 0D       		.byte	0xd
 1095 068a 07       		.uleb128 0x7
 1096 068b BC020000 		.4byte	.LASF101
 1097 068f 0B       		.byte	0xb
 1098 0690 3F       		.byte	0x3f
 1099 0691 A2000000 		.4byte	0xa2
 1100 0695 0E       		.byte	0xe
 1101 0696 07       		.uleb128 0x7
 1102 0697 57030000 		.4byte	.LASF102
 1103 069b 0B       		.byte	0xb
 1104 069c 40       		.byte	0x40
 1105 069d A2000000 		.4byte	0xa2
 1106 06a1 0F       		.byte	0xf
 1107 06a2 07       		.uleb128 0x7
 1108 06a3 69020000 		.4byte	.LASF103
 1109 06a7 0B       		.byte	0xb
 1110 06a8 41       		.byte	0x41
 1111 06a9 A2000000 		.4byte	0xa2
 1112 06ad 10       		.byte	0x10
 1113 06ae 07       		.uleb128 0x7
 1114 06af C6020000 		.4byte	.LASF104
 1115 06b3 0B       		.byte	0xb
 1116 06b4 42       		.byte	0x42
 1117 06b5 A2000000 		.4byte	0xa2
 1118 06b9 11       		.byte	0x11
 1119 06ba 07       		.uleb128 0x7
 1120 06bb F3020000 		.4byte	.LASF105
 1121 06bf 0B       		.byte	0xb
 1122 06c0 43       		.byte	0x43
 1123 06c1 A2000000 		.4byte	0xa2
 1124 06c5 12       		.byte	0x12
 1125 06c6 07       		.uleb128 0x7
 1126 06c7 DD050000 		.4byte	.LASF106
 1127 06cb 0B       		.byte	0xb
 1128 06cc 44       		.byte	0x44
 1129 06cd A2000000 		.4byte	0xa2
 1130 06d1 13       		.byte	0x13
 1131 06d2 07       		.uleb128 0x7
 1132 06d3 F3040000 		.4byte	.LASF107
 1133 06d7 0B       		.byte	0xb
 1134 06d8 45       		.byte	0x45
 1135 06d9 A2000000 		.4byte	0xa2
ARM GAS  /var/folders/t8/16hdwfmd2fg_d3q6dgx6bpmw0000gn/T//ccdqvDSM.s 			page 21


 1136 06dd 14       		.byte	0x14
 1137 06de 07       		.uleb128 0x7
 1138 06df 7C010000 		.4byte	.LASF108
 1139 06e3 0B       		.byte	0xb
 1140 06e4 46       		.byte	0x46
 1141 06e5 A2000000 		.4byte	0xa2
 1142 06e9 15       		.byte	0x15
 1143 06ea 00       		.byte	0
 1144 06eb 15       		.uleb128 0x15
 1145 06ec D0050000 		.4byte	0x5d0
 1146 06f0 FB060000 		.4byte	0x6fb
 1147 06f4 19       		.uleb128 0x19
 1148 06f5 2C000000 		.4byte	0x2c
 1149 06f9 03       		.byte	0x3
 1150 06fa 00       		.byte	0
 1151 06fb 04       		.uleb128 0x4
 1152 06fc 42040000 		.4byte	.LASF109
 1153 0700 0B       		.byte	0xb
 1154 0701 47       		.byte	0x47
 1155 0702 0A060000 		.4byte	0x60a
 1156 0706 13       		.uleb128 0x13
 1157 0707 FB060000 		.4byte	0x6fb
 1158 070b 1A       		.uleb128 0x1a
 1159 070c F7050000 		.4byte	.LASF110
 1160 0710 0B       		.byte	0xb
 1161 0711 6C       		.byte	0x6c
 1162 0712 06070000 		.4byte	0x706
 1163 0716 04       		.uleb128 0x4
 1164 0717 46050000 		.4byte	.LASF111
 1165 071b 0A       		.byte	0xa
 1166 071c 34       		.byte	0x34
 1167 071d 8E050000 		.4byte	0x58e
 1168 0721 0B       		.uleb128 0xb
 1169 0722 04       		.byte	0x4
 1170 0723 16070000 		.4byte	0x716
 1171 0727 1B       		.uleb128 0x1b
 1172 0728 88030000 		.4byte	.LASF112
 1173 072c 01       		.byte	0x1
 1174 072d BE       		.byte	0xbe
 1175 072e 00000000 		.4byte	.LFB140
 1176 0732 4C000000 		.4byte	.LFE140-.LFB140
 1177 0736 01       		.uleb128 0x1
 1178 0737 9C       		.byte	0x9c
 1179 0738 8E070000 		.4byte	0x78e
 1180 073c 1C       		.uleb128 0x1c
 1181 073d 76747000 		.ascii	"vtp\000"
 1182 0741 01       		.byte	0x1
 1183 0742 BE       		.byte	0xbe
 1184 0743 E2050000 		.4byte	0x5e2
 1185 0747 00000000 		.4byte	.LLST6
 1186 074b 1D       		.uleb128 0x1d
 1187 074c EE050000 		.4byte	.LASF116
 1188 0750 9E070000 		.4byte	0x79e
 1189 0754 05       		.uleb128 0x5
 1190 0755 03       		.byte	0x3
 1191 0756 00000000 		.4byte	__func__.5732
 1192 075a 1E       		.uleb128 0x1e
ARM GAS  /var/folders/t8/16hdwfmd2fg_d3q6dgx6bpmw0000gn/T//ccdqvDSM.s 			page 22


 1193 075b 08000000 		.4byte	.LVL15
 1194 075f 62080000 		.4byte	0x862
 1195 0763 1F       		.uleb128 0x1f
 1196 0764 3A000000 		.4byte	.LVL18
 1197 0768 6D080000 		.4byte	0x86d
 1198 076c 7A070000 		.4byte	0x77a
 1199 0770 20       		.uleb128 0x20
 1200 0771 01       		.uleb128 0x1
 1201 0772 50       		.byte	0x50
 1202 0773 05       		.uleb128 0x5
 1203 0774 03       		.byte	0x3
 1204 0775 00000000 		.4byte	.LANCHOR1
 1205 0779 00       		.byte	0
 1206 077a 21       		.uleb128 0x21
 1207 077b 42000000 		.4byte	.LVL19
 1208 077f 6D080000 		.4byte	0x86d
 1209 0783 20       		.uleb128 0x20
 1210 0784 01       		.uleb128 0x1
 1211 0785 50       		.byte	0x50
 1212 0786 05       		.uleb128 0x5
 1213 0787 03       		.byte	0x3
 1214 0788 00000000 		.4byte	.LANCHOR1
 1215 078c 00       		.byte	0
 1216 078d 00       		.byte	0
 1217 078e 15       		.uleb128 0x15
 1218 078f D7050000 		.4byte	0x5d7
 1219 0793 9E070000 		.4byte	0x79e
 1220 0797 19       		.uleb128 0x19
 1221 0798 2C000000 		.4byte	0x2c
 1222 079c 0C       		.byte	0xc
 1223 079d 00       		.byte	0
 1224 079e 13       		.uleb128 0x13
 1225 079f 8E070000 		.4byte	0x78e
 1226 07a3 1B       		.uleb128 0x1b
 1227 07a4 19050000 		.4byte	.LASF113
 1228 07a8 01       		.byte	0x1
 1229 07a9 5F       		.byte	0x5f
 1230 07aa 00000000 		.4byte	.LFB139
 1231 07ae 5C000000 		.4byte	.LFE139-.LFB139
 1232 07b2 01       		.uleb128 0x1
 1233 07b3 9C       		.byte	0x9c
 1234 07b4 3C080000 		.4byte	0x83c
 1235 07b8 1C       		.uleb128 0x1c
 1236 07b9 76747000 		.ascii	"vtp\000"
 1237 07bd 01       		.byte	0x1
 1238 07be 5F       		.byte	0x5f
 1239 07bf E2050000 		.4byte	0x5e2
 1240 07c3 37000000 		.4byte	.LLST0
 1241 07c7 22       		.uleb128 0x22
 1242 07c8 85040000 		.4byte	.LASF114
 1243 07cc 01       		.byte	0x1
 1244 07cd 5F       		.byte	0x5f
 1245 07ce 31010000 		.4byte	0x131
 1246 07d2 6E000000 		.4byte	.LLST1
 1247 07d6 22       		.uleb128 0x22
 1248 07d7 34010000 		.4byte	.LASF115
 1249 07db 01       		.byte	0x1
ARM GAS  /var/folders/t8/16hdwfmd2fg_d3q6dgx6bpmw0000gn/T//ccdqvDSM.s 			page 23


 1250 07dc 60       		.byte	0x60
 1251 07dd 02030000 		.4byte	0x302
 1252 07e1 A5000000 		.4byte	.LLST2
 1253 07e5 1C       		.uleb128 0x1c
 1254 07e6 70617200 		.ascii	"par\000"
 1255 07ea 01       		.byte	0x1
 1256 07eb 60       		.byte	0x60
 1257 07ec 1E030000 		.4byte	0x31e
 1258 07f0 DD000000 		.4byte	.LLST3
 1259 07f4 23       		.uleb128 0x23
 1260 07f5 7000     		.ascii	"p\000"
 1261 07f7 01       		.byte	0x1
 1262 07f8 61       		.byte	0x61
 1263 07f9 E2050000 		.4byte	0x5e2
 1264 07fd 15010000 		.4byte	.LLST4
 1265 0801 24       		.uleb128 0x24
 1266 0802 B9050000 		.4byte	.LASF59
 1267 0806 01       		.byte	0x1
 1268 0807 62       		.byte	0x62
 1269 0808 31010000 		.4byte	0x131
 1270 080c 33010000 		.4byte	.LLST5
 1271 0810 1D       		.uleb128 0x1d
 1272 0811 EE050000 		.4byte	.LASF116
 1273 0815 4C080000 		.4byte	0x84c
 1274 0819 05       		.uleb128 0x5
 1275 081a 03       		.byte	0x3
 1276 081b 00000000 		.4byte	__func__.5725
 1277 081f 1E       		.uleb128 0x1e
 1278 0820 0E000000 		.4byte	.LVL1
 1279 0824 62080000 		.4byte	0x862
 1280 0828 21       		.uleb128 0x21
 1281 0829 52000000 		.4byte	.LVL13
 1282 082d 6D080000 		.4byte	0x86d
 1283 0831 20       		.uleb128 0x20
 1284 0832 01       		.uleb128 0x1
 1285 0833 50       		.byte	0x50
 1286 0834 05       		.uleb128 0x5
 1287 0835 03       		.byte	0x3
 1288 0836 00000000 		.4byte	.LANCHOR0
 1289 083a 00       		.byte	0
 1290 083b 00       		.byte	0
 1291 083c 15       		.uleb128 0x15
 1292 083d D7050000 		.4byte	0x5d7
 1293 0841 4C080000 		.4byte	0x84c
 1294 0845 19       		.uleb128 0x19
 1295 0846 2C000000 		.4byte	0x2c
 1296 084a 0A       		.byte	0xa
 1297 084b 00       		.byte	0
 1298 084c 13       		.uleb128 0x13
 1299 084d 3C080000 		.4byte	0x83c
 1300 0851 25       		.uleb128 0x25
 1301 0852 12010000 		.4byte	.LASF122
 1302 0856 01       		.byte	0x1
 1303 0857 3D       		.byte	0x3d
 1304 0858 00000000 		.4byte	.LFB138
 1305 085c 1C000000 		.4byte	.LFE138-.LFB138
 1306 0860 01       		.uleb128 0x1
ARM GAS  /var/folders/t8/16hdwfmd2fg_d3q6dgx6bpmw0000gn/T//ccdqvDSM.s 			page 24


 1307 0861 9C       		.byte	0x9c
 1308 0862 26       		.uleb128 0x26
 1309 0863 B2030000 		.4byte	.LASF117
 1310 0867 B2030000 		.4byte	.LASF117
 1311 086b 0D       		.byte	0xd
 1312 086c 9C       		.byte	0x9c
 1313 086d 27       		.uleb128 0x27
 1314 086e 91050000 		.4byte	.LASF118
 1315 0872 91050000 		.4byte	.LASF118
 1316 0876 0C       		.byte	0xc
 1317 0877 3201     		.2byte	0x132
 1318 0879 00       		.byte	0
 1319              		.section	.debug_abbrev,"",%progbits
 1320              	.Ldebug_abbrev0:
 1321 0000 01       		.uleb128 0x1
 1322 0001 11       		.uleb128 0x11
 1323 0002 01       		.byte	0x1
 1324 0003 25       		.uleb128 0x25
 1325 0004 0E       		.uleb128 0xe
 1326 0005 13       		.uleb128 0x13
 1327 0006 0B       		.uleb128 0xb
 1328 0007 03       		.uleb128 0x3
 1329 0008 0E       		.uleb128 0xe
 1330 0009 1B       		.uleb128 0x1b
 1331 000a 0E       		.uleb128 0xe
 1332 000b 55       		.uleb128 0x55
 1333 000c 17       		.uleb128 0x17
 1334 000d 11       		.uleb128 0x11
 1335 000e 01       		.uleb128 0x1
 1336 000f 10       		.uleb128 0x10
 1337 0010 17       		.uleb128 0x17
 1338 0011 00       		.byte	0
 1339 0012 00       		.byte	0
 1340 0013 02       		.uleb128 0x2
 1341 0014 24       		.uleb128 0x24
 1342 0015 00       		.byte	0
 1343 0016 0B       		.uleb128 0xb
 1344 0017 0B       		.uleb128 0xb
 1345 0018 3E       		.uleb128 0x3e
 1346 0019 0B       		.uleb128 0xb
 1347 001a 03       		.uleb128 0x3
 1348 001b 08       		.uleb128 0x8
 1349 001c 00       		.byte	0
 1350 001d 00       		.byte	0
 1351 001e 03       		.uleb128 0x3
 1352 001f 24       		.uleb128 0x24
 1353 0020 00       		.byte	0
 1354 0021 0B       		.uleb128 0xb
 1355 0022 0B       		.uleb128 0xb
 1356 0023 3E       		.uleb128 0x3e
 1357 0024 0B       		.uleb128 0xb
 1358 0025 03       		.uleb128 0x3
 1359 0026 0E       		.uleb128 0xe
 1360 0027 00       		.byte	0
 1361 0028 00       		.byte	0
 1362 0029 04       		.uleb128 0x4
 1363 002a 16       		.uleb128 0x16
ARM GAS  /var/folders/t8/16hdwfmd2fg_d3q6dgx6bpmw0000gn/T//ccdqvDSM.s 			page 25


 1364 002b 00       		.byte	0
 1365 002c 03       		.uleb128 0x3
 1366 002d 0E       		.uleb128 0xe
 1367 002e 3A       		.uleb128 0x3a
 1368 002f 0B       		.uleb128 0xb
 1369 0030 3B       		.uleb128 0x3b
 1370 0031 0B       		.uleb128 0xb
 1371 0032 49       		.uleb128 0x49
 1372 0033 13       		.uleb128 0x13
 1373 0034 00       		.byte	0
 1374 0035 00       		.byte	0
 1375 0036 05       		.uleb128 0x5
 1376 0037 35       		.uleb128 0x35
 1377 0038 00       		.byte	0
 1378 0039 49       		.uleb128 0x49
 1379 003a 13       		.uleb128 0x13
 1380 003b 00       		.byte	0
 1381 003c 00       		.byte	0
 1382 003d 06       		.uleb128 0x6
 1383 003e 13       		.uleb128 0x13
 1384 003f 01       		.byte	0x1
 1385 0040 03       		.uleb128 0x3
 1386 0041 0E       		.uleb128 0xe
 1387 0042 0B       		.uleb128 0xb
 1388 0043 0B       		.uleb128 0xb
 1389 0044 3A       		.uleb128 0x3a
 1390 0045 0B       		.uleb128 0xb
 1391 0046 3B       		.uleb128 0x3b
 1392 0047 0B       		.uleb128 0xb
 1393 0048 01       		.uleb128 0x1
 1394 0049 13       		.uleb128 0x13
 1395 004a 00       		.byte	0
 1396 004b 00       		.byte	0
 1397 004c 07       		.uleb128 0x7
 1398 004d 0D       		.uleb128 0xd
 1399 004e 00       		.byte	0
 1400 004f 03       		.uleb128 0x3
 1401 0050 0E       		.uleb128 0xe
 1402 0051 3A       		.uleb128 0x3a
 1403 0052 0B       		.uleb128 0xb
 1404 0053 3B       		.uleb128 0x3b
 1405 0054 0B       		.uleb128 0xb
 1406 0055 49       		.uleb128 0x49
 1407 0056 13       		.uleb128 0x13
 1408 0057 38       		.uleb128 0x38
 1409 0058 0B       		.uleb128 0xb
 1410 0059 00       		.byte	0
 1411 005a 00       		.byte	0
 1412 005b 08       		.uleb128 0x8
 1413 005c 0D       		.uleb128 0xd
 1414 005d 00       		.byte	0
 1415 005e 03       		.uleb128 0x3
 1416 005f 08       		.uleb128 0x8
 1417 0060 3A       		.uleb128 0x3a
 1418 0061 0B       		.uleb128 0xb
 1419 0062 3B       		.uleb128 0x3b
 1420 0063 0B       		.uleb128 0xb
ARM GAS  /var/folders/t8/16hdwfmd2fg_d3q6dgx6bpmw0000gn/T//ccdqvDSM.s 			page 26


 1421 0064 49       		.uleb128 0x49
 1422 0065 13       		.uleb128 0x13
 1423 0066 38       		.uleb128 0x38
 1424 0067 0B       		.uleb128 0xb
 1425 0068 00       		.byte	0
 1426 0069 00       		.byte	0
 1427 006a 09       		.uleb128 0x9
 1428 006b 0D       		.uleb128 0xd
 1429 006c 00       		.byte	0
 1430 006d 03       		.uleb128 0x3
 1431 006e 08       		.uleb128 0x8
 1432 006f 3A       		.uleb128 0x3a
 1433 0070 0B       		.uleb128 0xb
 1434 0071 3B       		.uleb128 0x3b
 1435 0072 05       		.uleb128 0x5
 1436 0073 49       		.uleb128 0x49
 1437 0074 13       		.uleb128 0x13
 1438 0075 38       		.uleb128 0x38
 1439 0076 0B       		.uleb128 0xb
 1440 0077 00       		.byte	0
 1441 0078 00       		.byte	0
 1442 0079 0A       		.uleb128 0xa
 1443 007a 0D       		.uleb128 0xd
 1444 007b 00       		.byte	0
 1445 007c 03       		.uleb128 0x3
 1446 007d 0E       		.uleb128 0xe
 1447 007e 3A       		.uleb128 0x3a
 1448 007f 0B       		.uleb128 0xb
 1449 0080 3B       		.uleb128 0x3b
 1450 0081 05       		.uleb128 0x5
 1451 0082 49       		.uleb128 0x49
 1452 0083 13       		.uleb128 0x13
 1453 0084 38       		.uleb128 0x38
 1454 0085 0B       		.uleb128 0xb
 1455 0086 00       		.byte	0
 1456 0087 00       		.byte	0
 1457 0088 0B       		.uleb128 0xb
 1458 0089 0F       		.uleb128 0xf
 1459 008a 00       		.byte	0
 1460 008b 0B       		.uleb128 0xb
 1461 008c 0B       		.uleb128 0xb
 1462 008d 49       		.uleb128 0x49
 1463 008e 13       		.uleb128 0x13
 1464 008f 00       		.byte	0
 1465 0090 00       		.byte	0
 1466 0091 0C       		.uleb128 0xc
 1467 0092 13       		.uleb128 0x13
 1468 0093 01       		.byte	0x1
 1469 0094 03       		.uleb128 0x3
 1470 0095 0E       		.uleb128 0xe
 1471 0096 0B       		.uleb128 0xb
 1472 0097 0B       		.uleb128 0xb
 1473 0098 3A       		.uleb128 0x3a
 1474 0099 0B       		.uleb128 0xb
 1475 009a 3B       		.uleb128 0x3b
 1476 009b 05       		.uleb128 0x5
 1477 009c 01       		.uleb128 0x1
ARM GAS  /var/folders/t8/16hdwfmd2fg_d3q6dgx6bpmw0000gn/T//ccdqvDSM.s 			page 27


 1478 009d 13       		.uleb128 0x13
 1479 009e 00       		.byte	0
 1480 009f 00       		.byte	0
 1481 00a0 0D       		.uleb128 0xd
 1482 00a1 15       		.uleb128 0x15
 1483 00a2 01       		.byte	0x1
 1484 00a3 27       		.uleb128 0x27
 1485 00a4 19       		.uleb128 0x19
 1486 00a5 01       		.uleb128 0x1
 1487 00a6 13       		.uleb128 0x13
 1488 00a7 00       		.byte	0
 1489 00a8 00       		.byte	0
 1490 00a9 0E       		.uleb128 0xe
 1491 00aa 05       		.uleb128 0x5
 1492 00ab 00       		.byte	0
 1493 00ac 49       		.uleb128 0x49
 1494 00ad 13       		.uleb128 0x13
 1495 00ae 00       		.byte	0
 1496 00af 00       		.byte	0
 1497 00b0 0F       		.uleb128 0xf
 1498 00b1 0F       		.uleb128 0xf
 1499 00b2 00       		.byte	0
 1500 00b3 0B       		.uleb128 0xb
 1501 00b4 0B       		.uleb128 0xb
 1502 00b5 00       		.byte	0
 1503 00b6 00       		.byte	0
 1504 00b7 10       		.uleb128 0x10
 1505 00b8 17       		.uleb128 0x17
 1506 00b9 01       		.byte	0x1
 1507 00ba 0B       		.uleb128 0xb
 1508 00bb 0B       		.uleb128 0xb
 1509 00bc 3A       		.uleb128 0x3a
 1510 00bd 0B       		.uleb128 0xb
 1511 00be 3B       		.uleb128 0x3b
 1512 00bf 0B       		.uleb128 0xb
 1513 00c0 01       		.uleb128 0x1
 1514 00c1 13       		.uleb128 0x13
 1515 00c2 00       		.byte	0
 1516 00c3 00       		.byte	0
 1517 00c4 11       		.uleb128 0x11
 1518 00c5 0D       		.uleb128 0xd
 1519 00c6 00       		.byte	0
 1520 00c7 03       		.uleb128 0x3
 1521 00c8 0E       		.uleb128 0xe
 1522 00c9 3A       		.uleb128 0x3a
 1523 00ca 0B       		.uleb128 0xb
 1524 00cb 3B       		.uleb128 0x3b
 1525 00cc 0B       		.uleb128 0xb
 1526 00cd 49       		.uleb128 0x49
 1527 00ce 13       		.uleb128 0x13
 1528 00cf 00       		.byte	0
 1529 00d0 00       		.byte	0
 1530 00d1 12       		.uleb128 0x12
 1531 00d2 0D       		.uleb128 0xd
 1532 00d3 00       		.byte	0
 1533 00d4 03       		.uleb128 0x3
 1534 00d5 0E       		.uleb128 0xe
ARM GAS  /var/folders/t8/16hdwfmd2fg_d3q6dgx6bpmw0000gn/T//ccdqvDSM.s 			page 28


 1535 00d6 3A       		.uleb128 0x3a
 1536 00d7 0B       		.uleb128 0xb
 1537 00d8 3B       		.uleb128 0x3b
 1538 00d9 05       		.uleb128 0x5
 1539 00da 49       		.uleb128 0x49
 1540 00db 13       		.uleb128 0x13
 1541 00dc 00       		.byte	0
 1542 00dd 00       		.byte	0
 1543 00de 13       		.uleb128 0x13
 1544 00df 26       		.uleb128 0x26
 1545 00e0 00       		.byte	0
 1546 00e1 49       		.uleb128 0x49
 1547 00e2 13       		.uleb128 0x13
 1548 00e3 00       		.byte	0
 1549 00e4 00       		.byte	0
 1550 00e5 14       		.uleb128 0x14
 1551 00e6 34       		.uleb128 0x34
 1552 00e7 00       		.byte	0
 1553 00e8 03       		.uleb128 0x3
 1554 00e9 08       		.uleb128 0x8
 1555 00ea 3A       		.uleb128 0x3a
 1556 00eb 0B       		.uleb128 0xb
 1557 00ec 3B       		.uleb128 0x3b
 1558 00ed 05       		.uleb128 0x5
 1559 00ee 49       		.uleb128 0x49
 1560 00ef 13       		.uleb128 0x13
 1561 00f0 3F       		.uleb128 0x3f
 1562 00f1 19       		.uleb128 0x19
 1563 00f2 3C       		.uleb128 0x3c
 1564 00f3 19       		.uleb128 0x19
 1565 00f4 00       		.byte	0
 1566 00f5 00       		.byte	0
 1567 00f6 15       		.uleb128 0x15
 1568 00f7 01       		.uleb128 0x1
 1569 00f8 01       		.byte	0x1
 1570 00f9 49       		.uleb128 0x49
 1571 00fa 13       		.uleb128 0x13
 1572 00fb 01       		.uleb128 0x1
 1573 00fc 13       		.uleb128 0x13
 1574 00fd 00       		.byte	0
 1575 00fe 00       		.byte	0
 1576 00ff 16       		.uleb128 0x16
 1577 0100 21       		.uleb128 0x21
 1578 0101 00       		.byte	0
 1579 0102 00       		.byte	0
 1580 0103 00       		.byte	0
 1581 0104 17       		.uleb128 0x17
 1582 0105 34       		.uleb128 0x34
 1583 0106 00       		.byte	0
 1584 0107 03       		.uleb128 0x3
 1585 0108 0E       		.uleb128 0xe
 1586 0109 3A       		.uleb128 0x3a
 1587 010a 0B       		.uleb128 0xb
 1588 010b 3B       		.uleb128 0x3b
 1589 010c 05       		.uleb128 0x5
 1590 010d 49       		.uleb128 0x49
 1591 010e 13       		.uleb128 0x13
ARM GAS  /var/folders/t8/16hdwfmd2fg_d3q6dgx6bpmw0000gn/T//ccdqvDSM.s 			page 29


 1592 010f 3F       		.uleb128 0x3f
 1593 0110 19       		.uleb128 0x19
 1594 0111 3C       		.uleb128 0x3c
 1595 0112 19       		.uleb128 0x19
 1596 0113 00       		.byte	0
 1597 0114 00       		.byte	0
 1598 0115 18       		.uleb128 0x18
 1599 0116 13       		.uleb128 0x13
 1600 0117 01       		.byte	0x1
 1601 0118 0B       		.uleb128 0xb
 1602 0119 0B       		.uleb128 0xb
 1603 011a 3A       		.uleb128 0x3a
 1604 011b 0B       		.uleb128 0xb
 1605 011c 3B       		.uleb128 0x3b
 1606 011d 0B       		.uleb128 0xb
 1607 011e 01       		.uleb128 0x1
 1608 011f 13       		.uleb128 0x13
 1609 0120 00       		.byte	0
 1610 0121 00       		.byte	0
 1611 0122 19       		.uleb128 0x19
 1612 0123 21       		.uleb128 0x21
 1613 0124 00       		.byte	0
 1614 0125 49       		.uleb128 0x49
 1615 0126 13       		.uleb128 0x13
 1616 0127 2F       		.uleb128 0x2f
 1617 0128 0B       		.uleb128 0xb
 1618 0129 00       		.byte	0
 1619 012a 00       		.byte	0
 1620 012b 1A       		.uleb128 0x1a
 1621 012c 34       		.uleb128 0x34
 1622 012d 00       		.byte	0
 1623 012e 03       		.uleb128 0x3
 1624 012f 0E       		.uleb128 0xe
 1625 0130 3A       		.uleb128 0x3a
 1626 0131 0B       		.uleb128 0xb
 1627 0132 3B       		.uleb128 0x3b
 1628 0133 0B       		.uleb128 0xb
 1629 0134 49       		.uleb128 0x49
 1630 0135 13       		.uleb128 0x13
 1631 0136 3F       		.uleb128 0x3f
 1632 0137 19       		.uleb128 0x19
 1633 0138 3C       		.uleb128 0x3c
 1634 0139 19       		.uleb128 0x19
 1635 013a 00       		.byte	0
 1636 013b 00       		.byte	0
 1637 013c 1B       		.uleb128 0x1b
 1638 013d 2E       		.uleb128 0x2e
 1639 013e 01       		.byte	0x1
 1640 013f 3F       		.uleb128 0x3f
 1641 0140 19       		.uleb128 0x19
 1642 0141 03       		.uleb128 0x3
 1643 0142 0E       		.uleb128 0xe
 1644 0143 3A       		.uleb128 0x3a
 1645 0144 0B       		.uleb128 0xb
 1646 0145 3B       		.uleb128 0x3b
 1647 0146 0B       		.uleb128 0xb
 1648 0147 27       		.uleb128 0x27
ARM GAS  /var/folders/t8/16hdwfmd2fg_d3q6dgx6bpmw0000gn/T//ccdqvDSM.s 			page 30


 1649 0148 19       		.uleb128 0x19
 1650 0149 11       		.uleb128 0x11
 1651 014a 01       		.uleb128 0x1
 1652 014b 12       		.uleb128 0x12
 1653 014c 06       		.uleb128 0x6
 1654 014d 40       		.uleb128 0x40
 1655 014e 18       		.uleb128 0x18
 1656 014f 9742     		.uleb128 0x2117
 1657 0151 19       		.uleb128 0x19
 1658 0152 01       		.uleb128 0x1
 1659 0153 13       		.uleb128 0x13
 1660 0154 00       		.byte	0
 1661 0155 00       		.byte	0
 1662 0156 1C       		.uleb128 0x1c
 1663 0157 05       		.uleb128 0x5
 1664 0158 00       		.byte	0
 1665 0159 03       		.uleb128 0x3
 1666 015a 08       		.uleb128 0x8
 1667 015b 3A       		.uleb128 0x3a
 1668 015c 0B       		.uleb128 0xb
 1669 015d 3B       		.uleb128 0x3b
 1670 015e 0B       		.uleb128 0xb
 1671 015f 49       		.uleb128 0x49
 1672 0160 13       		.uleb128 0x13
 1673 0161 02       		.uleb128 0x2
 1674 0162 17       		.uleb128 0x17
 1675 0163 00       		.byte	0
 1676 0164 00       		.byte	0
 1677 0165 1D       		.uleb128 0x1d
 1678 0166 34       		.uleb128 0x34
 1679 0167 00       		.byte	0
 1680 0168 03       		.uleb128 0x3
 1681 0169 0E       		.uleb128 0xe
 1682 016a 49       		.uleb128 0x49
 1683 016b 13       		.uleb128 0x13
 1684 016c 34       		.uleb128 0x34
 1685 016d 19       		.uleb128 0x19
 1686 016e 02       		.uleb128 0x2
 1687 016f 18       		.uleb128 0x18
 1688 0170 00       		.byte	0
 1689 0171 00       		.byte	0
 1690 0172 1E       		.uleb128 0x1e
 1691 0173 898201   		.uleb128 0x4109
 1692 0176 00       		.byte	0
 1693 0177 11       		.uleb128 0x11
 1694 0178 01       		.uleb128 0x1
 1695 0179 31       		.uleb128 0x31
 1696 017a 13       		.uleb128 0x13
 1697 017b 00       		.byte	0
 1698 017c 00       		.byte	0
 1699 017d 1F       		.uleb128 0x1f
 1700 017e 898201   		.uleb128 0x4109
 1701 0181 01       		.byte	0x1
 1702 0182 11       		.uleb128 0x11
 1703 0183 01       		.uleb128 0x1
 1704 0184 31       		.uleb128 0x31
 1705 0185 13       		.uleb128 0x13
ARM GAS  /var/folders/t8/16hdwfmd2fg_d3q6dgx6bpmw0000gn/T//ccdqvDSM.s 			page 31


 1706 0186 01       		.uleb128 0x1
 1707 0187 13       		.uleb128 0x13
 1708 0188 00       		.byte	0
 1709 0189 00       		.byte	0
 1710 018a 20       		.uleb128 0x20
 1711 018b 8A8201   		.uleb128 0x410a
 1712 018e 00       		.byte	0
 1713 018f 02       		.uleb128 0x2
 1714 0190 18       		.uleb128 0x18
 1715 0191 9142     		.uleb128 0x2111
 1716 0193 18       		.uleb128 0x18
 1717 0194 00       		.byte	0
 1718 0195 00       		.byte	0
 1719 0196 21       		.uleb128 0x21
 1720 0197 898201   		.uleb128 0x4109
 1721 019a 01       		.byte	0x1
 1722 019b 11       		.uleb128 0x11
 1723 019c 01       		.uleb128 0x1
 1724 019d 31       		.uleb128 0x31
 1725 019e 13       		.uleb128 0x13
 1726 019f 00       		.byte	0
 1727 01a0 00       		.byte	0
 1728 01a1 22       		.uleb128 0x22
 1729 01a2 05       		.uleb128 0x5
 1730 01a3 00       		.byte	0
 1731 01a4 03       		.uleb128 0x3
 1732 01a5 0E       		.uleb128 0xe
 1733 01a6 3A       		.uleb128 0x3a
 1734 01a7 0B       		.uleb128 0xb
 1735 01a8 3B       		.uleb128 0x3b
 1736 01a9 0B       		.uleb128 0xb
 1737 01aa 49       		.uleb128 0x49
 1738 01ab 13       		.uleb128 0x13
 1739 01ac 02       		.uleb128 0x2
 1740 01ad 17       		.uleb128 0x17
 1741 01ae 00       		.byte	0
 1742 01af 00       		.byte	0
 1743 01b0 23       		.uleb128 0x23
 1744 01b1 34       		.uleb128 0x34
 1745 01b2 00       		.byte	0
 1746 01b3 03       		.uleb128 0x3
 1747 01b4 08       		.uleb128 0x8
 1748 01b5 3A       		.uleb128 0x3a
 1749 01b6 0B       		.uleb128 0xb
 1750 01b7 3B       		.uleb128 0x3b
 1751 01b8 0B       		.uleb128 0xb
 1752 01b9 49       		.uleb128 0x49
 1753 01ba 13       		.uleb128 0x13
 1754 01bb 02       		.uleb128 0x2
 1755 01bc 17       		.uleb128 0x17
 1756 01bd 00       		.byte	0
 1757 01be 00       		.byte	0
 1758 01bf 24       		.uleb128 0x24
 1759 01c0 34       		.uleb128 0x34
 1760 01c1 00       		.byte	0
 1761 01c2 03       		.uleb128 0x3
 1762 01c3 0E       		.uleb128 0xe
ARM GAS  /var/folders/t8/16hdwfmd2fg_d3q6dgx6bpmw0000gn/T//ccdqvDSM.s 			page 32


 1763 01c4 3A       		.uleb128 0x3a
 1764 01c5 0B       		.uleb128 0xb
 1765 01c6 3B       		.uleb128 0x3b
 1766 01c7 0B       		.uleb128 0xb
 1767 01c8 49       		.uleb128 0x49
 1768 01c9 13       		.uleb128 0x13
 1769 01ca 02       		.uleb128 0x2
 1770 01cb 17       		.uleb128 0x17
 1771 01cc 00       		.byte	0
 1772 01cd 00       		.byte	0
 1773 01ce 25       		.uleb128 0x25
 1774 01cf 2E       		.uleb128 0x2e
 1775 01d0 00       		.byte	0
 1776 01d1 3F       		.uleb128 0x3f
 1777 01d2 19       		.uleb128 0x19
 1778 01d3 03       		.uleb128 0x3
 1779 01d4 0E       		.uleb128 0xe
 1780 01d5 3A       		.uleb128 0x3a
 1781 01d6 0B       		.uleb128 0xb
 1782 01d7 3B       		.uleb128 0x3b
 1783 01d8 0B       		.uleb128 0xb
 1784 01d9 27       		.uleb128 0x27
 1785 01da 19       		.uleb128 0x19
 1786 01db 11       		.uleb128 0x11
 1787 01dc 01       		.uleb128 0x1
 1788 01dd 12       		.uleb128 0x12
 1789 01de 06       		.uleb128 0x6
 1790 01df 40       		.uleb128 0x40
 1791 01e0 18       		.uleb128 0x18
 1792 01e1 9742     		.uleb128 0x2117
 1793 01e3 19       		.uleb128 0x19
 1794 01e4 00       		.byte	0
 1795 01e5 00       		.byte	0
 1796 01e6 26       		.uleb128 0x26
 1797 01e7 2E       		.uleb128 0x2e
 1798 01e8 00       		.byte	0
 1799 01e9 3F       		.uleb128 0x3f
 1800 01ea 19       		.uleb128 0x19
 1801 01eb 3C       		.uleb128 0x3c
 1802 01ec 19       		.uleb128 0x19
 1803 01ed 6E       		.uleb128 0x6e
 1804 01ee 0E       		.uleb128 0xe
 1805 01ef 03       		.uleb128 0x3
 1806 01f0 0E       		.uleb128 0xe
 1807 01f1 3A       		.uleb128 0x3a
 1808 01f2 0B       		.uleb128 0xb
 1809 01f3 3B       		.uleb128 0x3b
 1810 01f4 0B       		.uleb128 0xb
 1811 01f5 00       		.byte	0
 1812 01f6 00       		.byte	0
 1813 01f7 27       		.uleb128 0x27
 1814 01f8 2E       		.uleb128 0x2e
 1815 01f9 00       		.byte	0
 1816 01fa 3F       		.uleb128 0x3f
 1817 01fb 19       		.uleb128 0x19
 1818 01fc 3C       		.uleb128 0x3c
 1819 01fd 19       		.uleb128 0x19
ARM GAS  /var/folders/t8/16hdwfmd2fg_d3q6dgx6bpmw0000gn/T//ccdqvDSM.s 			page 33


 1820 01fe 6E       		.uleb128 0x6e
 1821 01ff 0E       		.uleb128 0xe
 1822 0200 03       		.uleb128 0x3
 1823 0201 0E       		.uleb128 0xe
 1824 0202 3A       		.uleb128 0x3a
 1825 0203 0B       		.uleb128 0xb
 1826 0204 3B       		.uleb128 0x3b
 1827 0205 05       		.uleb128 0x5
 1828 0206 00       		.byte	0
 1829 0207 00       		.byte	0
 1830 0208 00       		.byte	0
 1831              		.section	.debug_loc,"",%progbits
 1832              	.Ldebug_loc0:
 1833              	.LLST6:
 1834 0000 00000000 		.4byte	.LVL14
 1835 0004 07000000 		.4byte	.LVL15-1
 1836 0008 0100     		.2byte	0x1
 1837 000a 50       		.byte	0x50
 1838 000b 07000000 		.4byte	.LVL15-1
 1839 000f 32000000 		.4byte	.LVL16
 1840 0013 0100     		.2byte	0x1
 1841 0015 54       		.byte	0x54
 1842 0016 32000000 		.4byte	.LVL16
 1843 001a 34000000 		.4byte	.LVL17
 1844 001e 0400     		.2byte	0x4
 1845 0020 F3       		.byte	0xf3
 1846 0021 01       		.uleb128 0x1
 1847 0022 50       		.byte	0x50
 1848 0023 9F       		.byte	0x9f
 1849 0024 34000000 		.4byte	.LVL17
 1850 0028 4C000000 		.4byte	.LFE140
 1851 002c 0100     		.2byte	0x1
 1852 002e 54       		.byte	0x54
 1853 002f 00000000 		.4byte	0
 1854 0033 00000000 		.4byte	0
 1855              	.LLST0:
 1856 0037 00000000 		.4byte	.LVL0
 1857 003b 0D000000 		.4byte	.LVL1-1
 1858 003f 0100     		.2byte	0x1
 1859 0041 50       		.byte	0x50
 1860 0042 0D000000 		.4byte	.LVL1-1
 1861 0046 4A000000 		.4byte	.LVL9
 1862 004a 0100     		.2byte	0x1
 1863 004c 55       		.byte	0x55
 1864 004d 4A000000 		.4byte	.LVL9
 1865 0051 4C000000 		.4byte	.LVL12
 1866 0055 0400     		.2byte	0x4
 1867 0057 F3       		.byte	0xf3
 1868 0058 01       		.uleb128 0x1
 1869 0059 50       		.byte	0x50
 1870 005a 9F       		.byte	0x9f
 1871 005b 4C000000 		.4byte	.LVL12
 1872 005f 5C000000 		.4byte	.LFE139
 1873 0063 0100     		.2byte	0x1
 1874 0065 55       		.byte	0x55
 1875 0066 00000000 		.4byte	0
 1876 006a 00000000 		.4byte	0
ARM GAS  /var/folders/t8/16hdwfmd2fg_d3q6dgx6bpmw0000gn/T//ccdqvDSM.s 			page 34


 1877              	.LLST1:
 1878 006e 00000000 		.4byte	.LVL0
 1879 0072 0D000000 		.4byte	.LVL1-1
 1880 0076 0100     		.2byte	0x1
 1881 0078 51       		.byte	0x51
 1882 0079 0D000000 		.4byte	.LVL1-1
 1883 007d 28000000 		.4byte	.LVL3
 1884 0081 0100     		.2byte	0x1
 1885 0083 54       		.byte	0x54
 1886 0084 28000000 		.4byte	.LVL3
 1887 0088 4C000000 		.4byte	.LVL12
 1888 008c 0400     		.2byte	0x4
 1889 008e F3       		.byte	0xf3
 1890 008f 01       		.uleb128 0x1
 1891 0090 51       		.byte	0x51
 1892 0091 9F       		.byte	0x9f
 1893 0092 4C000000 		.4byte	.LVL12
 1894 0096 5C000000 		.4byte	.LFE139
 1895 009a 0100     		.2byte	0x1
 1896 009c 54       		.byte	0x54
 1897 009d 00000000 		.4byte	0
 1898 00a1 00000000 		.4byte	0
 1899              	.LLST2:
 1900 00a5 00000000 		.4byte	.LVL0
 1901 00a9 0D000000 		.4byte	.LVL1-1
 1902 00ad 0100     		.2byte	0x1
 1903 00af 52       		.byte	0x52
 1904 00b0 0D000000 		.4byte	.LVL1-1
 1905 00b4 4A000000 		.4byte	.LVL10
 1906 00b8 0100     		.2byte	0x1
 1907 00ba 56       		.byte	0x56
 1908 00bb 4A000000 		.4byte	.LVL10
 1909 00bf 4C000000 		.4byte	.LVL12
 1910 00c3 0500     		.2byte	0x5
 1911 00c5 F3       		.byte	0xf3
 1912 00c6 01       		.uleb128 0x1
 1913 00c7 50       		.byte	0x50
 1914 00c8 23       		.byte	0x23
 1915 00c9 0C       		.uleb128 0xc
 1916 00ca 4C000000 		.4byte	.LVL12
 1917 00ce 5C000000 		.4byte	.LFE139
 1918 00d2 0100     		.2byte	0x1
 1919 00d4 56       		.byte	0x56
 1920 00d5 00000000 		.4byte	0
 1921 00d9 00000000 		.4byte	0
 1922              	.LLST3:
 1923 00dd 00000000 		.4byte	.LVL0
 1924 00e1 0D000000 		.4byte	.LVL1-1
 1925 00e5 0100     		.2byte	0x1
 1926 00e7 53       		.byte	0x53
 1927 00e8 0D000000 		.4byte	.LVL1-1
 1928 00ec 4A000000 		.4byte	.LVL11
 1929 00f0 0100     		.2byte	0x1
 1930 00f2 57       		.byte	0x57
 1931 00f3 4A000000 		.4byte	.LVL11
 1932 00f7 4C000000 		.4byte	.LVL12
 1933 00fb 0500     		.2byte	0x5
ARM GAS  /var/folders/t8/16hdwfmd2fg_d3q6dgx6bpmw0000gn/T//ccdqvDSM.s 			page 35


 1934 00fd F3       		.byte	0xf3
 1935 00fe 01       		.uleb128 0x1
 1936 00ff 50       		.byte	0x50
 1937 0100 23       		.byte	0x23
 1938 0101 10       		.uleb128 0x10
 1939 0102 4C000000 		.4byte	.LVL12
 1940 0106 5C000000 		.4byte	.LFE139
 1941 010a 0100     		.2byte	0x1
 1942 010c 57       		.byte	0x57
 1943 010d 00000000 		.4byte	0
 1944 0111 00000000 		.4byte	0
 1945              	.LLST4:
 1946 0115 22000000 		.4byte	.LVL2
 1947 0119 2A000000 		.4byte	.LVL4
 1948 011d 0100     		.2byte	0x1
 1949 011f 53       		.byte	0x53
 1950 0120 2C000000 		.4byte	.LVL5
 1951 0124 46000000 		.4byte	.LVL8
 1952 0128 0100     		.2byte	0x1
 1953 012a 53       		.byte	0x53
 1954 012b 00000000 		.4byte	0
 1955 012f 00000000 		.4byte	0
 1956              	.LLST5:
 1957 0133 22000000 		.4byte	.LVL2
 1958 0137 42000000 		.4byte	.LVL6
 1959 013b 0100     		.2byte	0x1
 1960 013d 54       		.byte	0x54
 1961 013e 42000000 		.4byte	.LVL6
 1962 0142 44000000 		.4byte	.LVL7
 1963 0146 0500     		.2byte	0x5
 1964 0148 73       		.byte	0x73
 1965 0149 04       		.sleb128 4
 1966 014a 06       		.byte	0x6
 1967 014b 23       		.byte	0x23
 1968 014c 08       		.uleb128 0x8
 1969 014d 00000000 		.4byte	0
 1970 0151 00000000 		.4byte	0
 1971              		.section	.debug_aranges,"",%progbits
 1972 0000 2C000000 		.4byte	0x2c
 1973 0004 0200     		.2byte	0x2
 1974 0006 00000000 		.4byte	.Ldebug_info0
 1975 000a 04       		.byte	0x4
 1976 000b 00       		.byte	0
 1977 000c 0000     		.2byte	0
 1978 000e 0000     		.2byte	0
 1979 0010 00000000 		.4byte	.LFB138
 1980 0014 1C000000 		.4byte	.LFE138-.LFB138
 1981 0018 00000000 		.4byte	.LFB139
 1982 001c 5C000000 		.4byte	.LFE139-.LFB139
 1983 0020 00000000 		.4byte	.LFB140
 1984 0024 4C000000 		.4byte	.LFE140-.LFB140
 1985 0028 00000000 		.4byte	0
 1986 002c 00000000 		.4byte	0
 1987              		.section	.debug_ranges,"",%progbits
 1988              	.Ldebug_ranges0:
 1989 0000 00000000 		.4byte	.LFB138
 1990 0004 1C000000 		.4byte	.LFE138
ARM GAS  /var/folders/t8/16hdwfmd2fg_d3q6dgx6bpmw0000gn/T//ccdqvDSM.s 			page 36


 1991 0008 00000000 		.4byte	.LFB139
 1992 000c 5C000000 		.4byte	.LFE139
 1993 0010 00000000 		.4byte	.LFB140
 1994 0014 4C000000 		.4byte	.LFE140
 1995 0018 00000000 		.4byte	0
 1996 001c 00000000 		.4byte	0
 1997              		.section	.debug_line,"",%progbits
 1998              	.Ldebug_line0:
 1999 0000 24030000 		.section	.debug_str,"MS",%progbits,1
 1999      02008B02 
 1999      00000201 
 1999      FB0E0D00 
 1999      01010101 
 2000              	.LASF48:
 2001 0000 63685F74 		.ascii	"ch_threads_list\000"
 2001      68726561 
 2001      64735F6C 
 2001      69737400 
 2002              	.LASF96:
 2003 0010 74696D65 		.ascii	"timesize\000"
 2003      73697A65 
 2003      00
 2004              	.LASF119:
 2005 0019 474E5520 		.ascii	"GNU C99 7.2.1 20170904 (release) [ARM/embedded-7-br"
 2005      43393920 
 2005      372E322E 
 2005      31203230 
 2005      31373039 
 2006 004c 616E6368 		.ascii	"anch revision 255204] -mcpu=cortex-m0plus -mno-thum"
 2006      20726576 
 2006      6973696F 
 2006      6E203235 
 2006      35323034 
 2007 007f 622D696E 		.ascii	"b-interwork -mthumb -ggdb -O2 -std=gnu99 -fomit-fra"
 2007      74657277 
 2007      6F726B20 
 2007      2D6D7468 
 2007      756D6220 
 2008 00b2 6D652D70 		.ascii	"me-pointer -falign-functions=16 -ffunction-sections"
 2008      6F696E74 
 2008      6572202D 
 2008      66616C69 
 2008      676E2D66 
 2009 00e5 202D6664 		.ascii	" -fdata-sections -fno-common\000"
 2009      6174612D 
 2009      73656374 
 2009      696F6E73 
 2009      202D666E 
 2010              	.LASF84:
 2011 0102 77746D74 		.ascii	"wtmtxp\000"
 2011      787000
 2012              	.LASF74:
 2013 0109 72656761 		.ascii	"regarm_t\000"
 2013      726D5F74 
 2013      00
 2014              	.LASF122:
 2015 0112 5F76745F 		.ascii	"_vt_init\000"
ARM GAS  /var/folders/t8/16hdwfmd2fg_d3q6dgx6bpmw0000gn/T//ccdqvDSM.s 			page 37


 2015      696E6974 
 2015      00
 2016              	.LASF36:
 2017 011b 666C6167 		.ascii	"flags\000"
 2017      7300
 2018              	.LASF27:
 2019 0121 73797374 		.ascii	"systime_t\000"
 2019      696D655F 
 2019      7400
 2020              	.LASF43:
 2021 012b 7265616C 		.ascii	"realprio\000"
 2021      7072696F 
 2021      00
 2022              	.LASF115:
 2023 0134 76746675 		.ascii	"vtfunc\000"
 2023      6E6300
 2024              	.LASF41:
 2025 013b 6570656E 		.ascii	"epending\000"
 2025      64696E67 
 2025      00
 2026              	.LASF0:
 2027 0144 756E7369 		.ascii	"unsigned int\000"
 2027      676E6564 
 2027      20696E74 
 2027      00
 2028              	.LASF49:
 2029 0151 6E657874 		.ascii	"next\000"
 2029      00
 2030              	.LASF94:
 2031 0156 76657273 		.ascii	"version\000"
 2031      696F6E00 
 2032              	.LASF46:
 2033 015e 74687265 		.ascii	"threads_list_t\000"
 2033      6164735F 
 2033      6C697374 
 2033      5F7400
 2034              	.LASF7:
 2035 016d 5F5F696E 		.ascii	"__int32_t\000"
 2035      7433325F 
 2035      7400
 2036              	.LASF37:
 2037 0177 72656673 		.ascii	"refs\000"
 2037      00
 2038              	.LASF108:
 2039 017c 6F66665F 		.ascii	"off_time\000"
 2039      74696D65 
 2039      00
 2040              	.LASF80:
 2041 0185 77746F62 		.ascii	"wtobjp\000"
 2041      6A7000
 2042              	.LASF72:
 2043 018c 76746C69 		.ascii	"vtlist\000"
 2043      737400
 2044              	.LASF76:
 2045 0193 706F7274 		.ascii	"port_context\000"
 2045      5F636F6E 
 2045      74657874 
ARM GAS  /var/folders/t8/16hdwfmd2fg_d3q6dgx6bpmw0000gn/T//ccdqvDSM.s 			page 38


 2045      00
 2046              	.LASF54:
 2047 01a0 63685F72 		.ascii	"ch_ready_list\000"
 2047      65616479 
 2047      5F6C6973 
 2047      7400
 2048              	.LASF60:
 2049 01ae 66756E63 		.ascii	"func\000"
 2049      00
 2050              	.LASF85:
 2051 01b3 65776D61 		.ascii	"ewmask\000"
 2051      736B00
 2052              	.LASF52:
 2053 01ba 70726576 		.ascii	"prev\000"
 2053      00
 2054              	.LASF51:
 2055 01bf 63685F74 		.ascii	"ch_threads_queue\000"
 2055      68726561 
 2055      64735F71 
 2055      75657565 
 2055      00
 2056              	.LASF100:
 2057 01d0 6F66665F 		.ascii	"off_newer\000"
 2057      6E657765 
 2057      7200
 2058              	.LASF56:
 2059 01da 76746675 		.ascii	"vtfunc_t\000"
 2059      6E635F74 
 2059      00
 2060              	.LASF65:
 2061 01e3 63685F73 		.ascii	"ch_system_debug\000"
 2061      79737465 
 2061      6D5F6465 
 2061      62756700 
 2062              	.LASF17:
 2063 01f3 75696E74 		.ascii	"uint32_t\000"
 2063      33325F74 
 2063      00
 2064              	.LASF82:
 2065 01fc 73656E74 		.ascii	"sentmsg\000"
 2065      6D736700 
 2066              	.LASF25:
 2067 0204 6576656E 		.ascii	"eventmask_t\000"
 2067      746D6173 
 2067      6B5F7400 
 2068              	.LASF97:
 2069 0210 74687265 		.ascii	"threadsize\000"
 2069      61647369 
 2069      7A6500
 2070              	.LASF86:
 2071 021b 63685F73 		.ascii	"ch_semaphore\000"
 2071      656D6170 
 2071      686F7265 
 2071      00
 2072              	.LASF23:
 2073 0228 74707269 		.ascii	"tprio_t\000"
 2073      6F5F7400 
ARM GAS  /var/folders/t8/16hdwfmd2fg_d3q6dgx6bpmw0000gn/T//ccdqvDSM.s 			page 39


 2074              	.LASF58:
 2075 0230 63685F76 		.ascii	"ch_virtual_timer\000"
 2075      69727475 
 2075      616C5F74 
 2075      696D6572 
 2075      00
 2076              	.LASF13:
 2077 0241 6C6F6E67 		.ascii	"long long unsigned int\000"
 2077      206C6F6E 
 2077      6720756E 
 2077      7369676E 
 2077      65642069 
 2078              	.LASF5:
 2079 0258 5F5F7569 		.ascii	"__uint16_t\000"
 2079      6E743136 
 2079      5F7400
 2080              	.LASF26:
 2081 0263 636E745F 		.ascii	"cnt_t\000"
 2081      7400
 2082              	.LASF103:
 2083 0269 6F66665F 		.ascii	"off_stklimit\000"
 2083      73746B6C 
 2083      696D6974 
 2083      00
 2084              	.LASF67:
 2085 0276 6973725F 		.ascii	"isr_cnt\000"
 2085      636E7400 
 2086              	.LASF88:
 2087 027e 6F776E65 		.ascii	"owner\000"
 2087      7200
 2088              	.LASF50:
 2089 0284 74687265 		.ascii	"threads_queue_t\000"
 2089      6164735F 
 2089      71756575 
 2089      655F7400 
 2090              	.LASF42:
 2091 0294 6D74786C 		.ascii	"mtxlist\000"
 2091      69737400 
 2092              	.LASF62:
 2093 029c 63685F76 		.ascii	"ch_virtual_timers_list\000"
 2093      69727475 
 2093      616C5F74 
 2093      696D6572 
 2093      735F6C69 
 2094              	.LASF28:
 2095 02b3 74687265 		.ascii	"thread_t\000"
 2095      61645F74 
 2095      00
 2096              	.LASF101:
 2097 02bc 6F66665F 		.ascii	"off_older\000"
 2097      6F6C6465 
 2097      7200
 2098              	.LASF104:
 2099 02c6 6F66665F 		.ascii	"off_state\000"
 2099      73746174 
 2099      6500
 2100              	.LASF78:
ARM GAS  /var/folders/t8/16hdwfmd2fg_d3q6dgx6bpmw0000gn/T//ccdqvDSM.s 			page 40


 2101 02d0 7264796D 		.ascii	"rdymsg\000"
 2101      736700
 2102              	.LASF87:
 2103 02d7 63685F6D 		.ascii	"ch_mutex\000"
 2103      75746578 
 2103      00
 2104              	.LASF12:
 2105 02e0 5F5F7569 		.ascii	"__uint64_t\000"
 2105      6E743634 
 2105      5F7400
 2106              	.LASF99:
 2107 02eb 6F66665F 		.ascii	"off_ctx\000"
 2107      63747800 
 2108              	.LASF105:
 2109 02f3 6F66665F 		.ascii	"off_flags\000"
 2109      666C6167 
 2109      7300
 2110              	.LASF30:
 2111 02fd 7072696F 		.ascii	"prio\000"
 2111      00
 2112              	.LASF89:
 2113 0302 63686172 		.ascii	"char\000"
 2113      00
 2114              	.LASF45:
 2115 0307 74687265 		.ascii	"thread_reference_t\000"
 2115      61645F72 
 2115      65666572 
 2115      656E6365 
 2115      5F7400
 2116              	.LASF34:
 2117 031a 77616261 		.ascii	"wabase\000"
 2117      736500
 2118              	.LASF90:
 2119 0321 63685F69 		.ascii	"ch_idle_thread_wa\000"
 2119      646C655F 
 2119      74687265 
 2119      61645F77 
 2119      6100
 2120              	.LASF20:
 2121 0333 74737461 		.ascii	"tstate_t\000"
 2121      74655F74 
 2121      00
 2122              	.LASF14:
 2123 033c 75696E74 		.ascii	"uint8_t\000"
 2123      385F7400 
 2124              	.LASF40:
 2125 0344 6D736771 		.ascii	"msgqueue\000"
 2125      75657565 
 2125      00
 2126              	.LASF47:
 2127 034d 63685F74 		.ascii	"ch_thread\000"
 2127      68726561 
 2127      6400
 2128              	.LASF102:
 2129 0357 6F66665F 		.ascii	"off_name\000"
 2129      6E616D65 
 2129      00
ARM GAS  /var/folders/t8/16hdwfmd2fg_d3q6dgx6bpmw0000gn/T//ccdqvDSM.s 			page 41


 2130              	.LASF64:
 2131 0360 73797374 		.ascii	"system_debug_t\000"
 2131      656D5F64 
 2131      65627567 
 2131      5F7400
 2132              	.LASF11:
 2133 036f 6C6F6E67 		.ascii	"long long int\000"
 2133      206C6F6E 
 2133      6720696E 
 2133      7400
 2134              	.LASF92:
 2135 037d 7A65726F 		.ascii	"zero\000"
 2135      00
 2136              	.LASF24:
 2137 0382 6D73675F 		.ascii	"msg_t\000"
 2137      7400
 2138              	.LASF112:
 2139 0388 63685654 		.ascii	"chVTDoResetI\000"
 2139      446F5265 
 2139      73657449 
 2139      00
 2140              	.LASF57:
 2141 0395 76697274 		.ascii	"virtual_timer_t\000"
 2141      75616C5F 
 2141      74696D65 
 2141      725F7400 
 2142              	.LASF93:
 2143 03a5 73697A65 		.ascii	"size\000"
 2143      00
 2144              	.LASF95:
 2145 03aa 70747273 		.ascii	"ptrsize\000"
 2145      697A6500 
 2146              	.LASF117:
 2147 03b2 63684462 		.ascii	"chDbgCheckClassI\000"
 2147      67436865 
 2147      636B436C 
 2147      61737349 
 2147      00
 2148              	.LASF22:
 2149 03c3 74736C69 		.ascii	"tslices_t\000"
 2149      6365735F 
 2149      7400
 2150              	.LASF121:
 2151 03cd 2F557365 		.ascii	"/Users/jpablobr/tmp/tmk/di0ib-tmk_keyboard/keyboard"
 2151      72732F6A 
 2151      7061626C 
 2151      6F62722F 
 2151      746D702F 
 2152 0400 2F746565 		.ascii	"/teensy_lc_menelaus\000"
 2152      6E73795F 
 2152      6C635F6D 
 2152      656E656C 
 2152      61757300 
 2153              	.LASF66:
 2154 0414 70616E69 		.ascii	"panic_msg\000"
 2154      635F6D73 
 2154      6700
ARM GAS  /var/folders/t8/16hdwfmd2fg_d3q6dgx6bpmw0000gn/T//ccdqvDSM.s 			page 42


 2155              	.LASF19:
 2156 041e 746D6F64 		.ascii	"tmode_t\000"
 2156      655F7400 
 2157              	.LASF63:
 2158 0426 73797374 		.ascii	"systime\000"
 2158      696D6500 
 2159              	.LASF73:
 2160 042e 6D61696E 		.ascii	"mainthread\000"
 2160      74687265 
 2160      616400
 2161              	.LASF15:
 2162 0439 75696E74 		.ascii	"uint16_t\000"
 2162      31365F74 
 2162      00
 2163              	.LASF109:
 2164 0442 63686465 		.ascii	"chdebug_t\000"
 2164      6275675F 
 2164      7400
 2165              	.LASF98:
 2166 044c 6F66665F 		.ascii	"off_prio\000"
 2166      7072696F 
 2166      00
 2167              	.LASF68:
 2168 0455 6C6F636B 		.ascii	"lock_cnt\000"
 2168      5F636E74 
 2168      00
 2169              	.LASF3:
 2170 045e 73686F72 		.ascii	"short int\000"
 2170      7420696E 
 2170      7400
 2171              	.LASF8:
 2172 0468 6C6F6E67 		.ascii	"long int\000"
 2172      20696E74 
 2172      00
 2173              	.LASF77:
 2174 0471 706F7274 		.ascii	"port_intctx\000"
 2174      5F696E74 
 2174      63747800 
 2175              	.LASF38:
 2176 047d 70726565 		.ascii	"preempt\000"
 2176      6D707400 
 2177              	.LASF114:
 2178 0485 64656C61 		.ascii	"delay\000"
 2178      7900
 2179              	.LASF70:
 2180 048b 63685F73 		.ascii	"ch_system\000"
 2180      79737465 
 2180      6D00
 2181              	.LASF120:
 2182 0495 2E2E2F2E 		.ascii	"../../tmk_core/tool/chibios/ChibiOS/os/rt/src/chvt."
 2182      2E2F746D 
 2182      6B5F636F 
 2182      72652F74 
 2182      6F6F6C2F 
 2183 04c8 6300     		.ascii	"c\000"
 2184              	.LASF18:
 2185 04ca 75696E74 		.ascii	"uint64_t\000"
ARM GAS  /var/folders/t8/16hdwfmd2fg_d3q6dgx6bpmw0000gn/T//ccdqvDSM.s 			page 43


 2185      36345F74 
 2185      00
 2186              	.LASF71:
 2187 04d3 726C6973 		.ascii	"rlist\000"
 2187      7400
 2188              	.LASF4:
 2189 04d9 5F5F7569 		.ascii	"__uint8_t\000"
 2189      6E74385F 
 2189      7400
 2190              	.LASF33:
 2191 04e3 6E616D65 		.ascii	"name\000"
 2191      00
 2192              	.LASF91:
 2193 04e8 6964656E 		.ascii	"identifier\000"
 2193      74696669 
 2193      657200
 2194              	.LASF107:
 2195 04f3 6F66665F 		.ascii	"off_preempt\000"
 2195      70726565 
 2195      6D707400 
 2196              	.LASF21:
 2197 04ff 74726566 		.ascii	"trefs_t\000"
 2197      735F7400 
 2198              	.LASF10:
 2199 0507 6C6F6E67 		.ascii	"long unsigned int\000"
 2199      20756E73 
 2199      69676E65 
 2199      6420696E 
 2199      7400
 2200              	.LASF113:
 2201 0519 63685654 		.ascii	"chVTDoSetI\000"
 2201      446F5365 
 2201      744900
 2202              	.LASF53:
 2203 0524 72656164 		.ascii	"ready_list_t\000"
 2203      795F6C69 
 2203      73745F74 
 2203      00
 2204              	.LASF29:
 2205 0531 71756575 		.ascii	"queue\000"
 2205      6500
 2206              	.LASF16:
 2207 0537 696E7433 		.ascii	"int32_t\000"
 2207      325F7400 
 2208              	.LASF83:
 2209 053f 77747365 		.ascii	"wtsemp\000"
 2209      6D7000
 2210              	.LASF111:
 2211 0546 6D757465 		.ascii	"mutex_t\000"
 2211      785F7400 
 2212              	.LASF31:
 2213 054e 6E657765 		.ascii	"newer\000"
 2213      7200
 2214              	.LASF2:
 2215 0554 756E7369 		.ascii	"unsigned char\000"
 2215      676E6564 
 2215      20636861 
ARM GAS  /var/folders/t8/16hdwfmd2fg_d3q6dgx6bpmw0000gn/T//ccdqvDSM.s 			page 44


 2215      7200
 2216              	.LASF9:
 2217 0562 5F5F7569 		.ascii	"__uint32_t\000"
 2217      6E743332 
 2217      5F7400
 2218              	.LASF39:
 2219 056d 77616974 		.ascii	"waiting\000"
 2219      696E6700 
 2220              	.LASF61:
 2221 0575 76697274 		.ascii	"virtual_timers_list_t\000"
 2221      75616C5F 
 2221      74696D65 
 2221      72735F6C 
 2221      6973745F 
 2222              	.LASF35:
 2223 058b 73746174 		.ascii	"state\000"
 2223      6500
 2224              	.LASF118:
 2225 0591 63685379 		.ascii	"chSysHalt\000"
 2225      7348616C 
 2225      7400
 2226              	.LASF69:
 2227 059b 63685F73 		.ascii	"ch_system_t\000"
 2227      79737465 
 2227      6D5F7400 
 2228              	.LASF81:
 2229 05a7 77747472 		.ascii	"wttrp\000"
 2229      7000
 2230              	.LASF1:
 2231 05ad 7369676E 		.ascii	"signed char\000"
 2231      65642063 
 2231      68617200 
 2232              	.LASF59:
 2233 05b9 64656C74 		.ascii	"delta\000"
 2233      6100
 2234              	.LASF6:
 2235 05bf 73686F72 		.ascii	"short unsigned int\000"
 2235      7420756E 
 2235      7369676E 
 2235      65642069 
 2235      6E7400
 2236              	.LASF75:
 2237 05d2 73746B61 		.ascii	"stkalign_t\000"
 2237      6C69676E 
 2237      5F7400
 2238              	.LASF106:
 2239 05dd 6F66665F 		.ascii	"off_refs\000"
 2239      72656673 
 2239      00
 2240              	.LASF55:
 2241 05e6 63757272 		.ascii	"current\000"
 2241      656E7400 
 2242              	.LASF116:
 2243 05ee 5F5F6675 		.ascii	"__func__\000"
 2243      6E635F5F 
 2243      00
 2244              	.LASF110:
ARM GAS  /var/folders/t8/16hdwfmd2fg_d3q6dgx6bpmw0000gn/T//ccdqvDSM.s 			page 45


 2245 05f7 63685F64 		.ascii	"ch_debug\000"
 2245      65627567 
 2245      00
 2246              	.LASF32:
 2247 0600 6F6C6465 		.ascii	"older\000"
 2247      7200
 2248              	.LASF79:
 2249 0606 65786974 		.ascii	"exitcode\000"
 2249      636F6465 
 2249      00
 2250              	.LASF44:
 2251 060f 6D706F6F 		.ascii	"mpool\000"
 2251      6C00
 2252              		.ident	"GCC: (GNU Tools for Arm Embedded Processors 7-2017-q4-major) 7.2.1 20170904 (release) [ARM
ARM GAS  /var/folders/t8/16hdwfmd2fg_d3q6dgx6bpmw0000gn/T//ccdqvDSM.s 			page 46


DEFINED SYMBOLS
                            *ABS*:0000000000000000 chvt.c
/var/folders/t8/16hdwfmd2fg_d3q6dgx6bpmw0000gn/T//ccdqvDSM.s:16     .text._vt_init:0000000000000000 $t
/var/folders/t8/16hdwfmd2fg_d3q6dgx6bpmw0000gn/T//ccdqvDSM.s:24     .text._vt_init:0000000000000000 _vt_init
/var/folders/t8/16hdwfmd2fg_d3q6dgx6bpmw0000gn/T//ccdqvDSM.s:54     .text._vt_init:0000000000000018 $d
/var/folders/t8/16hdwfmd2fg_d3q6dgx6bpmw0000gn/T//ccdqvDSM.s:59     .text.chVTDoSetI:0000000000000000 $t
/var/folders/t8/16hdwfmd2fg_d3q6dgx6bpmw0000gn/T//ccdqvDSM.s:67     .text.chVTDoSetI:0000000000000000 chVTDoSetI
/var/folders/t8/16hdwfmd2fg_d3q6dgx6bpmw0000gn/T//ccdqvDSM.s:167    .text.chVTDoSetI:0000000000000054 $d
/var/folders/t8/16hdwfmd2fg_d3q6dgx6bpmw0000gn/T//ccdqvDSM.s:173    .text.chVTDoResetI:0000000000000000 $t
/var/folders/t8/16hdwfmd2fg_d3q6dgx6bpmw0000gn/T//ccdqvDSM.s:181    .text.chVTDoResetI:0000000000000000 chVTDoResetI
/var/folders/t8/16hdwfmd2fg_d3q6dgx6bpmw0000gn/T//ccdqvDSM.s:251    .text.chVTDoResetI:0000000000000044 $d
/var/folders/t8/16hdwfmd2fg_d3q6dgx6bpmw0000gn/T//ccdqvDSM.s:257    .rodata.__func__.5725:0000000000000000 $d
/var/folders/t8/16hdwfmd2fg_d3q6dgx6bpmw0000gn/T//ccdqvDSM.s:261    .rodata.__func__.5725:0000000000000000 __func__.5725
/var/folders/t8/16hdwfmd2fg_d3q6dgx6bpmw0000gn/T//ccdqvDSM.s:264    .rodata.__func__.5732:0000000000000000 $d
/var/folders/t8/16hdwfmd2fg_d3q6dgx6bpmw0000gn/T//ccdqvDSM.s:268    .rodata.__func__.5732:0000000000000000 __func__.5732

UNDEFINED SYMBOLS
ch
chDbgCheckClassI
chSysHalt
