ARM GAS  /var/folders/t8/16hdwfmd2fg_d3q6dgx6bpmw0000gn/T//ccbZiAyP.s 			page 1


   1              		.cpu cortex-m0plus
   2              		.eabi_attribute 20, 1
   3              		.eabi_attribute 21, 1
   4              		.eabi_attribute 23, 3
   5              		.eabi_attribute 24, 1
   6              		.eabi_attribute 25, 1
   7              		.eabi_attribute 26, 1
   8              		.eabi_attribute 30, 2
   9              		.eabi_attribute 34, 0
  10              		.eabi_attribute 18, 4
  11              		.file	"command.c"
  12              		.text
  13              	.Ltext0:
  14              		.cfi_sections	.debug_frame
  15              		.section	.text.mousekey_console_help,"ax",%progbits
  16              		.align	1
  17              		.p2align 4,,15
  18              		.syntax unified
  19              		.code	16
  20              		.thumb_func
  21              		.fpu softvfp
  22              		.type	mousekey_console_help, %function
  23              	mousekey_console_help:
  24              	.LFB188:
  25              		.file 1 "../../tmk_core/common/command.c"
  26              		.loc 1 544 0
  27              		.cfi_startproc
  28              		@ args = 0, pretend = 0, frame = 0
  29              		@ frame_needed = 0, uses_anonymous_args = 0
  30 0000 10B5     		push	{r4, lr}
  31              		.cfi_def_cfa_offset 8
  32              		.cfi_offset 4, -8
  33              		.cfi_offset 14, -4
  34              		.loc 1 545 0
  35 0002 0448     		ldr	r0, .L3
  36 0004 FFF7FEFF 		bl	tfp_printf
  37              	.LVL0:
  38              		.loc 1 562 0
  39 0008 0122     		movs	r2, #1
  40 000a 0521     		movs	r1, #5
  41 000c 0248     		ldr	r0, .L3+4
  42 000e FFF7FEFF 		bl	tfp_printf
  43              	.LVL1:
  44              		.loc 1 564 0
  45              		@ sp needed
  46 0012 10BD     		pop	{r4, pc}
  47              	.L4:
  48              		.align	2
  49              	.L3:
  50 0014 00000000 		.word	.LC0
  51 0018 FC000000 		.word	.LC2
  52              		.cfi_endproc
  53              	.LFE188:
  54              		.size	mousekey_console_help, .-mousekey_console_help
  55              		.section	.text.mousekey_param_inc,"ax",%progbits
  56              		.align	1
  57              		.p2align 4,,15
ARM GAS  /var/folders/t8/16hdwfmd2fg_d3q6dgx6bpmw0000gn/T//ccbZiAyP.s 			page 2


  58              		.syntax unified
  59              		.code	16
  60              		.thumb_func
  61              		.fpu softvfp
  62              		.type	mousekey_param_inc, %function
  63              	mousekey_param_inc:
  64              	.LFB186:
  65              		.loc 1 448 0
  66              		.cfi_startproc
  67              		@ args = 0, pretend = 0, frame = 0
  68              		@ frame_needed = 0, uses_anonymous_args = 0
  69              	.LVL2:
  70 0000 10B5     		push	{r4, lr}
  71              		.cfi_def_cfa_offset 8
  72              		.cfi_offset 4, -8
  73              		.cfi_offset 14, -4
  74              		.loc 1 449 0
  75 0002 0628     		cmp	r0, #6
  76 0004 0DD8     		bhi	.L5
  77 0006 2F4B     		ldr	r3, .L26
  78 0008 8000     		lsls	r0, r0, #2
  79              	.LVL3:
  80 000a 1B58     		ldr	r3, [r3, r0]
  81 000c 9F46     		mov	pc, r3
  82              		.section	.rodata.mousekey_param_inc,"a",%progbits
  83              		.align	2
  84              	.L8:
  85 0000 22000000 		.word	.L5
  86 0004 24000000 		.word	.L7
  87 0008 3A000000 		.word	.L9
  88 000c 66000000 		.word	.L10
  89 0010 50000000 		.word	.L11
  90 0014 7C000000 		.word	.L12
  91 0018 0E000000 		.word	.L13
  92              		.section	.text.mousekey_param_inc
  93              	.L13:
  94              		.loc 1 486 0
  95 000e 2E4A     		ldr	r2, .L26+4
  96 0010 1378     		ldrb	r3, [r2]
  97 0012 5918     		adds	r1, r3, r1
  98              	.LVL4:
  99 0014 FE29     		cmp	r1, #254
 100 0016 3CDC     		bgt	.L24
 101              		.loc 1 487 0
 102 0018 C9B2     		uxtb	r1, r1
 103 001a 1170     		strb	r1, [r2]
 104              	.L25:
 105              		.loc 1 490 0
 106 001c 2B48     		ldr	r0, .L26+8
 107 001e FFF7FEFF 		bl	tfp_printf
 108              	.LVL5:
 109              	.L5:
 110              		.loc 1 493 0
 111              		@ sp needed
 112 0022 10BD     		pop	{r4, pc}
 113              	.LVL6:
 114              	.L7:
ARM GAS  /var/folders/t8/16hdwfmd2fg_d3q6dgx6bpmw0000gn/T//ccbZiAyP.s 			page 3


 115              		.loc 1 451 0
 116 0024 2A4A     		ldr	r2, .L26+12
 117 0026 1378     		ldrb	r3, [r2]
 118 0028 5918     		adds	r1, r3, r1
 119              	.LVL7:
 120 002a FE29     		cmp	r1, #254
 121 002c 39DC     		bgt	.L14
 122              		.loc 1 452 0
 123 002e C9B2     		uxtb	r1, r1
 124 0030 1170     		strb	r1, [r2]
 125              	.L15:
 126              		.loc 1 455 0
 127 0032 2848     		ldr	r0, .L26+16
 128 0034 FFF7FEFF 		bl	tfp_printf
 129              	.LVL8:
 130              		.loc 1 456 0
 131 0038 F3E7     		b	.L5
 132              	.LVL9:
 133              	.L9:
 134              		.loc 1 458 0
 135 003a 274A     		ldr	r2, .L26+20
 136 003c 1378     		ldrb	r3, [r2]
 137 003e 5918     		adds	r1, r3, r1
 138              	.LVL10:
 139 0040 FE29     		cmp	r1, #254
 140 0042 36DC     		bgt	.L16
 141              		.loc 1 459 0
 142 0044 C9B2     		uxtb	r1, r1
 143 0046 1170     		strb	r1, [r2]
 144              	.L17:
 145              		.loc 1 462 0
 146 0048 2448     		ldr	r0, .L26+24
 147 004a FFF7FEFF 		bl	tfp_printf
 148              	.LVL11:
 149              		.loc 1 463 0
 150 004e E8E7     		b	.L5
 151              	.LVL12:
 152              	.L11:
 153              		.loc 1 472 0
 154 0050 234A     		ldr	r2, .L26+28
 155 0052 1378     		ldrb	r3, [r2]
 156 0054 5918     		adds	r1, r3, r1
 157              	.LVL13:
 158 0056 FE29     		cmp	r1, #254
 159 0058 27DC     		bgt	.L20
 160              		.loc 1 473 0
 161 005a C9B2     		uxtb	r1, r1
 162 005c 1170     		strb	r1, [r2]
 163              	.L21:
 164              		.loc 1 476 0
 165 005e 2148     		ldr	r0, .L26+32
 166 0060 FFF7FEFF 		bl	tfp_printf
 167              	.LVL14:
 168              		.loc 1 477 0
 169 0064 DDE7     		b	.L5
 170              	.LVL15:
 171              	.L10:
ARM GAS  /var/folders/t8/16hdwfmd2fg_d3q6dgx6bpmw0000gn/T//ccbZiAyP.s 			page 4


 172              		.loc 1 465 0
 173 0066 204A     		ldr	r2, .L26+36
 174 0068 1378     		ldrb	r3, [r2]
 175 006a 5918     		adds	r1, r3, r1
 176              	.LVL16:
 177 006c FE29     		cmp	r1, #254
 178 006e 24DC     		bgt	.L18
 179              		.loc 1 466 0
 180 0070 C9B2     		uxtb	r1, r1
 181 0072 1170     		strb	r1, [r2]
 182              	.L19:
 183              		.loc 1 469 0
 184 0074 1D48     		ldr	r0, .L26+40
 185 0076 FFF7FEFF 		bl	tfp_printf
 186              	.LVL17:
 187              		.loc 1 470 0
 188 007a D2E7     		b	.L5
 189              	.LVL18:
 190              	.L12:
 191              		.loc 1 479 0
 192 007c 1C4A     		ldr	r2, .L26+44
 193 007e 1378     		ldrb	r3, [r2]
 194 0080 5918     		adds	r1, r3, r1
 195              	.LVL19:
 196 0082 FE29     		cmp	r1, #254
 197 0084 09DC     		bgt	.L22
 198              		.loc 1 480 0
 199 0086 C9B2     		uxtb	r1, r1
 200 0088 1170     		strb	r1, [r2]
 201              	.L23:
 202              		.loc 1 483 0
 203 008a 1A48     		ldr	r0, .L26+48
 204 008c FFF7FEFF 		bl	tfp_printf
 205              	.LVL20:
 206              		.loc 1 484 0
 207 0090 C7E7     		b	.L5
 208              	.L24:
 209              		.loc 1 489 0
 210 0092 FF23     		movs	r3, #255
 211 0094 FF21     		movs	r1, #255
 212 0096 1370     		strb	r3, [r2]
 213 0098 C0E7     		b	.L25
 214              	.L22:
 215              		.loc 1 482 0
 216 009a FF23     		movs	r3, #255
 217 009c FF21     		movs	r1, #255
 218 009e 1370     		strb	r3, [r2]
 219 00a0 F3E7     		b	.L23
 220              	.L14:
 221              		.loc 1 454 0
 222 00a2 FF23     		movs	r3, #255
 223 00a4 FF21     		movs	r1, #255
 224 00a6 1370     		strb	r3, [r2]
 225 00a8 C3E7     		b	.L15
 226              	.L20:
 227              		.loc 1 475 0
 228 00aa FF23     		movs	r3, #255
ARM GAS  /var/folders/t8/16hdwfmd2fg_d3q6dgx6bpmw0000gn/T//ccbZiAyP.s 			page 5


 229 00ac FF21     		movs	r1, #255
 230 00ae 1370     		strb	r3, [r2]
 231 00b0 D5E7     		b	.L21
 232              	.L16:
 233              		.loc 1 461 0
 234 00b2 FF23     		movs	r3, #255
 235 00b4 FF21     		movs	r1, #255
 236 00b6 1370     		strb	r3, [r2]
 237 00b8 C6E7     		b	.L17
 238              	.L18:
 239              		.loc 1 468 0
 240 00ba FF23     		movs	r3, #255
 241 00bc FF21     		movs	r1, #255
 242 00be 1370     		strb	r3, [r2]
 243 00c0 D8E7     		b	.L19
 244              	.L27:
 245 00c2 C046     		.align	2
 246              	.L26:
 247 00c4 00000000 		.word	.L8
 248 00c8 00000000 		.word	mk_wheel_time_to_max
 249 00cc 6C000000 		.word	.LC21
 250 00d0 00000000 		.word	mk_delay
 251 00d4 00000000 		.word	.LC6
 252 00d8 00000000 		.word	mk_interval
 253 00dc 10000000 		.word	.LC9
 254 00e0 00000000 		.word	mk_time_to_max
 255 00e4 38000000 		.word	.LC15
 256 00e8 00000000 		.word	mk_max_speed
 257 00ec 24000000 		.word	.LC12
 258 00f0 00000000 		.word	mk_wheel_max_speed
 259 00f4 50000000 		.word	.LC18
 260              		.cfi_endproc
 261              	.LFE186:
 262              		.size	mousekey_param_inc, .-mousekey_param_inc
 263              		.section	.text.mousekey_param_dec,"ax",%progbits
 264              		.align	1
 265              		.p2align 4,,15
 266              		.syntax unified
 267              		.code	16
 268              		.thumb_func
 269              		.fpu softvfp
 270              		.type	mousekey_param_dec, %function
 271              	mousekey_param_dec:
 272              	.LFB187:
 273              		.loc 1 496 0
 274              		.cfi_startproc
 275              		@ args = 0, pretend = 0, frame = 0
 276              		@ frame_needed = 0, uses_anonymous_args = 0
 277              	.LVL21:
 278 0000 10B5     		push	{r4, lr}
 279              		.cfi_def_cfa_offset 8
 280              		.cfi_offset 4, -8
 281              		.cfi_offset 14, -4
 282              		.loc 1 497 0
 283 0002 0628     		cmp	r0, #6
 284 0004 0DD8     		bhi	.L28
 285 0006 2F4B     		ldr	r3, .L49
ARM GAS  /var/folders/t8/16hdwfmd2fg_d3q6dgx6bpmw0000gn/T//ccbZiAyP.s 			page 6


 286 0008 8000     		lsls	r0, r0, #2
 287              	.LVL22:
 288 000a 1B58     		ldr	r3, [r3, r0]
 289 000c 9F46     		mov	pc, r3
 290              		.section	.rodata.mousekey_param_dec,"a",%progbits
 291              		.align	2
 292              	.L31:
 293 0000 22000000 		.word	.L28
 294 0004 24000000 		.word	.L30
 295 0008 3A000000 		.word	.L32
 296 000c 66000000 		.word	.L33
 297 0010 50000000 		.word	.L34
 298 0014 7C000000 		.word	.L35
 299 0018 0E000000 		.word	.L36
 300              		.section	.text.mousekey_param_dec
 301              	.L36:
 302              		.loc 1 534 0
 303 000e 2E4A     		ldr	r2, .L49+4
 304 0010 1378     		ldrb	r3, [r2]
 305 0012 8B42     		cmp	r3, r1
 306 0014 3DD9     		bls	.L47
 307              		.loc 1 535 0
 308 0016 591A     		subs	r1, r3, r1
 309              	.LVL23:
 310 0018 C9B2     		uxtb	r1, r1
 311 001a 1170     		strb	r1, [r2]
 312              	.L48:
 313              		.loc 1 538 0
 314 001c 2B48     		ldr	r0, .L49+8
 315 001e FFF7FEFF 		bl	tfp_printf
 316              	.LVL24:
 317              	.L28:
 318              		.loc 1 541 0
 319              		@ sp needed
 320 0022 10BD     		pop	{r4, pc}
 321              	.LVL25:
 322              	.L30:
 323              		.loc 1 499 0
 324 0024 2A4A     		ldr	r2, .L49+12
 325 0026 1378     		ldrb	r3, [r2]
 326 0028 8B42     		cmp	r3, r1
 327 002a 3AD9     		bls	.L37
 328              		.loc 1 500 0
 329 002c 591A     		subs	r1, r3, r1
 330              	.LVL26:
 331 002e C9B2     		uxtb	r1, r1
 332 0030 1170     		strb	r1, [r2]
 333              	.L38:
 334              		.loc 1 503 0
 335 0032 2848     		ldr	r0, .L49+16
 336 0034 FFF7FEFF 		bl	tfp_printf
 337              	.LVL27:
 338              		.loc 1 504 0
 339 0038 F3E7     		b	.L28
 340              	.LVL28:
 341              	.L32:
 342              		.loc 1 506 0
ARM GAS  /var/folders/t8/16hdwfmd2fg_d3q6dgx6bpmw0000gn/T//ccbZiAyP.s 			page 7


 343 003a 274A     		ldr	r2, .L49+20
 344 003c 1378     		ldrb	r3, [r2]
 345 003e 8B42     		cmp	r3, r1
 346 0040 37D9     		bls	.L39
 347              		.loc 1 507 0
 348 0042 591A     		subs	r1, r3, r1
 349              	.LVL29:
 350 0044 C9B2     		uxtb	r1, r1
 351 0046 1170     		strb	r1, [r2]
 352              	.L40:
 353              		.loc 1 510 0
 354 0048 2448     		ldr	r0, .L49+24
 355 004a FFF7FEFF 		bl	tfp_printf
 356              	.LVL30:
 357              		.loc 1 511 0
 358 004e E8E7     		b	.L28
 359              	.LVL31:
 360              	.L34:
 361              		.loc 1 520 0
 362 0050 234A     		ldr	r2, .L49+28
 363 0052 1378     		ldrb	r3, [r2]
 364 0054 8B42     		cmp	r3, r1
 365 0056 28D9     		bls	.L43
 366              		.loc 1 521 0
 367 0058 591A     		subs	r1, r3, r1
 368              	.LVL32:
 369 005a C9B2     		uxtb	r1, r1
 370 005c 1170     		strb	r1, [r2]
 371              	.L44:
 372              		.loc 1 524 0
 373 005e 2148     		ldr	r0, .L49+32
 374 0060 FFF7FEFF 		bl	tfp_printf
 375              	.LVL33:
 376              		.loc 1 525 0
 377 0064 DDE7     		b	.L28
 378              	.LVL34:
 379              	.L33:
 380              		.loc 1 513 0
 381 0066 204A     		ldr	r2, .L49+36
 382 0068 1378     		ldrb	r3, [r2]
 383 006a 8B42     		cmp	r3, r1
 384 006c 25D9     		bls	.L41
 385              		.loc 1 514 0
 386 006e 591A     		subs	r1, r3, r1
 387              	.LVL35:
 388 0070 C9B2     		uxtb	r1, r1
 389 0072 1170     		strb	r1, [r2]
 390              	.L42:
 391              		.loc 1 517 0
 392 0074 1D48     		ldr	r0, .L49+40
 393 0076 FFF7FEFF 		bl	tfp_printf
 394              	.LVL36:
 395              		.loc 1 518 0
 396 007a D2E7     		b	.L28
 397              	.LVL37:
 398              	.L35:
 399              		.loc 1 527 0
ARM GAS  /var/folders/t8/16hdwfmd2fg_d3q6dgx6bpmw0000gn/T//ccbZiAyP.s 			page 8


 400 007c 1C4A     		ldr	r2, .L49+44
 401 007e 1378     		ldrb	r3, [r2]
 402 0080 8B42     		cmp	r3, r1
 403 0082 0AD9     		bls	.L45
 404              		.loc 1 528 0
 405 0084 591A     		subs	r1, r3, r1
 406              	.LVL38:
 407 0086 C9B2     		uxtb	r1, r1
 408 0088 1170     		strb	r1, [r2]
 409              	.L46:
 410              		.loc 1 531 0
 411 008a 1A48     		ldr	r0, .L49+48
 412 008c FFF7FEFF 		bl	tfp_printf
 413              	.LVL39:
 414              		.loc 1 532 0
 415 0090 C7E7     		b	.L28
 416              	.LVL40:
 417              	.L47:
 418              		.loc 1 537 0
 419 0092 0023     		movs	r3, #0
 420 0094 0021     		movs	r1, #0
 421              	.LVL41:
 422 0096 1370     		strb	r3, [r2]
 423 0098 C0E7     		b	.L48
 424              	.LVL42:
 425              	.L45:
 426              		.loc 1 530 0
 427 009a 0023     		movs	r3, #0
 428 009c 0021     		movs	r1, #0
 429              	.LVL43:
 430 009e 1370     		strb	r3, [r2]
 431 00a0 F3E7     		b	.L46
 432              	.LVL44:
 433              	.L37:
 434              		.loc 1 502 0
 435 00a2 0023     		movs	r3, #0
 436 00a4 0021     		movs	r1, #0
 437              	.LVL45:
 438 00a6 1370     		strb	r3, [r2]
 439 00a8 C3E7     		b	.L38
 440              	.LVL46:
 441              	.L43:
 442              		.loc 1 523 0
 443 00aa 0023     		movs	r3, #0
 444 00ac 0021     		movs	r1, #0
 445              	.LVL47:
 446 00ae 1370     		strb	r3, [r2]
 447 00b0 D5E7     		b	.L44
 448              	.LVL48:
 449              	.L39:
 450              		.loc 1 509 0
 451 00b2 0023     		movs	r3, #0
 452 00b4 0021     		movs	r1, #0
 453              	.LVL49:
 454 00b6 1370     		strb	r3, [r2]
 455 00b8 C6E7     		b	.L40
 456              	.LVL50:
ARM GAS  /var/folders/t8/16hdwfmd2fg_d3q6dgx6bpmw0000gn/T//ccbZiAyP.s 			page 9


 457              	.L41:
 458              		.loc 1 516 0
 459 00ba 0023     		movs	r3, #0
 460 00bc 0021     		movs	r1, #0
 461              	.LVL51:
 462 00be 1370     		strb	r3, [r2]
 463 00c0 D8E7     		b	.L42
 464              	.L50:
 465 00c2 C046     		.align	2
 466              	.L49:
 467 00c4 00000000 		.word	.L31
 468 00c8 00000000 		.word	mk_wheel_time_to_max
 469 00cc 6C000000 		.word	.LC21
 470 00d0 00000000 		.word	mk_delay
 471 00d4 00000000 		.word	.LC6
 472 00d8 00000000 		.word	mk_interval
 473 00dc 10000000 		.word	.LC9
 474 00e0 00000000 		.word	mk_time_to_max
 475 00e4 38000000 		.word	.LC15
 476 00e8 00000000 		.word	mk_max_speed
 477 00ec 24000000 		.word	.LC12
 478 00f0 00000000 		.word	mk_wheel_max_speed
 479 00f4 50000000 		.word	.LC18
 480              		.cfi_endproc
 481              	.LFE187:
 482              		.size	mousekey_param_dec, .-mousekey_param_dec
 483              		.section	.text.switch_default_layer,"ax",%progbits
 484              		.align	1
 485              		.p2align 4,,15
 486              		.syntax unified
 487              		.code	16
 488              		.thumb_func
 489              		.fpu softvfp
 490              		.type	switch_default_layer, %function
 491              	switch_default_layer:
 492              	.LFB191:
 493              		.loc 1 650 0
 494              		.cfi_startproc
 495              		@ args = 0, pretend = 0, frame = 0
 496              		@ frame_needed = 0, uses_anonymous_args = 0
 497              	.LVL52:
 498 0000 10B5     		push	{r4, lr}
 499              		.cfi_def_cfa_offset 8
 500              		.cfi_offset 4, -8
 501              		.cfi_offset 14, -4
 502              		.loc 1 651 0
 503 0002 0100     		movs	r1, r0
 504              		.loc 1 650 0
 505 0004 0400     		movs	r4, r0
 506              		.loc 1 651 0
 507 0006 0548     		ldr	r0, .L52
 508              	.LVL53:
 509 0008 FFF7FEFF 		bl	tfp_printf
 510              	.LVL54:
 511              		.loc 1 652 0
 512 000c 0120     		movs	r0, #1
 513 000e A040     		lsls	r0, r0, r4
ARM GAS  /var/folders/t8/16hdwfmd2fg_d3q6dgx6bpmw0000gn/T//ccbZiAyP.s 			page 10


 514 0010 FFF7FEFF 		bl	default_layer_set
 515              	.LVL55:
 516              		.loc 1 654 0
 517              		@ sp needed
 518              		.loc 1 653 0
 519 0014 FFF7FEFF 		bl	clear_keyboard
 520              	.LVL56:
 521              		.loc 1 654 0
 522 0018 10BD     		pop	{r4, pc}
 523              	.L53:
 524 001a C046     		.align	2
 525              	.L52:
 526 001c 00000000 		.word	.LC36
 527              		.cfi_endproc
 528              	.LFE191:
 529              		.size	switch_default_layer, .-switch_default_layer
 530              		.section	.text.command_common,"ax",%progbits
 531              		.align	1
 532              		.p2align 4,,15
 533              		.syntax unified
 534              		.code	16
 535              		.thumb_func
 536              		.fpu softvfp
 537              		.type	command_common, %function
 538              	command_common:
 539              	.LFB182:
 540              		.loc 1 182 0
 541              		.cfi_startproc
 542              		@ args = 0, pretend = 0, frame = 0
 543              		@ frame_needed = 0, uses_anonymous_args = 0
 544              	.LVL57:
 545 0000 F8B5     		push	{r3, r4, r5, r6, r7, lr}
 546              		.cfi_def_cfa_offset 24
 547              		.cfi_offset 3, -24
 548              		.cfi_offset 4, -20
 549              		.cfi_offset 5, -16
 550              		.cfi_offset 6, -12
 551              		.cfi_offset 7, -8
 552              		.cfi_offset 14, -4
 553              		.loc 1 189 0
 554 0002 831F     		subs	r3, r0, #6
 555 0004 DBB2     		uxtb	r3, r3
 556 0006 422B     		cmp	r3, #66
 557 0008 00D9     		bls	.LCB477
 558 000a 7DE1     		b	.L55	@long jump
 559              	.LCB477:
 560 000c D34A     		ldr	r2, .L82
 561 000e 9B00     		lsls	r3, r3, #2
 562 0010 D358     		ldr	r3, [r2, r3]
 563 0012 9F46     		mov	pc, r3
 564              		.section	.rodata.command_common,"a",%progbits
 565              		.align	2
 566              	.L57:
 567 0000 30000000 		.word	.L56
 568 0004 50000000 		.word	.L58
 569 0008 70000000 		.word	.L59
 570 000c 08030000 		.word	.L55
ARM GAS  /var/folders/t8/16hdwfmd2fg_d3q6dgx6bpmw0000gn/T//ccbZiAyP.s 			page 11


 571 0010 08030000 		.word	.L55
 572 0014 D4010000 		.word	.L60
 573 0018 08030000 		.word	.L55
 574 001c 08030000 		.word	.L55
 575 0020 DE010000 		.word	.L61
 576 0024 08030000 		.word	.L55
 577 0028 FE010000 		.word	.L62
 578 002c 1E020000 		.word	.L63
 579 0030 08030000 		.word	.L55
 580 0034 08030000 		.word	.L55
 581 0038 08030000 		.word	.L55
 582 003c 08030000 		.word	.L55
 583 0040 36020000 		.word	.L64
 584 0044 08030000 		.word	.L55
 585 0048 08030000 		.word	.L55
 586 004c 76020000 		.word	.L65
 587 0050 08030000 		.word	.L55
 588 0054 9E020000 		.word	.L66
 589 0058 08030000 		.word	.L55
 590 005c C8020000 		.word	.L67
 591 0060 E6020000 		.word	.L68
 592 0064 E6020000 		.word	.L68
 593 0068 E6020000 		.word	.L68
 594 006c E6020000 		.word	.L68
 595 0070 E6020000 		.word	.L68
 596 0074 E6020000 		.word	.L68
 597 0078 E6020000 		.word	.L68
 598 007c E6020000 		.word	.L68
 599 0080 E6020000 		.word	.L68
 600 0084 F2020000 		.word	.L69
 601 0088 08030000 		.word	.L55
 602 008c F2020000 		.word	.L69
 603 0090 08030000 		.word	.L55
 604 0094 08030000 		.word	.L55
 605 0098 08030000 		.word	.L55
 606 009c 08030000 		.word	.L55
 607 00a0 08030000 		.word	.L55
 608 00a4 08030000 		.word	.L55
 609 00a8 08030000 		.word	.L55
 610 00ac 08030000 		.word	.L55
 611 00b0 08030000 		.word	.L55
 612 00b4 08030000 		.word	.L55
 613 00b8 08030000 		.word	.L55
 614 00bc F2020000 		.word	.L69
 615 00c0 08030000 		.word	.L55
 616 00c4 08030000 		.word	.L55
 617 00c8 D4010000 		.word	.L60
 618 00cc 08030000 		.word	.L55
 619 00d0 FC020000 		.word	.L70
 620 00d4 FC020000 		.word	.L70
 621 00d8 FC020000 		.word	.L70
 622 00dc FC020000 		.word	.L70
 623 00e0 FC020000 		.word	.L70
 624 00e4 FC020000 		.word	.L70
 625 00e8 FC020000 		.word	.L70
 626 00ec FC020000 		.word	.L70
 627 00f0 FC020000 		.word	.L70
ARM GAS  /var/folders/t8/16hdwfmd2fg_d3q6dgx6bpmw0000gn/T//ccbZiAyP.s 			page 12


 628 00f4 F2020000 		.word	.L69
 629 00f8 08030000 		.word	.L55
 630 00fc 08030000 		.word	.L55
 631 0100 08030000 		.word	.L55
 632 0104 08030000 		.word	.L55
 633 0108 14000000 		.word	.L71
 634              		.section	.text.command_common
 635              	.L71:
 636              		.loc 1 236 0
 637 0014 FFF7FEFF 		bl	clear_keyboard
 638              	.LVL58:
 639              		.loc 1 237 0
 640 0018 D148     		ldr	r0, .L82+4
 641 001a FFF7FEFF 		bl	tfp_printf
 642              	.LVL59:
 643              		.loc 1 238 0
 644 001e FA20     		movs	r0, #250
 645 0020 8000     		lsls	r0, r0, #2
 646 0022 FFF7FEFF 		bl	chThdSleep
 647              	.LVL60:
 648              		.loc 1 384 0
 649 0026 0124     		movs	r4, #1
 650              		.loc 1 239 0
 651 0028 FFF7FEFF 		bl	bootloader_jump
 652              	.LVL61:
 653              	.L74:
 654              		.loc 1 385 0
 655 002c 2000     		movs	r0, r4
 656              		@ sp needed
 657 002e F8BD     		pop	{r3, r4, r5, r6, r7, pc}
 658              	.LVL62:
 659              	.L56:
 660              		.loc 1 230 0
 661 0030 F121     		movs	r1, #241
 662 0032 0124     		movs	r4, #1
 663              		.loc 1 227 0
 664 0034 CB4A     		ldr	r2, .L82+8
 665              	.LBB16:
 666              	.LBB17:
 667              		.loc 1 393 0
 668 0036 CC48     		ldr	r0, .L82+12
 669              	.LVL63:
 670              	.LBE17:
 671              	.LBE16:
 672              		.loc 1 227 0
 673 0038 1378     		ldrb	r3, [r2]
 674              		.loc 1 230 0
 675 003a 0B40     		ands	r3, r1
 676 003c A343     		bics	r3, r4
 677 003e 1370     		strb	r3, [r2]
 678              	.LBB19:
 679              	.LBB18:
 680              		.loc 1 393 0
 681 0040 FFF7FEFF 		bl	tfp_printf
 682              	.LVL64:
 683              	.LBE18:
 684              	.LBE19:
ARM GAS  /var/folders/t8/16hdwfmd2fg_d3q6dgx6bpmw0000gn/T//ccbZiAyP.s 			page 13


 685              		.loc 1 232 0
 686 0044 C948     		ldr	r0, .L82+16
 687 0046 FFF7FEFF 		bl	tfp_printf
 688              	.LVL65:
 689              		.loc 1 233 0
 690 004a C94B     		ldr	r3, .L82+20
 691 004c 1C70     		strb	r4, [r3]
 692              		.loc 1 234 0
 693 004e EDE7     		b	.L74
 694              	.LVL66:
 695              	.L58:
 696              		.loc 1 242 0
 697 0050 0125     		movs	r5, #1
 698 0052 C44C     		ldr	r4, .L82+8
 699 0054 2378     		ldrb	r3, [r4]
 700 0056 1D42     		tst	r5, r3
 701 0058 00D1     		bne	.LCB562
 702 005a 75E1     		b	.L75	@long jump
 703              	.LCB562:
 704              		.loc 1 243 0
 705 005c C548     		ldr	r0, .L82+24
 706              	.LVL67:
 707 005e FFF7FEFF 		bl	tfp_printf
 708              	.LVL68:
 709              		.loc 1 247 0
 710 0062 F122     		movs	r2, #241
 711              		.loc 1 244 0
 712 0064 2378     		ldrb	r3, [r4]
 713              		.loc 1 247 0
 714 0066 1340     		ands	r3, r2
 715 0068 AB43     		bics	r3, r5
 716 006a 2370     		strb	r3, [r4]
 717              		.loc 1 384 0
 718 006c 0124     		movs	r4, #1
 719 006e DDE7     		b	.L74
 720              	.LVL69:
 721              	.L59:
 722              		.loc 1 205 0
 723 0070 C148     		ldr	r0, .L82+28
 724              	.LVL70:
 725 0072 FFF7FEFF 		bl	tfp_printf
 726              	.LVL71:
 727              	.LBB20:
 728              	.LBB21:
 729              		.loc 1 149 0
 730 0076 C148     		ldr	r0, .L82+32
 731 0078 FFF7FEFF 		bl	tfp_printf
 732              	.LVL72:
 733 007c FFF7FEFF 		bl	eeconfig_read_default_layer
 734              	.LVL73:
 735 0080 BF4D     		ldr	r5, .L82+36
 736 0082 0100     		movs	r1, r0
 737 0084 2800     		movs	r0, r5
 738 0086 FFF7FEFF 		bl	tfp_printf
 739              	.LVL74:
 740 008a BE4C     		ldr	r4, .L82+40
 741 008c 2000     		movs	r0, r4
ARM GAS  /var/folders/t8/16hdwfmd2fg_d3q6dgx6bpmw0000gn/T//ccbZiAyP.s 			page 14


 742 008e FFF7FEFF 		bl	tfp_printf
 743              	.LVL75:
 744              		.loc 1 152 0
 745 0092 FFF7FEFF 		bl	eeconfig_read_debug
 746              	.LVL76:
 747 0096 0600     		movs	r6, r0
 748              		.loc 1 153 0
 749 0098 BB48     		ldr	r0, .L82+44
 750 009a FFF7FEFF 		bl	tfp_printf
 751              	.LVL77:
 752 009e BB4F     		ldr	r7, .L82+48
 753 00a0 3100     		movs	r1, r6
 754 00a2 3800     		movs	r0, r7
 755 00a4 FFF7FEFF 		bl	tfp_printf
 756              	.LVL78:
 757 00a8 2000     		movs	r0, r4
 758 00aa FFF7FEFF 		bl	tfp_printf
 759              	.LVL79:
 760              		.loc 1 154 0
 761 00ae B848     		ldr	r0, .L82+52
 762 00b0 FFF7FEFF 		bl	tfp_printf
 763              	.LVL80:
 764 00b4 F107     		lsls	r1, r6, #31
 765 00b6 C90F     		lsrs	r1, r1, #31
 766 00b8 2800     		movs	r0, r5
 767 00ba FFF7FEFF 		bl	tfp_printf
 768              	.LVL81:
 769 00be 2000     		movs	r0, r4
 770 00c0 FFF7FEFF 		bl	tfp_printf
 771              	.LVL82:
 772              		.loc 1 155 0
 773 00c4 B348     		ldr	r0, .L82+56
 774 00c6 FFF7FEFF 		bl	tfp_printf
 775              	.LVL83:
 776 00ca B107     		lsls	r1, r6, #30
 777 00cc C90F     		lsrs	r1, r1, #31
 778 00ce 2800     		movs	r0, r5
 779 00d0 FFF7FEFF 		bl	tfp_printf
 780              	.LVL84:
 781 00d4 2000     		movs	r0, r4
 782 00d6 FFF7FEFF 		bl	tfp_printf
 783              	.LVL85:
 784              		.loc 1 156 0
 785 00da AF48     		ldr	r0, .L82+60
 786 00dc FFF7FEFF 		bl	tfp_printf
 787              	.LVL86:
 788 00e0 7107     		lsls	r1, r6, #29
 789 00e2 C90F     		lsrs	r1, r1, #31
 790 00e4 2800     		movs	r0, r5
 791 00e6 FFF7FEFF 		bl	tfp_printf
 792              	.LVL87:
 793 00ea 2000     		movs	r0, r4
 794 00ec FFF7FEFF 		bl	tfp_printf
 795              	.LVL88:
 796              		.loc 1 157 0
 797 00f0 AA48     		ldr	r0, .L82+64
 798 00f2 FFF7FEFF 		bl	tfp_printf
ARM GAS  /var/folders/t8/16hdwfmd2fg_d3q6dgx6bpmw0000gn/T//ccbZiAyP.s 			page 15


 799              	.LVL89:
 800 00f6 3107     		lsls	r1, r6, #28
 801 00f8 C90F     		lsrs	r1, r1, #31
 802 00fa 2800     		movs	r0, r5
 803 00fc FFF7FEFF 		bl	tfp_printf
 804              	.LVL90:
 805 0100 2000     		movs	r0, r4
 806 0102 FFF7FEFF 		bl	tfp_printf
 807              	.LVL91:
 808              		.loc 1 160 0
 809 0106 FFF7FEFF 		bl	eeconfig_read_keymap
 810              	.LVL92:
 811 010a 0600     		movs	r6, r0
 812              		.loc 1 161 0
 813 010c A448     		ldr	r0, .L82+68
 814 010e FFF7FEFF 		bl	tfp_printf
 815              	.LVL93:
 816 0112 3100     		movs	r1, r6
 817 0114 3800     		movs	r0, r7
 818 0116 FFF7FEFF 		bl	tfp_printf
 819              	.LVL94:
 820 011a 2000     		movs	r0, r4
 821 011c FFF7FEFF 		bl	tfp_printf
 822              	.LVL95:
 823              		.loc 1 162 0
 824 0120 A048     		ldr	r0, .L82+72
 825 0122 FFF7FEFF 		bl	tfp_printf
 826              	.LVL96:
 827 0126 F107     		lsls	r1, r6, #31
 828 0128 C90F     		lsrs	r1, r1, #31
 829 012a 2800     		movs	r0, r5
 830 012c FFF7FEFF 		bl	tfp_printf
 831              	.LVL97:
 832 0130 2000     		movs	r0, r4
 833 0132 FFF7FEFF 		bl	tfp_printf
 834              	.LVL98:
 835              		.loc 1 163 0
 836 0136 9C48     		ldr	r0, .L82+76
 837 0138 FFF7FEFF 		bl	tfp_printf
 838              	.LVL99:
 839 013c B107     		lsls	r1, r6, #30
 840 013e C90F     		lsrs	r1, r1, #31
 841 0140 2800     		movs	r0, r5
 842 0142 FFF7FEFF 		bl	tfp_printf
 843              	.LVL100:
 844 0146 2000     		movs	r0, r4
 845 0148 FFF7FEFF 		bl	tfp_printf
 846              	.LVL101:
 847              		.loc 1 164 0
 848 014c 9748     		ldr	r0, .L82+80
 849 014e FFF7FEFF 		bl	tfp_printf
 850              	.LVL102:
 851 0152 7107     		lsls	r1, r6, #29
 852 0154 C90F     		lsrs	r1, r1, #31
 853 0156 2800     		movs	r0, r5
 854 0158 FFF7FEFF 		bl	tfp_printf
 855              	.LVL103:
ARM GAS  /var/folders/t8/16hdwfmd2fg_d3q6dgx6bpmw0000gn/T//ccbZiAyP.s 			page 16


 856 015c 2000     		movs	r0, r4
 857 015e FFF7FEFF 		bl	tfp_printf
 858              	.LVL104:
 859              		.loc 1 165 0
 860 0162 9348     		ldr	r0, .L82+84
 861 0164 FFF7FEFF 		bl	tfp_printf
 862              	.LVL105:
 863 0168 3107     		lsls	r1, r6, #28
 864 016a C90F     		lsrs	r1, r1, #31
 865 016c 2800     		movs	r0, r5
 866 016e FFF7FEFF 		bl	tfp_printf
 867              	.LVL106:
 868 0172 2000     		movs	r0, r4
 869 0174 FFF7FEFF 		bl	tfp_printf
 870              	.LVL107:
 871              		.loc 1 166 0
 872 0178 8E48     		ldr	r0, .L82+88
 873 017a FFF7FEFF 		bl	tfp_printf
 874              	.LVL108:
 875 017e F106     		lsls	r1, r6, #27
 876 0180 C90F     		lsrs	r1, r1, #31
 877 0182 2800     		movs	r0, r5
 878 0184 FFF7FEFF 		bl	tfp_printf
 879              	.LVL109:
 880 0188 2000     		movs	r0, r4
 881 018a FFF7FEFF 		bl	tfp_printf
 882              	.LVL110:
 883              		.loc 1 167 0
 884 018e 8A48     		ldr	r0, .L82+92
 885 0190 FFF7FEFF 		bl	tfp_printf
 886              	.LVL111:
 887 0194 B106     		lsls	r1, r6, #26
 888 0196 C90F     		lsrs	r1, r1, #31
 889 0198 2800     		movs	r0, r5
 890 019a FFF7FEFF 		bl	tfp_printf
 891              	.LVL112:
 892 019e 2000     		movs	r0, r4
 893 01a0 FFF7FEFF 		bl	tfp_printf
 894              	.LVL113:
 895              		.loc 1 168 0
 896 01a4 8548     		ldr	r0, .L82+96
 897 01a6 FFF7FEFF 		bl	tfp_printf
 898              	.LVL114:
 899 01aa 7106     		lsls	r1, r6, #25
 900 01ac C90F     		lsrs	r1, r1, #31
 901 01ae 2800     		movs	r0, r5
 902 01b0 FFF7FEFF 		bl	tfp_printf
 903              	.LVL115:
 904 01b4 2000     		movs	r0, r4
 905 01b6 FFF7FEFF 		bl	tfp_printf
 906              	.LVL116:
 907              		.loc 1 169 0
 908 01ba 8148     		ldr	r0, .L82+100
 909 01bc FFF7FEFF 		bl	tfp_printf
 910              	.LVL117:
 911 01c0 3106     		lsls	r1, r6, #24
 912 01c2 C90F     		lsrs	r1, r1, #31
ARM GAS  /var/folders/t8/16hdwfmd2fg_d3q6dgx6bpmw0000gn/T//ccbZiAyP.s 			page 17


 913 01c4 2800     		movs	r0, r5
 914 01c6 FFF7FEFF 		bl	tfp_printf
 915              	.LVL118:
 916 01ca 2000     		movs	r0, r4
 917 01cc FFF7FEFF 		bl	tfp_printf
 918              	.LVL119:
 919              	.LBE21:
 920              	.LBE20:
 921              		.loc 1 384 0
 922 01d0 0124     		movs	r4, #1
 923 01d2 2BE7     		b	.L74
 924              	.LVL120:
 925              	.L60:
 926              	.LBB22:
 927              	.LBB23:
 928              		.loc 1 117 0
 929 01d4 7B48     		ldr	r0, .L82+104
 930              	.LVL121:
 931 01d6 FFF7FEFF 		bl	tfp_printf
 932              	.LVL122:
 933              	.LBE23:
 934              	.LBE22:
 935              		.loc 1 384 0
 936 01da 0124     		movs	r4, #1
 937 01dc 26E7     		b	.L74
 938              	.LVL123:
 939              	.L61:
 940              		.loc 1 263 0
 941 01de 0125     		movs	r5, #1
 942 01e0 0421     		movs	r1, #4
 943 01e2 604C     		ldr	r4, .L82+8
 944 01e4 2278     		ldrb	r2, [r4]
 945 01e6 5307     		lsls	r3, r2, #29
 946 01e8 DB0F     		lsrs	r3, r3, #31
 947 01ea 6B40     		eors	r3, r5
 948 01ec 9B00     		lsls	r3, r3, #2
 949 01ee 8A43     		bics	r2, r1
 950 01f0 1343     		orrs	r3, r2
 951 01f2 2370     		strb	r3, [r4]
 952              		.loc 1 264 0
 953 01f4 1942     		tst	r1, r3
 954 01f6 00D1     		bne	.LCB819
 955 01f8 A1E0     		b	.L77	@long jump
 956              	.LCB819:
 957              		.loc 1 265 0
 958 01fa 7348     		ldr	r0, .L82+108
 959              	.LVL124:
 960 01fc 5DE0     		b	.L80
 961              	.LVL125:
 962              	.L62:
 963              		.loc 1 272 0
 964 01fe 0125     		movs	r5, #1
 965 0200 0821     		movs	r1, #8
 966 0202 584C     		ldr	r4, .L82+8
 967 0204 2278     		ldrb	r2, [r4]
 968 0206 1307     		lsls	r3, r2, #28
 969 0208 DB0F     		lsrs	r3, r3, #31
ARM GAS  /var/folders/t8/16hdwfmd2fg_d3q6dgx6bpmw0000gn/T//ccbZiAyP.s 			page 18


 970 020a 6B40     		eors	r3, r5
 971 020c DB00     		lsls	r3, r3, #3
 972 020e 8A43     		bics	r2, r1
 973 0210 1343     		orrs	r3, r2
 974 0212 2370     		strb	r3, [r4]
 975              		.loc 1 273 0
 976 0214 1942     		tst	r1, r3
 977 0216 00D1     		bne	.LCB845
 978 0218 8CE0     		b	.L78	@long jump
 979              	.LCB845:
 980              		.loc 1 274 0
 981 021a 6C48     		ldr	r0, .L82+112
 982              	.LVL126:
 983 021c 4DE0     		b	.L80
 984              	.LVL127:
 985              	.L63:
 986              		.loc 1 359 0
 987 021e FFF7FEFF 		bl	clear_keyboard
 988              	.LVL128:
 989              		.loc 1 360 0
 990 0222 0122     		movs	r2, #1
 991 0224 6A4B     		ldr	r3, .L82+116
 992 0226 1C78     		ldrb	r4, [r3]
 993 0228 5440     		eors	r4, r2
 994 022a 1C70     		strb	r4, [r3]
 995              		.loc 1 361 0
 996 022c 7DD0     		beq	.L79
 997              		.loc 1 362 0
 998 022e 6948     		ldr	r0, .L82+120
 999 0230 FFF7FEFF 		bl	tfp_printf
 1000              	.LVL129:
 1001 0234 FAE6     		b	.L74
 1002              	.LVL130:
 1003              	.L64:
 1004              		.loc 1 334 0
 1005 0236 6848     		ldr	r0, .L82+124
 1006              	.LVL131:
 1007 0238 FFF7FEFF 		bl	tfp_printf
 1008              	.LVL132:
 1009              		.loc 1 335 0
 1010 023c FFF7FEFF 		bl	host_keyboard_leds
 1011              	.LVL133:
 1012 0240 0100     		movs	r1, r0
 1013 0242 6648     		ldr	r0, .L82+128
 1014 0244 FFF7FEFF 		bl	tfp_printf
 1015              	.LVL134:
 1016              		.loc 1 336 0
 1017 0248 654B     		ldr	r3, .L82+132
 1018 024a 6648     		ldr	r0, .L82+136
 1019 024c 1978     		ldrb	r1, [r3]
 1020 024e FFF7FEFF 		bl	tfp_printf
 1021              	.LVL135:
 1022              		.loc 1 337 0
 1023 0252 654B     		ldr	r3, .L82+140
 1024 0254 6548     		ldr	r0, .L82+144
 1025 0256 1978     		ldrb	r1, [r3]
 1026 0258 FFF7FEFF 		bl	tfp_printf
ARM GAS  /var/folders/t8/16hdwfmd2fg_d3q6dgx6bpmw0000gn/T//ccbZiAyP.s 			page 19


 1027              	.LVL136:
 1028              		.loc 1 339 0
 1029 025c 5C4B     		ldr	r3, .L82+116
 1030 025e 6448     		ldr	r0, .L82+148
 1031 0260 1978     		ldrb	r1, [r3]
 1032 0262 FFF7FEFF 		bl	tfp_printf
 1033              	.LVL137:
 1034              		.loc 1 341 0
 1035 0266 FFF7FEFF 		bl	timer_read32
 1036              	.LVL138:
 1037 026a 0100     		movs	r1, r0
 1038 026c 6148     		ldr	r0, .L82+152
 1039 026e FFF7FEFF 		bl	tfp_printf
 1040              	.LVL139:
 1041              		.loc 1 384 0
 1042 0272 0124     		movs	r4, #1
 1043              		.loc 1 356 0
 1044 0274 DAE6     		b	.L74
 1045              	.LVL140:
 1046              	.L65:
 1047              		.loc 1 281 0
 1048 0276 6048     		ldr	r0, .L82+156
 1049              	.LVL141:
 1050 0278 FFF7FEFF 		bl	tfp_printf
 1051              	.LVL142:
 1052              		.loc 1 282 0
 1053 027c 5F48     		ldr	r0, .L82+160
 1054 027e FFF7FEFF 		bl	tfp_printf
 1055              	.LVL143:
 1056              		.loc 1 283 0
 1057 0282 5F48     		ldr	r0, .L82+164
 1058 0284 FFF7FEFF 		bl	tfp_printf
 1059              	.LVL144:
 1060              		.loc 1 286 0
 1061 0288 5E48     		ldr	r0, .L82+168
 1062 028a FFF7FEFF 		bl	tfp_printf
 1063              	.LVL145:
 1064              		.loc 1 288 0
 1065 028e 5E48     		ldr	r0, .L82+172
 1066 0290 FFF7FEFF 		bl	tfp_printf
 1067              	.LVL146:
 1068              		.loc 1 324 0
 1069 0294 5D48     		ldr	r0, .L82+176
 1070 0296 FFF7FEFF 		bl	tfp_printf
 1071              	.LVL147:
 1072              		.loc 1 384 0
 1073 029a 0124     		movs	r4, #1
 1074              		.loc 1 332 0
 1075 029c C6E6     		b	.L74
 1076              	.LVL148:
 1077              	.L66:
 1078              		.loc 1 254 0
 1079 029e 0125     		movs	r5, #1
 1080 02a0 0221     		movs	r1, #2
 1081 02a2 304C     		ldr	r4, .L82+8
 1082 02a4 2278     		ldrb	r2, [r4]
 1083 02a6 9307     		lsls	r3, r2, #30
ARM GAS  /var/folders/t8/16hdwfmd2fg_d3q6dgx6bpmw0000gn/T//ccbZiAyP.s 			page 20


 1084 02a8 DB0F     		lsrs	r3, r3, #31
 1085 02aa 6B40     		eors	r3, r5
 1086 02ac 5B00     		lsls	r3, r3, #1
 1087 02ae 8A43     		bics	r2, r1
 1088 02b0 1343     		orrs	r3, r2
 1089 02b2 2370     		strb	r3, [r4]
 1090              		.loc 1 255 0
 1091 02b4 1942     		tst	r1, r3
 1092 02b6 33D0     		beq	.L76
 1093              		.loc 1 256 0
 1094 02b8 5548     		ldr	r0, .L82+180
 1095              	.LVL149:
 1096              	.L80:
 1097              		.loc 1 274 0
 1098 02ba FFF7FEFF 		bl	tfp_printf
 1099              	.LVL150:
 1100              		.loc 1 275 0
 1101 02be 2378     		ldrb	r3, [r4]
 1102 02c0 1D43     		orrs	r5, r3
 1103 02c2 2570     		strb	r5, [r4]
 1104              		.loc 1 384 0
 1105 02c4 0124     		movs	r4, #1
 1106 02c6 B1E6     		b	.L74
 1107              	.LVL151:
 1108              	.L67:
 1109              		.loc 1 193 0
 1110 02c8 5248     		ldr	r0, .L82+184
 1111              	.LVL152:
 1112 02ca FFF7FEFF 		bl	tfp_printf
 1113              	.LVL153:
 1114              		.loc 1 194 0
 1115 02ce 524C     		ldr	r4, .L82+188
 1116 02d0 2378     		ldrb	r3, [r4]
 1117 02d2 002B     		cmp	r3, #0
 1118 02d4 1DD1     		bne	.L81
 1119              		.loc 1 198 0
 1120 02d6 FFF7FEFF 		bl	sleep_led_enable
 1121              	.LVL154:
 1122              	.L73:
 1123              		.loc 1 200 0
 1124 02da 0122     		movs	r2, #1
 1125 02dc 2378     		ldrb	r3, [r4]
 1126 02de 5340     		eors	r3, r2
 1127 02e0 2370     		strb	r3, [r4]
 1128              		.loc 1 384 0
 1129 02e2 0124     		movs	r4, #1
 1130              		.loc 1 201 0
 1131 02e4 A2E6     		b	.L74
 1132              	.LVL155:
 1133              	.L68:
 1134              		.loc 1 375 0
 1135 02e6 1D38     		subs	r0, r0, #29
 1136              	.LVL156:
 1137 02e8 C0B2     		uxtb	r0, r0
 1138 02ea FFF7FEFF 		bl	switch_default_layer
 1139              	.LVL157:
 1140              		.loc 1 384 0
ARM GAS  /var/folders/t8/16hdwfmd2fg_d3q6dgx6bpmw0000gn/T//ccbZiAyP.s 			page 21


 1141 02ee 0124     		movs	r4, #1
 1142              		.loc 1 376 0
 1143 02f0 9CE6     		b	.L74
 1144              	.LVL158:
 1145              	.L69:
 1146              		.loc 1 372 0
 1147 02f2 0020     		movs	r0, #0
 1148              	.LVL159:
 1149 02f4 FFF7FEFF 		bl	switch_default_layer
 1150              	.LVL160:
 1151              		.loc 1 384 0
 1152 02f8 0124     		movs	r4, #1
 1153              		.loc 1 373 0
 1154 02fa 97E6     		b	.L74
 1155              	.LVL161:
 1156              	.L70:
 1157              		.loc 1 378 0
 1158 02fc 3938     		subs	r0, r0, #57
 1159              	.LVL162:
 1160 02fe C0B2     		uxtb	r0, r0
 1161 0300 FFF7FEFF 		bl	switch_default_layer
 1162              	.LVL163:
 1163              		.loc 1 384 0
 1164 0304 0124     		movs	r4, #1
 1165              		.loc 1 379 0
 1166 0306 91E6     		b	.L74
 1167              	.LVL164:
 1168              	.L55:
 1169              		.loc 1 381 0
 1170 0308 4448     		ldr	r0, .L82+192
 1171              	.LVL165:
 1172 030a FFF7FEFF 		bl	tfp_printf
 1173              	.LVL166:
 1174              		.loc 1 382 0
 1175 030e 0024     		movs	r4, #0
 1176 0310 8CE6     		b	.L74
 1177              	.L81:
 1178              		.loc 1 195 0
 1179 0312 FFF7FEFF 		bl	sleep_led_disable
 1180              	.LVL167:
 1181              		.loc 1 196 0
 1182 0316 FFF7FEFF 		bl	host_keyboard_leds
 1183              	.LVL168:
 1184 031a FFF7FEFF 		bl	led_set
 1185              	.LVL169:
 1186 031e DCE7     		b	.L73
 1187              	.LVL170:
 1188              	.L76:
 1189              		.loc 1 259 0
 1190 0320 3F48     		ldr	r0, .L82+196
 1191              	.LVL171:
 1192 0322 FFF7FEFF 		bl	tfp_printf
 1193              	.LVL172:
 1194              		.loc 1 384 0
 1195 0326 0124     		movs	r4, #1
 1196 0328 80E6     		b	.L74
 1197              	.L79:
ARM GAS  /var/folders/t8/16hdwfmd2fg_d3q6dgx6bpmw0000gn/T//ccbZiAyP.s 			page 22


 1198              		.loc 1 364 0
 1199 032a 3E48     		ldr	r0, .L82+200
 1200 032c FFF7FEFF 		bl	tfp_printf
 1201              	.LVL173:
 1202              		.loc 1 384 0
 1203 0330 0124     		movs	r4, #1
 1204 0332 7BE6     		b	.L74
 1205              	.LVL174:
 1206              	.L78:
 1207              		.loc 1 277 0
 1208 0334 3C48     		ldr	r0, .L82+204
 1209              	.LVL175:
 1210 0336 FFF7FEFF 		bl	tfp_printf
 1211              	.LVL176:
 1212              		.loc 1 384 0
 1213 033a 0124     		movs	r4, #1
 1214 033c 76E6     		b	.L74
 1215              	.LVL177:
 1216              	.L77:
 1217              		.loc 1 268 0
 1218 033e 3B48     		ldr	r0, .L82+208
 1219              	.LVL178:
 1220 0340 FFF7FEFF 		bl	tfp_printf
 1221              	.LVL179:
 1222              		.loc 1 384 0
 1223 0344 0124     		movs	r4, #1
 1224 0346 71E6     		b	.L74
 1225              	.LVL180:
 1226              	.L75:
 1227              		.loc 1 249 0
 1228 0348 3948     		ldr	r0, .L82+212
 1229              	.LVL181:
 1230 034a FFF7FEFF 		bl	tfp_printf
 1231              	.LVL182:
 1232              		.loc 1 250 0
 1233 034e 0122     		movs	r2, #1
 1234 0350 2378     		ldrb	r3, [r4]
 1235 0352 1343     		orrs	r3, r2
 1236 0354 2370     		strb	r3, [r4]
 1237              		.loc 1 384 0
 1238 0356 0124     		movs	r4, #1
 1239 0358 68E6     		b	.L74
 1240              	.L83:
 1241 035a C046     		.align	2
 1242              	.L82:
 1243 035c 00000000 		.word	.L57
 1244 0360 18020000 		.word	.LC88
 1245 0364 00000000 		.word	debug_config
 1246 0368 EC010000 		.word	.LC83
 1247 036c 14020000 		.word	.LC85
 1248 0370 00000000 		.word	.LANCHOR1
 1249 0374 2C020000 		.word	.LC90
 1250 0378 10000000 		.word	.LC42
 1251 037c 1C000000 		.word	.LC44
 1252 0380 2C000000 		.word	.LC46
 1253 0384 30000000 		.word	.LC48
 1254 0388 34000000 		.word	.LC50
ARM GAS  /var/folders/t8/16hdwfmd2fg_d3q6dgx6bpmw0000gn/T//ccbZiAyP.s 			page 23


 1255 038c 48000000 		.word	.LC52
 1256 0390 50000000 		.word	.LC54
 1257 0394 5C000000 		.word	.LC56
 1258 0398 68000000 		.word	.LC58
 1259 039c 74000000 		.word	.LC60
 1260 03a0 80000000 		.word	.LC62
 1261 03a4 94000000 		.word	.LC64
 1262 03a8 B0000000 		.word	.LC66
 1263 03ac C8000000 		.word	.LC68
 1264 03b0 DC000000 		.word	.LC70
 1265 03b4 F0000000 		.word	.LC72
 1266 03b8 FC000000 		.word	.LC74
 1267 03bc 10010000 		.word	.LC76
 1268 03c0 2C010000 		.word	.LC78
 1269 03c4 34010000 		.word	.LC80
 1270 03c8 68020000 		.word	.LC98
 1271 03cc 88020000 		.word	.LC102
 1272 03d0 00000000 		.word	keyboard_nkro
 1273 03d4 1C040000 		.word	.LC133
 1274 03d8 98030000 		.word	.LC118
 1275 03dc A8030000 		.word	.LC120
 1276 03e0 00000000 		.word	keyboard_protocol
 1277 03e4 C4030000 		.word	.LC123
 1278 03e8 00000000 		.word	keyboard_idle
 1279 03ec DC030000 		.word	.LC126
 1280 03f0 F0030000 		.word	.LC129
 1281 03f4 04040000 		.word	.LC131
 1282 03f8 A4020000 		.word	.LC106
 1283 03fc B4020000 		.word	.LC108
 1284 0400 D0020000 		.word	.LC110
 1285 0404 08030000 		.word	.LC112
 1286 0408 38030000 		.word	.LC114
 1287 040c 8C030000 		.word	.LC116
 1288 0410 48020000 		.word	.LC94
 1289 0414 00000000 		.word	.LC39
 1290 0418 00000000 		.word	.LANCHOR0
 1291 041c 34040000 		.word	.LC137
 1292 0420 58020000 		.word	.LC96
 1293 0424 28040000 		.word	.LC135
 1294 0428 94020000 		.word	.LC104
 1295 042c 78020000 		.word	.LC100
 1296 0430 3C020000 		.word	.LC92
 1297              		.cfi_endproc
 1298              	.LFE182:
 1299              		.size	command_common, .-command_common
 1300              		.section	.text.command_extra,"ax",%progbits
 1301              		.align	1
 1302              		.p2align 4,,15
 1303              		.weak	command_extra
 1304              		.syntax unified
 1305              		.code	16
 1306              		.thumb_func
 1307              		.fpu softvfp
 1308              		.type	command_extra, %function
 1309              	command_extra:
 1310              	.LFB178:
 1311              		.loc 1 99 0
ARM GAS  /var/folders/t8/16hdwfmd2fg_d3q6dgx6bpmw0000gn/T//ccbZiAyP.s 			page 24


 1312              		.cfi_startproc
 1313              		@ args = 0, pretend = 0, frame = 0
 1314              		@ frame_needed = 0, uses_anonymous_args = 0
 1315              		@ link register save eliminated.
 1316              	.LVL183:
 1317              		.loc 1 102 0
 1318 0000 0020     		movs	r0, #0
 1319              	.LVL184:
 1320              		@ sp needed
 1321 0002 7047     		bx	lr
 1322              		.cfi_endproc
 1323              	.LFE178:
 1324              		.size	command_extra, .-command_extra
 1325              		.section	.text.command_console_extra,"ax",%progbits
 1326              		.align	1
 1327              		.p2align 4,,15
 1328              		.weak	command_console_extra
 1329              		.syntax unified
 1330              		.code	16
 1331              		.thumb_func
 1332              		.fpu softvfp
 1333              		.type	command_console_extra, %function
 1334              	command_console_extra:
 1335              	.LFB193:
 1336              		.cfi_startproc
 1337              		@ args = 0, pretend = 0, frame = 0
 1338              		@ frame_needed = 0, uses_anonymous_args = 0
 1339              		@ link register save eliminated.
 1340 0000 0020     		movs	r0, #0
 1341              		@ sp needed
 1342 0002 7047     		bx	lr
 1343              		.cfi_endproc
 1344              	.LFE193:
 1345              		.size	command_console_extra, .-command_console_extra
 1346              		.section	.text.command_proc,"ax",%progbits
 1347              		.align	1
 1348              		.p2align 4,,15
 1349              		.global	command_proc
 1350              		.syntax unified
 1351              		.code	16
 1352              		.thumb_func
 1353              		.fpu softvfp
 1354              		.type	command_proc, %function
 1355              	command_proc:
 1356              	.LFB177:
 1357              		.loc 1 70 0
 1358              		.cfi_startproc
 1359              		@ args = 0, pretend = 0, frame = 0
 1360              		@ frame_needed = 0, uses_anonymous_args = 0
 1361              	.LVL185:
 1362              		.loc 1 70 0
 1363 0000 70B5     		push	{r4, r5, r6, lr}
 1364              		.cfi_def_cfa_offset 16
 1365              		.cfi_offset 4, -16
 1366              		.cfi_offset 5, -12
 1367              		.cfi_offset 6, -8
 1368              		.cfi_offset 14, -4
ARM GAS  /var/folders/t8/16hdwfmd2fg_d3q6dgx6bpmw0000gn/T//ccbZiAyP.s 			page 25


 1369              		.loc 1 71 0
 1370 0002 7E4D     		ldr	r5, .L123
 1371              		.loc 1 70 0
 1372 0004 0600     		movs	r6, r0
 1373              		.loc 1 71 0
 1374 0006 2B78     		ldrb	r3, [r5]
 1375 0008 012B     		cmp	r3, #1
 1376 000a 20D0     		beq	.L88
 1377 000c 002B     		cmp	r3, #0
 1378 000e 0FD0     		beq	.L89
 1379 0010 022B     		cmp	r3, #2
 1380 0012 08D1     		bne	.L121
 1381              	.LVL186:
 1382              	.LBB33:
 1383              	.LBB34:
 1384              		.loc 1 568 0
 1385 0014 C31F     		subs	r3, r0, #7
 1386 0016 DBB2     		uxtb	r3, r3
 1387 0018 4B2B     		cmp	r3, #75
 1388 001a 00D9     		bls	.LCB1206
 1389 001c DEE0     		b	.L101	@long jump
 1390              	.LCB1206:
 1391 001e 784A     		ldr	r2, .L123+4
 1392 0020 9B00     		lsls	r3, r3, #2
 1393 0022 D358     		ldr	r3, [r2, r3]
 1394 0024 9F46     		mov	pc, r3
 1395              		.section	.rodata.command_proc,"a",%progbits
 1396              		.align	2
 1397              	.L103:
 1398 0000 98000000 		.word	.L102
 1399 0004 DC010000 		.word	.L101
 1400 0008 DC010000 		.word	.L101
 1401 000c DC010000 		.word	.L101
 1402 0010 AA010000 		.word	.L104
 1403 0014 DC010000 		.word	.L101
 1404 0018 DC010000 		.word	.L101
 1405 001c DC010000 		.word	.L101
 1406 0020 DC010000 		.word	.L101
 1407 0024 DC010000 		.word	.L101
 1408 0028 DC010000 		.word	.L101
 1409 002c DC010000 		.word	.L101
 1410 0030 00010000 		.word	.L105
 1411 0034 94010000 		.word	.L106
 1412 0038 DC010000 		.word	.L101
 1413 003c DC010000 		.word	.L101
 1414 0040 DC010000 		.word	.L101
 1415 0044 DC010000 		.word	.L101
 1416 0048 DC010000 		.word	.L101
 1417 004c DC010000 		.word	.L101
 1418 0050 DC010000 		.word	.L101
 1419 0054 DC010000 		.word	.L101
 1420 0058 DC010000 		.word	.L101
 1421 005c C8000000 		.word	.L107
 1422 0060 C8000000 		.word	.L107
 1423 0064 C8000000 		.word	.L107
 1424 0068 C8000000 		.word	.L107
 1425 006c C8000000 		.word	.L107
ARM GAS  /var/folders/t8/16hdwfmd2fg_d3q6dgx6bpmw0000gn/T//ccbZiAyP.s 			page 26


 1426 0070 C8000000 		.word	.L107
 1427 0074 DC010000 		.word	.L101
 1428 0078 DC010000 		.word	.L101
 1429 007c DC010000 		.word	.L101
 1430 0080 DC010000 		.word	.L101
 1431 0084 DC010000 		.word	.L101
 1432 0088 94010000 		.word	.L106
 1433 008c DC010000 		.word	.L101
 1434 0090 DC010000 		.word	.L101
 1435 0094 DC010000 		.word	.L101
 1436 0098 DC010000 		.word	.L101
 1437 009c DC010000 		.word	.L101
 1438 00a0 DC010000 		.word	.L101
 1439 00a4 DC010000 		.word	.L101
 1440 00a8 DC010000 		.word	.L101
 1441 00ac DC010000 		.word	.L101
 1442 00b0 DC010000 		.word	.L101
 1443 00b4 DC010000 		.word	.L101
 1444 00b8 DC010000 		.word	.L101
 1445 00bc DC010000 		.word	.L101
 1446 00c0 DC010000 		.word	.L101
 1447 00c4 AA010000 		.word	.L104
 1448 00c8 DC010000 		.word	.L101
 1449 00cc DC010000 		.word	.L101
 1450 00d0 DC010000 		.word	.L101
 1451 00d4 DC010000 		.word	.L101
 1452 00d8 DC010000 		.word	.L101
 1453 00dc DC010000 		.word	.L101
 1454 00e0 DC010000 		.word	.L101
 1455 00e4 DC010000 		.word	.L101
 1456 00e8 DC010000 		.word	.L101
 1457 00ec DC010000 		.word	.L101
 1458 00f0 DC010000 		.word	.L101
 1459 00f4 DC010000 		.word	.L101
 1460 00f8 DC010000 		.word	.L101
 1461 00fc DC010000 		.word	.L101
 1462 0100 DC010000 		.word	.L101
 1463 0104 DC010000 		.word	.L101
 1464 0108 DC010000 		.word	.L101
 1465 010c DC010000 		.word	.L101
 1466 0110 D6000000 		.word	.L108
 1467 0114 DC010000 		.word	.L101
 1468 0118 DC010000 		.word	.L101
 1469 011c E4000000 		.word	.L109
 1470 0120 DC010000 		.word	.L101
 1471 0124 DC010000 		.word	.L101
 1472 0128 F2000000 		.word	.L110
 1473 012c 7C000000 		.word	.L111
 1474              		.section	.text.command_proc
 1475              	.LVL187:
 1476              	.L121:
 1477              	.LBE34:
 1478              	.LBE33:
 1479              		.loc 1 89 0
 1480 0026 0023     		movs	r3, #0
 1481              		.loc 1 90 0
 1482 0028 0024     		movs	r4, #0
ARM GAS  /var/folders/t8/16hdwfmd2fg_d3q6dgx6bpmw0000gn/T//ccbZiAyP.s 			page 27


 1483              		.loc 1 89 0
 1484 002a 2B70     		strb	r3, [r5]
 1485              	.LVL188:
 1486              	.L91:
 1487              		.loc 1 93 0
 1488 002c 2000     		movs	r0, r4
 1489              		@ sp needed
 1490 002e 70BD     		pop	{r4, r5, r6, pc}
 1491              	.LVL189:
 1492              	.L89:
 1493              		.loc 1 73 0
 1494 0030 744B     		ldr	r3, .L123+8
 1495              		.loc 1 74 0
 1496 0032 0024     		movs	r4, #0
 1497              		.loc 1 73 0
 1498 0034 1B68     		ldr	r3, [r3]
 1499 0036 1B78     		ldrb	r3, [r3]
 1500 0038 222B     		cmp	r3, #34
 1501 003a F7D1     		bne	.L91
 1502              		.loc 1 75 0
 1503 003c FFF7FEFF 		bl	command_extra
 1504              	.LVL190:
 1505 0040 041E     		subs	r4, r0, #0
 1506 0042 F3D1     		bne	.L91
 1507              	.L120:
 1508              		.loc 1 79 0 discriminator 2
 1509 0044 3000     		movs	r0, r6
 1510 0046 FFF7FEFF 		bl	command_common
 1511              	.LVL191:
 1512 004a 0400     		movs	r4, r0
 1513 004c EEE7     		b	.L91
 1514              	.LVL192:
 1515              	.L88:
 1516              		.loc 1 78 0
 1517 004e 6D4B     		ldr	r3, .L123+8
 1518 0050 1B68     		ldr	r3, [r3]
 1519 0052 1B78     		ldrb	r3, [r3]
 1520 0054 222B     		cmp	r3, #34
 1521 0056 0CD0     		beq	.L122
 1522              		.loc 1 81 0
 1523 0058 FFF7FEFF 		bl	command_console_extra
 1524              	.LVL193:
 1525 005c 041E     		subs	r4, r0, #0
 1526 005e E5D1     		bne	.L91
 1527              	.LVL194:
 1528              	.LBB43:
 1529              	.LBB44:
 1530              		.loc 1 403 0
 1531 0060 0B3E     		subs	r6, r6, #11
 1532              	.LVL195:
 1533 0062 F6B2     		uxtb	r6, r6
 1534 0064 2D2E     		cmp	r6, #45
 1535 0066 00D9     		bls	.LCB1279
 1536 0068 BDE0     		b	.L96	@long jump
 1537              	.LCB1279:
 1538 006a 674B     		ldr	r3, .L123+12
 1539 006c B600     		lsls	r6, r6, #2
ARM GAS  /var/folders/t8/16hdwfmd2fg_d3q6dgx6bpmw0000gn/T//ccbZiAyP.s 			page 28


 1540 006e 9B59     		ldr	r3, [r3, r6]
 1541 0070 9F46     		mov	pc, r3
 1542              		.section	.rodata.command_proc
 1543              		.align	2
 1544              	.L98:
 1545 0130 CC010000 		.word	.L97
 1546 0134 E6010000 		.word	.L96
 1547 0138 E6010000 		.word	.L96
 1548 013c E6010000 		.word	.L96
 1549 0140 E6010000 		.word	.L96
 1550 0144 BA010000 		.word	.L99
 1551 0148 E6010000 		.word	.L96
 1552 014c E6010000 		.word	.L96
 1553 0150 E6010000 		.word	.L96
 1554 0154 B4010000 		.word	.L100
 1555 0158 E6010000 		.word	.L96
 1556 015c E6010000 		.word	.L96
 1557 0160 E6010000 		.word	.L96
 1558 0164 E6010000 		.word	.L96
 1559 0168 E6010000 		.word	.L96
 1560 016c E6010000 		.word	.L96
 1561 0170 E6010000 		.word	.L96
 1562 0174 E6010000 		.word	.L96
 1563 0178 E6010000 		.word	.L96
 1564 017c E6010000 		.word	.L96
 1565 0180 E6010000 		.word	.L96
 1566 0184 E6010000 		.word	.L96
 1567 0188 E6010000 		.word	.L96
 1568 018c E6010000 		.word	.L96
 1569 0190 E6010000 		.word	.L96
 1570 0194 E6010000 		.word	.L96
 1571 0198 E6010000 		.word	.L96
 1572 019c E6010000 		.word	.L96
 1573 01a0 E6010000 		.word	.L96
 1574 01a4 E6010000 		.word	.L96
 1575 01a8 B4010000 		.word	.L100
 1576 01ac E6010000 		.word	.L96
 1577 01b0 E6010000 		.word	.L96
 1578 01b4 E6010000 		.word	.L96
 1579 01b8 E6010000 		.word	.L96
 1580 01bc E6010000 		.word	.L96
 1581 01c0 E6010000 		.word	.L96
 1582 01c4 E6010000 		.word	.L96
 1583 01c8 E6010000 		.word	.L96
 1584 01cc E6010000 		.word	.L96
 1585 01d0 E6010000 		.word	.L96
 1586 01d4 E6010000 		.word	.L96
 1587 01d8 E6010000 		.word	.L96
 1588 01dc E6010000 		.word	.L96
 1589 01e0 E6010000 		.word	.L96
 1590 01e4 CC010000 		.word	.L97
 1591              		.section	.text.command_proc
 1592              	.LVL196:
 1593              	.L122:
 1594              	.LBE44:
 1595              	.LBE43:
 1596              		.loc 1 79 0
ARM GAS  /var/folders/t8/16hdwfmd2fg_d3q6dgx6bpmw0000gn/T//ccbZiAyP.s 			page 29


 1597 0072 FFF7FEFF 		bl	command_extra
 1598              	.LVL197:
 1599 0076 041E     		subs	r4, r0, #0
 1600 0078 D8D1     		bne	.L91
 1601 007a E3E7     		b	.L120
 1602              	.LVL198:
 1603              	.L111:
 1604              	.LBB49:
 1605              	.LBB37:
 1606              		.loc 1 595 0
 1607 007c 634C     		ldr	r4, .L123+16
 1608 007e 0121     		movs	r1, #1
 1609 0080 2078     		ldrb	r0, [r4]
 1610              	.LVL199:
 1611 0082 FFF7FEFF 		bl	mousekey_param_inc
 1612              	.LVL200:
 1613 0086 2178     		ldrb	r1, [r4]
 1614              	.L112:
 1615              		.loc 1 619 0
 1616 0088 0029     		cmp	r1, #0
 1617 008a 00D1     		bne	.LCB1320
 1618 008c 88E0     		b	.L114	@long jump
 1619              	.LCB1320:
 1620              		.loc 1 620 0
 1621 008e 6048     		ldr	r0, .L123+20
 1622 0090 FFF7FEFF 		bl	tfp_printf
 1623              	.LVL201:
 1624              	.LBE37:
 1625              	.LBE49:
 1626              		.loc 1 92 0
 1627 0094 0124     		movs	r4, #1
 1628 0096 C9E7     		b	.L91
 1629              	.LVL202:
 1630              	.L102:
 1631              	.LBB50:
 1632              	.LBB38:
 1633              		.loc 1 607 0
 1634 0098 1E22     		movs	r2, #30
 1635 009a 5E4B     		ldr	r3, .L123+24
 1636              		.loc 1 613 0
 1637 009c 5E48     		ldr	r0, .L123+28
 1638              	.LVL203:
 1639              		.loc 1 607 0
 1640 009e 1A70     		strb	r2, [r3]
 1641              		.loc 1 608 0
 1642 00a0 5E4B     		ldr	r3, .L123+32
 1643 00a2 1432     		adds	r2, r2, #20
 1644 00a4 1A70     		strb	r2, [r3]
 1645              		.loc 1 609 0
 1646 00a6 5E4B     		ldr	r3, .L123+36
 1647 00a8 283A     		subs	r2, r2, #40
 1648 00aa 1A70     		strb	r2, [r3]
 1649              		.loc 1 610 0
 1650 00ac 5D4B     		ldr	r3, .L123+40
 1651 00ae 0A32     		adds	r2, r2, #10
 1652 00b0 1A70     		strb	r2, [r3]
 1653              		.loc 1 611 0
ARM GAS  /var/folders/t8/16hdwfmd2fg_d3q6dgx6bpmw0000gn/T//ccbZiAyP.s 			page 30


 1654 00b2 5D4B     		ldr	r3, .L123+44
 1655 00b4 0C3A     		subs	r2, r2, #12
 1656 00b6 1A70     		strb	r2, [r3]
 1657              		.loc 1 612 0
 1658 00b8 5C4B     		ldr	r3, .L123+48
 1659 00ba 2032     		adds	r2, r2, #32
 1660 00bc 1A70     		strb	r2, [r3]
 1661              		.loc 1 613 0
 1662 00be FFF7FEFF 		bl	tfp_printf
 1663              	.LVL204:
 1664 00c2 524B     		ldr	r3, .L123+16
 1665 00c4 1978     		ldrb	r1, [r3]
 1666 00c6 DFE7     		b	.L112
 1667              	.LVL205:
 1668              	.L107:
 1669 00c8 594B     		ldr	r3, .L123+52
 1670 00ca 1E3E     		subs	r6, r6, #30
 1671              	.LVL206:
 1672 00cc F6B2     		uxtb	r6, r6
 1673 00ce 995D     		ldrb	r1, [r3, r6]
 1674              		.loc 1 592 0
 1675 00d0 4E4B     		ldr	r3, .L123+16
 1676 00d2 1970     		strb	r1, [r3]
 1677 00d4 D8E7     		b	.L112
 1678              	.L108:
 1679              		.loc 1 601 0
 1680 00d6 4D4C     		ldr	r4, .L123+16
 1681 00d8 0A21     		movs	r1, #10
 1682 00da 2078     		ldrb	r0, [r4]
 1683              	.LVL207:
 1684 00dc FFF7FEFF 		bl	mousekey_param_inc
 1685              	.LVL208:
 1686 00e0 2178     		ldrb	r1, [r4]
 1687 00e2 D1E7     		b	.L112
 1688              	.LVL209:
 1689              	.L109:
 1690              		.loc 1 604 0
 1691 00e4 494C     		ldr	r4, .L123+16
 1692 00e6 0A21     		movs	r1, #10
 1693 00e8 2078     		ldrb	r0, [r4]
 1694              	.LVL210:
 1695 00ea FFF7FEFF 		bl	mousekey_param_dec
 1696              	.LVL211:
 1697 00ee 2178     		ldrb	r1, [r4]
 1698 00f0 CAE7     		b	.L112
 1699              	.LVL212:
 1700              	.L110:
 1701              		.loc 1 598 0
 1702 00f2 464C     		ldr	r4, .L123+16
 1703 00f4 0121     		movs	r1, #1
 1704 00f6 2078     		ldrb	r0, [r4]
 1705              	.LVL213:
 1706 00f8 FFF7FEFF 		bl	mousekey_param_dec
 1707              	.LVL214:
 1708 00fc 2178     		ldrb	r1, [r4]
 1709 00fe C3E7     		b	.L112
 1710              	.LVL215:
ARM GAS  /var/folders/t8/16hdwfmd2fg_d3q6dgx6bpmw0000gn/T//ccbZiAyP.s 			page 31


 1711              	.L105:
 1712              	.LBB35:
 1713              	.LBB36:
 1714              		.loc 1 436 0
 1715 0100 4C48     		ldr	r0, .L123+56
 1716              	.LVL216:
 1717 0102 FFF7FEFF 		bl	tfp_printf
 1718              	.LVL217:
 1719              		.loc 1 437 0
 1720 0106 4C48     		ldr	r0, .L123+60
 1721 0108 FFF7FEFF 		bl	tfp_printf
 1722              	.LVL218:
 1723 010c 4B4D     		ldr	r5, .L123+64
 1724 010e 414B     		ldr	r3, .L123+24
 1725 0110 2800     		movs	r0, r5
 1726 0112 1978     		ldrb	r1, [r3]
 1727 0114 FFF7FEFF 		bl	tfp_printf
 1728              	.LVL219:
 1729 0118 494C     		ldr	r4, .L123+68
 1730 011a 2000     		movs	r0, r4
 1731 011c FFF7FEFF 		bl	tfp_printf
 1732              	.LVL220:
 1733              		.loc 1 438 0
 1734 0120 4848     		ldr	r0, .L123+72
 1735 0122 FFF7FEFF 		bl	tfp_printf
 1736              	.LVL221:
 1737 0126 3D4B     		ldr	r3, .L123+32
 1738 0128 2800     		movs	r0, r5
 1739 012a 1978     		ldrb	r1, [r3]
 1740 012c FFF7FEFF 		bl	tfp_printf
 1741              	.LVL222:
 1742 0130 2000     		movs	r0, r4
 1743 0132 FFF7FEFF 		bl	tfp_printf
 1744              	.LVL223:
 1745              		.loc 1 439 0
 1746 0136 4448     		ldr	r0, .L123+76
 1747 0138 FFF7FEFF 		bl	tfp_printf
 1748              	.LVL224:
 1749 013c 384B     		ldr	r3, .L123+36
 1750 013e 2800     		movs	r0, r5
 1751 0140 1978     		ldrb	r1, [r3]
 1752 0142 FFF7FEFF 		bl	tfp_printf
 1753              	.LVL225:
 1754 0146 2000     		movs	r0, r4
 1755 0148 FFF7FEFF 		bl	tfp_printf
 1756              	.LVL226:
 1757              		.loc 1 440 0
 1758 014c 3F48     		ldr	r0, .L123+80
 1759 014e FFF7FEFF 		bl	tfp_printf
 1760              	.LVL227:
 1761 0152 344B     		ldr	r3, .L123+40
 1762 0154 2800     		movs	r0, r5
 1763 0156 1978     		ldrb	r1, [r3]
 1764 0158 FFF7FEFF 		bl	tfp_printf
 1765              	.LVL228:
 1766 015c 2000     		movs	r0, r4
 1767 015e FFF7FEFF 		bl	tfp_printf
ARM GAS  /var/folders/t8/16hdwfmd2fg_d3q6dgx6bpmw0000gn/T//ccbZiAyP.s 			page 32


 1768              	.LVL229:
 1769              		.loc 1 441 0
 1770 0162 3B48     		ldr	r0, .L123+84
 1771 0164 FFF7FEFF 		bl	tfp_printf
 1772              	.LVL230:
 1773 0168 2F4B     		ldr	r3, .L123+44
 1774 016a 2800     		movs	r0, r5
 1775 016c 1978     		ldrb	r1, [r3]
 1776 016e FFF7FEFF 		bl	tfp_printf
 1777              	.LVL231:
 1778 0172 2000     		movs	r0, r4
 1779 0174 FFF7FEFF 		bl	tfp_printf
 1780              	.LVL232:
 1781              		.loc 1 442 0
 1782 0178 3648     		ldr	r0, .L123+88
 1783 017a FFF7FEFF 		bl	tfp_printf
 1784              	.LVL233:
 1785 017e 2B4B     		ldr	r3, .L123+48
 1786 0180 2800     		movs	r0, r5
 1787 0182 1978     		ldrb	r1, [r3]
 1788 0184 FFF7FEFF 		bl	tfp_printf
 1789              	.LVL234:
 1790 0188 2000     		movs	r0, r4
 1791 018a FFF7FEFF 		bl	tfp_printf
 1792              	.LVL235:
 1793 018e 1F4B     		ldr	r3, .L123+16
 1794 0190 1978     		ldrb	r1, [r3]
 1795 0192 79E7     		b	.L112
 1796              	.LVL236:
 1797              	.L106:
 1798              	.LBE36:
 1799              	.LBE35:
 1800              		.loc 1 575 0
 1801 0194 1D4B     		ldr	r3, .L123+16
 1802 0196 1A78     		ldrb	r2, [r3]
 1803 0198 002A     		cmp	r2, #0
 1804 019a 28D0     		beq	.L113
 1805              		.loc 1 576 0
 1806 019c 0022     		movs	r2, #0
 1807 019e 1A70     		strb	r2, [r3]
 1808              	.LVL237:
 1809              	.L114:
 1810              		.loc 1 622 0
 1811 01a0 2D48     		ldr	r0, .L123+92
 1812 01a2 FFF7FEFF 		bl	tfp_printf
 1813              	.LVL238:
 1814              	.LBE38:
 1815              	.LBE50:
 1816              		.loc 1 92 0
 1817 01a6 0124     		movs	r4, #1
 1818 01a8 40E7     		b	.L91
 1819              	.LVL239:
 1820              	.L104:
 1821              	.LBB51:
 1822              	.LBB39:
 1823              		.loc 1 571 0
 1824 01aa FFF7FEFF 		bl	mousekey_console_help
ARM GAS  /var/folders/t8/16hdwfmd2fg_d3q6dgx6bpmw0000gn/T//ccbZiAyP.s 			page 33


 1825              	.LVL240:
 1826 01ae 174B     		ldr	r3, .L123+16
 1827 01b0 1978     		ldrb	r1, [r3]
 1828 01b2 69E7     		b	.L112
 1829              	.LVL241:
 1830              	.L100:
 1831              	.LBE39:
 1832              	.LBE51:
 1833              	.LBB52:
 1834              	.LBB47:
 1835              		.loc 1 410 0
 1836 01b4 0023     		movs	r3, #0
 1837 01b6 2B70     		strb	r3, [r5]
 1838 01b8 38E7     		b	.L91
 1839              	.L99:
 1840              		.loc 1 414 0
 1841 01ba FFF7FEFF 		bl	mousekey_console_help
 1842              	.LVL242:
 1843              		.loc 1 415 0
 1844 01be 2748     		ldr	r0, .L123+96
 1845 01c0 FFF7FEFF 		bl	tfp_printf
 1846              	.LVL243:
 1847              		.loc 1 416 0
 1848 01c4 0223     		movs	r3, #2
 1849 01c6 0124     		movs	r4, #1
 1850 01c8 2B70     		strb	r3, [r5]
 1851 01ca 2FE7     		b	.L91
 1852              	.L97:
 1853              	.LBB45:
 1854              	.LBB46:
 1855              		.loc 1 393 0
 1856 01cc 2448     		ldr	r0, .L123+100
 1857 01ce FFF7FEFF 		bl	tfp_printf
 1858              	.LVL244:
 1859              	.LBE46:
 1860              	.LBE45:
 1861              		.loc 1 423 0
 1862 01d2 2448     		ldr	r0, .L123+104
 1863 01d4 FFF7FEFF 		bl	tfp_printf
 1864              	.LVL245:
 1865 01d8 0124     		movs	r4, #1
 1866 01da 27E7     		b	.L91
 1867              	.LVL246:
 1868              	.L101:
 1869              	.LBE47:
 1870              	.LBE52:
 1871              	.LBB53:
 1872              	.LBB40:
 1873              		.loc 1 616 0
 1874 01dc 2248     		ldr	r0, .L123+108
 1875              	.LVL247:
 1876 01de FFF7FEFF 		bl	tfp_printf
 1877              	.LVL248:
 1878              	.LBE40:
 1879              	.LBE53:
 1880              		.loc 1 92 0
 1881 01e2 0124     		movs	r4, #1
ARM GAS  /var/folders/t8/16hdwfmd2fg_d3q6dgx6bpmw0000gn/T//ccbZiAyP.s 			page 34


 1882 01e4 22E7     		b	.L91
 1883              	.LVL249:
 1884              	.L96:
 1885              	.LBB54:
 1886              	.LBB48:
 1887              		.loc 1 420 0
 1888 01e6 2048     		ldr	r0, .L123+108
 1889 01e8 FFF7FEFF 		bl	tfp_printf
 1890              	.LVL250:
 1891              	.LBE48:
 1892              	.LBE54:
 1893              		.loc 1 81 0
 1894 01ec 1EE7     		b	.L91
 1895              	.LVL251:
 1896              	.L113:
 1897              	.LBB55:
 1898              	.LBB41:
 1899              		.loc 1 578 0
 1900 01ee 1D48     		ldr	r0, .L123+104
 1901              	.LVL252:
 1902 01f0 FFF7FEFF 		bl	tfp_printf
 1903              	.LVL253:
 1904              		.loc 1 579 0
 1905 01f4 0123     		movs	r3, #1
 1906              	.LBE41:
 1907              	.LBE55:
 1908              		.loc 1 92 0
 1909 01f6 0124     		movs	r4, #1
 1910              	.LBB56:
 1911              	.LBB42:
 1912              		.loc 1 579 0
 1913 01f8 2B70     		strb	r3, [r5]
 1914 01fa 17E7     		b	.L91
 1915              	.L124:
 1916              		.align	2
 1917              	.L123:
 1918 01fc 00000000 		.word	.LANCHOR1
 1919 0200 00000000 		.word	.L103
 1920 0204 00000000 		.word	keyboard_report
 1921 0208 30010000 		.word	.L98
 1922 020c 00000000 		.word	.LANCHOR2
 1923 0210 A0000000 		.word	.LC174
 1924 0214 00000000 		.word	mk_delay
 1925 0218 90000000 		.word	.LC172
 1926 021c 00000000 		.word	mk_interval
 1927 0220 00000000 		.word	mk_max_speed
 1928 0224 00000000 		.word	mk_time_to_max
 1929 0228 00000000 		.word	mk_wheel_max_speed
 1930 022c 00000000 		.word	mk_wheel_time_to_max
 1931 0230 00000000 		.word	.LANCHOR3
 1932 0234 04000000 		.word	.LC149
 1933 0238 14000000 		.word	.LC151
 1934 023c 2C000000 		.word	.LC46
 1935 0240 30000000 		.word	.LC48
 1936 0244 28000000 		.word	.LC156
 1937 0248 3C000000 		.word	.LC159
 1938 024c 4C000000 		.word	.LC162
ARM GAS  /var/folders/t8/16hdwfmd2fg_d3q6dgx6bpmw0000gn/T//ccbZiAyP.s 			page 35


 1939 0250 60000000 		.word	.LC165
 1940 0254 78000000 		.word	.LC168
 1941 0258 A8000000 		.word	.LC176
 1942 025c 00000000 		.word	.LC144
 1943 0260 EC010000 		.word	.LC83
 1944 0264 14020000 		.word	.LC85
 1945 0268 34040000 		.word	.LC137
 1946              	.LBE42:
 1947              	.LBE56:
 1948              		.cfi_endproc
 1949              	.LFE177:
 1950              		.size	command_proc, .-command_proc
 1951              		.global	command_state
 1952              		.section	.bss.command_state,"aw",%nobits
 1953              		.set	.LANCHOR1,. + 0
 1954              		.type	command_state, %object
 1955              		.size	command_state, 1
 1956              	command_state:
 1957 0000 00       		.space	1
 1958              		.section	.bss.mousekey_param,"aw",%nobits
 1959              		.set	.LANCHOR2,. + 0
 1960              		.type	mousekey_param, %object
 1961              		.size	mousekey_param, 1
 1962              	mousekey_param:
 1963 0000 00       		.space	1
 1964              		.section	.bss.sleep_led_test.7277,"aw",%nobits
 1965              		.set	.LANCHOR0,. + 0
 1966              		.type	sleep_led_test.7277, %object
 1967              		.size	sleep_led_test.7277, 1
 1968              	sleep_led_test.7277:
 1969 0000 00       		.space	1
 1970              		.section	.rodata.CSWTCH.63,"a",%progbits
 1971              		.align	2
 1972              		.set	.LANCHOR3,. + 0
 1973              		.type	CSWTCH.63, %object
 1974              		.size	CSWTCH.63, 10
 1975              	CSWTCH.63:
 1976 0000 01       		.byte	1
 1977 0001 02       		.byte	2
 1978 0002 03       		.byte	3
 1979 0003 04       		.byte	4
 1980 0004 05       		.byte	5
 1981 0005 06       		.byte	6
 1982 0006 07       		.byte	7
 1983 0007 08       		.byte	8
 1984 0008 09       		.byte	9
 1985 0009 00       		.byte	0
 1986              		.section	.rodata.command_common.str1.4,"aMS",%progbits,1
 1987              		.align	2
 1988              	.LC39:
 1989 0000 536C6565 		.ascii	"Sleep LED test\012\000"
 1989      70204C45 
 1989      44207465 
 1989      73740A00 
 1990              	.LC42:
 1991 0010 6565636F 		.ascii	"eeconfig:\012\000"
 1991      6E666967 
ARM GAS  /var/folders/t8/16hdwfmd2fg_d3q6dgx6bpmw0000gn/T//ccbZiAyP.s 			page 36


 1991      3A0A00
 1992 001b 00       		.space	1
 1993              	.LC44:
 1994 001c 64656661 		.ascii	"default_layer: \000"
 1994      756C745F 
 1994      6C617965 
 1994      723A2000 
 1995              	.LC46:
 1996 002c 257500   		.ascii	"%u\000"
 1997 002f 00       		.space	1
 1998              	.LC48:
 1999 0030 0A00     		.ascii	"\012\000"
 2000 0032 0000     		.space	2
 2001              	.LC50:
 2002 0034 64656275 		.ascii	"debug_config.raw: \000"
 2002      675F636F 
 2002      6E666967 
 2002      2E726177 
 2002      3A2000
 2003 0047 00       		.space	1
 2004              	.LC52:
 2005 0048 25303258 		.ascii	"%02X\000"
 2005      00
 2006 004d 000000   		.space	3
 2007              	.LC54:
 2008 0050 2E656E61 		.ascii	".enable: \000"
 2008      626C653A 
 2008      2000
 2009 005a 0000     		.space	2
 2010              	.LC56:
 2011 005c 2E6D6174 		.ascii	".matrix: \000"
 2011      7269783A 
 2011      2000
 2012 0066 0000     		.space	2
 2013              	.LC58:
 2014 0068 2E6B6579 		.ascii	".keyboard: \000"
 2014      626F6172 
 2014      643A2000 
 2015              	.LC60:
 2016 0074 2E6D6F75 		.ascii	".mouse: \000"
 2016      73653A20 
 2016      00
 2017 007d 000000   		.space	3
 2018              	.LC62:
 2019 0080 6B65796D 		.ascii	"keymap_config.raw: \000"
 2019      61705F63 
 2019      6F6E6669 
 2019      672E7261 
 2019      773A2000 
 2020              	.LC64:
 2021 0094 2E737761 		.ascii	".swap_control_capslock: \000"
 2021      705F636F 
 2021      6E74726F 
 2021      6C5F6361 
 2021      70736C6F 
 2022 00ad 000000   		.space	3
 2023              	.LC66:
ARM GAS  /var/folders/t8/16hdwfmd2fg_d3q6dgx6bpmw0000gn/T//ccbZiAyP.s 			page 37


 2024 00b0 2E636170 		.ascii	".capslock_to_control: \000"
 2024      736C6F63 
 2024      6B5F746F 
 2024      5F636F6E 
 2024      74726F6C 
 2025 00c7 00       		.space	1
 2026              	.LC68:
 2027 00c8 2E737761 		.ascii	".swap_lalt_lgui: \000"
 2027      705F6C61 
 2027      6C745F6C 
 2027      6775693A 
 2027      2000
 2028 00da 0000     		.space	2
 2029              	.LC70:
 2030 00dc 2E737761 		.ascii	".swap_ralt_rgui: \000"
 2030      705F7261 
 2030      6C745F72 
 2030      6775693A 
 2030      2000
 2031 00ee 0000     		.space	2
 2032              	.LC72:
 2033 00f0 2E6E6F5F 		.ascii	".no_gui: \000"
 2033      6775693A 
 2033      2000
 2034 00fa 0000     		.space	2
 2035              	.LC74:
 2036 00fc 2E737761 		.ascii	".swap_grave_esc: \000"
 2036      705F6772 
 2036      6176655F 
 2036      6573633A 
 2036      2000
 2037 010e 0000     		.space	2
 2038              	.LC76:
 2039 0110 2E737761 		.ascii	".swap_backslash_backspace: \000"
 2039      705F6261 
 2039      636B736C 
 2039      6173685F 
 2039      6261636B 
 2040              	.LC78:
 2041 012c 2E6E6B72 		.ascii	".nkro: \000"
 2041      6F3A2000 
 2042              	.LC80:
 2043 0134 0A092D20 		.ascii	"\012\011- Magic -\012d:\011debug\012x:\011debug mat"
 2043      4D616769 
 2043      63202D0A 
 2043      643A0964 
 2043      65627567 
 2044 0155 7269780A 		.ascii	"rix\012k:\011debug keyboard\012m:\011debug mouse\012"
 2044      6B3A0964 
 2044      65627567 
 2044      206B6579 
 2044      626F6172 
 2045 017a 763A0976 		.ascii	"v:\011version\012s:\011status\012c:\011console mode"
 2045      65727369 
 2045      6F6E0A73 
 2045      3A097374 
 2045      61747573 
ARM GAS  /var/folders/t8/16hdwfmd2fg_d3q6dgx6bpmw0000gn/T//ccbZiAyP.s 			page 38


 2046 019e 0A302D34 		.ascii	"\0120-4:\011layer0-4(F10-F4)\012Paus:\011bootloader"
 2046      3A096C61 
 2046      79657230 
 2046      2D342846 
 2046      31302D46 
 2047 01c5 0A653A09 		.ascii	"\012e:\011eeprom\012n:\011NKRO\012z:\011sleep LED t"
 2047      65657072 
 2047      6F6D0A6E 
 2047      3A094E4B 
 2047      524F0A7A 
 2048 01e6 6573740A 		.ascii	"est\012\000"
 2048      00
 2049 01eb 00       		.space	1
 2050              	.LC83:
 2051 01ec 0A092D20 		.ascii	"\012\011- Console -\012ESC/q:\011quit\012m:\011mous"
 2051      436F6E73 
 2051      6F6C6520 
 2051      2D0A4553 
 2051      432F713A 
 2052 020d 656B6579 		.ascii	"ekey\012\000"
 2052      0A00
 2053 0213 00       		.space	1
 2054              	.LC85:
 2055 0214 433E2000 		.ascii	"C> \000"
 2056              	.LC88:
 2057 0218 0A0A626F 		.ascii	"\012\012bootloader... \000"
 2057      6F746C6F 
 2057      61646572 
 2057      2E2E2E20 
 2057      00
 2058 0229 000000   		.space	3
 2059              	.LC90:
 2060 022c 0A646562 		.ascii	"\012debug: off\012\000"
 2060      75673A20 
 2060      6F66660A 
 2060      00
 2061 0239 000000   		.space	3
 2062              	.LC92:
 2063 023c 0A646562 		.ascii	"\012debug: on\012\000"
 2063      75673A20 
 2063      6F6E0A00 
 2064              	.LC94:
 2065 0248 0A6D6174 		.ascii	"\012matrix: on\012\000"
 2065      7269783A 
 2065      206F6E0A 
 2065      00
 2066 0255 000000   		.space	3
 2067              	.LC96:
 2068 0258 0A6D6174 		.ascii	"\012matrix: off\012\000"
 2068      7269783A 
 2068      206F6666 
 2068      0A00
 2069 0266 0000     		.space	2
 2070              	.LC98:
 2071 0268 0A6B6579 		.ascii	"\012keyboard: on\012\000"
 2071      626F6172 
 2071      643A206F 
ARM GAS  /var/folders/t8/16hdwfmd2fg_d3q6dgx6bpmw0000gn/T//ccbZiAyP.s 			page 39


 2071      6E0A00
 2072 0277 00       		.space	1
 2073              	.LC100:
 2074 0278 0A6B6579 		.ascii	"\012keyboard: off\012\000"
 2074      626F6172 
 2074      643A206F 
 2074      66660A00 
 2075              	.LC102:
 2076 0288 0A6D6F75 		.ascii	"\012mouse: on\012\000"
 2076      73653A20 
 2076      6F6E0A00 
 2077              	.LC104:
 2078 0294 0A6D6F75 		.ascii	"\012mouse: off\012\000"
 2078      73653A20 
 2078      6F66660A 
 2078      00
 2079 02a1 000000   		.space	3
 2080              	.LC106:
 2081 02a4 0A092D20 		.ascii	"\012\011- Version -\012\000"
 2081      56657273 
 2081      696F6E20 
 2081      2D0A00
 2082 02b3 00       		.space	1
 2083              	.LC108:
 2084 02b4 44455343 		.ascii	"DESC: \"Menelaus keyboard\"\012\000"
 2084      3A20224D 
 2084      656E656C 
 2084      61757320 
 2084      6B657962 
 2085 02cf 00       		.space	1
 2086              	.LC110:
 2087 02d0 5649443A 		.ascii	"VID: 0xFEED(\"TMK\") PID: 0x6464(\"Menelaus\") VER:"
 2087      20307846 
 2087      45454428 
 2087      22544D4B 
 2087      22292050 
 2088 02ff 20307830 		.ascii	" 0x0001\012\000"
 2088      3030310A 
 2088      00
 2089              	.LC112:
 2090 0308 4255494C 		.ascii	"BUILD: 9464fda-dirty (18:39:53 Jul 22 2018)\012\000"
 2090      443A2039 
 2090      34363466 
 2090      64612D64 
 2090      69727479 
 2091 0335 000000   		.space	3
 2092              	.LC114:
 2093 0338 4F505449 		.ascii	"OPTIONS: CHIBIOS BOOTMAGIC MOUSEKEY EXTRAKEY CONSOL"
 2093      4F4E533A 
 2093      20434849 
 2093      42494F53 
 2093      20424F4F 
 2094 036b 4520434F 		.ascii	"E COMMAND NKRO BOOTLOADER_SIZE\012\000"
 2094      4D4D414E 
 2094      44204E4B 
 2094      524F2042 
 2094      4F4F544C 
ARM GAS  /var/folders/t8/16hdwfmd2fg_d3q6dgx6bpmw0000gn/T//ccbZiAyP.s 			page 40


 2095 038b 00       		.space	1
 2096              	.LC116:
 2097 038c 4743433A 		.ascii	"GCC: 7.2.1\000"
 2097      20372E32 
 2097      2E3100
 2098 0397 00       		.space	1
 2099              	.LC118:
 2100 0398 0A092D20 		.ascii	"\012\011- Status -\012\000"
 2100      53746174 
 2100      7573202D 
 2100      0A00
 2101 03a6 0000     		.space	2
 2102              	.LC120:
 2103 03a8 686F7374 		.ascii	"host_keyboard_leds(): %X\012\000"
 2103      5F6B6579 
 2103      626F6172 
 2103      645F6C65 
 2103      64732829 
 2104 03c2 0000     		.space	2
 2105              	.LC123:
 2106 03c4 6B657962 		.ascii	"keyboard_protocol: %X\012\000"
 2106      6F617264 
 2106      5F70726F 
 2106      746F636F 
 2106      6C3A2025 
 2107 03db 00       		.space	1
 2108              	.LC126:
 2109 03dc 6B657962 		.ascii	"keyboard_idle: %X\012\000"
 2109      6F617264 
 2109      5F69646C 
 2109      653A2025 
 2109      580A00
 2110 03ef 00       		.space	1
 2111              	.LC129:
 2112 03f0 6B657962 		.ascii	"keyboard_nkro: %X\012\000"
 2112      6F617264 
 2112      5F6E6B72 
 2112      6F3A2025 
 2112      580A00
 2113 0403 00       		.space	1
 2114              	.LC131:
 2115 0404 74696D65 		.ascii	"timer_read32(): %04lX\012\000"
 2115      725F7265 
 2115      61643332 
 2115      28293A20 
 2115      2530346C 
 2116 041b 00       		.space	1
 2117              	.LC133:
 2118 041c 4E4B524F 		.ascii	"NKRO: on\012\000"
 2118      3A206F6E 
 2118      0A00
 2119 0426 0000     		.space	2
 2120              	.LC135:
 2121 0428 4E4B524F 		.ascii	"NKRO: off\012\000"
 2121      3A206F66 
 2121      660A00
 2122 0433 00       		.space	1
ARM GAS  /var/folders/t8/16hdwfmd2fg_d3q6dgx6bpmw0000gn/T//ccbZiAyP.s 			page 41


 2123              	.LC137:
 2124 0434 3F00     		.ascii	"?\000"
 2125              		.section	.rodata.command_proc.str1.4,"aMS",%progbits,1
 2126              		.align	2
 2127              	.LC144:
 2128 0000 4D3E2000 		.ascii	"M> \000"
 2129              	.LC149:
 2130 0004 0A092D20 		.ascii	"\012\011- Values -\012\000"
 2130      56616C75 
 2130      6573202D 
 2130      0A00
 2131 0012 0000     		.space	2
 2132              	.LC151:
 2133 0014 313A2064 		.ascii	"1: delay(*10ms): \000"
 2133      656C6179 
 2133      282A3130 
 2133      6D73293A 
 2133      2000
 2134 0026 0000     		.space	2
 2135              	.LC156:
 2136 0028 323A2069 		.ascii	"2: interval(ms): \000"
 2136      6E746572 
 2136      76616C28 
 2136      6D73293A 
 2136      2000
 2137 003a 0000     		.space	2
 2138              	.LC159:
 2139 003c 333A206D 		.ascii	"3: max_speed: \000"
 2139      61785F73 
 2139      70656564 
 2139      3A2000
 2140 004b 00       		.space	1
 2141              	.LC162:
 2142 004c 343A2074 		.ascii	"4: time_to_max: \000"
 2142      696D655F 
 2142      746F5F6D 
 2142      61783A20 
 2142      00
 2143 005d 000000   		.space	3
 2144              	.LC165:
 2145 0060 353A2077 		.ascii	"5: wheel_max_speed: \000"
 2145      6865656C 
 2145      5F6D6178 
 2145      5F737065 
 2145      65643A20 
 2146 0075 000000   		.space	3
 2147              	.LC168:
 2148 0078 363A2077 		.ascii	"6: wheel_time_to_max: \000"
 2148      6865656C 
 2148      5F74696D 
 2148      655F746F 
 2148      5F6D6178 
 2149 008f 00       		.space	1
 2150              	.LC172:
 2151 0090 73657420 		.ascii	"set default\012\000"
 2151      64656661 
 2151      756C740A 
ARM GAS  /var/folders/t8/16hdwfmd2fg_d3q6dgx6bpmw0000gn/T//ccbZiAyP.s 			page 42


 2151      00
 2152 009d 000000   		.space	3
 2153              	.LC174:
 2154 00a0 4D25643E 		.ascii	"M%d> \000"
 2154      2000
 2155 00a6 0000     		.space	2
 2156              	.LC176:
 2157 00a8 4D3E00   		.ascii	"M>\000"
 2158              		.section	.rodata.mousekey_console_help.str1.4,"aMS",%progbits,1
 2159              		.align	2
 2160              	.LC0:
 2161 0000 0A092D20 		.ascii	"\012\011- Mousekey -\012ESC/q:\011quit\0121:\011del"
 2161      4D6F7573 
 2161      656B6579 
 2161      202D0A45 
 2161      53432F71 
 2162 0021 6179282A 		.ascii	"ay(*10ms)\0122:\011interval(ms)\0123:\011max_speed\012"
 2162      31306D73 
 2162      290A323A 
 2162      09696E74 
 2162      65727661 
 2163 0048 343A0974 		.ascii	"4:\011time_to_max\0125:\011wheel_max_speed\0126:\011"
 2163      696D655F 
 2163      746F5F6D 
 2163      61780A35 
 2163      3A097768 
 2164 006d 77686565 		.ascii	"wheel_time_to_max\012\012p:\011print values\012d:\011"
 2164      6C5F7469 
 2164      6D655F74 
 2164      6F5F6D61 
 2164      780A0A70 
 2165 0093 73657420 		.ascii	"set defaults\012up:\011+1\012down:\011-1\012pgup:\011"
 2165      64656661 
 2165      756C7473 
 2165      0A75703A 
 2165      092B310A 
 2166 00b6 2B31300A 		.ascii	"+10\012pgdown:\011-10\012\012speed = delta * max_sp"
 2166      7067646F 
 2166      776E3A09 
 2166      2D31300A 
 2166      0A737065 
 2167 00dd 65656420 		.ascii	"eed * (repeat / time_to_max)\012\000"
 2167      2A202872 
 2167      65706561 
 2167      74202F20 
 2167      74696D65 
 2168 00fb 00       		.space	1
 2169              	.LC2:
 2170 00fc 77686572 		.ascii	"where delta: cursor=%d, wheel=%d\012See http://en.w"
 2170      65206465 
 2170      6C74613A 
 2170      20637572 
 2170      736F723D 
 2171 012c 696B6970 		.ascii	"ikipedia.org/wiki/Mouse_keys\012\000"
 2171      65646961 
 2171      2E6F7267 
 2171      2F77696B 
ARM GAS  /var/folders/t8/16hdwfmd2fg_d3q6dgx6bpmw0000gn/T//ccbZiAyP.s 			page 43


 2171      692F4D6F 
 2172              		.section	.rodata.mousekey_param_inc.str1.4,"aMS",%progbits,1
 2173              		.align	2
 2174              	.LC6:
 2175 0000 6D6B5F64 		.ascii	"mk_delay = %d\012\000"
 2175      656C6179 
 2175      203D2025 
 2175      640A00
 2176 000f 00       		.space	1
 2177              	.LC9:
 2178 0010 6D6B5F69 		.ascii	"mk_interval = %d\012\000"
 2178      6E746572 
 2178      76616C20 
 2178      3D202564 
 2178      0A00
 2179 0022 0000     		.space	2
 2180              	.LC12:
 2181 0024 6D6B5F6D 		.ascii	"mk_max_speed = %d\012\000"
 2181      61785F73 
 2181      70656564 
 2181      203D2025 
 2181      640A00
 2182 0037 00       		.space	1
 2183              	.LC15:
 2184 0038 6D6B5F74 		.ascii	"mk_time_to_max = %d\012\000"
 2184      696D655F 
 2184      746F5F6D 
 2184      6178203D 
 2184      2025640A 
 2185 004d 000000   		.space	3
 2186              	.LC18:
 2187 0050 6D6B5F77 		.ascii	"mk_wheel_max_speed = %d\012\000"
 2187      6865656C 
 2187      5F6D6178 
 2187      5F737065 
 2187      6564203D 
 2188 0069 000000   		.space	3
 2189              	.LC21:
 2190 006c 6D6B5F77 		.ascii	"mk_wheel_time_to_max = %d\012\000"
 2190      6865656C 
 2190      5F74696D 
 2190      655F746F 
 2190      5F6D6178 
 2191              		.section	.rodata.switch_default_layer.str1.4,"aMS",%progbits,1
 2192              		.align	2
 2193              	.LC36:
 2194 0000 4C25640A 		.ascii	"L%d\012\000"
 2194      00
 2195              		.text
 2196              	.Letext0:
 2197              		.file 2 "/usr/local/Caskroom/gcc-arm-embedded/7-2017-q4-major/gcc-arm-none-eabi-7-2017-q4-major/ar
 2198              		.file 3 "/usr/local/Caskroom/gcc-arm-embedded/7-2017-q4-major/gcc-arm-none-eabi-7-2017-q4-major/ar
 2199              		.file 4 "/usr/local/Caskroom/gcc-arm-embedded/7-2017-q4-major/gcc-arm-none-eabi-7-2017-q4-major/li
 2200              		.file 5 "../../tmk_core/tool/chibios/ChibiOS/os/common/ports/ARMCMx/compilers/GCC/chtypes.h"
 2201              		.file 6 "../../tmk_core/tool/chibios/ChibiOS/os/rt/include/chsystypes.h"
 2202              		.file 7 "../../tmk_core/tool/chibios/ChibiOS/os/rt/include/chschd.h"
 2203              		.file 8 "../../tmk_core/tool/chibios/ChibiOS-Contrib/os/common/ext/CMSIS/KINETIS/kl2xz.h"
ARM GAS  /var/folders/t8/16hdwfmd2fg_d3q6dgx6bpmw0000gn/T//ccbZiAyP.s 			page 44


 2204              		.file 9 "../../tmk_core/tool/chibios/ChibiOS/os/common/ports/ARMCMx/chcore.h"
 2205              		.file 10 "../../tmk_core/tool/chibios/ChibiOS/os/common/ports/ARMCMx/chcore_v6m.h"
 2206              		.file 11 "../../tmk_core/tool/chibios/ChibiOS/os/rt/include/chsem.h"
 2207              		.file 12 "../../tmk_core/tool/chibios/ChibiOS/os/rt/include/chmtx.h"
 2208              		.file 13 "../../tmk_core/tool/chibios/ChibiOS/os/rt/include/chregistry.h"
 2209              		.file 14 "../../tmk_core/tool/chibios/ChibiOS/os/rt/include/chsys.h"
 2210              		.file 15 "../../tmk_core/tool/chibios/ChibiOS-Contrib/os/hal/ports/KINETIS/LLD/hal_pal_lld.h"
 2211              		.file 16 "../../tmk_core/tool/chibios/ChibiOS/os/hal/include/hal_usb.h"
 2212              		.file 17 "../../tmk_core/tool/chibios/ChibiOS-Contrib/os/hal/ports/KINETIS/LLD/hal_usb_lld.h"
 2213              		.file 18 "../../tmk_core/common/report.h"
 2214              		.file 19 "../../tmk_core/common/host.h"
 2215              		.file 20 "../../tmk_core/common/keymap.h"
 2216              		.file 21 "../../tmk_core/common/debug.h"
 2217              		.file 22 "../../tmk_core/common/timer.h"
 2218              		.file 23 "../../tmk_core/common/action_layer.h"
 2219              		.file 24 "../../tmk_core/common/action_util.h"
 2220              		.file 25 "../../tmk_core/common/command.h"
 2221              		.file 26 "../../tmk_core/common/mousekey.h"
 2222              		.file 27 "../../tmk_core/common/chibios/printf.h"
 2223              		.file 28 "../../tmk_core/common/action.h"
 2224              		.file 29 "../../tmk_core/common/eeconfig.h"
 2225              		.file 30 "../../tmk_core/tool/chibios/ChibiOS/os/rt/include/chthreads.h"
 2226              		.file 31 "../../tmk_core/common/bootloader.h"
 2227              		.file 32 "../../tmk_core/common/sleep_led.h"
 2228              		.file 33 "../../tmk_core/common/led.h"
 2229              		.file 34 "../../tmk_core/common/keycode.h"