ARM GAS  /var/folders/t8/16hdwfmd2fg_d3q6dgx6bpmw0000gn/T//ccq4PCxj.s 			page 1


   1              		.cpu cortex-m0plus
   2              		.eabi_attribute 20, 1
   3              		.eabi_attribute 21, 1
   4              		.eabi_attribute 23, 3
   5              		.eabi_attribute 24, 1
   6              		.eabi_attribute 25, 1
   7              		.eabi_attribute 26, 1
   8              		.eabi_attribute 30, 2
   9              		.eabi_attribute 34, 0
  10              		.eabi_attribute 18, 4
  11              		.file	"eeconfig.c"
  12              		.text
  13              	.Ltext0:
  14              		.cfi_sections	.debug_frame
  15              		.section	.text.eeprom_initialize,"ax",%progbits
  16              		.align	1
  17              		.p2align 4,,15
  18              		.global	eeprom_initialize
  19              		.syntax unified
  20              		.code	16
  21              		.thumb_func
  22              		.fpu softvfp
  23              		.type	eeprom_initialize, %function
  24              	eeprom_initialize:
  25              	.LFB174:
  26              		.file 1 "../../tmk_core/common/chibios/eeconfig.c"
  27              		.loc 1 321 0
  28              		.cfi_startproc
  29              		@ args = 0, pretend = 0, frame = 0
  30              		@ frame_needed = 0, uses_anonymous_args = 0
  31              		@ link register save eliminated.
  32              	.LVL0:
  33 0000 084B     		ldr	r3, .L8
  34              		.loc 1 325 0
  35 0002 0948     		ldr	r0, .L8+4
  36              		.loc 1 329 0
  37 0004 0949     		ldr	r1, .L8+8
  38 0006 02E0     		b	.L4
  39              	.LVL1:
  40              	.L2:
  41 0008 0233     		adds	r3, r3, #2
  42              	.LVL2:
  43 000a 8B42     		cmp	r3, r1
  44 000c 06D2     		bcs	.L7
  45              	.LVL3:
  46              	.L4:
  47              		.loc 1 325 0
  48 000e 1A88     		ldrh	r2, [r3]
  49 0010 8242     		cmp	r2, r0
  50 0012 F9D1     		bne	.L2
  51              		.loc 1 326 0
  52 0014 064A     		ldr	r2, .L8+12
  53 0016 023B     		subs	r3, r3, #2
  54              	.LVL4:
  55 0018 1360     		str	r3, [r2]
  56              	.LVL5:
  57              	.L1:
ARM GAS  /var/folders/t8/16hdwfmd2fg_d3q6dgx6bpmw0000gn/T//ccq4PCxj.s 			page 2


  58              		.loc 1 331 0
  59              		@ sp needed
  60 001a 7047     		bx	lr
  61              	.LVL6:
  62              	.L7:
  63              		.loc 1 330 0
  64 001c 044B     		ldr	r3, .L8+12
  65              	.LVL7:
  66 001e 0239     		subs	r1, r1, #2
  67 0020 1960     		str	r1, [r3]
  68 0022 FAE7     		b	.L1
  69              	.L9:
  70              		.align	2
  71              	.L8:
  72 0024 00000000 		.word	__eeprom_workarea_start__
  73 0028 FFFF0000 		.word	65535
  74 002c 00000000 		.word	__eeprom_workarea_end__
  75 0030 00000000 		.word	.LANCHOR0
  76              		.cfi_endproc
  77              	.LFE174:
  78              		.size	eeprom_initialize, .-eeprom_initialize
  79              		.section	.text.eeprom_read_byte,"ax",%progbits
  80              		.align	1
  81              		.p2align 4,,15
  82              		.global	eeprom_read_byte
  83              		.syntax unified
  84              		.code	16
  85              		.thumb_func
  86              		.fpu softvfp
  87              		.type	eeprom_read_byte, %function
  88              	eeprom_read_byte:
  89              	.LFB175:
  90              		.loc 1 334 0
  91              		.cfi_startproc
  92              		@ args = 0, pretend = 0, frame = 0
  93              		@ frame_needed = 0, uses_anonymous_args = 0
  94              	.LVL8:
  95 0000 70B5     		push	{r4, r5, r6, lr}
  96              		.cfi_def_cfa_offset 16
  97              		.cfi_offset 4, -16
  98              		.cfi_offset 5, -12
  99              		.cfi_offset 6, -8
 100              		.cfi_offset 14, -4
 101              		.loc 1 337 0
 102 0002 134D     		ldr	r5, .L24
 103 0004 2B68     		ldr	r3, [r5]
 104              	.LVL9:
 105              		.loc 1 341 0
 106 0006 002B     		cmp	r3, #0
 107 0008 0BD1     		bne	.L12
 108 000a 124B     		ldr	r3, .L24+4
 109              	.LVL10:
 110              	.LBB42:
 111              	.LBB43:
 112              		.loc 1 325 0
 113 000c 1249     		ldr	r1, .L24+8
 114              		.loc 1 329 0
ARM GAS  /var/folders/t8/16hdwfmd2fg_d3q6dgx6bpmw0000gn/T//ccq4PCxj.s 			page 3


 115 000e 134C     		ldr	r4, .L24+12
 116 0010 02E0     		b	.L15
 117              	.LVL11:
 118              	.L13:
 119 0012 0233     		adds	r3, r3, #2
 120              	.LVL12:
 121 0014 A342     		cmp	r3, r4
 122 0016 18D2     		bcs	.L23
 123              	.LVL13:
 124              	.L15:
 125              		.loc 1 325 0
 126 0018 1A88     		ldrh	r2, [r3]
 127 001a 8A42     		cmp	r2, r1
 128 001c F9D1     		bne	.L13
 129              		.loc 1 326 0
 130 001e 023B     		subs	r3, r3, #2
 131              	.LVL14:
 132 0020 2B60     		str	r3, [r5]
 133              	.LVL15:
 134              	.L12:
 135              	.LBE43:
 136              	.LBE42:
 137              		.loc 1 345 0
 138 0022 7F28     		cmp	r0, #127
 139 0024 0FD8     		bhi	.L19
 140              		.loc 1 346 0
 141 0026 0B4A     		ldr	r2, .L24+4
 142              		.loc 1 339 0
 143 0028 FF26     		movs	r6, #255
 144              		.loc 1 346 0
 145 002a 9342     		cmp	r3, r2
 146 002c 09D3     		bcc	.L16
 147              		.loc 1 348 0
 148 002e FF25     		movs	r5, #255
 149              	.LVL16:
 150              	.L18:
 151 0030 2C00     		movs	r4, r5
 152              		.loc 1 347 0
 153 0032 1188     		ldrh	r1, [r2]
 154              	.LVL17:
 155              		.loc 1 348 0
 156 0034 0C40     		ands	r4, r1
 157 0036 8442     		cmp	r4, r0
 158 0038 00D1     		bne	.L17
 159              		.loc 1 348 0 is_stmt 0 discriminator 1
 160 003a 0E0A     		lsrs	r6, r1, #8
 161              	.LVL18:
 162              	.L17:
 163 003c 0232     		adds	r2, r2, #2
 164              	.LVL19:
 165              		.loc 1 346 0 is_stmt 1
 166 003e 9342     		cmp	r3, r2
 167 0040 F6D2     		bcs	.L18
 168              	.LVL20:
 169              	.L16:
 170              		.loc 1 352 0
 171 0042 3000     		movs	r0, r6
ARM GAS  /var/folders/t8/16hdwfmd2fg_d3q6dgx6bpmw0000gn/T//ccq4PCxj.s 			page 4


 172              	.LVL21:
 173              		@ sp needed
 174              	.LVL22:
 175 0044 70BD     		pop	{r4, r5, r6, pc}
 176              	.LVL23:
 177              	.L19:
 178              		.loc 1 339 0
 179 0046 FF26     		movs	r6, #255
 180 0048 FBE7     		b	.L16
 181              	.LVL24:
 182              	.L23:
 183              	.LBB45:
 184              	.LBB44:
 185              		.loc 1 330 0
 186 004a A31E     		subs	r3, r4, #2
 187              	.LVL25:
 188 004c 2B60     		str	r3, [r5]
 189              	.LVL26:
 190 004e E8E7     		b	.L12
 191              	.L25:
 192              		.align	2
 193              	.L24:
 194 0050 00000000 		.word	.LANCHOR0
 195 0054 00000000 		.word	__eeprom_workarea_start__
 196 0058 FFFF0000 		.word	65535
 197 005c 00000000 		.word	__eeprom_workarea_end__
 198              	.LBE44:
 199              	.LBE45:
 200              		.cfi_endproc
 201              	.LFE175:
 202              		.size	eeprom_read_byte, .-eeprom_read_byte
 203              		.section	.text.eeprom_write_byte,"ax",%progbits
 204              		.align	1
 205              		.p2align 4,,15
 206              		.global	eeprom_write_byte
 207              		.syntax unified
 208              		.code	16
 209              		.thumb_func
 210              		.fpu softvfp
 211              		.type	eeprom_write_byte, %function
 212              	eeprom_write_byte:
 213              	.LFB177:
 214              		.loc 1 371 0
 215              		.cfi_startproc
 216              		@ args = 0, pretend = 0, frame = 144
 217              		@ frame_needed = 0, uses_anonymous_args = 0
 218              	.LVL27:
 219 0000 F0B5     		push	{r4, r5, r6, r7, lr}
 220              		.cfi_def_cfa_offset 20
 221              		.cfi_offset 4, -20
 222              		.cfi_offset 5, -16
 223              		.cfi_offset 6, -12
 224              		.cfi_offset 7, -8
 225              		.cfi_offset 14, -4
 226 0002 DE46     		mov	lr, fp
 227 0004 5746     		mov	r7, r10
 228 0006 4E46     		mov	r6, r9
ARM GAS  /var/folders/t8/16hdwfmd2fg_d3q6dgx6bpmw0000gn/T//ccq4PCxj.s 			page 5


 229 0008 4546     		mov	r5, r8
 230 000a E0B5     		push	{r5, r6, r7, lr}
 231              		.cfi_def_cfa_offset 36
 232              		.cfi_offset 8, -36
 233              		.cfi_offset 9, -32
 234              		.cfi_offset 10, -28
 235              		.cfi_offset 11, -24
 236 000c A5B0     		sub	sp, sp, #148
 237              		.cfi_def_cfa_offset 184
 238              		.loc 1 375 0
 239 000e 6D46     		mov	r5, sp
 240              		.loc 1 373 0
 241 0010 7C4B     		ldr	r3, .L81
 242              		.loc 1 375 0
 243 0012 7D4A     		ldr	r2, .L81+4
 244              		.loc 1 373 0
 245 0014 9B46     		mov	fp, r3
 246 0016 1B68     		ldr	r3, [r3]
 247 0018 9C46     		mov	ip, r3
 248              	.LVL28:
 249              		.loc 1 375 0
 250 001a C8CA     		ldmia	r2!, {r3, r6, r7}
 251 001c C8C5     		stmia	r5!, {r3, r6, r7}
 252              	.LVL29:
 253 001e 1288     		ldrh	r2, [r2]
 254 0020 2A80     		strh	r2, [r5]
 255              		.loc 1 379 0
 256 0022 7F28     		cmp	r0, #127
 257 0024 00D9     		bls	.LCB232
 258 0026 C4E0     		b	.L26	@long jump
 259              	.LCB232:
 260              		.loc 1 380 0
 261 0028 6346     		mov	r3, ip
 262 002a 002B     		cmp	r3, #0
 263 002c 00D0     		beq	.LCB235
 264 002e C7E0     		b	.L76	@long jump
 265              	.LCB235:
 266 0030 764A     		ldr	r2, .L81+8
 267 0032 774B     		ldr	r3, .L81+12
 268              	.LBB46:
 269              	.LBB47:
 270              		.loc 1 325 0
 271 0034 774D     		ldr	r5, .L81+16
 272 0036 1600     		movs	r6, r2
 273 0038 03E0     		b	.L32
 274              	.LVL30:
 275              	.L30:
 276 003a 0233     		adds	r3, r3, #2
 277              	.LVL31:
 278              		.loc 1 329 0
 279 003c 9E42     		cmp	r6, r3
 280 003e 00D8     		bhi	.LCB250
 281 0040 DAE0     		b	.L77	@long jump
 282              	.LCB250:
 283              	.LVL32:
 284              	.L32:
 285              		.loc 1 325 0
ARM GAS  /var/folders/t8/16hdwfmd2fg_d3q6dgx6bpmw0000gn/T//ccq4PCxj.s 			page 6


 286 0042 1A88     		ldrh	r2, [r3]
 287 0044 AA42     		cmp	r2, r5
 288 0046 F8D1     		bne	.L30
 289              		.loc 1 326 0
 290 0048 5A46     		mov	r2, fp
 291 004a B046     		mov	r8, r6
 292 004c 023B     		subs	r3, r3, #2
 293              	.LVL33:
 294 004e 1360     		str	r3, [r2]
 295              	.LVL34:
 296              	.LBE47:
 297              	.LBE46:
 298              		.loc 1 384 0
 299 0050 0233     		adds	r3, r3, #2
 300              	.LVL35:
 301 0052 4345     		cmp	r3, r8
 302 0054 00D2     		bcs	.LCB270
 303 0056 B9E0     		b	.L78	@long jump
 304              	.LCB270:
 305              	.LVL36:
 306              	.L33:
 307              		.loc 1 397 0
 308 0058 FF22     		movs	r2, #255
 309 005a 04AB     		add	r3, sp, #16
 310              	.LVL37:
 311 005c 24AD     		add	r5, sp, #144
 312              	.L37:
 313              	.LVL38:
 314              		.loc 1 397 0 is_stmt 0 discriminator 3
 315 005e 1A70     		strb	r2, [r3]
 316              	.LVL39:
 317 0060 0133     		adds	r3, r3, #1
 318              	.LVL40:
 319              		.loc 1 396 0 is_stmt 1 discriminator 3
 320 0062 AB42     		cmp	r3, r5
 321 0064 FBD1     		bne	.L37
 322              	.LVL41:
 323              		.loc 1 399 0
 324 0066 6A4E     		ldr	r6, .L81+12
 325 0068 B045     		cmp	r8, r6
 326 006a 1AD9     		bls	.L38
 327 006c 4246     		mov	r2, r8
 328 006e 0124     		movs	r4, #1
 329 0070 551C     		adds	r5, r2, #1
 330 0072 B21C     		adds	r2, r6, #2
 331 0074 AD1A     		subs	r5, r5, r2
 332 0076 A543     		bics	r5, r4
 333 0078 AD18     		adds	r5, r5, r2
 334 007a FF22     		movs	r2, #255
 335 007c 3300     		movs	r3, r6
 336              	.LVL42:
 337 007e 9446     		mov	ip, r2
 338 0080 8146     		mov	r9, r0
 339 0082 8A46     		mov	r10, r1
 340              	.LVL43:
 341              	.L40:
 342 0084 6246     		mov	r2, ip
ARM GAS  /var/folders/t8/16hdwfmd2fg_d3q6dgx6bpmw0000gn/T//ccq4PCxj.s 			page 7


 343              		.loc 1 400 0
 344 0086 1C88     		ldrh	r4, [r3]
 345 0088 2240     		ands	r2, r4
 346              		.loc 1 401 0
 347 008a 7F2A     		cmp	r2, #127
 348 008c 04D8     		bhi	.L39
 349              		.loc 1 402 0
 350 008e 6946     		mov	r1, sp
 351 0090 1020     		movs	r0, #16
 352 0092 270A     		lsrs	r7, r4, #8
 353 0094 0918     		adds	r1, r1, r0
 354 0096 8F54     		strb	r7, [r1, r2]
 355              	.L39:
 356              	.LVL44:
 357 0098 0233     		adds	r3, r3, #2
 358              	.LVL45:
 359              		.loc 1 399 0 discriminator 2
 360 009a AB42     		cmp	r3, r5
 361 009c F2D1     		bne	.L40
 362 009e 4846     		mov	r0, r9
 363 00a0 5146     		mov	r1, r10
 364              	.LVL46:
 365              	.L38:
 366              		.loc 1 405 0
 367 00a2 6B46     		mov	r3, sp
 368 00a4 1022     		movs	r2, #16
 369 00a6 9B18     		adds	r3, r3, r2
 370 00a8 C154     		strb	r1, [r0, r3]
 371              	.LVL47:
 372              		.loc 1 406 0
 373 00aa B045     		cmp	r8, r6
 374 00ac 26D9     		bls	.L41
 375 00ae 0123     		movs	r3, #1
 376 00b0 6A46     		mov	r2, sp
 377 00b2 1A43     		orrs	r2, r3
 378              		.loc 1 407 0
 379 00b4 584B     		ldr	r3, .L81+20
 380              		.loc 1 406 0
 381 00b6 3500     		movs	r5, r6
 382              		.loc 1 407 0
 383 00b8 9946     		mov	r9, r3
 384              		.loc 1 409 0
 385 00ba 4346     		mov	r3, r8
 386 00bc 1700     		movs	r7, r2
 387 00be B046     		mov	r8, r6
 388 00c0 1E00     		movs	r6, r3
 389              	.LVL48:
 390 00c2 564C     		ldr	r4, .L81+24
 391              	.LVL49:
 392              	.L43:
 393              		.loc 1 407 0
 394 00c4 9023     		movs	r3, #144
 395 00c6 4A46     		mov	r2, r9
 396 00c8 1B05     		lsls	r3, r3, #20
 397 00ca 2B43     		orrs	r3, r5
 398 00cc 1360     		str	r3, [r2]
 399              	.LBB49:
ARM GAS  /var/folders/t8/16hdwfmd2fg_d3q6dgx6bpmw0000gn/T//ccq4PCxj.s 			page 8


 400              	.LBB50:
 401              		.file 2 "../../tmk_core/tool/chibios/ChibiOS/os/common/ext/CMSIS/include/cmsis_gcc.h"
 402              		.loc 2 71 0
 403              		.syntax divided
 404              	@ 71 "../../tmk_core/tool/chibios/ChibiOS/os/common/ext/CMSIS/include/cmsis_gcc.h" 1
 405 00ce 72B6     		cpsid i
 406              	@ 0 "" 2
 407              		.thumb
 408              		.syntax unified
 409              	.LBE50:
 410              	.LBE49:
 411              		.loc 1 409 0
 412 00d0 5248     		ldr	r0, .L81+24
 413 00d2 B847     		blx	r7
 414              	.LVL50:
 415              	.LBB51:
 416              	.LBB52:
 417              		.loc 2 60 0
 418              		.syntax divided
 419              	@ 60 "../../tmk_core/tool/chibios/ChibiOS/os/common/ext/CMSIS/include/cmsis_gcc.h" 1
 420 00d4 62B6     		cpsie i
 421              	@ 0 "" 2
 422              		.thumb
 423              		.syntax unified
 424 00d6 7023     		movs	r3, #112
 425              	.LBE52:
 426              	.LBE51:
 427              		.loc 1 411 0
 428 00d8 2278     		ldrb	r2, [r4]
 429 00da 1340     		ands	r3, r2
 430              	.LVL51:
 431              		.loc 1 412 0
 432 00dc 00D0     		beq	.L42
 433              		.loc 1 412 0 is_stmt 0 discriminator 1
 434 00de 2370     		strb	r3, [r4]
 435              	.L42:
 436              		.loc 1 413 0 is_stmt 1 discriminator 2
 437 00e0 8022     		movs	r2, #128
 438 00e2 4F49     		ldr	r1, .L81+28
 439 00e4 D200     		lsls	r2, r2, #3
 440 00e6 C868     		ldr	r0, [r1, #12]
 441 00e8 0243     		orrs	r2, r0
 442 00ea CA60     		str	r2, [r1, #12]
 443              		.loc 1 406 0 discriminator 2
 444 00ec 8022     		movs	r2, #128
 445 00ee D200     		lsls	r2, r2, #3
 446 00f0 9446     		mov	ip, r2
 447 00f2 6544     		add	r5, r5, ip
 448              	.LVL52:
 449 00f4 AE42     		cmp	r6, r5
 450 00f6 E5D8     		bhi	.L43
 451 00f8 4646     		mov	r6, r8
 452              		.loc 1 411 0
 453 00fa 1C00     		movs	r4, r3
 454              	.LVL53:
 455              	.L41:
 456 00fc 0223     		movs	r3, #2
ARM GAS  /var/folders/t8/16hdwfmd2fg_d3q6dgx6bpmw0000gn/T//ccq4PCxj.s 			page 9


 457              	.LBB53:
 458              	.LBB54:
 459              		.loc 1 361 0
 460 00fe 6A46     		mov	r2, sp
 461 0100 9946     		mov	r9, r3
 462 0102 013B     		subs	r3, r3, #1
 463 0104 1A43     		orrs	r2, r3
 464              	.LBE54:
 465              	.LBE53:
 466              		.loc 1 416 0
 467 0106 0025     		movs	r5, #0
 468              	.LBB61:
 469              	.LBB59:
 470              		.loc 1 361 0
 471 0108 9046     		mov	r8, r2
 472 010a 22E0     		b	.L48
 473              	.LVL54:
 474              	.L45:
 475 010c 2A04     		lsls	r2, r5, #16
 476 010e 1443     		orrs	r4, r2
 477              	.LBE59:
 478              	.LBE61:
 479              		.loc 1 421 0
 480 0110 1B06     		lsls	r3, r3, #24
 481              	.LVL55:
 482 0112 1C43     		orrs	r4, r3
 483              	.LVL56:
 484              	.LBB62:
 485              	.LBB60:
 486              		.loc 1 358 0
 487 0114 C023     		movs	r3, #192
 488 0116 434A     		ldr	r2, .L81+32
 489 0118 DB04     		lsls	r3, r3, #19
 490 011a 3240     		ands	r2, r6
 491 011c 1343     		orrs	r3, r2
 492 011e 3E4A     		ldr	r2, .L81+20
 493 0120 1360     		str	r3, [r2]
 494              		.loc 1 359 0
 495 0122 414B     		ldr	r3, .L81+36
 496 0124 1C60     		str	r4, [r3]
 497              	.LBB55:
 498              	.LBB56:
 499              		.loc 2 71 0
 500              		.syntax divided
 501              	@ 71 "../../tmk_core/tool/chibios/ChibiOS/os/common/ext/CMSIS/include/cmsis_gcc.h" 1
 502 0126 72B6     		cpsid i
 503              	@ 0 "" 2
 504              		.thumb
 505              		.syntax unified
 506              	.LBE56:
 507              	.LBE55:
 508              		.loc 1 361 0
 509 0128 3C4F     		ldr	r7, .L81+24
 510 012a 3800     		movs	r0, r7
 511 012c C047     		blx	r8
 512              	.LVL57:
 513              	.LBB57:
ARM GAS  /var/folders/t8/16hdwfmd2fg_d3q6dgx6bpmw0000gn/T//ccq4PCxj.s 			page 10


 514              	.LBB58:
 515              		.loc 2 60 0
 516              		.syntax divided
 517              	@ 60 "../../tmk_core/tool/chibios/ChibiOS/os/common/ext/CMSIS/include/cmsis_gcc.h" 1
 518 012e 62B6     		cpsie i
 519              	@ 0 "" 2
 520              		.thumb
 521              		.syntax unified
 522 0130 7022     		movs	r2, #112
 523              	.LBE58:
 524              	.LBE57:
 525              		.loc 1 363 0
 526 0132 3B78     		ldrb	r3, [r7]
 527 0134 1A40     		ands	r2, r3
 528              	.LVL58:
 529              		.loc 1 364 0
 530 0136 00D0     		beq	.L47
 531              		.loc 1 365 0
 532 0138 3A70     		strb	r2, [r7]
 533              	.L47:
 534              		.loc 1 367 0
 535 013a 8023     		movs	r3, #128
 536 013c 384A     		ldr	r2, .L81+28
 537              	.LVL59:
 538 013e DB00     		lsls	r3, r3, #3
 539 0140 D168     		ldr	r1, [r2, #12]
 540 0142 0B43     		orrs	r3, r1
 541 0144 D360     		str	r3, [r2, #12]
 542              	.LVL60:
 543              	.L46:
 544 0146 4A46     		mov	r2, r9
 545              	.LBE60:
 546              	.LBE62:
 547              		.loc 1 424 0
 548 0148 0236     		adds	r6, r6, #2
 549              	.LVL61:
 550 014a 3240     		ands	r2, r6
 551              	.LVL62:
 552              	.L44:
 553              		.loc 1 416 0 discriminator 2
 554 014c 0135     		adds	r5, r5, #1
 555              	.LVL63:
 556 014e 802D     		cmp	r5, #128
 557 0150 0DD0     		beq	.L79
 558              	.LVL64:
 559              	.L48:
 560              		.loc 1 417 0
 561 0152 1022     		movs	r2, #16
 562 0154 6B46     		mov	r3, sp
 563 0156 9B18     		adds	r3, r3, r2
 564 0158 4A46     		mov	r2, r9
 565 015a 5B5D     		ldrb	r3, [r3, r5]
 566 015c 3240     		ands	r2, r6
 567 015e FF2B     		cmp	r3, #255
 568 0160 F4D0     		beq	.L44
 569              		.loc 1 418 0
 570 0162 002A     		cmp	r2, #0
ARM GAS  /var/folders/t8/16hdwfmd2fg_d3q6dgx6bpmw0000gn/T//ccq4PCxj.s 			page 11


 571 0164 D2D1     		bne	.L45
 572              		.loc 1 419 0
 573 0166 1B02     		lsls	r3, r3, #8
 574              	.LVL65:
 575 0168 2B43     		orrs	r3, r5
 576              	.LVL66:
 577 016a 1C00     		movs	r4, r3
 578 016c EBE7     		b	.L46
 579              	.LVL67:
 580              	.L79:
 581              		.loc 1 426 0
 582 016e 5B46     		mov	r3, fp
 583 0170 1E60     		str	r6, [r3]
 584              		.loc 1 427 0
 585 0172 002A     		cmp	r2, #0
 586 0174 1DD0     		beq	.L26
 587              	.LVL68:
 588              	.LBB63:
 589              	.LBB64:
 590              		.loc 1 358 0
 591 0176 2B4B     		ldr	r3, .L81+32
 592 0178 1E40     		ands	r6, r3
 593              	.LVL69:
 594 017a C023     		movs	r3, #192
 595 017c DB04     		lsls	r3, r3, #19
 596 017e 1E43     		orrs	r6, r3
 597 0180 254B     		ldr	r3, .L81+20
 598 0182 1E60     		str	r6, [r3]
 599              	.LVL70:
 600              	.LBE64:
 601              	.LBE63:
 602              		.loc 1 428 0
 603 0184 294B     		ldr	r3, .L81+40
 604 0186 1C43     		orrs	r4, r3
 605              	.LBB70:
 606              	.LBB69:
 607              		.loc 1 359 0
 608 0188 274B     		ldr	r3, .L81+36
 609 018a 1C60     		str	r4, [r3]
 610              	.LVL71:
 611              	.L75:
 612              	.LBB65:
 613              	.LBB66:
 614              		.loc 2 71 0
 615              		.syntax divided
 616              	@ 71 "../../tmk_core/tool/chibios/ChibiOS/os/common/ext/CMSIS/include/cmsis_gcc.h" 1
 617 018c 72B6     		cpsid i
 618              	@ 0 "" 2
 619              		.thumb
 620              		.syntax unified
 621              	.LBE66:
 622              	.LBE65:
 623              		.loc 1 361 0
 624 018e 0123     		movs	r3, #1
 625 0190 6A46     		mov	r2, sp
 626 0192 224C     		ldr	r4, .L81+24
 627 0194 1343     		orrs	r3, r2
ARM GAS  /var/folders/t8/16hdwfmd2fg_d3q6dgx6bpmw0000gn/T//ccq4PCxj.s 			page 12


 628 0196 2000     		movs	r0, r4
 629 0198 9847     		blx	r3
 630              	.LVL72:
 631              	.LBB67:
 632              	.LBB68:
 633              		.loc 2 60 0
 634              		.syntax divided
 635              	@ 60 "../../tmk_core/tool/chibios/ChibiOS/os/common/ext/CMSIS/include/cmsis_gcc.h" 1
 636 019a 62B6     		cpsie i
 637              	@ 0 "" 2
 638              		.thumb
 639              		.syntax unified
 640 019c 7023     		movs	r3, #112
 641              	.LBE68:
 642              	.LBE67:
 643              		.loc 1 363 0
 644 019e 2278     		ldrb	r2, [r4]
 645 01a0 1340     		ands	r3, r2
 646              	.LVL73:
 647              		.loc 1 364 0
 648 01a2 00D0     		beq	.L49
 649              		.loc 1 365 0
 650 01a4 2370     		strb	r3, [r4]
 651              	.L49:
 652              		.loc 1 367 0
 653 01a6 8023     		movs	r3, #128
 654              	.LVL74:
 655 01a8 1D4A     		ldr	r2, .L81+28
 656              	.LVL75:
 657 01aa DB00     		lsls	r3, r3, #3
 658 01ac D168     		ldr	r1, [r2, #12]
 659 01ae 0B43     		orrs	r3, r1
 660 01b0 D360     		str	r3, [r2, #12]
 661              	.L26:
 662              	.LBE69:
 663              	.LBE70:
 664              		.loc 1 432 0
 665 01b2 25B0     		add	sp, sp, #148
 666              		@ sp needed
 667 01b4 3CBC     		pop	{r2, r3, r4, r5}
 668 01b6 9046     		mov	r8, r2
 669 01b8 9946     		mov	r9, r3
 670 01ba A246     		mov	r10, r4
 671 01bc AB46     		mov	fp, r5
 672 01be F0BD     		pop	{r4, r5, r6, r7, pc}
 673              	.LVL76:
 674              	.L76:
 675 01c0 124A     		ldr	r2, .L81+8
 676 01c2 9046     		mov	r8, r2
 677              	.LVL77:
 678              	.L29:
 679              		.loc 1 384 0
 680 01c4 0233     		adds	r3, r3, #2
 681              	.LVL78:
 682 01c6 4345     		cmp	r3, r8
 683 01c8 00D3     		bcc	.LCB677
 684 01ca 45E7     		b	.L33	@long jump
ARM GAS  /var/folders/t8/16hdwfmd2fg_d3q6dgx6bpmw0000gn/T//ccq4PCxj.s 			page 13


 685              	.LCB677:
 686              	.L78:
 687              		.loc 1 387 0
 688 01cc 5A46     		mov	r2, fp
 689              		.loc 1 385 0
 690 01ce 0902     		lsls	r1, r1, #8
 691              	.LVL79:
 692 01d0 0843     		orrs	r0, r1
 693              	.LVL80:
 694              		.loc 1 387 0
 695 01d2 1360     		str	r3, [r2]
 696              		.loc 1 388 0
 697 01d4 9A07     		lsls	r2, r3, #30
 698 01d6 0CD5     		bpl	.L80
 699              		.loc 1 392 0
 700 01d8 0E49     		ldr	r1, .L81+16
 701              		.loc 1 391 0
 702 01da 0004     		lsls	r0, r0, #16
 703              	.LVL81:
 704              		.loc 1 392 0
 705 01dc 0843     		orrs	r0, r1
 706              	.LVL82:
 707              	.L35:
 708              	.LBB71:
 709              	.LBB72:
 710              		.loc 1 358 0
 711 01de 114A     		ldr	r2, .L81+32
 712 01e0 1340     		ands	r3, r2
 713              	.LVL83:
 714 01e2 C022     		movs	r2, #192
 715 01e4 D204     		lsls	r2, r2, #19
 716 01e6 1343     		orrs	r3, r2
 717 01e8 0B4A     		ldr	r2, .L81+20
 718 01ea 1360     		str	r3, [r2]
 719              	.LVL84:
 720              		.loc 1 359 0
 721 01ec 0E4B     		ldr	r3, .L81+36
 722 01ee 1860     		str	r0, [r3]
 723 01f0 CCE7     		b	.L75
 724              	.LVL85:
 725              	.L80:
 726              	.LBE72:
 727              	.LBE71:
 728              		.loc 1 389 0
 729 01f2 0E49     		ldr	r1, .L81+40
 730 01f4 0843     		orrs	r0, r1
 731              	.LVL86:
 732 01f6 F2E7     		b	.L35
 733              	.LVL87:
 734              	.L77:
 735              	.LBB73:
 736              	.LBB48:
 737              		.loc 1 330 0
 738 01f8 3300     		movs	r3, r6
 739              	.LVL88:
 740 01fa 5A46     		mov	r2, fp
 741 01fc 023B     		subs	r3, r3, #2
ARM GAS  /var/folders/t8/16hdwfmd2fg_d3q6dgx6bpmw0000gn/T//ccq4PCxj.s 			page 14


 742 01fe B046     		mov	r8, r6
 743 0200 1360     		str	r3, [r2]
 744              	.LVL89:
 745 0202 DFE7     		b	.L29
 746              	.L82:
 747              		.align	2
 748              	.L81:
 749 0204 00000000 		.word	.LANCHOR0
 750 0208 00000000 		.word	.LANCHOR1
 751 020c 00000000 		.word	__eeprom_workarea_end__
 752 0210 00000000 		.word	__eeprom_workarea_start__
 753 0214 FFFF0000 		.word	65535
 754 0218 04000240 		.word	1073872900
 755 021c 00000240 		.word	1073872896
 756 0220 003000F0 		.word	-268423168
 757 0224 FCFFFF00 		.word	16777212
 758 0228 08000240 		.word	1073872904
 759 022c 0000FFFF 		.word	-65536
 760              	.LBE48:
 761              	.LBE73:
 762              		.cfi_endproc
 763              	.LFE177:
 764              		.size	eeprom_write_byte, .-eeprom_write_byte
 765              		.section	.text.eeprom_read_word,"ax",%progbits
 766              		.align	1
 767              		.p2align 4,,15
 768              		.global	eeprom_read_word
 769              		.syntax unified
 770              		.code	16
 771              		.thumb_func
 772              		.fpu softvfp
 773              		.type	eeprom_read_word, %function
 774              	eeprom_read_word:
 775              	.LFB178:
 776              		.loc 1 452 0
 777              		.cfi_startproc
 778              		@ args = 0, pretend = 0, frame = 0
 779              		@ frame_needed = 0, uses_anonymous_args = 0
 780              	.LVL90:
 781 0000 70B5     		push	{r4, r5, r6, lr}
 782              		.cfi_def_cfa_offset 16
 783              		.cfi_offset 4, -16
 784              		.cfi_offset 5, -12
 785              		.cfi_offset 6, -8
 786              		.cfi_offset 14, -4
 787              		.loc 1 452 0
 788 0002 0400     		movs	r4, r0
 789              	.LVL91:
 790              		.loc 1 454 0
 791 0004 FFF7FEFF 		bl	eeprom_read_byte
 792              	.LVL92:
 793 0008 0500     		movs	r5, r0
 794 000a 601C     		adds	r0, r4, #1
 795 000c FFF7FEFF 		bl	eeprom_read_byte
 796              	.LVL93:
 797 0010 0002     		lsls	r0, r0, #8
 798 0012 2843     		orrs	r0, r5
ARM GAS  /var/folders/t8/16hdwfmd2fg_d3q6dgx6bpmw0000gn/T//ccq4PCxj.s 			page 15


 799 0014 80B2     		uxth	r0, r0
 800              		.loc 1 455 0
 801              		@ sp needed
 802              	.LVL94:
 803 0016 70BD     		pop	{r4, r5, r6, pc}
 804              		.cfi_endproc
 805              	.LFE178:
 806              		.size	eeprom_read_word, .-eeprom_read_word
 807              		.section	.text.eeprom_read_dword,"ax",%progbits
 808              		.align	1
 809              		.p2align 4,,15
 810              		.global	eeprom_read_dword
 811              		.syntax unified
 812              		.code	16
 813              		.thumb_func
 814              		.fpu softvfp
 815              		.type	eeprom_read_dword, %function
 816              	eeprom_read_dword:
 817              	.LFB179:
 818              		.loc 1 458 0
 819              		.cfi_startproc
 820              		@ args = 0, pretend = 0, frame = 0
 821              		@ frame_needed = 0, uses_anonymous_args = 0
 822              	.LVL95:
 823 0000 D0B5     		push	{r4, r6, r7, lr}
 824              		.cfi_def_cfa_offset 16
 825              		.cfi_offset 4, -16
 826              		.cfi_offset 6, -12
 827              		.cfi_offset 7, -8
 828              		.cfi_offset 14, -4
 829              		.loc 1 458 0
 830 0002 0600     		movs	r6, r0
 831              	.LVL96:
 832              		.loc 1 460 0
 833 0004 FFF7FEFF 		bl	eeprom_read_byte
 834              	.LVL97:
 835 0008 0700     		movs	r7, r0
 836 000a 701C     		adds	r0, r6, #1
 837 000c FFF7FEFF 		bl	eeprom_read_byte
 838              	.LVL98:
 839 0010 0400     		movs	r4, r0
 840              		.loc 1 461 0
 841 0012 B01C     		adds	r0, r6, #2
 842 0014 FFF7FEFF 		bl	eeprom_read_byte
 843              	.LVL99:
 844              		.loc 1 460 0
 845 0018 2402     		lsls	r4, r4, #8
 846              		.loc 1 461 0
 847 001a 0004     		lsls	r0, r0, #16
 848 001c 0443     		orrs	r4, r0
 849 001e F01C     		adds	r0, r6, #3
 850 0020 FFF7FEFF 		bl	eeprom_read_byte
 851              	.LVL100:
 852 0024 3C43     		orrs	r4, r7
 853 0026 0006     		lsls	r0, r0, #24
 854 0028 2043     		orrs	r0, r4
 855              		.loc 1 462 0
ARM GAS  /var/folders/t8/16hdwfmd2fg_d3q6dgx6bpmw0000gn/T//ccq4PCxj.s 			page 16


 856              		@ sp needed
 857              	.LVL101:
 858 002a D0BD     		pop	{r4, r6, r7, pc}
 859              		.cfi_endproc
 860              	.LFE179:
 861              		.size	eeprom_read_dword, .-eeprom_read_dword
 862              		.section	.text.eeprom_read_block,"ax",%progbits
 863              		.align	1
 864              		.p2align 4,,15
 865              		.global	eeprom_read_block
 866              		.syntax unified
 867              		.code	16
 868              		.thumb_func
 869              		.fpu softvfp
 870              		.type	eeprom_read_block, %function
 871              	eeprom_read_block:
 872              	.LFB180:
 873              		.loc 1 465 0
 874              		.cfi_startproc
 875              		@ args = 0, pretend = 0, frame = 0
 876              		@ frame_needed = 0, uses_anonymous_args = 0
 877              	.LVL102:
 878 0000 70B5     		push	{r4, r5, r6, lr}
 879              		.cfi_def_cfa_offset 16
 880              		.cfi_offset 4, -16
 881              		.cfi_offset 5, -12
 882              		.cfi_offset 6, -8
 883              		.cfi_offset 14, -4
 884              		.loc 1 465 0
 885 0002 0400     		movs	r4, r0
 886 0004 0800     		movs	r0, r1
 887              	.LVL103:
 888              		.loc 1 468 0
 889 0006 002A     		cmp	r2, #0
 890 0008 08D0     		beq	.L85
 891 000a 8E18     		adds	r6, r1, r2
 892              	.LVL104:
 893              	.L87:
 894              		.loc 1 469 0
 895 000c 451C     		adds	r5, r0, #1
 896              	.LVL105:
 897 000e FFF7FEFF 		bl	eeprom_read_byte
 898              	.LVL106:
 899 0012 2070     		strb	r0, [r4]
 900              	.LVL107:
 901 0014 0134     		adds	r4, r4, #1
 902              	.LVL108:
 903 0016 2800     		movs	r0, r5
 904              		.loc 1 468 0
 905 0018 B542     		cmp	r5, r6
 906 001a F7D1     		bne	.L87
 907              	.LVL109:
 908              	.L85:
 909              		.loc 1 471 0
 910              		@ sp needed
 911 001c 70BD     		pop	{r4, r5, r6, pc}
 912              		.cfi_endproc
ARM GAS  /var/folders/t8/16hdwfmd2fg_d3q6dgx6bpmw0000gn/T//ccq4PCxj.s 			page 17


 913              	.LFE180:
 914              		.size	eeprom_read_block, .-eeprom_read_block
 915 001e C046     		.section	.text.eeprom_is_ready,"ax",%progbits
 916              		.align	1
 917              		.p2align 4,,15
 918              		.global	eeprom_is_ready
 919              		.syntax unified
 920              		.code	16
 921              		.thumb_func
 922              		.fpu softvfp
 923              		.type	eeprom_is_ready, %function
 924              	eeprom_is_ready:
 925              	.LFB181:
 926              		.loc 1 474 0
 927              		.cfi_startproc
 928              		@ args = 0, pretend = 0, frame = 0
 929              		@ frame_needed = 0, uses_anonymous_args = 0
 930              		@ link register save eliminated.
 931              		.loc 1 476 0
 932 0000 0120     		movs	r0, #1
 933              		@ sp needed
 934 0002 7047     		bx	lr
 935              		.cfi_endproc
 936              	.LFE181:
 937              		.size	eeprom_is_ready, .-eeprom_is_ready
 938              		.section	.text.eeprom_write_word,"ax",%progbits
 939              		.align	1
 940              		.p2align 4,,15
 941              		.global	eeprom_write_word
 942              		.syntax unified
 943              		.code	16
 944              		.thumb_func
 945              		.fpu softvfp
 946              		.type	eeprom_write_word, %function
 947              	eeprom_write_word:
 948              	.LFB182:
 949              		.loc 1 479 0
 950              		.cfi_startproc
 951              		@ args = 0, pretend = 0, frame = 0
 952              		@ frame_needed = 0, uses_anonymous_args = 0
 953              	.LVL110:
 954 0000 70B5     		push	{r4, r5, r6, lr}
 955              		.cfi_def_cfa_offset 16
 956              		.cfi_offset 4, -16
 957              		.cfi_offset 5, -12
 958              		.cfi_offset 6, -8
 959              		.cfi_offset 14, -4
 960              		.loc 1 479 0
 961 0002 0D00     		movs	r5, r1
 962 0004 0400     		movs	r4, r0
 963              	.LVL111:
 964              		.loc 1 481 0
 965 0006 C9B2     		uxtb	r1, r1
 966              	.LVL112:
 967 0008 FFF7FEFF 		bl	eeprom_write_byte
 968              	.LVL113:
 969              		.loc 1 482 0
ARM GAS  /var/folders/t8/16hdwfmd2fg_d3q6dgx6bpmw0000gn/T//ccq4PCxj.s 			page 18


 970 000c 290A     		lsrs	r1, r5, #8
 971              		.loc 1 481 0
 972 000e 601C     		adds	r0, r4, #1
 973              	.LVL114:
 974              		.loc 1 482 0
 975 0010 FFF7FEFF 		bl	eeprom_write_byte
 976              	.LVL115:
 977              		.loc 1 483 0
 978              		@ sp needed
 979              	.LVL116:
 980 0014 70BD     		pop	{r4, r5, r6, pc}
 981              		.cfi_endproc
 982              	.LFE182:
 983              		.size	eeprom_write_word, .-eeprom_write_word
 984 0016 C046     		.section	.text.eeprom_write_dword,"ax",%progbits
 985              		.align	1
 986              		.p2align 4,,15
 987              		.global	eeprom_write_dword
 988              		.syntax unified
 989              		.code	16
 990              		.thumb_func
 991              		.fpu softvfp
 992              		.type	eeprom_write_dword, %function
 993              	eeprom_write_dword:
 994              	.LFB183:
 995              		.loc 1 486 0
 996              		.cfi_startproc
 997              		@ args = 0, pretend = 0, frame = 0
 998              		@ frame_needed = 0, uses_anonymous_args = 0
 999              	.LVL117:
 1000 0000 70B5     		push	{r4, r5, r6, lr}
 1001              		.cfi_def_cfa_offset 16
 1002              		.cfi_offset 4, -16
 1003              		.cfi_offset 5, -12
 1004              		.cfi_offset 6, -8
 1005              		.cfi_offset 14, -4
 1006              		.loc 1 486 0
 1007 0002 0D00     		movs	r5, r1
 1008 0004 0400     		movs	r4, r0
 1009              	.LVL118:
 1010              		.loc 1 488 0
 1011 0006 C9B2     		uxtb	r1, r1
 1012              	.LVL119:
 1013 0008 FFF7FEFF 		bl	eeprom_write_byte
 1014              	.LVL120:
 1015              		.loc 1 489 0
 1016 000c 290A     		lsrs	r1, r5, #8
 1017              		.loc 1 488 0
 1018 000e 601C     		adds	r0, r4, #1
 1019              		.loc 1 489 0
 1020 0010 C9B2     		uxtb	r1, r1
 1021 0012 FFF7FEFF 		bl	eeprom_write_byte
 1022              	.LVL121:
 1023              		.loc 1 490 0
 1024 0016 290C     		lsrs	r1, r5, #16
 1025              		.loc 1 489 0
 1026 0018 A01C     		adds	r0, r4, #2
ARM GAS  /var/folders/t8/16hdwfmd2fg_d3q6dgx6bpmw0000gn/T//ccq4PCxj.s 			page 19


 1027              		.loc 1 490 0
 1028 001a C9B2     		uxtb	r1, r1
 1029 001c FFF7FEFF 		bl	eeprom_write_byte
 1030              	.LVL122:
 1031              		.loc 1 491 0
 1032 0020 290E     		lsrs	r1, r5, #24
 1033              		.loc 1 490 0
 1034 0022 E01C     		adds	r0, r4, #3
 1035              	.LVL123:
 1036              		.loc 1 491 0
 1037 0024 FFF7FEFF 		bl	eeprom_write_byte
 1038              	.LVL124:
 1039              		.loc 1 492 0
 1040              		@ sp needed
 1041              	.LVL125:
 1042              	.LVL126:
 1043 0028 70BD     		pop	{r4, r5, r6, pc}
 1044              		.cfi_endproc
 1045              	.LFE183:
 1046              		.size	eeprom_write_dword, .-eeprom_write_dword
 1047 002a C046     		.section	.text.eeprom_write_block,"ax",%progbits
 1048              		.align	1
 1049              		.p2align 4,,15
 1050              		.global	eeprom_write_block
 1051              		.syntax unified
 1052              		.code	16
 1053              		.thumb_func
 1054              		.fpu softvfp
 1055              		.type	eeprom_write_block, %function
 1056              	eeprom_write_block:
 1057              	.LFB184:
 1058              		.loc 1 495 0
 1059              		.cfi_startproc
 1060              		@ args = 0, pretend = 0, frame = 0
 1061              		@ frame_needed = 0, uses_anonymous_args = 0
 1062              	.LVL127:
 1063 0000 70B5     		push	{r4, r5, r6, lr}
 1064              		.cfi_def_cfa_offset 16
 1065              		.cfi_offset 4, -16
 1066              		.cfi_offset 5, -12
 1067              		.cfi_offset 6, -8
 1068              		.cfi_offset 14, -4
 1069              		.loc 1 495 0
 1070 0002 0400     		movs	r4, r0
 1071 0004 0800     		movs	r0, r1
 1072              	.LVL128:
 1073              		.loc 1 498 0
 1074 0006 002A     		cmp	r2, #0
 1075 0008 08D0     		beq	.L95
 1076 000a 8E18     		adds	r6, r1, r2
 1077              	.LVL129:
 1078              	.L97:
 1079              		.loc 1 499 0
 1080 000c 451C     		adds	r5, r0, #1
 1081              	.LVL130:
 1082 000e 2178     		ldrb	r1, [r4]
 1083 0010 FFF7FEFF 		bl	eeprom_write_byte
ARM GAS  /var/folders/t8/16hdwfmd2fg_d3q6dgx6bpmw0000gn/T//ccq4PCxj.s 			page 20


 1084              	.LVL131:
 1085 0014 0134     		adds	r4, r4, #1
 1086              	.LVL132:
 1087 0016 2800     		movs	r0, r5
 1088              		.loc 1 498 0
 1089 0018 B542     		cmp	r5, r6
 1090 001a F7D1     		bne	.L97
 1091              	.LVL133:
 1092              	.L95:
 1093              		.loc 1 501 0
 1094              		@ sp needed
 1095 001c 70BD     		pop	{r4, r5, r6, pc}
 1096              		.cfi_endproc
 1097              	.LFE184:
 1098              		.size	eeprom_write_block, .-eeprom_write_block
 1099 001e C046     		.section	.text.eeconfig_init,"ax",%progbits
 1100              		.align	1
 1101              		.p2align 4,,15
 1102              		.global	eeconfig_init
 1103              		.syntax unified
 1104              		.code	16
 1105              		.thumb_func
 1106              		.fpu softvfp
 1107              		.type	eeconfig_init, %function
 1108              	eeconfig_init:
 1109              	.LFB185:
 1110              		.loc 1 513 0
 1111              		.cfi_startproc
 1112              		@ args = 0, pretend = 0, frame = 0
 1113              		@ frame_needed = 0, uses_anonymous_args = 0
 1114              	.LVL134:
 1115 0000 10B5     		push	{r4, lr}
 1116              		.cfi_def_cfa_offset 8
 1117              		.cfi_offset 4, -8
 1118              		.cfi_offset 14, -4
 1119              	.LBB74:
 1120              	.LBB75:
 1121              		.loc 1 481 0
 1122 0002 ED21     		movs	r1, #237
 1123 0004 0020     		movs	r0, #0
 1124 0006 FFF7FEFF 		bl	eeprom_write_byte
 1125              	.LVL135:
 1126              		.loc 1 482 0
 1127 000a FE21     		movs	r1, #254
 1128 000c 0120     		movs	r0, #1
 1129 000e FFF7FEFF 		bl	eeprom_write_byte
 1130              	.LVL136:
 1131              	.LBE75:
 1132              	.LBE74:
 1133              		.loc 1 515 0
 1134 0012 0021     		movs	r1, #0
 1135 0014 0220     		movs	r0, #2
 1136 0016 FFF7FEFF 		bl	eeprom_write_byte
 1137              	.LVL137:
 1138              		.loc 1 516 0
 1139 001a 0021     		movs	r1, #0
 1140 001c 0320     		movs	r0, #3
ARM GAS  /var/folders/t8/16hdwfmd2fg_d3q6dgx6bpmw0000gn/T//ccq4PCxj.s 			page 21


 1141 001e FFF7FEFF 		bl	eeprom_write_byte
 1142              	.LVL138:
 1143              		.loc 1 517 0
 1144 0022 0021     		movs	r1, #0
 1145 0024 0420     		movs	r0, #4
 1146 0026 FFF7FEFF 		bl	eeprom_write_byte
 1147              	.LVL139:
 1148              		.loc 1 518 0
 1149 002a 0021     		movs	r1, #0
 1150 002c 0520     		movs	r0, #5
 1151 002e FFF7FEFF 		bl	eeprom_write_byte
 1152              	.LVL140:
 1153              		.loc 1 522 0
 1154              		@ sp needed
 1155 0032 10BD     		pop	{r4, pc}
 1156              		.cfi_endproc
 1157              	.LFE185:
 1158              		.size	eeconfig_init, .-eeconfig_init
 1159              		.section	.text.eeconfig_enable,"ax",%progbits
 1160              		.align	1
 1161              		.p2align 4,,15
 1162              		.global	eeconfig_enable
 1163              		.syntax unified
 1164              		.code	16
 1165              		.thumb_func
 1166              		.fpu softvfp
 1167              		.type	eeconfig_enable, %function
 1168              	eeconfig_enable:
 1169              	.LFB186:
 1170              		.loc 1 525 0
 1171              		.cfi_startproc
 1172              		@ args = 0, pretend = 0, frame = 0
 1173              		@ frame_needed = 0, uses_anonymous_args = 0
 1174              	.LVL141:
 1175 0000 10B5     		push	{r4, lr}
 1176              		.cfi_def_cfa_offset 8
 1177              		.cfi_offset 4, -8
 1178              		.cfi_offset 14, -4
 1179              	.LBB76:
 1180              	.LBB77:
 1181              		.loc 1 481 0
 1182 0002 ED21     		movs	r1, #237
 1183 0004 0020     		movs	r0, #0
 1184 0006 FFF7FEFF 		bl	eeprom_write_byte
 1185              	.LVL142:
 1186              		.loc 1 482 0
 1187 000a FE21     		movs	r1, #254
 1188 000c 0120     		movs	r0, #1
 1189 000e FFF7FEFF 		bl	eeprom_write_byte
 1190              	.LVL143:
 1191              	.LBE77:
 1192              	.LBE76:
 1193              		.loc 1 527 0
 1194              		@ sp needed
 1195 0012 10BD     		pop	{r4, pc}
 1196              		.cfi_endproc
 1197              	.LFE186:
ARM GAS  /var/folders/t8/16hdwfmd2fg_d3q6dgx6bpmw0000gn/T//ccq4PCxj.s 			page 22


 1198              		.size	eeconfig_enable, .-eeconfig_enable
 1199              		.section	.text.eeconfig_disable,"ax",%progbits
 1200              		.align	1
 1201              		.p2align 4,,15
 1202              		.global	eeconfig_disable
 1203              		.syntax unified
 1204              		.code	16
 1205              		.thumb_func
 1206              		.fpu softvfp
 1207              		.type	eeconfig_disable, %function
 1208              	eeconfig_disable:
 1209              	.LFB187:
 1210              		.loc 1 530 0
 1211              		.cfi_startproc
 1212              		@ args = 0, pretend = 0, frame = 0
 1213              		@ frame_needed = 0, uses_anonymous_args = 0
 1214              	.LVL144:
 1215 0000 10B5     		push	{r4, lr}
 1216              		.cfi_def_cfa_offset 8
 1217              		.cfi_offset 4, -8
 1218              		.cfi_offset 14, -4
 1219              	.LBB78:
 1220              	.LBB79:
 1221              		.loc 1 481 0
 1222 0002 FF21     		movs	r1, #255
 1223 0004 0020     		movs	r0, #0
 1224 0006 FFF7FEFF 		bl	eeprom_write_byte
 1225              	.LVL145:
 1226              		.loc 1 482 0
 1227 000a FF21     		movs	r1, #255
 1228 000c 0120     		movs	r0, #1
 1229 000e FFF7FEFF 		bl	eeprom_write_byte
 1230              	.LVL146:
 1231              	.LBE79:
 1232              	.LBE78:
 1233              		.loc 1 532 0
 1234              		@ sp needed
 1235 0012 10BD     		pop	{r4, pc}
 1236              		.cfi_endproc
 1237              	.LFE187:
 1238              		.size	eeconfig_disable, .-eeconfig_disable
 1239              		.section	.text.eeconfig_is_enabled,"ax",%progbits
 1240              		.align	1
 1241              		.p2align 4,,15
 1242              		.global	eeconfig_is_enabled
 1243              		.syntax unified
 1244              		.code	16
 1245              		.thumb_func
 1246              		.fpu softvfp
 1247              		.type	eeconfig_is_enabled, %function
 1248              	eeconfig_is_enabled:
 1249              	.LFB188:
 1250              		.loc 1 535 0
 1251              		.cfi_startproc
 1252              		@ args = 0, pretend = 0, frame = 0
 1253              		@ frame_needed = 0, uses_anonymous_args = 0
 1254 0000 10B5     		push	{r4, lr}
ARM GAS  /var/folders/t8/16hdwfmd2fg_d3q6dgx6bpmw0000gn/T//ccq4PCxj.s 			page 23


 1255              		.cfi_def_cfa_offset 8
 1256              		.cfi_offset 4, -8
 1257              		.cfi_offset 14, -4
 1258              		.loc 1 536 0
 1259 0002 0020     		movs	r0, #0
 1260 0004 FFF7FEFF 		bl	eeprom_read_word
 1261              	.LVL147:
 1262 0008 034B     		ldr	r3, .L106
 1263              		.loc 1 537 0
 1264              		@ sp needed
 1265              		.loc 1 536 0
 1266 000a 9C46     		mov	ip, r3
 1267 000c 6044     		add	r0, r0, ip
 1268 000e 4342     		rsbs	r3, r0, #0
 1269 0010 5841     		adcs	r0, r0, r3
 1270 0012 C0B2     		uxtb	r0, r0
 1271              		.loc 1 537 0
 1272 0014 10BD     		pop	{r4, pc}
 1273              	.L107:
 1274 0016 C046     		.align	2
 1275              	.L106:
 1276 0018 1301FFFF 		.word	-65261
 1277              		.cfi_endproc
 1278              	.LFE188:
 1279              		.size	eeconfig_is_enabled, .-eeconfig_is_enabled
 1280              		.section	.text.eeconfig_read_debug,"ax",%progbits
 1281              		.align	1
 1282              		.p2align 4,,15
 1283              		.global	eeconfig_read_debug
 1284              		.syntax unified
 1285              		.code	16
 1286              		.thumb_func
 1287              		.fpu softvfp
 1288              		.type	eeconfig_read_debug, %function
 1289              	eeconfig_read_debug:
 1290              	.LFB189:
 1291              		.loc 1 539 0
 1292              		.cfi_startproc
 1293              		@ args = 0, pretend = 0, frame = 0
 1294              		@ frame_needed = 0, uses_anonymous_args = 0
 1295 0000 10B5     		push	{r4, lr}
 1296              		.cfi_def_cfa_offset 8
 1297              		.cfi_offset 4, -8
 1298              		.cfi_offset 14, -4
 1299              		.loc 1 539 0
 1300 0002 0220     		movs	r0, #2
 1301 0004 FFF7FEFF 		bl	eeprom_read_byte
 1302              	.LVL148:
 1303              		@ sp needed
 1304 0008 10BD     		pop	{r4, pc}
 1305              		.cfi_endproc
 1306              	.LFE189:
 1307              		.size	eeconfig_read_debug, .-eeconfig_read_debug
 1308 000a C046     		.section	.text.eeconfig_write_debug,"ax",%progbits
 1309              		.align	1
 1310              		.p2align 4,,15
 1311              		.global	eeconfig_write_debug
ARM GAS  /var/folders/t8/16hdwfmd2fg_d3q6dgx6bpmw0000gn/T//ccq4PCxj.s 			page 24


 1312              		.syntax unified
 1313              		.code	16
 1314              		.thumb_func
 1315              		.fpu softvfp
 1316              		.type	eeconfig_write_debug, %function
 1317              	eeconfig_write_debug:
 1318              	.LFB190:
 1319              		.loc 1 540 0
 1320              		.cfi_startproc
 1321              		@ args = 0, pretend = 0, frame = 0
 1322              		@ frame_needed = 0, uses_anonymous_args = 0
 1323              	.LVL149:
 1324 0000 10B5     		push	{r4, lr}
 1325              		.cfi_def_cfa_offset 8
 1326              		.cfi_offset 4, -8
 1327              		.cfi_offset 14, -4
 1328              		.loc 1 540 0
 1329 0002 0100     		movs	r1, r0
 1330 0004 0220     		movs	r0, #2
 1331              	.LVL150:
 1332 0006 FFF7FEFF 		bl	eeprom_write_byte
 1333              	.LVL151:
 1334              		@ sp needed
 1335 000a 10BD     		pop	{r4, pc}
 1336              		.cfi_endproc
 1337              	.LFE190:
 1338              		.size	eeconfig_write_debug, .-eeconfig_write_debug
 1339              		.section	.text.eeconfig_read_default_layer,"ax",%progbits
 1340              		.align	1
 1341              		.p2align 4,,15
 1342              		.global	eeconfig_read_default_layer
 1343              		.syntax unified
 1344              		.code	16
 1345              		.thumb_func
 1346              		.fpu softvfp
 1347              		.type	eeconfig_read_default_layer, %function
 1348              	eeconfig_read_default_layer:
 1349              	.LFB191:
 1350              		.loc 1 542 0
 1351              		.cfi_startproc
 1352              		@ args = 0, pretend = 0, frame = 0
 1353              		@ frame_needed = 0, uses_anonymous_args = 0
 1354 0000 10B5     		push	{r4, lr}
 1355              		.cfi_def_cfa_offset 8
 1356              		.cfi_offset 4, -8
 1357              		.cfi_offset 14, -4
 1358              		.loc 1 542 0
 1359 0002 0320     		movs	r0, #3
 1360 0004 FFF7FEFF 		bl	eeprom_read_byte
 1361              	.LVL152:
 1362              		@ sp needed
 1363 0008 10BD     		pop	{r4, pc}
 1364              		.cfi_endproc
 1365              	.LFE191:
 1366              		.size	eeconfig_read_default_layer, .-eeconfig_read_default_layer
 1367 000a C046     		.section	.text.eeconfig_write_default_layer,"ax",%progbits
 1368              		.align	1
ARM GAS  /var/folders/t8/16hdwfmd2fg_d3q6dgx6bpmw0000gn/T//ccq4PCxj.s 			page 25


 1369              		.p2align 4,,15
 1370              		.global	eeconfig_write_default_layer
 1371              		.syntax unified
 1372              		.code	16
 1373              		.thumb_func
 1374              		.fpu softvfp
 1375              		.type	eeconfig_write_default_layer, %function
 1376              	eeconfig_write_default_layer:
 1377              	.LFB192:
 1378              		.loc 1 543 0
 1379              		.cfi_startproc
 1380              		@ args = 0, pretend = 0, frame = 0
 1381              		@ frame_needed = 0, uses_anonymous_args = 0
 1382              	.LVL153:
 1383 0000 10B5     		push	{r4, lr}
 1384              		.cfi_def_cfa_offset 8
 1385              		.cfi_offset 4, -8
 1386              		.cfi_offset 14, -4
 1387              		.loc 1 543 0
 1388 0002 0100     		movs	r1, r0
 1389 0004 0320     		movs	r0, #3
 1390              	.LVL154:
 1391 0006 FFF7FEFF 		bl	eeprom_write_byte
 1392              	.LVL155:
 1393              		@ sp needed
 1394 000a 10BD     		pop	{r4, pc}
 1395              		.cfi_endproc
 1396              	.LFE192:
 1397              		.size	eeconfig_write_default_layer, .-eeconfig_write_default_layer
 1398              		.section	.text.eeconfig_read_keymap,"ax",%progbits
 1399              		.align	1
 1400              		.p2align 4,,15
 1401              		.global	eeconfig_read_keymap
 1402              		.syntax unified
 1403              		.code	16
 1404              		.thumb_func
 1405              		.fpu softvfp
 1406              		.type	eeconfig_read_keymap, %function
 1407              	eeconfig_read_keymap:
 1408              	.LFB193:
 1409              		.loc 1 545 0
 1410              		.cfi_startproc
 1411              		@ args = 0, pretend = 0, frame = 0
 1412              		@ frame_needed = 0, uses_anonymous_args = 0
 1413 0000 10B5     		push	{r4, lr}
 1414              		.cfi_def_cfa_offset 8
 1415              		.cfi_offset 4, -8
 1416              		.cfi_offset 14, -4
 1417              		.loc 1 545 0
 1418 0002 0420     		movs	r0, #4
 1419 0004 FFF7FEFF 		bl	eeprom_read_byte
 1420              	.LVL156:
 1421              		@ sp needed
 1422 0008 10BD     		pop	{r4, pc}
 1423              		.cfi_endproc
 1424              	.LFE193:
 1425              		.size	eeconfig_read_keymap, .-eeconfig_read_keymap
ARM GAS  /var/folders/t8/16hdwfmd2fg_d3q6dgx6bpmw0000gn/T//ccq4PCxj.s 			page 26


 1426 000a C046     		.section	.text.eeconfig_write_keymap,"ax",%progbits
 1427              		.align	1
 1428              		.p2align 4,,15
 1429              		.global	eeconfig_write_keymap
 1430              		.syntax unified
 1431              		.code	16
 1432              		.thumb_func
 1433              		.fpu softvfp
 1434              		.type	eeconfig_write_keymap, %function
 1435              	eeconfig_write_keymap:
 1436              	.LFB194:
 1437              		.loc 1 546 0
 1438              		.cfi_startproc
 1439              		@ args = 0, pretend = 0, frame = 0
 1440              		@ frame_needed = 0, uses_anonymous_args = 0
 1441              	.LVL157:
 1442 0000 10B5     		push	{r4, lr}
 1443              		.cfi_def_cfa_offset 8
 1444              		.cfi_offset 4, -8
 1445              		.cfi_offset 14, -4
 1446              		.loc 1 546 0
 1447 0002 0100     		movs	r1, r0
 1448 0004 0420     		movs	r0, #4
 1449              	.LVL158:
 1450 0006 FFF7FEFF 		bl	eeprom_write_byte
 1451              	.LVL159:
 1452              		@ sp needed
 1453 000a 10BD     		pop	{r4, pc}
 1454              		.cfi_endproc
 1455              	.LFE194:
 1456              		.size	eeconfig_write_keymap, .-eeconfig_write_keymap
 1457              		.section	.rodata
 1458              		.align	2
 1459              		.set	.LANCHOR1,. + 0
 1460              	.LC0:
 1461 0000 8023     		.short	9088
 1462 0002 0370     		.short	28675
 1463 0004 0378     		.short	30723
 1464 0006 5BB2     		.short	-19877
 1465 0008 002B     		.short	11008
 1466 000a FBDA     		.short	-9477
 1467 000c 7047     		.short	18288
 1468              		.section	.bss.flashend,"aw",%nobits
 1469              		.align	2
 1470              		.set	.LANCHOR0,. + 0
 1471              		.type	flashend, %object
 1472              		.size	flashend, 4
 1473              	flashend:
 1474 0000 00000000 		.space	4
 1475              		.text
 1476              	.Letext0:
 1477              		.file 3 "/usr/local/Caskroom/gcc-arm-embedded/7-2017-q4-major/gcc-arm-none-eabi-7-2017-q4-major/li
 1478              		.file 4 "/usr/local/Caskroom/gcc-arm-embedded/7-2017-q4-major/gcc-arm-none-eabi-7-2017-q4-major/ar
 1479              		.file 5 "/usr/local/Caskroom/gcc-arm-embedded/7-2017-q4-major/gcc-arm-none-eabi-7-2017-q4-major/ar
 1480              		.file 6 "../../tmk_core/tool/chibios/ChibiOS/os/common/ports/ARMCMx/compilers/GCC/chtypes.h"
 1481              		.file 7 "../../tmk_core/tool/chibios/ChibiOS/os/rt/include/chsystypes.h"
 1482              		.file 8 "../../tmk_core/tool/chibios/ChibiOS/os/rt/include/chschd.h"
ARM GAS  /var/folders/t8/16hdwfmd2fg_d3q6dgx6bpmw0000gn/T//ccq4PCxj.s 			page 27


 1483              		.file 9 "../../tmk_core/tool/chibios/ChibiOS-Contrib/os/common/ext/CMSIS/KINETIS/kl2xz.h"
 1484              		.file 10 "../../tmk_core/tool/chibios/ChibiOS/os/common/ports/ARMCMx/chcore.h"
 1485              		.file 11 "../../tmk_core/tool/chibios/ChibiOS/os/common/ports/ARMCMx/chcore_v6m.h"
 1486              		.file 12 "../../tmk_core/tool/chibios/ChibiOS/os/rt/include/chsem.h"
 1487              		.file 13 "../../tmk_core/tool/chibios/ChibiOS/os/rt/include/chmtx.h"
 1488              		.file 14 "../../tmk_core/tool/chibios/ChibiOS/os/rt/include/chregistry.h"
 1489              		.file 15 "../../tmk_core/tool/chibios/ChibiOS/os/rt/include/chsys.h"
 1490              		.file 16 "../../tmk_core/tool/chibios/ChibiOS-Contrib/os/hal/ports/KINETIS/LLD/hal_pal_lld.h"
 1491              		.file 17 "../../tmk_core/tool/chibios/ChibiOS/os/hal/include/hal_usb.h"
 1492              		.file 18 "../../tmk_core/tool/chibios/ChibiOS-Contrib/os/hal/ports/KINETIS/LLD/hal_usb_lld.h"