ARM GAS  /var/folders/t8/16hdwfmd2fg_d3q6dgx6bpmw0000gn/T//cc9y1LiY.s 			page 1


   1              		.cpu cortex-m0plus
   2              		.eabi_attribute 20, 1
   3              		.eabi_attribute 21, 1
   4              		.eabi_attribute 23, 3
   5              		.eabi_attribute 24, 1
   6              		.eabi_attribute 25, 1
   7              		.eabi_attribute 26, 1
   8              		.eabi_attribute 30, 2
   9              		.eabi_attribute 34, 0
  10              		.eabi_attribute 18, 4
  11              		.file	"hal_usb_lld.c"
  12              		.text
  13              	.Ltext0:
  14              		.cfi_sections	.debug_frame
  15              		.section	.text.usb_alloc,"ax",%progbits
  16              		.align	1
  17              		.p2align 4,,15
  18              		.global	usb_alloc
  19              		.syntax unified
  20              		.code	16
  21              		.thumb_func
  22              		.fpu softvfp
  23              		.type	usb_alloc, %function
  24              	usb_alloc:
  25              	.LFB174:
  26              		.file 1 "../../tmk_core/tool/chibios/ChibiOS-Contrib/os/hal/ports/KINETIS/LLD/hal_usb_lld.c"
  27              		.loc 1 144 0
  28              		.cfi_startproc
  29              		@ args = 0, pretend = 0, frame = 0
  30              		@ frame_needed = 0, uses_anonymous_args = 0
  31              		@ link register save eliminated.
  32              	.LVL0:
  33              		.loc 1 146 0
  34 0000 064A     		ldr	r2, .L7
  35 0002 1378     		ldrb	r3, [r2]
  36 0004 3F2B     		cmp	r3, #63
  37 0006 00D9     		bls	.L5
  38              	.L2:
  39 0008 FEE7     		b	.L2
  40              	.L5:
  41              		.loc 1 147 0
  42 000a 1378     		ldrb	r3, [r2]
  43 000c 0448     		ldr	r0, .L7+4
  44              	.LVL1:
  45 000e DBB2     		uxtb	r3, r3
  46 0010 591C     		adds	r1, r3, #1
  47 0012 C9B2     		uxtb	r1, r1
  48 0014 9B01     		lsls	r3, r3, #6
  49 0016 1818     		adds	r0, r3, r0
  50 0018 1170     		strb	r1, [r2]
  51              		.loc 1 149 0
  52              		@ sp needed
  53 001a 7047     		bx	lr
  54              	.L8:
  55              		.align	2
  56              	.L7:
  57 001c 00000000 		.word	.LANCHOR0
ARM GAS  /var/folders/t8/16hdwfmd2fg_d3q6dgx6bpmw0000gn/T//cc9y1LiY.s 			page 2


  58 0020 00000000 		.word	_usbb
  59              		.cfi_endproc
  60              	.LFE174:
  61              		.size	usb_alloc, .-usb_alloc
  62              		.section	.text.usb_packet_transmit,"ax",%progbits
  63              		.align	1
  64              		.p2align 4,,15
  65              		.global	usb_packet_transmit
  66              		.syntax unified
  67              		.code	16
  68              		.thumb_func
  69              		.fpu softvfp
  70              		.type	usb_packet_transmit, %function
  71              	usb_packet_transmit:
  72              	.LFB175:
  73              		.loc 1 156 0
  74              		.cfi_startproc
  75              		@ args = 0, pretend = 0, frame = 0
  76              		@ frame_needed = 0, uses_anonymous_args = 0
  77              	.LVL2:
  78 0000 F0B5     		push	{r4, r5, r6, r7, lr}
  79              		.cfi_def_cfa_offset 20
  80              		.cfi_offset 4, -20
  81              		.cfi_offset 5, -16
  82              		.cfi_offset 6, -12
  83              		.cfi_offset 7, -8
  84              		.cfi_offset 14, -4
  85              		.loc 1 160 0
  86 0002 0224     		movs	r4, #2
  87              		.loc 1 157 0
  88 0004 8B1C     		adds	r3, r1, #2
  89 0006 9B00     		lsls	r3, r3, #2
  90 0008 C018     		adds	r0, r0, r3
  91              	.LVL3:
  92 000a 4068     		ldr	r0, [r0, #4]
  93              	.LVL4:
  94              		.loc 1 160 0
  95 000c 8900     		lsls	r1, r1, #2
  96              	.LVL5:
  97              		.loc 1 158 0
  98 000e 4569     		ldr	r5, [r0, #20]
  99              	.LVL6:
 100              		.loc 1 162 0
 101 0010 008A     		ldrh	r0, [r0, #16]
 102              	.LVL7:
 103              		.loc 1 160 0
 104 0012 2B7C     		ldrb	r3, [r5, #16]
 105              	.LVL8:
 106 0014 2143     		orrs	r1, r4
 107 0016 1943     		orrs	r1, r3
 108              	.LVL9:
 109 0018 9042     		cmp	r0, r2
 110 001a 00D9     		bls	.L10
 111 001c 1000     		movs	r0, r2
 112              	.L10:
 113              	.LVL10:
 114              		.loc 1 167 0
ARM GAS  /var/folders/t8/16hdwfmd2fg_d3q6dgx6bpmw0000gn/T//cc9y1LiY.s 			page 3


 115 001e 0028     		cmp	r0, #0
 116 0020 18D0     		beq	.L17
 117 0022 0023     		movs	r3, #0
 118 0024 0D4F     		ldr	r7, .L18
 119 0026 CC00     		lsls	r4, r1, #3
 120              		.loc 1 168 0
 121 0028 3E19     		adds	r6, r7, r4
 122              	.LVL11:
 123              	.L12:
 124              		.loc 1 168 0 is_stmt 0 discriminator 3
 125 002a AA68     		ldr	r2, [r5, #8]
 126 002c D15C     		ldrb	r1, [r2, r3]
 127 002e 7268     		ldr	r2, [r6, #4]
 128 0030 D154     		strb	r1, [r2, r3]
 129              		.loc 1 167 0 is_stmt 1 discriminator 3
 130 0032 0133     		adds	r3, r3, #1
 131              	.LVL12:
 132 0034 8342     		cmp	r3, r0
 133 0036 F8D1     		bne	.L12
 134 0038 2B7C     		ldrb	r3, [r5, #16]
 135              	.LVL13:
 136              	.L11:
 137              		.loc 1 171 0
 138 003a 8821     		movs	r1, #136
 139 003c 6A7C     		ldrb	r2, [r5, #17]
 140 003e 0004     		lsls	r0, r0, #16
 141              	.LVL14:
 142 0040 0843     		orrs	r0, r1
 143 0042 9101     		lsls	r1, r2, #6
 144 0044 0843     		orrs	r0, r1
 145              		.loc 1 173 0
 146 0046 0121     		movs	r1, #1
 147 0048 4A40     		eors	r2, r1
 148              		.loc 1 174 0
 149 004a 4B40     		eors	r3, r1
 150              		.loc 1 171 0
 151 004c 3851     		str	r0, [r7, r4]
 152              		.loc 1 175 0
 153              		@ sp needed
 154              		.loc 1 173 0
 155 004e 6A74     		strb	r2, [r5, #17]
 156              		.loc 1 174 0
 157 0050 2B74     		strb	r3, [r5, #16]
 158              	.LVL15:
 159              		.loc 1 175 0
 160 0052 F0BD     		pop	{r4, r5, r6, r7, pc}
 161              	.LVL16:
 162              	.L17:
 163 0054 014F     		ldr	r7, .L18
 164 0056 CC00     		lsls	r4, r1, #3
 165 0058 EFE7     		b	.L11
 166              	.L19:
 167 005a C046     		.align	2
 168              	.L18:
 169 005c 00000000 		.word	_bdt
 170              		.cfi_endproc
 171              	.LFE175:
ARM GAS  /var/folders/t8/16hdwfmd2fg_d3q6dgx6bpmw0000gn/T//cc9y1LiY.s 			page 4


 172              		.size	usb_packet_transmit, .-usb_packet_transmit
 173              		.global	__aeabi_uidiv
 174              		.section	.text.usb_packet_receive,"ax",%progbits
 175              		.align	1
 176              		.p2align 4,,15
 177              		.global	usb_packet_receive
 178              		.syntax unified
 179              		.code	16
 180              		.thumb_func
 181              		.fpu softvfp
 182              		.type	usb_packet_receive, %function
 183              	usb_packet_receive:
 184              	.LFB176:
 185              		.loc 1 179 0
 186              		.cfi_startproc
 187              		@ args = 0, pretend = 0, frame = 0
 188              		@ frame_needed = 0, uses_anonymous_args = 0
 189              	.LVL17:
 190 0000 8446     		mov	ip, r0
 191 0002 8900     		lsls	r1, r1, #2
 192              	.LVL18:
 193 0004 F0B5     		push	{r4, r5, r6, r7, lr}
 194              		.cfi_def_cfa_offset 20
 195              		.cfi_offset 4, -20
 196              		.cfi_offset 5, -16
 197              		.cfi_offset 6, -12
 198              		.cfi_offset 7, -8
 199              		.cfi_offset 14, -4
 200 0006 8C44     		add	ip, ip, r1
 201 0008 C646     		mov	lr, r8
 202              		.loc 1 180 0
 203 000a 6346     		mov	r3, ip
 204              		.loc 1 179 0
 205 000c 00B5     		push	{lr}
 206              		.cfi_def_cfa_offset 24
 207              		.cfi_offset 8, -24
 208              		.loc 1 180 0
 209 000e DF68     		ldr	r7, [r3, #12]
 210              	.LVL19:
 211              		.loc 1 181 0
 212 0010 BD69     		ldr	r5, [r7, #24]
 213              	.LVL20:
 214              		.loc 1 183 0
 215 0012 AB7C     		ldrb	r3, [r5, #18]
 216 0014 1943     		orrs	r1, r3
 217              	.LVL21:
 218              		.loc 1 185 0
 219 0016 7B8A     		ldrh	r3, [r7, #18]
 220 0018 1C00     		movs	r4, r3
 221 001a 9342     		cmp	r3, r2
 222 001c 00D9     		bls	.L21
 223 001e 1400     		movs	r4, r2
 224              	.L21:
 225              	.LVL22:
 226              		.loc 1 190 0
 227 0020 002C     		cmp	r4, #0
 228 0022 29D0     		beq	.L26
ARM GAS  /var/folders/t8/16hdwfmd2fg_d3q6dgx6bpmw0000gn/T//cc9y1LiY.s 			page 5


 229 0024 CA00     		lsls	r2, r1, #3
 230 0026 0023     		movs	r3, #0
 231 0028 9046     		mov	r8, r2
 232 002a 1648     		ldr	r0, .L29
 233              	.LVL23:
 234              		.loc 1 191 0
 235 002c 8618     		adds	r6, r0, r2
 236              	.LVL24:
 237              	.L23:
 238              		.loc 1 191 0 is_stmt 0 discriminator 3
 239 002e 7268     		ldr	r2, [r6, #4]
 240 0030 A968     		ldr	r1, [r5, #8]
 241 0032 D25C     		ldrb	r2, [r2, r3]
 242 0034 CA54     		strb	r2, [r1, r3]
 243              		.loc 1 190 0 is_stmt 1 discriminator 3
 244 0036 0133     		adds	r3, r3, #1
 245              	.LVL25:
 246 0038 A342     		cmp	r3, r4
 247 003a F8D1     		bne	.L23
 248 003c 6246     		mov	r2, ip
 249 003e 7B8A     		ldrh	r3, [r7, #18]
 250              	.LVL26:
 251 0040 D768     		ldr	r7, [r2, #12]
 252              	.LVL27:
 253 0042 BC69     		ldr	r4, [r7, #24]
 254              	.LVL28:
 255              	.L22:
 256              		.loc 1 197 0
 257 0044 8821     		movs	r1, #136
 258 0046 EE7C     		ldrb	r6, [r5, #19]
 259 0048 1B04     		lsls	r3, r3, #16
 260 004a B201     		lsls	r2, r6, #6
 261 004c 0A43     		orrs	r2, r1
 262 004e 1343     		orrs	r3, r2
 263 0050 4246     		mov	r2, r8
 264 0052 8350     		str	r3, [r0, r2]
 265              		.loc 1 198 0
 266 0054 0123     		movs	r3, #1
 267              	.LBB120:
 268              	.LBB121:
 269              		.loc 1 748 0
 270 0056 2068     		ldr	r0, [r4]
 271              	.LBE121:
 272              	.LBE120:
 273              		.loc 1 198 0
 274 0058 5E40     		eors	r6, r3
 275 005a EE74     		strb	r6, [r5, #19]
 276              	.LVL29:
 277              	.LBB124:
 278              	.LBB122:
 279              		.loc 1 748 0
 280 005c 0028     		cmp	r0, #0
 281 005e 08D0     		beq	.L28
 282              		.loc 1 751 0
 283 0060 798A     		ldrh	r1, [r7, #18]
 284 0062 0138     		subs	r0, r0, #1
 285 0064 4018     		adds	r0, r0, r1
ARM GAS  /var/folders/t8/16hdwfmd2fg_d3q6dgx6bpmw0000gn/T//cc9y1LiY.s 			page 6


 286 0066 FFF7FEFF 		bl	__aeabi_uidiv
 287              	.LVL30:
 288 006a 2082     		strh	r0, [r4, #16]
 289              	.LVL31:
 290              	.L20:
 291              	.LBE122:
 292              	.LBE124:
 293              		.loc 1 200 0
 294              		@ sp needed
 295              	.LVL32:
 296 006c 04BC     		pop	{r2}
 297 006e 9046     		mov	r8, r2
 298 0070 F0BD     		pop	{r4, r5, r6, r7, pc}
 299              	.LVL33:
 300              	.L28:
 301              	.LBB125:
 302              	.LBB123:
 303              		.loc 1 749 0
 304 0072 0123     		movs	r3, #1
 305 0074 2382     		strh	r3, [r4, #16]
 306 0076 F9E7     		b	.L20
 307              	.LVL34:
 308              	.L26:
 309 0078 CA00     		lsls	r2, r1, #3
 310              	.LBE123:
 311              	.LBE125:
 312              		.loc 1 190 0
 313 007a 2C00     		movs	r4, r5
 314              	.LVL35:
 315 007c 0148     		ldr	r0, .L29
 316              	.LVL36:
 317 007e 9046     		mov	r8, r2
 318 0080 E0E7     		b	.L22
 319              	.L30:
 320 0082 C046     		.align	2
 321              	.L29:
 322 0084 00000000 		.word	_bdt
 323              		.cfi_endproc
 324              	.LFE176:
 325              		.size	usb_packet_receive, .-usb_packet_receive
 326              		.section	.text.VectorA0,"ax",%progbits
 327              		.align	1
 328              		.p2align 4,,15
 329              		.global	VectorA0
 330              		.syntax unified
 331              		.code	16
 332              		.thumb_func
 333              		.fpu softvfp
 334              		.type	VectorA0, %function
 335              	VectorA0:
 336              	.LFB177:
 337              		.loc 1 212 0
 338              		.cfi_startproc
 339              		@ args = 0, pretend = 0, frame = 8
 340              		@ frame_needed = 0, uses_anonymous_args = 0
 341              	.LVL37:
 342 0000 F0B5     		push	{r4, r5, r6, r7, lr}
ARM GAS  /var/folders/t8/16hdwfmd2fg_d3q6dgx6bpmw0000gn/T//cc9y1LiY.s 			page 7


 343              		.cfi_def_cfa_offset 20
 344              		.cfi_offset 4, -20
 345              		.cfi_offset 5, -16
 346              		.cfi_offset 6, -12
 347              		.cfi_offset 7, -8
 348              		.cfi_offset 14, -4
 349 0002 DE46     		mov	lr, fp
 350 0004 5746     		mov	r7, r10
 351 0006 4E46     		mov	r6, r9
 352 0008 4546     		mov	r5, r8
 353              		.loc 1 214 0
 354 000a 8023     		movs	r3, #128
 355              		.loc 1 212 0
 356 000c E0B5     		push	{r5, r6, r7, lr}
 357              		.cfi_def_cfa_offset 36
 358              		.cfi_offset 8, -36
 359              		.cfi_offset 9, -32
 360              		.cfi_offset 10, -28
 361              		.cfi_offset 11, -24
 362              		.loc 1 214 0
 363 000e C14A     		ldr	r2, .L130
 364              		.loc 1 212 0
 365 0010 83B0     		sub	sp, sp, #12
 366              		.cfi_def_cfa_offset 48
 367              		.loc 1 214 0
 368 0012 D45C     		ldrb	r4, [r2, r3]
 369              		.loc 1 216 0
 370 0014 7346     		mov	r3, lr
 371              		.loc 1 214 0
 372 0016 E4B2     		uxtb	r4, r4
 373              	.LVL38:
 374              		.loc 1 216 0
 375 0018 0193     		str	r3, [sp, #4]
 376              	.LVL39:
 377 001a FFF7FEFF 		bl	_dbg_check_enter_isr
 378              	.LVL40:
 379              		.loc 1 219 0
 380 001e 6307     		lsls	r3, r4, #29
 381 0020 0AD5     		bpl	.L32
 382              		.loc 1 220 0
 383 0022 BD4F     		ldr	r7, .L130+4
 384 0024 7B68     		ldr	r3, [r7, #4]
 385 0026 DB68     		ldr	r3, [r3, #12]
 386 0028 002B     		cmp	r3, #0
 387 002a 01D0     		beq	.L33
 388              		.loc 1 220 0 is_stmt 0 discriminator 1
 389 002c 3800     		movs	r0, r7
 390 002e 9847     		blx	r3
 391              	.LVL41:
 392              	.L33:
 393              		.loc 1 221 0 is_stmt 1
 394 0030 8023     		movs	r3, #128
 395 0032 0421     		movs	r1, #4
 396 0034 B74A     		ldr	r2, .L130
 397 0036 D154     		strb	r1, [r2, r3]
 398              	.L32:
 399              		.loc 1 225 0
ARM GAS  /var/folders/t8/16hdwfmd2fg_d3q6dgx6bpmw0000gn/T//cc9y1LiY.s 			page 8


 400 0038 2307     		lsls	r3, r4, #28
 401 003a 00D4     		bmi	.LCB375
 402 003c 8FE0     		b	.L34	@long jump
 403              	.LCB375:
 404 003e B74B     		ldr	r3, .L130+8
 405 0040 B54F     		ldr	r7, .L130+4
 406 0042 9B46     		mov	fp, r3
 407              	.LVL42:
 408              	.LBB126:
 409              		.loc 1 236 0
 410 0044 0123     		movs	r3, #1
 411              		.loc 1 226 0
 412 0046 B34E     		ldr	r6, .L130
 413              		.loc 1 236 0
 414 0048 9846     		mov	r8, r3
 415 004a 13E0     		b	.L52
 416              	.LVL43:
 417              	.L122:
 418              		.loc 1 240 0 discriminator 1
 419 004c AB69     		ldr	r3, [r5, #24]
 420              	.LVL44:
 421 004e 002B     		cmp	r3, #0
 422 0050 00D1     		bne	.LCB400
 423 0052 B1E0     		b	.L36	@long jump
 424              	.LCB400:
 425              		.loc 1 241 0
 426 0054 9874     		strb	r0, [r3, #18]
 427              		.loc 1 243 0
 428 0056 0929     		cmp	r1, #9
 429 0058 00D1     		bne	.LCB404
 430 005a CDE0     		b	.L38	@long jump
 431              	.LCB404:
 432 005c 0D29     		cmp	r1, #13
 433 005e 00D1     		bne	.LCB406
 434 0060 AFE0     		b	.L39	@long jump
 435              	.LCB406:
 436 0062 0129     		cmp	r1, #1
 437 0064 2FD0     		beq	.L40
 438              	.L41:
 439              		.loc 1 318 0
 440 0066 8022     		movs	r2, #128
 441 0068 0823     		movs	r3, #8
 442 006a B354     		strb	r3, [r6, r2]
 443              		.loc 1 319 0
 444 006c B45C     		ldrb	r4, [r6, r2]
 445              	.LVL45:
 446 006e E4B2     		uxtb	r4, r4
 447              	.LBE126:
 448              		.loc 1 225 0
 449 0070 2342     		tst	r3, r4
 450 0072 74D0     		beq	.L34
 451              	.LVL46:
 452              	.L52:
 453              	.LBB198:
 454              		.loc 1 226 0
 455 0074 9023     		movs	r3, #144
 456 0076 F35C     		ldrb	r3, [r6, r3]
ARM GAS  /var/folders/t8/16hdwfmd2fg_d3q6dgx6bpmw0000gn/T//cc9y1LiY.s 			page 9


 457 0078 DBB2     		uxtb	r3, r3
 458              	.LVL47:
 459              		.loc 1 227 0
 460 007a 1C09     		lsrs	r4, r3, #4
 461              	.LVL48:
 462              		.loc 1 232 0
 463 007c A21C     		adds	r2, r4, #2
 464 007e 9146     		mov	r9, r2
 465 0080 9200     		lsls	r2, r2, #2
 466 0082 BA18     		adds	r2, r7, r2
 467 0084 5568     		ldr	r5, [r2, #4]
 468              	.LVL49:
 469              		.loc 1 236 0
 470 0086 4246     		mov	r2, r8
 471              		.loc 1 235 0
 472 0088 9810     		asrs	r0, r3, #2
 473              	.LVL50:
 474              		.loc 1 236 0
 475 008a DB10     		asrs	r3, r3, #3
 476              	.LVL51:
 477 008c 1340     		ands	r3, r2
 478              	.LVL52:
 479              		.loc 1 237 0
 480 008e A200     		lsls	r2, r4, #2
 481 0090 9446     		mov	ip, r2
 482              		.loc 1 235 0
 483 0092 4246     		mov	r2, r8
 484 0094 1040     		ands	r0, r2
 485              	.LVL53:
 486              		.loc 1 237 0
 487 0096 6246     		mov	r2, ip
 488 0098 5900     		lsls	r1, r3, #1
 489 009a 0243     		orrs	r2, r0
 490 009c 0A43     		orrs	r2, r1
 491              	.LVL54:
 492 009e D200     		lsls	r2, r2, #3
 493              	.LVL55:
 494 00a0 9246     		mov	r10, r2
 495 00a2 5A46     		mov	r2, fp
 496 00a4 5146     		mov	r1, r10
 497              	.LVL56:
 498 00a6 5258     		ldr	r2, [r2, r1]
 499 00a8 9106     		lsls	r1, r2, #26
 500 00aa 090F     		lsrs	r1, r1, #28
 501              		.loc 1 240 0
 502 00ac 002B     		cmp	r3, #0
 503 00ae CDD0     		beq	.L122
 504              		.loc 1 243 0
 505 00b0 0929     		cmp	r1, #9
 506 00b2 00D1     		bne	.LCB483
 507 00b4 A0E0     		b	.L38	@long jump
 508              	.LCB483:
 509 00b6 0D29     		cmp	r1, #13
 510 00b8 00D1     		bne	.LCB485
 511 00ba 82E0     		b	.L39	@long jump
 512              	.LCB485:
 513 00bc 0129     		cmp	r1, #1
ARM GAS  /var/folders/t8/16hdwfmd2fg_d3q6dgx6bpmw0000gn/T//cc9y1LiY.s 			page 10


 514 00be D2D1     		bne	.L41
 515              	.LBB127:
 516              		.loc 1 290 0
 517 00c0 AB69     		ldr	r3, [r5, #24]
 518              	.LVL57:
 519 00c2 002B     		cmp	r3, #0
 520 00c4 CFD0     		beq	.L41
 521              	.L40:
 522              		.loc 1 292 0
 523 00c6 9201     		lsls	r2, r2, #6
 524 00c8 930D     		lsrs	r3, r2, #22
 525 00ca 9A46     		mov	r10, r3
 526              	.LVL58:
 527              	.LBB128:
 528              	.LBB129:
 529              	.LBB130:
 530              	.LBB131:
 531              	.LBB132:
 532              	.LBB133:
 533              	.LBB134:
 534              		.file 2 "../../tmk_core/tool/chibios/ChibiOS/os/common/ext/CMSIS/include/cmsis_gcc.h"
 535              		.loc 2 71 0
 536              		.syntax divided
 537              	@ 71 "../../tmk_core/tool/chibios/ChibiOS/os/common/ext/CMSIS/include/cmsis_gcc.h" 1
 538 00cc 72B6     		cpsid i
 539              	@ 0 "" 2
 540              		.thumb
 541              		.syntax unified
 542              	.LBE134:
 543              	.LBE133:
 544              	.LBE132:
 545              	.LBE131:
 546              		.file 3 "../../tmk_core/tool/chibios/ChibiOS/os/rt/include/chsys.h"
 547              		.loc 3 418 0
 548 00ce FFF7FEFF 		bl	_dbg_check_lock_from_isr
 549              	.LVL59:
 550              	.LBE130:
 551              	.LBE129:
 552              	.LBE128:
 553              		.loc 1 295 0
 554 00d2 5246     		mov	r2, r10
 555 00d4 2100     		movs	r1, r4
 556 00d6 3800     		movs	r0, r7
 557 00d8 FFF7FEFF 		bl	usb_packet_receive
 558              	.LVL60:
 559              	.LBB135:
 560              	.LBB136:
 561              	.LBB137:
 562              		.loc 3 436 0
 563 00dc FFF7FEFF 		bl	_dbg_check_unlock_from_isr
 564              	.LVL61:
 565              	.LBB138:
 566              	.LBB139:
 567              	.LBB140:
 568              	.LBB141:
 569              		.loc 2 60 0
 570              		.syntax divided
ARM GAS  /var/folders/t8/16hdwfmd2fg_d3q6dgx6bpmw0000gn/T//cc9y1LiY.s 			page 11


 571              	@ 60 "../../tmk_core/tool/chibios/ChibiOS/os/common/ext/CMSIS/include/cmsis_gcc.h" 1
 572 00e0 62B6     		cpsie i
 573              	@ 0 "" 2
 574              		.thumb
 575              		.syntax unified
 576              	.LBE141:
 577              	.LBE140:
 578              	.LBE139:
 579              	.LBE138:
 580              	.LBE137:
 581              	.LBE136:
 582              	.LBE135:
 583              		.loc 1 297 0
 584 00e2 5346     		mov	r3, r10
 585 00e4 002B     		cmp	r3, #0
 586 00e6 BED0     		beq	.L41
 587              		.loc 1 303 0
 588 00e8 5146     		mov	r1, r10
 589              		.loc 1 299 0
 590 00ea AB69     		ldr	r3, [r5, #24]
 591 00ec 9A68     		ldr	r2, [r3, #8]
 592 00ee 5244     		add	r2, r2, r10
 593 00f0 9A60     		str	r2, [r3, #8]
 594              		.loc 1 302 0
 595 00f2 5A68     		ldr	r2, [r3, #4]
 596 00f4 5244     		add	r2, r2, r10
 597 00f6 5A60     		str	r2, [r3, #4]
 598              		.loc 1 303 0
 599 00f8 1A68     		ldr	r2, [r3]
 600 00fa 521A     		subs	r2, r2, r1
 601 00fc 1A60     		str	r2, [r3]
 602              		.loc 1 304 0
 603 00fe 1A8A     		ldrh	r2, [r3, #16]
 604 0100 013A     		subs	r2, r2, #1
 605 0102 92B2     		uxth	r2, r2
 606 0104 1A82     		strh	r2, [r3, #16]
 607              		.loc 1 308 0
 608 0106 6B8A     		ldrh	r3, [r5, #18]
 609 0108 5345     		cmp	r3, r10
 610 010a 00D8     		bhi	.LCB565
 611 010c DEE0     		b	.L123	@long jump
 612              	.LCB565:
 613              	.L50:
 614              		.loc 1 310 0
 615 010e EB68     		ldr	r3, [r5, #12]
 616 0110 002B     		cmp	r3, #0
 617 0112 A8D0     		beq	.L41
 618              		.loc 1 311 0
 619 0114 4246     		mov	r2, r8
 620 0116 A240     		lsls	r2, r2, r4
 621 0118 7B89     		ldrh	r3, [r7, #10]
 622 011a 9343     		bics	r3, r2
 623 011c 7B81     		strh	r3, [r7, #10]
 624 011e 4B46     		mov	r3, r9
 625 0120 9B00     		lsls	r3, r3, #2
 626 0122 FB18     		adds	r3, r7, r3
 627 0124 5B68     		ldr	r3, [r3, #4]
ARM GAS  /var/folders/t8/16hdwfmd2fg_d3q6dgx6bpmw0000gn/T//cc9y1LiY.s 			page 12


 628 0126 DB68     		ldr	r3, [r3, #12]
 629 0128 002B     		cmp	r3, #0
 630 012a 02D0     		beq	.L51
 631              		.loc 1 311 0 is_stmt 0 discriminator 1
 632 012c 2100     		movs	r1, r4
 633 012e 3800     		movs	r0, r7
 634 0130 9847     		blx	r3
 635              	.LVL62:
 636              	.L51:
 637              	.LBB142:
 638              	.LBB143:
 639              	.LBB144:
 640              	.LBB145:
 641              	.LBB146:
 642              	.LBB147:
 643              	.LBB148:
 644              		.loc 2 71 0 is_stmt 1 discriminator 3
 645              		.syntax divided
 646              	@ 71 "../../tmk_core/tool/chibios/ChibiOS/os/common/ext/CMSIS/include/cmsis_gcc.h" 1
 647 0132 72B6     		cpsid i
 648              	@ 0 "" 2
 649              		.thumb
 650              		.syntax unified
 651              	.LBE148:
 652              	.LBE147:
 653              	.LBE146:
 654              	.LBE145:
 655              		.loc 3 418 0 discriminator 3
 656 0134 FFF7FEFF 		bl	_dbg_check_lock_from_isr
 657              	.LVL63:
 658              	.LBE144:
 659              	.LBE143:
 660              	.LBE142:
 661              		.loc 1 311 0 discriminator 3
 662 0138 4B46     		mov	r3, r9
 663 013a 9B00     		lsls	r3, r3, #2
 664 013c FB18     		adds	r3, r7, r3
 665 013e 5B68     		ldr	r3, [r3, #4]
 666 0140 9869     		ldr	r0, [r3, #24]
 667              	.LVL64:
 668              	.LBB149:
 669              	.LBB150:
 670              		.file 4 "../../tmk_core/tool/chibios/ChibiOS/os/hal/osal/rt/osal.h"
 671              		.loc 4 728 0 discriminator 3
 672 0142 4168     		ldr	r1, [r0, #4]
 673              	.LBE150:
 674              	.LBE149:
 675              		.loc 1 311 0 discriminator 3
 676 0144 0C30     		adds	r0, r0, #12
 677              	.LVL65:
 678              	.LBB152:
 679              	.LBB151:
 680              		.loc 4 728 0 discriminator 3
 681 0146 FFF7FEFF 		bl	chThdResumeI
 682              	.LVL66:
 683              	.LBE151:
 684              	.LBE152:
ARM GAS  /var/folders/t8/16hdwfmd2fg_d3q6dgx6bpmw0000gn/T//cc9y1LiY.s 			page 13


 685              	.LBB153:
 686              	.LBB154:
 687              	.LBB155:
 688              		.loc 3 436 0 discriminator 3
 689 014a FFF7FEFF 		bl	_dbg_check_unlock_from_isr
 690              	.LVL67:
 691              	.LBB156:
 692              	.LBB157:
 693              	.LBB158:
 694              	.LBB159:
 695              		.loc 2 60 0 discriminator 3
 696              		.syntax divided
 697              	@ 60 "../../tmk_core/tool/chibios/ChibiOS/os/common/ext/CMSIS/include/cmsis_gcc.h" 1
 698 014e 62B6     		cpsie i
 699              	@ 0 "" 2
 700              		.thumb
 701              		.syntax unified
 702              	.LBE159:
 703              	.LBE158:
 704              	.LBE157:
 705              	.LBE156:
 706              	.LBE155:
 707              	.LBE154:
 708              	.LBE153:
 709              	.LBE127:
 710              		.loc 1 318 0 discriminator 3
 711 0150 8022     		movs	r2, #128
 712 0152 0823     		movs	r3, #8
 713 0154 B354     		strb	r3, [r6, r2]
 714              		.loc 1 319 0 discriminator 3
 715 0156 B45C     		ldrb	r4, [r6, r2]
 716              	.LVL68:
 717 0158 E4B2     		uxtb	r4, r4
 718              	.LBE198:
 719              		.loc 1 225 0 discriminator 3
 720 015a 2342     		tst	r3, r4
 721 015c 8AD1     		bne	.L52
 722              	.LVL69:
 723              	.L34:
 724              		.loc 1 323 0
 725 015e 0125     		movs	r5, #1
 726 0160 2542     		tst	r5, r4
 727 0162 00D0     		beq	.LCB675
 728 0164 A6E0     		b	.L124	@long jump
 729              	.LCB675:
 730              		.loc 1 331 0
 731 0166 63B2     		sxtb	r3, r4
 732 0168 002B     		cmp	r3, #0
 733 016a 00DA     		bge	.LCB678
 734 016c 7CE0     		b	.L125	@long jump
 735              	.LCB678:
 736              		.loc 1 336 0
 737 016e 0223     		movs	r3, #2
 738 0170 2342     		tst	r3, r4
 739 0172 06D0     		beq	.L56
 740              	.L129:
 741              	.LBB199:
ARM GAS  /var/folders/t8/16hdwfmd2fg_d3q6dgx6bpmw0000gn/T//cc9y1LiY.s 			page 14


 742              		.loc 1 337 0
 743 0174 8820     		movs	r0, #136
 744 0176 674A     		ldr	r2, .L130
 745 0178 115C     		ldrb	r1, [r2, r0]
 746 017a C9B2     		uxtb	r1, r1
 747              	.LVL70:
 748              		.loc 1 338 0
 749 017c 1154     		strb	r1, [r2, r0]
 750              		.loc 1 339 0
 751 017e 8021     		movs	r1, #128
 752              	.LVL71:
 753 0180 5354     		strb	r3, [r2, r1]
 754              	.LVL72:
 755              	.L56:
 756              	.LBE199:
 757              		.loc 1 343 0
 758 0182 E306     		lsls	r3, r4, #27
 759 0184 08D5     		bpl	.L57
 760              		.loc 1 349 0
 761 0186 6448     		ldr	r0, .L130+4
 762 0188 0378     		ldrb	r3, [r0]
 763 018a 042B     		cmp	r3, #4
 764 018c 00D1     		bne	.LCB708
 765 018e B7E0     		b	.L126	@long jump
 766              	.LCB708:
 767              	.L58:
 768              		.loc 1 362 0
 769 0190 8023     		movs	r3, #128
 770 0192 1021     		movs	r1, #16
 771 0194 5F4A     		ldr	r2, .L130
 772 0196 D154     		strb	r1, [r2, r3]
 773              	.L57:
 774              		.loc 1 366 0
 775 0198 2025     		movs	r5, #32
 776 019a 2542     		tst	r5, r4
 777 019c 00D0     		beq	.LCB720
 778 019e 6BE0     		b	.L127	@long jump
 779              	.LCB720:
 780              	.L59:
 781              		.loc 1 382 0
 782 01a0 FFF7FEFF 		bl	_dbg_check_leave_isr
 783              	.LVL73:
 784 01a4 0198     		ldr	r0, [sp, #4]
 785 01a6 FFF7FEFF 		bl	_port_irq_epilogue
 786              	.LVL74:
 787              	.L31:
 788              		.loc 1 383 0
 789 01aa 03B0     		add	sp, sp, #12
 790              		@ sp needed
 791 01ac 3CBC     		pop	{r2, r3, r4, r5}
 792 01ae 9046     		mov	r8, r2
 793 01b0 9946     		mov	r9, r3
 794 01b2 A246     		mov	r10, r4
 795 01b4 AB46     		mov	fp, r5
 796 01b6 F0BD     		pop	{r4, r5, r6, r7, pc}
 797              	.LVL75:
 798              	.L36:
ARM GAS  /var/folders/t8/16hdwfmd2fg_d3q6dgx6bpmw0000gn/T//cc9y1LiY.s 			page 15


 799              	.LBB200:
 800              		.loc 1 243 0
 801 01b8 0929     		cmp	r1, #9
 802 01ba 1DD0     		beq	.L38
 803 01bc 0D29     		cmp	r1, #13
 804 01be 00D0     		beq	.LCB756
 805 01c0 51E7     		b	.L41	@long jump
 806              	.LCB756:
 807              	.L39:
 808              		.loc 1 248 0
 809 01c2 6246     		mov	r2, ip
 810 01c4 0223     		movs	r3, #2
 811 01c6 5946     		mov	r1, fp
 812 01c8 1343     		orrs	r3, r2
 813 01ca 0022     		movs	r2, #0
 814 01cc DB00     		lsls	r3, r3, #3
 815 01ce CA50     		str	r2, [r1, r3]
 816              		.loc 1 249 0
 817 01d0 6146     		mov	r1, ip
 818 01d2 0323     		movs	r3, #3
 819 01d4 0B43     		orrs	r3, r1
 820 01d6 5946     		mov	r1, fp
 821 01d8 DB00     		lsls	r3, r3, #3
 822 01da CA50     		str	r2, [r1, r3]
 823              		.loc 1 251 0
 824 01dc 4246     		mov	r2, r8
 825 01de 7B89     		ldrh	r3, [r7, #10]
 826              		.loc 1 256 0
 827 01e0 2100     		movs	r1, r4
 828              		.loc 1 251 0
 829 01e2 9343     		bics	r3, r2
 830 01e4 7B81     		strh	r3, [r7, #10]
 831              		.loc 1 253 0
 832 01e6 6B69     		ldr	r3, [r5, #20]
 833              		.loc 1 256 0
 834 01e8 3800     		movs	r0, r7
 835              		.loc 1 253 0
 836 01ea 5A74     		strb	r2, [r3, #17]
 837              		.loc 1 256 0
 838 01ec 6B68     		ldr	r3, [r5, #4]
 839 01ee 9847     		blx	r3
 840              	.LVL76:
 841              		.loc 1 259 0
 842 01f0 9423     		movs	r3, #148
 843 01f2 4246     		mov	r2, r8
 844 01f4 F254     		strb	r2, [r6, r3]
 845              		.loc 1 260 0
 846 01f6 36E7     		b	.L41
 847              	.L38:
 848              	.LBB160:
 849              		.loc 1 263 0
 850 01f8 6B69     		ldr	r3, [r5, #20]
 851 01fa 002B     		cmp	r3, #0
 852 01fc 00D1     		bne	.LCB799
 853 01fe 32E7     		b	.L41	@long jump
 854              	.LCB799:
 855              		.loc 1 266 0
ARM GAS  /var/folders/t8/16hdwfmd2fg_d3q6dgx6bpmw0000gn/T//cc9y1LiY.s 			page 16


 856 0200 002C     		cmp	r4, #0
 857 0202 06D1     		bne	.L44
 858              		.loc 1 266 0 is_stmt 0 discriminator 1
 859 0204 D422     		movs	r2, #212
 860 0206 BA5A     		ldrh	r2, [r7, r2]
 861 0208 052A     		cmp	r2, #5
 862 020a 63D0     		beq	.L45
 863              	.L121:
 864 020c 5A46     		mov	r2, fp
 865 020e 5146     		mov	r1, r10
 866 0210 5258     		ldr	r2, [r2, r1]
 867              	.L44:
 868              	.LVL77:
 869              		.loc 1 274 0 is_stmt 1
 870 0212 5968     		ldr	r1, [r3, #4]
 871              		.loc 1 273 0
 872 0214 9201     		lsls	r2, r2, #6
 873              	.LVL78:
 874              		.loc 1 274 0
 875 0216 920D     		lsrs	r2, r2, #22
 876              		.loc 1 275 0
 877 0218 1868     		ldr	r0, [r3]
 878              		.loc 1 274 0
 879 021a 5118     		adds	r1, r2, r1
 880 021c 5960     		str	r1, [r3, #4]
 881              		.loc 1 275 0
 882 021e 8142     		cmp	r1, r0
 883 0220 35D3     		bcc	.L128
 884              		.loc 1 284 0
 885 0222 AB68     		ldr	r3, [r5, #8]
 886 0224 002B     		cmp	r3, #0
 887 0226 00D1     		bne	.LCB833
 888 0228 1DE7     		b	.L41	@long jump
 889              	.LCB833:
 890              		.loc 1 285 0
 891 022a 4246     		mov	r2, r8
 892 022c A240     		lsls	r2, r2, r4
 893 022e 3B89     		ldrh	r3, [r7, #8]
 894 0230 9343     		bics	r3, r2
 895 0232 3B81     		strh	r3, [r7, #8]
 896 0234 4B46     		mov	r3, r9
 897 0236 9B00     		lsls	r3, r3, #2
 898 0238 FB18     		adds	r3, r7, r3
 899 023a 5B68     		ldr	r3, [r3, #4]
 900 023c 9B68     		ldr	r3, [r3, #8]
 901 023e 002B     		cmp	r3, #0
 902 0240 02D0     		beq	.L49
 903              		.loc 1 285 0 is_stmt 0 discriminator 1
 904 0242 2100     		movs	r1, r4
 905 0244 3800     		movs	r0, r7
 906 0246 9847     		blx	r3
 907              	.LVL79:
 908              	.L49:
 909              	.LBB161:
 910              	.LBB162:
 911              	.LBB163:
 912              	.LBB164:
ARM GAS  /var/folders/t8/16hdwfmd2fg_d3q6dgx6bpmw0000gn/T//cc9y1LiY.s 			page 17


 913              	.LBB165:
 914              	.LBB166:
 915              	.LBB167:
 916              		.loc 2 71 0 is_stmt 1 discriminator 3
 917              		.syntax divided
 918              	@ 71 "../../tmk_core/tool/chibios/ChibiOS/os/common/ext/CMSIS/include/cmsis_gcc.h" 1
 919 0248 72B6     		cpsid i
 920              	@ 0 "" 2
 921              		.thumb
 922              		.syntax unified
 923              	.LBE167:
 924              	.LBE166:
 925              	.LBE165:
 926              	.LBE164:
 927              		.loc 3 418 0 discriminator 3
 928 024a FFF7FEFF 		bl	_dbg_check_lock_from_isr
 929              	.LVL80:
 930              	.LBE163:
 931              	.LBE162:
 932              	.LBE161:
 933              		.loc 1 285 0 discriminator 3
 934 024e 4B46     		mov	r3, r9
 935 0250 9B00     		lsls	r3, r3, #2
 936 0252 FB18     		adds	r3, r7, r3
 937 0254 5B68     		ldr	r3, [r3, #4]
 938              	.LBB168:
 939              	.LBB169:
 940              		.loc 4 728 0 discriminator 3
 941 0256 0021     		movs	r1, #0
 942              	.LBE169:
 943              	.LBE168:
 944              		.loc 1 285 0 discriminator 3
 945 0258 5869     		ldr	r0, [r3, #20]
 946 025a 0C30     		adds	r0, r0, #12
 947              	.LBB171:
 948              	.LBB170:
 949              		.loc 4 728 0 discriminator 3
 950 025c FFF7FEFF 		bl	chThdResumeI
 951              	.LVL81:
 952              	.LBE170:
 953              	.LBE171:
 954              	.LBB172:
 955              	.LBB173:
 956              	.LBB174:
 957              		.loc 3 436 0 discriminator 3
 958 0260 FFF7FEFF 		bl	_dbg_check_unlock_from_isr
 959              	.LVL82:
 960              	.LBB175:
 961              	.LBB176:
 962              	.LBB177:
 963              	.LBB178:
 964              		.loc 2 60 0 discriminator 3
 965              		.syntax divided
 966              	@ 60 "../../tmk_core/tool/chibios/ChibiOS/os/common/ext/CMSIS/include/cmsis_gcc.h" 1
 967 0264 62B6     		cpsie i
 968              	@ 0 "" 2
 969              		.thumb
ARM GAS  /var/folders/t8/16hdwfmd2fg_d3q6dgx6bpmw0000gn/T//cc9y1LiY.s 			page 18


 970              		.syntax unified
 971 0266 FEE6     		b	.L41
 972              	.LVL83:
 973              	.L125:
 974              	.LBE178:
 975              	.LBE177:
 976              	.LBE176:
 977              	.LBE175:
 978              	.LBE174:
 979              	.LBE173:
 980              	.LBE172:
 981              	.LBE160:
 982              	.LBE200:
 983              		.loc 1 332 0
 984 0268 8023     		movs	r3, #128
 985 026a 2A4A     		ldr	r2, .L130
 986 026c D354     		strb	r3, [r2, r3]
 987              		.loc 1 336 0
 988 026e 0223     		movs	r3, #2
 989 0270 2342     		tst	r3, r4
 990 0272 00D1     		bne	.LCB928
 991 0274 85E7     		b	.L56	@long jump
 992              	.LCB928:
 993 0276 7DE7     		b	.L129
 994              	.L127:
 995              		.loc 1 369 0
 996 0278 8422     		movs	r2, #132
 997 027a 264C     		ldr	r4, .L130
 998              		.loc 1 376 0
 999 027c 2648     		ldr	r0, .L130+4
 1000              		.loc 1 369 0
 1001 027e A35C     		ldrb	r3, [r4, r2]
 1002 0280 AB43     		bics	r3, r5
 1003 0282 A354     		strb	r3, [r4, r2]
 1004              		.loc 1 376 0
 1005 0284 FFF7FEFF 		bl	_usb_wakeup
 1006              	.LVL84:
 1007              		.loc 1 377 0
 1008 0288 8023     		movs	r3, #128
 1009 028a E554     		strb	r5, [r4, r3]
 1010 028c 88E7     		b	.L59
 1011              	.LVL85:
 1012              	.L128:
 1013              	.LBB201:
 1014              	.LBB195:
 1015              		.loc 1 277 0
 1016 028e 9968     		ldr	r1, [r3, #8]
 1017 0290 8C46     		mov	ip, r1
 1018 0292 6244     		add	r2, r2, ip
 1019 0294 9A60     		str	r2, [r3, #8]
 1020              	.LBB179:
 1021              	.LBB180:
 1022              	.LBB181:
 1023              	.LBB182:
 1024              	.LBB183:
 1025              	.LBB184:
 1026              	.LBB185:
ARM GAS  /var/folders/t8/16hdwfmd2fg_d3q6dgx6bpmw0000gn/T//cc9y1LiY.s 			page 19


 1027              		.loc 2 71 0
 1028              		.syntax divided
 1029              	@ 71 "../../tmk_core/tool/chibios/ChibiOS/os/common/ext/CMSIS/include/cmsis_gcc.h" 1
 1030 0296 72B6     		cpsid i
 1031              	@ 0 "" 2
 1032              		.thumb
 1033              		.syntax unified
 1034              	.LBE185:
 1035              	.LBE184:
 1036              	.LBE183:
 1037              	.LBE182:
 1038              		.loc 3 418 0
 1039 0298 FFF7FEFF 		bl	_dbg_check_lock_from_isr
 1040              	.LVL86:
 1041              	.LBE181:
 1042              	.LBE180:
 1043              	.LBE179:
 1044              		.loc 1 279 0
 1045 029c 6B69     		ldr	r3, [r5, #20]
 1046 029e 2100     		movs	r1, r4
 1047 02a0 1A68     		ldr	r2, [r3]
 1048 02a2 5B68     		ldr	r3, [r3, #4]
 1049 02a4 3800     		movs	r0, r7
 1050 02a6 D21A     		subs	r2, r2, r3
 1051 02a8 FFF7FEFF 		bl	usb_packet_transmit
 1052              	.LVL87:
 1053              	.LBB186:
 1054              	.LBB187:
 1055              	.LBB188:
 1056              		.loc 3 436 0
 1057 02ac FFF7FEFF 		bl	_dbg_check_unlock_from_isr
 1058              	.LVL88:
 1059              	.LBB189:
 1060              	.LBB190:
 1061              	.LBB191:
 1062              	.LBB192:
 1063              		.loc 2 60 0
 1064              		.syntax divided
 1065              	@ 60 "../../tmk_core/tool/chibios/ChibiOS/os/common/ext/CMSIS/include/cmsis_gcc.h" 1
 1066 02b0 62B6     		cpsie i
 1067              	@ 0 "" 2
 1068              		.thumb
 1069              		.syntax unified
 1070 02b2 D8E6     		b	.L41
 1071              	.LVL89:
 1072              	.L124:
 1073              	.LBE192:
 1074              	.LBE191:
 1075              	.LBE190:
 1076              	.LBE189:
 1077              	.LBE188:
 1078              	.LBE187:
 1079              	.LBE186:
 1080              	.LBE195:
 1081              	.LBE201:
 1082              		.loc 1 324 0
 1083 02b4 1848     		ldr	r0, .L130+4
ARM GAS  /var/folders/t8/16hdwfmd2fg_d3q6dgx6bpmw0000gn/T//cc9y1LiY.s 			page 20


 1084 02b6 FFF7FEFF 		bl	_usb_reset
 1085              	.LVL90:
 1086              		.loc 1 325 0
 1087 02ba 8023     		movs	r3, #128
 1088 02bc 154A     		ldr	r2, .L130
 1089 02be D554     		strb	r5, [r2, r3]
 1090              		.loc 1 326 0
 1091 02c0 FFF7FEFF 		bl	_dbg_check_leave_isr
 1092              	.LVL91:
 1093 02c4 0198     		ldr	r0, [sp, #4]
 1094 02c6 FFF7FEFF 		bl	_port_irq_epilogue
 1095              	.LVL92:
 1096              		.loc 1 327 0
 1097 02ca 6EE7     		b	.L31
 1098              	.LVL93:
 1099              	.L123:
 1100              	.LBB202:
 1101              	.LBB196:
 1102              		.loc 1 308 0 discriminator 1
 1103 02cc 002A     		cmp	r2, #0
 1104 02ce 00D0     		beq	.LCB1046
 1105 02d0 C9E6     		b	.L41	@long jump
 1106              	.LCB1046:
 1107 02d2 1CE7     		b	.L50
 1108              	.LVL94:
 1109              	.L45:
 1110              	.LBE196:
 1111              	.LBB197:
 1112              		.loc 1 268 0
 1113 02d4 D622     		movs	r2, #214
 1114 02d6 B95C     		ldrb	r1, [r7, r2]
 1115 02d8 0832     		adds	r2, r2, #8
 1116 02da B954     		strb	r1, [r7, r2]
 1117              	.LVL95:
 1118              	.LBB193:
 1119              	.LBB194:
 1120              		.loc 1 579 0
 1121 02dc 5F3A     		subs	r2, r2, #95
 1122 02de 0A40     		ands	r2, r1
 1123 02e0 9821     		movs	r1, #152
 1124 02e2 7254     		strb	r2, [r6, r1]
 1125              	.LVL96:
 1126              	.LBE194:
 1127              	.LBE193:
 1128              		.loc 1 270 0
 1129 02e4 7A68     		ldr	r2, [r7, #4]
 1130 02e6 1268     		ldr	r2, [r2]
 1131 02e8 002A     		cmp	r2, #0
 1132 02ea 06D0     		beq	.L46
 1133              		.loc 1 270 0 is_stmt 0 discriminator 1
 1134 02ec 9739     		subs	r1, r1, #151
 1135 02ee 3800     		movs	r0, r7
 1136 02f0 9047     		blx	r2
 1137              	.LVL97:
 1138 02f2 5B46     		mov	r3, fp
 1139 02f4 5246     		mov	r2, r10
 1140 02f6 9B58     		ldr	r3, [r3, r2]
ARM GAS  /var/folders/t8/16hdwfmd2fg_d3q6dgx6bpmw0000gn/T//cc9y1LiY.s 			page 21


 1141 02f8 6B69     		ldr	r3, [r5, #20]
 1142              	.L46:
 1143              		.loc 1 271 0 is_stmt 1
 1144 02fa 0322     		movs	r2, #3
 1145 02fc 3A70     		strb	r2, [r7]
 1146 02fe 85E7     		b	.L121
 1147              	.LVL98:
 1148              	.L126:
 1149              	.LBE197:
 1150              	.LBE202:
 1151              		.loc 1 350 0
 1152 0300 FFF7FEFF 		bl	_usb_suspend
 1153              	.LVL99:
 1154              		.loc 1 352 0
 1155 0304 8422     		movs	r2, #132
 1156 0306 2020     		movs	r0, #32
 1157 0308 0249     		ldr	r1, .L130
 1158 030a 8B5C     		ldrb	r3, [r1, r2]
 1159 030c 0343     		orrs	r3, r0
 1160 030e 8B54     		strb	r3, [r1, r2]
 1161 0310 3EE7     		b	.L58
 1162              	.L131:
 1163 0312 C046     		.align	2
 1164              	.L130:
 1165 0314 00200740 		.word	1074208768
 1166 0318 00000000 		.word	USBD1
 1167 031c 00000000 		.word	_bdt
 1168              		.cfi_endproc
 1169              	.LFE177:
 1170              		.size	VectorA0, .-VectorA0
 1171              		.section	.text.usb_lld_init,"ax",%progbits
 1172              		.align	1
 1173              		.p2align 4,,15
 1174              		.global	usb_lld_init
 1175              		.syntax unified
 1176              		.code	16
 1177              		.thumb_func
 1178              		.fpu softvfp
 1179              		.type	usb_lld_init, %function
 1180              	usb_lld_init:
 1181              	.LFB178:
 1182              		.loc 1 395 0
 1183              		.cfi_startproc
 1184              		@ args = 0, pretend = 0, frame = 0
 1185              		@ frame_needed = 0, uses_anonymous_args = 0
 1186 0000 10B5     		push	{r4, lr}
 1187              		.cfi_def_cfa_offset 8
 1188              		.cfi_offset 4, -8
 1189              		.cfi_offset 14, -4
 1190              		.loc 1 397 0
 1191 0002 0548     		ldr	r0, .L133
 1192 0004 FFF7FEFF 		bl	usbObjectInit
 1193              	.LVL100:
 1194              		.loc 1 401 0
 1195 0008 8023     		movs	r3, #128
 1196 000a 0449     		ldr	r1, .L133+4
 1197 000c 044A     		ldr	r2, .L133+8
ARM GAS  /var/folders/t8/16hdwfmd2fg_d3q6dgx6bpmw0000gn/T//cc9y1LiY.s 			page 22


 1198 000e DB02     		lsls	r3, r3, #11
 1199 0010 8858     		ldr	r0, [r1, r2]
 1200              		.loc 1 438 0
 1201              		@ sp needed
 1202              		.loc 1 401 0
 1203 0012 0343     		orrs	r3, r0
 1204 0014 8B50     		str	r3, [r1, r2]
 1205              		.loc 1 438 0
 1206 0016 10BD     		pop	{r4, pc}
 1207              	.L134:
 1208              		.align	2
 1209              	.L133:
 1210 0018 00000000 		.word	USBD1
 1211 001c 00700440 		.word	1074032640
 1212 0020 04100000 		.word	4100
 1213              		.cfi_endproc
 1214              	.LFE178:
 1215              		.size	usb_lld_init, .-usb_lld_init
 1216              		.section	.text.usb_lld_start,"ax",%progbits
 1217              		.align	1
 1218              		.p2align 4,,15
 1219              		.global	usb_lld_start
 1220              		.syntax unified
 1221              		.code	16
 1222              		.thumb_func
 1223              		.fpu softvfp
 1224              		.type	usb_lld_start, %function
 1225              	usb_lld_start:
 1226              	.LFB179:
 1227              		.loc 1 447 0
 1228              		.cfi_startproc
 1229              		@ args = 0, pretend = 0, frame = 0
 1230              		@ frame_needed = 0, uses_anonymous_args = 0
 1231              	.LVL101:
 1232              		.loc 1 448 0
 1233 0000 0378     		ldrb	r3, [r0]
 1234              		.loc 1 447 0
 1235 0002 10B5     		push	{r4, lr}
 1236              		.cfi_def_cfa_offset 8
 1237              		.cfi_offset 4, -8
 1238              		.cfi_offset 14, -4
 1239              		.loc 1 448 0
 1240 0004 012B     		cmp	r3, #1
 1241 0006 00D0     		beq	.L141
 1242              	.LVL102:
 1243              	.L135:
 1244              		.loc 1 503 0
 1245              		@ sp needed
 1246 0008 10BD     		pop	{r4, pc}
 1247              	.LVL103:
 1248              	.L141:
 1249              		.loc 1 450 0
 1250 000a 224B     		ldr	r3, .L142
 1251 000c 9842     		cmp	r0, r3
 1252 000e FBD1     		bne	.L135
 1253 0010 0022     		movs	r2, #0
 1254              	.LBB203:
ARM GAS  /var/folders/t8/16hdwfmd2fg_d3q6dgx6bpmw0000gn/T//cc9y1LiY.s 			page 23


 1255              		.loc 1 454 0
 1256 0012 0020     		movs	r0, #0
 1257              	.LVL104:
 1258 0014 2049     		ldr	r1, .L142+4
 1259              	.L137:
 1260              	.LVL105:
 1261              		.loc 1 454 0 is_stmt 0 discriminator 3
 1262 0016 D300     		lsls	r3, r2, #3
 1263 0018 C850     		str	r0, [r1, r3]
 1264 001a 0132     		adds	r2, r2, #1
 1265              	.LVL106:
 1266              		.loc 1 455 0 is_stmt 1 discriminator 3
 1267 001c CB18     		adds	r3, r1, r3
 1268 001e 5860     		str	r0, [r3, #4]
 1269              		.loc 1 453 0 discriminator 3
 1270 0020 102A     		cmp	r2, #16
 1271 0022 F8D1     		bne	.L137
 1272              		.loc 1 460 0
 1273 0024 8023     		movs	r3, #128
 1274 0026 1D48     		ldr	r0, .L142+8
 1275 0028 1D4A     		ldr	r2, .L142+12
 1276 002a DB02     		lsls	r3, r3, #11
 1277 002c 8458     		ldr	r4, [r0, r2]
 1278 002e 2343     		orrs	r3, r4
 1279 0030 8350     		str	r3, [r0, r2]
 1280              		.loc 1 471 0
 1281 0032 8620     		movs	r0, #134
 1282 0034 8024     		movs	r4, #128
 1283 0036 1B4A     		ldr	r2, .L142+16
 1284 0038 4000     		lsls	r0, r0, #1
 1285 003a 135C     		ldrb	r3, [r2, r0]
 1286 003c 2343     		orrs	r3, r4
 1287 003e 1354     		strb	r3, [r2, r0]
 1288              	.L138:
 1289              		.loc 1 472 0 discriminator 1
 1290 0040 135C     		ldrb	r3, [r2, r0]
 1291 0042 5BB2     		sxtb	r3, r3
 1292 0044 002B     		cmp	r3, #0
 1293 0046 FBDB     		blt	.L138
 1294              		.loc 1 475 0
 1295 0048 9C24     		movs	r4, #156
 1296 004a 0B0A     		lsrs	r3, r1, #8
 1297 004c DBB2     		uxtb	r3, r3
 1298 004e 1355     		strb	r3, [r2, r4]
 1299              		.loc 1 476 0
 1300 0050 0B0C     		lsrs	r3, r1, #16
 1301 0052 DBB2     		uxtb	r3, r3
 1302 0054 1434     		adds	r4, r4, #20
 1303 0056 1355     		strb	r3, [r2, r4]
 1304              		.loc 1 477 0
 1305 0058 B423     		movs	r3, #180
 1306 005a 090E     		lsrs	r1, r1, #24
 1307 005c D154     		strb	r1, [r2, r3]
 1308              		.loc 1 480 0
 1309 005e 8021     		movs	r1, #128
 1310 0060 4B33     		adds	r3, r3, #75
 1311 0062 5354     		strb	r3, [r2, r1]
ARM GAS  /var/folders/t8/16hdwfmd2fg_d3q6dgx6bpmw0000gn/T//cc9y1LiY.s 			page 24


 1312              		.loc 1 481 0
 1313 0064 0831     		adds	r1, r1, #8
 1314 0066 5354     		strb	r3, [r2, r1]
 1315              		.loc 1 485 0
 1316 0068 4021     		movs	r1, #64
 1317              		.loc 1 483 0
 1318 006a 1374     		strb	r3, [r2, #16]
 1319              		.loc 1 485 0
 1320 006c 135C     		ldrb	r3, [r2, r0]
 1321 006e 0B43     		orrs	r3, r1
 1322 0070 1354     		strb	r3, [r2, r0]
 1323              		.loc 1 488 0
 1324 0072 0321     		movs	r1, #3
 1325 0074 9423     		movs	r3, #148
 1326 0076 D154     		strb	r1, [r2, r3]
 1327              		.loc 1 489 0
 1328 0078 0021     		movs	r1, #0
 1329              		.loc 1 492 0
 1330 007a 0120     		movs	r0, #1
 1331              		.loc 1 489 0
 1332 007c 6C33     		adds	r3, r3, #108
 1333 007e D154     		strb	r1, [r2, r3]
 1334              		.loc 1 492 0
 1335 0080 8431     		adds	r1, r1, #132
 1336 0082 535C     		ldrb	r3, [r2, r1]
 1337 0084 0343     		orrs	r3, r0
 1338 0086 5354     		strb	r3, [r2, r1]
 1339              		.loc 1 496 0
 1340 0088 1820     		movs	r0, #24
 1341 008a 8239     		subs	r1, r1, #130
 1342 008c FFF7FEFF 		bl	nvicEnableVector
 1343              	.LVL107:
 1344              	.LBE203:
 1345              		.loc 1 503 0
 1346 0090 BAE7     		b	.L135
 1347              	.L143:
 1348 0092 C046     		.align	2
 1349              	.L142:
 1350 0094 00000000 		.word	USBD1
 1351 0098 00000000 		.word	_bdt
 1352 009c 00700440 		.word	1074032640
 1353 00a0 34100000 		.word	4148
 1354 00a4 00200740 		.word	1074208768
 1355              		.cfi_endproc
 1356              	.LFE179:
 1357              		.size	usb_lld_start, .-usb_lld_start
 1358              		.section	.text.usb_lld_stop,"ax",%progbits
 1359              		.align	1
 1360              		.p2align 4,,15
 1361              		.global	usb_lld_stop
 1362              		.syntax unified
 1363              		.code	16
 1364              		.thumb_func
 1365              		.fpu softvfp
 1366              		.type	usb_lld_stop, %function
 1367              	usb_lld_stop:
 1368              	.LFB180:
ARM GAS  /var/folders/t8/16hdwfmd2fg_d3q6dgx6bpmw0000gn/T//cc9y1LiY.s 			page 25


 1369              		.loc 1 512 0
 1370              		.cfi_startproc
 1371              		@ args = 0, pretend = 0, frame = 0
 1372              		@ frame_needed = 0, uses_anonymous_args = 0
 1373              	.LVL108:
 1374              		.loc 1 514 0
 1375 0000 0378     		ldrb	r3, [r0]
 1376              		.loc 1 512 0
 1377 0002 10B5     		push	{r4, lr}
 1378              		.cfi_def_cfa_offset 8
 1379              		.cfi_offset 4, -8
 1380              		.cfi_offset 14, -4
 1381              		.loc 1 514 0
 1382 0004 012B     		cmp	r3, #1
 1383 0006 00D0     		beq	.L146
 1384              	.LVL109:
 1385              	.L144:
 1386              		.loc 1 525 0
 1387              		@ sp needed
 1388 0008 10BD     		pop	{r4, pc}
 1389              	.LVL110:
 1390              	.L146:
 1391              		.loc 1 516 0
 1392 000a 034B     		ldr	r3, .L147
 1393 000c 9842     		cmp	r0, r3
 1394 000e FBD1     		bne	.L144
 1395              		.loc 1 518 0
 1396 0010 1820     		movs	r0, #24
 1397              	.LVL111:
 1398 0012 FFF7FEFF 		bl	nvicDisableVector
 1399              	.LVL112:
 1400              		.loc 1 525 0
 1401 0016 F7E7     		b	.L144
 1402              	.L148:
 1403              		.align	2
 1404              	.L147:
 1405 0018 00000000 		.word	USBD1
 1406              		.cfi_endproc
 1407              	.LFE180:
 1408              		.size	usb_lld_stop, .-usb_lld_stop
 1409              		.section	.text.usb_lld_set_address,"ax",%progbits
 1410              		.align	1
 1411              		.p2align 4,,15
 1412              		.global	usb_lld_set_address
 1413              		.syntax unified
 1414              		.code	16
 1415              		.thumb_func
 1416              		.fpu softvfp
 1417              		.type	usb_lld_set_address, %function
 1418              	usb_lld_set_address:
 1419              	.LFB182:
 1420              		.loc 1 576 0
 1421              		.cfi_startproc
 1422              		@ args = 0, pretend = 0, frame = 0
 1423              		@ frame_needed = 0, uses_anonymous_args = 0
 1424              		@ link register save eliminated.
 1425              	.LVL113:
ARM GAS  /var/folders/t8/16hdwfmd2fg_d3q6dgx6bpmw0000gn/T//cc9y1LiY.s 			page 26


 1426              		.loc 1 579 0
 1427 0000 DE23     		movs	r3, #222
 1428 0002 C25C     		ldrb	r2, [r0, r3]
 1429 0004 5F3B     		subs	r3, r3, #95
 1430 0006 1340     		ands	r3, r2
 1431 0008 9822     		movs	r2, #152
 1432 000a 0149     		ldr	r1, .L150
 1433              		.loc 1 581 0
 1434              		@ sp needed
 1435              		.loc 1 579 0
 1436 000c 8B54     		strb	r3, [r1, r2]
 1437              		.loc 1 581 0
 1438 000e 7047     		bx	lr
 1439              	.L151:
 1440              		.align	2
 1441              	.L150:
 1442 0010 00200740 		.word	1074208768
 1443              		.cfi_endproc
 1444              	.LFE182:
 1445              		.size	usb_lld_set_address, .-usb_lld_set_address
 1446              		.section	.text.usb_lld_init_endpoint,"ax",%progbits
 1447              		.align	1
 1448              		.p2align 4,,15
 1449              		.global	usb_lld_init_endpoint
 1450              		.syntax unified
 1451              		.code	16
 1452              		.thumb_func
 1453              		.fpu softvfp
 1454              		.type	usb_lld_init_endpoint, %function
 1455              	usb_lld_init_endpoint:
 1456              	.LFB183:
 1457              		.loc 1 591 0
 1458              		.cfi_startproc
 1459              		@ args = 0, pretend = 0, frame = 0
 1460              		@ frame_needed = 0, uses_anonymous_args = 0
 1461              	.LVL114:
 1462 0000 F0B5     		push	{r4, r5, r6, r7, lr}
 1463              		.cfi_def_cfa_offset 20
 1464              		.cfi_offset 4, -20
 1465              		.cfi_offset 5, -16
 1466              		.cfi_offset 6, -12
 1467              		.cfi_offset 7, -8
 1468              		.cfi_offset 14, -4
 1469 0002 CE46     		mov	lr, r9
 1470 0004 4746     		mov	r7, r8
 1471 0006 80B5     		push	{r7, lr}
 1472              		.cfi_def_cfa_offset 28
 1473              		.cfi_offset 8, -28
 1474              		.cfi_offset 9, -24
 1475              		.loc 1 593 0
 1476 0008 1029     		cmp	r1, #16
 1477 000a 78D8     		bhi	.L152
 1478              		.loc 1 596 0
 1479 000c 8B1C     		adds	r3, r1, #2
 1480 000e 9B00     		lsls	r3, r3, #2
 1481 0010 C018     		adds	r0, r0, r3
 1482              	.LVL115:
ARM GAS  /var/folders/t8/16hdwfmd2fg_d3q6dgx6bpmw0000gn/T//cc9y1LiY.s 			page 27


 1483 0012 4368     		ldr	r3, [r0, #4]
 1484 0014 9946     		mov	r9, r3
 1485              	.LVL116:
 1486              		.loc 1 599 0
 1487 0016 9B69     		ldr	r3, [r3, #24]
 1488              	.LVL117:
 1489 0018 002B     		cmp	r3, #0
 1490 001a 2FD0     		beq	.L164
 1491              		.loc 1 602 0
 1492 001c 0022     		movs	r2, #0
 1493 001e 9A74     		strb	r2, [r3, #18]
 1494              		.loc 1 603 0
 1495 0020 DA74     		strb	r2, [r3, #19]
 1496              		.loc 1 605 0
 1497 0022 4B46     		mov	r3, r9
 1498 0024 5E8A     		ldrh	r6, [r3, #18]
 1499 0026 8823     		movs	r3, #136
 1500 0028 3604     		lsls	r6, r6, #16
 1501 002a 384D     		ldr	r5, .L180
 1502 002c 3343     		orrs	r3, r6
 1503 002e 4F01     		lsls	r7, r1, #5
 1504              	.LBB204:
 1505              	.LBB205:
 1506              		.loc 1 146 0
 1507 0030 3748     		ldr	r0, .L180+4
 1508              	.LBE205:
 1509              	.LBE204:
 1510              		.loc 1 605 0
 1511 0032 7B51     		str	r3, [r7, r5]
 1512              	.LVL118:
 1513              	.LBB209:
 1514              	.LBB206:
 1515              		.loc 1 146 0
 1516 0034 0378     		ldrb	r3, [r0]
 1517              	.LBE206:
 1518              	.LBE209:
 1519              		.loc 1 605 0
 1520 0036 8A00     		lsls	r2, r1, #2
 1521              	.LBB210:
 1522              	.LBB207:
 1523              		.loc 1 146 0
 1524 0038 3F2B     		cmp	r3, #63
 1525 003a 1ED8     		bhi	.L155
 1526              		.loc 1 147 0
 1527 003c 0378     		ldrb	r3, [r0]
 1528              	.LBE207:
 1529              	.LBE210:
 1530              		.loc 1 606 0
 1531 003e EF19     		adds	r7, r5, r7
 1532              	.LBB211:
 1533              	.LBB208:
 1534              		.loc 1 147 0
 1535 0040 DBB2     		uxtb	r3, r3
 1536 0042 5C1C     		adds	r4, r3, #1
 1537 0044 E4B2     		uxtb	r4, r4
 1538 0046 0470     		strb	r4, [r0]
 1539 0048 324C     		ldr	r4, .L180+8
ARM GAS  /var/folders/t8/16hdwfmd2fg_d3q6dgx6bpmw0000gn/T//cc9y1LiY.s 			page 28


 1540 004a 9B01     		lsls	r3, r3, #6
 1541 004c A446     		mov	ip, r4
 1542 004e 6344     		add	r3, r3, ip
 1543              	.LVL119:
 1544              	.LBE208:
 1545              	.LBE211:
 1546              		.loc 1 606 0
 1547 0050 7B60     		str	r3, [r7, #4]
 1548              		.loc 1 608 0
 1549 0052 0123     		movs	r3, #1
 1550 0054 1A43     		orrs	r2, r3
 1551 0056 C733     		adds	r3, r3, #199
 1552 0058 1E43     		orrs	r6, r3
 1553 005a D200     		lsls	r2, r2, #3
 1554 005c 5651     		str	r6, [r2, r5]
 1555              	.LVL120:
 1556              	.LBB212:
 1557              	.LBB213:
 1558              		.loc 1 146 0
 1559 005e 0378     		ldrb	r3, [r0]
 1560 0060 3F2B     		cmp	r3, #63
 1561 0062 51D8     		bhi	.L178
 1562              		.loc 1 147 0
 1563 0064 0378     		ldrb	r3, [r0]
 1564              	.LBE213:
 1565              	.LBE212:
 1566              		.loc 1 609 0
 1567 0066 AA18     		adds	r2, r5, r2
 1568              	.LBB215:
 1569              	.LBB214:
 1570              		.loc 1 147 0
 1571 0068 DBB2     		uxtb	r3, r3
 1572 006a 5E1C     		adds	r6, r3, #1
 1573 006c 9B01     		lsls	r3, r3, #6
 1574 006e 6344     		add	r3, r3, ip
 1575              	.LVL121:
 1576 0070 F6B2     		uxtb	r6, r6
 1577 0072 0670     		strb	r6, [r0]
 1578              	.LBE214:
 1579              	.LBE215:
 1580              		.loc 1 609 0
 1581 0074 5360     		str	r3, [r2, #4]
 1582              	.LVL122:
 1583              		.loc 1 611 0
 1584 0076 0823     		movs	r3, #8
 1585 0078 01E0     		b	.L154
 1586              	.LVL123:
 1587              	.L155:
 1588 007a FEE7     		b	.L155
 1589              	.LVL124:
 1590              	.L164:
 1591              		.loc 1 597 0
 1592 007c 0023     		movs	r3, #0
 1593              	.LVL125:
 1594              	.L154:
 1595              		.loc 1 613 0
 1596 007e 4A46     		mov	r2, r9
ARM GAS  /var/folders/t8/16hdwfmd2fg_d3q6dgx6bpmw0000gn/T//cc9y1LiY.s 			page 29


 1597 0080 5269     		ldr	r2, [r2, #20]
 1598 0082 002A     		cmp	r2, #0
 1599 0084 2BD0     		beq	.L158
 1600              		.loc 1 616 0
 1601 0086 0027     		movs	r7, #0
 1602              		.loc 1 619 0
 1603 0088 0220     		movs	r0, #2
 1604              		.loc 1 616 0
 1605 008a 1774     		strb	r7, [r2, #16]
 1606              		.loc 1 617 0
 1607 008c 5774     		strb	r7, [r2, #17]
 1608              		.loc 1 619 0
 1609 008e 8A00     		lsls	r2, r1, #2
 1610 0090 1043     		orrs	r0, r2
 1611 0092 1E4D     		ldr	r5, .L180
 1612 0094 C000     		lsls	r0, r0, #3
 1613              	.LBB216:
 1614              	.LBB217:
 1615              		.loc 1 146 0
 1616 0096 1E4E     		ldr	r6, .L180+4
 1617              	.LBE217:
 1618              	.LBE216:
 1619              		.loc 1 619 0
 1620 0098 4751     		str	r7, [r0, r5]
 1621              	.LVL126:
 1622 009a 9046     		mov	r8, r2
 1623              	.LBB220:
 1624              	.LBB218:
 1625              		.loc 1 146 0
 1626 009c 3278     		ldrb	r2, [r6]
 1627 009e 3F2A     		cmp	r2, #63
 1628 00a0 31D8     		bhi	.L159
 1629              		.loc 1 147 0
 1630 00a2 3278     		ldrb	r2, [r6]
 1631              	.LBE218:
 1632              	.LBE220:
 1633              		.loc 1 620 0
 1634 00a4 2818     		adds	r0, r5, r0
 1635              	.LBB221:
 1636              	.LBB219:
 1637              		.loc 1 147 0
 1638 00a6 D2B2     		uxtb	r2, r2
 1639 00a8 541C     		adds	r4, r2, #1
 1640 00aa E4B2     		uxtb	r4, r4
 1641 00ac 3470     		strb	r4, [r6]
 1642 00ae 194C     		ldr	r4, .L180+8
 1643 00b0 9201     		lsls	r2, r2, #6
 1644 00b2 A446     		mov	ip, r4
 1645 00b4 6244     		add	r2, r2, ip
 1646              	.LVL127:
 1647              	.LBE219:
 1648              	.LBE221:
 1649              		.loc 1 620 0
 1650 00b6 4260     		str	r2, [r0, #4]
 1651              		.loc 1 622 0
 1652 00b8 4246     		mov	r2, r8
 1653 00ba 0320     		movs	r0, #3
ARM GAS  /var/folders/t8/16hdwfmd2fg_d3q6dgx6bpmw0000gn/T//cc9y1LiY.s 			page 30


 1654 00bc 1043     		orrs	r0, r2
 1655 00be C000     		lsls	r0, r0, #3
 1656 00c0 4751     		str	r7, [r0, r5]
 1657              	.LVL128:
 1658              	.LBB222:
 1659              	.LBB223:
 1660              		.loc 1 146 0
 1661 00c2 3278     		ldrb	r2, [r6]
 1662 00c4 3F2A     		cmp	r2, #63
 1663 00c6 20D8     		bhi	.L179
 1664              		.loc 1 147 0
 1665 00c8 3278     		ldrb	r2, [r6]
 1666              	.LBE223:
 1667              	.LBE222:
 1668              		.loc 1 623 0
 1669 00ca 2D18     		adds	r5, r5, r0
 1670              	.LBB225:
 1671              	.LBB224:
 1672              		.loc 1 147 0
 1673 00cc D2B2     		uxtb	r2, r2
 1674 00ce 571C     		adds	r7, r2, #1
 1675 00d0 9201     		lsls	r2, r2, #6
 1676 00d2 6244     		add	r2, r2, ip
 1677              	.LVL129:
 1678 00d4 FFB2     		uxtb	r7, r7
 1679 00d6 3770     		strb	r7, [r6]
 1680              	.LBE224:
 1681              	.LBE225:
 1682              		.loc 1 623 0
 1683 00d8 6A60     		str	r2, [r5, #4]
 1684              		.loc 1 625 0
 1685 00da 0422     		movs	r2, #4
 1686 00dc 1343     		orrs	r3, r2
 1687              	.LVL130:
 1688              	.L158:
 1689              		.loc 1 629 0
 1690 00de 4A46     		mov	r2, r9
 1691 00e0 0320     		movs	r0, #3
 1692 00e2 1268     		ldr	r2, [r2]
 1693 00e4 0240     		ands	r2, r0
 1694 00e6 012A     		cmp	r2, #1
 1695 00e8 03D0     		beq	.L162
 1696              		.loc 1 630 0
 1697 00ea 0120     		movs	r0, #1
 1698 00ec 0343     		orrs	r3, r0
 1699              	.LVL131:
 1700              		.loc 1 632 0
 1701 00ee 002A     		cmp	r2, #0
 1702 00f0 01D0     		beq	.L163
 1703              	.L162:
 1704              		.loc 1 633 0
 1705 00f2 1022     		movs	r2, #16
 1706 00f4 1343     		orrs	r3, r2
 1707              	.LVL132:
 1708              	.L163:
 1709              		.loc 1 636 0
 1710 00f6 3031     		adds	r1, r1, #48
ARM GAS  /var/folders/t8/16hdwfmd2fg_d3q6dgx6bpmw0000gn/T//cc9y1LiY.s 			page 31


 1711              	.LVL133:
 1712 00f8 074A     		ldr	r2, .L180+12
 1713 00fa 8900     		lsls	r1, r1, #2
 1714 00fc 8B54     		strb	r3, [r1, r2]
 1715              	.LVL134:
 1716              	.L152:
 1717              		.loc 1 638 0
 1718              		@ sp needed
 1719 00fe 0CBC     		pop	{r2, r3}
 1720 0100 9046     		mov	r8, r2
 1721 0102 9946     		mov	r9, r3
 1722 0104 F0BD     		pop	{r4, r5, r6, r7, pc}
 1723              	.LVL135:
 1724              	.L159:
 1725 0106 FEE7     		b	.L159
 1726              	.LVL136:
 1727              	.L178:
 1728              	.L157:
 1729 0108 FEE7     		b	.L157
 1730              	.LVL137:
 1731              	.L179:
 1732              	.L161:
 1733 010a FEE7     		b	.L161
 1734              	.L181:
 1735              		.align	2
 1736              	.L180:
 1737 010c 00000000 		.word	_bdt
 1738 0110 00000000 		.word	.LANCHOR0
 1739 0114 00000000 		.word	_usbb
 1740 0118 00200740 		.word	1074208768
 1741              		.cfi_endproc
 1742              	.LFE183:
 1743              		.size	usb_lld_init_endpoint, .-usb_lld_init_endpoint
 1744              		.section	.text.usb_lld_reset,"ax",%progbits
 1745              		.align	1
 1746              		.p2align 4,,15
 1747              		.global	usb_lld_reset
 1748              		.syntax unified
 1749              		.code	16
 1750              		.thumb_func
 1751              		.fpu softvfp
 1752              		.type	usb_lld_reset, %function
 1753              	usb_lld_reset:
 1754              	.LFB181:
 1755              		.loc 1 534 0
 1756              		.cfi_startproc
 1757              		@ args = 0, pretend = 0, frame = 0
 1758              		@ frame_needed = 0, uses_anonymous_args = 0
 1759              	.LVL138:
 1760 0000 F8B5     		push	{r3, r4, r5, r6, r7, lr}
 1761              		.cfi_def_cfa_offset 24
 1762              		.cfi_offset 3, -24
 1763              		.cfi_offset 4, -20
 1764              		.cfi_offset 5, -16
 1765              		.cfi_offset 6, -12
 1766              		.cfi_offset 7, -8
 1767              		.cfi_offset 14, -4
ARM GAS  /var/folders/t8/16hdwfmd2fg_d3q6dgx6bpmw0000gn/T//cc9y1LiY.s 			page 32


 1768              		.loc 1 536 0
 1769 0002 0025     		movs	r5, #0
 1770 0004 0E4B     		ldr	r3, .L183
 1771              		.loc 1 541 0
 1772 0006 9427     		movs	r7, #148
 1773              		.loc 1 536 0
 1774 0008 1D70     		strb	r5, [r3]
 1775              		.loc 1 541 0
 1776 000a 0223     		movs	r3, #2
 1777 000c 0D4C     		ldr	r4, .L183+4
 1778              		.loc 1 545 0
 1779 000e 0021     		movs	r1, #0
 1780              		.loc 1 541 0
 1781 0010 E355     		strb	r3, [r4, r7]
 1782              		.loc 1 544 0
 1783 0012 0D4B     		ldr	r3, .L183+8
 1784              		.loc 1 534 0
 1785 0014 0600     		movs	r6, r0
 1786              		.loc 1 544 0
 1787 0016 C360     		str	r3, [r0, #12]
 1788              		.loc 1 545 0
 1789 0018 FFF7FEFF 		bl	usb_lld_init_endpoint
 1790              	.LVL139:
 1791              		.loc 1 548 0
 1792 001c FF23     		movs	r3, #255
 1793 001e 8822     		movs	r2, #136
 1794 0020 A354     		strb	r3, [r4, r2]
 1795              		.loc 1 549 0
 1796 0022 083A     		subs	r2, r2, #8
 1797 0024 A354     		strb	r3, [r4, r2]
 1798              		.loc 1 552 0
 1799 0026 5E32     		adds	r2, r2, #94
 1800 0028 B554     		strb	r5, [r6, r2]
 1801              		.loc 1 553 0
 1802 002a 463A     		subs	r2, r2, #70
 1803 002c A554     		strb	r5, [r4, r2]
 1804              		.loc 1 556 0
 1805 002e 0C3A     		subs	r2, r2, #12
 1806 0030 A354     		strb	r3, [r4, r2]
 1807              		.loc 1 557 0
 1808 0032 7B3B     		subs	r3, r3, #123
 1809 0034 1332     		adds	r2, r2, #19
 1810 0036 E254     		strb	r2, [r4, r3]
 1811              		.loc 1 565 0
 1812 0038 833B     		subs	r3, r3, #131
 1813 003a E355     		strb	r3, [r4, r7]
 1814              		.loc 1 567 0
 1815              		@ sp needed
 1816              	.LVL140:
 1817 003c F8BD     		pop	{r3, r4, r5, r6, r7, pc}
 1818              	.L184:
 1819 003e C046     		.align	2
 1820              	.L183:
 1821 0040 00000000 		.word	.LANCHOR0
 1822 0044 00200740 		.word	1074208768
 1823 0048 00000000 		.word	.LANCHOR1
 1824              		.cfi_endproc
ARM GAS  /var/folders/t8/16hdwfmd2fg_d3q6dgx6bpmw0000gn/T//cc9y1LiY.s 			page 33


 1825              	.LFE181:
 1826              		.size	usb_lld_reset, .-usb_lld_reset
 1827              		.section	.text.usb_lld_disable_endpoints,"ax",%progbits
 1828              		.align	1
 1829              		.p2align 4,,15
 1830              		.global	usb_lld_disable_endpoints
 1831              		.syntax unified
 1832              		.code	16
 1833              		.thumb_func
 1834              		.fpu softvfp
 1835              		.type	usb_lld_disable_endpoints, %function
 1836              	usb_lld_disable_endpoints:
 1837              	.LFB184:
 1838              		.loc 1 647 0
 1839              		.cfi_startproc
 1840              		@ args = 0, pretend = 0, frame = 0
 1841              		@ frame_needed = 0, uses_anonymous_args = 0
 1842              		@ link register save eliminated.
 1843              	.LVL141:
 1844              		.loc 1 647 0
 1845 0000 0123     		movs	r3, #1
 1846              		.loc 1 652 0
 1847 0002 0021     		movs	r1, #0
 1848 0004 0448     		ldr	r0, .L188
 1849              	.LVL142:
 1850              	.L186:
 1851              		.loc 1 652 0 is_stmt 0 discriminator 3
 1852 0006 1A00     		movs	r2, r3
 1853 0008 3032     		adds	r2, r2, #48
 1854 000a 9200     		lsls	r2, r2, #2
 1855 000c 0133     		adds	r3, r3, #1
 1856              	.LVL143:
 1857 000e 1154     		strb	r1, [r2, r0]
 1858              		.loc 1 651 0 is_stmt 1 discriminator 3
 1859 0010 102B     		cmp	r3, #16
 1860 0012 F8D1     		bne	.L186
 1861              		.loc 1 654 0
 1862              		@ sp needed
 1863 0014 7047     		bx	lr
 1864              	.L189:
 1865 0016 C046     		.align	2
 1866              	.L188:
 1867 0018 00200740 		.word	1074208768
 1868              		.cfi_endproc
 1869              	.LFE184:
 1870              		.size	usb_lld_disable_endpoints, .-usb_lld_disable_endpoints
 1871              		.section	.text.usb_lld_get_status_out,"ax",%progbits
 1872              		.align	1
 1873              		.p2align 4,,15
 1874              		.global	usb_lld_get_status_out
 1875              		.syntax unified
 1876              		.code	16
 1877              		.thumb_func
 1878              		.fpu softvfp
 1879              		.type	usb_lld_get_status_out, %function
 1880              	usb_lld_get_status_out:
 1881              	.LFB185:
ARM GAS  /var/folders/t8/16hdwfmd2fg_d3q6dgx6bpmw0000gn/T//cc9y1LiY.s 			page 34


 1882              		.loc 1 668 0
 1883              		.cfi_startproc
 1884              		@ args = 0, pretend = 0, frame = 0
 1885              		@ frame_needed = 0, uses_anonymous_args = 0
 1886              		@ link register save eliminated.
 1887              	.LVL144:
 1888              		.loc 1 672 0
 1889 0000 0020     		movs	r0, #0
 1890              	.LVL145:
 1891              		.loc 1 671 0
 1892 0002 0F29     		cmp	r1, #15
 1893 0004 0DD8     		bhi	.L191
 1894 0006 074B     		ldr	r3, .L196
 1895 0008 8900     		lsls	r1, r1, #2
 1896              	.LVL146:
 1897 000a 9C46     		mov	ip, r3
 1898              		.loc 1 673 0
 1899 000c C023     		movs	r3, #192
 1900 000e 6144     		add	r1, r1, ip
 1901 0010 CA5C     		ldrb	r2, [r1, r3]
 1902 0012 1207     		lsls	r2, r2, #28
 1903 0014 05D5     		bpl	.L191
 1904              		.loc 1 675 0
 1905 0016 CB5C     		ldrb	r3, [r1, r3]
 1906 0018 0230     		adds	r0, r0, #2
 1907 001a 1840     		ands	r0, r3
 1908              		.loc 1 677 0
 1909 001c 4342     		rsbs	r3, r0, #0
 1910 001e 5841     		adcs	r0, r0, r3
 1911 0020 0130     		adds	r0, r0, #1
 1912              	.L191:
 1913              		.loc 1 679 0
 1914              		@ sp needed
 1915 0022 7047     		bx	lr
 1916              	.L197:
 1917              		.align	2
 1918              	.L196:
 1919 0024 00200740 		.word	1074208768
 1920              		.cfi_endproc
 1921              	.LFE185:
 1922              		.size	usb_lld_get_status_out, .-usb_lld_get_status_out
 1923              		.section	.text.usb_lld_get_status_in,"ax",%progbits
 1924              		.align	1
 1925              		.p2align 4,,15
 1926              		.global	usb_lld_get_status_in
 1927              		.syntax unified
 1928              		.code	16
 1929              		.thumb_func
 1930              		.fpu softvfp
 1931              		.type	usb_lld_get_status_in, %function
 1932              	usb_lld_get_status_in:
 1933              	.LFB186:
 1934              		.loc 1 693 0
 1935              		.cfi_startproc
 1936              		@ args = 0, pretend = 0, frame = 0
 1937              		@ frame_needed = 0, uses_anonymous_args = 0
 1938              		@ link register save eliminated.
ARM GAS  /var/folders/t8/16hdwfmd2fg_d3q6dgx6bpmw0000gn/T//cc9y1LiY.s 			page 35


 1939              	.LVL147:
 1940              		.loc 1 696 0
 1941 0000 0020     		movs	r0, #0
 1942              	.LVL148:
 1943              		.loc 1 695 0
 1944 0002 0F29     		cmp	r1, #15
 1945 0004 0DD8     		bhi	.L199
 1946 0006 074B     		ldr	r3, .L204
 1947 0008 8900     		lsls	r1, r1, #2
 1948              	.LVL149:
 1949 000a 9C46     		mov	ip, r3
 1950              		.loc 1 698 0
 1951 000c C023     		movs	r3, #192
 1952 000e 6144     		add	r1, r1, ip
 1953 0010 CA5C     		ldrb	r2, [r1, r3]
 1954 0012 5207     		lsls	r2, r2, #29
 1955 0014 05D5     		bpl	.L199
 1956              		.loc 1 700 0
 1957 0016 CB5C     		ldrb	r3, [r1, r3]
 1958 0018 0230     		adds	r0, r0, #2
 1959 001a 1840     		ands	r0, r3
 1960              		.loc 1 702 0
 1961 001c 4342     		rsbs	r3, r0, #0
 1962 001e 5841     		adcs	r0, r0, r3
 1963 0020 0130     		adds	r0, r0, #1
 1964              	.L199:
 1965              		.loc 1 704 0
 1966              		@ sp needed
 1967 0022 7047     		bx	lr
 1968              	.L205:
 1969              		.align	2
 1970              	.L204:
 1971 0024 00200740 		.word	1074208768
 1972              		.cfi_endproc
 1973              	.LFE186:
 1974              		.size	usb_lld_get_status_in, .-usb_lld_get_status_in
 1975              		.section	.text.usb_lld_read_setup,"ax",%progbits
 1976              		.align	1
 1977              		.p2align 4,,15
 1978              		.global	usb_lld_read_setup
 1979              		.syntax unified
 1980              		.code	16
 1981              		.thumb_func
 1982              		.fpu softvfp
 1983              		.type	usb_lld_read_setup, %function
 1984              	usb_lld_read_setup:
 1985              	.LFB187:
 1986              		.loc 1 720 0
 1987              		.cfi_startproc
 1988              		@ args = 0, pretend = 0, frame = 0
 1989              		@ frame_needed = 0, uses_anonymous_args = 0
 1990              	.LVL150:
 1991 0000 8B00     		lsls	r3, r1, #2
 1992 0002 9C46     		mov	ip, r3
 1993 0004 0100     		movs	r1, r0
 1994              	.LVL151:
 1995 0006 6144     		add	r1, r1, ip
ARM GAS  /var/folders/t8/16hdwfmd2fg_d3q6dgx6bpmw0000gn/T//cc9y1LiY.s 			page 36


 1996              		.loc 1 722 0
 1997 0008 CB68     		ldr	r3, [r1, #12]
 1998              		.loc 1 720 0
 1999 000a F0B5     		push	{r4, r5, r6, r7, lr}
 2000              		.cfi_def_cfa_offset 20
 2001              		.cfi_offset 4, -20
 2002              		.cfi_offset 5, -16
 2003              		.cfi_offset 6, -12
 2004              		.cfi_offset 7, -8
 2005              		.cfi_offset 14, -4
 2006              		.loc 1 722 0
 2007 000c 9E69     		ldr	r6, [r3, #24]
 2008              	.LVL152:
 2009              		.loc 1 723 0
 2010 000e 6346     		mov	r3, ip
 2011 0010 B07C     		ldrb	r0, [r6, #18]
 2012              	.LVL153:
 2013 0012 0E4F     		ldr	r7, .L209
 2014 0014 1843     		orrs	r0, r3
 2015              	.LVL154:
 2016 0016 0023     		movs	r3, #0
 2017 0018 C000     		lsls	r0, r0, #3
 2018              	.LVL155:
 2019              		.loc 1 727 0
 2020 001a 3D18     		adds	r5, r7, r0
 2021              	.LVL156:
 2022              	.L207:
 2023              		.loc 1 727 0 is_stmt 0 discriminator 3
 2024 001c 6C68     		ldr	r4, [r5, #4]
 2025 001e E45C     		ldrb	r4, [r4, r3]
 2026 0020 D454     		strb	r4, [r2, r3]
 2027              	.LVL157:
 2028 0022 0133     		adds	r3, r3, #1
 2029              	.LVL158:
 2030              		.loc 1 726 0 is_stmt 1 discriminator 3
 2031 0024 082B     		cmp	r3, #8
 2032 0026 F9D1     		bne	.L207
 2033              		.loc 1 732 0
 2034 0028 8822     		movs	r2, #136
 2035              	.LVL159:
 2036 002a CB68     		ldr	r3, [r1, #12]
 2037              		.loc 1 735 0
 2038              		@ sp needed
 2039              		.loc 1 732 0
 2040 002c 5B8A     		ldrh	r3, [r3, #18]
 2041 002e 1B04     		lsls	r3, r3, #16
 2042 0030 1A43     		orrs	r2, r3
 2043 0032 3A50     		str	r2, [r7, r0]
 2044              		.loc 1 733 0
 2045 0034 0122     		movs	r2, #1
 2046 0036 B17C     		ldrb	r1, [r6, #18]
 2047 0038 5140     		eors	r1, r2
 2048 003a 6246     		mov	r2, ip
 2049 003c 1143     		orrs	r1, r2
 2050 003e C822     		movs	r2, #200
 2051 0040 C900     		lsls	r1, r1, #3
 2052 0042 1343     		orrs	r3, r2
ARM GAS  /var/folders/t8/16hdwfmd2fg_d3q6dgx6bpmw0000gn/T//cc9y1LiY.s 			page 37


 2053 0044 7B50     		str	r3, [r7, r1]
 2054              		.loc 1 734 0
 2055 0046 0123     		movs	r3, #1
 2056 0048 F374     		strb	r3, [r6, #19]
 2057              	.LVL160:
 2058              	.LVL161:
 2059              		.loc 1 735 0
 2060 004a F0BD     		pop	{r4, r5, r6, r7, pc}
 2061              	.L210:
 2062              		.align	2
 2063              	.L209:
 2064 004c 00000000 		.word	_bdt
 2065              		.cfi_endproc
 2066              	.LFE187:
 2067              		.size	usb_lld_read_setup, .-usb_lld_read_setup
 2068              		.section	.text.usb_lld_start_out,"ax",%progbits
 2069              		.align	1
 2070              		.p2align 4,,15
 2071              		.global	usb_lld_start_out
 2072              		.syntax unified
 2073              		.code	16
 2074              		.thumb_func
 2075              		.fpu softvfp
 2076              		.type	usb_lld_start_out, %function
 2077              	usb_lld_start_out:
 2078              	.LFB188:
 2079              		.loc 1 745 0
 2080              		.cfi_startproc
 2081              		@ args = 0, pretend = 0, frame = 0
 2082              		@ frame_needed = 0, uses_anonymous_args = 0
 2083              	.LVL162:
 2084              		.loc 1 746 0
 2085 0000 0231     		adds	r1, r1, #2
 2086              	.LVL163:
 2087 0002 8900     		lsls	r1, r1, #2
 2088 0004 4118     		adds	r1, r0, r1
 2089 0006 4B68     		ldr	r3, [r1, #4]
 2090              		.loc 1 745 0
 2091 0008 10B5     		push	{r4, lr}
 2092              		.cfi_def_cfa_offset 8
 2093              		.cfi_offset 4, -8
 2094              		.cfi_offset 14, -4
 2095              		.loc 1 746 0
 2096 000a 9C69     		ldr	r4, [r3, #24]
 2097              	.LVL164:
 2098              		.loc 1 748 0
 2099 000c 2068     		ldr	r0, [r4]
 2100              	.LVL165:
 2101 000e 0028     		cmp	r0, #0
 2102 0010 06D0     		beq	.L214
 2103              		.loc 1 751 0
 2104 0012 598A     		ldrh	r1, [r3, #18]
 2105 0014 4018     		adds	r0, r0, r1
 2106 0016 0138     		subs	r0, r0, #1
 2107 0018 FFF7FEFF 		bl	__aeabi_uidiv
 2108              	.LVL166:
 2109 001c 2082     		strh	r0, [r4, #16]
ARM GAS  /var/folders/t8/16hdwfmd2fg_d3q6dgx6bpmw0000gn/T//cc9y1LiY.s 			page 38


 2110              	.L211:
 2111              		.loc 1 753 0
 2112              		@ sp needed
 2113              	.LVL167:
 2114 001e 10BD     		pop	{r4, pc}
 2115              	.LVL168:
 2116              	.L214:
 2117              		.loc 1 749 0
 2118 0020 0123     		movs	r3, #1
 2119 0022 2382     		strh	r3, [r4, #16]
 2120 0024 FBE7     		b	.L211
 2121              		.cfi_endproc
 2122              	.LFE188:
 2123              		.size	usb_lld_start_out, .-usb_lld_start_out
 2124 0026 C046     		.section	.text.usb_lld_start_in,"ax",%progbits
 2125              		.align	1
 2126              		.p2align 4,,15
 2127              		.global	usb_lld_start_in
 2128              		.syntax unified
 2129              		.code	16
 2130              		.thumb_func
 2131              		.fpu softvfp
 2132              		.type	usb_lld_start_in, %function
 2133              	usb_lld_start_in:
 2134              	.LFB189:
 2135              		.loc 1 764 0
 2136              		.cfi_startproc
 2137              		@ args = 0, pretend = 0, frame = 0
 2138              		@ frame_needed = 0, uses_anonymous_args = 0
 2139              	.LVL169:
 2140              		.loc 1 767 0
 2141 0000 8B1C     		adds	r3, r1, #2
 2142 0002 9B00     		lsls	r3, r3, #2
 2143 0004 C318     		adds	r3, r0, r3
 2144              		.loc 1 764 0
 2145 0006 10B5     		push	{r4, lr}
 2146              		.cfi_def_cfa_offset 8
 2147              		.cfi_offset 4, -8
 2148              		.cfi_offset 14, -4
 2149              		.loc 1 767 0
 2150 0008 5B68     		ldr	r3, [r3, #4]
 2151              		.loc 1 768 0
 2152              		@ sp needed
 2153              		.loc 1 767 0
 2154 000a 5B69     		ldr	r3, [r3, #20]
 2155 000c 1A68     		ldr	r2, [r3]
 2156 000e FFF7FEFF 		bl	usb_packet_transmit
 2157              	.LVL170:
 2158              		.loc 1 768 0
 2159 0012 10BD     		pop	{r4, pc}
 2160              		.cfi_endproc
 2161              	.LFE189:
 2162              		.size	usb_lld_start_in, .-usb_lld_start_in
 2163              		.section	.text.usb_lld_stall_out,"ax",%progbits
 2164              		.align	1
 2165              		.p2align 4,,15
 2166              		.global	usb_lld_stall_out
ARM GAS  /var/folders/t8/16hdwfmd2fg_d3q6dgx6bpmw0000gn/T//cc9y1LiY.s 			page 39


 2167              		.syntax unified
 2168              		.code	16
 2169              		.thumb_func
 2170              		.fpu softvfp
 2171              		.type	usb_lld_stall_out, %function
 2172              	usb_lld_stall_out:
 2173              	.LFB190:
 2174              		.loc 1 778 0
 2175              		.cfi_startproc
 2176              		@ args = 0, pretend = 0, frame = 0
 2177              		@ frame_needed = 0, uses_anonymous_args = 0
 2178              		@ link register save eliminated.
 2179              	.LVL171:
 2180 0000 044B     		ldr	r3, .L217
 2181              		.loc 1 781 0
 2182 0002 C022     		movs	r2, #192
 2183 0004 9C46     		mov	ip, r3
 2184 0006 0220     		movs	r0, #2
 2185              	.LVL172:
 2186 0008 8900     		lsls	r1, r1, #2
 2187              	.LVL173:
 2188 000a 6144     		add	r1, r1, ip
 2189 000c 8B5C     		ldrb	r3, [r1, r2]
 2190              		.loc 1 783 0
 2191              		@ sp needed
 2192              		.loc 1 781 0
 2193 000e 0343     		orrs	r3, r0
 2194 0010 8B54     		strb	r3, [r1, r2]
 2195              		.loc 1 783 0
 2196 0012 7047     		bx	lr
 2197              	.L218:
 2198              		.align	2
 2199              	.L217:
 2200 0014 00200740 		.word	1074208768
 2201              		.cfi_endproc
 2202              	.LFE190:
 2203              		.size	usb_lld_stall_out, .-usb_lld_stall_out
 2204              		.section	.text.usb_lld_stall_in,"ax",%progbits
 2205              		.align	1
 2206              		.p2align 4,,15
 2207              		.global	usb_lld_stall_in
 2208              		.syntax unified
 2209              		.code	16
 2210              		.thumb_func
 2211              		.fpu softvfp
 2212              		.type	usb_lld_stall_in, %function
 2213              	usb_lld_stall_in:
 2214              	.LFB195:
 2215              		.cfi_startproc
 2216              		@ args = 0, pretend = 0, frame = 0
 2217              		@ frame_needed = 0, uses_anonymous_args = 0
 2218              		@ link register save eliminated.
 2219 0000 044B     		ldr	r3, .L220
 2220 0002 C022     		movs	r2, #192
 2221 0004 9C46     		mov	ip, r3
 2222 0006 0220     		movs	r0, #2
 2223 0008 8900     		lsls	r1, r1, #2
ARM GAS  /var/folders/t8/16hdwfmd2fg_d3q6dgx6bpmw0000gn/T//cc9y1LiY.s 			page 40


 2224 000a 6144     		add	r1, r1, ip
 2225 000c 8B5C     		ldrb	r3, [r1, r2]
 2226              		@ sp needed
 2227 000e 0343     		orrs	r3, r0
 2228 0010 8B54     		strb	r3, [r1, r2]
 2229 0012 7047     		bx	lr
 2230              	.L221:
 2231              		.align	2
 2232              	.L220:
 2233 0014 00200740 		.word	1074208768
 2234              		.cfi_endproc
 2235              	.LFE195:
 2236              		.size	usb_lld_stall_in, .-usb_lld_stall_in
 2237              		.section	.text.usb_lld_clear_out,"ax",%progbits
 2238              		.align	1
 2239              		.p2align 4,,15
 2240              		.global	usb_lld_clear_out
 2241              		.syntax unified
 2242              		.code	16
 2243              		.thumb_func
 2244              		.fpu softvfp
 2245              		.type	usb_lld_clear_out, %function
 2246              	usb_lld_clear_out:
 2247              	.LFB192:
 2248              		.loc 1 808 0
 2249              		.cfi_startproc
 2250              		@ args = 0, pretend = 0, frame = 0
 2251              		@ frame_needed = 0, uses_anonymous_args = 0
 2252              		@ link register save eliminated.
 2253              	.LVL174:
 2254 0000 044B     		ldr	r3, .L223
 2255              		.loc 1 811 0
 2256 0002 C022     		movs	r2, #192
 2257 0004 9C46     		mov	ip, r3
 2258 0006 0220     		movs	r0, #2
 2259              	.LVL175:
 2260 0008 8900     		lsls	r1, r1, #2
 2261              	.LVL176:
 2262 000a 6144     		add	r1, r1, ip
 2263 000c 8B5C     		ldrb	r3, [r1, r2]
 2264              		.loc 1 813 0
 2265              		@ sp needed
 2266              		.loc 1 811 0
 2267 000e 8343     		bics	r3, r0
 2268 0010 8B54     		strb	r3, [r1, r2]
 2269              		.loc 1 813 0
 2270 0012 7047     		bx	lr
 2271              	.L224:
 2272              		.align	2
 2273              	.L223:
 2274 0014 00200740 		.word	1074208768
 2275              		.cfi_endproc
 2276              	.LFE192:
 2277              		.size	usb_lld_clear_out, .-usb_lld_clear_out
 2278              		.section	.text.usb_lld_clear_in,"ax",%progbits
 2279              		.align	1
 2280              		.p2align 4,,15
ARM GAS  /var/folders/t8/16hdwfmd2fg_d3q6dgx6bpmw0000gn/T//cc9y1LiY.s 			page 41


 2281              		.global	usb_lld_clear_in
 2282              		.syntax unified
 2283              		.code	16
 2284              		.thumb_func
 2285              		.fpu softvfp
 2286              		.type	usb_lld_clear_in, %function
 2287              	usb_lld_clear_in:
 2288              	.LFB197:
 2289              		.cfi_startproc
 2290              		@ args = 0, pretend = 0, frame = 0
 2291              		@ frame_needed = 0, uses_anonymous_args = 0
 2292              		@ link register save eliminated.
 2293 0000 044B     		ldr	r3, .L226
 2294 0002 C022     		movs	r2, #192
 2295 0004 9C46     		mov	ip, r3
 2296 0006 0220     		movs	r0, #2
 2297 0008 8900     		lsls	r1, r1, #2
 2298 000a 6144     		add	r1, r1, ip
 2299 000c 8B5C     		ldrb	r3, [r1, r2]
 2300              		@ sp needed
 2301 000e 8343     		bics	r3, r0
 2302 0010 8B54     		strb	r3, [r1, r2]
 2303 0012 7047     		bx	lr
 2304              	.L227:
 2305              		.align	2
 2306              	.L226:
 2307 0014 00200740 		.word	1074208768
 2308              		.cfi_endproc
 2309              	.LFE197:
 2310              		.size	usb_lld_clear_in, .-usb_lld_clear_in
 2311              		.global	ep0out
 2312              		.global	ep0in
 2313              		.global	USBD1
 2314              		.section	.bss.USBD1,"aw",%nobits
 2315              		.align	2
 2316              		.type	USBD1, %object
 2317              		.size	USBD1, 232
 2318              	USBD1:
 2319 0000 00000000 		.space	232
 2319      00000000 
 2319      00000000 
 2319      00000000 
 2319      00000000 
 2320              		.section	.bss._bdt,"aw",%nobits
 2321              		.align	9
 2322              		.type	_bdt, %object
 2323              		.size	_bdt, 512
 2324              	_bdt:
 2325 0000 00000000 		.space	512
 2325      00000000 
 2325      00000000 
 2325      00000000 
 2325      00000000 
 2326              		.section	.bss._usbb,"aw",%nobits
 2327              		.align	2
 2328              		.type	_usbb, %object
 2329              		.size	_usbb, 1216
ARM GAS  /var/folders/t8/16hdwfmd2fg_d3q6dgx6bpmw0000gn/T//cc9y1LiY.s 			page 42


 2330              	_usbb:
 2331 0000 00000000 		.space	1216
 2331      00000000 
 2331      00000000 
 2331      00000000 
 2331      00000000 
 2332              		.section	.bss._usbbn,"aw",%nobits
 2333              		.set	.LANCHOR0,. + 0
 2334              		.type	_usbbn, %object
 2335              		.size	_usbbn, 1
 2336              	_usbbn:
 2337 0000 00       		.space	1
 2338              		.section	.bss.ep0in,"aw",%nobits
 2339              		.align	2
 2340              		.type	ep0in, %object
 2341              		.size	ep0in, 20
 2342              	ep0in:
 2343 0000 00000000 		.space	20
 2343      00000000 
 2343      00000000 
 2343      00000000 
 2343      00000000 
 2344              		.section	.bss.ep0out,"aw",%nobits
 2345              		.align	2
 2346              		.type	ep0out, %object
 2347              		.size	ep0out, 20
 2348              	ep0out:
 2349 0000 00000000 		.space	20
 2349      00000000 
 2349      00000000 
 2349      00000000 
 2349      00000000 
 2350              		.section	.bss.ep0setup_buffer,"aw",%nobits
 2351              		.align	2
 2352              		.type	ep0setup_buffer, %object
 2353              		.size	ep0setup_buffer, 8
 2354              	ep0setup_buffer:
 2355 0000 00000000 		.space	8
 2355      00000000 
 2356              		.section	.rodata.ep0config,"a",%progbits
 2357              		.align	2
 2358              		.set	.LANCHOR1,. + 0
 2359              		.type	ep0config, %object
 2360              		.size	ep0config, 36
 2361              	ep0config:
 2362 0000 00000000 		.word	0
 2363 0004 00000000 		.word	_usb_ep0setup
 2364 0008 00000000 		.word	_usb_ep0in
 2365 000c 00000000 		.word	_usb_ep0out
 2366 0010 4000     		.short	64
 2367 0012 4000     		.short	64
 2368 0014 00000000 		.word	ep0in
 2369 0018 00000000 		.word	ep0out
 2370 001c 0100     		.short	1
 2371 001e 0000     		.space	2
 2372 0020 00000000 		.word	ep0setup_buffer
 2373              		.text
ARM GAS  /var/folders/t8/16hdwfmd2fg_d3q6dgx6bpmw0000gn/T//cc9y1LiY.s 			page 43


 2374              	.Letext0:
 2375              		.file 5 "/usr/local/Caskroom/gcc-arm-embedded/7-2017-q4-major/gcc-arm-none-eabi-7-2017-q4-major/li
 2376              		.file 6 "/usr/local/Caskroom/gcc-arm-embedded/7-2017-q4-major/gcc-arm-none-eabi-7-2017-q4-major/ar
 2377              		.file 7 "/usr/local/Caskroom/gcc-arm-embedded/7-2017-q4-major/gcc-arm-none-eabi-7-2017-q4-major/ar
 2378              		.file 8 "/usr/local/Caskroom/gcc-arm-embedded/7-2017-q4-major/gcc-arm-none-eabi-7-2017-q4-major/ar
 2379              		.file 9 "/usr/local/Caskroom/gcc-arm-embedded/7-2017-q4-major/gcc-arm-none-eabi-7-2017-q4-major/ar
 2380              		.file 10 "/usr/local/Caskroom/gcc-arm-embedded/7-2017-q4-major/gcc-arm-none-eabi-7-2017-q4-major/a
 2381              		.file 11 "../../tmk_core/tool/chibios/ChibiOS/os/common/ports/ARMCMx/compilers/GCC/chtypes.h"
 2382              		.file 12 "../../tmk_core/tool/chibios/ChibiOS/os/rt/include/chsystypes.h"
 2383              		.file 13 "../../tmk_core/tool/chibios/ChibiOS/os/rt/include/chschd.h"
 2384              		.file 14 "../../tmk_core/tool/chibios/ChibiOS-Contrib/os/common/ext/CMSIS/KINETIS/kl26z.h"
 2385              		.file 15 "../../tmk_core/tool/chibios/ChibiOS-Contrib/os/common/ext/CMSIS/KINETIS/kl2xz.h"
 2386              		.file 16 "../../tmk_core/tool/chibios/ChibiOS/os/common/ports/ARMCMx/chcore.h"
 2387              		.file 17 "../../tmk_core/tool/chibios/ChibiOS/os/common/ports/ARMCMx/chcore_v6m.h"
 2388              		.file 18 "../../tmk_core/tool/chibios/ChibiOS/os/rt/include/chsem.h"
 2389              		.file 19 "../../tmk_core/tool/chibios/ChibiOS/os/rt/include/chmtx.h"
 2390              		.file 20 "../../tmk_core/tool/chibios/ChibiOS/os/rt/include/chregistry.h"
 2391              		.file 21 "../../tmk_core/tool/chibios/ChibiOS-Contrib/os/hal/ports/KINETIS/LLD/hal_pal_lld.h"
 2392              		.file 22 "../../tmk_core/tool/chibios/ChibiOS/os/hal/include/hal_usb.h"
 2393              		.file 23 "../../tmk_core/tool/chibios/ChibiOS-Contrib/os/hal/ports/KINETIS/LLD/hal_usb_lld.h"
 2394              		.file 24 "../../tmk_core/tool/chibios/ChibiOS/os/hal/ports/common/ARMCMx/nvic.h"
 2395              		.file 25 "../../tmk_core/tool/chibios/ChibiOS/os/rt/include/chdebug.h"
 2396              		.file 26 "../../tmk_core/tool/chibios/ChibiOS/os/rt/include/chthreads.h"