ARM GAS  /var/folders/t8/16hdwfmd2fg_d3q6dgx6bpmw0000gn/T//ccj951ho.s 			page 1


   1              		.cpu cortex-m0plus
   2              		.eabi_attribute 20, 1
   3              		.eabi_attribute 21, 1
   4              		.eabi_attribute 23, 3
   5              		.eabi_attribute 24, 1
   6              		.eabi_attribute 25, 1
   7              		.eabi_attribute 26, 1
   8              		.eabi_attribute 30, 2
   9              		.eabi_attribute 34, 0
  10              		.eabi_attribute 18, 4
  11              		.file	"hal_st.c"
  12              		.text
  13              	.Ltext0:
  14              		.cfi_sections	.debug_frame
  15              		.section	.text.stInit,"ax",%progbits
  16              		.align	1
  17              		.p2align 4,,15
  18              		.global	stInit
  19              		.syntax unified
  20              		.code	16
  21              		.thumb_func
  22              		.fpu softvfp
  23              		.type	stInit, %function
  24              	stInit:
  25              	.LFB174:
  26              		.file 1 "../../tmk_core/tool/chibios/ChibiOS/os/hal/src/hal_st.c"
  27              		.loc 1 60 0
  28              		.cfi_startproc
  29              		@ args = 0, pretend = 0, frame = 0
  30              		@ frame_needed = 0, uses_anonymous_args = 0
  31 0000 10B5     		push	{r4, lr}
  32              		.cfi_def_cfa_offset 8
  33              		.cfi_offset 4, -8
  34              		.cfi_offset 14, -4
  35              		.loc 1 62 0
  36 0002 FFF7FEFF 		bl	st_lld_init
  37              	.LVL0:
  38              		.loc 1 63 0
  39              		@ sp needed
  40 0006 10BD     		pop	{r4, pc}
  41              		.cfi_endproc
  42              	.LFE174:
  43              		.size	stInit, .-stInit
  44              		.section	.text.stStartAlarm,"ax",%progbits
  45              		.align	1
  46              		.p2align 4,,15
  47              		.global	stStartAlarm
  48              		.syntax unified
  49              		.code	16
  50              		.thumb_func
  51              		.fpu softvfp
  52              		.type	stStartAlarm, %function
  53              	stStartAlarm:
  54              	.LFB175:
  55              		.loc 1 76 0
  56              		.cfi_startproc
  57              		@ args = 0, pretend = 0, frame = 0
ARM GAS  /var/folders/t8/16hdwfmd2fg_d3q6dgx6bpmw0000gn/T//ccj951ho.s 			page 2


  58              		@ frame_needed = 0, uses_anonymous_args = 0
  59              		@ link register save eliminated.
  60              	.LVL1:
  61              		.loc 1 81 0
  62              		@ sp needed
  63 0000 7047     		bx	lr
  64              		.cfi_endproc
  65              	.LFE175:
  66              		.size	stStartAlarm, .-stStartAlarm
  67 0002 C046     		.section	.text.stStopAlarm,"ax",%progbits
  68              		.align	1
  69              		.p2align 4,,15
  70              		.global	stStopAlarm
  71              		.syntax unified
  72              		.code	16
  73              		.thumb_func
  74              		.fpu softvfp
  75              		.type	stStopAlarm, %function
  76              	stStopAlarm:
  77              	.LFB176:
  78              		.loc 1 90 0
  79              		.cfi_startproc
  80              		@ args = 0, pretend = 0, frame = 0
  81              		@ frame_needed = 0, uses_anonymous_args = 0
  82              		@ link register save eliminated.
  83              		.loc 1 93 0
  84              		@ sp needed
  85 0000 7047     		bx	lr
  86              		.cfi_endproc
  87              	.LFE176:
  88              		.size	stStopAlarm, .-stStopAlarm
  89 0002 C046     		.section	.text.stSetAlarm,"ax",%progbits
  90              		.align	1
  91              		.p2align 4,,15
  92              		.global	stSetAlarm
  93              		.syntax unified
  94              		.code	16
  95              		.thumb_func
  96              		.fpu softvfp
  97              		.type	stSetAlarm, %function
  98              	stSetAlarm:
  99              	.LFB177:
 100              		.loc 1 104 0
 101              		.cfi_startproc
 102              		@ args = 0, pretend = 0, frame = 0
 103              		@ frame_needed = 0, uses_anonymous_args = 0
 104              	.LVL2:
 105 0000 10B5     		push	{r4, lr}
 106              		.cfi_def_cfa_offset 8
 107              		.cfi_offset 4, -8
 108              		.cfi_offset 14, -4
 109              		.loc 1 106 0
 110 0002 0248     		ldr	r0, .L6
 111              	.LVL3:
 112 0004 FFF7FEFF 		bl	chSysHalt
 113              	.LVL4:
 114              		.loc 1 109 0
ARM GAS  /var/folders/t8/16hdwfmd2fg_d3q6dgx6bpmw0000gn/T//ccj951ho.s 			page 3


 115              		@ sp needed
 116 0008 10BD     		pop	{r4, pc}
 117              	.L7:
 118 000a C046     		.align	2
 119              	.L6:
 120 000c 00000000 		.word	.LANCHOR0
 121              		.cfi_endproc
 122              	.LFE177:
 123              		.size	stSetAlarm, .-stSetAlarm
 124              		.section	.text.stGetAlarm,"ax",%progbits
 125              		.align	1
 126              		.p2align 4,,15
 127              		.global	stGetAlarm
 128              		.syntax unified
 129              		.code	16
 130              		.thumb_func
 131              		.fpu softvfp
 132              		.type	stGetAlarm, %function
 133              	stGetAlarm:
 134              	.LFB178:
 135              		.loc 1 120 0
 136              		.cfi_startproc
 137              		@ args = 0, pretend = 0, frame = 0
 138              		@ frame_needed = 0, uses_anonymous_args = 0
 139 0000 10B5     		push	{r4, lr}
 140              		.cfi_def_cfa_offset 8
 141              		.cfi_offset 4, -8
 142              		.cfi_offset 14, -4
 143              		.loc 1 122 0
 144 0002 0248     		ldr	r0, .L9
 145 0004 FFF7FEFF 		bl	chSysHalt
 146              	.LVL5:
 147              		.loc 1 125 0
 148              		@ sp needed
 149 0008 0020     		movs	r0, #0
 150 000a 10BD     		pop	{r4, pc}
 151              	.L10:
 152              		.align	2
 153              	.L9:
 154 000c 00000000 		.word	.LANCHOR1
 155              		.cfi_endproc
 156              	.LFE178:
 157              		.size	stGetAlarm, .-stGetAlarm
 158              		.section	.rodata.__func__.6430,"a",%progbits
 159              		.align	2
 160              		.set	.LANCHOR0,. + 0
 161              		.type	__func__.6430, %object
 162              		.size	__func__.6430, 11
 163              	__func__.6430:
 164 0000 73745365 		.ascii	"stSetAlarm\000"
 164      74416C61 
 164      726D00
 165              		.section	.rodata.__func__.6434,"a",%progbits
 166              		.align	2
 167              		.set	.LANCHOR1,. + 0
 168              		.type	__func__.6434, %object
 169              		.size	__func__.6434, 11
ARM GAS  /var/folders/t8/16hdwfmd2fg_d3q6dgx6bpmw0000gn/T//ccj951ho.s 			page 4


 170              	__func__.6434:
 171 0000 73744765 		.ascii	"stGetAlarm\000"
 171      74416C61 
 171      726D00
 172              		.text
 173              	.Letext0:
 174              		.file 2 "/usr/local/Caskroom/gcc-arm-embedded/7-2017-q4-major/gcc-arm-none-eabi-7-2017-q4-major/li
 175              		.file 3 "/usr/local/Caskroom/gcc-arm-embedded/7-2017-q4-major/gcc-arm-none-eabi-7-2017-q4-major/ar
 176              		.file 4 "/usr/local/Caskroom/gcc-arm-embedded/7-2017-q4-major/gcc-arm-none-eabi-7-2017-q4-major/ar
 177              		.file 5 "../../tmk_core/tool/chibios/ChibiOS/os/common/ports/ARMCMx/compilers/GCC/chtypes.h"
 178              		.file 6 "../../tmk_core/tool/chibios/ChibiOS/os/rt/include/chsystypes.h"
 179              		.file 7 "../../tmk_core/tool/chibios/ChibiOS/os/rt/include/chschd.h"
 180              		.file 8 "../../tmk_core/tool/chibios/ChibiOS-Contrib/os/common/ext/CMSIS/KINETIS/kl2xz.h"
 181              		.file 9 "../../tmk_core/tool/chibios/ChibiOS/os/common/ports/ARMCMx/chcore.h"
 182              		.file 10 "../../tmk_core/tool/chibios/ChibiOS/os/common/ports/ARMCMx/chcore_v6m.h"
 183              		.file 11 "../../tmk_core/tool/chibios/ChibiOS/os/rt/include/chsem.h"
 184              		.file 12 "../../tmk_core/tool/chibios/ChibiOS/os/rt/include/chmtx.h"
 185              		.file 13 "../../tmk_core/tool/chibios/ChibiOS/os/rt/include/chregistry.h"
 186              		.file 14 "../../tmk_core/tool/chibios/ChibiOS/os/rt/include/chsys.h"
 187              		.file 15 "../../tmk_core/tool/chibios/ChibiOS-Contrib/os/hal/ports/KINETIS/LLD/hal_pal_lld.h"
 188              		.file 16 "../../tmk_core/tool/chibios/ChibiOS/os/hal/include/hal_usb.h"
 189              		.file 17 "../../tmk_core/tool/chibios/ChibiOS-Contrib/os/hal/ports/KINETIS/LLD/hal_usb_lld.h"
 190              		.file 18 "../../tmk_core/tool/chibios/ChibiOS-Contrib/os/hal/ports/KINETIS/LLD/hal_st_lld.h"