ARM GAS  /var/folders/t8/16hdwfmd2fg_d3q6dgx6bpmw0000gn/T//ccj951ho.s 			page 1


   1              		.cpu cortex-m0plus
   2              		.eabi_attribute 20, 1
   3              		.eabi_attribute 21, 1
   4              		.eabi_attribute 23, 3
   5              		.eabi_attribute 24, 1
   6              		.eabi_attribute 25, 1
   7              		.eabi_attribute 26, 1
   8              		.eabi_attribute 30, 2
   9              		.eabi_attribute 34, 0
  10              		.eabi_attribute 18, 4
  11              		.file	"hal_st.c"
  12              		.text
  13              	.Ltext0:
  14              		.cfi_sections	.debug_frame
  15              		.section	.text.stInit,"ax",%progbits
  16              		.align	1
  17              		.p2align 4,,15
  18              		.global	stInit
  19              		.syntax unified
  20              		.code	16
  21              		.thumb_func
  22              		.fpu softvfp
  23              		.type	stInit, %function
  24              	stInit:
  25              	.LFB174:
  26              		.file 1 "../../tmk_core/tool/chibios/ChibiOS/os/hal/src/hal_st.c"
  27              		.loc 1 60 0
  28              		.cfi_startproc
  29              		@ args = 0, pretend = 0, frame = 0
  30              		@ frame_needed = 0, uses_anonymous_args = 0
  31 0000 10B5     		push	{r4, lr}
  32              		.cfi_def_cfa_offset 8
  33              		.cfi_offset 4, -8
  34              		.cfi_offset 14, -4
  35              		.loc 1 62 0
  36 0002 FFF7FEFF 		bl	st_lld_init
  37              	.LVL0:
  38              		.loc 1 63 0
  39              		@ sp needed
  40 0006 10BD     		pop	{r4, pc}
  41              		.cfi_endproc
  42              	.LFE174:
  43              		.size	stInit, .-stInit
  44              		.section	.text.stStartAlarm,"ax",%progbits
  45              		.align	1
  46              		.p2align 4,,15
  47              		.global	stStartAlarm
  48              		.syntax unified
  49              		.code	16
  50              		.thumb_func
  51              		.fpu softvfp
  52              		.type	stStartAlarm, %function
  53              	stStartAlarm:
  54              	.LFB175:
  55              		.loc 1 76 0
  56              		.cfi_startproc
  57              		@ args = 0, pretend = 0, frame = 0
ARM GAS  /var/folders/t8/16hdwfmd2fg_d3q6dgx6bpmw0000gn/T//ccj951ho.s 			page 2


  58              		@ frame_needed = 0, uses_anonymous_args = 0
  59              		@ link register save eliminated.
  60              	.LVL1:
  61              		.loc 1 81 0
  62              		@ sp needed
  63 0000 7047     		bx	lr
  64              		.cfi_endproc
  65              	.LFE175:
  66              		.size	stStartAlarm, .-stStartAlarm
  67 0002 C046     		.section	.text.stStopAlarm,"ax",%progbits
  68              		.align	1
  69              		.p2align 4,,15
  70              		.global	stStopAlarm
  71              		.syntax unified
  72              		.code	16
  73              		.thumb_func
  74              		.fpu softvfp
  75              		.type	stStopAlarm, %function
  76              	stStopAlarm:
  77              	.LFB176:
  78              		.loc 1 90 0
  79              		.cfi_startproc
  80              		@ args = 0, pretend = 0, frame = 0
  81              		@ frame_needed = 0, uses_anonymous_args = 0
  82              		@ link register save eliminated.
  83              		.loc 1 93 0
  84              		@ sp needed
  85 0000 7047     		bx	lr
  86              		.cfi_endproc
  87              	.LFE176:
  88              		.size	stStopAlarm, .-stStopAlarm
  89 0002 C046     		.section	.text.stSetAlarm,"ax",%progbits
  90              		.align	1
  91              		.p2align 4,,15
  92              		.global	stSetAlarm
  93              		.syntax unified
  94              		.code	16
  95              		.thumb_func
  96              		.fpu softvfp
  97              		.type	stSetAlarm, %function
  98              	stSetAlarm:
  99              	.LFB177:
 100              		.loc 1 104 0
 101              		.cfi_startproc
 102              		@ args = 0, pretend = 0, frame = 0
 103              		@ frame_needed = 0, uses_anonymous_args = 0
 104              	.LVL2:
 105 0000 10B5     		push	{r4, lr}
 106              		.cfi_def_cfa_offset 8
 107              		.cfi_offset 4, -8
 108              		.cfi_offset 14, -4
 109              		.loc 1 106 0
 110 0002 0248     		ldr	r0, .L6
 111              	.LVL3:
 112 0004 FFF7FEFF 		bl	chSysHalt
 113              	.LVL4:
 114              		.loc 1 109 0
ARM GAS  /var/folders/t8/16hdwfmd2fg_d3q6dgx6bpmw0000gn/T//ccj951ho.s 			page 3


 115              		@ sp needed
 116 0008 10BD     		pop	{r4, pc}
 117              	.L7:
 118 000a C046     		.align	2
 119              	.L6:
 120 000c 00000000 		.word	.LANCHOR0
 121              		.cfi_endproc
 122              	.LFE177:
 123              		.size	stSetAlarm, .-stSetAlarm
 124              		.section	.text.stGetAlarm,"ax",%progbits
 125              		.align	1
 126              		.p2align 4,,15
 127              		.global	stGetAlarm
 128              		.syntax unified
 129              		.code	16
 130              		.thumb_func
 131              		.fpu softvfp
 132              		.type	stGetAlarm, %function
 133              	stGetAlarm:
 134              	.LFB178:
 135              		.loc 1 120 0
 136              		.cfi_startproc
 137              		@ args = 0, pretend = 0, frame = 0
 138              		@ frame_needed = 0, uses_anonymous_args = 0
 139 0000 10B5     		push	{r4, lr}
 140              		.cfi_def_cfa_offset 8
 141              		.cfi_offset 4, -8
 142              		.cfi_offset 14, -4
 143              		.loc 1 122 0
 144 0002 0248     		ldr	r0, .L9
 145 0004 FFF7FEFF 		bl	chSysHalt
 146              	.LVL5:
 147              		.loc 1 125 0
 148              		@ sp needed
 149 0008 0020     		movs	r0, #0
 150 000a 10BD     		pop	{r4, pc}
 151              	.L10:
 152              		.align	2
 153              	.L9:
 154 000c 00000000 		.word	.LANCHOR1
 155              		.cfi_endproc
 156              	.LFE178:
 157              		.size	stGetAlarm, .-stGetAlarm
 158              		.section	.rodata.__func__.6430,"a",%progbits
 159              		.align	2
 160              		.set	.LANCHOR0,. + 0
 161              		.type	__func__.6430, %object
 162              		.size	__func__.6430, 11
 163              	__func__.6430:
 164 0000 73745365 		.ascii	"stSetAlarm\000"
 164      74416C61 
 164      726D00
 165              		.section	.rodata.__func__.6434,"a",%progbits
 166              		.align	2
 167              		.set	.LANCHOR1,. + 0
 168              		.type	__func__.6434, %object
 169              		.size	__func__.6434, 11
ARM GAS  /var/folders/t8/16hdwfmd2fg_d3q6dgx6bpmw0000gn/T//ccj951ho.s 			page 4


 170              	__func__.6434:
 171 0000 73744765 		.ascii	"stGetAlarm\000"
 171      74416C61 
 171      726D00
 172              		.text
 173              	.Letext0:
 174              		.file 2 "/usr/local/Caskroom/gcc-arm-embedded/7-2017-q4-major/gcc-arm-none-eabi-7-2017-q4-major/li
 175              		.file 3 "/usr/local/Caskroom/gcc-arm-embedded/7-2017-q4-major/gcc-arm-none-eabi-7-2017-q4-major/ar
 176              		.file 4 "/usr/local/Caskroom/gcc-arm-embedded/7-2017-q4-major/gcc-arm-none-eabi-7-2017-q4-major/ar
 177              		.file 5 "../../tmk_core/tool/chibios/ChibiOS/os/common/ports/ARMCMx/compilers/GCC/chtypes.h"
 178              		.file 6 "../../tmk_core/tool/chibios/ChibiOS/os/rt/include/chsystypes.h"
 179              		.file 7 "../../tmk_core/tool/chibios/ChibiOS/os/rt/include/chschd.h"
 180              		.file 8 "../../tmk_core/tool/chibios/ChibiOS-Contrib/os/common/ext/CMSIS/KINETIS/kl2xz.h"
 181              		.file 9 "../../tmk_core/tool/chibios/ChibiOS/os/common/ports/ARMCMx/chcore.h"
 182              		.file 10 "../../tmk_core/tool/chibios/ChibiOS/os/common/ports/ARMCMx/chcore_v6m.h"
 183              		.file 11 "../../tmk_core/tool/chibios/ChibiOS/os/rt/include/chsem.h"
 184              		.file 12 "../../tmk_core/tool/chibios/ChibiOS/os/rt/include/chmtx.h"
 185              		.file 13 "../../tmk_core/tool/chibios/ChibiOS/os/rt/include/chregistry.h"
 186              		.file 14 "../../tmk_core/tool/chibios/ChibiOS/os/rt/include/chsys.h"
 187              		.file 15 "../../tmk_core/tool/chibios/ChibiOS-Contrib/os/hal/ports/KINETIS/LLD/hal_pal_lld.h"
 188              		.file 16 "../../tmk_core/tool/chibios/ChibiOS/os/hal/include/hal_usb.h"
 189              		.file 17 "../../tmk_core/tool/chibios/ChibiOS-Contrib/os/hal/ports/KINETIS/LLD/hal_usb_lld.h"
 190              		.file 18 "../../tmk_core/tool/chibios/ChibiOS-Contrib/os/hal/ports/KINETIS/LLD/hal_st_lld.h"
 191              		.section	.debug_info,"",%progbits
 192              	.Ldebug_info0:
 193 0000 680E0000 		.4byte	0xe68
 194 0004 0400     		.2byte	0x4
 195 0006 00000000 		.4byte	.Ldebug_abbrev0
 196 000a 04       		.byte	0x4
 197 000b 01       		.uleb128 0x1
 198 000c AB050000 		.4byte	.LASF218
 199 0010 0C       		.byte	0xc
 200 0011 E9090000 		.4byte	.LASF219
 201 0015 CF030000 		.4byte	.LASF220
 202 0019 00000000 		.4byte	.Ldebug_ranges0+0
 203 001d 00000000 		.4byte	0
 204 0021 00000000 		.4byte	.Ldebug_line0
 205 0025 02       		.uleb128 0x2
 206 0026 04       		.byte	0x4
 207 0027 05       		.byte	0x5
 208 0028 696E7400 		.ascii	"int\000"
 209 002c 03       		.uleb128 0x3
 210 002d 22000000 		.4byte	.LASF2
 211 0031 02       		.byte	0x2
 212 0032 D8       		.byte	0xd8
 213 0033 37000000 		.4byte	0x37
 214 0037 04       		.uleb128 0x4
 215 0038 04       		.byte	0x4
 216 0039 07       		.byte	0x7
 217 003a FF020000 		.4byte	.LASF0
 218 003e 04       		.uleb128 0x4
 219 003f 01       		.byte	0x1
 220 0040 06       		.byte	0x6
 221 0041 3A010000 		.4byte	.LASF1
 222 0045 03       		.uleb128 0x3
 223 0046 49000000 		.4byte	.LASF3
 224 004a 03       		.byte	0x3
ARM GAS  /var/folders/t8/16hdwfmd2fg_d3q6dgx6bpmw0000gn/T//ccj951ho.s 			page 5


 225 004b 2B       		.byte	0x2b
 226 004c 50000000 		.4byte	0x50
 227 0050 04       		.uleb128 0x4
 228 0051 01       		.byte	0x1
 229 0052 08       		.byte	0x8
 230 0053 1F070000 		.4byte	.LASF4
 231 0057 04       		.uleb128 0x4
 232 0058 02       		.byte	0x2
 233 0059 05       		.byte	0x5
 234 005a 4B070000 		.4byte	.LASF5
 235 005e 03       		.uleb128 0x3
 236 005f 6B080000 		.4byte	.LASF6
 237 0063 03       		.byte	0x3
 238 0064 39       		.byte	0x39
 239 0065 69000000 		.4byte	0x69
 240 0069 04       		.uleb128 0x4
 241 006a 02       		.byte	0x2
 242 006b 07       		.byte	0x7
 243 006c F2080000 		.4byte	.LASF7
 244 0070 03       		.uleb128 0x3
 245 0071 76040000 		.4byte	.LASF8
 246 0075 03       		.byte	0x3
 247 0076 4D       		.byte	0x4d
 248 0077 7B000000 		.4byte	0x7b
 249 007b 04       		.uleb128 0x4
 250 007c 04       		.byte	0x4
 251 007d 05       		.byte	0x5
 252 007e CB010000 		.4byte	.LASF9
 253 0082 03       		.uleb128 0x3
 254 0083 9D080000 		.4byte	.LASF10
 255 0087 03       		.byte	0x3
 256 0088 4F       		.byte	0x4f
 257 0089 8D000000 		.4byte	0x8d
 258 008d 04       		.uleb128 0x4
 259 008e 04       		.byte	0x4
 260 008f 07       		.byte	0x7
 261 0090 32080000 		.4byte	.LASF11
 262 0094 04       		.uleb128 0x4
 263 0095 08       		.byte	0x8
 264 0096 05       		.byte	0x5
 265 0097 2C010000 		.4byte	.LASF12
 266 009b 03       		.uleb128 0x3
 267 009c A0050000 		.4byte	.LASF13
 268 00a0 03       		.byte	0x3
 269 00a1 69       		.byte	0x69
 270 00a2 A6000000 		.4byte	0xa6
 271 00a6 04       		.uleb128 0x4
 272 00a7 08       		.byte	0x8
 273 00a8 07       		.byte	0x7
 274 00a9 99000000 		.4byte	.LASF14
 275 00ad 03       		.uleb128 0x3
 276 00ae 6F070000 		.4byte	.LASF15
 277 00b2 04       		.byte	0x4
 278 00b3 18       		.byte	0x18
 279 00b4 45000000 		.4byte	0x45
 280 00b8 05       		.uleb128 0x5
 281 00b9 AD000000 		.4byte	0xad
ARM GAS  /var/folders/t8/16hdwfmd2fg_d3q6dgx6bpmw0000gn/T//ccj951ho.s 			page 6


 282 00bd 03       		.uleb128 0x3
 283 00be 2A020000 		.4byte	.LASF16
 284 00c2 04       		.byte	0x4
 285 00c3 24       		.byte	0x24
 286 00c4 5E000000 		.4byte	0x5e
 287 00c8 03       		.uleb128 0x3
 288 00c9 17070000 		.4byte	.LASF17
 289 00cd 04       		.byte	0x4
 290 00ce 2C       		.byte	0x2c
 291 00cf 70000000 		.4byte	0x70
 292 00d3 03       		.uleb128 0x3
 293 00d4 3C090000 		.4byte	.LASF18
 294 00d8 04       		.byte	0x4
 295 00d9 30       		.byte	0x30
 296 00da 82000000 		.4byte	0x82
 297 00de 06       		.uleb128 0x6
 298 00df D3000000 		.4byte	0xd3
 299 00e3 03       		.uleb128 0x3
 300 00e4 35000000 		.4byte	.LASF19
 301 00e8 04       		.byte	0x4
 302 00e9 3C       		.byte	0x3c
 303 00ea 9B000000 		.4byte	0x9b
 304 00ee 03       		.uleb128 0x3
 305 00ef 42040000 		.4byte	.LASF20
 306 00f3 05       		.byte	0x5
 307 00f4 3C       		.byte	0x3c
 308 00f5 AD000000 		.4byte	0xad
 309 00f9 03       		.uleb128 0x3
 310 00fa F1010000 		.4byte	.LASF21
 311 00fe 05       		.byte	0x5
 312 00ff 3D       		.byte	0x3d
 313 0100 AD000000 		.4byte	0xad
 314 0104 03       		.uleb128 0x3
 315 0105 14080000 		.4byte	.LASF22
 316 0109 05       		.byte	0x5
 317 010a 3E       		.byte	0x3e
 318 010b AD000000 		.4byte	0xad
 319 010f 03       		.uleb128 0x3
 320 0110 90010000 		.4byte	.LASF23
 321 0114 05       		.byte	0x5
 322 0115 3F       		.byte	0x3f
 323 0116 AD000000 		.4byte	0xad
 324 011a 03       		.uleb128 0x3
 325 011b E4060000 		.4byte	.LASF24
 326 011f 05       		.byte	0x5
 327 0120 40       		.byte	0x40
 328 0121 D3000000 		.4byte	0xd3
 329 0125 03       		.uleb128 0x3
 330 0126 BF030000 		.4byte	.LASF25
 331 012a 05       		.byte	0x5
 332 012b 41       		.byte	0x41
 333 012c C8000000 		.4byte	0xc8
 334 0130 03       		.uleb128 0x3
 335 0131 60040000 		.4byte	.LASF26
 336 0135 05       		.byte	0x5
 337 0136 43       		.byte	0x43
 338 0137 D3000000 		.4byte	0xd3
ARM GAS  /var/folders/t8/16hdwfmd2fg_d3q6dgx6bpmw0000gn/T//ccj951ho.s 			page 7


 339 013b 03       		.uleb128 0x3
 340 013c F0020000 		.4byte	.LASF27
 341 0140 05       		.byte	0x5
 342 0141 45       		.byte	0x45
 343 0142 C8000000 		.4byte	0xc8
 344 0146 03       		.uleb128 0x3
 345 0147 8A080000 		.4byte	.LASF28
 346 014b 06       		.byte	0x6
 347 014c 33       		.byte	0x33
 348 014d D3000000 		.4byte	0xd3
 349 0151 06       		.uleb128 0x6
 350 0152 46010000 		.4byte	0x146
 351 0156 03       		.uleb128 0x3
 352 0157 76080000 		.4byte	.LASF29
 353 015b 06       		.byte	0x6
 354 015c 3F       		.byte	0x3f
 355 015d 61010000 		.4byte	0x161
 356 0161 07       		.uleb128 0x7
 357 0162 9C030000 		.4byte	.LASF48
 358 0166 44       		.byte	0x44
 359 0167 07       		.byte	0x7
 360 0168 9A       		.byte	0x9a
 361 0169 4B020000 		.4byte	0x24b
 362 016d 08       		.uleb128 0x8
 363 016e 49030000 		.4byte	.LASF30
 364 0172 07       		.byte	0x7
 365 0173 9B       		.byte	0x9b
 366 0174 80020000 		.4byte	0x280
 367 0178 00       		.byte	0
 368 0179 08       		.uleb128 0x8
 369 017a 6A050000 		.4byte	.LASF31
 370 017e 07       		.byte	0x7
 371 017f 9C       		.byte	0x9c
 372 0180 1A010000 		.4byte	0x11a
 373 0184 08       		.byte	0x8
 374 0185 09       		.uleb128 0x9
 375 0186 63747800 		.ascii	"ctx\000"
 376 018a 07       		.byte	0x7
 377 018b 9D       		.byte	0x9d
 378 018c DB040000 		.4byte	0x4db
 379 0190 0C       		.byte	0xc
 380 0191 08       		.uleb128 0x8
 381 0192 06020000 		.4byte	.LASF32
 382 0196 07       		.byte	0x7
 383 0197 9F       		.byte	0x9f
 384 0198 56020000 		.4byte	0x256
 385 019c 10       		.byte	0x10
 386 019d 08       		.uleb128 0x8
 387 019e 5E080000 		.4byte	.LASF33
 388 01a2 07       		.byte	0x7
 389 01a3 A0       		.byte	0xa0
 390 01a4 56020000 		.4byte	0x256
 391 01a8 14       		.byte	0x14
 392 01a9 08       		.uleb128 0x8
 393 01aa 44030000 		.4byte	.LASF34
 394 01ae 07       		.byte	0x7
 395 01af A7       		.byte	0xa7
ARM GAS  /var/folders/t8/16hdwfmd2fg_d3q6dgx6bpmw0000gn/T//ccj951ho.s 			page 8


 396 01b0 36060000 		.4byte	0x636
 397 01b4 18       		.byte	0x18
 398 01b5 08       		.uleb128 0x8
 399 01b6 33020000 		.4byte	.LASF35
 400 01ba 07       		.byte	0x7
 401 01bb B0       		.byte	0xb0
 402 01bc 4D060000 		.4byte	0x64d
 403 01c0 1C       		.byte	0x1c
 404 01c1 08       		.uleb128 0x8
 405 01c2 BA010000 		.4byte	.LASF36
 406 01c6 07       		.byte	0x7
 407 01c7 B5       		.byte	0xb5
 408 01c8 F9000000 		.4byte	0xf9
 409 01cc 20       		.byte	0x20
 410 01cd 08       		.uleb128 0x8
 411 01ce C7090000 		.4byte	.LASF37
 412 01d2 07       		.byte	0x7
 413 01d3 B9       		.byte	0xb9
 414 01d4 EE000000 		.4byte	0xee
 415 01d8 21       		.byte	0x21
 416 01d9 08       		.uleb128 0x8
 417 01da BD060000 		.4byte	.LASF38
 418 01de 07       		.byte	0x7
 419 01df BE       		.byte	0xbe
 420 01e0 04010000 		.4byte	0x104
 421 01e4 22       		.byte	0x22
 422 01e5 08       		.uleb128 0x8
 423 01e6 730A0000 		.4byte	.LASF39
 424 01ea 07       		.byte	0x7
 425 01eb C4       		.byte	0xc4
 426 01ec 0F010000 		.4byte	0x10f
 427 01f0 23       		.byte	0x23
 428 01f1 0A       		.uleb128 0xa
 429 01f2 7500     		.ascii	"u\000"
 430 01f4 07       		.byte	0x7
 431 01f5 0F01     		.2byte	0x10f
 432 01f7 6B050000 		.4byte	0x56b
 433 01fb 24       		.byte	0x24
 434 01fc 0B       		.uleb128 0xb
 435 01fd D2020000 		.4byte	.LASF40
 436 0201 07       		.byte	0x7
 437 0202 1401     		.2byte	0x114
 438 0204 5C020000 		.4byte	0x25c
 439 0208 28       		.byte	0x28
 440 0209 0B       		.uleb128 0xb
 441 020a F6020000 		.4byte	.LASF41
 442 020e 07       		.byte	0x7
 443 020f 1A01     		.2byte	0x11a
 444 0211 80020000 		.4byte	0x280
 445 0215 2C       		.byte	0x2c
 446 0216 0B       		.uleb128 0xb
 447 0217 16040000 		.4byte	.LASF42
 448 021b 07       		.byte	0x7
 449 021c 2001     		.2byte	0x120
 450 021e 30010000 		.4byte	0x130
 451 0222 34       		.byte	0x34
 452 0223 0B       		.uleb128 0xb
ARM GAS  /var/folders/t8/16hdwfmd2fg_d3q6dgx6bpmw0000gn/T//ccj951ho.s 			page 9


 453 0224 580A0000 		.4byte	.LASF43
 454 0228 07       		.byte	0x7
 455 0229 2701     		.2byte	0x127
 456 022b 30060000 		.4byte	0x630
 457 022f 38       		.byte	0x38
 458 0230 0B       		.uleb128 0xb
 459 0231 B3040000 		.4byte	.LASF44
 460 0235 07       		.byte	0x7
 461 0236 2B01     		.2byte	0x12b
 462 0238 1A010000 		.4byte	0x11a
 463 023c 3C       		.byte	0x3c
 464 023d 0B       		.uleb128 0xb
 465 023e 62030000 		.4byte	.LASF45
 466 0242 07       		.byte	0x7
 467 0243 3201     		.2byte	0x132
 468 0245 33030000 		.4byte	0x333
 469 0249 40       		.byte	0x40
 470 024a 00       		.byte	0
 471 024b 03       		.uleb128 0x3
 472 024c D8040000 		.4byte	.LASF46
 473 0250 06       		.byte	0x6
 474 0251 44       		.byte	0x44
 475 0252 56020000 		.4byte	0x256
 476 0256 0C       		.uleb128 0xc
 477 0257 04       		.byte	0x4
 478 0258 56010000 		.4byte	0x156
 479 025c 03       		.uleb128 0x3
 480 025d 210A0000 		.4byte	.LASF47
 481 0261 06       		.byte	0x6
 482 0262 49       		.byte	0x49
 483 0263 67020000 		.4byte	0x267
 484 0267 07       		.uleb128 0x7
 485 0268 1C080000 		.4byte	.LASF49
 486 026c 04       		.byte	0x4
 487 026d 07       		.byte	0x7
 488 026e 88       		.byte	0x88
 489 026f 80020000 		.4byte	0x280
 490 0273 08       		.uleb128 0x8
 491 0274 03010000 		.4byte	.LASF50
 492 0278 07       		.byte	0x7
 493 0279 89       		.byte	0x89
 494 027a 56020000 		.4byte	0x256
 495 027e 00       		.byte	0
 496 027f 00       		.byte	0
 497 0280 03       		.uleb128 0x3
 498 0281 4D090000 		.4byte	.LASF51
 499 0285 06       		.byte	0x6
 500 0286 50       		.byte	0x50
 501 0287 8B020000 		.4byte	0x28b
 502 028b 07       		.uleb128 0x7
 503 028c 08010000 		.4byte	.LASF52
 504 0290 08       		.byte	0x8
 505 0291 07       		.byte	0x7
 506 0292 8F       		.byte	0x8f
 507 0293 B0020000 		.4byte	0x2b0
 508 0297 08       		.uleb128 0x8
 509 0298 03010000 		.4byte	.LASF50
ARM GAS  /var/folders/t8/16hdwfmd2fg_d3q6dgx6bpmw0000gn/T//ccj951ho.s 			page 10


 510 029c 07       		.byte	0x7
 511 029d 90       		.byte	0x90
 512 029e 56020000 		.4byte	0x256
 513 02a2 00       		.byte	0
 514 02a3 08       		.uleb128 0x8
 515 02a4 53000000 		.4byte	.LASF53
 516 02a8 07       		.byte	0x7
 517 02a9 91       		.byte	0x91
 518 02aa 56020000 		.4byte	0x256
 519 02ae 04       		.byte	0x4
 520 02af 00       		.byte	0
 521 02b0 03       		.uleb128 0x3
 522 02b1 0E000000 		.4byte	.LASF54
 523 02b5 06       		.byte	0x6
 524 02b6 57       		.byte	0x57
 525 02b7 BB020000 		.4byte	0x2bb
 526 02bb 0D       		.uleb128 0xd
 527 02bc 52040000 		.4byte	.LASF55
 528 02c0 1C       		.byte	0x1c
 529 02c1 07       		.byte	0x7
 530 02c2 6A01     		.2byte	0x16a
 531 02c4 17030000 		.4byte	0x317
 532 02c8 0B       		.uleb128 0xb
 533 02c9 49030000 		.4byte	.LASF30
 534 02cd 07       		.byte	0x7
 535 02ce 6B01     		.2byte	0x16b
 536 02d0 80020000 		.4byte	0x280
 537 02d4 00       		.byte	0
 538 02d5 0B       		.uleb128 0xb
 539 02d6 6A050000 		.4byte	.LASF31
 540 02da 07       		.byte	0x7
 541 02db 6C01     		.2byte	0x16c
 542 02dd 1A010000 		.4byte	0x11a
 543 02e1 08       		.byte	0x8
 544 02e2 0A       		.uleb128 0xa
 545 02e3 63747800 		.ascii	"ctx\000"
 546 02e7 07       		.byte	0x7
 547 02e8 6E01     		.2byte	0x16e
 548 02ea DB040000 		.4byte	0x4db
 549 02ee 0C       		.byte	0xc
 550 02ef 0B       		.uleb128 0xb
 551 02f0 06020000 		.4byte	.LASF32
 552 02f4 07       		.byte	0x7
 553 02f5 7101     		.2byte	0x171
 554 02f7 56020000 		.4byte	0x256
 555 02fb 10       		.byte	0x10
 556 02fc 0B       		.uleb128 0xb
 557 02fd 5E080000 		.4byte	.LASF33
 558 0301 07       		.byte	0x7
 559 0302 7201     		.2byte	0x172
 560 0304 56020000 		.4byte	0x256
 561 0308 14       		.byte	0x14
 562 0309 0B       		.uleb128 0xb
 563 030a 86050000 		.4byte	.LASF56
 564 030e 07       		.byte	0x7
 565 030f 7501     		.2byte	0x175
 566 0311 56020000 		.4byte	0x256
ARM GAS  /var/folders/t8/16hdwfmd2fg_d3q6dgx6bpmw0000gn/T//ccj951ho.s 			page 11


 567 0315 18       		.byte	0x18
 568 0316 00       		.byte	0
 569 0317 03       		.uleb128 0x3
 570 0318 94080000 		.4byte	.LASF57
 571 031c 06       		.byte	0x6
 572 031d 5C       		.byte	0x5c
 573 031e 22030000 		.4byte	0x322
 574 0322 0C       		.uleb128 0xc
 575 0323 04       		.byte	0x4
 576 0324 28030000 		.4byte	0x328
 577 0328 0E       		.uleb128 0xe
 578 0329 33030000 		.4byte	0x333
 579 032d 0F       		.uleb128 0xf
 580 032e 33030000 		.4byte	0x333
 581 0332 00       		.byte	0
 582 0333 10       		.uleb128 0x10
 583 0334 04       		.byte	0x4
 584 0335 03       		.uleb128 0x3
 585 0336 C2060000 		.4byte	.LASF58
 586 033a 06       		.byte	0x6
 587 033b 61       		.byte	0x61
 588 033c 40030000 		.4byte	0x340
 589 0340 0D       		.uleb128 0xd
 590 0341 8C070000 		.4byte	.LASF59
 591 0345 14       		.byte	0x14
 592 0346 07       		.byte	0x7
 593 0347 4501     		.2byte	0x145
 594 0349 8F030000 		.4byte	0x38f
 595 034d 0B       		.uleb128 0xb
 596 034e 03010000 		.4byte	.LASF50
 597 0352 07       		.byte	0x7
 598 0353 4601     		.2byte	0x146
 599 0355 53060000 		.4byte	0x653
 600 0359 00       		.byte	0
 601 035a 0B       		.uleb128 0xb
 602 035b 53000000 		.4byte	.LASF53
 603 035f 07       		.byte	0x7
 604 0360 4701     		.2byte	0x147
 605 0362 53060000 		.4byte	0x653
 606 0366 04       		.byte	0x4
 607 0367 0B       		.uleb128 0xb
 608 0368 3A0A0000 		.4byte	.LASF60
 609 036c 07       		.byte	0x7
 610 036d 4801     		.2byte	0x148
 611 036f 46010000 		.4byte	0x146
 612 0373 08       		.byte	0x8
 613 0374 0B       		.uleb128 0xb
 614 0375 FA010000 		.4byte	.LASF61
 615 0379 07       		.byte	0x7
 616 037a 4901     		.2byte	0x149
 617 037c 17030000 		.4byte	0x317
 618 0380 0C       		.byte	0xc
 619 0381 0A       		.uleb128 0xa
 620 0382 70617200 		.ascii	"par\000"
 621 0386 07       		.byte	0x7
 622 0387 4B01     		.2byte	0x14b
 623 0389 33030000 		.4byte	0x333
ARM GAS  /var/folders/t8/16hdwfmd2fg_d3q6dgx6bpmw0000gn/T//ccj951ho.s 			page 12


 624 038d 10       		.byte	0x10
 625 038e 00       		.byte	0
 626 038f 03       		.uleb128 0x3
 627 0390 CF000000 		.4byte	.LASF62
 628 0394 06       		.byte	0x6
 629 0395 66       		.byte	0x66
 630 0396 9A030000 		.4byte	0x39a
 631 039a 0D       		.uleb128 0xd
 632 039b F1040000 		.4byte	.LASF63
 633 039f 10       		.byte	0x10
 634 03a0 07       		.byte	0x7
 635 03a1 5501     		.2byte	0x155
 636 03a3 DC030000 		.4byte	0x3dc
 637 03a7 0B       		.uleb128 0xb
 638 03a8 03010000 		.4byte	.LASF50
 639 03ac 07       		.byte	0x7
 640 03ad 5601     		.2byte	0x156
 641 03af 53060000 		.4byte	0x653
 642 03b3 00       		.byte	0
 643 03b4 0B       		.uleb128 0xb
 644 03b5 53000000 		.4byte	.LASF53
 645 03b9 07       		.byte	0x7
 646 03ba 5801     		.2byte	0x158
 647 03bc 53060000 		.4byte	0x653
 648 03c0 04       		.byte	0x4
 649 03c1 0B       		.uleb128 0xb
 650 03c2 3A0A0000 		.4byte	.LASF60
 651 03c6 07       		.byte	0x7
 652 03c7 5A01     		.2byte	0x15a
 653 03c9 46010000 		.4byte	0x146
 654 03cd 08       		.byte	0x8
 655 03ce 0B       		.uleb128 0xb
 656 03cf 4A040000 		.4byte	.LASF64
 657 03d3 07       		.byte	0x7
 658 03d4 5C01     		.2byte	0x15c
 659 03d6 51010000 		.4byte	0x151
 660 03da 0C       		.byte	0xc
 661 03db 00       		.byte	0
 662 03dc 03       		.uleb128 0x3
 663 03dd 63000000 		.4byte	.LASF65
 664 03e1 06       		.byte	0x6
 665 03e2 6B       		.byte	0x6b
 666 03e3 E7030000 		.4byte	0x3e7
 667 03e7 0D       		.uleb128 0xd
 668 03e8 C2020000 		.4byte	.LASF66
 669 03ec 0C       		.byte	0xc
 670 03ed 07       		.byte	0x7
 671 03ee 7C01     		.2byte	0x17c
 672 03f0 1C040000 		.4byte	0x41c
 673 03f4 0B       		.uleb128 0xb
 674 03f5 BD080000 		.4byte	.LASF67
 675 03f9 07       		.byte	0x7
 676 03fa 8401     		.2byte	0x184
 677 03fc 3C060000 		.4byte	0x63c
 678 0400 00       		.byte	0
 679 0401 0B       		.uleb128 0xb
 680 0402 66090000 		.4byte	.LASF68
ARM GAS  /var/folders/t8/16hdwfmd2fg_d3q6dgx6bpmw0000gn/T//ccj951ho.s 			page 13


 681 0406 07       		.byte	0x7
 682 0407 8901     		.2byte	0x189
 683 0409 3B010000 		.4byte	0x13b
 684 040d 04       		.byte	0x4
 685 040e 0B       		.uleb128 0xb
 686 040f E7020000 		.4byte	.LASF69
 687 0413 07       		.byte	0x7
 688 0414 8D01     		.2byte	0x18d
 689 0416 3B010000 		.4byte	0x13b
 690 041a 08       		.byte	0x8
 691 041b 00       		.byte	0
 692 041c 03       		.uleb128 0x3
 693 041d 05090000 		.4byte	.LASF70
 694 0421 06       		.byte	0x6
 695 0422 70       		.byte	0x70
 696 0423 27040000 		.4byte	0x427
 697 0427 0D       		.uleb128 0xd
 698 0428 65070000 		.4byte	.LASF71
 699 042c 7C       		.byte	0x7c
 700 042d 07       		.byte	0x7
 701 042e 9C01     		.2byte	0x19c
 702 0430 69040000 		.4byte	0x469
 703 0434 0B       		.uleb128 0xb
 704 0435 98090000 		.4byte	.LASF72
 705 0439 07       		.byte	0x7
 706 043a A001     		.2byte	0x1a0
 707 043c B0020000 		.4byte	0x2b0
 708 0440 00       		.byte	0
 709 0441 0B       		.uleb128 0xb
 710 0442 89010000 		.4byte	.LASF73
 711 0446 07       		.byte	0x7
 712 0447 A401     		.2byte	0x1a4
 713 0449 8F030000 		.4byte	0x38f
 714 044d 1C       		.byte	0x1c
 715 044e 0A       		.uleb128 0xa
 716 044f 64626700 		.ascii	"dbg\000"
 717 0453 07       		.byte	0x7
 718 0454 A801     		.2byte	0x1a8
 719 0456 DC030000 		.4byte	0x3dc
 720 045a 2C       		.byte	0x2c
 721 045b 0B       		.uleb128 0xb
 722 045c B4030000 		.4byte	.LASF74
 723 0460 07       		.byte	0x7
 724 0461 AC01     		.2byte	0x1ac
 725 0463 56010000 		.4byte	0x156
 726 0467 38       		.byte	0x38
 727 0468 00       		.byte	0
 728 0469 11       		.uleb128 0x11
 729 046a 18       		.byte	0x18
 730 046b 08       		.byte	0x8
 731 046c C5       		.byte	0xc5
 732 046d BA040000 		.4byte	0x4ba
 733 0471 08       		.uleb128 0x8
 734 0472 2E050000 		.4byte	.LASF75
 735 0476 08       		.byte	0x8
 736 0477 C7       		.byte	0xc7
 737 0478 DE000000 		.4byte	0xde
ARM GAS  /var/folders/t8/16hdwfmd2fg_d3q6dgx6bpmw0000gn/T//ccj951ho.s 			page 14


 738 047c 00       		.byte	0
 739 047d 08       		.uleb128 0x8
 740 047e A8010000 		.4byte	.LASF76
 741 0482 08       		.byte	0x8
 742 0483 C8       		.byte	0xc8
 743 0484 DE000000 		.4byte	0xde
 744 0488 04       		.byte	0x4
 745 0489 08       		.uleb128 0x8
 746 048a C2000000 		.4byte	.LASF77
 747 048e 08       		.byte	0x8
 748 048f C9       		.byte	0xc9
 749 0490 DE000000 		.4byte	0xde
 750 0494 08       		.byte	0x8
 751 0495 08       		.uleb128 0x8
 752 0496 29000000 		.4byte	.LASF78
 753 049a 08       		.byte	0x8
 754 049b CA       		.byte	0xca
 755 049c DE000000 		.4byte	0xde
 756 04a0 0C       		.byte	0xc
 757 04a1 08       		.uleb128 0x8
 758 04a2 27010000 		.4byte	.LASF79
 759 04a6 08       		.byte	0x8
 760 04a7 CB       		.byte	0xcb
 761 04a8 DE000000 		.4byte	0xde
 762 04ac 10       		.byte	0x10
 763 04ad 08       		.uleb128 0x8
 764 04ae AE040000 		.4byte	.LASF80
 765 04b2 08       		.byte	0x8
 766 04b3 CC       		.byte	0xcc
 767 04b4 DE000000 		.4byte	0xde
 768 04b8 14       		.byte	0x14
 769 04b9 00       		.byte	0
 770 04ba 03       		.uleb128 0x3
 771 04bb 72020000 		.4byte	.LASF81
 772 04bf 08       		.byte	0x8
 773 04c0 CD       		.byte	0xcd
 774 04c1 69040000 		.4byte	0x469
 775 04c5 03       		.uleb128 0x3
 776 04c6 A8020000 		.4byte	.LASF82
 777 04ca 09       		.byte	0x9
 778 04cb 65       		.byte	0x65
 779 04cc 33030000 		.4byte	0x333
 780 04d0 03       		.uleb128 0x3
 781 04d1 91040000 		.4byte	.LASF83
 782 04d5 09       		.byte	0x9
 783 04d6 6D       		.byte	0x6d
 784 04d7 E3000000 		.4byte	0xe3
 785 04db 07       		.uleb128 0x7
 786 04dc 47050000 		.4byte	.LASF84
 787 04e0 04       		.byte	0x4
 788 04e1 09       		.byte	0x9
 789 04e2 89       		.byte	0x89
 790 04e3 F3040000 		.4byte	0x4f3
 791 04e7 09       		.uleb128 0x9
 792 04e8 737000   		.ascii	"sp\000"
 793 04eb 09       		.byte	0x9
 794 04ec 8A       		.byte	0x8a
ARM GAS  /var/folders/t8/16hdwfmd2fg_d3q6dgx6bpmw0000gn/T//ccj951ho.s 			page 15


 795 04ed 65050000 		.4byte	0x565
 796 04f1 00       		.byte	0
 797 04f2 00       		.byte	0
 798 04f3 07       		.uleb128 0x7
 799 04f4 69010000 		.4byte	.LASF85
 800 04f8 24       		.byte	0x24
 801 04f9 0A       		.byte	0xa
 802 04fa C3       		.byte	0xc3
 803 04fb 65050000 		.4byte	0x565
 804 04ff 09       		.uleb128 0x9
 805 0500 723800   		.ascii	"r8\000"
 806 0503 0A       		.byte	0xa
 807 0504 C4       		.byte	0xc4
 808 0505 C5040000 		.4byte	0x4c5
 809 0509 00       		.byte	0
 810 050a 09       		.uleb128 0x9
 811 050b 723900   		.ascii	"r9\000"
 812 050e 0A       		.byte	0xa
 813 050f C5       		.byte	0xc5
 814 0510 C5040000 		.4byte	0x4c5
 815 0514 04       		.byte	0x4
 816 0515 09       		.uleb128 0x9
 817 0516 72313000 		.ascii	"r10\000"
 818 051a 0A       		.byte	0xa
 819 051b C6       		.byte	0xc6
 820 051c C5040000 		.4byte	0x4c5
 821 0520 08       		.byte	0x8
 822 0521 09       		.uleb128 0x9
 823 0522 72313100 		.ascii	"r11\000"
 824 0526 0A       		.byte	0xa
 825 0527 C7       		.byte	0xc7
 826 0528 C5040000 		.4byte	0x4c5
 827 052c 0C       		.byte	0xc
 828 052d 09       		.uleb128 0x9
 829 052e 723400   		.ascii	"r4\000"
 830 0531 0A       		.byte	0xa
 831 0532 C8       		.byte	0xc8
 832 0533 C5040000 		.4byte	0x4c5
 833 0537 10       		.byte	0x10
 834 0538 09       		.uleb128 0x9
 835 0539 723500   		.ascii	"r5\000"
 836 053c 0A       		.byte	0xa
 837 053d C9       		.byte	0xc9
 838 053e C5040000 		.4byte	0x4c5
 839 0542 14       		.byte	0x14
 840 0543 09       		.uleb128 0x9
 841 0544 723600   		.ascii	"r6\000"
 842 0547 0A       		.byte	0xa
 843 0548 CA       		.byte	0xca
 844 0549 C5040000 		.4byte	0x4c5
 845 054d 18       		.byte	0x18
 846 054e 09       		.uleb128 0x9
 847 054f 723700   		.ascii	"r7\000"
 848 0552 0A       		.byte	0xa
 849 0553 CB       		.byte	0xcb
 850 0554 C5040000 		.4byte	0x4c5
 851 0558 1C       		.byte	0x1c
ARM GAS  /var/folders/t8/16hdwfmd2fg_d3q6dgx6bpmw0000gn/T//ccj951ho.s 			page 16


 852 0559 09       		.uleb128 0x9
 853 055a 6C7200   		.ascii	"lr\000"
 854 055d 0A       		.byte	0xa
 855 055e CC       		.byte	0xcc
 856 055f C5040000 		.4byte	0x4c5
 857 0563 20       		.byte	0x20
 858 0564 00       		.byte	0
 859 0565 0C       		.uleb128 0xc
 860 0566 04       		.byte	0x4
 861 0567 F3040000 		.4byte	0x4f3
 862 056b 12       		.uleb128 0x12
 863 056c 04       		.byte	0x4
 864 056d 07       		.byte	0x7
 865 056e D2       		.byte	0xd2
 866 056f CE050000 		.4byte	0x5ce
 867 0573 13       		.uleb128 0x13
 868 0574 2E000000 		.4byte	.LASF86
 869 0578 07       		.byte	0x7
 870 0579 D9       		.byte	0xd9
 871 057a 25010000 		.4byte	0x125
 872 057e 13       		.uleb128 0x13
 873 057f B0000000 		.4byte	.LASF87
 874 0583 07       		.byte	0x7
 875 0584 E0       		.byte	0xe0
 876 0585 25010000 		.4byte	0x125
 877 0589 13       		.uleb128 0x13
 878 058a E2090000 		.4byte	.LASF88
 879 058e 07       		.byte	0x7
 880 058f E7       		.byte	0xe7
 881 0590 33030000 		.4byte	0x333
 882 0594 13       		.uleb128 0x13
 883 0595 2C030000 		.4byte	.LASF89
 884 0599 07       		.byte	0x7
 885 059a EE       		.byte	0xee
 886 059b CE050000 		.4byte	0x5ce
 887 059f 13       		.uleb128 0x13
 888 05a0 C7000000 		.4byte	.LASF90
 889 05a4 07       		.byte	0x7
 890 05a5 F3       		.byte	0xf3
 891 05a6 25010000 		.4byte	0x125
 892 05aa 13       		.uleb128 0x13
 893 05ab 25030000 		.4byte	.LASF91
 894 05af 07       		.byte	0x7
 895 05b0 FC       		.byte	0xfc
 896 05b1 F9050000 		.4byte	0x5f9
 897 05b5 14       		.uleb128 0x14
 898 05b6 0D080000 		.4byte	.LASF92
 899 05ba 07       		.byte	0x7
 900 05bb 0501     		.2byte	0x105
 901 05bd 30060000 		.4byte	0x630
 902 05c1 14       		.uleb128 0x14
 903 05c2 5E070000 		.4byte	.LASF93
 904 05c6 07       		.byte	0x7
 905 05c7 0D01     		.2byte	0x10d
 906 05c9 30010000 		.4byte	0x130
 907 05cd 00       		.byte	0
 908 05ce 0C       		.uleb128 0xc
ARM GAS  /var/folders/t8/16hdwfmd2fg_d3q6dgx6bpmw0000gn/T//ccj951ho.s 			page 17


 909 05cf 04       		.byte	0x4
 910 05d0 4B020000 		.4byte	0x24b
 911 05d4 07       		.uleb128 0x7
 912 05d5 AE070000 		.4byte	.LASF94
 913 05d9 0C       		.byte	0xc
 914 05da 0B       		.byte	0xb
 915 05db 34       		.byte	0x34
 916 05dc F9050000 		.4byte	0x5f9
 917 05e0 08       		.uleb128 0x8
 918 05e1 49030000 		.4byte	.LASF30
 919 05e5 0B       		.byte	0xb
 920 05e6 35       		.byte	0x35
 921 05e7 80020000 		.4byte	0x280
 922 05eb 00       		.byte	0
 923 05ec 09       		.uleb128 0x9
 924 05ed 636E7400 		.ascii	"cnt\000"
 925 05f1 0B       		.byte	0xb
 926 05f2 37       		.byte	0x37
 927 05f3 3B010000 		.4byte	0x13b
 928 05f7 08       		.byte	0x8
 929 05f8 00       		.byte	0
 930 05f9 0C       		.uleb128 0xc
 931 05fa 04       		.byte	0x4
 932 05fb D4050000 		.4byte	0x5d4
 933 05ff 07       		.uleb128 0x7
 934 0600 5D090000 		.4byte	.LASF95
 935 0604 10       		.byte	0x10
 936 0605 0C       		.byte	0xc
 937 0606 39       		.byte	0x39
 938 0607 30060000 		.4byte	0x630
 939 060b 08       		.uleb128 0x8
 940 060c 49030000 		.4byte	.LASF30
 941 0610 0C       		.byte	0xc
 942 0611 3A       		.byte	0x3a
 943 0612 80020000 		.4byte	0x280
 944 0616 00       		.byte	0
 945 0617 08       		.uleb128 0x8
 946 0618 2C080000 		.4byte	.LASF96
 947 061c 0C       		.byte	0xc
 948 061d 3C       		.byte	0x3c
 949 061e 56020000 		.4byte	0x256
 950 0622 08       		.byte	0x8
 951 0623 08       		.uleb128 0x8
 952 0624 03010000 		.4byte	.LASF50
 953 0628 0C       		.byte	0xc
 954 0629 3E       		.byte	0x3e
 955 062a 92070000 		.4byte	0x792
 956 062e 0C       		.byte	0xc
 957 062f 00       		.byte	0
 958 0630 0C       		.uleb128 0xc
 959 0631 04       		.byte	0x4
 960 0632 FF050000 		.4byte	0x5ff
 961 0636 0C       		.uleb128 0xc
 962 0637 04       		.byte	0x4
 963 0638 48060000 		.4byte	0x648
 964 063c 06       		.uleb128 0x6
 965 063d 36060000 		.4byte	0x636
ARM GAS  /var/folders/t8/16hdwfmd2fg_d3q6dgx6bpmw0000gn/T//ccj951ho.s 			page 18


 966 0641 04       		.uleb128 0x4
 967 0642 01       		.byte	0x1
 968 0643 08       		.byte	0x8
 969 0644 59080000 		.4byte	.LASF97
 970 0648 05       		.uleb128 0x5
 971 0649 41060000 		.4byte	0x641
 972 064d 0C       		.uleb128 0xc
 973 064e 04       		.byte	0x4
 974 064f D0040000 		.4byte	0x4d0
 975 0653 0C       		.uleb128 0xc
 976 0654 04       		.byte	0x4
 977 0655 35030000 		.4byte	0x335
 978 0659 15       		.uleb128 0x15
 979 065a 636800   		.ascii	"ch\000"
 980 065d 07       		.byte	0x7
 981 065e D201     		.2byte	0x1d2
 982 0660 1C040000 		.4byte	0x41c
 983 0664 16       		.uleb128 0x16
 984 0665 D0040000 		.4byte	0x4d0
 985 0669 6F060000 		.4byte	0x66f
 986 066d 17       		.uleb128 0x17
 987 066e 00       		.byte	0
 988 066f 18       		.uleb128 0x18
 989 0670 C4070000 		.4byte	.LASF98
 990 0674 0E       		.byte	0xe
 991 0675 2B01     		.2byte	0x12b
 992 0677 64060000 		.4byte	0x664
 993 067b 11       		.uleb128 0x11
 994 067c 16       		.byte	0x16
 995 067d 0D       		.byte	0xd
 996 067e 34       		.byte	0x34
 997 067f 5C070000 		.4byte	0x75c
 998 0683 08       		.uleb128 0x8
 999 0684 11090000 		.4byte	.LASF99
 1000 0688 0D       		.byte	0xd
 1001 0689 35       		.byte	0x35
 1002 068a 5C070000 		.4byte	0x75c
 1003 068e 00       		.byte	0
 1004 068f 08       		.uleb128 0x8
 1005 0690 DA020000 		.4byte	.LASF100
 1006 0694 0D       		.byte	0xd
 1007 0695 36       		.byte	0x36
 1008 0696 AD000000 		.4byte	0xad
 1009 069a 04       		.byte	0x4
 1010 069b 08       		.uleb128 0x8
 1011 069c 5B010000 		.4byte	.LASF101
 1012 06a0 0D       		.byte	0xd
 1013 06a1 37       		.byte	0x37
 1014 06a2 AD000000 		.4byte	0xad
 1015 06a6 05       		.byte	0x5
 1016 06a7 08       		.uleb128 0x8
 1017 06a8 BC040000 		.4byte	.LASF102
 1018 06ac 0D       		.byte	0xd
 1019 06ad 38       		.byte	0x38
 1020 06ae BD000000 		.4byte	0xbd
 1021 06b2 06       		.byte	0x6
 1022 06b3 08       		.uleb128 0x8
ARM GAS  /var/folders/t8/16hdwfmd2fg_d3q6dgx6bpmw0000gn/T//ccj951ho.s 			page 19


 1023 06b4 45090000 		.4byte	.LASF103
 1024 06b8 0D       		.byte	0xd
 1025 06b9 39       		.byte	0x39
 1026 06ba AD000000 		.4byte	0xad
 1027 06be 08       		.byte	0x8
 1028 06bf 08       		.uleb128 0x8
 1029 06c0 B9000000 		.4byte	.LASF104
 1030 06c4 0D       		.byte	0xd
 1031 06c5 3A       		.byte	0x3a
 1032 06c6 AD000000 		.4byte	0xad
 1033 06ca 09       		.byte	0x9
 1034 06cb 08       		.uleb128 0x8
 1035 06cc 06070000 		.4byte	.LASF105
 1036 06d0 0D       		.byte	0xd
 1037 06d1 3B       		.byte	0x3b
 1038 06d2 AD000000 		.4byte	0xad
 1039 06d6 0A       		.byte	0xa
 1040 06d7 08       		.uleb128 0x8
 1041 06d8 2D070000 		.4byte	.LASF106
 1042 06dc 0D       		.byte	0xd
 1043 06dd 3C       		.byte	0x3c
 1044 06de AD000000 		.4byte	0xad
 1045 06e2 0B       		.byte	0xb
 1046 06e3 08       		.uleb128 0x8
 1047 06e4 3A040000 		.4byte	.LASF107
 1048 06e8 0D       		.byte	0xd
 1049 06e9 3D       		.byte	0x3d
 1050 06ea AD000000 		.4byte	0xad
 1051 06ee 0C       		.byte	0xc
 1052 06ef 08       		.uleb128 0x8
 1053 06f0 1A050000 		.4byte	.LASF108
 1054 06f4 0D       		.byte	0xd
 1055 06f5 3E       		.byte	0x3e
 1056 06f6 AD000000 		.4byte	0xad
 1057 06fa 0D       		.byte	0xd
 1058 06fb 08       		.uleb128 0x8
 1059 06fc E8080000 		.4byte	.LASF109
 1060 0700 0D       		.byte	0xd
 1061 0701 3F       		.byte	0x3f
 1062 0702 AD000000 		.4byte	0xad
 1063 0706 0E       		.byte	0xe
 1064 0707 08       		.uleb128 0x8
 1065 0708 55070000 		.4byte	.LASF110
 1066 070c 0D       		.byte	0xd
 1067 070d 40       		.byte	0x40
 1068 070e AD000000 		.4byte	0xad
 1069 0712 0F       		.byte	0xf
 1070 0713 08       		.uleb128 0x8
 1071 0714 36070000 		.4byte	.LASF111
 1072 0718 0D       		.byte	0xd
 1073 0719 41       		.byte	0x41
 1074 071a AD000000 		.4byte	0xad
 1075 071e 10       		.byte	0x10
 1076 071f 08       		.uleb128 0x8
 1077 0720 300A0000 		.4byte	.LASF112
 1078 0724 0D       		.byte	0xd
 1079 0725 42       		.byte	0x42
ARM GAS  /var/folders/t8/16hdwfmd2fg_d3q6dgx6bpmw0000gn/T//ccj951ho.s 			page 20


 1080 0726 AD000000 		.4byte	0xad
 1081 072a 11       		.byte	0x11
 1082 072b 08       		.uleb128 0x8
 1083 072c 400A0000 		.4byte	.LASF113
 1084 0730 0D       		.byte	0xd
 1085 0731 43       		.byte	0x43
 1086 0732 AD000000 		.4byte	0xad
 1087 0736 12       		.byte	0x12
 1088 0737 08       		.uleb128 0x8
 1089 0738 82030000 		.4byte	.LASF114
 1090 073c 0D       		.byte	0xd
 1091 073d 44       		.byte	0x44
 1092 073e AD000000 		.4byte	0xad
 1093 0742 13       		.byte	0x13
 1094 0743 08       		.uleb128 0x8
 1095 0744 44020000 		.4byte	.LASF115
 1096 0748 0D       		.byte	0xd
 1097 0749 45       		.byte	0x45
 1098 074a AD000000 		.4byte	0xad
 1099 074e 14       		.byte	0x14
 1100 074f 08       		.uleb128 0x8
 1101 0750 BB070000 		.4byte	.LASF116
 1102 0754 0D       		.byte	0xd
 1103 0755 46       		.byte	0x46
 1104 0756 AD000000 		.4byte	0xad
 1105 075a 15       		.byte	0x15
 1106 075b 00       		.byte	0
 1107 075c 16       		.uleb128 0x16
 1108 075d 41060000 		.4byte	0x641
 1109 0761 6C070000 		.4byte	0x76c
 1110 0765 19       		.uleb128 0x19
 1111 0766 37000000 		.4byte	0x37
 1112 076a 03       		.byte	0x3
 1113 076b 00       		.byte	0
 1114 076c 03       		.uleb128 0x3
 1115 076d 3A020000 		.4byte	.LASF117
 1116 0771 0D       		.byte	0xd
 1117 0772 47       		.byte	0x47
 1118 0773 7B060000 		.4byte	0x67b
 1119 0777 05       		.uleb128 0x5
 1120 0778 6C070000 		.4byte	0x76c
 1121 077c 1A       		.uleb128 0x1a
 1122 077d 3B030000 		.4byte	.LASF118
 1123 0781 0D       		.byte	0xd
 1124 0782 6C       		.byte	0x6c
 1125 0783 77070000 		.4byte	0x777
 1126 0787 03       		.uleb128 0x3
 1127 0788 DF020000 		.4byte	.LASF119
 1128 078c 0C       		.byte	0xc
 1129 078d 34       		.byte	0x34
 1130 078e FF050000 		.4byte	0x5ff
 1131 0792 0C       		.uleb128 0xc
 1132 0793 04       		.byte	0x4
 1133 0794 87070000 		.4byte	0x787
 1134 0798 0C       		.uleb128 0xc
 1135 0799 04       		.byte	0x4
 1136 079a B8000000 		.4byte	0xb8
ARM GAS  /var/folders/t8/16hdwfmd2fg_d3q6dgx6bpmw0000gn/T//ccj951ho.s 			page 21


 1137 079e 0C       		.uleb128 0xc
 1138 079f 04       		.byte	0x4
 1139 07a0 AD000000 		.4byte	0xad
 1140 07a4 04       		.uleb128 0x4
 1141 07a5 01       		.byte	0x1
 1142 07a6 02       		.byte	0x2
 1143 07a7 11070000 		.4byte	.LASF120
 1144 07ab 03       		.uleb128 0x3
 1145 07ac 600A0000 		.4byte	.LASF121
 1146 07b0 0F       		.byte	0xf
 1147 07b1 46       		.byte	0x46
 1148 07b2 D3000000 		.4byte	0xd3
 1149 07b6 03       		.uleb128 0x3
 1150 07b7 DD080000 		.4byte	.LASF122
 1151 07bb 0F       		.byte	0xf
 1152 07bc 53       		.byte	0x53
 1153 07bd C1070000 		.4byte	0x7c1
 1154 07c1 0C       		.uleb128 0xc
 1155 07c2 04       		.byte	0x4
 1156 07c3 BA040000 		.4byte	0x4ba
 1157 07c7 11       		.uleb128 0x11
 1158 07c8 84       		.byte	0x84
 1159 07c9 0F       		.byte	0xf
 1160 07ca 5A       		.byte	0x5a
 1161 07cb E8070000 		.4byte	0x7e8
 1162 07cf 08       		.uleb128 0x8
 1163 07d0 9B060000 		.4byte	.LASF123
 1164 07d4 0F       		.byte	0xf
 1165 07d5 5B       		.byte	0x5b
 1166 07d6 B6070000 		.4byte	0x7b6
 1167 07da 00       		.byte	0
 1168 07db 08       		.uleb128 0x8
 1169 07dc 8E0A0000 		.4byte	.LASF124
 1170 07e0 0F       		.byte	0xf
 1171 07e1 5C       		.byte	0x5c
 1172 07e2 E8070000 		.4byte	0x7e8
 1173 07e6 04       		.byte	0x4
 1174 07e7 00       		.byte	0
 1175 07e8 16       		.uleb128 0x16
 1176 07e9 AB070000 		.4byte	0x7ab
 1177 07ed F8070000 		.4byte	0x7f8
 1178 07f1 19       		.uleb128 0x19
 1179 07f2 37000000 		.4byte	0x37
 1180 07f6 1F       		.byte	0x1f
 1181 07f7 00       		.byte	0
 1182 07f8 03       		.uleb128 0x3
 1183 07f9 5F050000 		.4byte	.LASF125
 1184 07fd 0F       		.byte	0xf
 1185 07fe 5D       		.byte	0x5d
 1186 07ff C7070000 		.4byte	0x7c7
 1187 0803 1B       		.uleb128 0x1b
 1188 0804 9402     		.2byte	0x294
 1189 0806 0F       		.byte	0xf
 1190 0807 68       		.byte	0x68
 1191 0808 19080000 		.4byte	0x819
 1192 080c 08       		.uleb128 0x8
 1193 080d EB040000 		.4byte	.LASF126
ARM GAS  /var/folders/t8/16hdwfmd2fg_d3q6dgx6bpmw0000gn/T//ccj951ho.s 			page 22


 1194 0811 0F       		.byte	0xf
 1195 0812 69       		.byte	0x69
 1196 0813 19080000 		.4byte	0x819
 1197 0817 00       		.byte	0
 1198 0818 00       		.byte	0
 1199 0819 16       		.uleb128 0x16
 1200 081a F8070000 		.4byte	0x7f8
 1201 081e 29080000 		.4byte	0x829
 1202 0822 19       		.uleb128 0x19
 1203 0823 37000000 		.4byte	0x37
 1204 0827 04       		.byte	0x4
 1205 0828 00       		.byte	0
 1206 0829 03       		.uleb128 0x3
 1207 082a 690A0000 		.4byte	.LASF127
 1208 082e 0F       		.byte	0xf
 1209 082f 6A       		.byte	0x6a
 1210 0830 03080000 		.4byte	0x803
 1211 0834 05       		.uleb128 0x5
 1212 0835 29080000 		.4byte	0x829
 1213 0839 18       		.uleb128 0x18
 1214 083a 7B0A0000 		.4byte	.LASF128
 1215 083e 0F       		.byte	0xf
 1216 083f 8D01     		.2byte	0x18d
 1217 0841 34080000 		.4byte	0x834
 1218 0845 1C       		.uleb128 0x1c
 1219 0846 9E090000 		.4byte	.LASF129
 1220 084a 10       		.byte	0x10
 1221 084b 0001     		.2byte	0x100
 1222 084d 51080000 		.4byte	0x851
 1223 0851 0D       		.uleb128 0xd
 1224 0852 9E090000 		.4byte	.LASF129
 1225 0856 E8       		.byte	0xe8
 1226 0857 11       		.byte	0x11
 1227 0858 0601     		.2byte	0x106
 1228 085a 3C090000 		.4byte	0x93c
 1229 085e 0B       		.uleb128 0xb
 1230 085f BA010000 		.4byte	.LASF36
 1231 0863 11       		.byte	0x11
 1232 0864 0A01     		.2byte	0x10a
 1233 0866 7B090000 		.4byte	0x97b
 1234 086a 00       		.byte	0
 1235 086b 0B       		.uleb128 0xb
 1236 086c 64080000 		.4byte	.LASF130
 1237 0870 11       		.byte	0x11
 1238 0871 0E01     		.2byte	0x10e
 1239 0873 AF0C0000 		.4byte	0xcaf
 1240 0877 04       		.byte	0x4
 1241 0878 0B       		.uleb128 0xb
 1242 0879 4F030000 		.4byte	.LASF131
 1243 087d 11       		.byte	0x11
 1244 087e 1201     		.2byte	0x112
 1245 0880 BD000000 		.4byte	0xbd
 1246 0884 08       		.byte	0x8
 1247 0885 0B       		.uleb128 0xb
 1248 0886 6C040000 		.4byte	.LASF132
 1249 088a 11       		.byte	0x11
 1250 088b 1601     		.2byte	0x116
ARM GAS  /var/folders/t8/16hdwfmd2fg_d3q6dgx6bpmw0000gn/T//ccj951ho.s 			page 23


 1251 088d BD000000 		.4byte	0xbd
 1252 0891 0A       		.byte	0xa
 1253 0892 0A       		.uleb128 0xa
 1254 0893 65706300 		.ascii	"epc\000"
 1255 0897 11       		.byte	0x11
 1256 0898 1A01     		.2byte	0x11a
 1257 089a B50C0000 		.4byte	0xcb5
 1258 089e 0C       		.byte	0xc
 1259 089f 0B       		.uleb128 0xb
 1260 08a0 CD090000 		.4byte	.LASF133
 1261 08a4 11       		.byte	0x11
 1262 08a5 2101     		.2byte	0x121
 1263 08a7 CB0C0000 		.4byte	0xccb
 1264 08ab 4C       		.byte	0x4c
 1265 08ac 0B       		.uleb128 0xb
 1266 08ad C0010000 		.4byte	.LASF134
 1267 08b1 11       		.byte	0x11
 1268 08b2 2801     		.2byte	0x128
 1269 08b4 CB0C0000 		.4byte	0xccb
 1270 08b8 88       		.byte	0x88
 1271 08b9 0B       		.uleb128 0xb
 1272 08ba FA070000 		.4byte	.LASF135
 1273 08be 11       		.byte	0x11
 1274 08bf 2C01     		.2byte	0x12c
 1275 08c1 C0090000 		.4byte	0x9c0
 1276 08c5 C4       		.byte	0xc4
 1277 08c6 0B       		.uleb128 0xb
 1278 08c7 43070000 		.4byte	.LASF136
 1279 08cb 11       		.byte	0x11
 1280 08cc 3001     		.2byte	0x130
 1281 08ce 9E070000 		.4byte	0x79e
 1282 08d2 C8       		.byte	0xc8
 1283 08d3 0B       		.uleb128 0xb
 1284 08d4 01070000 		.4byte	.LASF137
 1285 08d8 11       		.byte	0x11
 1286 08d9 3401     		.2byte	0x134
 1287 08db 2C000000 		.4byte	0x2c
 1288 08df CC       		.byte	0xcc
 1289 08e0 0B       		.uleb128 0xb
 1290 08e1 60010000 		.4byte	.LASF138
 1291 08e5 11       		.byte	0x11
 1292 08e6 3801     		.2byte	0x138
 1293 08e8 460A0000 		.4byte	0xa46
 1294 08ec D0       		.byte	0xd0
 1295 08ed 0B       		.uleb128 0xb
 1296 08ee 54050000 		.4byte	.LASF139
 1297 08f2 11       		.byte	0x11
 1298 08f3 3C01     		.2byte	0x13c
 1299 08f5 DB0C0000 		.4byte	0xcdb
 1300 08f9 D4       		.byte	0xd4
 1301 08fa 0B       		.uleb128 0xb
 1302 08fb 6E090000 		.4byte	.LASF140
 1303 08ff 11       		.byte	0x11
 1304 0900 4001     		.2byte	0x140
 1305 0902 BD000000 		.4byte	0xbd
 1306 0906 DC       		.byte	0xdc
 1307 0907 0B       		.uleb128 0xb
ARM GAS  /var/folders/t8/16hdwfmd2fg_d3q6dgx6bpmw0000gn/T//ccj951ho.s 			page 24


 1308 0908 08050000 		.4byte	.LASF141
 1309 090c 11       		.byte	0x11
 1310 090d 4401     		.2byte	0x144
 1311 090f AD000000 		.4byte	0xad
 1312 0913 DE       		.byte	0xde
 1313 0914 0B       		.uleb128 0xb
 1314 0915 A6030000 		.4byte	.LASF142
 1315 0919 11       		.byte	0x11
 1316 091a 4801     		.2byte	0x148
 1317 091c AD000000 		.4byte	0xad
 1318 0920 DF       		.byte	0xdf
 1319 0921 0B       		.uleb128 0xb
 1320 0922 80070000 		.4byte	.LASF143
 1321 0926 11       		.byte	0x11
 1322 0927 4C01     		.2byte	0x14c
 1323 0929 7B090000 		.4byte	0x97b
 1324 092d E0       		.byte	0xe0
 1325 092e 0B       		.uleb128 0xb
 1326 092f 94060000 		.4byte	.LASF144
 1327 0933 11       		.byte	0x11
 1328 0934 5401     		.2byte	0x154
 1329 0936 D3000000 		.4byte	0xd3
 1330 093a E4       		.byte	0xe4
 1331 093b 00       		.byte	0
 1332 093c 1C       		.uleb128 0x1c
 1333 093d 06000000 		.4byte	.LASF145
 1334 0941 10       		.byte	0x10
 1335 0942 0501     		.2byte	0x105
 1336 0944 AD000000 		.4byte	0xad
 1337 0948 1D       		.uleb128 0x1d
 1338 0949 07       		.byte	0x7
 1339 094a 01       		.byte	0x1
 1340 094b 50000000 		.4byte	0x50
 1341 094f 10       		.byte	0x10
 1342 0950 0A01     		.2byte	0x10a
 1343 0952 7B090000 		.4byte	0x97b
 1344 0956 1E       		.uleb128 0x1e
 1345 0957 EC000000 		.4byte	.LASF146
 1346 095b 00       		.byte	0
 1347 095c 1E       		.uleb128 0x1e
 1348 095d 32030000 		.4byte	.LASF147
 1349 0961 01       		.byte	0x1
 1350 0962 1E       		.uleb128 0x1e
 1351 0963 F7060000 		.4byte	.LASF148
 1352 0967 02       		.byte	0x2
 1353 0968 1E       		.uleb128 0x1e
 1354 0969 B3090000 		.4byte	.LASF149
 1355 096d 03       		.byte	0x3
 1356 096e 1E       		.uleb128 0x1e
 1357 096f 0C030000 		.4byte	.LASF150
 1358 0973 04       		.byte	0x4
 1359 0974 1E       		.uleb128 0x1e
 1360 0975 4A0A0000 		.4byte	.LASF151
 1361 0979 05       		.byte	0x5
 1362 097a 00       		.byte	0
 1363 097b 1C       		.uleb128 0x1c
 1364 097c 1F040000 		.4byte	.LASF152
ARM GAS  /var/folders/t8/16hdwfmd2fg_d3q6dgx6bpmw0000gn/T//ccj951ho.s 			page 25


 1365 0980 10       		.byte	0x10
 1366 0981 1101     		.2byte	0x111
 1367 0983 48090000 		.4byte	0x948
 1368 0987 1D       		.uleb128 0x1d
 1369 0988 07       		.byte	0x7
 1370 0989 01       		.byte	0x1
 1371 098a 50000000 		.4byte	0x50
 1372 098e 10       		.byte	0x10
 1373 098f 1F01     		.2byte	0x11f
 1374 0991 C0090000 		.4byte	0x9c0
 1375 0995 1E       		.uleb128 0x1e
 1376 0996 C7080000 		.4byte	.LASF153
 1377 099a 00       		.byte	0
 1378 099b 1E       		.uleb128 0x1e
 1379 099c 3E000000 		.4byte	.LASF154
 1380 09a0 01       		.byte	0x1
 1381 09a1 1E       		.uleb128 0x1e
 1382 09a2 75010000 		.4byte	.LASF155
 1383 09a6 02       		.byte	0x2
 1384 09a7 1E       		.uleb128 0x1e
 1385 09a8 50020000 		.4byte	.LASF156
 1386 09ac 03       		.byte	0x3
 1387 09ad 1E       		.uleb128 0x1e
 1388 09ae 7F080000 		.4byte	.LASF157
 1389 09b2 04       		.byte	0x4
 1390 09b3 1E       		.uleb128 0x1e
 1391 09b4 C4040000 		.4byte	.LASF158
 1392 09b8 05       		.byte	0x5
 1393 09b9 1E       		.uleb128 0x1e
 1394 09ba 9A010000 		.4byte	.LASF159
 1395 09be 06       		.byte	0x6
 1396 09bf 00       		.byte	0
 1397 09c0 1C       		.uleb128 0x1c
 1398 09c1 64020000 		.4byte	.LASF160
 1399 09c5 10       		.byte	0x10
 1400 09c6 2701     		.2byte	0x127
 1401 09c8 87090000 		.4byte	0x987
 1402 09cc 1D       		.uleb128 0x1d
 1403 09cd 07       		.byte	0x7
 1404 09ce 01       		.byte	0x1
 1405 09cf 50000000 		.4byte	0x50
 1406 09d3 10       		.byte	0x10
 1407 09d4 2C01     		.2byte	0x12c
 1408 09d6 050A0000 		.4byte	0xa05
 1409 09da 1E       		.uleb128 0x1e
 1410 09db 6F050000 		.4byte	.LASF161
 1411 09df 00       		.byte	0
 1412 09e0 1E       		.uleb128 0x1e
 1413 09e1 AB060000 		.4byte	.LASF162
 1414 09e5 01       		.byte	0x1
 1415 09e6 1E       		.uleb128 0x1e
 1416 09e7 A8080000 		.4byte	.LASF163
 1417 09eb 02       		.byte	0x2
 1418 09ec 1E       		.uleb128 0x1e
 1419 09ed 72000000 		.4byte	.LASF164
 1420 09f1 03       		.byte	0x3
 1421 09f2 1E       		.uleb128 0x1e
ARM GAS  /var/folders/t8/16hdwfmd2fg_d3q6dgx6bpmw0000gn/T//ccj951ho.s 			page 26


 1422 09f3 E8070000 		.4byte	.LASF165
 1423 09f7 04       		.byte	0x4
 1424 09f8 1E       		.uleb128 0x1e
 1425 09f9 19020000 		.4byte	.LASF166
 1426 09fd 05       		.byte	0x5
 1427 09fe 1E       		.uleb128 0x1e
 1428 09ff 96020000 		.4byte	.LASF167
 1429 0a03 06       		.byte	0x6
 1430 0a04 00       		.byte	0
 1431 0a05 1C       		.uleb128 0x1c
 1432 0a06 58000000 		.4byte	.LASF168
 1433 0a0a 10       		.byte	0x10
 1434 0a0b 3401     		.2byte	0x134
 1435 0a0d CC090000 		.4byte	0x9cc
 1436 0a11 1F       		.uleb128 0x1f
 1437 0a12 08       		.byte	0x8
 1438 0a13 10       		.byte	0x10
 1439 0a14 3901     		.2byte	0x139
 1440 0a16 350A0000 		.4byte	0xa35
 1441 0a1a 0B       		.uleb128 0xb
 1442 0a1b 1D030000 		.4byte	.LASF169
 1443 0a1f 10       		.byte	0x10
 1444 0a20 3D01     		.2byte	0x13d
 1445 0a22 2C000000 		.4byte	0x2c
 1446 0a26 00       		.byte	0
 1447 0a27 0B       		.uleb128 0xb
 1448 0a28 C5030000 		.4byte	.LASF170
 1449 0a2c 10       		.byte	0x10
 1450 0a2d 4101     		.2byte	0x141
 1451 0a2f 98070000 		.4byte	0x798
 1452 0a33 04       		.byte	0x4
 1453 0a34 00       		.byte	0
 1454 0a35 1C       		.uleb128 0x1c
 1455 0a36 19010000 		.4byte	.LASF171
 1456 0a3a 10       		.byte	0x10
 1457 0a3b 4201     		.2byte	0x142
 1458 0a3d 110A0000 		.4byte	0xa11
 1459 0a41 05       		.uleb128 0x5
 1460 0a42 350A0000 		.4byte	0xa35
 1461 0a46 1C       		.uleb128 0x1c
 1462 0a47 46010000 		.4byte	.LASF172
 1463 0a4b 10       		.byte	0x10
 1464 0a4c 4A01     		.2byte	0x14a
 1465 0a4e 520A0000 		.4byte	0xa52
 1466 0a52 0C       		.uleb128 0xc
 1467 0a53 04       		.byte	0x4
 1468 0a54 580A0000 		.4byte	0xa58
 1469 0a58 0E       		.uleb128 0xe
 1470 0a59 630A0000 		.4byte	0xa63
 1471 0a5d 0F       		.uleb128 0xf
 1472 0a5e 630A0000 		.4byte	0xa63
 1473 0a62 00       		.byte	0
 1474 0a63 0C       		.uleb128 0xc
 1475 0a64 04       		.byte	0x4
 1476 0a65 45080000 		.4byte	0x845
 1477 0a69 1C       		.uleb128 0x1c
 1478 0a6a 75090000 		.4byte	.LASF173
ARM GAS  /var/folders/t8/16hdwfmd2fg_d3q6dgx6bpmw0000gn/T//ccj951ho.s 			page 27


 1479 0a6e 10       		.byte	0x10
 1480 0a6f 5301     		.2byte	0x153
 1481 0a71 750A0000 		.4byte	0xa75
 1482 0a75 0C       		.uleb128 0xc
 1483 0a76 04       		.byte	0x4
 1484 0a77 7B0A0000 		.4byte	0xa7b
 1485 0a7b 0E       		.uleb128 0xe
 1486 0a7c 8B0A0000 		.4byte	0xa8b
 1487 0a80 0F       		.uleb128 0xf
 1488 0a81 630A0000 		.4byte	0xa63
 1489 0a85 0F       		.uleb128 0xf
 1490 0a86 3C090000 		.4byte	0x93c
 1491 0a8a 00       		.byte	0
 1492 0a8b 1C       		.uleb128 0x1c
 1493 0a8c 0C020000 		.4byte	.LASF174
 1494 0a90 10       		.byte	0x10
 1495 0a91 5C01     		.2byte	0x15c
 1496 0a93 970A0000 		.4byte	0xa97
 1497 0a97 0C       		.uleb128 0xc
 1498 0a98 04       		.byte	0x4
 1499 0a99 9D0A0000 		.4byte	0xa9d
 1500 0a9d 0E       		.uleb128 0xe
 1501 0a9e AD0A0000 		.4byte	0xaad
 1502 0aa2 0F       		.uleb128 0xf
 1503 0aa3 630A0000 		.4byte	0xa63
 1504 0aa7 0F       		.uleb128 0xf
 1505 0aa8 050A0000 		.4byte	0xa05
 1506 0aac 00       		.byte	0
 1507 0aad 1C       		.uleb128 0x1c
 1508 0aae 2A040000 		.4byte	.LASF175
 1509 0ab2 10       		.byte	0x10
 1510 0ab3 6801     		.2byte	0x168
 1511 0ab5 B90A0000 		.4byte	0xab9
 1512 0ab9 0C       		.uleb128 0xc
 1513 0aba 04       		.byte	0x4
 1514 0abb BF0A0000 		.4byte	0xabf
 1515 0abf 20       		.uleb128 0x20
 1516 0ac0 A4070000 		.4byte	0x7a4
 1517 0ac4 CE0A0000 		.4byte	0xace
 1518 0ac8 0F       		.uleb128 0xf
 1519 0ac9 630A0000 		.4byte	0xa63
 1520 0acd 00       		.byte	0
 1521 0ace 1C       		.uleb128 0x1c
 1522 0acf DE010000 		.4byte	.LASF176
 1523 0ad3 10       		.byte	0x10
 1524 0ad4 6D01     		.2byte	0x16d
 1525 0ad6 DA0A0000 		.4byte	0xada
 1526 0ada 0C       		.uleb128 0xc
 1527 0adb 04       		.byte	0x4
 1528 0adc E00A0000 		.4byte	0xae0
 1529 0ae0 20       		.uleb128 0x20
 1530 0ae1 FE0A0000 		.4byte	0xafe
 1531 0ae5 FE0A0000 		.4byte	0xafe
 1532 0ae9 0F       		.uleb128 0xf
 1533 0aea 630A0000 		.4byte	0xa63
 1534 0aee 0F       		.uleb128 0xf
 1535 0aef AD000000 		.4byte	0xad
ARM GAS  /var/folders/t8/16hdwfmd2fg_d3q6dgx6bpmw0000gn/T//ccj951ho.s 			page 28


 1536 0af3 0F       		.uleb128 0xf
 1537 0af4 AD000000 		.4byte	0xad
 1538 0af8 0F       		.uleb128 0xf
 1539 0af9 BD000000 		.4byte	0xbd
 1540 0afd 00       		.byte	0
 1541 0afe 0C       		.uleb128 0xc
 1542 0aff 04       		.byte	0x4
 1543 0b00 410A0000 		.4byte	0xa41
 1544 0b04 11       		.uleb128 0x11
 1545 0b05 14       		.byte	0x14
 1546 0b06 11       		.byte	0x11
 1547 0b07 6B       		.byte	0x6b
 1548 0b08 550B0000 		.4byte	0xb55
 1549 0b0c 08       		.uleb128 0x8
 1550 0b0d 54010000 		.4byte	.LASF177
 1551 0b11 11       		.byte	0x11
 1552 0b12 6F       		.byte	0x6f
 1553 0b13 2C000000 		.4byte	0x2c
 1554 0b17 00       		.byte	0
 1555 0b18 08       		.uleb128 0x8
 1556 0b19 36090000 		.4byte	.LASF178
 1557 0b1d 11       		.byte	0x11
 1558 0b1e 73       		.byte	0x73
 1559 0b1f 2C000000 		.4byte	0x2c
 1560 0b23 04       		.byte	0x4
 1561 0b24 08       		.uleb128 0x8
 1562 0b25 17030000 		.4byte	.LASF179
 1563 0b29 11       		.byte	0x11
 1564 0b2a 77       		.byte	0x77
 1565 0b2b 98070000 		.4byte	0x798
 1566 0b2f 08       		.byte	0x8
 1567 0b30 08       		.uleb128 0x8
 1568 0b31 68030000 		.4byte	.LASF180
 1569 0b35 11       		.byte	0x11
 1570 0b36 7C       		.byte	0x7c
 1571 0b37 4B020000 		.4byte	0x24b
 1572 0b3b 0C       		.byte	0xc
 1573 0b3c 08       		.uleb128 0x8
 1574 0b3d D2060000 		.4byte	.LASF181
 1575 0b41 11       		.byte	0x11
 1576 0b42 80       		.byte	0x80
 1577 0b43 A4070000 		.4byte	0x7a4
 1578 0b47 10       		.byte	0x10
 1579 0b48 08       		.uleb128 0x8
 1580 0b49 D4010000 		.4byte	.LASF182
 1581 0b4d 11       		.byte	0x11
 1582 0b4e 82       		.byte	0x82
 1583 0b4f A4070000 		.4byte	0x7a4
 1584 0b53 11       		.byte	0x11
 1585 0b54 00       		.byte	0
 1586 0b55 03       		.uleb128 0x3
 1587 0b56 85090000 		.4byte	.LASF183
 1588 0b5a 11       		.byte	0x11
 1589 0b5b 83       		.byte	0x83
 1590 0b5c 040B0000 		.4byte	0xb04
 1591 0b60 11       		.uleb128 0x11
 1592 0b61 14       		.byte	0x14
ARM GAS  /var/folders/t8/16hdwfmd2fg_d3q6dgx6bpmw0000gn/T//ccj951ho.s 			page 29


 1593 0b62 11       		.byte	0x11
 1594 0b63 88       		.byte	0x88
 1595 0b64 BD0B0000 		.4byte	0xbbd
 1596 0b68 08       		.uleb128 0x8
 1597 0b69 C0090000 		.4byte	.LASF184
 1598 0b6d 11       		.byte	0x11
 1599 0b6e 8C       		.byte	0x8c
 1600 0b6f 2C000000 		.4byte	0x2c
 1601 0b73 00       		.byte	0
 1602 0b74 08       		.uleb128 0x8
 1603 0b75 00000000 		.4byte	.LASF185
 1604 0b79 11       		.byte	0x11
 1605 0b7a 90       		.byte	0x90
 1606 0b7b 2C000000 		.4byte	0x2c
 1607 0b7f 04       		.byte	0x4
 1608 0b80 08       		.uleb128 0x8
 1609 0b81 89000000 		.4byte	.LASF186
 1610 0b85 11       		.byte	0x11
 1611 0b86 94       		.byte	0x94
 1612 0b87 9E070000 		.4byte	0x79e
 1613 0b8b 08       		.byte	0x8
 1614 0b8c 08       		.uleb128 0x8
 1615 0b8d 68030000 		.4byte	.LASF180
 1616 0b91 11       		.byte	0x11
 1617 0b92 99       		.byte	0x99
 1618 0b93 4B020000 		.4byte	0x24b
 1619 0b97 0C       		.byte	0xc
 1620 0b98 08       		.uleb128 0x8
 1621 0b99 E5000000 		.4byte	.LASF187
 1622 0b9d 11       		.byte	0x11
 1623 0b9e 9F       		.byte	0x9f
 1624 0b9f BD000000 		.4byte	0xbd
 1625 0ba3 10       		.byte	0x10
 1626 0ba4 08       		.uleb128 0x8
 1627 0ba5 D2060000 		.4byte	.LASF181
 1628 0ba9 11       		.byte	0x11
 1629 0baa A1       		.byte	0xa1
 1630 0bab A4070000 		.4byte	0x7a4
 1631 0baf 12       		.byte	0x12
 1632 0bb0 08       		.uleb128 0x8
 1633 0bb1 D4010000 		.4byte	.LASF182
 1634 0bb5 11       		.byte	0x11
 1635 0bb6 A3       		.byte	0xa3
 1636 0bb7 A4070000 		.4byte	0x7a4
 1637 0bbb 13       		.byte	0x13
 1638 0bbc 00       		.byte	0
 1639 0bbd 03       		.uleb128 0x3
 1640 0bbe 33050000 		.4byte	.LASF188
 1641 0bc2 11       		.byte	0x11
 1642 0bc3 A4       		.byte	0xa4
 1643 0bc4 600B0000 		.4byte	0xb60
 1644 0bc8 11       		.uleb128 0x11
 1645 0bc9 24       		.byte	0x24
 1646 0bca 11       		.byte	0x11
 1647 0bcb AA       		.byte	0xaa
 1648 0bcc 490C0000 		.4byte	0xc49
 1649 0bd0 08       		.uleb128 0x8
ARM GAS  /var/folders/t8/16hdwfmd2fg_d3q6dgx6bpmw0000gn/T//ccj951ho.s 			page 30


 1650 0bd1 2E090000 		.4byte	.LASF189
 1651 0bd5 11       		.byte	0x11
 1652 0bd6 AE       		.byte	0xae
 1653 0bd7 D3000000 		.4byte	0xd3
 1654 0bdb 00       		.byte	0
 1655 0bdc 08       		.uleb128 0x8
 1656 0bdd DB060000 		.4byte	.LASF190
 1657 0be1 11       		.byte	0x11
 1658 0be2 B9       		.byte	0xb9
 1659 0be3 690A0000 		.4byte	0xa69
 1660 0be7 04       		.byte	0x4
 1661 0be8 08       		.uleb128 0x8
 1662 0be9 5C030000 		.4byte	.LASF191
 1663 0bed 11       		.byte	0x11
 1664 0bee BE       		.byte	0xbe
 1665 0bef 690A0000 		.4byte	0xa69
 1666 0bf3 08       		.byte	0x8
 1667 0bf4 08       		.uleb128 0x8
 1668 0bf5 FF010000 		.4byte	.LASF192
 1669 0bf9 11       		.byte	0x11
 1670 0bfa C3       		.byte	0xc3
 1671 0bfb 690A0000 		.4byte	0xa69
 1672 0bff 0C       		.byte	0xc
 1673 0c00 08       		.uleb128 0x8
 1674 0c01 EC060000 		.4byte	.LASF193
 1675 0c05 11       		.byte	0x11
 1676 0c06 C8       		.byte	0xc8
 1677 0c07 BD000000 		.4byte	0xbd
 1678 0c0b 10       		.byte	0x10
 1679 0c0c 08       		.uleb128 0x8
 1680 0c0d A2040000 		.4byte	.LASF194
 1681 0c11 11       		.byte	0x11
 1682 0c12 CD       		.byte	0xcd
 1683 0c13 BD000000 		.4byte	0xbd
 1684 0c17 12       		.byte	0x12
 1685 0c18 08       		.uleb128 0x8
 1686 0c19 44080000 		.4byte	.LASF195
 1687 0c1d 11       		.byte	0x11
 1688 0c1e D3       		.byte	0xd3
 1689 0c1f 490C0000 		.4byte	0xc49
 1690 0c23 14       		.byte	0x14
 1691 0c24 08       		.uleb128 0x8
 1692 0c25 10050000 		.4byte	.LASF196
 1693 0c29 11       		.byte	0x11
 1694 0c2a D9       		.byte	0xd9
 1695 0c2b 4F0C0000 		.4byte	0xc4f
 1696 0c2f 18       		.byte	0x18
 1697 0c30 08       		.uleb128 0x8
 1698 0c31 A0060000 		.4byte	.LASF197
 1699 0c35 11       		.byte	0x11
 1700 0c36 DF       		.byte	0xdf
 1701 0c37 BD000000 		.4byte	0xbd
 1702 0c3b 1C       		.byte	0x1c
 1703 0c3c 08       		.uleb128 0x8
 1704 0c3d 24050000 		.4byte	.LASF198
 1705 0c41 11       		.byte	0x11
 1706 0c42 E5       		.byte	0xe5
ARM GAS  /var/folders/t8/16hdwfmd2fg_d3q6dgx6bpmw0000gn/T//ccj951ho.s 			page 31


 1707 0c43 9E070000 		.4byte	0x79e
 1708 0c47 20       		.byte	0x20
 1709 0c48 00       		.byte	0
 1710 0c49 0C       		.uleb128 0xc
 1711 0c4a 04       		.byte	0x4
 1712 0c4b 550B0000 		.4byte	0xb55
 1713 0c4f 0C       		.uleb128 0xc
 1714 0c50 04       		.byte	0x4
 1715 0c51 BD0B0000 		.4byte	0xbbd
 1716 0c55 03       		.uleb128 0x3
 1717 0c56 8E050000 		.4byte	.LASF199
 1718 0c5a 11       		.byte	0x11
 1719 0c5b E6       		.byte	0xe6
 1720 0c5c C80B0000 		.4byte	0xbc8
 1721 0c60 05       		.uleb128 0x5
 1722 0c61 550C0000 		.4byte	0xc55
 1723 0c65 11       		.uleb128 0x11
 1724 0c66 10       		.byte	0x10
 1725 0c67 11       		.byte	0x11
 1726 0c68 EB       		.byte	0xeb
 1727 0c69 9E0C0000 		.4byte	0xc9e
 1728 0c6d 08       		.uleb128 0x8
 1729 0c6e 93030000 		.4byte	.LASF200
 1730 0c72 11       		.byte	0x11
 1731 0c73 F0       		.byte	0xf0
 1732 0c74 8B0A0000 		.4byte	0xa8b
 1733 0c78 00       		.byte	0
 1734 0c79 08       		.uleb128 0x8
 1735 0c7a D6070000 		.4byte	.LASF201
 1736 0c7e 11       		.byte	0x11
 1737 0c7f F5       		.byte	0xf5
 1738 0c80 CE0A0000 		.4byte	0xace
 1739 0c84 04       		.byte	0x4
 1740 0c85 08       		.uleb128 0x8
 1741 0c86 80040000 		.4byte	.LASF202
 1742 0c8a 11       		.byte	0x11
 1743 0c8b FB       		.byte	0xfb
 1744 0c8c AD0A0000 		.4byte	0xaad
 1745 0c90 08       		.byte	0x8
 1746 0c91 08       		.uleb128 0x8
 1747 0c92 7F050000 		.4byte	.LASF203
 1748 0c96 11       		.byte	0x11
 1749 0c97 FF       		.byte	0xff
 1750 0c98 460A0000 		.4byte	0xa46
 1751 0c9c 0C       		.byte	0xc
 1752 0c9d 00       		.byte	0
 1753 0c9e 1C       		.uleb128 0x1c
 1754 0c9f 03080000 		.4byte	.LASF204
 1755 0ca3 11       		.byte	0x11
 1756 0ca4 0101     		.2byte	0x101
 1757 0ca6 650C0000 		.4byte	0xc65
 1758 0caa 05       		.uleb128 0x5
 1759 0cab 9E0C0000 		.4byte	0xc9e
 1760 0caf 0C       		.uleb128 0xc
 1761 0cb0 04       		.byte	0x4
 1762 0cb1 AA0C0000 		.4byte	0xcaa
 1763 0cb5 16       		.uleb128 0x16
ARM GAS  /var/folders/t8/16hdwfmd2fg_d3q6dgx6bpmw0000gn/T//ccj951ho.s 			page 32


 1764 0cb6 C50C0000 		.4byte	0xcc5
 1765 0cba C50C0000 		.4byte	0xcc5
 1766 0cbe 19       		.uleb128 0x19
 1767 0cbf 37000000 		.4byte	0x37
 1768 0cc3 0F       		.byte	0xf
 1769 0cc4 00       		.byte	0
 1770 0cc5 0C       		.uleb128 0xc
 1771 0cc6 04       		.byte	0x4
 1772 0cc7 600C0000 		.4byte	0xc60
 1773 0ccb 16       		.uleb128 0x16
 1774 0ccc 33030000 		.4byte	0x333
 1775 0cd0 DB0C0000 		.4byte	0xcdb
 1776 0cd4 19       		.uleb128 0x19
 1777 0cd5 37000000 		.4byte	0x37
 1778 0cd9 0E       		.byte	0xe
 1779 0cda 00       		.byte	0
 1780 0cdb 16       		.uleb128 0x16
 1781 0cdc AD000000 		.4byte	0xad
 1782 0ce0 EB0C0000 		.4byte	0xceb
 1783 0ce4 19       		.uleb128 0x19
 1784 0ce5 37000000 		.4byte	0x37
 1785 0ce9 07       		.byte	0x7
 1786 0cea 00       		.byte	0
 1787 0ceb 18       		.uleb128 0x18
 1788 0cec 9C040000 		.4byte	.LASF205
 1789 0cf0 11       		.byte	0x11
 1790 0cf1 9201     		.2byte	0x192
 1791 0cf3 45080000 		.4byte	0x845
 1792 0cf7 21       		.uleb128 0x21
 1793 0cf8 D7090000 		.4byte	.LASF221
 1794 0cfc 01       		.byte	0x1
 1795 0cfd 78       		.byte	0x78
 1796 0cfe 46010000 		.4byte	0x146
 1797 0d02 00000000 		.4byte	.LFB178
 1798 0d06 10000000 		.4byte	.LFE178-.LFB178
 1799 0d0a 01       		.uleb128 0x1
 1800 0d0b 9C       		.byte	0x9c
 1801 0d0c 330D0000 		.4byte	0xd33
 1802 0d10 22       		.uleb128 0x22
 1803 0d11 77070000 		.4byte	.LASF206
 1804 0d15 430D0000 		.4byte	0xd43
 1805 0d19 05       		.uleb128 0x5
 1806 0d1a 03       		.byte	0x3
 1807 0d1b 00000000 		.4byte	__func__.6434
 1808 0d1f 23       		.uleb128 0x23
 1809 0d20 08000000 		.4byte	.LVL5
 1810 0d24 540E0000 		.4byte	0xe54
 1811 0d28 24       		.uleb128 0x24
 1812 0d29 01       		.uleb128 0x1
 1813 0d2a 50       		.byte	0x50
 1814 0d2b 05       		.uleb128 0x5
 1815 0d2c 03       		.byte	0x3
 1816 0d2d 00000000 		.4byte	.LANCHOR1
 1817 0d31 00       		.byte	0
 1818 0d32 00       		.byte	0
 1819 0d33 16       		.uleb128 0x16
 1820 0d34 48060000 		.4byte	0x648
ARM GAS  /var/folders/t8/16hdwfmd2fg_d3q6dgx6bpmw0000gn/T//ccj951ho.s 			page 33


 1821 0d38 430D0000 		.4byte	0xd43
 1822 0d3c 19       		.uleb128 0x19
 1823 0d3d 37000000 		.4byte	0x37
 1824 0d41 0A       		.byte	0xa
 1825 0d42 00       		.byte	0
 1826 0d43 05       		.uleb128 0x5
 1827 0d44 330D0000 		.4byte	0xd33
 1828 0d48 25       		.uleb128 0x25
 1829 0d49 A8090000 		.4byte	.LASF207
 1830 0d4d 01       		.byte	0x1
 1831 0d4e 68       		.byte	0x68
 1832 0d4f 00000000 		.4byte	.LFB177
 1833 0d53 10000000 		.4byte	.LFE177-.LFB177
 1834 0d57 01       		.uleb128 0x1
 1835 0d58 9C       		.byte	0x9c
 1836 0d59 8F0D0000 		.4byte	0xd8f
 1837 0d5d 26       		.uleb128 0x26
 1838 0d5e 8B030000 		.4byte	.LASF209
 1839 0d62 01       		.byte	0x1
 1840 0d63 68       		.byte	0x68
 1841 0d64 46010000 		.4byte	0x146
 1842 0d68 00000000 		.4byte	.LLST0
 1843 0d6c 22       		.uleb128 0x22
 1844 0d6d 77070000 		.4byte	.LASF206
 1845 0d71 430D0000 		.4byte	0xd43
 1846 0d75 05       		.uleb128 0x5
 1847 0d76 03       		.byte	0x3
 1848 0d77 00000000 		.4byte	__func__.6430
 1849 0d7b 23       		.uleb128 0x23
 1850 0d7c 08000000 		.4byte	.LVL4
 1851 0d80 540E0000 		.4byte	0xe54
 1852 0d84 24       		.uleb128 0x24
 1853 0d85 01       		.uleb128 0x1
 1854 0d86 50       		.byte	0x50
 1855 0d87 05       		.uleb128 0x5
 1856 0d88 03       		.byte	0x3
 1857 0d89 00000000 		.4byte	.LANCHOR0
 1858 0d8d 00       		.byte	0
 1859 0d8e 00       		.byte	0
 1860 0d8f 27       		.uleb128 0x27
 1861 0d90 4D080000 		.4byte	.LASF222
 1862 0d94 01       		.byte	0x1
 1863 0d95 5A       		.byte	0x5a
 1864 0d96 00000000 		.4byte	.LFB176
 1865 0d9a 02000000 		.4byte	.LFE176-.LFB176
 1866 0d9e 01       		.uleb128 0x1
 1867 0d9f 9C       		.byte	0x9c
 1868 0da0 25       		.uleb128 0x25
 1869 0da1 AD010000 		.4byte	.LASF208
 1870 0da5 01       		.byte	0x1
 1871 0da6 4C       		.byte	0x4c
 1872 0da7 00000000 		.4byte	.LFB175
 1873 0dab 02000000 		.4byte	.LFE175-.LFB175
 1874 0daf 01       		.uleb128 0x1
 1875 0db0 9C       		.byte	0x9c
 1876 0db1 D00D0000 		.4byte	0xdd0
 1877 0db5 28       		.uleb128 0x28
ARM GAS  /var/folders/t8/16hdwfmd2fg_d3q6dgx6bpmw0000gn/T//ccj951ho.s 			page 34


 1878 0db6 8B030000 		.4byte	.LASF209
 1879 0dba 01       		.byte	0x1
 1880 0dbb 4C       		.byte	0x4c
 1881 0dbc 46010000 		.4byte	0x146
 1882 0dc0 01       		.uleb128 0x1
 1883 0dc1 50       		.byte	0x50
 1884 0dc2 29       		.uleb128 0x29
 1885 0dc3 77070000 		.4byte	.LASF206
 1886 0dc7 E00D0000 		.4byte	0xde0
 1887 0dcb AD010000 		.4byte	.LASF208
 1888 0dcf 00       		.byte	0
 1889 0dd0 16       		.uleb128 0x16
 1890 0dd1 48060000 		.4byte	0x648
 1891 0dd5 E00D0000 		.4byte	0xde0
 1892 0dd9 19       		.uleb128 0x19
 1893 0dda 37000000 		.4byte	0x37
 1894 0dde 0C       		.byte	0xc
 1895 0ddf 00       		.byte	0
 1896 0de0 05       		.uleb128 0x5
 1897 0de1 D00D0000 		.4byte	0xdd0
 1898 0de5 25       		.uleb128 0x25
 1899 0de6 1B000000 		.4byte	.LASF210
 1900 0dea 01       		.byte	0x1
 1901 0deb 3C       		.byte	0x3c
 1902 0dec 00000000 		.4byte	.LFB174
 1903 0df0 08000000 		.4byte	.LFE174-.LFB174
 1904 0df4 01       		.uleb128 0x1
 1905 0df5 9C       		.byte	0x9c
 1906 0df6 040E0000 		.4byte	0xe04
 1907 0dfa 2A       		.uleb128 0x2a
 1908 0dfb 06000000 		.4byte	.LVL0
 1909 0dff 600E0000 		.4byte	0xe60
 1910 0e03 00       		.byte	0
 1911 0e04 2B       		.uleb128 0x2b
 1912 0e05 7F020000 		.4byte	.LASF211
 1913 0e09 12       		.byte	0x12
 1914 0e0a 95       		.byte	0x95
 1915 0e0b A4070000 		.4byte	0x7a4
 1916 0e0f 03       		.byte	0x3
 1917 0e10 2B       		.uleb128 0x2b
 1918 0e11 9D070000 		.4byte	.LASF212
 1919 0e15 12       		.byte	0x12
 1920 0e16 87       		.byte	0x87
 1921 0e17 46010000 		.4byte	0x146
 1922 0e1b 03       		.byte	0x3
 1923 0e1c 2C       		.uleb128 0x2c
 1924 0e1d B1020000 		.4byte	.LASF213
 1925 0e21 12       		.byte	0x12
 1926 0e22 7B       		.byte	0x7b
 1927 0e23 03       		.byte	0x3
 1928 0e24 340E0000 		.4byte	0xe34
 1929 0e28 2D       		.uleb128 0x2d
 1930 0e29 5A050000 		.4byte	.LASF215
 1931 0e2d 12       		.byte	0x12
 1932 0e2e 7B       		.byte	0x7b
 1933 0e2f 46010000 		.4byte	0x146
 1934 0e33 00       		.byte	0
ARM GAS  /var/folders/t8/16hdwfmd2fg_d3q6dgx6bpmw0000gn/T//ccj951ho.s 			page 35


 1935 0e34 2E       		.uleb128 0x2e
 1936 0e35 1C090000 		.4byte	.LASF223
 1937 0e39 12       		.byte	0x12
 1938 0e3a 70       		.byte	0x70
 1939 0e3b 03       		.byte	0x3
 1940 0e3c 2C       		.uleb128 0x2c
 1941 0e3d 6F030000 		.4byte	.LASF214
 1942 0e41 12       		.byte	0x12
 1943 0e42 66       		.byte	0x66
 1944 0e43 03       		.byte	0x3
 1945 0e44 540E0000 		.4byte	0xe54
 1946 0e48 2D       		.uleb128 0x2d
 1947 0e49 5A050000 		.4byte	.LASF215
 1948 0e4d 12       		.byte	0x12
 1949 0e4e 66       		.byte	0x66
 1950 0e4f 46010000 		.4byte	0x146
 1951 0e53 00       		.byte	0
 1952 0e54 2F       		.uleb128 0x2f
 1953 0e55 8F000000 		.4byte	.LASF216
 1954 0e59 8F000000 		.4byte	.LASF216
 1955 0e5d 0E       		.byte	0xe
 1956 0e5e 3201     		.2byte	0x132
 1957 0e60 30       		.uleb128 0x30
 1958 0e61 F7000000 		.4byte	.LASF217
 1959 0e65 F7000000 		.4byte	.LASF217
 1960 0e69 12       		.byte	0x12
 1961 0e6a 48       		.byte	0x48
 1962 0e6b 00       		.byte	0
 1963              		.section	.debug_abbrev,"",%progbits
 1964              	.Ldebug_abbrev0:
 1965 0000 01       		.uleb128 0x1
 1966 0001 11       		.uleb128 0x11
 1967 0002 01       		.byte	0x1
 1968 0003 25       		.uleb128 0x25
 1969 0004 0E       		.uleb128 0xe
 1970 0005 13       		.uleb128 0x13
 1971 0006 0B       		.uleb128 0xb
 1972 0007 03       		.uleb128 0x3
 1973 0008 0E       		.uleb128 0xe
 1974 0009 1B       		.uleb128 0x1b
 1975 000a 0E       		.uleb128 0xe
 1976 000b 55       		.uleb128 0x55
 1977 000c 17       		.uleb128 0x17
 1978 000d 11       		.uleb128 0x11
 1979 000e 01       		.uleb128 0x1
 1980 000f 10       		.uleb128 0x10
 1981 0010 17       		.uleb128 0x17
 1982 0011 00       		.byte	0
 1983 0012 00       		.byte	0
 1984 0013 02       		.uleb128 0x2
 1985 0014 24       		.uleb128 0x24
 1986 0015 00       		.byte	0
 1987 0016 0B       		.uleb128 0xb
 1988 0017 0B       		.uleb128 0xb
 1989 0018 3E       		.uleb128 0x3e
 1990 0019 0B       		.uleb128 0xb
 1991 001a 03       		.uleb128 0x3
ARM GAS  /var/folders/t8/16hdwfmd2fg_d3q6dgx6bpmw0000gn/T//ccj951ho.s 			page 36


 1992 001b 08       		.uleb128 0x8
 1993 001c 00       		.byte	0
 1994 001d 00       		.byte	0
 1995 001e 03       		.uleb128 0x3
 1996 001f 16       		.uleb128 0x16
 1997 0020 00       		.byte	0
 1998 0021 03       		.uleb128 0x3
 1999 0022 0E       		.uleb128 0xe
 2000 0023 3A       		.uleb128 0x3a
 2001 0024 0B       		.uleb128 0xb
 2002 0025 3B       		.uleb128 0x3b
 2003 0026 0B       		.uleb128 0xb
 2004 0027 49       		.uleb128 0x49
 2005 0028 13       		.uleb128 0x13
 2006 0029 00       		.byte	0
 2007 002a 00       		.byte	0
 2008 002b 04       		.uleb128 0x4
 2009 002c 24       		.uleb128 0x24
 2010 002d 00       		.byte	0
 2011 002e 0B       		.uleb128 0xb
 2012 002f 0B       		.uleb128 0xb
 2013 0030 3E       		.uleb128 0x3e
 2014 0031 0B       		.uleb128 0xb
 2015 0032 03       		.uleb128 0x3
 2016 0033 0E       		.uleb128 0xe
 2017 0034 00       		.byte	0
 2018 0035 00       		.byte	0
 2019 0036 05       		.uleb128 0x5
 2020 0037 26       		.uleb128 0x26
 2021 0038 00       		.byte	0
 2022 0039 49       		.uleb128 0x49
 2023 003a 13       		.uleb128 0x13
 2024 003b 00       		.byte	0
 2025 003c 00       		.byte	0
 2026 003d 06       		.uleb128 0x6
 2027 003e 35       		.uleb128 0x35
 2028 003f 00       		.byte	0
 2029 0040 49       		.uleb128 0x49
 2030 0041 13       		.uleb128 0x13
 2031 0042 00       		.byte	0
 2032 0043 00       		.byte	0
 2033 0044 07       		.uleb128 0x7
 2034 0045 13       		.uleb128 0x13
 2035 0046 01       		.byte	0x1
 2036 0047 03       		.uleb128 0x3
 2037 0048 0E       		.uleb128 0xe
 2038 0049 0B       		.uleb128 0xb
 2039 004a 0B       		.uleb128 0xb
 2040 004b 3A       		.uleb128 0x3a
 2041 004c 0B       		.uleb128 0xb
 2042 004d 3B       		.uleb128 0x3b
 2043 004e 0B       		.uleb128 0xb
 2044 004f 01       		.uleb128 0x1
 2045 0050 13       		.uleb128 0x13
 2046 0051 00       		.byte	0
 2047 0052 00       		.byte	0
 2048 0053 08       		.uleb128 0x8
ARM GAS  /var/folders/t8/16hdwfmd2fg_d3q6dgx6bpmw0000gn/T//ccj951ho.s 			page 37


 2049 0054 0D       		.uleb128 0xd
 2050 0055 00       		.byte	0
 2051 0056 03       		.uleb128 0x3
 2052 0057 0E       		.uleb128 0xe
 2053 0058 3A       		.uleb128 0x3a
 2054 0059 0B       		.uleb128 0xb
 2055 005a 3B       		.uleb128 0x3b
 2056 005b 0B       		.uleb128 0xb
 2057 005c 49       		.uleb128 0x49
 2058 005d 13       		.uleb128 0x13
 2059 005e 38       		.uleb128 0x38
 2060 005f 0B       		.uleb128 0xb
 2061 0060 00       		.byte	0
 2062 0061 00       		.byte	0
 2063 0062 09       		.uleb128 0x9
 2064 0063 0D       		.uleb128 0xd
 2065 0064 00       		.byte	0
 2066 0065 03       		.uleb128 0x3
 2067 0066 08       		.uleb128 0x8
 2068 0067 3A       		.uleb128 0x3a
 2069 0068 0B       		.uleb128 0xb
 2070 0069 3B       		.uleb128 0x3b
 2071 006a 0B       		.uleb128 0xb
 2072 006b 49       		.uleb128 0x49
 2073 006c 13       		.uleb128 0x13
 2074 006d 38       		.uleb128 0x38
 2075 006e 0B       		.uleb128 0xb
 2076 006f 00       		.byte	0
 2077 0070 00       		.byte	0
 2078 0071 0A       		.uleb128 0xa
 2079 0072 0D       		.uleb128 0xd
 2080 0073 00       		.byte	0
 2081 0074 03       		.uleb128 0x3
 2082 0075 08       		.uleb128 0x8
 2083 0076 3A       		.uleb128 0x3a
 2084 0077 0B       		.uleb128 0xb
 2085 0078 3B       		.uleb128 0x3b
 2086 0079 05       		.uleb128 0x5
 2087 007a 49       		.uleb128 0x49
 2088 007b 13       		.uleb128 0x13
 2089 007c 38       		.uleb128 0x38
 2090 007d 0B       		.uleb128 0xb
 2091 007e 00       		.byte	0
 2092 007f 00       		.byte	0
 2093 0080 0B       		.uleb128 0xb
 2094 0081 0D       		.uleb128 0xd
 2095 0082 00       		.byte	0
 2096 0083 03       		.uleb128 0x3
 2097 0084 0E       		.uleb128 0xe
 2098 0085 3A       		.uleb128 0x3a
 2099 0086 0B       		.uleb128 0xb
 2100 0087 3B       		.uleb128 0x3b
 2101 0088 05       		.uleb128 0x5
 2102 0089 49       		.uleb128 0x49
 2103 008a 13       		.uleb128 0x13
 2104 008b 38       		.uleb128 0x38
 2105 008c 0B       		.uleb128 0xb
ARM GAS  /var/folders/t8/16hdwfmd2fg_d3q6dgx6bpmw0000gn/T//ccj951ho.s 			page 38


 2106 008d 00       		.byte	0
 2107 008e 00       		.byte	0
 2108 008f 0C       		.uleb128 0xc
 2109 0090 0F       		.uleb128 0xf
 2110 0091 00       		.byte	0
 2111 0092 0B       		.uleb128 0xb
 2112 0093 0B       		.uleb128 0xb
 2113 0094 49       		.uleb128 0x49
 2114 0095 13       		.uleb128 0x13
 2115 0096 00       		.byte	0
 2116 0097 00       		.byte	0
 2117 0098 0D       		.uleb128 0xd
 2118 0099 13       		.uleb128 0x13
 2119 009a 01       		.byte	0x1
 2120 009b 03       		.uleb128 0x3
 2121 009c 0E       		.uleb128 0xe
 2122 009d 0B       		.uleb128 0xb
 2123 009e 0B       		.uleb128 0xb
 2124 009f 3A       		.uleb128 0x3a
 2125 00a0 0B       		.uleb128 0xb
 2126 00a1 3B       		.uleb128 0x3b
 2127 00a2 05       		.uleb128 0x5
 2128 00a3 01       		.uleb128 0x1
 2129 00a4 13       		.uleb128 0x13
 2130 00a5 00       		.byte	0
 2131 00a6 00       		.byte	0
 2132 00a7 0E       		.uleb128 0xe
 2133 00a8 15       		.uleb128 0x15
 2134 00a9 01       		.byte	0x1
 2135 00aa 27       		.uleb128 0x27
 2136 00ab 19       		.uleb128 0x19
 2137 00ac 01       		.uleb128 0x1
 2138 00ad 13       		.uleb128 0x13
 2139 00ae 00       		.byte	0
 2140 00af 00       		.byte	0
 2141 00b0 0F       		.uleb128 0xf
 2142 00b1 05       		.uleb128 0x5
 2143 00b2 00       		.byte	0
 2144 00b3 49       		.uleb128 0x49
 2145 00b4 13       		.uleb128 0x13
 2146 00b5 00       		.byte	0
 2147 00b6 00       		.byte	0
 2148 00b7 10       		.uleb128 0x10
 2149 00b8 0F       		.uleb128 0xf
 2150 00b9 00       		.byte	0
 2151 00ba 0B       		.uleb128 0xb
 2152 00bb 0B       		.uleb128 0xb
 2153 00bc 00       		.byte	0
 2154 00bd 00       		.byte	0
 2155 00be 11       		.uleb128 0x11
 2156 00bf 13       		.uleb128 0x13
 2157 00c0 01       		.byte	0x1
 2158 00c1 0B       		.uleb128 0xb
 2159 00c2 0B       		.uleb128 0xb
 2160 00c3 3A       		.uleb128 0x3a
 2161 00c4 0B       		.uleb128 0xb
 2162 00c5 3B       		.uleb128 0x3b
ARM GAS  /var/folders/t8/16hdwfmd2fg_d3q6dgx6bpmw0000gn/T//ccj951ho.s 			page 39


 2163 00c6 0B       		.uleb128 0xb
 2164 00c7 01       		.uleb128 0x1
 2165 00c8 13       		.uleb128 0x13
 2166 00c9 00       		.byte	0
 2167 00ca 00       		.byte	0
 2168 00cb 12       		.uleb128 0x12
 2169 00cc 17       		.uleb128 0x17
 2170 00cd 01       		.byte	0x1
 2171 00ce 0B       		.uleb128 0xb
 2172 00cf 0B       		.uleb128 0xb
 2173 00d0 3A       		.uleb128 0x3a
 2174 00d1 0B       		.uleb128 0xb
 2175 00d2 3B       		.uleb128 0x3b
 2176 00d3 0B       		.uleb128 0xb
 2177 00d4 01       		.uleb128 0x1
 2178 00d5 13       		.uleb128 0x13
 2179 00d6 00       		.byte	0
 2180 00d7 00       		.byte	0
 2181 00d8 13       		.uleb128 0x13
 2182 00d9 0D       		.uleb128 0xd
 2183 00da 00       		.byte	0
 2184 00db 03       		.uleb128 0x3
 2185 00dc 0E       		.uleb128 0xe
 2186 00dd 3A       		.uleb128 0x3a
 2187 00de 0B       		.uleb128 0xb
 2188 00df 3B       		.uleb128 0x3b
 2189 00e0 0B       		.uleb128 0xb
 2190 00e1 49       		.uleb128 0x49
 2191 00e2 13       		.uleb128 0x13
 2192 00e3 00       		.byte	0
 2193 00e4 00       		.byte	0
 2194 00e5 14       		.uleb128 0x14
 2195 00e6 0D       		.uleb128 0xd
 2196 00e7 00       		.byte	0
 2197 00e8 03       		.uleb128 0x3
 2198 00e9 0E       		.uleb128 0xe
 2199 00ea 3A       		.uleb128 0x3a
 2200 00eb 0B       		.uleb128 0xb
 2201 00ec 3B       		.uleb128 0x3b
 2202 00ed 05       		.uleb128 0x5
 2203 00ee 49       		.uleb128 0x49
 2204 00ef 13       		.uleb128 0x13
 2205 00f0 00       		.byte	0
 2206 00f1 00       		.byte	0
 2207 00f2 15       		.uleb128 0x15
 2208 00f3 34       		.uleb128 0x34
 2209 00f4 00       		.byte	0
 2210 00f5 03       		.uleb128 0x3
 2211 00f6 08       		.uleb128 0x8
 2212 00f7 3A       		.uleb128 0x3a
 2213 00f8 0B       		.uleb128 0xb
 2214 00f9 3B       		.uleb128 0x3b
 2215 00fa 05       		.uleb128 0x5
 2216 00fb 49       		.uleb128 0x49
 2217 00fc 13       		.uleb128 0x13
 2218 00fd 3F       		.uleb128 0x3f
 2219 00fe 19       		.uleb128 0x19
ARM GAS  /var/folders/t8/16hdwfmd2fg_d3q6dgx6bpmw0000gn/T//ccj951ho.s 			page 40


 2220 00ff 3C       		.uleb128 0x3c
 2221 0100 19       		.uleb128 0x19
 2222 0101 00       		.byte	0
 2223 0102 00       		.byte	0
 2224 0103 16       		.uleb128 0x16
 2225 0104 01       		.uleb128 0x1
 2226 0105 01       		.byte	0x1
 2227 0106 49       		.uleb128 0x49
 2228 0107 13       		.uleb128 0x13
 2229 0108 01       		.uleb128 0x1
 2230 0109 13       		.uleb128 0x13
 2231 010a 00       		.byte	0
 2232 010b 00       		.byte	0
 2233 010c 17       		.uleb128 0x17
 2234 010d 21       		.uleb128 0x21
 2235 010e 00       		.byte	0
 2236 010f 00       		.byte	0
 2237 0110 00       		.byte	0
 2238 0111 18       		.uleb128 0x18
 2239 0112 34       		.uleb128 0x34
 2240 0113 00       		.byte	0
 2241 0114 03       		.uleb128 0x3
 2242 0115 0E       		.uleb128 0xe
 2243 0116 3A       		.uleb128 0x3a
 2244 0117 0B       		.uleb128 0xb
 2245 0118 3B       		.uleb128 0x3b
 2246 0119 05       		.uleb128 0x5
 2247 011a 49       		.uleb128 0x49
 2248 011b 13       		.uleb128 0x13
 2249 011c 3F       		.uleb128 0x3f
 2250 011d 19       		.uleb128 0x19
 2251 011e 3C       		.uleb128 0x3c
 2252 011f 19       		.uleb128 0x19
 2253 0120 00       		.byte	0
 2254 0121 00       		.byte	0
 2255 0122 19       		.uleb128 0x19
 2256 0123 21       		.uleb128 0x21
 2257 0124 00       		.byte	0
 2258 0125 49       		.uleb128 0x49
 2259 0126 13       		.uleb128 0x13
 2260 0127 2F       		.uleb128 0x2f
 2261 0128 0B       		.uleb128 0xb
 2262 0129 00       		.byte	0
 2263 012a 00       		.byte	0
 2264 012b 1A       		.uleb128 0x1a
 2265 012c 34       		.uleb128 0x34
 2266 012d 00       		.byte	0
 2267 012e 03       		.uleb128 0x3
 2268 012f 0E       		.uleb128 0xe
 2269 0130 3A       		.uleb128 0x3a
 2270 0131 0B       		.uleb128 0xb
 2271 0132 3B       		.uleb128 0x3b
 2272 0133 0B       		.uleb128 0xb
 2273 0134 49       		.uleb128 0x49
 2274 0135 13       		.uleb128 0x13
 2275 0136 3F       		.uleb128 0x3f
 2276 0137 19       		.uleb128 0x19
ARM GAS  /var/folders/t8/16hdwfmd2fg_d3q6dgx6bpmw0000gn/T//ccj951ho.s 			page 41


 2277 0138 3C       		.uleb128 0x3c
 2278 0139 19       		.uleb128 0x19
 2279 013a 00       		.byte	0
 2280 013b 00       		.byte	0
 2281 013c 1B       		.uleb128 0x1b
 2282 013d 13       		.uleb128 0x13
 2283 013e 01       		.byte	0x1
 2284 013f 0B       		.uleb128 0xb
 2285 0140 05       		.uleb128 0x5
 2286 0141 3A       		.uleb128 0x3a
 2287 0142 0B       		.uleb128 0xb
 2288 0143 3B       		.uleb128 0x3b
 2289 0144 0B       		.uleb128 0xb
 2290 0145 01       		.uleb128 0x1
 2291 0146 13       		.uleb128 0x13
 2292 0147 00       		.byte	0
 2293 0148 00       		.byte	0
 2294 0149 1C       		.uleb128 0x1c
 2295 014a 16       		.uleb128 0x16
 2296 014b 00       		.byte	0
 2297 014c 03       		.uleb128 0x3
 2298 014d 0E       		.uleb128 0xe
 2299 014e 3A       		.uleb128 0x3a
 2300 014f 0B       		.uleb128 0xb
 2301 0150 3B       		.uleb128 0x3b
 2302 0151 05       		.uleb128 0x5
 2303 0152 49       		.uleb128 0x49
 2304 0153 13       		.uleb128 0x13
 2305 0154 00       		.byte	0
 2306 0155 00       		.byte	0
 2307 0156 1D       		.uleb128 0x1d
 2308 0157 04       		.uleb128 0x4
 2309 0158 01       		.byte	0x1
 2310 0159 3E       		.uleb128 0x3e
 2311 015a 0B       		.uleb128 0xb
 2312 015b 0B       		.uleb128 0xb
 2313 015c 0B       		.uleb128 0xb
 2314 015d 49       		.uleb128 0x49
 2315 015e 13       		.uleb128 0x13
 2316 015f 3A       		.uleb128 0x3a
 2317 0160 0B       		.uleb128 0xb
 2318 0161 3B       		.uleb128 0x3b
 2319 0162 05       		.uleb128 0x5
 2320 0163 01       		.uleb128 0x1
 2321 0164 13       		.uleb128 0x13
 2322 0165 00       		.byte	0
 2323 0166 00       		.byte	0
 2324 0167 1E       		.uleb128 0x1e
 2325 0168 28       		.uleb128 0x28
 2326 0169 00       		.byte	0
 2327 016a 03       		.uleb128 0x3
 2328 016b 0E       		.uleb128 0xe
 2329 016c 1C       		.uleb128 0x1c
 2330 016d 0B       		.uleb128 0xb
 2331 016e 00       		.byte	0
 2332 016f 00       		.byte	0
 2333 0170 1F       		.uleb128 0x1f
ARM GAS  /var/folders/t8/16hdwfmd2fg_d3q6dgx6bpmw0000gn/T//ccj951ho.s 			page 42


 2334 0171 13       		.uleb128 0x13
 2335 0172 01       		.byte	0x1
 2336 0173 0B       		.uleb128 0xb
 2337 0174 0B       		.uleb128 0xb
 2338 0175 3A       		.uleb128 0x3a
 2339 0176 0B       		.uleb128 0xb
 2340 0177 3B       		.uleb128 0x3b
 2341 0178 05       		.uleb128 0x5
 2342 0179 01       		.uleb128 0x1
 2343 017a 13       		.uleb128 0x13
 2344 017b 00       		.byte	0
 2345 017c 00       		.byte	0
 2346 017d 20       		.uleb128 0x20
 2347 017e 15       		.uleb128 0x15
 2348 017f 01       		.byte	0x1
 2349 0180 27       		.uleb128 0x27
 2350 0181 19       		.uleb128 0x19
 2351 0182 49       		.uleb128 0x49
 2352 0183 13       		.uleb128 0x13
 2353 0184 01       		.uleb128 0x1
 2354 0185 13       		.uleb128 0x13
 2355 0186 00       		.byte	0
 2356 0187 00       		.byte	0
 2357 0188 21       		.uleb128 0x21
 2358 0189 2E       		.uleb128 0x2e
 2359 018a 01       		.byte	0x1
 2360 018b 3F       		.uleb128 0x3f
 2361 018c 19       		.uleb128 0x19
 2362 018d 03       		.uleb128 0x3
 2363 018e 0E       		.uleb128 0xe
 2364 018f 3A       		.uleb128 0x3a
 2365 0190 0B       		.uleb128 0xb
 2366 0191 3B       		.uleb128 0x3b
 2367 0192 0B       		.uleb128 0xb
 2368 0193 27       		.uleb128 0x27
 2369 0194 19       		.uleb128 0x19
 2370 0195 49       		.uleb128 0x49
 2371 0196 13       		.uleb128 0x13
 2372 0197 11       		.uleb128 0x11
 2373 0198 01       		.uleb128 0x1
 2374 0199 12       		.uleb128 0x12
 2375 019a 06       		.uleb128 0x6
 2376 019b 40       		.uleb128 0x40
 2377 019c 18       		.uleb128 0x18
 2378 019d 9742     		.uleb128 0x2117
 2379 019f 19       		.uleb128 0x19
 2380 01a0 01       		.uleb128 0x1
 2381 01a1 13       		.uleb128 0x13
 2382 01a2 00       		.byte	0
 2383 01a3 00       		.byte	0
 2384 01a4 22       		.uleb128 0x22
 2385 01a5 34       		.uleb128 0x34
 2386 01a6 00       		.byte	0
 2387 01a7 03       		.uleb128 0x3
 2388 01a8 0E       		.uleb128 0xe
 2389 01a9 49       		.uleb128 0x49
 2390 01aa 13       		.uleb128 0x13
ARM GAS  /var/folders/t8/16hdwfmd2fg_d3q6dgx6bpmw0000gn/T//ccj951ho.s 			page 43


 2391 01ab 34       		.uleb128 0x34
 2392 01ac 19       		.uleb128 0x19
 2393 01ad 02       		.uleb128 0x2
 2394 01ae 18       		.uleb128 0x18
 2395 01af 00       		.byte	0
 2396 01b0 00       		.byte	0
 2397 01b1 23       		.uleb128 0x23
 2398 01b2 898201   		.uleb128 0x4109
 2399 01b5 01       		.byte	0x1
 2400 01b6 11       		.uleb128 0x11
 2401 01b7 01       		.uleb128 0x1
 2402 01b8 31       		.uleb128 0x31
 2403 01b9 13       		.uleb128 0x13
 2404 01ba 00       		.byte	0
 2405 01bb 00       		.byte	0
 2406 01bc 24       		.uleb128 0x24
 2407 01bd 8A8201   		.uleb128 0x410a
 2408 01c0 00       		.byte	0
 2409 01c1 02       		.uleb128 0x2
 2410 01c2 18       		.uleb128 0x18
 2411 01c3 9142     		.uleb128 0x2111
 2412 01c5 18       		.uleb128 0x18
 2413 01c6 00       		.byte	0
 2414 01c7 00       		.byte	0
 2415 01c8 25       		.uleb128 0x25
 2416 01c9 2E       		.uleb128 0x2e
 2417 01ca 01       		.byte	0x1
 2418 01cb 3F       		.uleb128 0x3f
 2419 01cc 19       		.uleb128 0x19
 2420 01cd 03       		.uleb128 0x3
 2421 01ce 0E       		.uleb128 0xe
 2422 01cf 3A       		.uleb128 0x3a
 2423 01d0 0B       		.uleb128 0xb
 2424 01d1 3B       		.uleb128 0x3b
 2425 01d2 0B       		.uleb128 0xb
 2426 01d3 27       		.uleb128 0x27
 2427 01d4 19       		.uleb128 0x19
 2428 01d5 11       		.uleb128 0x11
 2429 01d6 01       		.uleb128 0x1
 2430 01d7 12       		.uleb128 0x12
 2431 01d8 06       		.uleb128 0x6
 2432 01d9 40       		.uleb128 0x40
 2433 01da 18       		.uleb128 0x18
 2434 01db 9742     		.uleb128 0x2117
 2435 01dd 19       		.uleb128 0x19
 2436 01de 01       		.uleb128 0x1
 2437 01df 13       		.uleb128 0x13
 2438 01e0 00       		.byte	0
 2439 01e1 00       		.byte	0
 2440 01e2 26       		.uleb128 0x26
 2441 01e3 05       		.uleb128 0x5
 2442 01e4 00       		.byte	0
 2443 01e5 03       		.uleb128 0x3
 2444 01e6 0E       		.uleb128 0xe
 2445 01e7 3A       		.uleb128 0x3a
 2446 01e8 0B       		.uleb128 0xb
 2447 01e9 3B       		.uleb128 0x3b
ARM GAS  /var/folders/t8/16hdwfmd2fg_d3q6dgx6bpmw0000gn/T//ccj951ho.s 			page 44


 2448 01ea 0B       		.uleb128 0xb
 2449 01eb 49       		.uleb128 0x49
 2450 01ec 13       		.uleb128 0x13
 2451 01ed 02       		.uleb128 0x2
 2452 01ee 17       		.uleb128 0x17
 2453 01ef 00       		.byte	0
 2454 01f0 00       		.byte	0
 2455 01f1 27       		.uleb128 0x27
 2456 01f2 2E       		.uleb128 0x2e
 2457 01f3 00       		.byte	0
 2458 01f4 3F       		.uleb128 0x3f
 2459 01f5 19       		.uleb128 0x19
 2460 01f6 03       		.uleb128 0x3
 2461 01f7 0E       		.uleb128 0xe
 2462 01f8 3A       		.uleb128 0x3a
 2463 01f9 0B       		.uleb128 0xb
 2464 01fa 3B       		.uleb128 0x3b
 2465 01fb 0B       		.uleb128 0xb
 2466 01fc 27       		.uleb128 0x27
 2467 01fd 19       		.uleb128 0x19
 2468 01fe 11       		.uleb128 0x11
 2469 01ff 01       		.uleb128 0x1
 2470 0200 12       		.uleb128 0x12
 2471 0201 06       		.uleb128 0x6
 2472 0202 40       		.uleb128 0x40
 2473 0203 18       		.uleb128 0x18
 2474 0204 9742     		.uleb128 0x2117
 2475 0206 19       		.uleb128 0x19
 2476 0207 00       		.byte	0
 2477 0208 00       		.byte	0
 2478 0209 28       		.uleb128 0x28
 2479 020a 05       		.uleb128 0x5
 2480 020b 00       		.byte	0
 2481 020c 03       		.uleb128 0x3
 2482 020d 0E       		.uleb128 0xe
 2483 020e 3A       		.uleb128 0x3a
 2484 020f 0B       		.uleb128 0xb
 2485 0210 3B       		.uleb128 0x3b
 2486 0211 0B       		.uleb128 0xb
 2487 0212 49       		.uleb128 0x49
 2488 0213 13       		.uleb128 0x13
 2489 0214 02       		.uleb128 0x2
 2490 0215 18       		.uleb128 0x18
 2491 0216 00       		.byte	0
 2492 0217 00       		.byte	0
 2493 0218 29       		.uleb128 0x29
 2494 0219 34       		.uleb128 0x34
 2495 021a 00       		.byte	0
 2496 021b 03       		.uleb128 0x3
 2497 021c 0E       		.uleb128 0xe
 2498 021d 49       		.uleb128 0x49
 2499 021e 13       		.uleb128 0x13
 2500 021f 34       		.uleb128 0x34
 2501 0220 19       		.uleb128 0x19
 2502 0221 1C       		.uleb128 0x1c
 2503 0222 0E       		.uleb128 0xe
 2504 0223 00       		.byte	0
ARM GAS  /var/folders/t8/16hdwfmd2fg_d3q6dgx6bpmw0000gn/T//ccj951ho.s 			page 45


 2505 0224 00       		.byte	0
 2506 0225 2A       		.uleb128 0x2a
 2507 0226 898201   		.uleb128 0x4109
 2508 0229 00       		.byte	0
 2509 022a 11       		.uleb128 0x11
 2510 022b 01       		.uleb128 0x1
 2511 022c 31       		.uleb128 0x31
 2512 022d 13       		.uleb128 0x13
 2513 022e 00       		.byte	0
 2514 022f 00       		.byte	0
 2515 0230 2B       		.uleb128 0x2b
 2516 0231 2E       		.uleb128 0x2e
 2517 0232 00       		.byte	0
 2518 0233 03       		.uleb128 0x3
 2519 0234 0E       		.uleb128 0xe
 2520 0235 3A       		.uleb128 0x3a
 2521 0236 0B       		.uleb128 0xb
 2522 0237 3B       		.uleb128 0x3b
 2523 0238 0B       		.uleb128 0xb
 2524 0239 27       		.uleb128 0x27
 2525 023a 19       		.uleb128 0x19
 2526 023b 49       		.uleb128 0x49
 2527 023c 13       		.uleb128 0x13
 2528 023d 20       		.uleb128 0x20
 2529 023e 0B       		.uleb128 0xb
 2530 023f 00       		.byte	0
 2531 0240 00       		.byte	0
 2532 0241 2C       		.uleb128 0x2c
 2533 0242 2E       		.uleb128 0x2e
 2534 0243 01       		.byte	0x1
 2535 0244 03       		.uleb128 0x3
 2536 0245 0E       		.uleb128 0xe
 2537 0246 3A       		.uleb128 0x3a
 2538 0247 0B       		.uleb128 0xb
 2539 0248 3B       		.uleb128 0x3b
 2540 0249 0B       		.uleb128 0xb
 2541 024a 27       		.uleb128 0x27
 2542 024b 19       		.uleb128 0x19
 2543 024c 20       		.uleb128 0x20
 2544 024d 0B       		.uleb128 0xb
 2545 024e 01       		.uleb128 0x1
 2546 024f 13       		.uleb128 0x13
 2547 0250 00       		.byte	0
 2548 0251 00       		.byte	0
 2549 0252 2D       		.uleb128 0x2d
 2550 0253 05       		.uleb128 0x5
 2551 0254 00       		.byte	0
 2552 0255 03       		.uleb128 0x3
 2553 0256 0E       		.uleb128 0xe
 2554 0257 3A       		.uleb128 0x3a
 2555 0258 0B       		.uleb128 0xb
 2556 0259 3B       		.uleb128 0x3b
 2557 025a 0B       		.uleb128 0xb
 2558 025b 49       		.uleb128 0x49
 2559 025c 13       		.uleb128 0x13
 2560 025d 00       		.byte	0
 2561 025e 00       		.byte	0
ARM GAS  /var/folders/t8/16hdwfmd2fg_d3q6dgx6bpmw0000gn/T//ccj951ho.s 			page 46


 2562 025f 2E       		.uleb128 0x2e
 2563 0260 2E       		.uleb128 0x2e
 2564 0261 00       		.byte	0
 2565 0262 03       		.uleb128 0x3
 2566 0263 0E       		.uleb128 0xe
 2567 0264 3A       		.uleb128 0x3a
 2568 0265 0B       		.uleb128 0xb
 2569 0266 3B       		.uleb128 0x3b
 2570 0267 0B       		.uleb128 0xb
 2571 0268 27       		.uleb128 0x27
 2572 0269 19       		.uleb128 0x19
 2573 026a 20       		.uleb128 0x20
 2574 026b 0B       		.uleb128 0xb
 2575 026c 00       		.byte	0
 2576 026d 00       		.byte	0
 2577 026e 2F       		.uleb128 0x2f
 2578 026f 2E       		.uleb128 0x2e
 2579 0270 00       		.byte	0
 2580 0271 3F       		.uleb128 0x3f
 2581 0272 19       		.uleb128 0x19
 2582 0273 3C       		.uleb128 0x3c
 2583 0274 19       		.uleb128 0x19
 2584 0275 6E       		.uleb128 0x6e
 2585 0276 0E       		.uleb128 0xe
 2586 0277 03       		.uleb128 0x3
 2587 0278 0E       		.uleb128 0xe
 2588 0279 3A       		.uleb128 0x3a
 2589 027a 0B       		.uleb128 0xb
 2590 027b 3B       		.uleb128 0x3b
 2591 027c 05       		.uleb128 0x5
 2592 027d 00       		.byte	0
 2593 027e 00       		.byte	0
 2594 027f 30       		.uleb128 0x30
 2595 0280 2E       		.uleb128 0x2e
 2596 0281 00       		.byte	0
 2597 0282 3F       		.uleb128 0x3f
 2598 0283 19       		.uleb128 0x19
 2599 0284 3C       		.uleb128 0x3c
 2600 0285 19       		.uleb128 0x19
 2601 0286 6E       		.uleb128 0x6e
 2602 0287 0E       		.uleb128 0xe
 2603 0288 03       		.uleb128 0x3
 2604 0289 0E       		.uleb128 0xe
 2605 028a 3A       		.uleb128 0x3a
 2606 028b 0B       		.uleb128 0xb
 2607 028c 3B       		.uleb128 0x3b
 2608 028d 0B       		.uleb128 0xb
 2609 028e 00       		.byte	0
 2610 028f 00       		.byte	0
 2611 0290 00       		.byte	0
 2612              		.section	.debug_loc,"",%progbits
 2613              	.Ldebug_loc0:
 2614              	.LLST0:
 2615 0000 00000000 		.4byte	.LVL2
 2616 0004 04000000 		.4byte	.LVL3
 2617 0008 0100     		.2byte	0x1
 2618 000a 50       		.byte	0x50
ARM GAS  /var/folders/t8/16hdwfmd2fg_d3q6dgx6bpmw0000gn/T//ccj951ho.s 			page 47


 2619 000b 04000000 		.4byte	.LVL3
 2620 000f 10000000 		.4byte	.LFE177
 2621 0013 0400     		.2byte	0x4
 2622 0015 F3       		.byte	0xf3
 2623 0016 01       		.uleb128 0x1
 2624 0017 50       		.byte	0x50
 2625 0018 9F       		.byte	0x9f
 2626 0019 00000000 		.4byte	0
 2627 001d 00000000 		.4byte	0
 2628              		.section	.debug_aranges,"",%progbits
 2629 0000 3C000000 		.4byte	0x3c
 2630 0004 0200     		.2byte	0x2
 2631 0006 00000000 		.4byte	.Ldebug_info0
 2632 000a 04       		.byte	0x4
 2633 000b 00       		.byte	0
 2634 000c 0000     		.2byte	0
 2635 000e 0000     		.2byte	0
 2636 0010 00000000 		.4byte	.LFB174
 2637 0014 08000000 		.4byte	.LFE174-.LFB174
 2638 0018 00000000 		.4byte	.LFB175
 2639 001c 02000000 		.4byte	.LFE175-.LFB175
 2640 0020 00000000 		.4byte	.LFB176
 2641 0024 02000000 		.4byte	.LFE176-.LFB176
 2642 0028 00000000 		.4byte	.LFB177
 2643 002c 10000000 		.4byte	.LFE177-.LFB177
 2644 0030 00000000 		.4byte	.LFB178
 2645 0034 10000000 		.4byte	.LFE178-.LFB178
 2646 0038 00000000 		.4byte	0
 2647 003c 00000000 		.4byte	0
 2648              		.section	.debug_ranges,"",%progbits
 2649              	.Ldebug_ranges0:
 2650 0000 00000000 		.4byte	.LFB174
 2651 0004 08000000 		.4byte	.LFE174
 2652 0008 00000000 		.4byte	.LFB175
 2653 000c 02000000 		.4byte	.LFE175
 2654 0010 00000000 		.4byte	.LFB176
 2655 0014 02000000 		.4byte	.LFE176
 2656 0018 00000000 		.4byte	.LFB177
 2657 001c 10000000 		.4byte	.LFE177
 2658 0020 00000000 		.4byte	.LFB178
 2659 0024 10000000 		.4byte	.LFE178
 2660 0028 00000000 		.4byte	0
 2661 002c 00000000 		.4byte	0
 2662              		.section	.debug_line,"",%progbits
 2663              	.Ldebug_line0:
 2664 0000 6F040000 		.section	.debug_str,"MS",%progbits,1
 2664      02001204 
 2664      00000201 
 2664      FB0E0D00 
 2664      01010101 
 2665              	.LASF185:
 2666 0000 7278636E 		.ascii	"rxcnt\000"
 2666      7400
 2667              	.LASF145:
 2668 0006 75736265 		.ascii	"usbep_t\000"
 2668      705F7400 
 2669              	.LASF54:
ARM GAS  /var/folders/t8/16hdwfmd2fg_d3q6dgx6bpmw0000gn/T//ccj951ho.s 			page 48


 2670 000e 72656164 		.ascii	"ready_list_t\000"
 2670      795F6C69 
 2670      73745F74 
 2670      00
 2671              	.LASF210:
 2672 001b 7374496E 		.ascii	"stInit\000"
 2672      697400
 2673              	.LASF2:
 2674 0022 73697A65 		.ascii	"size_t\000"
 2674      5F7400
 2675              	.LASF78:
 2676 0029 50544F52 		.ascii	"PTOR\000"
 2676      00
 2677              	.LASF86:
 2678 002e 7264796D 		.ascii	"rdymsg\000"
 2678      736700
 2679              	.LASF19:
 2680 0035 75696E74 		.ascii	"uint64_t\000"
 2680      36345F74 
 2680      00
 2681              	.LASF154:
 2682 003e 5553425F 		.ascii	"USB_EP0_TX\000"
 2682      4550305F 
 2682      545800
 2683              	.LASF3:
 2684 0049 5F5F7569 		.ascii	"__uint8_t\000"
 2684      6E74385F 
 2684      7400
 2685              	.LASF53:
 2686 0053 70726576 		.ascii	"prev\000"
 2686      00
 2687              	.LASF168:
 2688 0058 75736265 		.ascii	"usbevent_t\000"
 2688      76656E74 
 2688      5F7400
 2689              	.LASF65:
 2690 0063 73797374 		.ascii	"system_debug_t\000"
 2690      656D5F64 
 2690      65627567 
 2690      5F7400
 2691              	.LASF164:
 2692 0072 5553425F 		.ascii	"USB_EVENT_UNCONFIGURED\000"
 2692      4556454E 
 2692      545F554E 
 2692      434F4E46 
 2692      49475552 
 2693              	.LASF186:
 2694 0089 72786275 		.ascii	"rxbuf\000"
 2694      6600
 2695              	.LASF216:
 2696 008f 63685379 		.ascii	"chSysHalt\000"
 2696      7348616C 
 2696      7400
 2697              	.LASF14:
 2698 0099 6C6F6E67 		.ascii	"long long unsigned int\000"
 2698      206C6F6E 
 2698      6720756E 
ARM GAS  /var/folders/t8/16hdwfmd2fg_d3q6dgx6bpmw0000gn/T//ccj951ho.s 			page 49


 2698      7369676E 
 2698      65642069 
 2699              	.LASF87:
 2700 00b0 65786974 		.ascii	"exitcode\000"
 2700      636F6465 
 2700      00
 2701              	.LASF104:
 2702 00b9 74696D65 		.ascii	"timesize\000"
 2702      73697A65 
 2702      00
 2703              	.LASF77:
 2704 00c2 50434F52 		.ascii	"PCOR\000"
 2704      00
 2705              	.LASF90:
 2706 00c7 73656E74 		.ascii	"sentmsg\000"
 2706      6D736700 
 2707              	.LASF62:
 2708 00cf 76697274 		.ascii	"virtual_timers_list_t\000"
 2708      75616C5F 
 2708      74696D65 
 2708      72735F6C 
 2708      6973745F 
 2709              	.LASF187:
 2710 00e5 7278706B 		.ascii	"rxpkts\000"
 2710      747300
 2711              	.LASF146:
 2712 00ec 5553425F 		.ascii	"USB_UNINIT\000"
 2712      554E494E 
 2712      495400
 2713              	.LASF217:
 2714 00f7 73745F6C 		.ascii	"st_lld_init\000"
 2714      6C645F69 
 2714      6E697400 
 2715              	.LASF50:
 2716 0103 6E657874 		.ascii	"next\000"
 2716      00
 2717              	.LASF52:
 2718 0108 63685F74 		.ascii	"ch_threads_queue\000"
 2718      68726561 
 2718      64735F71 
 2718      75657565 
 2718      00
 2719              	.LASF171:
 2720 0119 55534244 		.ascii	"USBDescriptor\000"
 2720      65736372 
 2720      6970746F 
 2720      7200
 2721              	.LASF79:
 2722 0127 50444952 		.ascii	"PDIR\000"
 2722      00
 2723              	.LASF12:
 2724 012c 6C6F6E67 		.ascii	"long long int\000"
 2724      206C6F6E 
 2724      6720696E 
 2724      7400
 2725              	.LASF1:
 2726 013a 7369676E 		.ascii	"signed char\000"
ARM GAS  /var/folders/t8/16hdwfmd2fg_d3q6dgx6bpmw0000gn/T//ccj951ho.s 			page 50


 2726      65642063 
 2726      68617200 
 2727              	.LASF172:
 2728 0146 75736263 		.ascii	"usbcallback_t\000"
 2728      616C6C62 
 2728      61636B5F 
 2728      7400
 2729              	.LASF177:
 2730 0154 74787369 		.ascii	"txsize\000"
 2730      7A6500
 2731              	.LASF101:
 2732 015b 73697A65 		.ascii	"size\000"
 2732      00
 2733              	.LASF138:
 2734 0160 65703065 		.ascii	"ep0endcb\000"
 2734      6E646362 
 2734      00
 2735              	.LASF85:
 2736 0169 706F7274 		.ascii	"port_intctx\000"
 2736      5F696E74 
 2736      63747800 
 2737              	.LASF155:
 2738 0175 5553425F 		.ascii	"USB_EP0_WAITING_TX0\000"
 2738      4550305F 
 2738      57414954 
 2738      494E475F 
 2738      54583000 
 2739              	.LASF73:
 2740 0189 76746C69 		.ascii	"vtlist\000"
 2740      737400
 2741              	.LASF23:
 2742 0190 74736C69 		.ascii	"tslices_t\000"
 2742      6365735F 
 2742      7400
 2743              	.LASF159:
 2744 019a 5553425F 		.ascii	"USB_EP0_ERROR\000"
 2744      4550305F 
 2744      4552524F 
 2744      5200
 2745              	.LASF76:
 2746 01a8 50534F52 		.ascii	"PSOR\000"
 2746      00
 2747              	.LASF208:
 2748 01ad 73745374 		.ascii	"stStartAlarm\000"
 2748      61727441 
 2748      6C61726D 
 2748      00
 2749              	.LASF36:
 2750 01ba 73746174 		.ascii	"state\000"
 2750      6500
 2751              	.LASF134:
 2752 01c0 6F75745F 		.ascii	"out_params\000"
 2752      70617261 
 2752      6D7300
 2753              	.LASF9:
 2754 01cb 6C6F6E67 		.ascii	"long int\000"
 2754      20696E74 
ARM GAS  /var/folders/t8/16hdwfmd2fg_d3q6dgx6bpmw0000gn/T//ccj951ho.s 			page 51


 2754      00
 2755              	.LASF182:
 2756 01d4 64617461 		.ascii	"data_bank\000"
 2756      5F62616E 
 2756      6B00
 2757              	.LASF176:
 2758 01de 75736267 		.ascii	"usbgetdescriptor_t\000"
 2758      65746465 
 2758      73637269 
 2758      70746F72 
 2758      5F7400
 2759              	.LASF21:
 2760 01f1 74737461 		.ascii	"tstate_t\000"
 2760      74655F74 
 2760      00
 2761              	.LASF61:
 2762 01fa 66756E63 		.ascii	"func\000"
 2762      00
 2763              	.LASF192:
 2764 01ff 6F75745F 		.ascii	"out_cb\000"
 2764      636200
 2765              	.LASF32:
 2766 0206 6E657765 		.ascii	"newer\000"
 2766      7200
 2767              	.LASF174:
 2768 020c 75736265 		.ascii	"usbeventcb_t\000"
 2768      76656E74 
 2768      63625F74 
 2768      00
 2769              	.LASF166:
 2770 0219 5553425F 		.ascii	"USB_EVENT_WAKEUP\000"
 2770      4556454E 
 2770      545F5741 
 2770      4B455550 
 2770      00
 2771              	.LASF16:
 2772 022a 75696E74 		.ascii	"uint16_t\000"
 2772      31365F74 
 2772      00
 2773              	.LASF35:
 2774 0233 77616261 		.ascii	"wabase\000"
 2774      736500
 2775              	.LASF117:
 2776 023a 63686465 		.ascii	"chdebug_t\000"
 2776      6275675F 
 2776      7400
 2777              	.LASF115:
 2778 0244 6F66665F 		.ascii	"off_preempt\000"
 2778      70726565 
 2778      6D707400 
 2779              	.LASF156:
 2780 0250 5553425F 		.ascii	"USB_EP0_WAITING_STS\000"
 2780      4550305F 
 2780      57414954 
 2780      494E475F 
 2780      53545300 
 2781              	.LASF160:
ARM GAS  /var/folders/t8/16hdwfmd2fg_d3q6dgx6bpmw0000gn/T//ccj951ho.s 			page 52


 2782 0264 75736265 		.ascii	"usbep0state_t\000"
 2782      70307374 
 2782      6174655F 
 2782      7400
 2783              	.LASF81:
 2784 0272 4750494F 		.ascii	"GPIO_TypeDef\000"
 2784      5F547970 
 2784      65446566 
 2784      00
 2785              	.LASF211:
 2786 027f 73745F6C 		.ascii	"st_lld_is_alarm_active\000"
 2786      6C645F69 
 2786      735F616C 
 2786      61726D5F 
 2786      61637469 
 2787              	.LASF167:
 2788 0296 5553425F 		.ascii	"USB_EVENT_STALLED\000"
 2788      4556454E 
 2788      545F5354 
 2788      414C4C45 
 2788      4400
 2789              	.LASF82:
 2790 02a8 72656761 		.ascii	"regarm_t\000"
 2790      726D5F74 
 2790      00
 2791              	.LASF213:
 2792 02b1 73745F6C 		.ascii	"st_lld_set_alarm\000"
 2792      6C645F73 
 2792      65745F61 
 2792      6C61726D 
 2792      00
 2793              	.LASF66:
 2794 02c2 63685F73 		.ascii	"ch_system_debug\000"
 2794      79737465 
 2794      6D5F6465 
 2794      62756700 
 2795              	.LASF40:
 2796 02d2 77616974 		.ascii	"waiting\000"
 2796      696E6700 
 2797              	.LASF100:
 2798 02da 7A65726F 		.ascii	"zero\000"
 2798      00
 2799              	.LASF119:
 2800 02df 6D757465 		.ascii	"mutex_t\000"
 2800      785F7400 
 2801              	.LASF69:
 2802 02e7 6C6F636B 		.ascii	"lock_cnt\000"
 2802      5F636E74 
 2802      00
 2803              	.LASF27:
 2804 02f0 636E745F 		.ascii	"cnt_t\000"
 2804      7400
 2805              	.LASF41:
 2806 02f6 6D736771 		.ascii	"msgqueue\000"
 2806      75657565 
 2806      00
 2807              	.LASF0:
ARM GAS  /var/folders/t8/16hdwfmd2fg_d3q6dgx6bpmw0000gn/T//ccj951ho.s 			page 53


 2808 02ff 756E7369 		.ascii	"unsigned int\000"
 2808      676E6564 
 2808      20696E74 
 2808      00
 2809              	.LASF150:
 2810 030c 5553425F 		.ascii	"USB_ACTIVE\000"
 2810      41435449 
 2810      564500
 2811              	.LASF179:
 2812 0317 74786275 		.ascii	"txbuf\000"
 2812      6600
 2813              	.LASF169:
 2814 031d 75645F73 		.ascii	"ud_size\000"
 2814      697A6500 
 2815              	.LASF91:
 2816 0325 77747365 		.ascii	"wtsemp\000"
 2816      6D7000
 2817              	.LASF89:
 2818 032c 77747472 		.ascii	"wttrp\000"
 2818      7000
 2819              	.LASF147:
 2820 0332 5553425F 		.ascii	"USB_STOP\000"
 2820      53544F50 
 2820      00
 2821              	.LASF118:
 2822 033b 63685F64 		.ascii	"ch_debug\000"
 2822      65627567 
 2822      00
 2823              	.LASF34:
 2824 0344 6E616D65 		.ascii	"name\000"
 2824      00
 2825              	.LASF30:
 2826 0349 71756575 		.ascii	"queue\000"
 2826      6500
 2827              	.LASF131:
 2828 034f 7472616E 		.ascii	"transmitting\000"
 2828      736D6974 
 2828      74696E67 
 2828      00
 2829              	.LASF191:
 2830 035c 696E5F63 		.ascii	"in_cb\000"
 2830      6200
 2831              	.LASF45:
 2832 0362 6D706F6F 		.ascii	"mpool\000"
 2832      6C00
 2833              	.LASF180:
 2834 0368 74687265 		.ascii	"thread\000"
 2834      616400
 2835              	.LASF214:
 2836 036f 73745F6C 		.ascii	"st_lld_start_alarm\000"
 2836      6C645F73 
 2836      74617274 
 2836      5F616C61 
 2836      726D00
 2837              	.LASF114:
 2838 0382 6F66665F 		.ascii	"off_refs\000"
 2838      72656673 
ARM GAS  /var/folders/t8/16hdwfmd2fg_d3q6dgx6bpmw0000gn/T//ccj951ho.s 			page 54


 2838      00
 2839              	.LASF209:
 2840 038b 61627374 		.ascii	"abstime\000"
 2840      696D6500 
 2841              	.LASF200:
 2842 0393 6576656E 		.ascii	"event_cb\000"
 2842      745F6362 
 2842      00
 2843              	.LASF48:
 2844 039c 63685F74 		.ascii	"ch_thread\000"
 2844      68726561 
 2844      6400
 2845              	.LASF142:
 2846 03a6 636F6E66 		.ascii	"configuration\000"
 2846      69677572 
 2846      6174696F 
 2846      6E00
 2847              	.LASF74:
 2848 03b4 6D61696E 		.ascii	"mainthread\000"
 2848      74687265 
 2848      616400
 2849              	.LASF25:
 2850 03bf 6D73675F 		.ascii	"msg_t\000"
 2850      7400
 2851              	.LASF170:
 2852 03c5 75645F73 		.ascii	"ud_string\000"
 2852      7472696E 
 2852      6700
 2853              	.LASF220:
 2854 03cf 2F557365 		.ascii	"/Users/jpablobr/tmp/tmk/di0ib-tmk_keyboard/keyboard"
 2854      72732F6A 
 2854      7061626C 
 2854      6F62722F 
 2854      746D702F 
 2855 0402 2F746565 		.ascii	"/teensy_lc_menelaus\000"
 2855      6E73795F 
 2855      6C635F6D 
 2855      656E656C 
 2855      61757300 
 2856              	.LASF42:
 2857 0416 6570656E 		.ascii	"epending\000"
 2857      64696E67 
 2857      00
 2858              	.LASF152:
 2859 041f 75736273 		.ascii	"usbstate_t\000"
 2859      74617465 
 2859      5F7400
 2860              	.LASF175:
 2861 042a 75736272 		.ascii	"usbreqhandler_t\000"
 2861      65716861 
 2861      6E646C65 
 2861      725F7400 
 2862              	.LASF107:
 2863 043a 6F66665F 		.ascii	"off_ctx\000"
 2863      63747800 
 2864              	.LASF20:
 2865 0442 746D6F64 		.ascii	"tmode_t\000"
ARM GAS  /var/folders/t8/16hdwfmd2fg_d3q6dgx6bpmw0000gn/T//ccj951ho.s 			page 55


 2865      655F7400 
 2866              	.LASF64:
 2867 044a 73797374 		.ascii	"systime\000"
 2867      696D6500 
 2868              	.LASF55:
 2869 0452 63685F72 		.ascii	"ch_ready_list\000"
 2869      65616479 
 2869      5F6C6973 
 2869      7400
 2870              	.LASF26:
 2871 0460 6576656E 		.ascii	"eventmask_t\000"
 2871      746D6173 
 2871      6B5F7400 
 2872              	.LASF132:
 2873 046c 72656365 		.ascii	"receiving\000"
 2873      6976696E 
 2873      6700
 2874              	.LASF8:
 2875 0476 5F5F696E 		.ascii	"__int32_t\000"
 2875      7433325F 
 2875      7400
 2876              	.LASF202:
 2877 0480 72657175 		.ascii	"requests_hook_cb\000"
 2877      65737473 
 2877      5F686F6F 
 2877      6B5F6362 
 2877      00
 2878              	.LASF83:
 2879 0491 73746B61 		.ascii	"stkalign_t\000"
 2879      6C69676E 
 2879      5F7400
 2880              	.LASF205:
 2881 049c 55534244 		.ascii	"USBD1\000"
 2881      3100
 2882              	.LASF194:
 2883 04a2 6F75745F 		.ascii	"out_maxsize\000"
 2883      6D617873 
 2883      697A6500 
 2884              	.LASF80:
 2885 04ae 50444452 		.ascii	"PDDR\000"
 2885      00
 2886              	.LASF44:
 2887 04b3 7265616C 		.ascii	"realprio\000"
 2887      7072696F 
 2887      00
 2888              	.LASF102:
 2889 04bc 76657273 		.ascii	"version\000"
 2889      696F6E00 
 2890              	.LASF158:
 2891 04c4 5553425F 		.ascii	"USB_EP0_SENDING_STS\000"
 2891      4550305F 
 2891      53454E44 
 2891      494E475F 
 2891      53545300 
 2892              	.LASF46:
 2893 04d8 74687265 		.ascii	"thread_reference_t\000"
 2893      61645F72 
ARM GAS  /var/folders/t8/16hdwfmd2fg_d3q6dgx6bpmw0000gn/T//ccj951ho.s 			page 56


 2893      65666572 
 2893      656E6365 
 2893      5F7400
 2894              	.LASF126:
 2895 04eb 706F7274 		.ascii	"ports\000"
 2895      7300
 2896              	.LASF63:
 2897 04f1 63685F76 		.ascii	"ch_virtual_timers_list\000"
 2897      69727475 
 2897      616C5F74 
 2897      696D6572 
 2897      735F6C69 
 2898              	.LASF141:
 2899 0508 61646472 		.ascii	"address\000"
 2899      65737300 
 2900              	.LASF196:
 2901 0510 6F75745F 		.ascii	"out_state\000"
 2901      73746174 
 2901      6500
 2902              	.LASF108:
 2903 051a 6F66665F 		.ascii	"off_newer\000"
 2903      6E657765 
 2903      7200
 2904              	.LASF198:
 2905 0524 73657475 		.ascii	"setup_buf\000"
 2905      705F6275 
 2905      6600
 2906              	.LASF75:
 2907 052e 50444F52 		.ascii	"PDOR\000"
 2907      00
 2908              	.LASF188:
 2909 0533 5553424F 		.ascii	"USBOutEndpointState\000"
 2909      7574456E 
 2909      64706F69 
 2909      6E745374 
 2909      61746500 
 2910              	.LASF84:
 2911 0547 706F7274 		.ascii	"port_context\000"
 2911      5F636F6E 
 2911      74657874 
 2911      00
 2912              	.LASF139:
 2913 0554 73657475 		.ascii	"setup\000"
 2913      7000
 2914              	.LASF215:
 2915 055a 74696D65 		.ascii	"time\000"
 2915      00
 2916              	.LASF125:
 2917 055f 506F7274 		.ascii	"PortConfig\000"
 2917      436F6E66 
 2917      696700
 2918              	.LASF31:
 2919 056a 7072696F 		.ascii	"prio\000"
 2919      00
 2920              	.LASF161:
 2921 056f 5553425F 		.ascii	"USB_EVENT_RESET\000"
 2921      4556454E 
ARM GAS  /var/folders/t8/16hdwfmd2fg_d3q6dgx6bpmw0000gn/T//ccj951ho.s 			page 57


 2921      545F5245 
 2921      53455400 
 2922              	.LASF203:
 2923 057f 736F665F 		.ascii	"sof_cb\000"
 2923      636200
 2924              	.LASF56:
 2925 0586 63757272 		.ascii	"current\000"
 2925      656E7400 
 2926              	.LASF199:
 2927 058e 55534245 		.ascii	"USBEndpointConfig\000"
 2927      6E64706F 
 2927      696E7443 
 2927      6F6E6669 
 2927      6700
 2928              	.LASF13:
 2929 05a0 5F5F7569 		.ascii	"__uint64_t\000"
 2929      6E743634 
 2929      5F7400
 2930              	.LASF218:
 2931 05ab 474E5520 		.ascii	"GNU C99 7.2.1 20170904 (release) [ARM/embedded-7-br"
 2931      43393920 
 2931      372E322E 
 2931      31203230 
 2931      31373039 
 2932 05de 616E6368 		.ascii	"anch revision 255204] -mcpu=cortex-m0plus -mno-thum"
 2932      20726576 
 2932      6973696F 
 2932      6E203235 
 2932      35323034 
 2933 0611 622D696E 		.ascii	"b-interwork -mthumb -ggdb -O2 -std=gnu99 -fomit-fra"
 2933      74657277 
 2933      6F726B20 
 2933      2D6D7468 
 2933      756D6220 
 2934 0644 6D652D70 		.ascii	"me-pointer -falign-functions=16 -ffunction-sections"
 2934      6F696E74 
 2934      6572202D 
 2934      66616C69 
 2934      676E2D66 
 2935 0677 202D6664 		.ascii	" -fdata-sections -fno-common\000"
 2935      6174612D 
 2935      73656374 
 2935      696F6E73 
 2935      202D666E 
 2936              	.LASF144:
 2937 0694 706D6E65 		.ascii	"pmnext\000"
 2937      787400
 2938              	.LASF123:
 2939 069b 706F7274 		.ascii	"port\000"
 2939      00
 2940              	.LASF197:
 2941 06a0 65705F62 		.ascii	"ep_buffers\000"
 2941      75666665 
 2941      727300
 2942              	.LASF162:
 2943 06ab 5553425F 		.ascii	"USB_EVENT_ADDRESS\000"
 2943      4556454E 
ARM GAS  /var/folders/t8/16hdwfmd2fg_d3q6dgx6bpmw0000gn/T//ccj951ho.s 			page 58


 2943      545F4144 
 2943      44524553 
 2943      5300
 2944              	.LASF38:
 2945 06bd 72656673 		.ascii	"refs\000"
 2945      00
 2946              	.LASF58:
 2947 06c2 76697274 		.ascii	"virtual_timer_t\000"
 2947      75616C5F 
 2947      74696D65 
 2947      725F7400 
 2948              	.LASF181:
 2949 06d2 6F64645F 		.ascii	"odd_even\000"
 2949      6576656E 
 2949      00
 2950              	.LASF190:
 2951 06db 73657475 		.ascii	"setup_cb\000"
 2951      705F6362 
 2951      00
 2952              	.LASF24:
 2953 06e4 74707269 		.ascii	"tprio_t\000"
 2953      6F5F7400 
 2954              	.LASF193:
 2955 06ec 696E5F6D 		.ascii	"in_maxsize\000"
 2955      61787369 
 2955      7A6500
 2956              	.LASF148:
 2957 06f7 5553425F 		.ascii	"USB_READY\000"
 2957      52454144 
 2957      5900
 2958              	.LASF137:
 2959 0701 6570306E 		.ascii	"ep0n\000"
 2959      00
 2960              	.LASF105:
 2961 0706 74687265 		.ascii	"threadsize\000"
 2961      61647369 
 2961      7A6500
 2962              	.LASF120:
 2963 0711 5F426F6F 		.ascii	"_Bool\000"
 2963      6C00
 2964              	.LASF17:
 2965 0717 696E7433 		.ascii	"int32_t\000"
 2965      325F7400 
 2966              	.LASF4:
 2967 071f 756E7369 		.ascii	"unsigned char\000"
 2967      676E6564 
 2967      20636861 
 2967      7200
 2968              	.LASF106:
 2969 072d 6F66665F 		.ascii	"off_prio\000"
 2969      7072696F 
 2969      00
 2970              	.LASF111:
 2971 0736 6F66665F 		.ascii	"off_stklimit\000"
 2971      73746B6C 
 2971      696D6974 
 2971      00
ARM GAS  /var/folders/t8/16hdwfmd2fg_d3q6dgx6bpmw0000gn/T//ccj951ho.s 			page 59


 2972              	.LASF136:
 2973 0743 6570306E 		.ascii	"ep0next\000"
 2973      65787400 
 2974              	.LASF5:
 2975 074b 73686F72 		.ascii	"short int\000"
 2975      7420696E 
 2975      7400
 2976              	.LASF110:
 2977 0755 6F66665F 		.ascii	"off_name\000"
 2977      6E616D65 
 2977      00
 2978              	.LASF93:
 2979 075e 65776D61 		.ascii	"ewmask\000"
 2979      736B00
 2980              	.LASF71:
 2981 0765 63685F73 		.ascii	"ch_system\000"
 2981      79737465 
 2981      6D00
 2982              	.LASF15:
 2983 076f 75696E74 		.ascii	"uint8_t\000"
 2983      385F7400 
 2984              	.LASF206:
 2985 0777 5F5F6675 		.ascii	"__func__\000"
 2985      6E635F5F 
 2985      00
 2986              	.LASF143:
 2987 0780 73617665 		.ascii	"saved_state\000"
 2987      645F7374 
 2987      61746500 
 2988              	.LASF59:
 2989 078c 63685F76 		.ascii	"ch_virtual_timer\000"
 2989      69727475 
 2989      616C5F74 
 2989      696D6572 
 2989      00
 2990              	.LASF212:
 2991 079d 73745F6C 		.ascii	"st_lld_get_alarm\000"
 2991      6C645F67 
 2991      65745F61 
 2991      6C61726D 
 2991      00
 2992              	.LASF94:
 2993 07ae 63685F73 		.ascii	"ch_semaphore\000"
 2993      656D6170 
 2993      686F7265 
 2993      00
 2994              	.LASF116:
 2995 07bb 6F66665F 		.ascii	"off_time\000"
 2995      74696D65 
 2995      00
 2996              	.LASF98:
 2997 07c4 63685F69 		.ascii	"ch_idle_thread_wa\000"
 2997      646C655F 
 2997      74687265 
 2997      61645F77 
 2997      6100
 2998              	.LASF201:
ARM GAS  /var/folders/t8/16hdwfmd2fg_d3q6dgx6bpmw0000gn/T//ccj951ho.s 			page 60


 2999 07d6 6765745F 		.ascii	"get_descriptor_cb\000"
 2999      64657363 
 2999      72697074 
 2999      6F725F63 
 2999      6200
 3000              	.LASF165:
 3001 07e8 5553425F 		.ascii	"USB_EVENT_SUSPEND\000"
 3001      4556454E 
 3001      545F5355 
 3001      5350454E 
 3001      4400
 3002              	.LASF135:
 3003 07fa 65703073 		.ascii	"ep0state\000"
 3003      74617465 
 3003      00
 3004              	.LASF204:
 3005 0803 55534243 		.ascii	"USBConfig\000"
 3005      6F6E6669 
 3005      6700
 3006              	.LASF92:
 3007 080d 77746D74 		.ascii	"wtmtxp\000"
 3007      787000
 3008              	.LASF22:
 3009 0814 74726566 		.ascii	"trefs_t\000"
 3009      735F7400 
 3010              	.LASF49:
 3011 081c 63685F74 		.ascii	"ch_threads_list\000"
 3011      68726561 
 3011      64735F6C 
 3011      69737400 
 3012              	.LASF96:
 3013 082c 6F776E65 		.ascii	"owner\000"
 3013      7200
 3014              	.LASF11:
 3015 0832 6C6F6E67 		.ascii	"long unsigned int\000"
 3015      20756E73 
 3015      69676E65 
 3015      6420696E 
 3015      7400
 3016              	.LASF195:
 3017 0844 696E5F73 		.ascii	"in_state\000"
 3017      74617465 
 3017      00
 3018              	.LASF222:
 3019 084d 73745374 		.ascii	"stStopAlarm\000"
 3019      6F70416C 
 3019      61726D00 
 3020              	.LASF97:
 3021 0859 63686172 		.ascii	"char\000"
 3021      00
 3022              	.LASF33:
 3023 085e 6F6C6465 		.ascii	"older\000"
 3023      7200
 3024              	.LASF130:
 3025 0864 636F6E66 		.ascii	"config\000"
 3025      696700
 3026              	.LASF6:
ARM GAS  /var/folders/t8/16hdwfmd2fg_d3q6dgx6bpmw0000gn/T//ccj951ho.s 			page 61


 3027 086b 5F5F7569 		.ascii	"__uint16_t\000"
 3027      6E743136 
 3027      5F7400
 3028              	.LASF29:
 3029 0876 74687265 		.ascii	"thread_t\000"
 3029      61645F74 
 3029      00
 3030              	.LASF157:
 3031 087f 5553425F 		.ascii	"USB_EP0_RX\000"
 3031      4550305F 
 3031      525800
 3032              	.LASF28:
 3033 088a 73797374 		.ascii	"systime_t\000"
 3033      696D655F 
 3033      7400
 3034              	.LASF57:
 3035 0894 76746675 		.ascii	"vtfunc_t\000"
 3035      6E635F74 
 3035      00
 3036              	.LASF10:
 3037 089d 5F5F7569 		.ascii	"__uint32_t\000"
 3037      6E743332 
 3037      5F7400
 3038              	.LASF163:
 3039 08a8 5553425F 		.ascii	"USB_EVENT_CONFIGURED\000"
 3039      4556454E 
 3039      545F434F 
 3039      4E464947 
 3039      55524544 
 3040              	.LASF67:
 3041 08bd 70616E69 		.ascii	"panic_msg\000"
 3041      635F6D73 
 3041      6700
 3042              	.LASF153:
 3043 08c7 5553425F 		.ascii	"USB_EP0_WAITING_SETUP\000"
 3043      4550305F 
 3043      57414954 
 3043      494E475F 
 3043      53455455 
 3044              	.LASF122:
 3045 08dd 696F706F 		.ascii	"ioportid_t\000"
 3045      72746964 
 3045      5F7400
 3046              	.LASF109:
 3047 08e8 6F66665F 		.ascii	"off_older\000"
 3047      6F6C6465 
 3047      7200
 3048              	.LASF7:
 3049 08f2 73686F72 		.ascii	"short unsigned int\000"
 3049      7420756E 
 3049      7369676E 
 3049      65642069 
 3049      6E7400
 3050              	.LASF70:
 3051 0905 63685F73 		.ascii	"ch_system_t\000"
 3051      79737465 
 3051      6D5F7400 
ARM GAS  /var/folders/t8/16hdwfmd2fg_d3q6dgx6bpmw0000gn/T//ccj951ho.s 			page 62


 3052              	.LASF99:
 3053 0911 6964656E 		.ascii	"identifier\000"
 3053      74696669 
 3053      657200
 3054              	.LASF223:
 3055 091c 73745F6C 		.ascii	"st_lld_stop_alarm\000"
 3055      6C645F73 
 3055      746F705F 
 3055      616C6172 
 3055      6D00
 3056              	.LASF189:
 3057 092e 65705F6D 		.ascii	"ep_mode\000"
 3057      6F646500 
 3058              	.LASF178:
 3059 0936 7478636E 		.ascii	"txcnt\000"
 3059      7400
 3060              	.LASF18:
 3061 093c 75696E74 		.ascii	"uint32_t\000"
 3061      33325F74 
 3061      00
 3062              	.LASF103:
 3063 0945 70747273 		.ascii	"ptrsize\000"
 3063      697A6500 
 3064              	.LASF51:
 3065 094d 74687265 		.ascii	"threads_queue_t\000"
 3065      6164735F 
 3065      71756575 
 3065      655F7400 
 3066              	.LASF95:
 3067 095d 63685F6D 		.ascii	"ch_mutex\000"
 3067      75746578 
 3067      00
 3068              	.LASF68:
 3069 0966 6973725F 		.ascii	"isr_cnt\000"
 3069      636E7400 
 3070              	.LASF140:
 3071 096e 73746174 		.ascii	"status\000"
 3071      757300
 3072              	.LASF173:
 3073 0975 75736265 		.ascii	"usbepcallback_t\000"
 3073      7063616C 
 3073      6C626163 
 3073      6B5F7400 
 3074              	.LASF183:
 3075 0985 55534249 		.ascii	"USBInEndpointState\000"
 3075      6E456E64 
 3075      706F696E 
 3075      74537461 
 3075      746500
 3076              	.LASF72:
 3077 0998 726C6973 		.ascii	"rlist\000"
 3077      7400
 3078              	.LASF129:
 3079 099e 55534244 		.ascii	"USBDriver\000"
 3079      72697665 
 3079      7200
 3080              	.LASF207:
ARM GAS  /var/folders/t8/16hdwfmd2fg_d3q6dgx6bpmw0000gn/T//ccj951ho.s 			page 63


 3081 09a8 73745365 		.ascii	"stSetAlarm\000"
 3081      74416C61 
 3081      726D00
 3082              	.LASF149:
 3083 09b3 5553425F 		.ascii	"USB_SELECTED\000"
 3083      53454C45 
 3083      43544544 
 3083      00
 3084              	.LASF184:
 3085 09c0 72787369 		.ascii	"rxsize\000"
 3085      7A6500
 3086              	.LASF37:
 3087 09c7 666C6167 		.ascii	"flags\000"
 3087      7300
 3088              	.LASF133:
 3089 09cd 696E5F70 		.ascii	"in_params\000"
 3089      6172616D 
 3089      7300
 3090              	.LASF221:
 3091 09d7 73744765 		.ascii	"stGetAlarm\000"
 3091      74416C61 
 3091      726D00
 3092              	.LASF88:
 3093 09e2 77746F62 		.ascii	"wtobjp\000"
 3093      6A7000
 3094              	.LASF219:
 3095 09e9 2E2E2F2E 		.ascii	"../../tmk_core/tool/chibios/ChibiOS/os/hal/src/hal_"
 3095      2E2F746D 
 3095      6B5F636F 
 3095      72652F74 
 3095      6F6F6C2F 
 3096 0a1c 73742E63 		.ascii	"st.c\000"
 3096      00
 3097              	.LASF47:
 3098 0a21 74687265 		.ascii	"threads_list_t\000"
 3098      6164735F 
 3098      6C697374 
 3098      5F7400
 3099              	.LASF112:
 3100 0a30 6F66665F 		.ascii	"off_state\000"
 3100      73746174 
 3100      6500
 3101              	.LASF60:
 3102 0a3a 64656C74 		.ascii	"delta\000"
 3102      6100
 3103              	.LASF113:
 3104 0a40 6F66665F 		.ascii	"off_flags\000"
 3104      666C6167 
 3104      7300
 3105              	.LASF151:
 3106 0a4a 5553425F 		.ascii	"USB_SUSPENDED\000"
 3106      53555350 
 3106      454E4445 
 3106      4400
 3107              	.LASF43:
 3108 0a58 6D74786C 		.ascii	"mtxlist\000"
 3108      69737400 
ARM GAS  /var/folders/t8/16hdwfmd2fg_d3q6dgx6bpmw0000gn/T//ccj951ho.s 			page 64


 3109              	.LASF121:
 3110 0a60 696F6D6F 		.ascii	"iomode_t\000"
 3110      64655F74 
 3110      00
 3111              	.LASF127:
 3112 0a69 50414C43 		.ascii	"PALConfig\000"
 3112      6F6E6669 
 3112      6700
 3113              	.LASF39:
 3114 0a73 70726565 		.ascii	"preempt\000"
 3114      6D707400 
 3115              	.LASF128:
 3116 0a7b 70616C5F 		.ascii	"pal_default_config\000"
 3116      64656661 
 3116      756C745F 
 3116      636F6E66 
 3116      696700
 3117              	.LASF124:
 3118 0a8e 70616473 		.ascii	"pads\000"
 3118      00
 3119              		.ident	"GCC: (GNU Tools for Arm Embedded Processors 7-2017-q4-major) 7.2.1 20170904 (release) [ARM
ARM GAS  /var/folders/t8/16hdwfmd2fg_d3q6dgx6bpmw0000gn/T//ccj951ho.s 			page 65


DEFINED SYMBOLS
                            *ABS*:0000000000000000 hal_st.c
/var/folders/t8/16hdwfmd2fg_d3q6dgx6bpmw0000gn/T//ccj951ho.s:16     .text.stInit:0000000000000000 $t
/var/folders/t8/16hdwfmd2fg_d3q6dgx6bpmw0000gn/T//ccj951ho.s:24     .text.stInit:0000000000000000 stInit
/var/folders/t8/16hdwfmd2fg_d3q6dgx6bpmw0000gn/T//ccj951ho.s:45     .text.stStartAlarm:0000000000000000 $t
/var/folders/t8/16hdwfmd2fg_d3q6dgx6bpmw0000gn/T//ccj951ho.s:53     .text.stStartAlarm:0000000000000000 stStartAlarm
/var/folders/t8/16hdwfmd2fg_d3q6dgx6bpmw0000gn/T//ccj951ho.s:68     .text.stStopAlarm:0000000000000000 $t
/var/folders/t8/16hdwfmd2fg_d3q6dgx6bpmw0000gn/T//ccj951ho.s:76     .text.stStopAlarm:0000000000000000 stStopAlarm
/var/folders/t8/16hdwfmd2fg_d3q6dgx6bpmw0000gn/T//ccj951ho.s:90     .text.stSetAlarm:0000000000000000 $t
/var/folders/t8/16hdwfmd2fg_d3q6dgx6bpmw0000gn/T//ccj951ho.s:98     .text.stSetAlarm:0000000000000000 stSetAlarm
/var/folders/t8/16hdwfmd2fg_d3q6dgx6bpmw0000gn/T//ccj951ho.s:120    .text.stSetAlarm:000000000000000c $d
/var/folders/t8/16hdwfmd2fg_d3q6dgx6bpmw0000gn/T//ccj951ho.s:125    .text.stGetAlarm:0000000000000000 $t
/var/folders/t8/16hdwfmd2fg_d3q6dgx6bpmw0000gn/T//ccj951ho.s:133    .text.stGetAlarm:0000000000000000 stGetAlarm
/var/folders/t8/16hdwfmd2fg_d3q6dgx6bpmw0000gn/T//ccj951ho.s:154    .text.stGetAlarm:000000000000000c $d
/var/folders/t8/16hdwfmd2fg_d3q6dgx6bpmw0000gn/T//ccj951ho.s:159    .rodata.__func__.6430:0000000000000000 $d
/var/folders/t8/16hdwfmd2fg_d3q6dgx6bpmw0000gn/T//ccj951ho.s:163    .rodata.__func__.6430:0000000000000000 __func__.6430
/var/folders/t8/16hdwfmd2fg_d3q6dgx6bpmw0000gn/T//ccj951ho.s:166    .rodata.__func__.6434:0000000000000000 $d
/var/folders/t8/16hdwfmd2fg_d3q6dgx6bpmw0000gn/T//ccj951ho.s:170    .rodata.__func__.6434:0000000000000000 __func__.6434

UNDEFINED SYMBOLS
st_lld_init
chSysHalt
