ARM GAS  /var/folders/t8/16hdwfmd2fg_d3q6dgx6bpmw0000gn/T//cc9oHqFa.s 			page 1


   1              		.cpu cortex-m0plus
   2              		.eabi_attribute 20, 1
   3              		.eabi_attribute 21, 1
   4              		.eabi_attribute 23, 3
   5              		.eabi_attribute 24, 1
   6              		.eabi_attribute 25, 1
   7              		.eabi_attribute 26, 1
   8              		.eabi_attribute 30, 2
   9              		.eabi_attribute 34, 0
  10              		.eabi_attribute 18, 4
  11              		.file	"hal_pal.c"
  12              		.text
  13              	.Ltext0:
  14              		.cfi_sections	.debug_frame
  15              		.section	.text.palReadBus,"ax",%progbits
  16              		.align	1
  17              		.p2align 4,,15
  18              		.global	palReadBus
  19              		.syntax unified
  20              		.code	16
  21              		.thumb_func
  22              		.fpu softvfp
  23              		.type	palReadBus, %function
  24              	palReadBus:
  25              	.LFB174:
  26              		.file 1 "../../tmk_core/tool/chibios/ChibiOS/os/hal/src/hal_pal.c"
  27              		.loc 1 65 0
  28              		.cfi_startproc
  29              		@ args = 0, pretend = 0, frame = 0
  30              		@ frame_needed = 0, uses_anonymous_args = 0
  31              	.LVL0:
  32 0000 10B5     		push	{r4, lr}
  33              		.cfi_def_cfa_offset 8
  34              		.cfi_offset 4, -8
  35              		.cfi_offset 14, -4
  36              		.loc 1 67 0
  37 0002 0028     		cmp	r0, #0
  38 0004 02D0     		beq	.L2
  39              		.loc 1 67 0 is_stmt 0 discriminator 3
  40 0006 8368     		ldr	r3, [r0, #8]
  41 0008 1F2B     		cmp	r3, #31
  42 000a 02D9     		bls	.L3
  43              	.L2:
  44              		.loc 1 67 0 discriminator 4
  45 000c 0248     		ldr	r0, .L8
  46              	.LVL1:
  47 000e FFF7FEFF 		bl	chSysHalt
  48              	.LVL2:
  49              	.L3:
  50              		.loc 1 70 0 is_stmt 1
  51 0012 0020     		movs	r0, #0
  52              		@ sp needed
  53 0014 10BD     		pop	{r4, pc}
  54              	.L9:
  55 0016 C046     		.align	2
  56              	.L8:
  57 0018 00000000 		.word	.LANCHOR0
ARM GAS  /var/folders/t8/16hdwfmd2fg_d3q6dgx6bpmw0000gn/T//cc9oHqFa.s 			page 2


  58              		.cfi_endproc
  59              	.LFE174:
  60              		.size	palReadBus, .-palReadBus
  61              		.section	.text.palWriteBus,"ax",%progbits
  62              		.align	1
  63              		.p2align 4,,15
  64              		.global	palWriteBus
  65              		.syntax unified
  66              		.code	16
  67              		.thumb_func
  68              		.fpu softvfp
  69              		.type	palWriteBus, %function
  70              	palWriteBus:
  71              	.LFB175:
  72              		.loc 1 90 0
  73              		.cfi_startproc
  74              		@ args = 0, pretend = 0, frame = 0
  75              		@ frame_needed = 0, uses_anonymous_args = 0
  76              	.LVL3:
  77 0000 10B5     		push	{r4, lr}
  78              		.cfi_def_cfa_offset 8
  79              		.cfi_offset 4, -8
  80              		.cfi_offset 14, -4
  81              		.loc 1 92 0
  82 0002 0028     		cmp	r0, #0
  83 0004 02D0     		beq	.L11
  84              		.loc 1 92 0 is_stmt 0 discriminator 3
  85 0006 8368     		ldr	r3, [r0, #8]
  86 0008 1F2B     		cmp	r3, #31
  87 000a 02D9     		bls	.L10
  88              	.L11:
  89              		.loc 1 92 0 discriminator 4
  90 000c 0148     		ldr	r0, .L16
  91              	.LVL4:
  92 000e FFF7FEFF 		bl	chSysHalt
  93              	.LVL5:
  94              	.L10:
  95              		.loc 1 95 0 is_stmt 1
  96              		@ sp needed
  97 0012 10BD     		pop	{r4, pc}
  98              	.L17:
  99              		.align	2
 100              	.L16:
 101 0014 00000000 		.word	.LANCHOR1
 102              		.cfi_endproc
 103              	.LFE175:
 104              		.size	palWriteBus, .-palWriteBus
 105              		.section	.text.palSetBusMode,"ax",%progbits
 106              		.align	1
 107              		.p2align 4,,15
 108              		.global	palSetBusMode
 109              		.syntax unified
 110              		.code	16
 111              		.thumb_func
 112              		.fpu softvfp
 113              		.type	palSetBusMode, %function
 114              	palSetBusMode:
ARM GAS  /var/folders/t8/16hdwfmd2fg_d3q6dgx6bpmw0000gn/T//cc9oHqFa.s 			page 3


 115              	.LFB176:
 116              		.loc 1 113 0
 117              		.cfi_startproc
 118              		@ args = 0, pretend = 0, frame = 0
 119              		@ frame_needed = 0, uses_anonymous_args = 0
 120              	.LVL6:
 121 0000 70B5     		push	{r4, r5, r6, lr}
 122              		.cfi_def_cfa_offset 16
 123              		.cfi_offset 4, -16
 124              		.cfi_offset 5, -12
 125              		.cfi_offset 6, -8
 126              		.cfi_offset 14, -4
 127              		.loc 1 113 0
 128 0002 0400     		movs	r4, r0
 129 0004 0D00     		movs	r5, r1
 130              		.loc 1 115 0
 131 0006 0028     		cmp	r0, #0
 132 0008 02D0     		beq	.L19
 133              		.loc 1 115 0 is_stmt 0 discriminator 3
 134 000a 8368     		ldr	r3, [r0, #8]
 135 000c 1F2B     		cmp	r3, #31
 136 000e 03D9     		bls	.L20
 137              	.L19:
 138              		.loc 1 115 0 discriminator 4
 139 0010 0548     		ldr	r0, .L24
 140              	.LVL7:
 141 0012 FFF7FEFF 		bl	chSysHalt
 142              	.LVL8:
 143 0016 A368     		ldr	r3, [r4, #8]
 144              	.L20:
 145              		.loc 1 117 0 is_stmt 1
 146 0018 6168     		ldr	r1, [r4, #4]
 147 001a 2A00     		movs	r2, r5
 148 001c 9940     		lsls	r1, r1, r3
 149 001e 2068     		ldr	r0, [r4]
 150 0020 FFF7FEFF 		bl	_pal_lld_setgroupmode
 151              	.LVL9:
 152              		.loc 1 118 0
 153              		@ sp needed
 154              	.LVL10:
 155              	.LVL11:
 156 0024 70BD     		pop	{r4, r5, r6, pc}
 157              	.L25:
 158 0026 C046     		.align	2
 159              	.L24:
 160 0028 00000000 		.word	.LANCHOR2
 161              		.cfi_endproc
 162              	.LFE176:
 163              		.size	palSetBusMode, .-palSetBusMode
 164              		.section	.rodata.__func__.6420,"a",%progbits
 165              		.align	2
 166              		.set	.LANCHOR0,. + 0
 167              		.type	__func__.6420, %object
 168              		.size	__func__.6420, 11
 169              	__func__.6420:
 170 0000 70616C52 		.ascii	"palReadBus\000"
 170      65616442 
ARM GAS  /var/folders/t8/16hdwfmd2fg_d3q6dgx6bpmw0000gn/T//cc9oHqFa.s 			page 4


 170      757300
 171              		.section	.rodata.__func__.6425,"a",%progbits
 172              		.align	2
 173              		.set	.LANCHOR1,. + 0
 174              		.type	__func__.6425, %object
 175              		.size	__func__.6425, 12
 176              	__func__.6425:
 177 0000 70616C57 		.ascii	"palWriteBus\000"
 177      72697465 
 177      42757300 
 178              		.section	.rodata.__func__.6430,"a",%progbits
 179              		.align	2
 180              		.set	.LANCHOR2,. + 0
 181              		.type	__func__.6430, %object
 182              		.size	__func__.6430, 14
 183              	__func__.6430:
 184 0000 70616C53 		.ascii	"palSetBusMode\000"
 184      65744275 
 184      734D6F64 
 184      6500
 185              		.text
 186              	.Letext0:
 187              		.file 2 "/usr/local/Caskroom/gcc-arm-embedded/7-2017-q4-major/gcc-arm-none-eabi-7-2017-q4-major/li
 188              		.file 3 "/usr/local/Caskroom/gcc-arm-embedded/7-2017-q4-major/gcc-arm-none-eabi-7-2017-q4-major/ar
 189              		.file 4 "/usr/local/Caskroom/gcc-arm-embedded/7-2017-q4-major/gcc-arm-none-eabi-7-2017-q4-major/ar
 190              		.file 5 "/usr/local/Caskroom/gcc-arm-embedded/7-2017-q4-major/gcc-arm-none-eabi-7-2017-q4-major/ar
 191              		.file 6 "../../tmk_core/tool/chibios/ChibiOS/os/common/ports/ARMCMx/compilers/GCC/chtypes.h"
 192              		.file 7 "../../tmk_core/tool/chibios/ChibiOS/os/rt/include/chsystypes.h"
 193              		.file 8 "../../tmk_core/tool/chibios/ChibiOS/os/rt/include/chschd.h"
 194              		.file 9 "../../tmk_core/tool/chibios/ChibiOS-Contrib/os/common/ext/CMSIS/KINETIS/kl2xz.h"
 195              		.file 10 "../../tmk_core/tool/chibios/ChibiOS/os/common/ports/ARMCMx/chcore.h"
 196              		.file 11 "../../tmk_core/tool/chibios/ChibiOS/os/common/ports/ARMCMx/chcore_v6m.h"
 197              		.file 12 "../../tmk_core/tool/chibios/ChibiOS/os/rt/include/chsem.h"
 198              		.file 13 "../../tmk_core/tool/chibios/ChibiOS/os/rt/include/chmtx.h"
 199              		.file 14 "../../tmk_core/tool/chibios/ChibiOS/os/rt/include/chregistry.h"
 200              		.file 15 "../../tmk_core/tool/chibios/ChibiOS/os/rt/include/chsys.h"
 201              		.file 16 "../../tmk_core/tool/chibios/ChibiOS-Contrib/os/hal/ports/KINETIS/LLD/hal_pal_lld.h"
 202              		.file 17 "../../tmk_core/tool/chibios/ChibiOS/os/hal/include/hal_pal.h"
 203              		.file 18 "../../tmk_core/tool/chibios/ChibiOS/os/hal/include/hal_usb.h"
 204              		.file 19 "../../tmk_core/tool/chibios/ChibiOS-Contrib/os/hal/ports/KINETIS/LLD/hal_usb_lld.h"