ARM GAS  /var/folders/t8/16hdwfmd2fg_d3q6dgx6bpmw0000gn/T//cchzqc6D.s 			page 1


   1              		.cpu cortex-m0plus
   2              		.eabi_attribute 20, 1
   3              		.eabi_attribute 21, 1
   4              		.eabi_attribute 23, 3
   5              		.eabi_attribute 24, 1
   6              		.eabi_attribute 25, 1
   7              		.eabi_attribute 26, 1
   8              		.eabi_attribute 30, 2
   9              		.eabi_attribute 34, 0
  10              		.eabi_attribute 18, 4
  11              		.file	"hal_st_lld.c"
  12              		.text
  13              	.Ltext0:
  14              		.cfi_sections	.debug_frame
  15              		.section	.text.SysTick_Handler,"ax",%progbits
  16              		.align	1
  17              		.p2align 4,,15
  18              		.global	SysTick_Handler
  19              		.syntax unified
  20              		.code	16
  21              		.thumb_func
  22              		.fpu softvfp
  23              		.type	SysTick_Handler, %function
  24              	SysTick_Handler:
  25              	.LFB174:
  26              		.file 1 "../../tmk_core/tool/chibios/ChibiOS-Contrib/os/hal/ports/KINETIS/LLD/hal_st_lld.c"
  27              		.loc 1 60 0
  28              		.cfi_startproc
  29              		@ args = 0, pretend = 0, frame = 0
  30              		@ frame_needed = 0, uses_anonymous_args = 0
  31              	.LVL0:
  32 0000 10B5     		push	{r4, lr}
  33              		.cfi_def_cfa_offset 8
  34              		.cfi_offset 4, -8
  35              		.cfi_offset 14, -4
  36 0002 7446     		mov	r4, lr
  37              		.loc 1 62 0
  38 0004 FFF7FEFF 		bl	_dbg_check_enter_isr
  39              	.LVL1:
  40              	.LBB54:
  41              	.LBB55:
  42              	.LBB56:
  43              	.LBB57:
  44              	.LBB58:
  45              	.LBB59:
  46              	.LBB60:
  47              		.file 2 "../../tmk_core/tool/chibios/ChibiOS/os/common/ext/CMSIS/include/cmsis_gcc.h"
  48              		.loc 2 71 0
  49              		.syntax divided
  50              	@ 71 "../../tmk_core/tool/chibios/ChibiOS/os/common/ext/CMSIS/include/cmsis_gcc.h" 1
  51 0008 72B6     		cpsid i
  52              	@ 0 "" 2
  53              		.thumb
  54              		.syntax unified
  55              	.LBE60:
  56              	.LBE59:
  57              	.LBE58:
ARM GAS  /var/folders/t8/16hdwfmd2fg_d3q6dgx6bpmw0000gn/T//cchzqc6D.s 			page 2


  58              	.LBE57:
  59              		.file 3 "../../tmk_core/tool/chibios/ChibiOS/os/rt/include/chsys.h"
  60              		.loc 3 418 0
  61 000a FFF7FEFF 		bl	_dbg_check_lock_from_isr
  62              	.LVL2:
  63              	.LBE56:
  64              	.LBE55:
  65              	.LBE54:
  66              	.LBB61:
  67              	.LBB62:
  68              		.file 4 "../../tmk_core/tool/chibios/ChibiOS/os/hal/osal/rt/osal.h"
  69              		.loc 4 585 0
  70 000e FFF7FEFF 		bl	chSysTimerHandlerI
  71              	.LVL3:
  72              	.LBE62:
  73              	.LBE61:
  74              	.LBB63:
  75              	.LBB64:
  76              	.LBB65:
  77              		.loc 3 436 0
  78 0012 FFF7FEFF 		bl	_dbg_check_unlock_from_isr
  79              	.LVL4:
  80              	.LBB66:
  81              	.LBB67:
  82              	.LBB68:
  83              	.LBB69:
  84              		.loc 2 60 0
  85              		.syntax divided
  86              	@ 60 "../../tmk_core/tool/chibios/ChibiOS/os/common/ext/CMSIS/include/cmsis_gcc.h" 1
  87 0016 62B6     		cpsie i
  88              	@ 0 "" 2
  89              		.thumb
  90              		.syntax unified
  91              	.LBE69:
  92              	.LBE68:
  93              	.LBE67:
  94              	.LBE66:
  95              	.LBE65:
  96              	.LBE64:
  97              	.LBE63:
  98              		.loc 1 68 0
  99 0018 FFF7FEFF 		bl	_dbg_check_leave_isr
 100              	.LVL5:
 101 001c 2000     		movs	r0, r4
 102 001e FFF7FEFF 		bl	_port_irq_epilogue
 103              	.LVL6:
 104              		.loc 1 69 0
 105              		@ sp needed
 106 0022 10BD     		pop	{r4, pc}
 107              		.cfi_endproc
 108              	.LFE174:
 109              		.size	SysTick_Handler, .-SysTick_Handler
 110              		.section	.text.st_lld_init,"ax",%progbits
 111              		.align	1
 112              		.p2align 4,,15
 113              		.global	st_lld_init
 114              		.syntax unified
ARM GAS  /var/folders/t8/16hdwfmd2fg_d3q6dgx6bpmw0000gn/T//cchzqc6D.s 			page 3


 115              		.code	16
 116              		.thumb_func
 117              		.fpu softvfp
 118              		.type	st_lld_init, %function
 119              	st_lld_init:
 120              	.LFB175:
 121              		.loc 1 81 0
 122              		.cfi_startproc
 123              		@ args = 0, pretend = 0, frame = 0
 124              		@ frame_needed = 0, uses_anonymous_args = 0
 125              		.loc 1 85 0
 126 0000 064B     		ldr	r3, .L4
 127 0002 074A     		ldr	r2, .L4+4
 128              		.loc 1 81 0
 129 0004 10B5     		push	{r4, lr}
 130              		.cfi_def_cfa_offset 8
 131              		.cfi_offset 4, -8
 132              		.cfi_offset 14, -4
 133              		.loc 1 85 0
 134 0006 5A60     		str	r2, [r3, #4]
 135              		.loc 1 86 0
 136 0008 0022     		movs	r2, #0
 137 000a 9A60     		str	r2, [r3, #8]
 138              		.loc 1 87 0
 139 000c 0732     		adds	r2, r2, #7
 140 000e 1A60     		str	r2, [r3]
 141              		.loc 1 92 0
 142 0010 0821     		movs	r1, #8
 143 0012 0B20     		movs	r0, #11
 144 0014 FFF7FEFF 		bl	nvicSetSystemHandlerPriority
 145              	.LVL7:
 146              		.loc 1 94 0
 147              		@ sp needed
 148 0018 10BD     		pop	{r4, pc}
 149              	.L5:
 150 001a C046     		.align	2
 151              	.L4:
 152 001c 10E000E0 		.word	-536813552
 153 0020 7FBB0000 		.word	47999
 154              		.cfi_endproc
 155              	.LFE175:
 156              		.size	st_lld_init, .-st_lld_init
 157              		.text
 158              	.Letext0:
 159              		.file 5 "/usr/local/Caskroom/gcc-arm-embedded/7-2017-q4-major/gcc-arm-none-eabi-7-2017-q4-major/li
 160              		.file 6 "/usr/local/Caskroom/gcc-arm-embedded/7-2017-q4-major/gcc-arm-none-eabi-7-2017-q4-major/ar
 161              		.file 7 "/usr/local/Caskroom/gcc-arm-embedded/7-2017-q4-major/gcc-arm-none-eabi-7-2017-q4-major/ar
 162              		.file 8 "../../tmk_core/tool/chibios/ChibiOS/os/common/ports/ARMCMx/compilers/GCC/chtypes.h"
 163              		.file 9 "../../tmk_core/tool/chibios/ChibiOS/os/rt/include/chsystypes.h"
 164              		.file 10 "../../tmk_core/tool/chibios/ChibiOS/os/rt/include/chschd.h"
 165              		.file 11 "../../tmk_core/tool/chibios/ChibiOS/os/common/ext/CMSIS/include/core_cm0plus.h"
 166              		.file 12 "../../tmk_core/tool/chibios/ChibiOS-Contrib/os/common/ext/CMSIS/KINETIS/kl2xz.h"
 167              		.file 13 "../../tmk_core/tool/chibios/ChibiOS/os/common/ports/ARMCMx/chcore.h"
 168              		.file 14 "../../tmk_core/tool/chibios/ChibiOS/os/common/ports/ARMCMx/chcore_v6m.h"
 169              		.file 15 "../../tmk_core/tool/chibios/ChibiOS/os/rt/include/chsem.h"
 170              		.file 16 "../../tmk_core/tool/chibios/ChibiOS/os/rt/include/chmtx.h"
 171              		.file 17 "../../tmk_core/tool/chibios/ChibiOS/os/rt/include/chregistry.h"
ARM GAS  /var/folders/t8/16hdwfmd2fg_d3q6dgx6bpmw0000gn/T//cchzqc6D.s 			page 4


 172              		.file 18 "../../tmk_core/tool/chibios/ChibiOS-Contrib/os/hal/ports/KINETIS/LLD/hal_pal_lld.h"
 173              		.file 19 "../../tmk_core/tool/chibios/ChibiOS/os/hal/include/hal_usb.h"
 174              		.file 20 "../../tmk_core/tool/chibios/ChibiOS-Contrib/os/hal/ports/KINETIS/LLD/hal_usb_lld.h"
 175              		.file 21 "../../tmk_core/tool/chibios/ChibiOS/os/hal/ports/common/ARMCMx/nvic.h"
 176              		.file 22 "../../tmk_core/tool/chibios/ChibiOS/os/rt/include/chdebug.h"
 177              		.section	.debug_info,"",%progbits
 178              	.Ldebug_info0:
 179 0000 450F0000 		.4byte	0xf45
 180 0004 0400     		.2byte	0x4
 181 0006 00000000 		.4byte	.Ldebug_abbrev0
 182 000a 04       		.byte	0x4
 183 000b 01       		.uleb128 0x1
 184 000c 3A060000 		.4byte	.LASF230
 185 0010 0C       		.byte	0xc
 186 0011 6E040000 		.4byte	.LASF231
 187 0015 E6030000 		.4byte	.LASF232
 188 0019 00000000 		.4byte	.Ldebug_ranges0+0
 189 001d 00000000 		.4byte	0
 190 0021 00000000 		.4byte	.Ldebug_line0
 191 0025 02       		.uleb128 0x2
 192 0026 04       		.byte	0x4
 193 0027 05       		.byte	0x5
 194 0028 696E7400 		.ascii	"int\000"
 195 002c 03       		.uleb128 0x3
 196 002d 20000000 		.4byte	.LASF2
 197 0031 05       		.byte	0x5
 198 0032 D8       		.byte	0xd8
 199 0033 37000000 		.4byte	0x37
 200 0037 04       		.uleb128 0x4
 201 0038 04       		.byte	0x4
 202 0039 07       		.byte	0x7
 203 003a 19030000 		.4byte	.LASF0
 204 003e 04       		.uleb128 0x4
 205 003f 01       		.byte	0x1
 206 0040 06       		.byte	0x6
 207 0041 5D010000 		.4byte	.LASF1
 208 0045 03       		.uleb128 0x3
 209 0046 47000000 		.4byte	.LASF3
 210 004a 06       		.byte	0x6
 211 004b 2B       		.byte	0x2b
 212 004c 50000000 		.4byte	0x50
 213 0050 04       		.uleb128 0x4
 214 0051 01       		.byte	0x1
 215 0052 08       		.byte	0x8
 216 0053 D4070000 		.4byte	.LASF4
 217 0057 04       		.uleb128 0x4
 218 0058 02       		.byte	0x2
 219 0059 05       		.byte	0x5
 220 005a 00080000 		.4byte	.LASF5
 221 005e 03       		.uleb128 0x3
 222 005f 2B090000 		.4byte	.LASF6
 223 0063 06       		.byte	0x6
 224 0064 39       		.byte	0x39
 225 0065 69000000 		.4byte	0x69
 226 0069 04       		.uleb128 0x4
 227 006a 02       		.byte	0x2
 228 006b 07       		.byte	0x7
ARM GAS  /var/folders/t8/16hdwfmd2fg_d3q6dgx6bpmw0000gn/T//cchzqc6D.s 			page 5


 229 006c DF090000 		.4byte	.LASF7
 230 0070 03       		.uleb128 0x3
 231 0071 E4040000 		.4byte	.LASF8
 232 0075 06       		.byte	0x6
 233 0076 4D       		.byte	0x4d
 234 0077 7B000000 		.4byte	0x7b
 235 007b 04       		.uleb128 0x4
 236 007c 04       		.byte	0x4
 237 007d 05       		.byte	0x5
 238 007e EE010000 		.4byte	.LASF9
 239 0082 03       		.uleb128 0x3
 240 0083 85090000 		.4byte	.LASF10
 241 0087 06       		.byte	0x6
 242 0088 4F       		.byte	0x4f
 243 0089 8D000000 		.4byte	0x8d
 244 008d 04       		.uleb128 0x4
 245 008e 04       		.byte	0x4
 246 008f 07       		.byte	0x7
 247 0090 FE080000 		.4byte	.LASF11
 248 0094 04       		.uleb128 0x4
 249 0095 08       		.byte	0x8
 250 0096 05       		.byte	0x5
 251 0097 4F010000 		.4byte	.LASF12
 252 009b 03       		.uleb128 0x3
 253 009c 2F060000 		.4byte	.LASF13
 254 00a0 06       		.byte	0x6
 255 00a1 69       		.byte	0x69
 256 00a2 A6000000 		.4byte	0xa6
 257 00a6 04       		.uleb128 0x4
 258 00a7 08       		.byte	0x8
 259 00a8 07       		.byte	0x7
 260 00a9 A8000000 		.4byte	.LASF14
 261 00ad 03       		.uleb128 0x3
 262 00ae DD0A0000 		.4byte	.LASF15
 263 00b2 07       		.byte	0x7
 264 00b3 18       		.byte	0x18
 265 00b4 45000000 		.4byte	0x45
 266 00b8 05       		.uleb128 0x5
 267 00b9 AD000000 		.4byte	0xad
 268 00bd 03       		.uleb128 0x3
 269 00be 4D020000 		.4byte	.LASF16
 270 00c2 07       		.byte	0x7
 271 00c3 24       		.byte	0x24
 272 00c4 5E000000 		.4byte	0x5e
 273 00c8 03       		.uleb128 0x3
 274 00c9 CC070000 		.4byte	.LASF17
 275 00cd 07       		.byte	0x7
 276 00ce 2C       		.byte	0x2c
 277 00cf 70000000 		.4byte	0x70
 278 00d3 03       		.uleb128 0x3
 279 00d4 5D020000 		.4byte	.LASF18
 280 00d8 07       		.byte	0x7
 281 00d9 30       		.byte	0x30
 282 00da 82000000 		.4byte	0x82
 283 00de 06       		.uleb128 0x6
 284 00df D3000000 		.4byte	0xd3
 285 00e3 05       		.uleb128 0x5
ARM GAS  /var/folders/t8/16hdwfmd2fg_d3q6dgx6bpmw0000gn/T//cchzqc6D.s 			page 6


 286 00e4 DE000000 		.4byte	0xde
 287 00e8 03       		.uleb128 0x3
 288 00e9 33000000 		.4byte	.LASF19
 289 00ed 07       		.byte	0x7
 290 00ee 3C       		.byte	0x3c
 291 00ef 9B000000 		.4byte	0x9b
 292 00f3 03       		.uleb128 0x3
 293 00f4 5E040000 		.4byte	.LASF20
 294 00f8 08       		.byte	0x8
 295 00f9 3C       		.byte	0x3c
 296 00fa AD000000 		.4byte	0xad
 297 00fe 03       		.uleb128 0x3
 298 00ff 14020000 		.4byte	.LASF21
 299 0103 08       		.byte	0x8
 300 0104 3D       		.byte	0x3d
 301 0105 AD000000 		.4byte	0xad
 302 0109 03       		.uleb128 0x3
 303 010a 850A0000 		.4byte	.LASF22
 304 010e 08       		.byte	0x8
 305 010f 3E       		.byte	0x3e
 306 0110 AD000000 		.4byte	0xad
 307 0114 03       		.uleb128 0x3
 308 0115 C0010000 		.4byte	.LASF23
 309 0119 08       		.byte	0x8
 310 011a 3F       		.byte	0x3f
 311 011b AD000000 		.4byte	0xad
 312 011f 03       		.uleb128 0x3
 313 0120 91070000 		.4byte	.LASF24
 314 0124 08       		.byte	0x8
 315 0125 40       		.byte	0x40
 316 0126 D3000000 		.4byte	0xd3
 317 012a 03       		.uleb128 0x3
 318 012b D6030000 		.4byte	.LASF25
 319 012f 08       		.byte	0x8
 320 0130 41       		.byte	0x41
 321 0131 C8000000 		.4byte	0xc8
 322 0135 03       		.uleb128 0x3
 323 0136 CE040000 		.4byte	.LASF26
 324 013a 08       		.byte	0x8
 325 013b 43       		.byte	0x43
 326 013c D3000000 		.4byte	0xd3
 327 0140 03       		.uleb128 0x3
 328 0141 0A030000 		.4byte	.LASF27
 329 0145 08       		.byte	0x8
 330 0146 45       		.byte	0x45
 331 0147 C8000000 		.4byte	0xc8
 332 014b 03       		.uleb128 0x3
 333 014c 5F090000 		.4byte	.LASF28
 334 0150 09       		.byte	0x9
 335 0151 33       		.byte	0x33
 336 0152 D3000000 		.4byte	0xd3
 337 0156 06       		.uleb128 0x6
 338 0157 4B010000 		.4byte	0x14b
 339 015b 03       		.uleb128 0x3
 340 015c 4B090000 		.4byte	.LASF29
 341 0160 09       		.byte	0x9
 342 0161 3F       		.byte	0x3f
ARM GAS  /var/folders/t8/16hdwfmd2fg_d3q6dgx6bpmw0000gn/T//cchzqc6D.s 			page 7


 343 0162 66010000 		.4byte	0x166
 344 0166 07       		.uleb128 0x7
 345 0167 B3030000 		.4byte	.LASF48
 346 016b 44       		.byte	0x44
 347 016c 0A       		.byte	0xa
 348 016d 9A       		.byte	0x9a
 349 016e 50020000 		.4byte	0x250
 350 0172 08       		.uleb128 0x8
 351 0173 76030000 		.4byte	.LASF30
 352 0177 0A       		.byte	0xa
 353 0178 9B       		.byte	0x9b
 354 0179 85020000 		.4byte	0x285
 355 017d 00       		.byte	0
 356 017e 08       		.uleb128 0x8
 357 017f FC050000 		.4byte	.LASF31
 358 0183 0A       		.byte	0xa
 359 0184 9C       		.byte	0x9c
 360 0185 1F010000 		.4byte	0x11f
 361 0189 08       		.byte	0x8
 362 018a 09       		.uleb128 0x9
 363 018b 63747800 		.ascii	"ctx\000"
 364 018f 0A       		.byte	0xa
 365 0190 9D       		.byte	0x9d
 366 0191 2A050000 		.4byte	0x52a
 367 0195 0C       		.byte	0xc
 368 0196 08       		.uleb128 0x8
 369 0197 29020000 		.4byte	.LASF32
 370 019b 0A       		.byte	0xa
 371 019c 9F       		.byte	0x9f
 372 019d 5B020000 		.4byte	0x25b
 373 01a1 10       		.byte	0x10
 374 01a2 08       		.uleb128 0x8
 375 01a3 1E090000 		.4byte	.LASF33
 376 01a7 0A       		.byte	0xa
 377 01a8 A0       		.byte	0xa0
 378 01a9 5B020000 		.4byte	0x25b
 379 01ad 14       		.byte	0x14
 380 01ae 08       		.uleb128 0x8
 381 01af 71030000 		.4byte	.LASF34
 382 01b3 0A       		.byte	0xa
 383 01b4 A7       		.byte	0xa7
 384 01b5 85060000 		.4byte	0x685
 385 01b9 18       		.byte	0x18
 386 01ba 08       		.uleb128 0x8
 387 01bb 56020000 		.4byte	.LASF35
 388 01bf 0A       		.byte	0xa
 389 01c0 B0       		.byte	0xb0
 390 01c1 9C060000 		.4byte	0x69c
 391 01c5 1C       		.byte	0x1c
 392 01c6 08       		.uleb128 0x8
 393 01c7 DD010000 		.4byte	.LASF36
 394 01cb 0A       		.byte	0xa
 395 01cc B5       		.byte	0xb5
 396 01cd FE000000 		.4byte	0xfe
 397 01d1 20       		.byte	0x20
 398 01d2 08       		.uleb128 0x8
 399 01d3 EC0A0000 		.4byte	.LASF37
ARM GAS  /var/folders/t8/16hdwfmd2fg_d3q6dgx6bpmw0000gn/T//cchzqc6D.s 			page 8


 400 01d7 0A       		.byte	0xa
 401 01d8 B9       		.byte	0xb9
 402 01d9 F3000000 		.4byte	0xf3
 403 01dd 21       		.byte	0x21
 404 01de 08       		.uleb128 0x8
 405 01df 6A070000 		.4byte	.LASF38
 406 01e3 0A       		.byte	0xa
 407 01e4 BE       		.byte	0xbe
 408 01e5 09010000 		.4byte	0x109
 409 01e9 22       		.byte	0x22
 410 01ea 08       		.uleb128 0x8
 411 01eb 5A0B0000 		.4byte	.LASF39
 412 01ef 0A       		.byte	0xa
 413 01f0 C4       		.byte	0xc4
 414 01f1 14010000 		.4byte	0x114
 415 01f5 23       		.byte	0x23
 416 01f6 0A       		.uleb128 0xa
 417 01f7 7500     		.ascii	"u\000"
 418 01f9 0A       		.byte	0xa
 419 01fa 0F01     		.2byte	0x10f
 420 01fc BA050000 		.4byte	0x5ba
 421 0200 24       		.byte	0x24
 422 0201 0B       		.uleb128 0xb
 423 0202 EC020000 		.4byte	.LASF40
 424 0206 0A       		.byte	0xa
 425 0207 1401     		.2byte	0x114
 426 0209 61020000 		.4byte	0x261
 427 020d 28       		.byte	0x28
 428 020e 0B       		.uleb128 0xb
 429 020f 10030000 		.4byte	.LASF41
 430 0213 0A       		.byte	0xa
 431 0214 1A01     		.2byte	0x11a
 432 0216 85020000 		.4byte	0x285
 433 021a 2C       		.byte	0x2c
 434 021b 0B       		.uleb128 0xb
 435 021c 2D040000 		.4byte	.LASF42
 436 0220 0A       		.byte	0xa
 437 0221 2001     		.2byte	0x120
 438 0223 35010000 		.4byte	0x135
 439 0227 34       		.byte	0x34
 440 0228 0B       		.uleb128 0xb
 441 0229 3F0B0000 		.4byte	.LASF43
 442 022d 0A       		.byte	0xa
 443 022e 2701     		.2byte	0x127
 444 0230 7F060000 		.4byte	0x67f
 445 0234 38       		.byte	0x38
 446 0235 0B       		.uleb128 0xb
 447 0236 44050000 		.4byte	.LASF44
 448 023a 0A       		.byte	0xa
 449 023b 2B01     		.2byte	0x12b
 450 023d 1F010000 		.4byte	0x11f
 451 0241 3C       		.byte	0x3c
 452 0242 0B       		.uleb128 0xb
 453 0243 8F030000 		.4byte	.LASF45
 454 0247 0A       		.byte	0xa
 455 0248 3201     		.2byte	0x132
 456 024a 38030000 		.4byte	0x338
ARM GAS  /var/folders/t8/16hdwfmd2fg_d3q6dgx6bpmw0000gn/T//cchzqc6D.s 			page 9


 457 024e 40       		.byte	0x40
 458 024f 00       		.byte	0
 459 0250 03       		.uleb128 0x3
 460 0251 69050000 		.4byte	.LASF46
 461 0255 09       		.byte	0x9
 462 0256 44       		.byte	0x44
 463 0257 5B020000 		.4byte	0x25b
 464 025b 0C       		.uleb128 0xc
 465 025c 04       		.byte	0x4
 466 025d 5B010000 		.4byte	0x15b
 467 0261 03       		.uleb128 0x3
 468 0262 080B0000 		.4byte	.LASF47
 469 0266 09       		.byte	0x9
 470 0267 49       		.byte	0x49
 471 0268 6C020000 		.4byte	0x26c
 472 026c 07       		.uleb128 0x7
 473 026d E8080000 		.4byte	.LASF49
 474 0271 04       		.byte	0x4
 475 0272 0A       		.byte	0xa
 476 0273 88       		.byte	0x88
 477 0274 85020000 		.4byte	0x285
 478 0278 08       		.uleb128 0x8
 479 0279 26010000 		.4byte	.LASF50
 480 027d 0A       		.byte	0xa
 481 027e 89       		.byte	0x89
 482 027f 5B020000 		.4byte	0x25b
 483 0283 00       		.byte	0
 484 0284 00       		.byte	0
 485 0285 03       		.uleb128 0x3
 486 0286 6C0A0000 		.4byte	.LASF51
 487 028a 09       		.byte	0x9
 488 028b 50       		.byte	0x50
 489 028c 90020000 		.4byte	0x290
 490 0290 07       		.uleb128 0x7
 491 0291 2B010000 		.4byte	.LASF52
 492 0295 08       		.byte	0x8
 493 0296 0A       		.byte	0xa
 494 0297 8F       		.byte	0x8f
 495 0298 B5020000 		.4byte	0x2b5
 496 029c 08       		.uleb128 0x8
 497 029d 26010000 		.4byte	.LASF50
 498 02a1 0A       		.byte	0xa
 499 02a2 90       		.byte	0x90
 500 02a3 5B020000 		.4byte	0x25b
 501 02a7 00       		.byte	0
 502 02a8 08       		.uleb128 0x8
 503 02a9 51000000 		.4byte	.LASF53
 504 02ad 0A       		.byte	0xa
 505 02ae 91       		.byte	0x91
 506 02af 5B020000 		.4byte	0x25b
 507 02b3 04       		.byte	0x4
 508 02b4 00       		.byte	0
 509 02b5 03       		.uleb128 0x3
 510 02b6 13000000 		.4byte	.LASF54
 511 02ba 09       		.byte	0x9
 512 02bb 57       		.byte	0x57
 513 02bc C0020000 		.4byte	0x2c0
ARM GAS  /var/folders/t8/16hdwfmd2fg_d3q6dgx6bpmw0000gn/T//cchzqc6D.s 			page 10


 514 02c0 0D       		.uleb128 0xd
 515 02c1 C0040000 		.4byte	.LASF55
 516 02c5 1C       		.byte	0x1c
 517 02c6 0A       		.byte	0xa
 518 02c7 6A01     		.2byte	0x16a
 519 02c9 1C030000 		.4byte	0x31c
 520 02cd 0B       		.uleb128 0xb
 521 02ce 76030000 		.4byte	.LASF30
 522 02d2 0A       		.byte	0xa
 523 02d3 6B01     		.2byte	0x16b
 524 02d5 85020000 		.4byte	0x285
 525 02d9 00       		.byte	0
 526 02da 0B       		.uleb128 0xb
 527 02db FC050000 		.4byte	.LASF31
 528 02df 0A       		.byte	0xa
 529 02e0 6C01     		.2byte	0x16c
 530 02e2 1F010000 		.4byte	0x11f
 531 02e6 08       		.byte	0x8
 532 02e7 0A       		.uleb128 0xa
 533 02e8 63747800 		.ascii	"ctx\000"
 534 02ec 0A       		.byte	0xa
 535 02ed 6E01     		.2byte	0x16e
 536 02ef 2A050000 		.4byte	0x52a
 537 02f3 0C       		.byte	0xc
 538 02f4 0B       		.uleb128 0xb
 539 02f5 29020000 		.4byte	.LASF32
 540 02f9 0A       		.byte	0xa
 541 02fa 7101     		.2byte	0x171
 542 02fc 5B020000 		.4byte	0x25b
 543 0300 10       		.byte	0x10
 544 0301 0B       		.uleb128 0xb
 545 0302 1E090000 		.4byte	.LASF33
 546 0306 0A       		.byte	0xa
 547 0307 7201     		.2byte	0x172
 548 0309 5B020000 		.4byte	0x25b
 549 030d 14       		.byte	0x14
 550 030e 0B       		.uleb128 0xb
 551 030f 15060000 		.4byte	.LASF56
 552 0313 0A       		.byte	0xa
 553 0314 7501     		.2byte	0x175
 554 0316 5B020000 		.4byte	0x25b
 555 031a 18       		.byte	0x18
 556 031b 00       		.byte	0
 557 031c 03       		.uleb128 0x3
 558 031d 7C090000 		.4byte	.LASF57
 559 0321 09       		.byte	0x9
 560 0322 5C       		.byte	0x5c
 561 0323 27030000 		.4byte	0x327
 562 0327 0C       		.uleb128 0xc
 563 0328 04       		.byte	0x4
 564 0329 2D030000 		.4byte	0x32d
 565 032d 0E       		.uleb128 0xe
 566 032e 38030000 		.4byte	0x338
 567 0332 0F       		.uleb128 0xf
 568 0333 38030000 		.4byte	0x338
 569 0337 00       		.byte	0
 570 0338 10       		.uleb128 0x10
ARM GAS  /var/folders/t8/16hdwfmd2fg_d3q6dgx6bpmw0000gn/T//cchzqc6D.s 			page 11


 571 0339 04       		.byte	0x4
 572 033a 03       		.uleb128 0x3
 573 033b 6F070000 		.4byte	.LASF58
 574 033f 09       		.byte	0x9
 575 0340 61       		.byte	0x61
 576 0341 45030000 		.4byte	0x345
 577 0345 0D       		.uleb128 0xd
 578 0346 61080000 		.4byte	.LASF59
 579 034a 14       		.byte	0x14
 580 034b 0A       		.byte	0xa
 581 034c 4501     		.2byte	0x145
 582 034e 94030000 		.4byte	0x394
 583 0352 0B       		.uleb128 0xb
 584 0353 26010000 		.4byte	.LASF50
 585 0357 0A       		.byte	0xa
 586 0358 4601     		.2byte	0x146
 587 035a A2060000 		.4byte	0x6a2
 588 035e 00       		.byte	0
 589 035f 0B       		.uleb128 0xb
 590 0360 51000000 		.4byte	.LASF53
 591 0364 0A       		.byte	0xa
 592 0365 4701     		.2byte	0x147
 593 0367 A2060000 		.4byte	0x6a2
 594 036b 04       		.byte	0x4
 595 036c 0B       		.uleb128 0xb
 596 036d 210B0000 		.4byte	.LASF60
 597 0371 0A       		.byte	0xa
 598 0372 4801     		.2byte	0x148
 599 0374 4B010000 		.4byte	0x14b
 600 0378 08       		.byte	0x8
 601 0379 0B       		.uleb128 0xb
 602 037a 1D020000 		.4byte	.LASF61
 603 037e 0A       		.byte	0xa
 604 037f 4901     		.2byte	0x149
 605 0381 1C030000 		.4byte	0x31c
 606 0385 0C       		.byte	0xc
 607 0386 0A       		.uleb128 0xa
 608 0387 70617200 		.ascii	"par\000"
 609 038b 0A       		.byte	0xa
 610 038c 4B01     		.2byte	0x14b
 611 038e 38030000 		.4byte	0x338
 612 0392 10       		.byte	0x10
 613 0393 00       		.byte	0
 614 0394 03       		.uleb128 0x3
 615 0395 E4000000 		.4byte	.LASF62
 616 0399 09       		.byte	0x9
 617 039a 66       		.byte	0x66
 618 039b 9F030000 		.4byte	0x39f
 619 039f 0D       		.uleb128 0xd
 620 03a0 82050000 		.4byte	.LASF63
 621 03a4 10       		.byte	0x10
 622 03a5 0A       		.byte	0xa
 623 03a6 5501     		.2byte	0x155
 624 03a8 E1030000 		.4byte	0x3e1
 625 03ac 0B       		.uleb128 0xb
 626 03ad 26010000 		.4byte	.LASF50
 627 03b1 0A       		.byte	0xa
ARM GAS  /var/folders/t8/16hdwfmd2fg_d3q6dgx6bpmw0000gn/T//cchzqc6D.s 			page 12


 628 03b2 5601     		.2byte	0x156
 629 03b4 A2060000 		.4byte	0x6a2
 630 03b8 00       		.byte	0
 631 03b9 0B       		.uleb128 0xb
 632 03ba 51000000 		.4byte	.LASF53
 633 03be 0A       		.byte	0xa
 634 03bf 5801     		.2byte	0x158
 635 03c1 A2060000 		.4byte	0x6a2
 636 03c5 04       		.byte	0x4
 637 03c6 0B       		.uleb128 0xb
 638 03c7 210B0000 		.4byte	.LASF60
 639 03cb 0A       		.byte	0xa
 640 03cc 5A01     		.2byte	0x15a
 641 03ce 4B010000 		.4byte	0x14b
 642 03d2 08       		.byte	0x8
 643 03d3 0B       		.uleb128 0xb
 644 03d4 66040000 		.4byte	.LASF64
 645 03d8 0A       		.byte	0xa
 646 03d9 5C01     		.2byte	0x15c
 647 03db 56010000 		.4byte	0x156
 648 03df 0C       		.byte	0xc
 649 03e0 00       		.byte	0
 650 03e1 03       		.uleb128 0x3
 651 03e2 61000000 		.4byte	.LASF65
 652 03e6 09       		.byte	0x9
 653 03e7 6B       		.byte	0x6b
 654 03e8 EC030000 		.4byte	0x3ec
 655 03ec 0D       		.uleb128 0xd
 656 03ed DC020000 		.4byte	.LASF66
 657 03f1 0C       		.byte	0xc
 658 03f2 0A       		.byte	0xa
 659 03f3 7C01     		.2byte	0x17c
 660 03f5 21040000 		.4byte	0x421
 661 03f9 0B       		.uleb128 0xb
 662 03fa A5090000 		.4byte	.LASF67
 663 03fe 0A       		.byte	0xa
 664 03ff 8401     		.2byte	0x184
 665 0401 8B060000 		.4byte	0x68b
 666 0405 00       		.byte	0
 667 0406 0B       		.uleb128 0xb
 668 0407 8D0A0000 		.4byte	.LASF68
 669 040b 0A       		.byte	0xa
 670 040c 8901     		.2byte	0x189
 671 040e 40010000 		.4byte	0x140
 672 0412 04       		.byte	0x4
 673 0413 0B       		.uleb128 0xb
 674 0414 01030000 		.4byte	.LASF69
 675 0418 0A       		.byte	0xa
 676 0419 8D01     		.2byte	0x18d
 677 041b 40010000 		.4byte	0x140
 678 041f 08       		.byte	0x8
 679 0420 00       		.byte	0
 680 0421 03       		.uleb128 0x3
 681 0422 0B0A0000 		.4byte	.LASF70
 682 0426 09       		.byte	0x9
 683 0427 70       		.byte	0x70
 684 0428 2C040000 		.4byte	0x42c
ARM GAS  /var/folders/t8/16hdwfmd2fg_d3q6dgx6bpmw0000gn/T//cchzqc6D.s 			page 13


 685 042c 0D       		.uleb128 0xd
 686 042d 37080000 		.4byte	.LASF71
 687 0431 7C       		.byte	0x7c
 688 0432 0A       		.byte	0xa
 689 0433 9C01     		.2byte	0x19c
 690 0435 6E040000 		.4byte	0x46e
 691 0439 0B       		.uleb128 0xb
 692 043a 87010000 		.4byte	.LASF72
 693 043e 0A       		.byte	0xa
 694 043f A001     		.2byte	0x1a0
 695 0441 B5020000 		.4byte	0x2b5
 696 0445 00       		.byte	0
 697 0446 0B       		.uleb128 0xb
 698 0447 AD010000 		.4byte	.LASF73
 699 044b 0A       		.byte	0xa
 700 044c A401     		.2byte	0x1a4
 701 044e 94030000 		.4byte	0x394
 702 0452 1C       		.byte	0x1c
 703 0453 0A       		.uleb128 0xa
 704 0454 64626700 		.ascii	"dbg\000"
 705 0458 0A       		.byte	0xa
 706 0459 A801     		.2byte	0x1a8
 707 045b E1030000 		.4byte	0x3e1
 708 045f 2C       		.byte	0x2c
 709 0460 0B       		.uleb128 0xb
 710 0461 CB030000 		.4byte	.LASF74
 711 0465 0A       		.byte	0xa
 712 0466 AC01     		.2byte	0x1ac
 713 0468 5B010000 		.4byte	0x15b
 714 046c 38       		.byte	0x38
 715 046d 00       		.byte	0
 716 046e 11       		.uleb128 0x11
 717 046f 10       		.byte	0x10
 718 0470 0B       		.byte	0xb
 719 0471 0802     		.2byte	0x208
 720 0473 AC040000 		.4byte	0x4ac
 721 0477 0B       		.uleb128 0xb
 722 0478 59040000 		.4byte	.LASF75
 723 047c 0B       		.byte	0xb
 724 047d 0A02     		.2byte	0x20a
 725 047f DE000000 		.4byte	0xde
 726 0483 00       		.byte	0
 727 0484 0B       		.uleb128 0xb
 728 0485 06000000 		.4byte	.LASF76
 729 0489 0B       		.byte	0xb
 730 048a 0B02     		.2byte	0x20b
 731 048c DE000000 		.4byte	0xde
 732 0490 04       		.byte	0x4
 733 0491 0A       		.uleb128 0xa
 734 0492 56414C00 		.ascii	"VAL\000"
 735 0496 0B       		.byte	0xb
 736 0497 0C02     		.2byte	0x20c
 737 0499 DE000000 		.4byte	0xde
 738 049d 08       		.byte	0x8
 739 049e 0B       		.uleb128 0xb
 740 049f 430A0000 		.4byte	.LASF77
 741 04a3 0B       		.byte	0xb
ARM GAS  /var/folders/t8/16hdwfmd2fg_d3q6dgx6bpmw0000gn/T//cchzqc6D.s 			page 14


 742 04a4 0D02     		.2byte	0x20d
 743 04a6 E3000000 		.4byte	0xe3
 744 04aa 0C       		.byte	0xc
 745 04ab 00       		.byte	0
 746 04ac 12       		.uleb128 0x12
 747 04ad A1020000 		.4byte	.LASF78
 748 04b1 0B       		.byte	0xb
 749 04b2 0E02     		.2byte	0x20e
 750 04b4 6E040000 		.4byte	0x46e
 751 04b8 13       		.uleb128 0x13
 752 04b9 18       		.byte	0x18
 753 04ba 0C       		.byte	0xc
 754 04bb C5       		.byte	0xc5
 755 04bc 09050000 		.4byte	0x509
 756 04c0 08       		.uleb128 0x8
 757 04c1 FC0A0000 		.4byte	.LASF79
 758 04c5 0C       		.byte	0xc
 759 04c6 C7       		.byte	0xc7
 760 04c7 DE000000 		.4byte	0xde
 761 04cb 00       		.byte	0
 762 04cc 08       		.uleb128 0x8
 763 04cd D8010000 		.4byte	.LASF80
 764 04d1 0C       		.byte	0xc
 765 04d2 C8       		.byte	0xc8
 766 04d3 DE000000 		.4byte	0xde
 767 04d7 04       		.byte	0x4
 768 04d8 08       		.uleb128 0x8
 769 04d9 D7000000 		.4byte	.LASF81
 770 04dd 0C       		.byte	0xc
 771 04de C9       		.byte	0xc9
 772 04df DE000000 		.4byte	0xde
 773 04e3 08       		.byte	0x8
 774 04e4 08       		.uleb128 0x8
 775 04e5 27000000 		.4byte	.LASF82
 776 04e9 0C       		.byte	0xc
 777 04ea CA       		.byte	0xca
 778 04eb DE000000 		.4byte	0xde
 779 04ef 0C       		.byte	0xc
 780 04f0 08       		.uleb128 0x8
 781 04f1 4A010000 		.4byte	.LASF83
 782 04f5 0C       		.byte	0xc
 783 04f6 CB       		.byte	0xcb
 784 04f7 DE000000 		.4byte	0xde
 785 04fb 10       		.byte	0x10
 786 04fc 08       		.uleb128 0x8
 787 04fd 3F050000 		.4byte	.LASF84
 788 0501 0C       		.byte	0xc
 789 0502 CC       		.byte	0xcc
 790 0503 DE000000 		.4byte	0xde
 791 0507 14       		.byte	0x14
 792 0508 00       		.byte	0
 793 0509 03       		.uleb128 0x3
 794 050a 94020000 		.4byte	.LASF85
 795 050e 0C       		.byte	0xc
 796 050f CD       		.byte	0xcd
 797 0510 B8040000 		.4byte	0x4b8
 798 0514 03       		.uleb128 0x3
ARM GAS  /var/folders/t8/16hdwfmd2fg_d3q6dgx6bpmw0000gn/T//cchzqc6D.s 			page 15


 799 0515 C0020000 		.4byte	.LASF86
 800 0519 0D       		.byte	0xd
 801 051a 65       		.byte	0x65
 802 051b 38030000 		.4byte	0x338
 803 051f 03       		.uleb128 0x3
 804 0520 14050000 		.4byte	.LASF87
 805 0524 0D       		.byte	0xd
 806 0525 6D       		.byte	0x6d
 807 0526 E8000000 		.4byte	0xe8
 808 052a 07       		.uleb128 0x7
 809 052b D4050000 		.4byte	.LASF88
 810 052f 04       		.byte	0x4
 811 0530 0D       		.byte	0xd
 812 0531 89       		.byte	0x89
 813 0532 42050000 		.4byte	0x542
 814 0536 09       		.uleb128 0x9
 815 0537 737000   		.ascii	"sp\000"
 816 053a 0D       		.byte	0xd
 817 053b 8A       		.byte	0x8a
 818 053c B4050000 		.4byte	0x5b4
 819 0540 00       		.byte	0
 820 0541 00       		.byte	0
 821 0542 07       		.uleb128 0x7
 822 0543 8D010000 		.4byte	.LASF89
 823 0547 24       		.byte	0x24
 824 0548 0E       		.byte	0xe
 825 0549 C3       		.byte	0xc3
 826 054a B4050000 		.4byte	0x5b4
 827 054e 09       		.uleb128 0x9
 828 054f 723800   		.ascii	"r8\000"
 829 0552 0E       		.byte	0xe
 830 0553 C4       		.byte	0xc4
 831 0554 14050000 		.4byte	0x514
 832 0558 00       		.byte	0
 833 0559 09       		.uleb128 0x9
 834 055a 723900   		.ascii	"r9\000"
 835 055d 0E       		.byte	0xe
 836 055e C5       		.byte	0xc5
 837 055f 14050000 		.4byte	0x514
 838 0563 04       		.byte	0x4
 839 0564 09       		.uleb128 0x9
 840 0565 72313000 		.ascii	"r10\000"
 841 0569 0E       		.byte	0xe
 842 056a C6       		.byte	0xc6
 843 056b 14050000 		.4byte	0x514
 844 056f 08       		.byte	0x8
 845 0570 09       		.uleb128 0x9
 846 0571 72313100 		.ascii	"r11\000"
 847 0575 0E       		.byte	0xe
 848 0576 C7       		.byte	0xc7
 849 0577 14050000 		.4byte	0x514
 850 057b 0C       		.byte	0xc
 851 057c 09       		.uleb128 0x9
 852 057d 723400   		.ascii	"r4\000"
 853 0580 0E       		.byte	0xe
 854 0581 C8       		.byte	0xc8
 855 0582 14050000 		.4byte	0x514
ARM GAS  /var/folders/t8/16hdwfmd2fg_d3q6dgx6bpmw0000gn/T//cchzqc6D.s 			page 16


 856 0586 10       		.byte	0x10
 857 0587 09       		.uleb128 0x9
 858 0588 723500   		.ascii	"r5\000"
 859 058b 0E       		.byte	0xe
 860 058c C9       		.byte	0xc9
 861 058d 14050000 		.4byte	0x514
 862 0591 14       		.byte	0x14
 863 0592 09       		.uleb128 0x9
 864 0593 723600   		.ascii	"r6\000"
 865 0596 0E       		.byte	0xe
 866 0597 CA       		.byte	0xca
 867 0598 14050000 		.4byte	0x514
 868 059c 18       		.byte	0x18
 869 059d 09       		.uleb128 0x9
 870 059e 723700   		.ascii	"r7\000"
 871 05a1 0E       		.byte	0xe
 872 05a2 CB       		.byte	0xcb
 873 05a3 14050000 		.4byte	0x514
 874 05a7 1C       		.byte	0x1c
 875 05a8 09       		.uleb128 0x9
 876 05a9 6C7200   		.ascii	"lr\000"
 877 05ac 0E       		.byte	0xe
 878 05ad CC       		.byte	0xcc
 879 05ae 14050000 		.4byte	0x514
 880 05b2 20       		.byte	0x20
 881 05b3 00       		.byte	0
 882 05b4 0C       		.uleb128 0xc
 883 05b5 04       		.byte	0x4
 884 05b6 42050000 		.4byte	0x542
 885 05ba 14       		.uleb128 0x14
 886 05bb 04       		.byte	0x4
 887 05bc 0A       		.byte	0xa
 888 05bd D2       		.byte	0xd2
 889 05be 1D060000 		.4byte	0x61d
 890 05c2 15       		.uleb128 0x15
 891 05c3 2C000000 		.4byte	.LASF90
 892 05c7 0A       		.byte	0xa
 893 05c8 D9       		.byte	0xd9
 894 05c9 2A010000 		.4byte	0x12a
 895 05cd 15       		.uleb128 0x15
 896 05ce C5000000 		.4byte	.LASF91
 897 05d2 0A       		.byte	0xa
 898 05d3 E0       		.byte	0xe0
 899 05d4 2A010000 		.4byte	0x12a
 900 05d8 15       		.uleb128 0x15
 901 05d9 010B0000 		.4byte	.LASF92
 902 05dd 0A       		.byte	0xa
 903 05de E7       		.byte	0xe7
 904 05df 38030000 		.4byte	0x338
 905 05e3 15       		.uleb128 0x15
 906 05e4 46030000 		.4byte	.LASF93
 907 05e8 0A       		.byte	0xa
 908 05e9 EE       		.byte	0xee
 909 05ea 1D060000 		.4byte	0x61d
 910 05ee 15       		.uleb128 0x15
 911 05ef DC000000 		.4byte	.LASF94
 912 05f3 0A       		.byte	0xa
ARM GAS  /var/folders/t8/16hdwfmd2fg_d3q6dgx6bpmw0000gn/T//cchzqc6D.s 			page 17


 913 05f4 F3       		.byte	0xf3
 914 05f5 2A010000 		.4byte	0x12a
 915 05f9 15       		.uleb128 0x15
 916 05fa 3F030000 		.4byte	.LASF95
 917 05fe 0A       		.byte	0xa
 918 05ff FC       		.byte	0xfc
 919 0600 48060000 		.4byte	0x648
 920 0604 16       		.uleb128 0x16
 921 0605 D1080000 		.4byte	.LASF96
 922 0609 0A       		.byte	0xa
 923 060a 0501     		.2byte	0x105
 924 060c 7F060000 		.4byte	0x67f
 925 0610 16       		.uleb128 0x16
 926 0611 30080000 		.4byte	.LASF97
 927 0615 0A       		.byte	0xa
 928 0616 0D01     		.2byte	0x10d
 929 0618 35010000 		.4byte	0x135
 930 061c 00       		.byte	0
 931 061d 0C       		.uleb128 0xc
 932 061e 04       		.byte	0x4
 933 061f 50020000 		.4byte	0x250
 934 0623 07       		.uleb128 0x7
 935 0624 72080000 		.4byte	.LASF98
 936 0628 0C       		.byte	0xc
 937 0629 0F       		.byte	0xf
 938 062a 34       		.byte	0x34
 939 062b 48060000 		.4byte	0x648
 940 062f 08       		.uleb128 0x8
 941 0630 76030000 		.4byte	.LASF30
 942 0634 0F       		.byte	0xf
 943 0635 35       		.byte	0x35
 944 0636 85020000 		.4byte	0x285
 945 063a 00       		.byte	0
 946 063b 09       		.uleb128 0x9
 947 063c 636E7400 		.ascii	"cnt\000"
 948 0640 0F       		.byte	0xf
 949 0641 37       		.byte	0x37
 950 0642 40010000 		.4byte	0x140
 951 0646 08       		.byte	0x8
 952 0647 00       		.byte	0
 953 0648 0C       		.uleb128 0xc
 954 0649 04       		.byte	0x4
 955 064a 23060000 		.4byte	0x623
 956 064e 07       		.uleb128 0x7
 957 064f 7C0A0000 		.4byte	.LASF99
 958 0653 10       		.byte	0x10
 959 0654 10       		.byte	0x10
 960 0655 39       		.byte	0x39
 961 0656 7F060000 		.4byte	0x67f
 962 065a 08       		.uleb128 0x8
 963 065b 76030000 		.4byte	.LASF30
 964 065f 10       		.byte	0x10
 965 0660 3A       		.byte	0x3a
 966 0661 85020000 		.4byte	0x285
 967 0665 00       		.byte	0
 968 0666 08       		.uleb128 0x8
 969 0667 F8080000 		.4byte	.LASF100
ARM GAS  /var/folders/t8/16hdwfmd2fg_d3q6dgx6bpmw0000gn/T//cchzqc6D.s 			page 18


 970 066b 10       		.byte	0x10
 971 066c 3C       		.byte	0x3c
 972 066d 5B020000 		.4byte	0x25b
 973 0671 08       		.byte	0x8
 974 0672 08       		.uleb128 0x8
 975 0673 26010000 		.4byte	.LASF50
 976 0677 10       		.byte	0x10
 977 0678 3E       		.byte	0x3e
 978 0679 E1070000 		.4byte	0x7e1
 979 067d 0C       		.byte	0xc
 980 067e 00       		.byte	0
 981 067f 0C       		.uleb128 0xc
 982 0680 04       		.byte	0x4
 983 0681 4E060000 		.4byte	0x64e
 984 0685 0C       		.uleb128 0xc
 985 0686 04       		.byte	0x4
 986 0687 97060000 		.4byte	0x697
 987 068b 06       		.uleb128 0x6
 988 068c 85060000 		.4byte	0x685
 989 0690 04       		.uleb128 0x4
 990 0691 01       		.byte	0x1
 991 0692 08       		.byte	0x8
 992 0693 19090000 		.4byte	.LASF101
 993 0697 05       		.uleb128 0x5
 994 0698 90060000 		.4byte	0x690
 995 069c 0C       		.uleb128 0xc
 996 069d 04       		.byte	0x4
 997 069e 1F050000 		.4byte	0x51f
 998 06a2 0C       		.uleb128 0xc
 999 06a3 04       		.byte	0x4
 1000 06a4 3A030000 		.4byte	0x33a
 1001 06a8 17       		.uleb128 0x17
 1002 06a9 636800   		.ascii	"ch\000"
 1003 06ac 0A       		.byte	0xa
 1004 06ad D201     		.2byte	0x1d2
 1005 06af 21040000 		.4byte	0x421
 1006 06b3 18       		.uleb128 0x18
 1007 06b4 1F050000 		.4byte	0x51f
 1008 06b8 BE060000 		.4byte	0x6be
 1009 06bc 19       		.uleb128 0x19
 1010 06bd 00       		.byte	0
 1011 06be 1A       		.uleb128 0x1a
 1012 06bf 88080000 		.4byte	.LASF102
 1013 06c3 03       		.byte	0x3
 1014 06c4 2B01     		.2byte	0x12b
 1015 06c6 B3060000 		.4byte	0x6b3
 1016 06ca 13       		.uleb128 0x13
 1017 06cb 16       		.byte	0x16
 1018 06cc 11       		.byte	0x11
 1019 06cd 34       		.byte	0x34
 1020 06ce AB070000 		.4byte	0x7ab
 1021 06d2 08       		.uleb128 0x8
 1022 06d3 170A0000 		.4byte	.LASF103
 1023 06d7 11       		.byte	0x11
 1024 06d8 35       		.byte	0x35
 1025 06d9 AB070000 		.4byte	0x7ab
 1026 06dd 00       		.byte	0
ARM GAS  /var/folders/t8/16hdwfmd2fg_d3q6dgx6bpmw0000gn/T//cchzqc6D.s 			page 19


 1027 06de 08       		.uleb128 0x8
 1028 06df F4020000 		.4byte	.LASF104
 1029 06e3 11       		.byte	0x11
 1030 06e4 36       		.byte	0x36
 1031 06e5 AD000000 		.4byte	0xad
 1032 06e9 04       		.byte	0x4
 1033 06ea 08       		.uleb128 0x8
 1034 06eb 9C030000 		.4byte	.LASF105
 1035 06ef 11       		.byte	0x11
 1036 06f0 37       		.byte	0x37
 1037 06f1 AD000000 		.4byte	0xad
 1038 06f5 05       		.byte	0x5
 1039 06f6 08       		.uleb128 0x8
 1040 06f7 4D050000 		.4byte	.LASF106
 1041 06fb 11       		.byte	0x11
 1042 06fc 38       		.byte	0x38
 1043 06fd BD000000 		.4byte	0xbd
 1044 0701 06       		.byte	0x6
 1045 0702 08       		.uleb128 0x8
 1046 0703 490A0000 		.4byte	.LASF107
 1047 0707 11       		.byte	0x11
 1048 0708 39       		.byte	0x39
 1049 0709 AD000000 		.4byte	0xad
 1050 070d 08       		.byte	0x8
 1051 070e 08       		.uleb128 0x8
 1052 070f CE000000 		.4byte	.LASF108
 1053 0713 11       		.byte	0x11
 1054 0714 3A       		.byte	0x3a
 1055 0715 AD000000 		.4byte	0xad
 1056 0719 09       		.byte	0x9
 1057 071a 08       		.uleb128 0x8
 1058 071b BB070000 		.4byte	.LASF109
 1059 071f 11       		.byte	0x11
 1060 0720 3B       		.byte	0x3b
 1061 0721 AD000000 		.4byte	0xad
 1062 0725 0A       		.byte	0xa
 1063 0726 08       		.uleb128 0x8
 1064 0727 E2070000 		.4byte	.LASF110
 1065 072b 11       		.byte	0x11
 1066 072c 3C       		.byte	0x3c
 1067 072d AD000000 		.4byte	0xad
 1068 0731 0B       		.byte	0xb
 1069 0732 08       		.uleb128 0x8
 1070 0733 51040000 		.4byte	.LASF111
 1071 0737 11       		.byte	0x11
 1072 0738 3D       		.byte	0x3d
 1073 0739 AD000000 		.4byte	0xad
 1074 073d 0C       		.byte	0xc
 1075 073e 08       		.uleb128 0x8
 1076 073f AB050000 		.4byte	.LASF112
 1077 0743 11       		.byte	0x11
 1078 0744 3E       		.byte	0x3e
 1079 0745 AD000000 		.4byte	0xad
 1080 0749 0D       		.byte	0xd
 1081 074a 08       		.uleb128 0x8
 1082 074b D5090000 		.4byte	.LASF113
 1083 074f 11       		.byte	0x11
ARM GAS  /var/folders/t8/16hdwfmd2fg_d3q6dgx6bpmw0000gn/T//cchzqc6D.s 			page 20


 1084 0750 3F       		.byte	0x3f
 1085 0751 AD000000 		.4byte	0xad
 1086 0755 0E       		.byte	0xe
 1087 0756 08       		.uleb128 0x8
 1088 0757 0A080000 		.4byte	.LASF114
 1089 075b 11       		.byte	0x11
 1090 075c 40       		.byte	0x40
 1091 075d AD000000 		.4byte	0xad
 1092 0761 0F       		.byte	0xf
 1093 0762 08       		.uleb128 0x8
 1094 0763 EB070000 		.4byte	.LASF115
 1095 0767 11       		.byte	0x11
 1096 0768 41       		.byte	0x41
 1097 0769 AD000000 		.4byte	0xad
 1098 076d 10       		.byte	0x10
 1099 076e 08       		.uleb128 0x8
 1100 076f 170B0000 		.4byte	.LASF116
 1101 0773 11       		.byte	0x11
 1102 0774 42       		.byte	0x42
 1103 0775 AD000000 		.4byte	0xad
 1104 0779 11       		.byte	0x11
 1105 077a 08       		.uleb128 0x8
 1106 077b 270B0000 		.4byte	.LASF117
 1107 077f 11       		.byte	0x11
 1108 0780 43       		.byte	0x43
 1109 0781 AD000000 		.4byte	0xad
 1110 0785 12       		.byte	0x12
 1111 0786 08       		.uleb128 0x8
 1112 0787 A1030000 		.4byte	.LASF118
 1113 078b 11       		.byte	0x11
 1114 078c 44       		.byte	0x44
 1115 078d AD000000 		.4byte	0xad
 1116 0791 13       		.byte	0x13
 1117 0792 08       		.uleb128 0x8
 1118 0793 66020000 		.4byte	.LASF119
 1119 0797 11       		.byte	0x11
 1120 0798 45       		.byte	0x45
 1121 0799 AD000000 		.4byte	0xad
 1122 079d 14       		.byte	0x14
 1123 079e 08       		.uleb128 0x8
 1124 079f 7F080000 		.4byte	.LASF120
 1125 07a3 11       		.byte	0x11
 1126 07a4 46       		.byte	0x46
 1127 07a5 AD000000 		.4byte	0xad
 1128 07a9 15       		.byte	0x15
 1129 07aa 00       		.byte	0
 1130 07ab 18       		.uleb128 0x18
 1131 07ac 90060000 		.4byte	0x690
 1132 07b0 BB070000 		.4byte	0x7bb
 1133 07b4 1B       		.uleb128 0x1b
 1134 07b5 37000000 		.4byte	0x37
 1135 07b9 03       		.byte	0x3
 1136 07ba 00       		.byte	0
 1137 07bb 03       		.uleb128 0x3
 1138 07bc 4E070000 		.4byte	.LASF121
 1139 07c0 11       		.byte	0x11
 1140 07c1 47       		.byte	0x47
ARM GAS  /var/folders/t8/16hdwfmd2fg_d3q6dgx6bpmw0000gn/T//cchzqc6D.s 			page 21


 1141 07c2 CA060000 		.4byte	0x6ca
 1142 07c6 05       		.uleb128 0x5
 1143 07c7 BB070000 		.4byte	0x7bb
 1144 07cb 1C       		.uleb128 0x1c
 1145 07cc 55030000 		.4byte	.LASF122
 1146 07d0 11       		.byte	0x11
 1147 07d1 6C       		.byte	0x6c
 1148 07d2 C6070000 		.4byte	0x7c6
 1149 07d6 03       		.uleb128 0x3
 1150 07d7 F9020000 		.4byte	.LASF123
 1151 07db 10       		.byte	0x10
 1152 07dc 34       		.byte	0x34
 1153 07dd 4E060000 		.4byte	0x64e
 1154 07e1 0C       		.uleb128 0xc
 1155 07e2 04       		.byte	0x4
 1156 07e3 D6070000 		.4byte	0x7d6
 1157 07e7 0C       		.uleb128 0xc
 1158 07e8 04       		.byte	0x4
 1159 07e9 B8000000 		.4byte	0xb8
 1160 07ed 0C       		.uleb128 0xc
 1161 07ee 04       		.byte	0x4
 1162 07ef AD000000 		.4byte	0xad
 1163 07f3 04       		.uleb128 0x4
 1164 07f4 01       		.byte	0x1
 1165 07f5 02       		.byte	0x2
 1166 07f6 C6070000 		.4byte	.LASF124
 1167 07fa 03       		.uleb128 0x3
 1168 07fb 470B0000 		.4byte	.LASF125
 1169 07ff 12       		.byte	0x12
 1170 0800 46       		.byte	0x46
 1171 0801 D3000000 		.4byte	0xd3
 1172 0805 03       		.uleb128 0x3
 1173 0806 CA090000 		.4byte	.LASF126
 1174 080a 12       		.byte	0x12
 1175 080b 53       		.byte	0x53
 1176 080c 10080000 		.4byte	0x810
 1177 0810 0C       		.uleb128 0xc
 1178 0811 04       		.byte	0x4
 1179 0812 09050000 		.4byte	0x509
 1180 0816 13       		.uleb128 0x13
 1181 0817 84       		.byte	0x84
 1182 0818 12       		.byte	0x12
 1183 0819 5A       		.byte	0x5a
 1184 081a 37080000 		.4byte	0x837
 1185 081e 08       		.uleb128 0x8
 1186 081f AF090000 		.4byte	.LASF127
 1187 0823 12       		.byte	0x12
 1188 0824 5B       		.byte	0x5b
 1189 0825 05080000 		.4byte	0x805
 1190 0829 00       		.byte	0
 1191 082a 08       		.uleb128 0x8
 1192 082b 850B0000 		.4byte	.LASF128
 1193 082f 12       		.byte	0x12
 1194 0830 5C       		.byte	0x5c
 1195 0831 37080000 		.4byte	0x837
 1196 0835 04       		.byte	0x4
 1197 0836 00       		.byte	0
ARM GAS  /var/folders/t8/16hdwfmd2fg_d3q6dgx6bpmw0000gn/T//cchzqc6D.s 			page 22


 1198 0837 18       		.uleb128 0x18
 1199 0838 FA070000 		.4byte	0x7fa
 1200 083c 47080000 		.4byte	0x847
 1201 0840 1B       		.uleb128 0x1b
 1202 0841 37000000 		.4byte	0x37
 1203 0845 1F       		.byte	0x1f
 1204 0846 00       		.byte	0
 1205 0847 03       		.uleb128 0x3
 1206 0848 F1050000 		.4byte	.LASF129
 1207 084c 12       		.byte	0x12
 1208 084d 5D       		.byte	0x5d
 1209 084e 16080000 		.4byte	0x816
 1210 0852 1D       		.uleb128 0x1d
 1211 0853 9402     		.2byte	0x294
 1212 0855 12       		.byte	0x12
 1213 0856 68       		.byte	0x68
 1214 0857 68080000 		.4byte	0x868
 1215 085b 08       		.uleb128 0x8
 1216 085c 7C050000 		.4byte	.LASF130
 1217 0860 12       		.byte	0x12
 1218 0861 69       		.byte	0x69
 1219 0862 68080000 		.4byte	0x868
 1220 0866 00       		.byte	0
 1221 0867 00       		.byte	0
 1222 0868 18       		.uleb128 0x18
 1223 0869 47080000 		.4byte	0x847
 1224 086d 78080000 		.4byte	0x878
 1225 0871 1B       		.uleb128 0x1b
 1226 0872 37000000 		.4byte	0x37
 1227 0876 04       		.byte	0x4
 1228 0877 00       		.byte	0
 1229 0878 03       		.uleb128 0x3
 1230 0879 500B0000 		.4byte	.LASF131
 1231 087d 12       		.byte	0x12
 1232 087e 6A       		.byte	0x6a
 1233 087f 52080000 		.4byte	0x852
 1234 0883 05       		.uleb128 0x5
 1235 0884 78080000 		.4byte	0x878
 1236 0888 1A       		.uleb128 0x1a
 1237 0889 720B0000 		.4byte	.LASF132
 1238 088d 12       		.byte	0x12
 1239 088e 8D01     		.2byte	0x18d
 1240 0890 83080000 		.4byte	0x883
 1241 0894 12       		.uleb128 0x12
 1242 0895 D30A0000 		.4byte	.LASF133
 1243 0899 13       		.byte	0x13
 1244 089a 0001     		.2byte	0x100
 1245 089c A0080000 		.4byte	0x8a0
 1246 08a0 0D       		.uleb128 0xd
 1247 08a1 D30A0000 		.4byte	.LASF133
 1248 08a5 E8       		.byte	0xe8
 1249 08a6 14       		.byte	0x14
 1250 08a7 0601     		.2byte	0x106
 1251 08a9 8B090000 		.4byte	0x98b
 1252 08ad 0B       		.uleb128 0xb
 1253 08ae DD010000 		.4byte	.LASF36
 1254 08b2 14       		.byte	0x14
ARM GAS  /var/folders/t8/16hdwfmd2fg_d3q6dgx6bpmw0000gn/T//cchzqc6D.s 			page 23


 1255 08b3 0A01     		.2byte	0x10a
 1256 08b5 CA090000 		.4byte	0x9ca
 1257 08b9 00       		.byte	0
 1258 08ba 0B       		.uleb128 0xb
 1259 08bb 24090000 		.4byte	.LASF134
 1260 08bf 14       		.byte	0x14
 1261 08c0 0E01     		.2byte	0x10e
 1262 08c2 FE0C0000 		.4byte	0xcfe
 1263 08c6 04       		.byte	0x4
 1264 08c7 0B       		.uleb128 0xb
 1265 08c8 7C030000 		.4byte	.LASF135
 1266 08cc 14       		.byte	0x14
 1267 08cd 1201     		.2byte	0x112
 1268 08cf BD000000 		.4byte	0xbd
 1269 08d3 08       		.byte	0x8
 1270 08d4 0B       		.uleb128 0xb
 1271 08d5 DA040000 		.4byte	.LASF136
 1272 08d9 14       		.byte	0x14
 1273 08da 1601     		.2byte	0x116
 1274 08dc BD000000 		.4byte	0xbd
 1275 08e0 0A       		.byte	0xa
 1276 08e1 0A       		.uleb128 0xa
 1277 08e2 65706300 		.ascii	"epc\000"
 1278 08e6 14       		.byte	0x14
 1279 08e7 1A01     		.2byte	0x11a
 1280 08e9 040D0000 		.4byte	0xd04
 1281 08ed 0C       		.byte	0xc
 1282 08ee 0B       		.uleb128 0xb
 1283 08ef F20A0000 		.4byte	.LASF137
 1284 08f3 14       		.byte	0x14
 1285 08f4 2101     		.2byte	0x121
 1286 08f6 1A0D0000 		.4byte	0xd1a
 1287 08fa 4C       		.byte	0x4c
 1288 08fb 0B       		.uleb128 0xb
 1289 08fc E3010000 		.4byte	.LASF138
 1290 0900 14       		.byte	0x14
 1291 0901 2801     		.2byte	0x128
 1292 0903 1A0D0000 		.4byte	0xd1a
 1293 0907 88       		.byte	0x88
 1294 0908 0B       		.uleb128 0xb
 1295 0909 BE080000 		.4byte	.LASF139
 1296 090d 14       		.byte	0x14
 1297 090e 2C01     		.2byte	0x12c
 1298 0910 0F0A0000 		.4byte	0xa0f
 1299 0914 C4       		.byte	0xc4
 1300 0915 0B       		.uleb128 0xb
 1301 0916 F8070000 		.4byte	.LASF140
 1302 091a 14       		.byte	0x14
 1303 091b 3001     		.2byte	0x130
 1304 091d ED070000 		.4byte	0x7ed
 1305 0921 C8       		.byte	0xc8
 1306 0922 0B       		.uleb128 0xb
 1307 0923 B6070000 		.4byte	.LASF141
 1308 0927 14       		.byte	0x14
 1309 0928 3401     		.2byte	0x134
 1310 092a 2C000000 		.4byte	0x2c
 1311 092e CC       		.byte	0xcc
ARM GAS  /var/folders/t8/16hdwfmd2fg_d3q6dgx6bpmw0000gn/T//cchzqc6D.s 			page 24


 1312 092f 0B       		.uleb128 0xb
 1313 0930 7E010000 		.4byte	.LASF142
 1314 0934 14       		.byte	0x14
 1315 0935 3801     		.2byte	0x138
 1316 0937 950A0000 		.4byte	0xa95
 1317 093b D0       		.byte	0xd0
 1318 093c 0B       		.uleb128 0xb
 1319 093d E1050000 		.4byte	.LASF143
 1320 0941 14       		.byte	0x14
 1321 0942 3C01     		.2byte	0x13c
 1322 0944 2A0D0000 		.4byte	0xd2a
 1323 0948 D4       		.byte	0xd4
 1324 0949 0B       		.uleb128 0xb
 1325 094a 950A0000 		.4byte	.LASF144
 1326 094e 14       		.byte	0x14
 1327 094f 4001     		.2byte	0x140
 1328 0951 BD000000 		.4byte	0xbd
 1329 0955 DC       		.byte	0xdc
 1330 0956 0B       		.uleb128 0xb
 1331 0957 99050000 		.4byte	.LASF145
 1332 095b 14       		.byte	0x14
 1333 095c 4401     		.2byte	0x144
 1334 095e AD000000 		.4byte	0xad
 1335 0962 DE       		.byte	0xde
 1336 0963 0B       		.uleb128 0xb
 1337 0964 BD030000 		.4byte	.LASF146
 1338 0968 14       		.byte	0x14
 1339 0969 4801     		.2byte	0x148
 1340 096b AD000000 		.4byte	0xad
 1341 096f DF       		.byte	0xdf
 1342 0970 0B       		.uleb128 0xb
 1343 0971 55080000 		.4byte	.LASF147
 1344 0975 14       		.byte	0x14
 1345 0976 4C01     		.2byte	0x14c
 1346 0978 CA090000 		.4byte	0x9ca
 1347 097c E0       		.byte	0xe0
 1348 097d 0B       		.uleb128 0xb
 1349 097e 23070000 		.4byte	.LASF148
 1350 0982 14       		.byte	0x14
 1351 0983 5401     		.2byte	0x154
 1352 0985 D3000000 		.4byte	0xd3
 1353 0989 E4       		.byte	0xe4
 1354 098a 00       		.byte	0
 1355 098b 12       		.uleb128 0x12
 1356 098c 0B000000 		.4byte	.LASF149
 1357 0990 13       		.byte	0x13
 1358 0991 0501     		.2byte	0x105
 1359 0993 AD000000 		.4byte	0xad
 1360 0997 1E       		.uleb128 0x1e
 1361 0998 07       		.byte	0x7
 1362 0999 01       		.byte	0x1
 1363 099a 50000000 		.4byte	0x50
 1364 099e 13       		.byte	0x13
 1365 099f 0A01     		.2byte	0x10a
 1366 09a1 CA090000 		.4byte	0x9ca
 1367 09a5 1F       		.uleb128 0x1f
 1368 09a6 0F010000 		.4byte	.LASF150
ARM GAS  /var/folders/t8/16hdwfmd2fg_d3q6dgx6bpmw0000gn/T//cchzqc6D.s 			page 25


 1369 09aa 00       		.byte	0
 1370 09ab 1F       		.uleb128 0x1f
 1371 09ac 4C030000 		.4byte	.LASF151
 1372 09b0 01       		.byte	0x1
 1373 09b1 1F       		.uleb128 0x1f
 1374 09b2 AC070000 		.4byte	.LASF152
 1375 09b6 02       		.byte	0x2
 1376 09b7 1F       		.uleb128 0x1f
 1377 09b8 48080000 		.4byte	.LASF153
 1378 09bc 03       		.byte	0x3
 1379 09bd 1F       		.uleb128 0x1f
 1380 09be 26030000 		.4byte	.LASF154
 1381 09c2 04       		.byte	0x4
 1382 09c3 1F       		.uleb128 0x1f
 1383 09c4 310B0000 		.4byte	.LASF155
 1384 09c8 05       		.byte	0x5
 1385 09c9 00       		.byte	0
 1386 09ca 12       		.uleb128 0x12
 1387 09cb 36040000 		.4byte	.LASF156
 1388 09cf 13       		.byte	0x13
 1389 09d0 1101     		.2byte	0x111
 1390 09d2 97090000 		.4byte	0x997
 1391 09d6 1E       		.uleb128 0x1e
 1392 09d7 07       		.byte	0x7
 1393 09d8 01       		.byte	0x1
 1394 09d9 50000000 		.4byte	0x50
 1395 09dd 13       		.byte	0x13
 1396 09de 1F01     		.2byte	0x11f
 1397 09e0 0F0A0000 		.4byte	0xa0f
 1398 09e4 1F       		.uleb128 0x1f
 1399 09e5 B4090000 		.4byte	.LASF157
 1400 09e9 00       		.byte	0
 1401 09ea 1F       		.uleb128 0x1f
 1402 09eb 3C000000 		.4byte	.LASF158
 1403 09ef 01       		.byte	0x1
 1404 09f0 1F       		.uleb128 0x1f
 1405 09f1 99010000 		.4byte	.LASF159
 1406 09f5 02       		.byte	0x2
 1407 09f6 1F       		.uleb128 0x1f
 1408 09f7 72020000 		.4byte	.LASF160
 1409 09fb 03       		.byte	0x3
 1410 09fc 1F       		.uleb128 0x1f
 1411 09fd 54090000 		.4byte	.LASF161
 1412 0a01 04       		.byte	0x4
 1413 0a02 1F       		.uleb128 0x1f
 1414 0a03 55050000 		.4byte	.LASF162
 1415 0a07 05       		.byte	0x5
 1416 0a08 1F       		.uleb128 0x1f
 1417 0a09 CA010000 		.4byte	.LASF163
 1418 0a0d 06       		.byte	0x6
 1419 0a0e 00       		.byte	0
 1420 0a0f 12       		.uleb128 0x12
 1421 0a10 86020000 		.4byte	.LASF164
 1422 0a14 13       		.byte	0x13
 1423 0a15 2701     		.2byte	0x127
 1424 0a17 D6090000 		.4byte	0x9d6
 1425 0a1b 1E       		.uleb128 0x1e
ARM GAS  /var/folders/t8/16hdwfmd2fg_d3q6dgx6bpmw0000gn/T//cchzqc6D.s 			page 26


 1426 0a1c 07       		.byte	0x7
 1427 0a1d 01       		.byte	0x1
 1428 0a1e 50000000 		.4byte	0x50
 1429 0a22 13       		.byte	0x13
 1430 0a23 2C01     		.2byte	0x12c
 1431 0a25 540A0000 		.4byte	0xa54
 1432 0a29 1F       		.uleb128 0x1f
 1433 0a2a 620B0000 		.4byte	.LASF165
 1434 0a2e 00       		.byte	0
 1435 0a2f 1F       		.uleb128 0x1f
 1436 0a30 58070000 		.4byte	.LASF166
 1437 0a34 01       		.byte	0x1
 1438 0a35 1F       		.uleb128 0x1f
 1439 0a36 90090000 		.4byte	.LASF167
 1440 0a3a 02       		.byte	0x2
 1441 0a3b 1F       		.uleb128 0x1f
 1442 0a3c 81000000 		.4byte	.LASF168
 1443 0a40 03       		.byte	0x3
 1444 0a41 1F       		.uleb128 0x1f
 1445 0a42 AC080000 		.4byte	.LASF169
 1446 0a46 04       		.byte	0x4
 1447 0a47 1F       		.uleb128 0x1f
 1448 0a48 3C020000 		.4byte	.LASF170
 1449 0a4c 05       		.byte	0x5
 1450 0a4d 1F       		.uleb128 0x1f
 1451 0a4e AE020000 		.4byte	.LASF171
 1452 0a52 06       		.byte	0x6
 1453 0a53 00       		.byte	0
 1454 0a54 12       		.uleb128 0x12
 1455 0a55 56000000 		.4byte	.LASF172
 1456 0a59 13       		.byte	0x13
 1457 0a5a 3401     		.2byte	0x134
 1458 0a5c 1B0A0000 		.4byte	0xa1b
 1459 0a60 11       		.uleb128 0x11
 1460 0a61 08       		.byte	0x8
 1461 0a62 13       		.byte	0x13
 1462 0a63 3901     		.2byte	0x139
 1463 0a65 840A0000 		.4byte	0xa84
 1464 0a69 0B       		.uleb128 0xb
 1465 0a6a 37030000 		.4byte	.LASF173
 1466 0a6e 13       		.byte	0x13
 1467 0a6f 3D01     		.2byte	0x13d
 1468 0a71 2C000000 		.4byte	0x2c
 1469 0a75 00       		.byte	0
 1470 0a76 0B       		.uleb128 0xb
 1471 0a77 DC030000 		.4byte	.LASF174
 1472 0a7b 13       		.byte	0x13
 1473 0a7c 4101     		.2byte	0x141
 1474 0a7e E7070000 		.4byte	0x7e7
 1475 0a82 04       		.byte	0x4
 1476 0a83 00       		.byte	0
 1477 0a84 12       		.uleb128 0x12
 1478 0a85 3C010000 		.4byte	.LASF175
 1479 0a89 13       		.byte	0x13
 1480 0a8a 4201     		.2byte	0x142
 1481 0a8c 600A0000 		.4byte	0xa60
 1482 0a90 05       		.uleb128 0x5
ARM GAS  /var/folders/t8/16hdwfmd2fg_d3q6dgx6bpmw0000gn/T//cchzqc6D.s 			page 27


 1483 0a91 840A0000 		.4byte	0xa84
 1484 0a95 12       		.uleb128 0x12
 1485 0a96 69010000 		.4byte	.LASF176
 1486 0a9a 13       		.byte	0x13
 1487 0a9b 4A01     		.2byte	0x14a
 1488 0a9d A10A0000 		.4byte	0xaa1
 1489 0aa1 0C       		.uleb128 0xc
 1490 0aa2 04       		.byte	0x4
 1491 0aa3 A70A0000 		.4byte	0xaa7
 1492 0aa7 0E       		.uleb128 0xe
 1493 0aa8 B20A0000 		.4byte	0xab2
 1494 0aac 0F       		.uleb128 0xf
 1495 0aad B20A0000 		.4byte	0xab2
 1496 0ab1 00       		.byte	0
 1497 0ab2 0C       		.uleb128 0xc
 1498 0ab3 04       		.byte	0x4
 1499 0ab4 94080000 		.4byte	0x894
 1500 0ab8 12       		.uleb128 0x12
 1501 0ab9 9C0A0000 		.4byte	.LASF177
 1502 0abd 13       		.byte	0x13
 1503 0abe 5301     		.2byte	0x153
 1504 0ac0 C40A0000 		.4byte	0xac4
 1505 0ac4 0C       		.uleb128 0xc
 1506 0ac5 04       		.byte	0x4
 1507 0ac6 CA0A0000 		.4byte	0xaca
 1508 0aca 0E       		.uleb128 0xe
 1509 0acb DA0A0000 		.4byte	0xada
 1510 0acf 0F       		.uleb128 0xf
 1511 0ad0 B20A0000 		.4byte	0xab2
 1512 0ad4 0F       		.uleb128 0xf
 1513 0ad5 8B090000 		.4byte	0x98b
 1514 0ad9 00       		.byte	0
 1515 0ada 12       		.uleb128 0x12
 1516 0adb 2F020000 		.4byte	.LASF178
 1517 0adf 13       		.byte	0x13
 1518 0ae0 5C01     		.2byte	0x15c
 1519 0ae2 E60A0000 		.4byte	0xae6
 1520 0ae6 0C       		.uleb128 0xc
 1521 0ae7 04       		.byte	0x4
 1522 0ae8 EC0A0000 		.4byte	0xaec
 1523 0aec 0E       		.uleb128 0xe
 1524 0aed FC0A0000 		.4byte	0xafc
 1525 0af1 0F       		.uleb128 0xf
 1526 0af2 B20A0000 		.4byte	0xab2
 1527 0af6 0F       		.uleb128 0xf
 1528 0af7 540A0000 		.4byte	0xa54
 1529 0afb 00       		.byte	0
 1530 0afc 12       		.uleb128 0x12
 1531 0afd 41040000 		.4byte	.LASF179
 1532 0b01 13       		.byte	0x13
 1533 0b02 6801     		.2byte	0x168
 1534 0b04 080B0000 		.4byte	0xb08
 1535 0b08 0C       		.uleb128 0xc
 1536 0b09 04       		.byte	0x4
 1537 0b0a 0E0B0000 		.4byte	0xb0e
 1538 0b0e 20       		.uleb128 0x20
 1539 0b0f F3070000 		.4byte	0x7f3
ARM GAS  /var/folders/t8/16hdwfmd2fg_d3q6dgx6bpmw0000gn/T//cchzqc6D.s 			page 28


 1540 0b13 1D0B0000 		.4byte	0xb1d
 1541 0b17 0F       		.uleb128 0xf
 1542 0b18 B20A0000 		.4byte	0xab2
 1543 0b1c 00       		.byte	0
 1544 0b1d 12       		.uleb128 0x12
 1545 0b1e 01020000 		.4byte	.LASF180
 1546 0b22 13       		.byte	0x13
 1547 0b23 6D01     		.2byte	0x16d
 1548 0b25 290B0000 		.4byte	0xb29
 1549 0b29 0C       		.uleb128 0xc
 1550 0b2a 04       		.byte	0x4
 1551 0b2b 2F0B0000 		.4byte	0xb2f
 1552 0b2f 20       		.uleb128 0x20
 1553 0b30 4D0B0000 		.4byte	0xb4d
 1554 0b34 4D0B0000 		.4byte	0xb4d
 1555 0b38 0F       		.uleb128 0xf
 1556 0b39 B20A0000 		.4byte	0xab2
 1557 0b3d 0F       		.uleb128 0xf
 1558 0b3e AD000000 		.4byte	0xad
 1559 0b42 0F       		.uleb128 0xf
 1560 0b43 AD000000 		.4byte	0xad
 1561 0b47 0F       		.uleb128 0xf
 1562 0b48 BD000000 		.4byte	0xbd
 1563 0b4c 00       		.byte	0
 1564 0b4d 0C       		.uleb128 0xc
 1565 0b4e 04       		.byte	0x4
 1566 0b4f 900A0000 		.4byte	0xa90
 1567 0b53 13       		.uleb128 0x13
 1568 0b54 14       		.byte	0x14
 1569 0b55 14       		.byte	0x14
 1570 0b56 6B       		.byte	0x6b
 1571 0b57 A40B0000 		.4byte	0xba4
 1572 0b5b 08       		.uleb128 0x8
 1573 0b5c 77010000 		.4byte	.LASF181
 1574 0b60 14       		.byte	0x14
 1575 0b61 6F       		.byte	0x6f
 1576 0b62 2C000000 		.4byte	0x2c
 1577 0b66 00       		.byte	0
 1578 0b67 08       		.uleb128 0x8
 1579 0b68 3D0A0000 		.4byte	.LASF182
 1580 0b6c 14       		.byte	0x14
 1581 0b6d 73       		.byte	0x73
 1582 0b6e 2C000000 		.4byte	0x2c
 1583 0b72 04       		.byte	0x4
 1584 0b73 08       		.uleb128 0x8
 1585 0b74 31030000 		.4byte	.LASF183
 1586 0b78 14       		.byte	0x14
 1587 0b79 77       		.byte	0x77
 1588 0b7a E7070000 		.4byte	0x7e7
 1589 0b7e 08       		.byte	0x8
 1590 0b7f 08       		.uleb128 0x8
 1591 0b80 95030000 		.4byte	.LASF184
 1592 0b84 14       		.byte	0x14
 1593 0b85 7C       		.byte	0x7c
 1594 0b86 50020000 		.4byte	0x250
 1595 0b8a 0C       		.byte	0xc
 1596 0b8b 08       		.uleb128 0x8
ARM GAS  /var/folders/t8/16hdwfmd2fg_d3q6dgx6bpmw0000gn/T//cchzqc6D.s 			page 29


 1597 0b8c 7F070000 		.4byte	.LASF185
 1598 0b90 14       		.byte	0x14
 1599 0b91 80       		.byte	0x80
 1600 0b92 F3070000 		.4byte	0x7f3
 1601 0b96 10       		.byte	0x10
 1602 0b97 08       		.uleb128 0x8
 1603 0b98 F7010000 		.4byte	.LASF186
 1604 0b9c 14       		.byte	0x14
 1605 0b9d 82       		.byte	0x82
 1606 0b9e F3070000 		.4byte	0x7f3
 1607 0ba2 11       		.byte	0x11
 1608 0ba3 00       		.byte	0
 1609 0ba4 03       		.uleb128 0x3
 1610 0ba5 AC0A0000 		.4byte	.LASF187
 1611 0ba9 14       		.byte	0x14
 1612 0baa 83       		.byte	0x83
 1613 0bab 530B0000 		.4byte	0xb53
 1614 0baf 13       		.uleb128 0x13
 1615 0bb0 14       		.byte	0x14
 1616 0bb1 14       		.byte	0x14
 1617 0bb2 88       		.byte	0x88
 1618 0bb3 0C0C0000 		.4byte	0xc0c
 1619 0bb7 08       		.uleb128 0x8
 1620 0bb8 E50A0000 		.4byte	.LASF188
 1621 0bbc 14       		.byte	0x14
 1622 0bbd 8C       		.byte	0x8c
 1623 0bbe 2C000000 		.4byte	0x2c
 1624 0bc2 00       		.byte	0
 1625 0bc3 08       		.uleb128 0x8
 1626 0bc4 00000000 		.4byte	.LASF189
 1627 0bc8 14       		.byte	0x14
 1628 0bc9 90       		.byte	0x90
 1629 0bca 2C000000 		.4byte	0x2c
 1630 0bce 04       		.byte	0x4
 1631 0bcf 08       		.uleb128 0x8
 1632 0bd0 98000000 		.4byte	.LASF190
 1633 0bd4 14       		.byte	0x14
 1634 0bd5 94       		.byte	0x94
 1635 0bd6 ED070000 		.4byte	0x7ed
 1636 0bda 08       		.byte	0x8
 1637 0bdb 08       		.uleb128 0x8
 1638 0bdc 95030000 		.4byte	.LASF184
 1639 0be0 14       		.byte	0x14
 1640 0be1 99       		.byte	0x99
 1641 0be2 50020000 		.4byte	0x250
 1642 0be6 0C       		.byte	0xc
 1643 0be7 08       		.uleb128 0x8
 1644 0be8 41080000 		.4byte	.LASF191
 1645 0bec 14       		.byte	0x14
 1646 0bed 9F       		.byte	0x9f
 1647 0bee BD000000 		.4byte	0xbd
 1648 0bf2 10       		.byte	0x10
 1649 0bf3 08       		.uleb128 0x8
 1650 0bf4 7F070000 		.4byte	.LASF185
 1651 0bf8 14       		.byte	0x14
 1652 0bf9 A1       		.byte	0xa1
 1653 0bfa F3070000 		.4byte	0x7f3
ARM GAS  /var/folders/t8/16hdwfmd2fg_d3q6dgx6bpmw0000gn/T//cchzqc6D.s 			page 30


 1654 0bfe 12       		.byte	0x12
 1655 0bff 08       		.uleb128 0x8
 1656 0c00 F7010000 		.4byte	.LASF186
 1657 0c04 14       		.byte	0x14
 1658 0c05 A3       		.byte	0xa3
 1659 0c06 F3070000 		.4byte	0x7f3
 1660 0c0a 13       		.byte	0x13
 1661 0c0b 00       		.byte	0
 1662 0c0c 03       		.uleb128 0x3
 1663 0c0d BF0A0000 		.4byte	.LASF192
 1664 0c11 14       		.byte	0x14
 1665 0c12 A4       		.byte	0xa4
 1666 0c13 AF0B0000 		.4byte	0xbaf
 1667 0c17 13       		.uleb128 0x13
 1668 0c18 24       		.byte	0x24
 1669 0c19 14       		.byte	0x14
 1670 0c1a AA       		.byte	0xaa
 1671 0c1b 980C0000 		.4byte	0xc98
 1672 0c1f 08       		.uleb128 0x8
 1673 0c20 350A0000 		.4byte	.LASF193
 1674 0c24 14       		.byte	0x14
 1675 0c25 AE       		.byte	0xae
 1676 0c26 D3000000 		.4byte	0xd3
 1677 0c2a 00       		.byte	0
 1678 0c2b 08       		.uleb128 0x8
 1679 0c2c 88070000 		.4byte	.LASF194
 1680 0c30 14       		.byte	0x14
 1681 0c31 B9       		.byte	0xb9
 1682 0c32 B80A0000 		.4byte	0xab8
 1683 0c36 04       		.byte	0x4
 1684 0c37 08       		.uleb128 0x8
 1685 0c38 89030000 		.4byte	.LASF195
 1686 0c3c 14       		.byte	0x14
 1687 0c3d BE       		.byte	0xbe
 1688 0c3e B80A0000 		.4byte	0xab8
 1689 0c42 08       		.byte	0x8
 1690 0c43 08       		.uleb128 0x8
 1691 0c44 22020000 		.4byte	.LASF196
 1692 0c48 14       		.byte	0x14
 1693 0c49 C3       		.byte	0xc3
 1694 0c4a B80A0000 		.4byte	0xab8
 1695 0c4e 0C       		.byte	0xc
 1696 0c4f 08       		.uleb128 0x8
 1697 0c50 2A070000 		.4byte	.LASF197
 1698 0c54 14       		.byte	0x14
 1699 0c55 C8       		.byte	0xc8
 1700 0c56 BD000000 		.4byte	0xbd
 1701 0c5a 10       		.byte	0x10
 1702 0c5b 08       		.uleb128 0x8
 1703 0c5c 33050000 		.4byte	.LASF198
 1704 0c60 14       		.byte	0x14
 1705 0c61 CD       		.byte	0xcd
 1706 0c62 BD000000 		.4byte	0xbd
 1707 0c66 12       		.byte	0x12
 1708 0c67 08       		.uleb128 0x8
 1709 0c68 10090000 		.4byte	.LASF199
 1710 0c6c 14       		.byte	0x14
ARM GAS  /var/folders/t8/16hdwfmd2fg_d3q6dgx6bpmw0000gn/T//cchzqc6D.s 			page 31


 1711 0c6d D3       		.byte	0xd3
 1712 0c6e 980C0000 		.4byte	0xc98
 1713 0c72 14       		.byte	0x14
 1714 0c73 08       		.uleb128 0x8
 1715 0c74 A1050000 		.4byte	.LASF200
 1716 0c78 14       		.byte	0x14
 1717 0c79 D9       		.byte	0xd9
 1718 0c7a 9E0C0000 		.4byte	0xc9e
 1719 0c7e 18       		.byte	0x18
 1720 0c7f 08       		.uleb128 0x8
 1721 0c80 43070000 		.4byte	.LASF201
 1722 0c84 14       		.byte	0x14
 1723 0c85 DF       		.byte	0xdf
 1724 0c86 BD000000 		.4byte	0xbd
 1725 0c8a 1C       		.byte	0x1c
 1726 0c8b 08       		.uleb128 0x8
 1727 0c8c B5050000 		.4byte	.LASF202
 1728 0c90 14       		.byte	0x14
 1729 0c91 E5       		.byte	0xe5
 1730 0c92 ED070000 		.4byte	0x7ed
 1731 0c96 20       		.byte	0x20
 1732 0c97 00       		.byte	0
 1733 0c98 0C       		.uleb128 0xc
 1734 0c99 04       		.byte	0x4
 1735 0c9a A40B0000 		.4byte	0xba4
 1736 0c9e 0C       		.uleb128 0xc
 1737 0c9f 04       		.byte	0x4
 1738 0ca0 0C0C0000 		.4byte	0xc0c
 1739 0ca4 03       		.uleb128 0x3
 1740 0ca5 1D060000 		.4byte	.LASF203
 1741 0ca9 14       		.byte	0x14
 1742 0caa E6       		.byte	0xe6
 1743 0cab 170C0000 		.4byte	0xc17
 1744 0caf 05       		.uleb128 0x5
 1745 0cb0 A40C0000 		.4byte	0xca4
 1746 0cb4 13       		.uleb128 0x13
 1747 0cb5 10       		.byte	0x10
 1748 0cb6 14       		.byte	0x14
 1749 0cb7 EB       		.byte	0xeb
 1750 0cb8 ED0C0000 		.4byte	0xced
 1751 0cbc 08       		.uleb128 0x8
 1752 0cbd AA030000 		.4byte	.LASF204
 1753 0cc1 14       		.byte	0x14
 1754 0cc2 F0       		.byte	0xf0
 1755 0cc3 DA0A0000 		.4byte	0xada
 1756 0cc7 00       		.byte	0
 1757 0cc8 08       		.uleb128 0x8
 1758 0cc9 9A080000 		.4byte	.LASF205
 1759 0ccd 14       		.byte	0x14
 1760 0cce F5       		.byte	0xf5
 1761 0ccf 1D0B0000 		.4byte	0xb1d
 1762 0cd3 04       		.byte	0x4
 1763 0cd4 08       		.uleb128 0x8
 1764 0cd5 03050000 		.4byte	.LASF206
 1765 0cd9 14       		.byte	0x14
 1766 0cda FB       		.byte	0xfb
 1767 0cdb FC0A0000 		.4byte	0xafc
ARM GAS  /var/folders/t8/16hdwfmd2fg_d3q6dgx6bpmw0000gn/T//cchzqc6D.s 			page 32


 1768 0cdf 08       		.byte	0x8
 1769 0ce0 08       		.uleb128 0x8
 1770 0ce1 0E060000 		.4byte	.LASF207
 1771 0ce5 14       		.byte	0x14
 1772 0ce6 FF       		.byte	0xff
 1773 0ce7 950A0000 		.4byte	0xa95
 1774 0ceb 0C       		.byte	0xc
 1775 0cec 00       		.byte	0
 1776 0ced 12       		.uleb128 0x12
 1777 0cee C7080000 		.4byte	.LASF208
 1778 0cf2 14       		.byte	0x14
 1779 0cf3 0101     		.2byte	0x101
 1780 0cf5 B40C0000 		.4byte	0xcb4
 1781 0cf9 05       		.uleb128 0x5
 1782 0cfa ED0C0000 		.4byte	0xced
 1783 0cfe 0C       		.uleb128 0xc
 1784 0cff 04       		.byte	0x4
 1785 0d00 F90C0000 		.4byte	0xcf9
 1786 0d04 18       		.uleb128 0x18
 1787 0d05 140D0000 		.4byte	0xd14
 1788 0d09 140D0000 		.4byte	0xd14
 1789 0d0d 1B       		.uleb128 0x1b
 1790 0d0e 37000000 		.4byte	0x37
 1791 0d12 0F       		.byte	0xf
 1792 0d13 00       		.byte	0
 1793 0d14 0C       		.uleb128 0xc
 1794 0d15 04       		.byte	0x4
 1795 0d16 AF0C0000 		.4byte	0xcaf
 1796 0d1a 18       		.uleb128 0x18
 1797 0d1b 38030000 		.4byte	0x338
 1798 0d1f 2A0D0000 		.4byte	0xd2a
 1799 0d23 1B       		.uleb128 0x1b
 1800 0d24 37000000 		.4byte	0x37
 1801 0d28 0E       		.byte	0xe
 1802 0d29 00       		.byte	0
 1803 0d2a 18       		.uleb128 0x18
 1804 0d2b AD000000 		.4byte	0xad
 1805 0d2f 3A0D0000 		.4byte	0xd3a
 1806 0d33 1B       		.uleb128 0x1b
 1807 0d34 37000000 		.4byte	0x37
 1808 0d38 07       		.byte	0x7
 1809 0d39 00       		.byte	0
 1810 0d3a 1A       		.uleb128 0x1a
 1811 0d3b BF000000 		.4byte	.LASF209
 1812 0d3f 14       		.byte	0x14
 1813 0d40 9201     		.2byte	0x192
 1814 0d42 94080000 		.4byte	0x894
 1815 0d46 21       		.uleb128 0x21
 1816 0d47 1A010000 		.4byte	.LASF210
 1817 0d4b 01       		.byte	0x1
 1818 0d4c 51       		.byte	0x51
 1819 0d4d 00000000 		.4byte	.LFB175
 1820 0d51 24000000 		.4byte	.LFE175-.LFB175
 1821 0d55 01       		.uleb128 0x1
 1822 0d56 9C       		.byte	0x9c
 1823 0d57 700D0000 		.4byte	0xd70
 1824 0d5b 22       		.uleb128 0x22
ARM GAS  /var/folders/t8/16hdwfmd2fg_d3q6dgx6bpmw0000gn/T//cchzqc6D.s 			page 33


 1825 0d5c 18000000 		.4byte	.LVL7
 1826 0d60 F90E0000 		.4byte	0xef9
 1827 0d64 23       		.uleb128 0x23
 1828 0d65 01       		.uleb128 0x1
 1829 0d66 50       		.byte	0x50
 1830 0d67 01       		.uleb128 0x1
 1831 0d68 3B       		.byte	0x3b
 1832 0d69 23       		.uleb128 0x23
 1833 0d6a 01       		.uleb128 0x1
 1834 0d6b 51       		.byte	0x51
 1835 0d6c 01       		.uleb128 0x1
 1836 0d6d 38       		.byte	0x38
 1837 0d6e 00       		.byte	0
 1838 0d6f 00       		.byte	0
 1839 0d70 21       		.uleb128 0x21
 1840 0d71 D8080000 		.4byte	.LASF211
 1841 0d75 01       		.byte	0x1
 1842 0d76 3C       		.byte	0x3c
 1843 0d77 00000000 		.4byte	.LFB174
 1844 0d7b 24000000 		.4byte	.LFE174-.LFB174
 1845 0d7f 01       		.uleb128 0x1
 1846 0d80 9C       		.byte	0x9c
 1847 0d81 980E0000 		.4byte	0xe98
 1848 0d85 24       		.uleb128 0x24
 1849 0d86 E7050000 		.4byte	.LASF233
 1850 0d8a 01       		.byte	0x1
 1851 0d8b 3E       		.byte	0x3e
 1852 0d8c 14050000 		.4byte	0x514
 1853 0d90 25       		.uleb128 0x25
 1854 0d91 AA0E0000 		.4byte	0xeaa
 1855 0d95 08000000 		.4byte	.LBB54
 1856 0d99 06000000 		.4byte	.LBE54-.LBB54
 1857 0d9d 01       		.byte	0x1
 1858 0d9e 40       		.byte	0x40
 1859 0d9f F40D0000 		.4byte	0xdf4
 1860 0da3 26       		.uleb128 0x26
 1861 0da4 BC0E0000 		.4byte	0xebc
 1862 0da8 08000000 		.4byte	.LBB55
 1863 0dac 06000000 		.4byte	.LBE55-.LBB55
 1864 0db0 04       		.byte	0x4
 1865 0db1 0302     		.2byte	0x203
 1866 0db3 27       		.uleb128 0x27
 1867 0db4 CE0E0000 		.4byte	0xece
 1868 0db8 08000000 		.4byte	.LBB57
 1869 0dbc 02000000 		.4byte	.LBE57-.LBB57
 1870 0dc0 03       		.byte	0x3
 1871 0dc1 A001     		.2byte	0x1a0
 1872 0dc3 E90D0000 		.4byte	0xde9
 1873 0dc7 26       		.uleb128 0x26
 1874 0dc8 E00E0000 		.4byte	0xee0
 1875 0dcc 08000000 		.4byte	.LBB58
 1876 0dd0 02000000 		.4byte	.LBE58-.LBB58
 1877 0dd4 0E       		.byte	0xe
 1878 0dd5 8801     		.2byte	0x188
 1879 0dd7 28       		.uleb128 0x28
 1880 0dd8 E90E0000 		.4byte	0xee9
 1881 0ddc 08000000 		.4byte	.LBB59
ARM GAS  /var/folders/t8/16hdwfmd2fg_d3q6dgx6bpmw0000gn/T//cchzqc6D.s 			page 34


 1882 0de0 02000000 		.4byte	.LBE59-.LBB59
 1883 0de4 0E       		.byte	0xe
 1884 0de5 7501     		.2byte	0x175
 1885 0de7 00       		.byte	0
 1886 0de8 00       		.byte	0
 1887 0de9 29       		.uleb128 0x29
 1888 0dea 0E000000 		.4byte	.LVL2
 1889 0dee 040F0000 		.4byte	0xf04
 1890 0df2 00       		.byte	0
 1891 0df3 00       		.byte	0
 1892 0df4 25       		.uleb128 0x25
 1893 0df5 980E0000 		.4byte	0xe98
 1894 0df9 0E000000 		.4byte	.LBB61
 1895 0dfd 04000000 		.4byte	.LBE61-.LBB61
 1896 0e01 01       		.byte	0x1
 1897 0e02 41       		.byte	0x41
 1898 0e03 110E0000 		.4byte	0xe11
 1899 0e07 29       		.uleb128 0x29
 1900 0e08 12000000 		.4byte	.LVL3
 1901 0e0c 0F0F0000 		.4byte	0xf0f
 1902 0e10 00       		.byte	0
 1903 0e11 25       		.uleb128 0x25
 1904 0e12 A10E0000 		.4byte	0xea1
 1905 0e16 12000000 		.4byte	.LBB63
 1906 0e1a 06000000 		.4byte	.LBE63-.LBB63
 1907 0e1e 01       		.byte	0x1
 1908 0e1f 42       		.byte	0x42
 1909 0e20 750E0000 		.4byte	0xe75
 1910 0e24 26       		.uleb128 0x26
 1911 0e25 B30E0000 		.4byte	0xeb3
 1912 0e29 12000000 		.4byte	.LBB64
 1913 0e2d 06000000 		.4byte	.LBE64-.LBB64
 1914 0e31 04       		.byte	0x4
 1915 0e32 0E02     		.2byte	0x20e
 1916 0e34 27       		.uleb128 0x27
 1917 0e35 C50E0000 		.4byte	0xec5
 1918 0e39 16000000 		.4byte	.LBB66
 1919 0e3d 02000000 		.4byte	.LBE66-.LBB66
 1920 0e41 03       		.byte	0x3
 1921 0e42 B601     		.2byte	0x1b6
 1922 0e44 6A0E0000 		.4byte	0xe6a
 1923 0e48 26       		.uleb128 0x26
 1924 0e49 D70E0000 		.4byte	0xed7
 1925 0e4d 16000000 		.4byte	.LBB67
 1926 0e51 02000000 		.4byte	.LBE67-.LBB67
 1927 0e55 0E       		.byte	0xe
 1928 0e56 9201     		.2byte	0x192
 1929 0e58 28       		.uleb128 0x28
 1930 0e59 F10E0000 		.4byte	0xef1
 1931 0e5d 16000000 		.4byte	.LBB68
 1932 0e61 02000000 		.4byte	.LBE68-.LBB68
 1933 0e65 0E       		.byte	0xe
 1934 0e66 7E01     		.2byte	0x17e
 1935 0e68 00       		.byte	0
 1936 0e69 00       		.byte	0
 1937 0e6a 29       		.uleb128 0x29
 1938 0e6b 16000000 		.4byte	.LVL4
ARM GAS  /var/folders/t8/16hdwfmd2fg_d3q6dgx6bpmw0000gn/T//cchzqc6D.s 			page 35


 1939 0e6f 1B0F0000 		.4byte	0xf1b
 1940 0e73 00       		.byte	0
 1941 0e74 00       		.byte	0
 1942 0e75 29       		.uleb128 0x29
 1943 0e76 08000000 		.4byte	.LVL1
 1944 0e7a 260F0000 		.4byte	0xf26
 1945 0e7e 29       		.uleb128 0x29
 1946 0e7f 1C000000 		.4byte	.LVL5
 1947 0e83 310F0000 		.4byte	0xf31
 1948 0e87 22       		.uleb128 0x22
 1949 0e88 22000000 		.4byte	.LVL6
 1950 0e8c 3C0F0000 		.4byte	0xf3c
 1951 0e90 23       		.uleb128 0x23
 1952 0e91 01       		.uleb128 0x1
 1953 0e92 50       		.byte	0x50
 1954 0e93 02       		.uleb128 0x2
 1955 0e94 74       		.byte	0x74
 1956 0e95 00       		.sleb128 0
 1957 0e96 00       		.byte	0
 1958 0e97 00       		.byte	0
 1959 0e98 2A       		.uleb128 0x2a
 1960 0e99 1F050000 		.4byte	.LASF212
 1961 0e9d 04       		.byte	0x4
 1962 0e9e 4702     		.2byte	0x247
 1963 0ea0 03       		.byte	0x3
 1964 0ea1 2A       		.uleb128 0x2a
 1965 0ea2 FA000000 		.4byte	.LASF213
 1966 0ea6 04       		.byte	0x4
 1967 0ea7 0C02     		.2byte	0x20c
 1968 0ea9 03       		.byte	0x3
 1969 0eaa 2A       		.uleb128 0x2a
 1970 0eab C9020000 		.4byte	.LASF214
 1971 0eaf 04       		.byte	0x4
 1972 0eb0 0102     		.2byte	0x201
 1973 0eb2 03       		.byte	0x3
 1974 0eb3 2A       		.uleb128 0x2a
 1975 0eb4 99070000 		.4byte	.LASF215
 1976 0eb8 03       		.byte	0x3
 1977 0eb9 B201     		.2byte	0x1b2
 1978 0ebb 03       		.byte	0x3
 1979 0ebc 2A       		.uleb128 0x2a
 1980 0ebd 70000000 		.4byte	.LASF216
 1981 0ec1 03       		.byte	0x3
 1982 0ec2 9E01     		.2byte	0x19e
 1983 0ec4 03       		.byte	0x3
 1984 0ec5 2A       		.uleb128 0x2a
 1985 0ec6 36090000 		.4byte	.LASF217
 1986 0eca 0E       		.byte	0xe
 1987 0ecb 9001     		.2byte	0x190
 1988 0ecd 03       		.byte	0x3
 1989 0ece 2A       		.uleb128 0x2a
 1990 0ecf 220A0000 		.4byte	.LASF218
 1991 0ed3 0E       		.byte	0xe
 1992 0ed4 8601     		.2byte	0x186
 1993 0ed6 03       		.byte	0x3
 1994 0ed7 2A       		.uleb128 0x2a
 1995 0ed8 B4010000 		.4byte	.LASF219
ARM GAS  /var/folders/t8/16hdwfmd2fg_d3q6dgx6bpmw0000gn/T//cchzqc6D.s 			page 36


 1996 0edc 0E       		.byte	0xe
 1997 0edd 7C01     		.2byte	0x17c
 1998 0edf 03       		.byte	0x3
 1999 0ee0 2A       		.uleb128 0x2a
 2000 0ee1 9E000000 		.4byte	.LASF220
 2001 0ee5 0E       		.byte	0xe
 2002 0ee6 7301     		.2byte	0x173
 2003 0ee8 03       		.byte	0x3
 2004 0ee9 2B       		.uleb128 0x2b
 2005 0eea 35070000 		.4byte	.LASF221
 2006 0eee 02       		.byte	0x2
 2007 0eef 45       		.byte	0x45
 2008 0ef0 03       		.byte	0x3
 2009 0ef1 2B       		.uleb128 0x2b
 2010 0ef2 01060000 		.4byte	.LASF222
 2011 0ef6 02       		.byte	0x2
 2012 0ef7 3A       		.byte	0x3a
 2013 0ef8 03       		.byte	0x3
 2014 0ef9 2C       		.uleb128 0x2c
 2015 0efa 13080000 		.4byte	.LASF223
 2016 0efe 13080000 		.4byte	.LASF223
 2017 0f02 15       		.byte	0x15
 2018 0f03 50       		.byte	0x50
 2019 0f04 2C       		.uleb128 0x2c
 2020 0f05 F2090000 		.4byte	.LASF224
 2021 0f09 F2090000 		.4byte	.LASF224
 2022 0f0d 16       		.byte	0x16
 2023 0f0e 98       		.byte	0x98
 2024 0f0f 2D       		.uleb128 0x2d
 2025 0f10 69090000 		.4byte	.LASF225
 2026 0f14 69090000 		.4byte	.LASF225
 2027 0f18 03       		.byte	0x3
 2028 0f19 3401     		.2byte	0x134
 2029 0f1b 2C       		.uleb128 0x2c
 2030 0f1c 510A0000 		.4byte	.LASF226
 2031 0f20 510A0000 		.4byte	.LASF226
 2032 0f24 16       		.byte	0x16
 2033 0f25 99       		.byte	0x99
 2034 0f26 2C       		.uleb128 0x2c
 2035 0f27 BF050000 		.4byte	.LASF227
 2036 0f2b BF050000 		.4byte	.LASF227
 2037 0f2f 16       		.byte	0x16
 2038 0f30 9A       		.byte	0x9a
 2039 0f31 2C       		.uleb128 0x2c
 2040 0f32 EE040000 		.4byte	.LASF228
 2041 0f36 EE040000 		.4byte	.LASF228
 2042 0f3a 16       		.byte	0x16
 2043 0f3b 9B       		.byte	0x9b
 2044 0f3c 2D       		.uleb128 0x2d
 2045 0f3d 5E030000 		.4byte	.LASF229
 2046 0f41 5E030000 		.4byte	.LASF229
 2047 0f45 0E       		.byte	0xe
 2048 0f46 3601     		.2byte	0x136
 2049 0f48 00       		.byte	0
 2050              		.section	.debug_abbrev,"",%progbits
 2051              	.Ldebug_abbrev0:
 2052 0000 01       		.uleb128 0x1
ARM GAS  /var/folders/t8/16hdwfmd2fg_d3q6dgx6bpmw0000gn/T//cchzqc6D.s 			page 37


 2053 0001 11       		.uleb128 0x11
 2054 0002 01       		.byte	0x1
 2055 0003 25       		.uleb128 0x25
 2056 0004 0E       		.uleb128 0xe
 2057 0005 13       		.uleb128 0x13
 2058 0006 0B       		.uleb128 0xb
 2059 0007 03       		.uleb128 0x3
 2060 0008 0E       		.uleb128 0xe
 2061 0009 1B       		.uleb128 0x1b
 2062 000a 0E       		.uleb128 0xe
 2063 000b 55       		.uleb128 0x55
 2064 000c 17       		.uleb128 0x17
 2065 000d 11       		.uleb128 0x11
 2066 000e 01       		.uleb128 0x1
 2067 000f 10       		.uleb128 0x10
 2068 0010 17       		.uleb128 0x17
 2069 0011 00       		.byte	0
 2070 0012 00       		.byte	0
 2071 0013 02       		.uleb128 0x2
 2072 0014 24       		.uleb128 0x24
 2073 0015 00       		.byte	0
 2074 0016 0B       		.uleb128 0xb
 2075 0017 0B       		.uleb128 0xb
 2076 0018 3E       		.uleb128 0x3e
 2077 0019 0B       		.uleb128 0xb
 2078 001a 03       		.uleb128 0x3
 2079 001b 08       		.uleb128 0x8
 2080 001c 00       		.byte	0
 2081 001d 00       		.byte	0
 2082 001e 03       		.uleb128 0x3
 2083 001f 16       		.uleb128 0x16
 2084 0020 00       		.byte	0
 2085 0021 03       		.uleb128 0x3
 2086 0022 0E       		.uleb128 0xe
 2087 0023 3A       		.uleb128 0x3a
 2088 0024 0B       		.uleb128 0xb
 2089 0025 3B       		.uleb128 0x3b
 2090 0026 0B       		.uleb128 0xb
 2091 0027 49       		.uleb128 0x49
 2092 0028 13       		.uleb128 0x13
 2093 0029 00       		.byte	0
 2094 002a 00       		.byte	0
 2095 002b 04       		.uleb128 0x4
 2096 002c 24       		.uleb128 0x24
 2097 002d 00       		.byte	0
 2098 002e 0B       		.uleb128 0xb
 2099 002f 0B       		.uleb128 0xb
 2100 0030 3E       		.uleb128 0x3e
 2101 0031 0B       		.uleb128 0xb
 2102 0032 03       		.uleb128 0x3
 2103 0033 0E       		.uleb128 0xe
 2104 0034 00       		.byte	0
 2105 0035 00       		.byte	0
 2106 0036 05       		.uleb128 0x5
 2107 0037 26       		.uleb128 0x26
 2108 0038 00       		.byte	0
 2109 0039 49       		.uleb128 0x49
ARM GAS  /var/folders/t8/16hdwfmd2fg_d3q6dgx6bpmw0000gn/T//cchzqc6D.s 			page 38


 2110 003a 13       		.uleb128 0x13
 2111 003b 00       		.byte	0
 2112 003c 00       		.byte	0
 2113 003d 06       		.uleb128 0x6
 2114 003e 35       		.uleb128 0x35
 2115 003f 00       		.byte	0
 2116 0040 49       		.uleb128 0x49
 2117 0041 13       		.uleb128 0x13
 2118 0042 00       		.byte	0
 2119 0043 00       		.byte	0
 2120 0044 07       		.uleb128 0x7
 2121 0045 13       		.uleb128 0x13
 2122 0046 01       		.byte	0x1
 2123 0047 03       		.uleb128 0x3
 2124 0048 0E       		.uleb128 0xe
 2125 0049 0B       		.uleb128 0xb
 2126 004a 0B       		.uleb128 0xb
 2127 004b 3A       		.uleb128 0x3a
 2128 004c 0B       		.uleb128 0xb
 2129 004d 3B       		.uleb128 0x3b
 2130 004e 0B       		.uleb128 0xb
 2131 004f 01       		.uleb128 0x1
 2132 0050 13       		.uleb128 0x13
 2133 0051 00       		.byte	0
 2134 0052 00       		.byte	0
 2135 0053 08       		.uleb128 0x8
 2136 0054 0D       		.uleb128 0xd
 2137 0055 00       		.byte	0
 2138 0056 03       		.uleb128 0x3
 2139 0057 0E       		.uleb128 0xe
 2140 0058 3A       		.uleb128 0x3a
 2141 0059 0B       		.uleb128 0xb
 2142 005a 3B       		.uleb128 0x3b
 2143 005b 0B       		.uleb128 0xb
 2144 005c 49       		.uleb128 0x49
 2145 005d 13       		.uleb128 0x13
 2146 005e 38       		.uleb128 0x38
 2147 005f 0B       		.uleb128 0xb
 2148 0060 00       		.byte	0
 2149 0061 00       		.byte	0
 2150 0062 09       		.uleb128 0x9
 2151 0063 0D       		.uleb128 0xd
 2152 0064 00       		.byte	0
 2153 0065 03       		.uleb128 0x3
 2154 0066 08       		.uleb128 0x8
 2155 0067 3A       		.uleb128 0x3a
 2156 0068 0B       		.uleb128 0xb
 2157 0069 3B       		.uleb128 0x3b
 2158 006a 0B       		.uleb128 0xb
 2159 006b 49       		.uleb128 0x49
 2160 006c 13       		.uleb128 0x13
 2161 006d 38       		.uleb128 0x38
 2162 006e 0B       		.uleb128 0xb
 2163 006f 00       		.byte	0
 2164 0070 00       		.byte	0
 2165 0071 0A       		.uleb128 0xa
 2166 0072 0D       		.uleb128 0xd
ARM GAS  /var/folders/t8/16hdwfmd2fg_d3q6dgx6bpmw0000gn/T//cchzqc6D.s 			page 39


 2167 0073 00       		.byte	0
 2168 0074 03       		.uleb128 0x3
 2169 0075 08       		.uleb128 0x8
 2170 0076 3A       		.uleb128 0x3a
 2171 0077 0B       		.uleb128 0xb
 2172 0078 3B       		.uleb128 0x3b
 2173 0079 05       		.uleb128 0x5
 2174 007a 49       		.uleb128 0x49
 2175 007b 13       		.uleb128 0x13
 2176 007c 38       		.uleb128 0x38
 2177 007d 0B       		.uleb128 0xb
 2178 007e 00       		.byte	0
 2179 007f 00       		.byte	0
 2180 0080 0B       		.uleb128 0xb
 2181 0081 0D       		.uleb128 0xd
 2182 0082 00       		.byte	0
 2183 0083 03       		.uleb128 0x3
 2184 0084 0E       		.uleb128 0xe
 2185 0085 3A       		.uleb128 0x3a
 2186 0086 0B       		.uleb128 0xb
 2187 0087 3B       		.uleb128 0x3b
 2188 0088 05       		.uleb128 0x5
 2189 0089 49       		.uleb128 0x49
 2190 008a 13       		.uleb128 0x13
 2191 008b 38       		.uleb128 0x38
 2192 008c 0B       		.uleb128 0xb
 2193 008d 00       		.byte	0
 2194 008e 00       		.byte	0
 2195 008f 0C       		.uleb128 0xc
 2196 0090 0F       		.uleb128 0xf
 2197 0091 00       		.byte	0
 2198 0092 0B       		.uleb128 0xb
 2199 0093 0B       		.uleb128 0xb
 2200 0094 49       		.uleb128 0x49
 2201 0095 13       		.uleb128 0x13
 2202 0096 00       		.byte	0
 2203 0097 00       		.byte	0
 2204 0098 0D       		.uleb128 0xd
 2205 0099 13       		.uleb128 0x13
 2206 009a 01       		.byte	0x1
 2207 009b 03       		.uleb128 0x3
 2208 009c 0E       		.uleb128 0xe
 2209 009d 0B       		.uleb128 0xb
 2210 009e 0B       		.uleb128 0xb
 2211 009f 3A       		.uleb128 0x3a
 2212 00a0 0B       		.uleb128 0xb
 2213 00a1 3B       		.uleb128 0x3b
 2214 00a2 05       		.uleb128 0x5
 2215 00a3 01       		.uleb128 0x1
 2216 00a4 13       		.uleb128 0x13
 2217 00a5 00       		.byte	0
 2218 00a6 00       		.byte	0
 2219 00a7 0E       		.uleb128 0xe
 2220 00a8 15       		.uleb128 0x15
 2221 00a9 01       		.byte	0x1
 2222 00aa 27       		.uleb128 0x27
 2223 00ab 19       		.uleb128 0x19
ARM GAS  /var/folders/t8/16hdwfmd2fg_d3q6dgx6bpmw0000gn/T//cchzqc6D.s 			page 40


 2224 00ac 01       		.uleb128 0x1
 2225 00ad 13       		.uleb128 0x13
 2226 00ae 00       		.byte	0
 2227 00af 00       		.byte	0
 2228 00b0 0F       		.uleb128 0xf
 2229 00b1 05       		.uleb128 0x5
 2230 00b2 00       		.byte	0
 2231 00b3 49       		.uleb128 0x49
 2232 00b4 13       		.uleb128 0x13
 2233 00b5 00       		.byte	0
 2234 00b6 00       		.byte	0
 2235 00b7 10       		.uleb128 0x10
 2236 00b8 0F       		.uleb128 0xf
 2237 00b9 00       		.byte	0
 2238 00ba 0B       		.uleb128 0xb
 2239 00bb 0B       		.uleb128 0xb
 2240 00bc 00       		.byte	0
 2241 00bd 00       		.byte	0
 2242 00be 11       		.uleb128 0x11
 2243 00bf 13       		.uleb128 0x13
 2244 00c0 01       		.byte	0x1
 2245 00c1 0B       		.uleb128 0xb
 2246 00c2 0B       		.uleb128 0xb
 2247 00c3 3A       		.uleb128 0x3a
 2248 00c4 0B       		.uleb128 0xb
 2249 00c5 3B       		.uleb128 0x3b
 2250 00c6 05       		.uleb128 0x5
 2251 00c7 01       		.uleb128 0x1
 2252 00c8 13       		.uleb128 0x13
 2253 00c9 00       		.byte	0
 2254 00ca 00       		.byte	0
 2255 00cb 12       		.uleb128 0x12
 2256 00cc 16       		.uleb128 0x16
 2257 00cd 00       		.byte	0
 2258 00ce 03       		.uleb128 0x3
 2259 00cf 0E       		.uleb128 0xe
 2260 00d0 3A       		.uleb128 0x3a
 2261 00d1 0B       		.uleb128 0xb
 2262 00d2 3B       		.uleb128 0x3b
 2263 00d3 05       		.uleb128 0x5
 2264 00d4 49       		.uleb128 0x49
 2265 00d5 13       		.uleb128 0x13
 2266 00d6 00       		.byte	0
 2267 00d7 00       		.byte	0
 2268 00d8 13       		.uleb128 0x13
 2269 00d9 13       		.uleb128 0x13
 2270 00da 01       		.byte	0x1
 2271 00db 0B       		.uleb128 0xb
 2272 00dc 0B       		.uleb128 0xb
 2273 00dd 3A       		.uleb128 0x3a
 2274 00de 0B       		.uleb128 0xb
 2275 00df 3B       		.uleb128 0x3b
 2276 00e0 0B       		.uleb128 0xb
 2277 00e1 01       		.uleb128 0x1
 2278 00e2 13       		.uleb128 0x13
 2279 00e3 00       		.byte	0
 2280 00e4 00       		.byte	0
ARM GAS  /var/folders/t8/16hdwfmd2fg_d3q6dgx6bpmw0000gn/T//cchzqc6D.s 			page 41


 2281 00e5 14       		.uleb128 0x14
 2282 00e6 17       		.uleb128 0x17
 2283 00e7 01       		.byte	0x1
 2284 00e8 0B       		.uleb128 0xb
 2285 00e9 0B       		.uleb128 0xb
 2286 00ea 3A       		.uleb128 0x3a
 2287 00eb 0B       		.uleb128 0xb
 2288 00ec 3B       		.uleb128 0x3b
 2289 00ed 0B       		.uleb128 0xb
 2290 00ee 01       		.uleb128 0x1
 2291 00ef 13       		.uleb128 0x13
 2292 00f0 00       		.byte	0
 2293 00f1 00       		.byte	0
 2294 00f2 15       		.uleb128 0x15
 2295 00f3 0D       		.uleb128 0xd
 2296 00f4 00       		.byte	0
 2297 00f5 03       		.uleb128 0x3
 2298 00f6 0E       		.uleb128 0xe
 2299 00f7 3A       		.uleb128 0x3a
 2300 00f8 0B       		.uleb128 0xb
 2301 00f9 3B       		.uleb128 0x3b
 2302 00fa 0B       		.uleb128 0xb
 2303 00fb 49       		.uleb128 0x49
 2304 00fc 13       		.uleb128 0x13
 2305 00fd 00       		.byte	0
 2306 00fe 00       		.byte	0
 2307 00ff 16       		.uleb128 0x16
 2308 0100 0D       		.uleb128 0xd
 2309 0101 00       		.byte	0
 2310 0102 03       		.uleb128 0x3
 2311 0103 0E       		.uleb128 0xe
 2312 0104 3A       		.uleb128 0x3a
 2313 0105 0B       		.uleb128 0xb
 2314 0106 3B       		.uleb128 0x3b
 2315 0107 05       		.uleb128 0x5
 2316 0108 49       		.uleb128 0x49
 2317 0109 13       		.uleb128 0x13
 2318 010a 00       		.byte	0
 2319 010b 00       		.byte	0
 2320 010c 17       		.uleb128 0x17
 2321 010d 34       		.uleb128 0x34
 2322 010e 00       		.byte	0
 2323 010f 03       		.uleb128 0x3
 2324 0110 08       		.uleb128 0x8
 2325 0111 3A       		.uleb128 0x3a
 2326 0112 0B       		.uleb128 0xb
 2327 0113 3B       		.uleb128 0x3b
 2328 0114 05       		.uleb128 0x5
 2329 0115 49       		.uleb128 0x49
 2330 0116 13       		.uleb128 0x13
 2331 0117 3F       		.uleb128 0x3f
 2332 0118 19       		.uleb128 0x19
 2333 0119 3C       		.uleb128 0x3c
 2334 011a 19       		.uleb128 0x19
 2335 011b 00       		.byte	0
 2336 011c 00       		.byte	0
 2337 011d 18       		.uleb128 0x18
ARM GAS  /var/folders/t8/16hdwfmd2fg_d3q6dgx6bpmw0000gn/T//cchzqc6D.s 			page 42


 2338 011e 01       		.uleb128 0x1
 2339 011f 01       		.byte	0x1
 2340 0120 49       		.uleb128 0x49
 2341 0121 13       		.uleb128 0x13
 2342 0122 01       		.uleb128 0x1
 2343 0123 13       		.uleb128 0x13
 2344 0124 00       		.byte	0
 2345 0125 00       		.byte	0
 2346 0126 19       		.uleb128 0x19
 2347 0127 21       		.uleb128 0x21
 2348 0128 00       		.byte	0
 2349 0129 00       		.byte	0
 2350 012a 00       		.byte	0
 2351 012b 1A       		.uleb128 0x1a
 2352 012c 34       		.uleb128 0x34
 2353 012d 00       		.byte	0
 2354 012e 03       		.uleb128 0x3
 2355 012f 0E       		.uleb128 0xe
 2356 0130 3A       		.uleb128 0x3a
 2357 0131 0B       		.uleb128 0xb
 2358 0132 3B       		.uleb128 0x3b
 2359 0133 05       		.uleb128 0x5
 2360 0134 49       		.uleb128 0x49
 2361 0135 13       		.uleb128 0x13
 2362 0136 3F       		.uleb128 0x3f
 2363 0137 19       		.uleb128 0x19
 2364 0138 3C       		.uleb128 0x3c
 2365 0139 19       		.uleb128 0x19
 2366 013a 00       		.byte	0
 2367 013b 00       		.byte	0
 2368 013c 1B       		.uleb128 0x1b
 2369 013d 21       		.uleb128 0x21
 2370 013e 00       		.byte	0
 2371 013f 49       		.uleb128 0x49
 2372 0140 13       		.uleb128 0x13
 2373 0141 2F       		.uleb128 0x2f
 2374 0142 0B       		.uleb128 0xb
 2375 0143 00       		.byte	0
 2376 0144 00       		.byte	0
 2377 0145 1C       		.uleb128 0x1c
 2378 0146 34       		.uleb128 0x34
 2379 0147 00       		.byte	0
 2380 0148 03       		.uleb128 0x3
 2381 0149 0E       		.uleb128 0xe
 2382 014a 3A       		.uleb128 0x3a
 2383 014b 0B       		.uleb128 0xb
 2384 014c 3B       		.uleb128 0x3b
 2385 014d 0B       		.uleb128 0xb
 2386 014e 49       		.uleb128 0x49
 2387 014f 13       		.uleb128 0x13
 2388 0150 3F       		.uleb128 0x3f
 2389 0151 19       		.uleb128 0x19
 2390 0152 3C       		.uleb128 0x3c
 2391 0153 19       		.uleb128 0x19
 2392 0154 00       		.byte	0
 2393 0155 00       		.byte	0
 2394 0156 1D       		.uleb128 0x1d
ARM GAS  /var/folders/t8/16hdwfmd2fg_d3q6dgx6bpmw0000gn/T//cchzqc6D.s 			page 43


 2395 0157 13       		.uleb128 0x13
 2396 0158 01       		.byte	0x1
 2397 0159 0B       		.uleb128 0xb
 2398 015a 05       		.uleb128 0x5
 2399 015b 3A       		.uleb128 0x3a
 2400 015c 0B       		.uleb128 0xb
 2401 015d 3B       		.uleb128 0x3b
 2402 015e 0B       		.uleb128 0xb
 2403 015f 01       		.uleb128 0x1
 2404 0160 13       		.uleb128 0x13
 2405 0161 00       		.byte	0
 2406 0162 00       		.byte	0
 2407 0163 1E       		.uleb128 0x1e
 2408 0164 04       		.uleb128 0x4
 2409 0165 01       		.byte	0x1
 2410 0166 3E       		.uleb128 0x3e
 2411 0167 0B       		.uleb128 0xb
 2412 0168 0B       		.uleb128 0xb
 2413 0169 0B       		.uleb128 0xb
 2414 016a 49       		.uleb128 0x49
 2415 016b 13       		.uleb128 0x13
 2416 016c 3A       		.uleb128 0x3a
 2417 016d 0B       		.uleb128 0xb
 2418 016e 3B       		.uleb128 0x3b
 2419 016f 05       		.uleb128 0x5
 2420 0170 01       		.uleb128 0x1
 2421 0171 13       		.uleb128 0x13
 2422 0172 00       		.byte	0
 2423 0173 00       		.byte	0
 2424 0174 1F       		.uleb128 0x1f
 2425 0175 28       		.uleb128 0x28
 2426 0176 00       		.byte	0
 2427 0177 03       		.uleb128 0x3
 2428 0178 0E       		.uleb128 0xe
 2429 0179 1C       		.uleb128 0x1c
 2430 017a 0B       		.uleb128 0xb
 2431 017b 00       		.byte	0
 2432 017c 00       		.byte	0
 2433 017d 20       		.uleb128 0x20
 2434 017e 15       		.uleb128 0x15
 2435 017f 01       		.byte	0x1
 2436 0180 27       		.uleb128 0x27
 2437 0181 19       		.uleb128 0x19
 2438 0182 49       		.uleb128 0x49
 2439 0183 13       		.uleb128 0x13
 2440 0184 01       		.uleb128 0x1
 2441 0185 13       		.uleb128 0x13
 2442 0186 00       		.byte	0
 2443 0187 00       		.byte	0
 2444 0188 21       		.uleb128 0x21
 2445 0189 2E       		.uleb128 0x2e
 2446 018a 01       		.byte	0x1
 2447 018b 3F       		.uleb128 0x3f
 2448 018c 19       		.uleb128 0x19
 2449 018d 03       		.uleb128 0x3
 2450 018e 0E       		.uleb128 0xe
 2451 018f 3A       		.uleb128 0x3a
ARM GAS  /var/folders/t8/16hdwfmd2fg_d3q6dgx6bpmw0000gn/T//cchzqc6D.s 			page 44


 2452 0190 0B       		.uleb128 0xb
 2453 0191 3B       		.uleb128 0x3b
 2454 0192 0B       		.uleb128 0xb
 2455 0193 27       		.uleb128 0x27
 2456 0194 19       		.uleb128 0x19
 2457 0195 11       		.uleb128 0x11
 2458 0196 01       		.uleb128 0x1
 2459 0197 12       		.uleb128 0x12
 2460 0198 06       		.uleb128 0x6
 2461 0199 40       		.uleb128 0x40
 2462 019a 18       		.uleb128 0x18
 2463 019b 9742     		.uleb128 0x2117
 2464 019d 19       		.uleb128 0x19
 2465 019e 01       		.uleb128 0x1
 2466 019f 13       		.uleb128 0x13
 2467 01a0 00       		.byte	0
 2468 01a1 00       		.byte	0
 2469 01a2 22       		.uleb128 0x22
 2470 01a3 898201   		.uleb128 0x4109
 2471 01a6 01       		.byte	0x1
 2472 01a7 11       		.uleb128 0x11
 2473 01a8 01       		.uleb128 0x1
 2474 01a9 31       		.uleb128 0x31
 2475 01aa 13       		.uleb128 0x13
 2476 01ab 00       		.byte	0
 2477 01ac 00       		.byte	0
 2478 01ad 23       		.uleb128 0x23
 2479 01ae 8A8201   		.uleb128 0x410a
 2480 01b1 00       		.byte	0
 2481 01b2 02       		.uleb128 0x2
 2482 01b3 18       		.uleb128 0x18
 2483 01b4 9142     		.uleb128 0x2111
 2484 01b6 18       		.uleb128 0x18
 2485 01b7 00       		.byte	0
 2486 01b8 00       		.byte	0
 2487 01b9 24       		.uleb128 0x24
 2488 01ba 34       		.uleb128 0x34
 2489 01bb 00       		.byte	0
 2490 01bc 03       		.uleb128 0x3
 2491 01bd 0E       		.uleb128 0xe
 2492 01be 3A       		.uleb128 0x3a
 2493 01bf 0B       		.uleb128 0xb
 2494 01c0 3B       		.uleb128 0x3b
 2495 01c1 0B       		.uleb128 0xb
 2496 01c2 49       		.uleb128 0x49
 2497 01c3 13       		.uleb128 0x13
 2498 01c4 00       		.byte	0
 2499 01c5 00       		.byte	0
 2500 01c6 25       		.uleb128 0x25
 2501 01c7 1D       		.uleb128 0x1d
 2502 01c8 01       		.byte	0x1
 2503 01c9 31       		.uleb128 0x31
 2504 01ca 13       		.uleb128 0x13
 2505 01cb 11       		.uleb128 0x11
 2506 01cc 01       		.uleb128 0x1
 2507 01cd 12       		.uleb128 0x12
 2508 01ce 06       		.uleb128 0x6
ARM GAS  /var/folders/t8/16hdwfmd2fg_d3q6dgx6bpmw0000gn/T//cchzqc6D.s 			page 45


 2509 01cf 58       		.uleb128 0x58
 2510 01d0 0B       		.uleb128 0xb
 2511 01d1 59       		.uleb128 0x59
 2512 01d2 0B       		.uleb128 0xb
 2513 01d3 01       		.uleb128 0x1
 2514 01d4 13       		.uleb128 0x13
 2515 01d5 00       		.byte	0
 2516 01d6 00       		.byte	0
 2517 01d7 26       		.uleb128 0x26
 2518 01d8 1D       		.uleb128 0x1d
 2519 01d9 01       		.byte	0x1
 2520 01da 31       		.uleb128 0x31
 2521 01db 13       		.uleb128 0x13
 2522 01dc 11       		.uleb128 0x11
 2523 01dd 01       		.uleb128 0x1
 2524 01de 12       		.uleb128 0x12
 2525 01df 06       		.uleb128 0x6
 2526 01e0 58       		.uleb128 0x58
 2527 01e1 0B       		.uleb128 0xb
 2528 01e2 59       		.uleb128 0x59
 2529 01e3 05       		.uleb128 0x5
 2530 01e4 00       		.byte	0
 2531 01e5 00       		.byte	0
 2532 01e6 27       		.uleb128 0x27
 2533 01e7 1D       		.uleb128 0x1d
 2534 01e8 01       		.byte	0x1
 2535 01e9 31       		.uleb128 0x31
 2536 01ea 13       		.uleb128 0x13
 2537 01eb 11       		.uleb128 0x11
 2538 01ec 01       		.uleb128 0x1
 2539 01ed 12       		.uleb128 0x12
 2540 01ee 06       		.uleb128 0x6
 2541 01ef 58       		.uleb128 0x58
 2542 01f0 0B       		.uleb128 0xb
 2543 01f1 59       		.uleb128 0x59
 2544 01f2 05       		.uleb128 0x5
 2545 01f3 01       		.uleb128 0x1
 2546 01f4 13       		.uleb128 0x13
 2547 01f5 00       		.byte	0
 2548 01f6 00       		.byte	0
 2549 01f7 28       		.uleb128 0x28
 2550 01f8 1D       		.uleb128 0x1d
 2551 01f9 00       		.byte	0
 2552 01fa 31       		.uleb128 0x31
 2553 01fb 13       		.uleb128 0x13
 2554 01fc 11       		.uleb128 0x11
 2555 01fd 01       		.uleb128 0x1
 2556 01fe 12       		.uleb128 0x12
 2557 01ff 06       		.uleb128 0x6
 2558 0200 58       		.uleb128 0x58
 2559 0201 0B       		.uleb128 0xb
 2560 0202 59       		.uleb128 0x59
 2561 0203 05       		.uleb128 0x5
 2562 0204 00       		.byte	0
 2563 0205 00       		.byte	0
 2564 0206 29       		.uleb128 0x29
 2565 0207 898201   		.uleb128 0x4109
ARM GAS  /var/folders/t8/16hdwfmd2fg_d3q6dgx6bpmw0000gn/T//cchzqc6D.s 			page 46


 2566 020a 00       		.byte	0
 2567 020b 11       		.uleb128 0x11
 2568 020c 01       		.uleb128 0x1
 2569 020d 31       		.uleb128 0x31
 2570 020e 13       		.uleb128 0x13
 2571 020f 00       		.byte	0
 2572 0210 00       		.byte	0
 2573 0211 2A       		.uleb128 0x2a
 2574 0212 2E       		.uleb128 0x2e
 2575 0213 00       		.byte	0
 2576 0214 03       		.uleb128 0x3
 2577 0215 0E       		.uleb128 0xe
 2578 0216 3A       		.uleb128 0x3a
 2579 0217 0B       		.uleb128 0xb
 2580 0218 3B       		.uleb128 0x3b
 2581 0219 05       		.uleb128 0x5
 2582 021a 27       		.uleb128 0x27
 2583 021b 19       		.uleb128 0x19
 2584 021c 20       		.uleb128 0x20
 2585 021d 0B       		.uleb128 0xb
 2586 021e 00       		.byte	0
 2587 021f 00       		.byte	0
 2588 0220 2B       		.uleb128 0x2b
 2589 0221 2E       		.uleb128 0x2e
 2590 0222 00       		.byte	0
 2591 0223 03       		.uleb128 0x3
 2592 0224 0E       		.uleb128 0xe
 2593 0225 3A       		.uleb128 0x3a
 2594 0226 0B       		.uleb128 0xb
 2595 0227 3B       		.uleb128 0x3b
 2596 0228 0B       		.uleb128 0xb
 2597 0229 27       		.uleb128 0x27
 2598 022a 19       		.uleb128 0x19
 2599 022b 20       		.uleb128 0x20
 2600 022c 0B       		.uleb128 0xb
 2601 022d 00       		.byte	0
 2602 022e 00       		.byte	0
 2603 022f 2C       		.uleb128 0x2c
 2604 0230 2E       		.uleb128 0x2e
 2605 0231 00       		.byte	0
 2606 0232 3F       		.uleb128 0x3f
 2607 0233 19       		.uleb128 0x19
 2608 0234 3C       		.uleb128 0x3c
 2609 0235 19       		.uleb128 0x19
 2610 0236 6E       		.uleb128 0x6e
 2611 0237 0E       		.uleb128 0xe
 2612 0238 03       		.uleb128 0x3
 2613 0239 0E       		.uleb128 0xe
 2614 023a 3A       		.uleb128 0x3a
 2615 023b 0B       		.uleb128 0xb
 2616 023c 3B       		.uleb128 0x3b
 2617 023d 0B       		.uleb128 0xb
 2618 023e 00       		.byte	0
 2619 023f 00       		.byte	0
 2620 0240 2D       		.uleb128 0x2d
 2621 0241 2E       		.uleb128 0x2e
 2622 0242 00       		.byte	0
ARM GAS  /var/folders/t8/16hdwfmd2fg_d3q6dgx6bpmw0000gn/T//cchzqc6D.s 			page 47


 2623 0243 3F       		.uleb128 0x3f
 2624 0244 19       		.uleb128 0x19
 2625 0245 3C       		.uleb128 0x3c
 2626 0246 19       		.uleb128 0x19
 2627 0247 6E       		.uleb128 0x6e
 2628 0248 0E       		.uleb128 0xe
 2629 0249 03       		.uleb128 0x3
 2630 024a 0E       		.uleb128 0xe
 2631 024b 3A       		.uleb128 0x3a
 2632 024c 0B       		.uleb128 0xb
 2633 024d 3B       		.uleb128 0x3b
 2634 024e 05       		.uleb128 0x5
 2635 024f 00       		.byte	0
 2636 0250 00       		.byte	0
 2637 0251 00       		.byte	0
 2638              		.section	.debug_aranges,"",%progbits
 2639 0000 24000000 		.4byte	0x24
 2640 0004 0200     		.2byte	0x2
 2641 0006 00000000 		.4byte	.Ldebug_info0
 2642 000a 04       		.byte	0x4
 2643 000b 00       		.byte	0
 2644 000c 0000     		.2byte	0
 2645 000e 0000     		.2byte	0
 2646 0010 00000000 		.4byte	.LFB174
 2647 0014 24000000 		.4byte	.LFE174-.LFB174
 2648 0018 00000000 		.4byte	.LFB175
 2649 001c 24000000 		.4byte	.LFE175-.LFB175
 2650 0020 00000000 		.4byte	0
 2651 0024 00000000 		.4byte	0
 2652              		.section	.debug_ranges,"",%progbits
 2653              	.Ldebug_ranges0:
 2654 0000 00000000 		.4byte	.LFB174
 2655 0004 24000000 		.4byte	.LFE174
 2656 0008 00000000 		.4byte	.LFB175
 2657 000c 24000000 		.4byte	.LFE175
 2658 0010 00000000 		.4byte	0
 2659 0014 00000000 		.4byte	0
 2660              		.section	.debug_line,"",%progbits
 2661              	.Ldebug_line0:
 2662 0000 19050000 		.section	.debug_str,"MS",%progbits,1
 2662      0200CB04 
 2662      00000201 
 2662      FB0E0D00 
 2662      01010101 
 2663              	.LASF189:
 2664 0000 7278636E 		.ascii	"rxcnt\000"
 2664      7400
 2665              	.LASF76:
 2666 0006 4C4F4144 		.ascii	"LOAD\000"
 2666      00
 2667              	.LASF149:
 2668 000b 75736265 		.ascii	"usbep_t\000"
 2668      705F7400 
 2669              	.LASF54:
 2670 0013 72656164 		.ascii	"ready_list_t\000"
 2670      795F6C69 
 2670      73745F74 
ARM GAS  /var/folders/t8/16hdwfmd2fg_d3q6dgx6bpmw0000gn/T//cchzqc6D.s 			page 48


 2670      00
 2671              	.LASF2:
 2672 0020 73697A65 		.ascii	"size_t\000"
 2672      5F7400
 2673              	.LASF82:
 2674 0027 50544F52 		.ascii	"PTOR\000"
 2674      00
 2675              	.LASF90:
 2676 002c 7264796D 		.ascii	"rdymsg\000"
 2676      736700
 2677              	.LASF19:
 2678 0033 75696E74 		.ascii	"uint64_t\000"
 2678      36345F74 
 2678      00
 2679              	.LASF158:
 2680 003c 5553425F 		.ascii	"USB_EP0_TX\000"
 2680      4550305F 
 2680      545800
 2681              	.LASF3:
 2682 0047 5F5F7569 		.ascii	"__uint8_t\000"
 2682      6E74385F 
 2682      7400
 2683              	.LASF53:
 2684 0051 70726576 		.ascii	"prev\000"
 2684      00
 2685              	.LASF172:
 2686 0056 75736265 		.ascii	"usbevent_t\000"
 2686      76656E74 
 2686      5F7400
 2687              	.LASF65:
 2688 0061 73797374 		.ascii	"system_debug_t\000"
 2688      656D5F64 
 2688      65627567 
 2688      5F7400
 2689              	.LASF216:
 2690 0070 63685379 		.ascii	"chSysLockFromISR\000"
 2690      734C6F63 
 2690      6B46726F 
 2690      6D495352 
 2690      00
 2691              	.LASF168:
 2692 0081 5553425F 		.ascii	"USB_EVENT_UNCONFIGURED\000"
 2692      4556454E 
 2692      545F554E 
 2692      434F4E46 
 2692      49475552 
 2693              	.LASF190:
 2694 0098 72786275 		.ascii	"rxbuf\000"
 2694      6600
 2695              	.LASF220:
 2696 009e 706F7274 		.ascii	"port_lock\000"
 2696      5F6C6F63 
 2696      6B00
 2697              	.LASF14:
 2698 00a8 6C6F6E67 		.ascii	"long long unsigned int\000"
 2698      206C6F6E 
 2698      6720756E 
ARM GAS  /var/folders/t8/16hdwfmd2fg_d3q6dgx6bpmw0000gn/T//cchzqc6D.s 			page 49


 2698      7369676E 
 2698      65642069 
 2699              	.LASF209:
 2700 00bf 55534244 		.ascii	"USBD1\000"
 2700      3100
 2701              	.LASF91:
 2702 00c5 65786974 		.ascii	"exitcode\000"
 2702      636F6465 
 2702      00
 2703              	.LASF108:
 2704 00ce 74696D65 		.ascii	"timesize\000"
 2704      73697A65 
 2704      00
 2705              	.LASF81:
 2706 00d7 50434F52 		.ascii	"PCOR\000"
 2706      00
 2707              	.LASF94:
 2708 00dc 73656E74 		.ascii	"sentmsg\000"
 2708      6D736700 
 2709              	.LASF62:
 2710 00e4 76697274 		.ascii	"virtual_timers_list_t\000"
 2710      75616C5F 
 2710      74696D65 
 2710      72735F6C 
 2710      6973745F 
 2711              	.LASF213:
 2712 00fa 6F73616C 		.ascii	"osalSysUnlockFromISR\000"
 2712      53797355 
 2712      6E6C6F63 
 2712      6B46726F 
 2712      6D495352 
 2713              	.LASF150:
 2714 010f 5553425F 		.ascii	"USB_UNINIT\000"
 2714      554E494E 
 2714      495400
 2715              	.LASF210:
 2716 011a 73745F6C 		.ascii	"st_lld_init\000"
 2716      6C645F69 
 2716      6E697400 
 2717              	.LASF50:
 2718 0126 6E657874 		.ascii	"next\000"
 2718      00
 2719              	.LASF52:
 2720 012b 63685F74 		.ascii	"ch_threads_queue\000"
 2720      68726561 
 2720      64735F71 
 2720      75657565 
 2720      00
 2721              	.LASF175:
 2722 013c 55534244 		.ascii	"USBDescriptor\000"
 2722      65736372 
 2722      6970746F 
 2722      7200
 2723              	.LASF83:
 2724 014a 50444952 		.ascii	"PDIR\000"
 2724      00
 2725              	.LASF12:
ARM GAS  /var/folders/t8/16hdwfmd2fg_d3q6dgx6bpmw0000gn/T//cchzqc6D.s 			page 50


 2726 014f 6C6F6E67 		.ascii	"long long int\000"
 2726      206C6F6E 
 2726      6720696E 
 2726      7400
 2727              	.LASF1:
 2728 015d 7369676E 		.ascii	"signed char\000"
 2728      65642063 
 2728      68617200 
 2729              	.LASF176:
 2730 0169 75736263 		.ascii	"usbcallback_t\000"
 2730      616C6C62 
 2730      61636B5F 
 2730      7400
 2731              	.LASF181:
 2732 0177 74787369 		.ascii	"txsize\000"
 2732      7A6500
 2733              	.LASF142:
 2734 017e 65703065 		.ascii	"ep0endcb\000"
 2734      6E646362 
 2734      00
 2735              	.LASF72:
 2736 0187 726C6973 		.ascii	"rlist\000"
 2736      7400
 2737              	.LASF89:
 2738 018d 706F7274 		.ascii	"port_intctx\000"
 2738      5F696E74 
 2738      63747800 
 2739              	.LASF159:
 2740 0199 5553425F 		.ascii	"USB_EP0_WAITING_TX0\000"
 2740      4550305F 
 2740      57414954 
 2740      494E475F 
 2740      54583000 
 2741              	.LASF73:
 2742 01ad 76746C69 		.ascii	"vtlist\000"
 2742      737400
 2743              	.LASF219:
 2744 01b4 706F7274 		.ascii	"port_unlock\000"
 2744      5F756E6C 
 2744      6F636B00 
 2745              	.LASF23:
 2746 01c0 74736C69 		.ascii	"tslices_t\000"
 2746      6365735F 
 2746      7400
 2747              	.LASF163:
 2748 01ca 5553425F 		.ascii	"USB_EP0_ERROR\000"
 2748      4550305F 
 2748      4552524F 
 2748      5200
 2749              	.LASF80:
 2750 01d8 50534F52 		.ascii	"PSOR\000"
 2750      00
 2751              	.LASF36:
 2752 01dd 73746174 		.ascii	"state\000"
 2752      6500
 2753              	.LASF138:
 2754 01e3 6F75745F 		.ascii	"out_params\000"
ARM GAS  /var/folders/t8/16hdwfmd2fg_d3q6dgx6bpmw0000gn/T//cchzqc6D.s 			page 51


 2754      70617261 
 2754      6D7300
 2755              	.LASF9:
 2756 01ee 6C6F6E67 		.ascii	"long int\000"
 2756      20696E74 
 2756      00
 2757              	.LASF186:
 2758 01f7 64617461 		.ascii	"data_bank\000"
 2758      5F62616E 
 2758      6B00
 2759              	.LASF180:
 2760 0201 75736267 		.ascii	"usbgetdescriptor_t\000"
 2760      65746465 
 2760      73637269 
 2760      70746F72 
 2760      5F7400
 2761              	.LASF21:
 2762 0214 74737461 		.ascii	"tstate_t\000"
 2762      74655F74 
 2762      00
 2763              	.LASF61:
 2764 021d 66756E63 		.ascii	"func\000"
 2764      00
 2765              	.LASF196:
 2766 0222 6F75745F 		.ascii	"out_cb\000"
 2766      636200
 2767              	.LASF32:
 2768 0229 6E657765 		.ascii	"newer\000"
 2768      7200
 2769              	.LASF178:
 2770 022f 75736265 		.ascii	"usbeventcb_t\000"
 2770      76656E74 
 2770      63625F74 
 2770      00
 2771              	.LASF170:
 2772 023c 5553425F 		.ascii	"USB_EVENT_WAKEUP\000"
 2772      4556454E 
 2772      545F5741 
 2772      4B455550 
 2772      00
 2773              	.LASF16:
 2774 024d 75696E74 		.ascii	"uint16_t\000"
 2774      31365F74 
 2774      00
 2775              	.LASF35:
 2776 0256 77616261 		.ascii	"wabase\000"
 2776      736500
 2777              	.LASF18:
 2778 025d 75696E74 		.ascii	"uint32_t\000"
 2778      33325F74 
 2778      00
 2779              	.LASF119:
 2780 0266 6F66665F 		.ascii	"off_preempt\000"
 2780      70726565 
 2780      6D707400 
 2781              	.LASF160:
 2782 0272 5553425F 		.ascii	"USB_EP0_WAITING_STS\000"
ARM GAS  /var/folders/t8/16hdwfmd2fg_d3q6dgx6bpmw0000gn/T//cchzqc6D.s 			page 52


 2782      4550305F 
 2782      57414954 
 2782      494E475F 
 2782      53545300 
 2783              	.LASF164:
 2784 0286 75736265 		.ascii	"usbep0state_t\000"
 2784      70307374 
 2784      6174655F 
 2784      7400
 2785              	.LASF85:
 2786 0294 4750494F 		.ascii	"GPIO_TypeDef\000"
 2786      5F547970 
 2786      65446566 
 2786      00
 2787              	.LASF78:
 2788 02a1 53797354 		.ascii	"SysTick_Type\000"
 2788      69636B5F 
 2788      54797065 
 2788      00
 2789              	.LASF171:
 2790 02ae 5553425F 		.ascii	"USB_EVENT_STALLED\000"
 2790      4556454E 
 2790      545F5354 
 2790      414C4C45 
 2790      4400
 2791              	.LASF86:
 2792 02c0 72656761 		.ascii	"regarm_t\000"
 2792      726D5F74 
 2792      00
 2793              	.LASF214:
 2794 02c9 6F73616C 		.ascii	"osalSysLockFromISR\000"
 2794      5379734C 
 2794      6F636B46 
 2794      726F6D49 
 2794      535200
 2795              	.LASF66:
 2796 02dc 63685F73 		.ascii	"ch_system_debug\000"
 2796      79737465 
 2796      6D5F6465 
 2796      62756700 
 2797              	.LASF40:
 2798 02ec 77616974 		.ascii	"waiting\000"
 2798      696E6700 
 2799              	.LASF104:
 2800 02f4 7A65726F 		.ascii	"zero\000"
 2800      00
 2801              	.LASF123:
 2802 02f9 6D757465 		.ascii	"mutex_t\000"
 2802      785F7400 
 2803              	.LASF69:
 2804 0301 6C6F636B 		.ascii	"lock_cnt\000"
 2804      5F636E74 
 2804      00
 2805              	.LASF27:
 2806 030a 636E745F 		.ascii	"cnt_t\000"
 2806      7400
 2807              	.LASF41:
ARM GAS  /var/folders/t8/16hdwfmd2fg_d3q6dgx6bpmw0000gn/T//cchzqc6D.s 			page 53


 2808 0310 6D736771 		.ascii	"msgqueue\000"
 2808      75657565 
 2808      00
 2809              	.LASF0:
 2810 0319 756E7369 		.ascii	"unsigned int\000"
 2810      676E6564 
 2810      20696E74 
 2810      00
 2811              	.LASF154:
 2812 0326 5553425F 		.ascii	"USB_ACTIVE\000"
 2812      41435449 
 2812      564500
 2813              	.LASF183:
 2814 0331 74786275 		.ascii	"txbuf\000"
 2814      6600
 2815              	.LASF173:
 2816 0337 75645F73 		.ascii	"ud_size\000"
 2816      697A6500 
 2817              	.LASF95:
 2818 033f 77747365 		.ascii	"wtsemp\000"
 2818      6D7000
 2819              	.LASF93:
 2820 0346 77747472 		.ascii	"wttrp\000"
 2820      7000
 2821              	.LASF151:
 2822 034c 5553425F 		.ascii	"USB_STOP\000"
 2822      53544F50 
 2822      00
 2823              	.LASF122:
 2824 0355 63685F64 		.ascii	"ch_debug\000"
 2824      65627567 
 2824      00
 2825              	.LASF229:
 2826 035e 5F706F72 		.ascii	"_port_irq_epilogue\000"
 2826      745F6972 
 2826      715F6570 
 2826      696C6F67 
 2826      756500
 2827              	.LASF34:
 2828 0371 6E616D65 		.ascii	"name\000"
 2828      00
 2829              	.LASF30:
 2830 0376 71756575 		.ascii	"queue\000"
 2830      6500
 2831              	.LASF135:
 2832 037c 7472616E 		.ascii	"transmitting\000"
 2832      736D6974 
 2832      74696E67 
 2832      00
 2833              	.LASF195:
 2834 0389 696E5F63 		.ascii	"in_cb\000"
 2834      6200
 2835              	.LASF45:
 2836 038f 6D706F6F 		.ascii	"mpool\000"
 2836      6C00
 2837              	.LASF184:
 2838 0395 74687265 		.ascii	"thread\000"
ARM GAS  /var/folders/t8/16hdwfmd2fg_d3q6dgx6bpmw0000gn/T//cchzqc6D.s 			page 54


 2838      616400
 2839              	.LASF105:
 2840 039c 73697A65 		.ascii	"size\000"
 2840      00
 2841              	.LASF118:
 2842 03a1 6F66665F 		.ascii	"off_refs\000"
 2842      72656673 
 2842      00
 2843              	.LASF204:
 2844 03aa 6576656E 		.ascii	"event_cb\000"
 2844      745F6362 
 2844      00
 2845              	.LASF48:
 2846 03b3 63685F74 		.ascii	"ch_thread\000"
 2846      68726561 
 2846      6400
 2847              	.LASF146:
 2848 03bd 636F6E66 		.ascii	"configuration\000"
 2848      69677572 
 2848      6174696F 
 2848      6E00
 2849              	.LASF74:
 2850 03cb 6D61696E 		.ascii	"mainthread\000"
 2850      74687265 
 2850      616400
 2851              	.LASF25:
 2852 03d6 6D73675F 		.ascii	"msg_t\000"
 2852      7400
 2853              	.LASF174:
 2854 03dc 75645F73 		.ascii	"ud_string\000"
 2854      7472696E 
 2854      6700
 2855              	.LASF232:
 2856 03e6 2F557365 		.ascii	"/Users/jpablobr/tmp/tmk/di0ib-tmk_keyboard/keyboard"
 2856      72732F6A 
 2856      7061626C 
 2856      6F62722F 
 2856      746D702F 
 2857 0419 2F746565 		.ascii	"/teensy_lc_menelaus\000"
 2857      6E73795F 
 2857      6C635F6D 
 2857      656E656C 
 2857      61757300 
 2858              	.LASF42:
 2859 042d 6570656E 		.ascii	"epending\000"
 2859      64696E67 
 2859      00
 2860              	.LASF156:
 2861 0436 75736273 		.ascii	"usbstate_t\000"
 2861      74617465 
 2861      5F7400
 2862              	.LASF179:
 2863 0441 75736272 		.ascii	"usbreqhandler_t\000"
 2863      65716861 
 2863      6E646C65 
 2863      725F7400 
 2864              	.LASF111:
ARM GAS  /var/folders/t8/16hdwfmd2fg_d3q6dgx6bpmw0000gn/T//cchzqc6D.s 			page 55


 2865 0451 6F66665F 		.ascii	"off_ctx\000"
 2865      63747800 
 2866              	.LASF75:
 2867 0459 4354524C 		.ascii	"CTRL\000"
 2867      00
 2868              	.LASF20:
 2869 045e 746D6F64 		.ascii	"tmode_t\000"
 2869      655F7400 
 2870              	.LASF64:
 2871 0466 73797374 		.ascii	"systime\000"
 2871      696D6500 
 2872              	.LASF231:
 2873 046e 2E2E2F2E 		.ascii	"../../tmk_core/tool/chibios/ChibiOS-Contrib/os/hal/"
 2873      2E2F746D 
 2873      6B5F636F 
 2873      72652F74 
 2873      6F6F6C2F 
 2874 04a1 706F7274 		.ascii	"ports/KINETIS/LLD/hal_st_lld.c\000"
 2874      732F4B49 
 2874      4E455449 
 2874      532F4C4C 
 2874      442F6861 
 2875              	.LASF55:
 2876 04c0 63685F72 		.ascii	"ch_ready_list\000"
 2876      65616479 
 2876      5F6C6973 
 2876      7400
 2877              	.LASF26:
 2878 04ce 6576656E 		.ascii	"eventmask_t\000"
 2878      746D6173 
 2878      6B5F7400 
 2879              	.LASF136:
 2880 04da 72656365 		.ascii	"receiving\000"
 2880      6976696E 
 2880      6700
 2881              	.LASF8:
 2882 04e4 5F5F696E 		.ascii	"__int32_t\000"
 2882      7433325F 
 2882      7400
 2883              	.LASF228:
 2884 04ee 5F646267 		.ascii	"_dbg_check_leave_isr\000"
 2884      5F636865 
 2884      636B5F6C 
 2884      65617665 
 2884      5F697372 
 2885              	.LASF206:
 2886 0503 72657175 		.ascii	"requests_hook_cb\000"
 2886      65737473 
 2886      5F686F6F 
 2886      6B5F6362 
 2886      00
 2887              	.LASF87:
 2888 0514 73746B61 		.ascii	"stkalign_t\000"
 2888      6C69676E 
 2888      5F7400
 2889              	.LASF212:
 2890 051f 6F73616C 		.ascii	"osalOsTimerHandlerI\000"
ARM GAS  /var/folders/t8/16hdwfmd2fg_d3q6dgx6bpmw0000gn/T//cchzqc6D.s 			page 56


 2890      4F735469 
 2890      6D657248 
 2890      616E646C 
 2890      65724900 
 2891              	.LASF198:
 2892 0533 6F75745F 		.ascii	"out_maxsize\000"
 2892      6D617873 
 2892      697A6500 
 2893              	.LASF84:
 2894 053f 50444452 		.ascii	"PDDR\000"
 2894      00
 2895              	.LASF44:
 2896 0544 7265616C 		.ascii	"realprio\000"
 2896      7072696F 
 2896      00
 2897              	.LASF106:
 2898 054d 76657273 		.ascii	"version\000"
 2898      696F6E00 
 2899              	.LASF162:
 2900 0555 5553425F 		.ascii	"USB_EP0_SENDING_STS\000"
 2900      4550305F 
 2900      53454E44 
 2900      494E475F 
 2900      53545300 
 2901              	.LASF46:
 2902 0569 74687265 		.ascii	"thread_reference_t\000"
 2902      61645F72 
 2902      65666572 
 2902      656E6365 
 2902      5F7400
 2903              	.LASF130:
 2904 057c 706F7274 		.ascii	"ports\000"
 2904      7300
 2905              	.LASF63:
 2906 0582 63685F76 		.ascii	"ch_virtual_timers_list\000"
 2906      69727475 
 2906      616C5F74 
 2906      696D6572 
 2906      735F6C69 
 2907              	.LASF145:
 2908 0599 61646472 		.ascii	"address\000"
 2908      65737300 
 2909              	.LASF200:
 2910 05a1 6F75745F 		.ascii	"out_state\000"
 2910      73746174 
 2910      6500
 2911              	.LASF112:
 2912 05ab 6F66665F 		.ascii	"off_newer\000"
 2912      6E657765 
 2912      7200
 2913              	.LASF202:
 2914 05b5 73657475 		.ascii	"setup_buf\000"
 2914      705F6275 
 2914      6600
 2915              	.LASF227:
 2916 05bf 5F646267 		.ascii	"_dbg_check_enter_isr\000"
 2916      5F636865 
ARM GAS  /var/folders/t8/16hdwfmd2fg_d3q6dgx6bpmw0000gn/T//cchzqc6D.s 			page 57


 2916      636B5F65 
 2916      6E746572 
 2916      5F697372 
 2917              	.LASF88:
 2918 05d4 706F7274 		.ascii	"port_context\000"
 2918      5F636F6E 
 2918      74657874 
 2918      00
 2919              	.LASF143:
 2920 05e1 73657475 		.ascii	"setup\000"
 2920      7000
 2921              	.LASF233:
 2922 05e7 5F736176 		.ascii	"_saved_lr\000"
 2922      65645F6C 
 2922      7200
 2923              	.LASF129:
 2924 05f1 506F7274 		.ascii	"PortConfig\000"
 2924      436F6E66 
 2924      696700
 2925              	.LASF31:
 2926 05fc 7072696F 		.ascii	"prio\000"
 2926      00
 2927              	.LASF222:
 2928 0601 5F5F656E 		.ascii	"__enable_irq\000"
 2928      61626C65 
 2928      5F697271 
 2928      00
 2929              	.LASF207:
 2930 060e 736F665F 		.ascii	"sof_cb\000"
 2930      636200
 2931              	.LASF56:
 2932 0615 63757272 		.ascii	"current\000"
 2932      656E7400 
 2933              	.LASF203:
 2934 061d 55534245 		.ascii	"USBEndpointConfig\000"
 2934      6E64706F 
 2934      696E7443 
 2934      6F6E6669 
 2934      6700
 2935              	.LASF13:
 2936 062f 5F5F7569 		.ascii	"__uint64_t\000"
 2936      6E743634 
 2936      5F7400
 2937              	.LASF230:
 2938 063a 474E5520 		.ascii	"GNU C99 7.2.1 20170904 (release) [ARM/embedded-7-br"
 2938      43393920 
 2938      372E322E 
 2938      31203230 
 2938      31373039 
 2939 066d 616E6368 		.ascii	"anch revision 255204] -mcpu=cortex-m0plus -mno-thum"
 2939      20726576 
 2939      6973696F 
 2939      6E203235 
 2939      35323034 
 2940 06a0 622D696E 		.ascii	"b-interwork -mthumb -ggdb -O2 -std=gnu99 -fomit-fra"
 2940      74657277 
 2940      6F726B20 
ARM GAS  /var/folders/t8/16hdwfmd2fg_d3q6dgx6bpmw0000gn/T//cchzqc6D.s 			page 58


 2940      2D6D7468 
 2940      756D6220 
 2941 06d3 6D652D70 		.ascii	"me-pointer -falign-functions=16 -ffunction-sections"
 2941      6F696E74 
 2941      6572202D 
 2941      66616C69 
 2941      676E2D66 
 2942 0706 202D6664 		.ascii	" -fdata-sections -fno-common\000"
 2942      6174612D 
 2942      73656374 
 2942      696F6E73 
 2942      202D666E 
 2943              	.LASF148:
 2944 0723 706D6E65 		.ascii	"pmnext\000"
 2944      787400
 2945              	.LASF197:
 2946 072a 696E5F6D 		.ascii	"in_maxsize\000"
 2946      61787369 
 2946      7A6500
 2947              	.LASF221:
 2948 0735 5F5F6469 		.ascii	"__disable_irq\000"
 2948      7361626C 
 2948      655F6972 
 2948      7100
 2949              	.LASF201:
 2950 0743 65705F62 		.ascii	"ep_buffers\000"
 2950      75666665 
 2950      727300
 2951              	.LASF121:
 2952 074e 63686465 		.ascii	"chdebug_t\000"
 2952      6275675F 
 2952      7400
 2953              	.LASF166:
 2954 0758 5553425F 		.ascii	"USB_EVENT_ADDRESS\000"
 2954      4556454E 
 2954      545F4144 
 2954      44524553 
 2954      5300
 2955              	.LASF38:
 2956 076a 72656673 		.ascii	"refs\000"
 2956      00
 2957              	.LASF58:
 2958 076f 76697274 		.ascii	"virtual_timer_t\000"
 2958      75616C5F 
 2958      74696D65 
 2958      725F7400 
 2959              	.LASF185:
 2960 077f 6F64645F 		.ascii	"odd_even\000"
 2960      6576656E 
 2960      00
 2961              	.LASF194:
 2962 0788 73657475 		.ascii	"setup_cb\000"
 2962      705F6362 
 2962      00
 2963              	.LASF24:
 2964 0791 74707269 		.ascii	"tprio_t\000"
 2964      6F5F7400 
ARM GAS  /var/folders/t8/16hdwfmd2fg_d3q6dgx6bpmw0000gn/T//cchzqc6D.s 			page 59


 2965              	.LASF215:
 2966 0799 63685379 		.ascii	"chSysUnlockFromISR\000"
 2966      73556E6C 
 2966      6F636B46 
 2966      726F6D49 
 2966      535200
 2967              	.LASF152:
 2968 07ac 5553425F 		.ascii	"USB_READY\000"
 2968      52454144 
 2968      5900
 2969              	.LASF141:
 2970 07b6 6570306E 		.ascii	"ep0n\000"
 2970      00
 2971              	.LASF109:
 2972 07bb 74687265 		.ascii	"threadsize\000"
 2972      61647369 
 2972      7A6500
 2973              	.LASF124:
 2974 07c6 5F426F6F 		.ascii	"_Bool\000"
 2974      6C00
 2975              	.LASF17:
 2976 07cc 696E7433 		.ascii	"int32_t\000"
 2976      325F7400 
 2977              	.LASF4:
 2978 07d4 756E7369 		.ascii	"unsigned char\000"
 2978      676E6564 
 2978      20636861 
 2978      7200
 2979              	.LASF110:
 2980 07e2 6F66665F 		.ascii	"off_prio\000"
 2980      7072696F 
 2980      00
 2981              	.LASF115:
 2982 07eb 6F66665F 		.ascii	"off_stklimit\000"
 2982      73746B6C 
 2982      696D6974 
 2982      00
 2983              	.LASF140:
 2984 07f8 6570306E 		.ascii	"ep0next\000"
 2984      65787400 
 2985              	.LASF5:
 2986 0800 73686F72 		.ascii	"short int\000"
 2986      7420696E 
 2986      7400
 2987              	.LASF114:
 2988 080a 6F66665F 		.ascii	"off_name\000"
 2988      6E616D65 
 2988      00
 2989              	.LASF223:
 2990 0813 6E766963 		.ascii	"nvicSetSystemHandlerPriority\000"
 2990      53657453 
 2990      79737465 
 2990      6D48616E 
 2990      646C6572 
 2991              	.LASF97:
 2992 0830 65776D61 		.ascii	"ewmask\000"
 2992      736B00
ARM GAS  /var/folders/t8/16hdwfmd2fg_d3q6dgx6bpmw0000gn/T//cchzqc6D.s 			page 60


 2993              	.LASF71:
 2994 0837 63685F73 		.ascii	"ch_system\000"
 2994      79737465 
 2994      6D00
 2995              	.LASF191:
 2996 0841 7278706B 		.ascii	"rxpkts\000"
 2996      747300
 2997              	.LASF153:
 2998 0848 5553425F 		.ascii	"USB_SELECTED\000"
 2998      53454C45 
 2998      43544544 
 2998      00
 2999              	.LASF147:
 3000 0855 73617665 		.ascii	"saved_state\000"
 3000      645F7374 
 3000      61746500 
 3001              	.LASF59:
 3002 0861 63685F76 		.ascii	"ch_virtual_timer\000"
 3002      69727475 
 3002      616C5F74 
 3002      696D6572 
 3002      00
 3003              	.LASF98:
 3004 0872 63685F73 		.ascii	"ch_semaphore\000"
 3004      656D6170 
 3004      686F7265 
 3004      00
 3005              	.LASF120:
 3006 087f 6F66665F 		.ascii	"off_time\000"
 3006      74696D65 
 3006      00
 3007              	.LASF102:
 3008 0888 63685F69 		.ascii	"ch_idle_thread_wa\000"
 3008      646C655F 
 3008      74687265 
 3008      61645F77 
 3008      6100
 3009              	.LASF205:
 3010 089a 6765745F 		.ascii	"get_descriptor_cb\000"
 3010      64657363 
 3010      72697074 
 3010      6F725F63 
 3010      6200
 3011              	.LASF169:
 3012 08ac 5553425F 		.ascii	"USB_EVENT_SUSPEND\000"
 3012      4556454E 
 3012      545F5355 
 3012      5350454E 
 3012      4400
 3013              	.LASF139:
 3014 08be 65703073 		.ascii	"ep0state\000"
 3014      74617465 
 3014      00
 3015              	.LASF208:
 3016 08c7 55534243 		.ascii	"USBConfig\000"
 3016      6F6E6669 
 3016      6700
ARM GAS  /var/folders/t8/16hdwfmd2fg_d3q6dgx6bpmw0000gn/T//cchzqc6D.s 			page 61


 3017              	.LASF96:
 3018 08d1 77746D74 		.ascii	"wtmtxp\000"
 3018      787000
 3019              	.LASF211:
 3020 08d8 53797354 		.ascii	"SysTick_Handler\000"
 3020      69636B5F 
 3020      48616E64 
 3020      6C657200 
 3021              	.LASF49:
 3022 08e8 63685F74 		.ascii	"ch_threads_list\000"
 3022      68726561 
 3022      64735F6C 
 3022      69737400 
 3023              	.LASF100:
 3024 08f8 6F776E65 		.ascii	"owner\000"
 3024      7200
 3025              	.LASF11:
 3026 08fe 6C6F6E67 		.ascii	"long unsigned int\000"
 3026      20756E73 
 3026      69676E65 
 3026      6420696E 
 3026      7400
 3027              	.LASF199:
 3028 0910 696E5F73 		.ascii	"in_state\000"
 3028      74617465 
 3028      00
 3029              	.LASF101:
 3030 0919 63686172 		.ascii	"char\000"
 3030      00
 3031              	.LASF33:
 3032 091e 6F6C6465 		.ascii	"older\000"
 3032      7200
 3033              	.LASF134:
 3034 0924 636F6E66 		.ascii	"config\000"
 3034      696700
 3035              	.LASF6:
 3036 092b 5F5F7569 		.ascii	"__uint16_t\000"
 3036      6E743136 
 3036      5F7400
 3037              	.LASF217:
 3038 0936 706F7274 		.ascii	"port_unlock_from_isr\000"
 3038      5F756E6C 
 3038      6F636B5F 
 3038      66726F6D 
 3038      5F697372 
 3039              	.LASF29:
 3040 094b 74687265 		.ascii	"thread_t\000"
 3040      61645F74 
 3040      00
 3041              	.LASF161:
 3042 0954 5553425F 		.ascii	"USB_EP0_RX\000"
 3042      4550305F 
 3042      525800
 3043              	.LASF28:
 3044 095f 73797374 		.ascii	"systime_t\000"
 3044      696D655F 
 3044      7400
ARM GAS  /var/folders/t8/16hdwfmd2fg_d3q6dgx6bpmw0000gn/T//cchzqc6D.s 			page 62


 3045              	.LASF225:
 3046 0969 63685379 		.ascii	"chSysTimerHandlerI\000"
 3046      7354696D 
 3046      65724861 
 3046      6E646C65 
 3046      724900
 3047              	.LASF57:
 3048 097c 76746675 		.ascii	"vtfunc_t\000"
 3048      6E635F74 
 3048      00
 3049              	.LASF10:
 3050 0985 5F5F7569 		.ascii	"__uint32_t\000"
 3050      6E743332 
 3050      5F7400
 3051              	.LASF167:
 3052 0990 5553425F 		.ascii	"USB_EVENT_CONFIGURED\000"
 3052      4556454E 
 3052      545F434F 
 3052      4E464947 
 3052      55524544 
 3053              	.LASF67:
 3054 09a5 70616E69 		.ascii	"panic_msg\000"
 3054      635F6D73 
 3054      6700
 3055              	.LASF127:
 3056 09af 706F7274 		.ascii	"port\000"
 3056      00
 3057              	.LASF157:
 3058 09b4 5553425F 		.ascii	"USB_EP0_WAITING_SETUP\000"
 3058      4550305F 
 3058      57414954 
 3058      494E475F 
 3058      53455455 
 3059              	.LASF126:
 3060 09ca 696F706F 		.ascii	"ioportid_t\000"
 3060      72746964 
 3060      5F7400
 3061              	.LASF113:
 3062 09d5 6F66665F 		.ascii	"off_older\000"
 3062      6F6C6465 
 3062      7200
 3063              	.LASF7:
 3064 09df 73686F72 		.ascii	"short unsigned int\000"
 3064      7420756E 
 3064      7369676E 
 3064      65642069 
 3064      6E7400
 3065              	.LASF224:
 3066 09f2 5F646267 		.ascii	"_dbg_check_lock_from_isr\000"
 3066      5F636865 
 3066      636B5F6C 
 3066      6F636B5F 
 3066      66726F6D 
 3067              	.LASF70:
 3068 0a0b 63685F73 		.ascii	"ch_system_t\000"
 3068      79737465 
 3068      6D5F7400 
ARM GAS  /var/folders/t8/16hdwfmd2fg_d3q6dgx6bpmw0000gn/T//cchzqc6D.s 			page 63


 3069              	.LASF103:
 3070 0a17 6964656E 		.ascii	"identifier\000"
 3070      74696669 
 3070      657200
 3071              	.LASF218:
 3072 0a22 706F7274 		.ascii	"port_lock_from_isr\000"
 3072      5F6C6F63 
 3072      6B5F6672 
 3072      6F6D5F69 
 3072      737200
 3073              	.LASF193:
 3074 0a35 65705F6D 		.ascii	"ep_mode\000"
 3074      6F646500 
 3075              	.LASF182:
 3076 0a3d 7478636E 		.ascii	"txcnt\000"
 3076      7400
 3077              	.LASF77:
 3078 0a43 43414C49 		.ascii	"CALIB\000"
 3078      4200
 3079              	.LASF107:
 3080 0a49 70747273 		.ascii	"ptrsize\000"
 3080      697A6500 
 3081              	.LASF226:
 3082 0a51 5F646267 		.ascii	"_dbg_check_unlock_from_isr\000"
 3082      5F636865 
 3082      636B5F75 
 3082      6E6C6F63 
 3082      6B5F6672 
 3083              	.LASF51:
 3084 0a6c 74687265 		.ascii	"threads_queue_t\000"
 3084      6164735F 
 3084      71756575 
 3084      655F7400 
 3085              	.LASF99:
 3086 0a7c 63685F6D 		.ascii	"ch_mutex\000"
 3086      75746578 
 3086      00
 3087              	.LASF22:
 3088 0a85 74726566 		.ascii	"trefs_t\000"
 3088      735F7400 
 3089              	.LASF68:
 3090 0a8d 6973725F 		.ascii	"isr_cnt\000"
 3090      636E7400 
 3091              	.LASF144:
 3092 0a95 73746174 		.ascii	"status\000"
 3092      757300
 3093              	.LASF177:
 3094 0a9c 75736265 		.ascii	"usbepcallback_t\000"
 3094      7063616C 
 3094      6C626163 
 3094      6B5F7400 
 3095              	.LASF187:
 3096 0aac 55534249 		.ascii	"USBInEndpointState\000"
 3096      6E456E64 
 3096      706F696E 
 3096      74537461 
 3096      746500
ARM GAS  /var/folders/t8/16hdwfmd2fg_d3q6dgx6bpmw0000gn/T//cchzqc6D.s 			page 64


 3097              	.LASF192:
 3098 0abf 5553424F 		.ascii	"USBOutEndpointState\000"
 3098      7574456E 
 3098      64706F69 
 3098      6E745374 
 3098      61746500 
 3099              	.LASF133:
 3100 0ad3 55534244 		.ascii	"USBDriver\000"
 3100      72697665 
 3100      7200
 3101              	.LASF15:
 3102 0add 75696E74 		.ascii	"uint8_t\000"
 3102      385F7400 
 3103              	.LASF188:
 3104 0ae5 72787369 		.ascii	"rxsize\000"
 3104      7A6500
 3105              	.LASF37:
 3106 0aec 666C6167 		.ascii	"flags\000"
 3106      7300
 3107              	.LASF137:
 3108 0af2 696E5F70 		.ascii	"in_params\000"
 3108      6172616D 
 3108      7300
 3109              	.LASF79:
 3110 0afc 50444F52 		.ascii	"PDOR\000"
 3110      00
 3111              	.LASF92:
 3112 0b01 77746F62 		.ascii	"wtobjp\000"
 3112      6A7000
 3113              	.LASF47:
 3114 0b08 74687265 		.ascii	"threads_list_t\000"
 3114      6164735F 
 3114      6C697374 
 3114      5F7400
 3115              	.LASF116:
 3116 0b17 6F66665F 		.ascii	"off_state\000"
 3116      73746174 
 3116      6500
 3117              	.LASF60:
 3118 0b21 64656C74 		.ascii	"delta\000"
 3118      6100
 3119              	.LASF117:
 3120 0b27 6F66665F 		.ascii	"off_flags\000"
 3120      666C6167 
 3120      7300
 3121              	.LASF155:
 3122 0b31 5553425F 		.ascii	"USB_SUSPENDED\000"
 3122      53555350 
 3122      454E4445 
 3122      4400
 3123              	.LASF43:
 3124 0b3f 6D74786C 		.ascii	"mtxlist\000"
 3124      69737400 
 3125              	.LASF125:
 3126 0b47 696F6D6F 		.ascii	"iomode_t\000"
 3126      64655F74 
 3126      00
ARM GAS  /var/folders/t8/16hdwfmd2fg_d3q6dgx6bpmw0000gn/T//cchzqc6D.s 			page 65


 3127              	.LASF131:
 3128 0b50 50414C43 		.ascii	"PALConfig\000"
 3128      6F6E6669 
 3128      6700
 3129              	.LASF39:
 3130 0b5a 70726565 		.ascii	"preempt\000"
 3130      6D707400 
 3131              	.LASF165:
 3132 0b62 5553425F 		.ascii	"USB_EVENT_RESET\000"
 3132      4556454E 
 3132      545F5245 
 3132      53455400 
 3133              	.LASF132:
 3134 0b72 70616C5F 		.ascii	"pal_default_config\000"
 3134      64656661 
 3134      756C745F 
 3134      636F6E66 
 3134      696700
 3135              	.LASF128:
 3136 0b85 70616473 		.ascii	"pads\000"
 3136      00
 3137              		.ident	"GCC: (GNU Tools for Arm Embedded Processors 7-2017-q4-major) 7.2.1 20170904 (release) [ARM
ARM GAS  /var/folders/t8/16hdwfmd2fg_d3q6dgx6bpmw0000gn/T//cchzqc6D.s 			page 66


DEFINED SYMBOLS
                            *ABS*:0000000000000000 hal_st_lld.c
/var/folders/t8/16hdwfmd2fg_d3q6dgx6bpmw0000gn/T//cchzqc6D.s:16     .text.SysTick_Handler:0000000000000000 $t
/var/folders/t8/16hdwfmd2fg_d3q6dgx6bpmw0000gn/T//cchzqc6D.s:24     .text.SysTick_Handler:0000000000000000 SysTick_Handler
/var/folders/t8/16hdwfmd2fg_d3q6dgx6bpmw0000gn/T//cchzqc6D.s:111    .text.st_lld_init:0000000000000000 $t
/var/folders/t8/16hdwfmd2fg_d3q6dgx6bpmw0000gn/T//cchzqc6D.s:119    .text.st_lld_init:0000000000000000 st_lld_init
/var/folders/t8/16hdwfmd2fg_d3q6dgx6bpmw0000gn/T//cchzqc6D.s:152    .text.st_lld_init:000000000000001c $d

UNDEFINED SYMBOLS
_dbg_check_enter_isr
_dbg_check_lock_from_isr
chSysTimerHandlerI
_dbg_check_unlock_from_isr
_dbg_check_leave_isr
_port_irq_epilogue
nvicSetSystemHandlerPriority
