ARM GAS  /var/folders/t8/16hdwfmd2fg_d3q6dgx6bpmw0000gn/T//cciK6y6j.s 			page 1


   1              		.cpu cortex-m0plus
   2              		.eabi_attribute 20, 1
   3              		.eabi_attribute 21, 1
   4              		.eabi_attribute 23, 3
   5              		.eabi_attribute 24, 1
   6              		.eabi_attribute 25, 1
   7              		.eabi_attribute 26, 1
   8              		.eabi_attribute 30, 2
   9              		.eabi_attribute 34, 0
  10              		.eabi_attribute 18, 4
  11              		.file	"hal_pal_lld.c"
  12              		.text
  13              	.Ltext0:
  14              		.cfi_sections	.debug_frame
  15              		.section	.text._pal_lld_readpad,"ax",%progbits
  16              		.align	1
  17              		.p2align 4,,15
  18              		.global	_pal_lld_readpad
  19              		.syntax unified
  20              		.code	16
  21              		.thumb_func
  22              		.fpu softvfp
  23              		.type	_pal_lld_readpad, %function
  24              	_pal_lld_readpad:
  25              	.LFB174:
  26              		.file 1 "../../tmk_core/tool/chibios/ChibiOS-Contrib/os/hal/ports/KINETIS/LLD/hal_pal_lld.c"
  27              		.loc 1 61 0
  28              		.cfi_startproc
  29              		@ args = 0, pretend = 0, frame = 0
  30              		@ frame_needed = 0, uses_anonymous_args = 0
  31              		@ link register save eliminated.
  32              	.LVL0:
  33              		.loc 1 63 0
  34 0000 0369     		ldr	r3, [r0, #16]
  35 0002 0120     		movs	r0, #1
  36              	.LVL1:
  37 0004 CB40     		lsrs	r3, r3, r1
  38              		.loc 1 64 0
  39              		@ sp needed
  40              		.loc 1 63 0
  41 0006 1840     		ands	r0, r3
  42              		.loc 1 64 0
  43 0008 7047     		bx	lr
  44              		.cfi_endproc
  45              	.LFE174:
  46              		.size	_pal_lld_readpad, .-_pal_lld_readpad
  47 000a C046     		.section	.text._pal_lld_writepad,"ax",%progbits
  48              		.align	1
  49              		.p2align 4,,15
  50              		.global	_pal_lld_writepad
  51              		.syntax unified
  52              		.code	16
  53              		.thumb_func
  54              		.fpu softvfp
  55              		.type	_pal_lld_writepad, %function
  56              	_pal_lld_writepad:
  57              	.LFB175:
ARM GAS  /var/folders/t8/16hdwfmd2fg_d3q6dgx6bpmw0000gn/T//cciK6y6j.s 			page 2


  58              		.loc 1 83 0
  59              		.cfi_startproc
  60              		@ args = 0, pretend = 0, frame = 0
  61              		@ frame_needed = 0, uses_anonymous_args = 0
  62              		@ link register save eliminated.
  63              	.LVL2:
  64 0000 0123     		movs	r3, #1
  65 0002 8B40     		lsls	r3, r3, r1
  66              		.loc 1 85 0
  67 0004 012A     		cmp	r2, #1
  68 0006 03D0     		beq	.L6
  69              		.loc 1 88 0
  70 0008 0268     		ldr	r2, [r0]
  71              	.LVL3:
  72 000a 9A43     		bics	r2, r3
  73 000c 0260     		str	r2, [r0]
  74              	.L3:
  75              		.loc 1 89 0
  76              		@ sp needed
  77 000e 7047     		bx	lr
  78              	.LVL4:
  79              	.L6:
  80              		.loc 1 86 0
  81 0010 0268     		ldr	r2, [r0]
  82              	.LVL5:
  83 0012 1343     		orrs	r3, r2
  84 0014 0360     		str	r3, [r0]
  85 0016 FAE7     		b	.L3
  86              		.cfi_endproc
  87              	.LFE175:
  88              		.size	_pal_lld_writepad, .-_pal_lld_writepad
  89              		.section	.text._pal_lld_setpadmode,"ax",%progbits
  90              		.align	1
  91              		.p2align 4,,15
  92              		.global	_pal_lld_setpadmode
  93              		.syntax unified
  94              		.code	16
  95              		.thumb_func
  96              		.fpu softvfp
  97              		.type	_pal_lld_setpadmode, %function
  98              	_pal_lld_setpadmode:
  99              	.LFB176:
 100              		.loc 1 107 0
 101              		.cfi_startproc
 102              		@ args = 0, pretend = 0, frame = 0
 103              		@ frame_needed = 0, uses_anonymous_args = 0
 104              	.LVL6:
 105 0000 70B5     		push	{r4, r5, r6, lr}
 106              		.cfi_def_cfa_offset 16
 107              		.cfi_offset 4, -16
 108              		.cfi_offset 5, -12
 109              		.cfi_offset 6, -8
 110              		.cfi_offset 14, -4
 111              		.loc 1 107 0
 112 0002 0400     		movs	r4, r0
 113 0004 0D00     		movs	r5, r1
 114 0006 1600     		movs	r6, r2
ARM GAS  /var/folders/t8/16hdwfmd2fg_d3q6dgx6bpmw0000gn/T//cciK6y6j.s 			page 3


 115              		.loc 1 111 0
 116 0008 1F29     		cmp	r1, #31
 117 000a 34D8     		bhi	.L36
 118              	.LVL7:
 119              	.L8:
 120 000c 0123     		movs	r3, #1
 121              		.loc 1 114 0
 122 000e 6269     		ldr	r2, [r4, #20]
 123 0010 AB40     		lsls	r3, r3, r5
 124              		.loc 1 113 0
 125 0012 062E     		cmp	r6, #6
 126 0014 21D0     		beq	.L37
 127              		.loc 1 116 0
 128 0016 9A43     		bics	r2, r3
 129              		.loc 1 118 0
 130 0018 314B     		ldr	r3, .L41
 131              		.loc 1 116 0
 132 001a 6261     		str	r2, [r4, #20]
 133              		.loc 1 118 0
 134 001c 9C42     		cmp	r4, r3
 135 001e 10D0     		beq	.L38
 136              		.loc 1 120 0
 137 0020 304B     		ldr	r3, .L41+4
 138 0022 9C42     		cmp	r4, r3
 139 0024 2BD0     		beq	.L39
 140              	.L13:
 141              		.loc 1 122 0
 142 0026 304B     		ldr	r3, .L41+8
 143 0028 9C42     		cmp	r4, r3
 144 002a 53D0     		beq	.L30
 145              		.loc 1 124 0
 146 002c 2F4B     		ldr	r3, .L41+12
 147 002e 9C42     		cmp	r4, r3
 148 0030 52D0     		beq	.L31
 149              		.loc 1 126 0
 150 0032 2F4B     		ldr	r3, .L41+16
 151 0034 9C42     		cmp	r4, r3
 152 0036 24D0     		beq	.L32
 153              		.loc 1 129 0
 154 0038 2E48     		ldr	r0, .L41+20
 155 003a FFF7FEFF 		bl	chSysHalt
 156              	.LVL8:
 157              		.loc 1 109 0
 158 003e 0023     		movs	r3, #0
 159 0040 00E0     		b	.L12
 160              	.L38:
 161              		.loc 1 119 0
 162 0042 2D4B     		ldr	r3, .L41+24
 163              	.L12:
 164              		.loc 1 131 0
 165 0044 162E     		cmp	r6, #22
 166 0046 07D8     		bhi	.L7
 167 0048 2C4A     		ldr	r2, .L41+28
 168 004a B600     		lsls	r6, r6, #2
 169              	.LVL9:
 170 004c 9259     		ldr	r2, [r2, r6]
 171 004e 9746     		mov	pc, r2
ARM GAS  /var/folders/t8/16hdwfmd2fg_d3q6dgx6bpmw0000gn/T//cciK6y6j.s 			page 4


 172              		.section	.rodata._pal_lld_setpadmode,"a",%progbits
 173              		.align	2
 174              	.L16:
 175 0000 6C000000 		.word	.L20
 176 0004 C2000000 		.word	.L17
 177 0008 6C000000 		.word	.L20
 178 000c B8000000 		.word	.L18
 179 0010 AE000000 		.word	.L19
 180 0014 C2000000 		.word	.L17
 181 0018 6C000000 		.word	.L20
 182 001c 58000000 		.word	.L7
 183 0020 58000000 		.word	.L7
 184 0024 58000000 		.word	.L7
 185 0028 58000000 		.word	.L7
 186 002c 58000000 		.word	.L7
 187 0030 58000000 		.word	.L7
 188 0034 58000000 		.word	.L7
 189 0038 58000000 		.word	.L7
 190 003c 58000000 		.word	.L7
 191 0040 6C000000 		.word	.L20
 192 0044 86000000 		.word	.L21
 193 0048 A4000000 		.word	.L22
 194 004c 9A000000 		.word	.L23
 195 0050 90000000 		.word	.L24
 196 0054 50000000 		.word	.L25
 197 0058 CA000000 		.word	.L26
 198              		.section	.text._pal_lld_setpadmode
 199              	.L25:
 200              		.loc 1 174 0
 201 0050 C022     		movs	r2, #192
 202 0052 AD00     		lsls	r5, r5, #2
 203 0054 D200     		lsls	r2, r2, #3
 204 0056 EA50     		str	r2, [r5, r3]
 205              	.L7:
 206              		.loc 1 180 0
 207              		@ sp needed
 208              	.LVL10:
 209 0058 70BD     		pop	{r4, r5, r6, pc}
 210              	.LVL11:
 211              	.L37:
 212              		.loc 1 114 0
 213 005a 1343     		orrs	r3, r2
 214 005c 6361     		str	r3, [r4, #20]
 215              		.loc 1 118 0
 216 005e 204B     		ldr	r3, .L41
 217 0060 9C42     		cmp	r4, r3
 218 0062 3BD0     		beq	.L40
 219              		.loc 1 120 0
 220 0064 1F4B     		ldr	r3, .L41+4
 221 0066 9C42     		cmp	r4, r3
 222 0068 DDD1     		bne	.L13
 223              		.loc 1 121 0
 224 006a 254B     		ldr	r3, .L41+32
 225              	.LVL12:
 226              	.L20:
 227              		.loc 1 159 0
 228 006c 8022     		movs	r2, #128
ARM GAS  /var/folders/t8/16hdwfmd2fg_d3q6dgx6bpmw0000gn/T//cciK6y6j.s 			page 5


 229 006e AD00     		lsls	r5, r5, #2
 230 0070 5200     		lsls	r2, r2, #1
 231 0072 EA50     		str	r2, [r5, r3]
 232              		.loc 1 160 0
 233 0074 F0E7     		b	.L7
 234              	.LVL13:
 235              	.L36:
 236              		.loc 1 111 0 discriminator 2
 237 0076 1F48     		ldr	r0, .L41+20
 238              	.LVL14:
 239 0078 FFF7FEFF 		bl	chSysHalt
 240              	.LVL15:
 241 007c C6E7     		b	.L8
 242              	.L39:
 243              		.loc 1 121 0
 244 007e 204B     		ldr	r3, .L41+32
 245 0080 E0E7     		b	.L12
 246              	.L32:
 247              		.loc 1 127 0
 248 0082 204B     		ldr	r3, .L41+36
 249 0084 DEE7     		b	.L12
 250              	.LVL16:
 251              	.L21:
 252              		.loc 1 162 0
 253 0086 8022     		movs	r2, #128
 254 0088 AD00     		lsls	r5, r5, #2
 255 008a 9200     		lsls	r2, r2, #2
 256 008c EA50     		str	r2, [r5, r3]
 257              		.loc 1 163 0
 258 008e E3E7     		b	.L7
 259              	.L24:
 260              		.loc 1 171 0
 261 0090 A022     		movs	r2, #160
 262 0092 AD00     		lsls	r5, r5, #2
 263 0094 D200     		lsls	r2, r2, #3
 264 0096 EA50     		str	r2, [r5, r3]
 265              		.loc 1 172 0
 266 0098 DEE7     		b	.L7
 267              	.L23:
 268              		.loc 1 168 0
 269 009a 8022     		movs	r2, #128
 270 009c AD00     		lsls	r5, r5, #2
 271 009e D200     		lsls	r2, r2, #3
 272 00a0 EA50     		str	r2, [r5, r3]
 273              		.loc 1 169 0
 274 00a2 D9E7     		b	.L7
 275              	.L22:
 276              		.loc 1 165 0
 277 00a4 C022     		movs	r2, #192
 278 00a6 AD00     		lsls	r5, r5, #2
 279 00a8 9200     		lsls	r2, r2, #2
 280 00aa EA50     		str	r2, [r5, r3]
 281              		.loc 1 166 0
 282 00ac D4E7     		b	.L7
 283              	.L19:
 284              		.loc 1 151 0
 285 00ae 8122     		movs	r2, #129
ARM GAS  /var/folders/t8/16hdwfmd2fg_d3q6dgx6bpmw0000gn/T//cciK6y6j.s 			page 6


 286 00b0 AD00     		lsls	r5, r5, #2
 287 00b2 5200     		lsls	r2, r2, #1
 288 00b4 EA50     		str	r2, [r5, r3]
 289              		.loc 1 153 0
 290 00b6 CFE7     		b	.L7
 291              	.L18:
 292              		.loc 1 146 0
 293 00b8 0422     		movs	r2, #4
 294 00ba AD00     		lsls	r5, r5, #2
 295 00bc FF32     		adds	r2, r2, #255
 296 00be EA50     		str	r2, [r5, r3]
 297              		.loc 1 149 0
 298 00c0 CAE7     		b	.L7
 299              	.L17:
 300              		.loc 1 156 0
 301 00c2 0022     		movs	r2, #0
 302 00c4 AD00     		lsls	r5, r5, #2
 303 00c6 EA50     		str	r2, [r5, r3]
 304              		.loc 1 157 0
 305 00c8 C6E7     		b	.L7
 306              	.L26:
 307              		.loc 1 177 0
 308 00ca E022     		movs	r2, #224
 309 00cc AD00     		lsls	r5, r5, #2
 310 00ce D200     		lsls	r2, r2, #3
 311 00d0 EA50     		str	r2, [r5, r3]
 312              		.loc 1 180 0
 313 00d2 C1E7     		b	.L7
 314              	.LVL17:
 315              	.L30:
 316              		.loc 1 123 0
 317 00d4 0C4B     		ldr	r3, .L41+40
 318 00d6 B5E7     		b	.L12
 319              	.L31:
 320              		.loc 1 125 0
 321 00d8 0C4B     		ldr	r3, .L41+44
 322 00da B3E7     		b	.L12
 323              	.L40:
 324              		.loc 1 119 0
 325 00dc 064B     		ldr	r3, .L41+24
 326 00de C5E7     		b	.L20
 327              	.L42:
 328              		.align	2
 329              	.L41:
 330 00e0 00F00F40 		.word	1074786304
 331 00e4 40F00F40 		.word	1074786368
 332 00e8 80F00F40 		.word	1074786432
 333 00ec C0F00F40 		.word	1074786496
 334 00f0 00F10F40 		.word	1074786560
 335 00f4 00000000 		.word	.LANCHOR0
 336 00f8 00900440 		.word	1074040832
 337 00fc 00000000 		.word	.L16
 338 0100 00A00440 		.word	1074044928
 339 0104 00D00440 		.word	1074057216
 340 0108 00B00440 		.word	1074049024
 341 010c 00C00440 		.word	1074053120
 342              		.cfi_endproc
ARM GAS  /var/folders/t8/16hdwfmd2fg_d3q6dgx6bpmw0000gn/T//cciK6y6j.s 			page 7


 343              	.LFE176:
 344              		.size	_pal_lld_setpadmode, .-_pal_lld_setpadmode
 345              		.section	.text._pal_lld_init,"ax",%progbits
 346              		.align	1
 347              		.p2align 4,,15
 348              		.global	_pal_lld_init
 349              		.syntax unified
 350              		.code	16
 351              		.thumb_func
 352              		.fpu softvfp
 353              		.type	_pal_lld_init, %function
 354              	_pal_lld_init:
 355              	.LFB177:
 356              		.loc 1 198 0
 357              		.cfi_startproc
 358              		@ args = 0, pretend = 0, frame = 0
 359              		@ frame_needed = 0, uses_anonymous_args = 0
 360              	.LVL18:
 361 0000 F8B5     		push	{r3, r4, r5, r6, r7, lr}
 362              		.cfi_def_cfa_offset 24
 363              		.cfi_offset 3, -24
 364              		.cfi_offset 4, -20
 365              		.cfi_offset 5, -16
 366              		.cfi_offset 6, -12
 367              		.cfi_offset 7, -8
 368              		.cfi_offset 14, -4
 369              		.loc 1 203 0
 370 0002 F823     		movs	r3, #248
 371 0004 0B49     		ldr	r1, .L48
 372 0006 0C4A     		ldr	r2, .L48+4
 373 0008 9B01     		lsls	r3, r3, #6
 374 000a 8C58     		ldr	r4, [r1, r2]
 375 000c 0600     		movs	r6, r0
 376 000e 2343     		orrs	r3, r4
 377 0010 8B50     		str	r3, [r1, r2]
 378              	.LVL19:
 379 0012 A523     		movs	r3, #165
 380 0014 9B00     		lsls	r3, r3, #2
 381 0016 C718     		adds	r7, r0, r3
 382              	.LVL20:
 383              	.L44:
 384              		.loc 1 211 0
 385 0018 0024     		movs	r4, #0
 386 001a 351D     		adds	r5, r6, #4
 387              	.LVL21:
 388              	.L45:
 389              		.loc 1 212 0 discriminator 3
 390 001c E1B2     		uxtb	r1, r4
 391 001e 04CD     		ldmia	r5!, {r2}
 392 0020 3068     		ldr	r0, [r6]
 393              		.loc 1 211 0 discriminator 3
 394 0022 0134     		adds	r4, r4, #1
 395              	.LVL22:
 396              		.loc 1 212 0 discriminator 3
 397 0024 FFF7FEFF 		bl	_pal_lld_setpadmode
 398              	.LVL23:
 399              		.loc 1 211 0 discriminator 3
ARM GAS  /var/folders/t8/16hdwfmd2fg_d3q6dgx6bpmw0000gn/T//cciK6y6j.s 			page 8


 400 0028 202C     		cmp	r4, #32
 401 002a F7D1     		bne	.L45
 402 002c 8436     		adds	r6, r6, #132
 403              		.loc 1 210 0 discriminator 2
 404 002e BE42     		cmp	r6, r7
 405 0030 F2D1     		bne	.L44
 406              		.loc 1 217 0
 407              		@ sp needed
 408              	.LVL24:
 409              	.LVL25:
 410 0032 F8BD     		pop	{r3, r4, r5, r6, r7, pc}
 411              	.L49:
 412              		.align	2
 413              	.L48:
 414 0034 00700440 		.word	1074032640
 415 0038 38100000 		.word	4152
 416              		.cfi_endproc
 417              	.LFE177:
 418              		.size	_pal_lld_init, .-_pal_lld_init
 419              		.section	.text._pal_lld_setgroupmode,"ax",%progbits
 420              		.align	1
 421              		.p2align 4,,15
 422              		.global	_pal_lld_setgroupmode
 423              		.syntax unified
 424              		.code	16
 425              		.thumb_func
 426              		.fpu softvfp
 427              		.type	_pal_lld_setgroupmode, %function
 428              	_pal_lld_setgroupmode:
 429              	.LFB178:
 430              		.loc 1 232 0
 431              		.cfi_startproc
 432              		@ args = 0, pretend = 0, frame = 0
 433              		@ frame_needed = 0, uses_anonymous_args = 0
 434              	.LVL26:
 435 0000 70B5     		push	{r4, r5, r6, lr}
 436              		.cfi_def_cfa_offset 16
 437              		.cfi_offset 4, -16
 438              		.cfi_offset 5, -12
 439              		.cfi_offset 6, -8
 440              		.cfi_offset 14, -4
 441              		.loc 1 232 0
 442 0002 0600     		movs	r6, r0
 443 0004 1500     		movs	r5, r2
 444              		.loc 1 238 0
 445 0006 0024     		movs	r4, #0
 446              	.LVL27:
 447              	.L51:
 448              		.loc 1 239 0 discriminator 3
 449 0008 E1B2     		uxtb	r1, r4
 450 000a 2A00     		movs	r2, r5
 451 000c 3000     		movs	r0, r6
 452              		.loc 1 238 0 discriminator 3
 453 000e 0134     		adds	r4, r4, #1
 454              	.LVL28:
 455              		.loc 1 239 0 discriminator 3
 456 0010 FFF7FEFF 		bl	_pal_lld_setpadmode
ARM GAS  /var/folders/t8/16hdwfmd2fg_d3q6dgx6bpmw0000gn/T//cciK6y6j.s 			page 9


 457              	.LVL29:
 458              		.loc 1 238 0 discriminator 3
 459 0014 202C     		cmp	r4, #32
 460 0016 F7D1     		bne	.L51
 461              		.loc 1 241 0
 462              		@ sp needed
 463              	.LVL30:
 464              	.LVL31:
 465              	.LVL32:
 466 0018 70BD     		pop	{r4, r5, r6, pc}
 467              		.cfi_endproc
 468              	.LFE178:
 469              		.size	_pal_lld_setgroupmode, .-_pal_lld_setgroupmode
 470 001a C046     		.section	.rodata.__func__.6432,"a",%progbits
 471              		.align	2
 472              		.set	.LANCHOR0,. + 0
 473              		.type	__func__.6432, %object
 474              		.size	__func__.6432, 20
 475              	__func__.6432:
 476 0000 5F70616C 		.ascii	"_pal_lld_setpadmode\000"
 476      5F6C6C64 
 476      5F736574 
 476      7061646D 
 476      6F646500 
 477              		.text
 478              	.Letext0:
 479              		.file 2 "/usr/local/Caskroom/gcc-arm-embedded/7-2017-q4-major/gcc-arm-none-eabi-7-2017-q4-major/li
 480              		.file 3 "/usr/local/Caskroom/gcc-arm-embedded/7-2017-q4-major/gcc-arm-none-eabi-7-2017-q4-major/ar
 481              		.file 4 "/usr/local/Caskroom/gcc-arm-embedded/7-2017-q4-major/gcc-arm-none-eabi-7-2017-q4-major/ar
 482              		.file 5 "../../tmk_core/tool/chibios/ChibiOS/os/common/ports/ARMCMx/compilers/GCC/chtypes.h"
 483              		.file 6 "../../tmk_core/tool/chibios/ChibiOS/os/rt/include/chsystypes.h"
 484              		.file 7 "../../tmk_core/tool/chibios/ChibiOS/os/rt/include/chschd.h"
 485              		.file 8 "../../tmk_core/tool/chibios/ChibiOS-Contrib/os/common/ext/CMSIS/KINETIS/kl2xz.h"
 486              		.file 9 "../../tmk_core/tool/chibios/ChibiOS/os/common/ports/ARMCMx/chcore.h"
 487              		.file 10 "../../tmk_core/tool/chibios/ChibiOS/os/common/ports/ARMCMx/chcore_v6m.h"
 488              		.file 11 "../../tmk_core/tool/chibios/ChibiOS/os/rt/include/chsem.h"
 489              		.file 12 "../../tmk_core/tool/chibios/ChibiOS/os/rt/include/chmtx.h"
 490              		.file 13 "../../tmk_core/tool/chibios/ChibiOS/os/rt/include/chregistry.h"
 491              		.file 14 "../../tmk_core/tool/chibios/ChibiOS/os/rt/include/chsys.h"
 492              		.file 15 "../../tmk_core/tool/chibios/ChibiOS-Contrib/os/hal/ports/KINETIS/LLD/hal_pal_lld.h"
 493              		.file 16 "../../tmk_core/tool/chibios/ChibiOS/os/hal/include/hal_usb.h"
 494              		.file 17 "../../tmk_core/tool/chibios/ChibiOS-Contrib/os/hal/ports/KINETIS/LLD/hal_usb_lld.h"