ARM GAS  /var/folders/t8/16hdwfmd2fg_d3q6dgx6bpmw0000gn/T//cciK6y6j.s 			page 1


   1              		.cpu cortex-m0plus
   2              		.eabi_attribute 20, 1
   3              		.eabi_attribute 21, 1
   4              		.eabi_attribute 23, 3
   5              		.eabi_attribute 24, 1
   6              		.eabi_attribute 25, 1
   7              		.eabi_attribute 26, 1
   8              		.eabi_attribute 30, 2
   9              		.eabi_attribute 34, 0
  10              		.eabi_attribute 18, 4
  11              		.file	"hal_pal_lld.c"
  12              		.text
  13              	.Ltext0:
  14              		.cfi_sections	.debug_frame
  15              		.section	.text._pal_lld_readpad,"ax",%progbits
  16              		.align	1
  17              		.p2align 4,,15
  18              		.global	_pal_lld_readpad
  19              		.syntax unified
  20              		.code	16
  21              		.thumb_func
  22              		.fpu softvfp
  23              		.type	_pal_lld_readpad, %function
  24              	_pal_lld_readpad:
  25              	.LFB174:
  26              		.file 1 "../../tmk_core/tool/chibios/ChibiOS-Contrib/os/hal/ports/KINETIS/LLD/hal_pal_lld.c"
  27              		.loc 1 61 0
  28              		.cfi_startproc
  29              		@ args = 0, pretend = 0, frame = 0
  30              		@ frame_needed = 0, uses_anonymous_args = 0
  31              		@ link register save eliminated.
  32              	.LVL0:
  33              		.loc 1 63 0
  34 0000 0369     		ldr	r3, [r0, #16]
  35 0002 0120     		movs	r0, #1
  36              	.LVL1:
  37 0004 CB40     		lsrs	r3, r3, r1
  38              		.loc 1 64 0
  39              		@ sp needed
  40              		.loc 1 63 0
  41 0006 1840     		ands	r0, r3
  42              		.loc 1 64 0
  43 0008 7047     		bx	lr
  44              		.cfi_endproc
  45              	.LFE174:
  46              		.size	_pal_lld_readpad, .-_pal_lld_readpad
  47 000a C046     		.section	.text._pal_lld_writepad,"ax",%progbits
  48              		.align	1
  49              		.p2align 4,,15
  50              		.global	_pal_lld_writepad
  51              		.syntax unified
  52              		.code	16
  53              		.thumb_func
  54              		.fpu softvfp
  55              		.type	_pal_lld_writepad, %function
  56              	_pal_lld_writepad:
  57              	.LFB175:
ARM GAS  /var/folders/t8/16hdwfmd2fg_d3q6dgx6bpmw0000gn/T//cciK6y6j.s 			page 2


  58              		.loc 1 83 0
  59              		.cfi_startproc
  60              		@ args = 0, pretend = 0, frame = 0
  61              		@ frame_needed = 0, uses_anonymous_args = 0
  62              		@ link register save eliminated.
  63              	.LVL2:
  64 0000 0123     		movs	r3, #1
  65 0002 8B40     		lsls	r3, r3, r1
  66              		.loc 1 85 0
  67 0004 012A     		cmp	r2, #1
  68 0006 03D0     		beq	.L6
  69              		.loc 1 88 0
  70 0008 0268     		ldr	r2, [r0]
  71              	.LVL3:
  72 000a 9A43     		bics	r2, r3
  73 000c 0260     		str	r2, [r0]
  74              	.L3:
  75              		.loc 1 89 0
  76              		@ sp needed
  77 000e 7047     		bx	lr
  78              	.LVL4:
  79              	.L6:
  80              		.loc 1 86 0
  81 0010 0268     		ldr	r2, [r0]
  82              	.LVL5:
  83 0012 1343     		orrs	r3, r2
  84 0014 0360     		str	r3, [r0]
  85 0016 FAE7     		b	.L3
  86              		.cfi_endproc
  87              	.LFE175:
  88              		.size	_pal_lld_writepad, .-_pal_lld_writepad
  89              		.section	.text._pal_lld_setpadmode,"ax",%progbits
  90              		.align	1
  91              		.p2align 4,,15
  92              		.global	_pal_lld_setpadmode
  93              		.syntax unified
  94              		.code	16
  95              		.thumb_func
  96              		.fpu softvfp
  97              		.type	_pal_lld_setpadmode, %function
  98              	_pal_lld_setpadmode:
  99              	.LFB176:
 100              		.loc 1 107 0
 101              		.cfi_startproc
 102              		@ args = 0, pretend = 0, frame = 0
 103              		@ frame_needed = 0, uses_anonymous_args = 0
 104              	.LVL6:
 105 0000 70B5     		push	{r4, r5, r6, lr}
 106              		.cfi_def_cfa_offset 16
 107              		.cfi_offset 4, -16
 108              		.cfi_offset 5, -12
 109              		.cfi_offset 6, -8
 110              		.cfi_offset 14, -4
 111              		.loc 1 107 0
 112 0002 0400     		movs	r4, r0
 113 0004 0D00     		movs	r5, r1
 114 0006 1600     		movs	r6, r2
ARM GAS  /var/folders/t8/16hdwfmd2fg_d3q6dgx6bpmw0000gn/T//cciK6y6j.s 			page 3


 115              		.loc 1 111 0
 116 0008 1F29     		cmp	r1, #31
 117 000a 34D8     		bhi	.L36
 118              	.LVL7:
 119              	.L8:
 120 000c 0123     		movs	r3, #1
 121              		.loc 1 114 0
 122 000e 6269     		ldr	r2, [r4, #20]
 123 0010 AB40     		lsls	r3, r3, r5
 124              		.loc 1 113 0
 125 0012 062E     		cmp	r6, #6
 126 0014 21D0     		beq	.L37
 127              		.loc 1 116 0
 128 0016 9A43     		bics	r2, r3
 129              		.loc 1 118 0
 130 0018 314B     		ldr	r3, .L41
 131              		.loc 1 116 0
 132 001a 6261     		str	r2, [r4, #20]
 133              		.loc 1 118 0
 134 001c 9C42     		cmp	r4, r3
 135 001e 10D0     		beq	.L38
 136              		.loc 1 120 0
 137 0020 304B     		ldr	r3, .L41+4
 138 0022 9C42     		cmp	r4, r3
 139 0024 2BD0     		beq	.L39
 140              	.L13:
 141              		.loc 1 122 0
 142 0026 304B     		ldr	r3, .L41+8
 143 0028 9C42     		cmp	r4, r3
 144 002a 53D0     		beq	.L30
 145              		.loc 1 124 0
 146 002c 2F4B     		ldr	r3, .L41+12
 147 002e 9C42     		cmp	r4, r3
 148 0030 52D0     		beq	.L31
 149              		.loc 1 126 0
 150 0032 2F4B     		ldr	r3, .L41+16
 151 0034 9C42     		cmp	r4, r3
 152 0036 24D0     		beq	.L32
 153              		.loc 1 129 0
 154 0038 2E48     		ldr	r0, .L41+20
 155 003a FFF7FEFF 		bl	chSysHalt
 156              	.LVL8:
 157              		.loc 1 109 0
 158 003e 0023     		movs	r3, #0
 159 0040 00E0     		b	.L12
 160              	.L38:
 161              		.loc 1 119 0
 162 0042 2D4B     		ldr	r3, .L41+24
 163              	.L12:
 164              		.loc 1 131 0
 165 0044 162E     		cmp	r6, #22
 166 0046 07D8     		bhi	.L7
 167 0048 2C4A     		ldr	r2, .L41+28
 168 004a B600     		lsls	r6, r6, #2
 169              	.LVL9:
 170 004c 9259     		ldr	r2, [r2, r6]
 171 004e 9746     		mov	pc, r2
ARM GAS  /var/folders/t8/16hdwfmd2fg_d3q6dgx6bpmw0000gn/T//cciK6y6j.s 			page 4


 172              		.section	.rodata._pal_lld_setpadmode,"a",%progbits
 173              		.align	2
 174              	.L16:
 175 0000 6C000000 		.word	.L20
 176 0004 C2000000 		.word	.L17
 177 0008 6C000000 		.word	.L20
 178 000c B8000000 		.word	.L18
 179 0010 AE000000 		.word	.L19
 180 0014 C2000000 		.word	.L17
 181 0018 6C000000 		.word	.L20
 182 001c 58000000 		.word	.L7
 183 0020 58000000 		.word	.L7
 184 0024 58000000 		.word	.L7
 185 0028 58000000 		.word	.L7
 186 002c 58000000 		.word	.L7
 187 0030 58000000 		.word	.L7
 188 0034 58000000 		.word	.L7
 189 0038 58000000 		.word	.L7
 190 003c 58000000 		.word	.L7
 191 0040 6C000000 		.word	.L20
 192 0044 86000000 		.word	.L21
 193 0048 A4000000 		.word	.L22
 194 004c 9A000000 		.word	.L23
 195 0050 90000000 		.word	.L24
 196 0054 50000000 		.word	.L25
 197 0058 CA000000 		.word	.L26
 198              		.section	.text._pal_lld_setpadmode
 199              	.L25:
 200              		.loc 1 174 0
 201 0050 C022     		movs	r2, #192
 202 0052 AD00     		lsls	r5, r5, #2
 203 0054 D200     		lsls	r2, r2, #3
 204 0056 EA50     		str	r2, [r5, r3]
 205              	.L7:
 206              		.loc 1 180 0
 207              		@ sp needed
 208              	.LVL10:
 209 0058 70BD     		pop	{r4, r5, r6, pc}
 210              	.LVL11:
 211              	.L37:
 212              		.loc 1 114 0
 213 005a 1343     		orrs	r3, r2
 214 005c 6361     		str	r3, [r4, #20]
 215              		.loc 1 118 0
 216 005e 204B     		ldr	r3, .L41
 217 0060 9C42     		cmp	r4, r3
 218 0062 3BD0     		beq	.L40
 219              		.loc 1 120 0
 220 0064 1F4B     		ldr	r3, .L41+4
 221 0066 9C42     		cmp	r4, r3
 222 0068 DDD1     		bne	.L13
 223              		.loc 1 121 0
 224 006a 254B     		ldr	r3, .L41+32
 225              	.LVL12:
 226              	.L20:
 227              		.loc 1 159 0
 228 006c 8022     		movs	r2, #128
ARM GAS  /var/folders/t8/16hdwfmd2fg_d3q6dgx6bpmw0000gn/T//cciK6y6j.s 			page 5


 229 006e AD00     		lsls	r5, r5, #2
 230 0070 5200     		lsls	r2, r2, #1
 231 0072 EA50     		str	r2, [r5, r3]
 232              		.loc 1 160 0
 233 0074 F0E7     		b	.L7
 234              	.LVL13:
 235              	.L36:
 236              		.loc 1 111 0 discriminator 2
 237 0076 1F48     		ldr	r0, .L41+20
 238              	.LVL14:
 239 0078 FFF7FEFF 		bl	chSysHalt
 240              	.LVL15:
 241 007c C6E7     		b	.L8
 242              	.L39:
 243              		.loc 1 121 0
 244 007e 204B     		ldr	r3, .L41+32
 245 0080 E0E7     		b	.L12
 246              	.L32:
 247              		.loc 1 127 0
 248 0082 204B     		ldr	r3, .L41+36
 249 0084 DEE7     		b	.L12
 250              	.LVL16:
 251              	.L21:
 252              		.loc 1 162 0
 253 0086 8022     		movs	r2, #128
 254 0088 AD00     		lsls	r5, r5, #2
 255 008a 9200     		lsls	r2, r2, #2
 256 008c EA50     		str	r2, [r5, r3]
 257              		.loc 1 163 0
 258 008e E3E7     		b	.L7
 259              	.L24:
 260              		.loc 1 171 0
 261 0090 A022     		movs	r2, #160
 262 0092 AD00     		lsls	r5, r5, #2
 263 0094 D200     		lsls	r2, r2, #3
 264 0096 EA50     		str	r2, [r5, r3]
 265              		.loc 1 172 0
 266 0098 DEE7     		b	.L7
 267              	.L23:
 268              		.loc 1 168 0
 269 009a 8022     		movs	r2, #128
 270 009c AD00     		lsls	r5, r5, #2
 271 009e D200     		lsls	r2, r2, #3
 272 00a0 EA50     		str	r2, [r5, r3]
 273              		.loc 1 169 0
 274 00a2 D9E7     		b	.L7
 275              	.L22:
 276              		.loc 1 165 0
 277 00a4 C022     		movs	r2, #192
 278 00a6 AD00     		lsls	r5, r5, #2
 279 00a8 9200     		lsls	r2, r2, #2
 280 00aa EA50     		str	r2, [r5, r3]
 281              		.loc 1 166 0
 282 00ac D4E7     		b	.L7
 283              	.L19:
 284              		.loc 1 151 0
 285 00ae 8122     		movs	r2, #129
ARM GAS  /var/folders/t8/16hdwfmd2fg_d3q6dgx6bpmw0000gn/T//cciK6y6j.s 			page 6


 286 00b0 AD00     		lsls	r5, r5, #2
 287 00b2 5200     		lsls	r2, r2, #1
 288 00b4 EA50     		str	r2, [r5, r3]
 289              		.loc 1 153 0
 290 00b6 CFE7     		b	.L7
 291              	.L18:
 292              		.loc 1 146 0
 293 00b8 0422     		movs	r2, #4
 294 00ba AD00     		lsls	r5, r5, #2
 295 00bc FF32     		adds	r2, r2, #255
 296 00be EA50     		str	r2, [r5, r3]
 297              		.loc 1 149 0
 298 00c0 CAE7     		b	.L7
 299              	.L17:
 300              		.loc 1 156 0
 301 00c2 0022     		movs	r2, #0
 302 00c4 AD00     		lsls	r5, r5, #2
 303 00c6 EA50     		str	r2, [r5, r3]
 304              		.loc 1 157 0
 305 00c8 C6E7     		b	.L7
 306              	.L26:
 307              		.loc 1 177 0
 308 00ca E022     		movs	r2, #224
 309 00cc AD00     		lsls	r5, r5, #2
 310 00ce D200     		lsls	r2, r2, #3
 311 00d0 EA50     		str	r2, [r5, r3]
 312              		.loc 1 180 0
 313 00d2 C1E7     		b	.L7
 314              	.LVL17:
 315              	.L30:
 316              		.loc 1 123 0
 317 00d4 0C4B     		ldr	r3, .L41+40
 318 00d6 B5E7     		b	.L12
 319              	.L31:
 320              		.loc 1 125 0
 321 00d8 0C4B     		ldr	r3, .L41+44
 322 00da B3E7     		b	.L12
 323              	.L40:
 324              		.loc 1 119 0
 325 00dc 064B     		ldr	r3, .L41+24
 326 00de C5E7     		b	.L20
 327              	.L42:
 328              		.align	2
 329              	.L41:
 330 00e0 00F00F40 		.word	1074786304
 331 00e4 40F00F40 		.word	1074786368
 332 00e8 80F00F40 		.word	1074786432
 333 00ec C0F00F40 		.word	1074786496
 334 00f0 00F10F40 		.word	1074786560
 335 00f4 00000000 		.word	.LANCHOR0
 336 00f8 00900440 		.word	1074040832
 337 00fc 00000000 		.word	.L16
 338 0100 00A00440 		.word	1074044928
 339 0104 00D00440 		.word	1074057216
 340 0108 00B00440 		.word	1074049024
 341 010c 00C00440 		.word	1074053120
 342              		.cfi_endproc
ARM GAS  /var/folders/t8/16hdwfmd2fg_d3q6dgx6bpmw0000gn/T//cciK6y6j.s 			page 7


 343              	.LFE176:
 344              		.size	_pal_lld_setpadmode, .-_pal_lld_setpadmode
 345              		.section	.text._pal_lld_init,"ax",%progbits
 346              		.align	1
 347              		.p2align 4,,15
 348              		.global	_pal_lld_init
 349              		.syntax unified
 350              		.code	16
 351              		.thumb_func
 352              		.fpu softvfp
 353              		.type	_pal_lld_init, %function
 354              	_pal_lld_init:
 355              	.LFB177:
 356              		.loc 1 198 0
 357              		.cfi_startproc
 358              		@ args = 0, pretend = 0, frame = 0
 359              		@ frame_needed = 0, uses_anonymous_args = 0
 360              	.LVL18:
 361 0000 F8B5     		push	{r3, r4, r5, r6, r7, lr}
 362              		.cfi_def_cfa_offset 24
 363              		.cfi_offset 3, -24
 364              		.cfi_offset 4, -20
 365              		.cfi_offset 5, -16
 366              		.cfi_offset 6, -12
 367              		.cfi_offset 7, -8
 368              		.cfi_offset 14, -4
 369              		.loc 1 203 0
 370 0002 F823     		movs	r3, #248
 371 0004 0B49     		ldr	r1, .L48
 372 0006 0C4A     		ldr	r2, .L48+4
 373 0008 9B01     		lsls	r3, r3, #6
 374 000a 8C58     		ldr	r4, [r1, r2]
 375 000c 0600     		movs	r6, r0
 376 000e 2343     		orrs	r3, r4
 377 0010 8B50     		str	r3, [r1, r2]
 378              	.LVL19:
 379 0012 A523     		movs	r3, #165
 380 0014 9B00     		lsls	r3, r3, #2
 381 0016 C718     		adds	r7, r0, r3
 382              	.LVL20:
 383              	.L44:
 384              		.loc 1 211 0
 385 0018 0024     		movs	r4, #0
 386 001a 351D     		adds	r5, r6, #4
 387              	.LVL21:
 388              	.L45:
 389              		.loc 1 212 0 discriminator 3
 390 001c E1B2     		uxtb	r1, r4
 391 001e 04CD     		ldmia	r5!, {r2}
 392 0020 3068     		ldr	r0, [r6]
 393              		.loc 1 211 0 discriminator 3
 394 0022 0134     		adds	r4, r4, #1
 395              	.LVL22:
 396              		.loc 1 212 0 discriminator 3
 397 0024 FFF7FEFF 		bl	_pal_lld_setpadmode
 398              	.LVL23:
 399              		.loc 1 211 0 discriminator 3
ARM GAS  /var/folders/t8/16hdwfmd2fg_d3q6dgx6bpmw0000gn/T//cciK6y6j.s 			page 8


 400 0028 202C     		cmp	r4, #32
 401 002a F7D1     		bne	.L45
 402 002c 8436     		adds	r6, r6, #132
 403              		.loc 1 210 0 discriminator 2
 404 002e BE42     		cmp	r6, r7
 405 0030 F2D1     		bne	.L44
 406              		.loc 1 217 0
 407              		@ sp needed
 408              	.LVL24:
 409              	.LVL25:
 410 0032 F8BD     		pop	{r3, r4, r5, r6, r7, pc}
 411              	.L49:
 412              		.align	2
 413              	.L48:
 414 0034 00700440 		.word	1074032640
 415 0038 38100000 		.word	4152
 416              		.cfi_endproc
 417              	.LFE177:
 418              		.size	_pal_lld_init, .-_pal_lld_init
 419              		.section	.text._pal_lld_setgroupmode,"ax",%progbits
 420              		.align	1
 421              		.p2align 4,,15
 422              		.global	_pal_lld_setgroupmode
 423              		.syntax unified
 424              		.code	16
 425              		.thumb_func
 426              		.fpu softvfp
 427              		.type	_pal_lld_setgroupmode, %function
 428              	_pal_lld_setgroupmode:
 429              	.LFB178:
 430              		.loc 1 232 0
 431              		.cfi_startproc
 432              		@ args = 0, pretend = 0, frame = 0
 433              		@ frame_needed = 0, uses_anonymous_args = 0
 434              	.LVL26:
 435 0000 70B5     		push	{r4, r5, r6, lr}
 436              		.cfi_def_cfa_offset 16
 437              		.cfi_offset 4, -16
 438              		.cfi_offset 5, -12
 439              		.cfi_offset 6, -8
 440              		.cfi_offset 14, -4
 441              		.loc 1 232 0
 442 0002 0600     		movs	r6, r0
 443 0004 1500     		movs	r5, r2
 444              		.loc 1 238 0
 445 0006 0024     		movs	r4, #0
 446              	.LVL27:
 447              	.L51:
 448              		.loc 1 239 0 discriminator 3
 449 0008 E1B2     		uxtb	r1, r4
 450 000a 2A00     		movs	r2, r5
 451 000c 3000     		movs	r0, r6
 452              		.loc 1 238 0 discriminator 3
 453 000e 0134     		adds	r4, r4, #1
 454              	.LVL28:
 455              		.loc 1 239 0 discriminator 3
 456 0010 FFF7FEFF 		bl	_pal_lld_setpadmode
ARM GAS  /var/folders/t8/16hdwfmd2fg_d3q6dgx6bpmw0000gn/T//cciK6y6j.s 			page 9


 457              	.LVL29:
 458              		.loc 1 238 0 discriminator 3
 459 0014 202C     		cmp	r4, #32
 460 0016 F7D1     		bne	.L51
 461              		.loc 1 241 0
 462              		@ sp needed
 463              	.LVL30:
 464              	.LVL31:
 465              	.LVL32:
 466 0018 70BD     		pop	{r4, r5, r6, pc}
 467              		.cfi_endproc
 468              	.LFE178:
 469              		.size	_pal_lld_setgroupmode, .-_pal_lld_setgroupmode
 470 001a C046     		.section	.rodata.__func__.6432,"a",%progbits
 471              		.align	2
 472              		.set	.LANCHOR0,. + 0
 473              		.type	__func__.6432, %object
 474              		.size	__func__.6432, 20
 475              	__func__.6432:
 476 0000 5F70616C 		.ascii	"_pal_lld_setpadmode\000"
 476      5F6C6C64 
 476      5F736574 
 476      7061646D 
 476      6F646500 
 477              		.text
 478              	.Letext0:
 479              		.file 2 "/usr/local/Caskroom/gcc-arm-embedded/7-2017-q4-major/gcc-arm-none-eabi-7-2017-q4-major/li
 480              		.file 3 "/usr/local/Caskroom/gcc-arm-embedded/7-2017-q4-major/gcc-arm-none-eabi-7-2017-q4-major/ar
 481              		.file 4 "/usr/local/Caskroom/gcc-arm-embedded/7-2017-q4-major/gcc-arm-none-eabi-7-2017-q4-major/ar
 482              		.file 5 "../../tmk_core/tool/chibios/ChibiOS/os/common/ports/ARMCMx/compilers/GCC/chtypes.h"
 483              		.file 6 "../../tmk_core/tool/chibios/ChibiOS/os/rt/include/chsystypes.h"
 484              		.file 7 "../../tmk_core/tool/chibios/ChibiOS/os/rt/include/chschd.h"
 485              		.file 8 "../../tmk_core/tool/chibios/ChibiOS-Contrib/os/common/ext/CMSIS/KINETIS/kl2xz.h"
 486              		.file 9 "../../tmk_core/tool/chibios/ChibiOS/os/common/ports/ARMCMx/chcore.h"
 487              		.file 10 "../../tmk_core/tool/chibios/ChibiOS/os/common/ports/ARMCMx/chcore_v6m.h"
 488              		.file 11 "../../tmk_core/tool/chibios/ChibiOS/os/rt/include/chsem.h"
 489              		.file 12 "../../tmk_core/tool/chibios/ChibiOS/os/rt/include/chmtx.h"
 490              		.file 13 "../../tmk_core/tool/chibios/ChibiOS/os/rt/include/chregistry.h"
 491              		.file 14 "../../tmk_core/tool/chibios/ChibiOS/os/rt/include/chsys.h"
 492              		.file 15 "../../tmk_core/tool/chibios/ChibiOS-Contrib/os/hal/ports/KINETIS/LLD/hal_pal_lld.h"
 493              		.file 16 "../../tmk_core/tool/chibios/ChibiOS/os/hal/include/hal_usb.h"
 494              		.file 17 "../../tmk_core/tool/chibios/ChibiOS-Contrib/os/hal/ports/KINETIS/LLD/hal_usb_lld.h"
 495              		.section	.debug_info,"",%progbits
 496              	.Ldebug_info0:
 497 0000 2D110000 		.4byte	0x112d
 498 0004 0400     		.2byte	0x4
 499 0006 00000000 		.4byte	.Ldebug_abbrev0
 500 000a 04       		.byte	0x4
 501 000b 01       		.uleb128 0x1
 502 000c 85010000 		.4byte	.LASF246
 503 0010 0C       		.byte	0xc
 504 0011 09040000 		.4byte	.LASF247
 505 0015 8D020000 		.4byte	.LASF248
 506 0019 00000000 		.4byte	.Ldebug_ranges0+0
 507 001d 00000000 		.4byte	0
 508 0021 00000000 		.4byte	.Ldebug_line0
 509 0025 02       		.uleb128 0x2
ARM GAS  /var/folders/t8/16hdwfmd2fg_d3q6dgx6bpmw0000gn/T//cciK6y6j.s 			page 10


 510 0026 04       		.byte	0x4
 511 0027 05       		.byte	0x5
 512 0028 696E7400 		.ascii	"int\000"
 513 002c 03       		.uleb128 0x3
 514 002d 08000000 		.4byte	.LASF2
 515 0031 02       		.byte	0x2
 516 0032 D8       		.byte	0xd8
 517 0033 37000000 		.4byte	0x37
 518 0037 04       		.uleb128 0x4
 519 0038 04       		.byte	0x4
 520 0039 07       		.byte	0x7
 521 003a 31070000 		.4byte	.LASF0
 522 003e 04       		.uleb128 0x4
 523 003f 01       		.byte	0x1
 524 0040 06       		.byte	0x6
 525 0041 1F030000 		.4byte	.LASF1
 526 0045 03       		.uleb128 0x3
 527 0046 2A010000 		.4byte	.LASF3
 528 004a 03       		.byte	0x3
 529 004b 2B       		.byte	0x2b
 530 004c 50000000 		.4byte	0x50
 531 0050 04       		.uleb128 0x4
 532 0051 01       		.byte	0x1
 533 0052 08       		.byte	0x8
 534 0053 79030000 		.4byte	.LASF4
 535 0057 04       		.uleb128 0x4
 536 0058 02       		.byte	0x2
 537 0059 05       		.byte	0x5
 538 005a 79090000 		.4byte	.LASF5
 539 005e 03       		.uleb128 0x3
 540 005f 6B040000 		.4byte	.LASF6
 541 0063 03       		.byte	0x3
 542 0064 39       		.byte	0x39
 543 0065 69000000 		.4byte	0x69
 544 0069 04       		.uleb128 0x4
 545 006a 02       		.byte	0x2
 546 006b 07       		.byte	0x7
 547 006c 980A0000 		.4byte	.LASF7
 548 0070 03       		.uleb128 0x3
 549 0071 F90A0000 		.4byte	.LASF8
 550 0075 03       		.byte	0x3
 551 0076 4D       		.byte	0x4d
 552 0077 7B000000 		.4byte	0x7b
 553 007b 04       		.uleb128 0x4
 554 007c 04       		.byte	0x4
 555 007d 05       		.byte	0x5
 556 007e 54010000 		.4byte	.LASF9
 557 0082 03       		.uleb128 0x3
 558 0083 9F060000 		.4byte	.LASF10
 559 0087 03       		.byte	0x3
 560 0088 4F       		.byte	0x4f
 561 0089 8D000000 		.4byte	0x8d
 562 008d 04       		.uleb128 0x4
 563 008e 04       		.byte	0x4
 564 008f 07       		.byte	0x7
 565 0090 8F050000 		.4byte	.LASF11
 566 0094 04       		.uleb128 0x4
ARM GAS  /var/folders/t8/16hdwfmd2fg_d3q6dgx6bpmw0000gn/T//cciK6y6j.s 			page 11


 567 0095 08       		.byte	0x8
 568 0096 05       		.byte	0x5
 569 0097 BB060000 		.4byte	.LASF12
 570 009b 03       		.uleb128 0x3
 571 009c 7A050000 		.4byte	.LASF13
 572 00a0 03       		.byte	0x3
 573 00a1 69       		.byte	0x69
 574 00a2 A6000000 		.4byte	0xa6
 575 00a6 04       		.uleb128 0x4
 576 00a7 08       		.byte	0x8
 577 00a8 07       		.byte	0x7
 578 00a9 37080000 		.4byte	.LASF14
 579 00ad 03       		.uleb128 0x3
 580 00ae 32030000 		.4byte	.LASF15
 581 00b2 04       		.byte	0x4
 582 00b3 18       		.byte	0x18
 583 00b4 45000000 		.4byte	0x45
 584 00b8 05       		.uleb128 0x5
 585 00b9 AD000000 		.4byte	0xad
 586 00bd 03       		.uleb128 0x3
 587 00be 4E080000 		.4byte	.LASF16
 588 00c2 04       		.byte	0x4
 589 00c3 24       		.byte	0x24
 590 00c4 5E000000 		.4byte	0x5e
 591 00c8 03       		.uleb128 0x3
 592 00c9 53000000 		.4byte	.LASF17
 593 00cd 04       		.byte	0x4
 594 00ce 2C       		.byte	0x2c
 595 00cf 70000000 		.4byte	0x70
 596 00d3 03       		.uleb128 0x3
 597 00d4 6D0A0000 		.4byte	.LASF18
 598 00d8 04       		.byte	0x4
 599 00d9 30       		.byte	0x30
 600 00da 82000000 		.4byte	0x82
 601 00de 06       		.uleb128 0x6
 602 00df D3000000 		.4byte	0xd3
 603 00e3 05       		.uleb128 0x5
 604 00e4 DE000000 		.4byte	0xde
 605 00e8 03       		.uleb128 0x3
 606 00e9 83090000 		.4byte	.LASF19
 607 00ed 04       		.byte	0x4
 608 00ee 3C       		.byte	0x3c
 609 00ef 9B000000 		.4byte	0x9b
 610 00f3 03       		.uleb128 0x3
 611 00f4 2C090000 		.4byte	.LASF20
 612 00f8 05       		.byte	0x5
 613 00f9 3C       		.byte	0x3c
 614 00fa AD000000 		.4byte	0xad
 615 00fe 03       		.uleb128 0x3
 616 00ff 73010000 		.4byte	.LASF21
 617 0103 05       		.byte	0x5
 618 0104 3D       		.byte	0x3d
 619 0105 AD000000 		.4byte	0xad
 620 0109 03       		.uleb128 0x3
 621 010a 2C0A0000 		.4byte	.LASF22
 622 010e 05       		.byte	0x5
 623 010f 3E       		.byte	0x3e
ARM GAS  /var/folders/t8/16hdwfmd2fg_d3q6dgx6bpmw0000gn/T//cciK6y6j.s 			page 12


 624 0110 AD000000 		.4byte	0xad
 625 0114 03       		.uleb128 0x3
 626 0115 77080000 		.4byte	.LASF23
 627 0119 05       		.byte	0x5
 628 011a 3F       		.byte	0x3f
 629 011b AD000000 		.4byte	0xad
 630 011f 03       		.uleb128 0x3
 631 0120 3A000000 		.4byte	.LASF24
 632 0124 05       		.byte	0x5
 633 0125 40       		.byte	0x40
 634 0126 D3000000 		.4byte	0xd3
 635 012a 03       		.uleb128 0x3
 636 012b 60080000 		.4byte	.LASF25
 637 012f 05       		.byte	0x5
 638 0130 41       		.byte	0x41
 639 0131 C8000000 		.4byte	0xc8
 640 0135 03       		.uleb128 0x3
 641 0136 4C030000 		.4byte	.LASF26
 642 013a 05       		.byte	0x5
 643 013b 43       		.byte	0x43
 644 013c D3000000 		.4byte	0xd3
 645 0140 03       		.uleb128 0x3
 646 0141 12050000 		.4byte	.LASF27
 647 0145 05       		.byte	0x5
 648 0146 45       		.byte	0x45
 649 0147 C8000000 		.4byte	0xc8
 650 014b 03       		.uleb128 0x3
 651 014c 1E000000 		.4byte	.LASF28
 652 0150 06       		.byte	0x6
 653 0151 33       		.byte	0x33
 654 0152 D3000000 		.4byte	0xd3
 655 0156 06       		.uleb128 0x6
 656 0157 4B010000 		.4byte	0x14b
 657 015b 03       		.uleb128 0x3
 658 015c A5070000 		.4byte	.LASF29
 659 0160 06       		.byte	0x6
 660 0161 3F       		.byte	0x3f
 661 0162 66010000 		.4byte	0x166
 662 0166 07       		.uleb128 0x7
 663 0167 D1050000 		.4byte	.LASF48
 664 016b 44       		.byte	0x44
 665 016c 07       		.byte	0x7
 666 016d 9A       		.byte	0x9a
 667 016e 50020000 		.4byte	0x250
 668 0172 08       		.uleb128 0x8
 669 0173 A8080000 		.4byte	.LASF30
 670 0177 07       		.byte	0x7
 671 0178 9B       		.byte	0x9b
 672 0179 85020000 		.4byte	0x285
 673 017d 00       		.byte	0
 674 017e 08       		.uleb128 0x8
 675 017f EA000000 		.4byte	.LASF31
 676 0183 07       		.byte	0x7
 677 0184 9C       		.byte	0x9c
 678 0185 1F010000 		.4byte	0x11f
 679 0189 08       		.byte	0x8
 680 018a 09       		.uleb128 0x9
ARM GAS  /var/folders/t8/16hdwfmd2fg_d3q6dgx6bpmw0000gn/T//cciK6y6j.s 			page 13


 681 018b 63747800 		.ascii	"ctx\000"
 682 018f 07       		.byte	0x7
 683 0190 9D       		.byte	0x9d
 684 0191 31070000 		.4byte	0x731
 685 0195 0C       		.byte	0xc
 686 0196 08       		.uleb128 0x8
 687 0197 670A0000 		.4byte	.LASF32
 688 019b 07       		.byte	0x7
 689 019c 9F       		.byte	0x9f
 690 019d 5B020000 		.4byte	0x25b
 691 01a1 10       		.byte	0x10
 692 01a2 08       		.uleb128 0x8
 693 01a3 25060000 		.4byte	.LASF33
 694 01a7 07       		.byte	0x7
 695 01a8 A0       		.byte	0xa0
 696 01a9 5B020000 		.4byte	0x25b
 697 01ad 14       		.byte	0x14
 698 01ae 08       		.uleb128 0x8
 699 01af 6A090000 		.4byte	.LASF34
 700 01b3 07       		.byte	0x7
 701 01b4 A7       		.byte	0xa7
 702 01b5 8C080000 		.4byte	0x88c
 703 01b9 18       		.byte	0x18
 704 01ba 08       		.uleb128 0x8
 705 01bb E4080000 		.4byte	.LASF35
 706 01bf 07       		.byte	0x7
 707 01c0 B0       		.byte	0xb0
 708 01c1 A3080000 		.4byte	0x8a3
 709 01c5 1C       		.byte	0x1c
 710 01c6 08       		.uleb128 0x8
 711 01c7 A6000000 		.4byte	.LASF36
 712 01cb 07       		.byte	0x7
 713 01cc B5       		.byte	0xb5
 714 01cd FE000000 		.4byte	0xfe
 715 01d1 20       		.byte	0x20
 716 01d2 08       		.uleb128 0x8
 717 01d3 A3040000 		.4byte	.LASF37
 718 01d7 07       		.byte	0x7
 719 01d8 B9       		.byte	0xb9
 720 01d9 F3000000 		.4byte	0xf3
 721 01dd 21       		.byte	0x21
 722 01de 08       		.uleb128 0x8
 723 01df A3080000 		.4byte	.LASF38
 724 01e3 07       		.byte	0x7
 725 01e4 BE       		.byte	0xbe
 726 01e5 09010000 		.4byte	0x109
 727 01e9 22       		.byte	0x22
 728 01ea 08       		.uleb128 0x8
 729 01eb 03070000 		.4byte	.LASF39
 730 01ef 07       		.byte	0x7
 731 01f0 C4       		.byte	0xc4
 732 01f1 14010000 		.4byte	0x114
 733 01f5 23       		.byte	0x23
 734 01f6 0A       		.uleb128 0xa
 735 01f7 7500     		.ascii	"u\000"
 736 01f9 07       		.byte	0x7
 737 01fa 0F01     		.2byte	0x10f
ARM GAS  /var/folders/t8/16hdwfmd2fg_d3q6dgx6bpmw0000gn/T//cciK6y6j.s 			page 14


 738 01fc C1070000 		.4byte	0x7c1
 739 0200 24       		.byte	0x24
 740 0201 0B       		.uleb128 0xb
 741 0202 0C0A0000 		.4byte	.LASF40
 742 0206 07       		.byte	0x7
 743 0207 1401     		.2byte	0x114
 744 0209 61020000 		.4byte	0x261
 745 020d 28       		.byte	0x28
 746 020e 0B       		.uleb128 0xb
 747 020f A4090000 		.4byte	.LASF41
 748 0213 07       		.byte	0x7
 749 0214 1A01     		.2byte	0x11a
 750 0216 85020000 		.4byte	0x285
 751 021a 2C       		.byte	0x2c
 752 021b 0B       		.uleb128 0xb
 753 021c 7C010000 		.4byte	.LASF42
 754 0220 07       		.byte	0x7
 755 0221 2001     		.2byte	0x120
 756 0223 35010000 		.4byte	0x135
 757 0227 34       		.byte	0x34
 758 0228 0B       		.uleb128 0xb
 759 0229 B3060000 		.4byte	.LASF43
 760 022d 07       		.byte	0x7
 761 022e 2701     		.2byte	0x127
 762 0230 86080000 		.4byte	0x886
 763 0234 38       		.byte	0x38
 764 0235 0B       		.uleb128 0xb
 765 0236 32060000 		.4byte	.LASF44
 766 023a 07       		.byte	0x7
 767 023b 2B01     		.2byte	0x12b
 768 023d 1F010000 		.4byte	0x11f
 769 0241 3C       		.byte	0x3c
 770 0242 0B       		.uleb128 0xb
 771 0243 C1040000 		.4byte	.LASF45
 772 0247 07       		.byte	0x7
 773 0248 3201     		.2byte	0x132
 774 024a 38030000 		.4byte	0x338
 775 024e 40       		.byte	0x40
 776 024f 00       		.byte	0
 777 0250 03       		.uleb128 0x3
 778 0251 B9070000 		.4byte	.LASF46
 779 0255 06       		.byte	0x6
 780 0256 44       		.byte	0x44
 781 0257 5B020000 		.4byte	0x25b
 782 025b 0C       		.uleb128 0xc
 783 025c 04       		.byte	0x4
 784 025d 5B010000 		.4byte	0x15b
 785 0261 03       		.uleb128 0x3
 786 0262 470A0000 		.4byte	.LASF47
 787 0266 06       		.byte	0x6
 788 0267 49       		.byte	0x49
 789 0268 6C020000 		.4byte	0x26c
 790 026c 07       		.uleb128 0x7
 791 026d 53060000 		.4byte	.LASF49
 792 0271 04       		.byte	0x4
 793 0272 07       		.byte	0x7
 794 0273 88       		.byte	0x88
ARM GAS  /var/folders/t8/16hdwfmd2fg_d3q6dgx6bpmw0000gn/T//cciK6y6j.s 			page 15


 795 0274 85020000 		.4byte	0x285
 796 0278 08       		.uleb128 0x8
 797 0279 370B0000 		.4byte	.LASF50
 798 027d 07       		.byte	0x7
 799 027e 89       		.byte	0x89
 800 027f 5B020000 		.4byte	0x25b
 801 0283 00       		.byte	0
 802 0284 00       		.byte	0
 803 0285 03       		.uleb128 0x3
 804 0286 6E020000 		.4byte	.LASF51
 805 028a 06       		.byte	0x6
 806 028b 50       		.byte	0x50
 807 028c 90020000 		.4byte	0x290
 808 0290 07       		.uleb128 0x7
 809 0291 66080000 		.4byte	.LASF52
 810 0295 08       		.byte	0x8
 811 0296 07       		.byte	0x7
 812 0297 8F       		.byte	0x8f
 813 0298 B5020000 		.4byte	0x2b5
 814 029c 08       		.uleb128 0x8
 815 029d 370B0000 		.4byte	.LASF50
 816 02a1 07       		.byte	0x7
 817 02a2 90       		.byte	0x90
 818 02a3 5B020000 		.4byte	0x25b
 819 02a7 00       		.byte	0
 820 02a8 08       		.uleb128 0x8
 821 02a9 430B0000 		.4byte	.LASF53
 822 02ad 07       		.byte	0x7
 823 02ae 91       		.byte	0x91
 824 02af 5B020000 		.4byte	0x25b
 825 02b3 04       		.byte	0x4
 826 02b4 00       		.byte	0
 827 02b5 03       		.uleb128 0x3
 828 02b6 18060000 		.4byte	.LASF54
 829 02ba 06       		.byte	0x6
 830 02bb 57       		.byte	0x57
 831 02bc C0020000 		.4byte	0x2c0
 832 02c0 0D       		.uleb128 0xd
 833 02c1 3E050000 		.4byte	.LASF55
 834 02c5 1C       		.byte	0x1c
 835 02c6 07       		.byte	0x7
 836 02c7 6A01     		.2byte	0x16a
 837 02c9 1C030000 		.4byte	0x31c
 838 02cd 0B       		.uleb128 0xb
 839 02ce A8080000 		.4byte	.LASF30
 840 02d2 07       		.byte	0x7
 841 02d3 6B01     		.2byte	0x16b
 842 02d5 85020000 		.4byte	0x285
 843 02d9 00       		.byte	0
 844 02da 0B       		.uleb128 0xb
 845 02db EA000000 		.4byte	.LASF31
 846 02df 07       		.byte	0x7
 847 02e0 6C01     		.2byte	0x16c
 848 02e2 1F010000 		.4byte	0x11f
 849 02e6 08       		.byte	0x8
 850 02e7 0A       		.uleb128 0xa
 851 02e8 63747800 		.ascii	"ctx\000"
ARM GAS  /var/folders/t8/16hdwfmd2fg_d3q6dgx6bpmw0000gn/T//cciK6y6j.s 			page 16


 852 02ec 07       		.byte	0x7
 853 02ed 6E01     		.2byte	0x16e
 854 02ef 31070000 		.4byte	0x731
 855 02f3 0C       		.byte	0xc
 856 02f4 0B       		.uleb128 0xb
 857 02f5 670A0000 		.4byte	.LASF32
 858 02f9 07       		.byte	0x7
 859 02fa 7101     		.2byte	0x171
 860 02fc 5B020000 		.4byte	0x25b
 861 0300 10       		.byte	0x10
 862 0301 0B       		.uleb128 0xb
 863 0302 25060000 		.4byte	.LASF33
 864 0306 07       		.byte	0x7
 865 0307 7201     		.2byte	0x172
 866 0309 5B020000 		.4byte	0x25b
 867 030d 14       		.byte	0x14
 868 030e 0B       		.uleb128 0xb
 869 030f 68070000 		.4byte	.LASF56
 870 0313 07       		.byte	0x7
 871 0314 7501     		.2byte	0x175
 872 0316 5B020000 		.4byte	0x25b
 873 031a 18       		.byte	0x18
 874 031b 00       		.byte	0
 875 031c 03       		.uleb128 0x3
 876 031d 64000000 		.4byte	.LASF57
 877 0321 06       		.byte	0x6
 878 0322 5C       		.byte	0x5c
 879 0323 27030000 		.4byte	0x327
 880 0327 0C       		.uleb128 0xc
 881 0328 04       		.byte	0x4
 882 0329 2D030000 		.4byte	0x32d
 883 032d 0E       		.uleb128 0xe
 884 032e 38030000 		.4byte	0x338
 885 0332 0F       		.uleb128 0xf
 886 0333 38030000 		.4byte	0x338
 887 0337 00       		.byte	0
 888 0338 10       		.uleb128 0x10
 889 0339 04       		.byte	0x4
 890 033a 03       		.uleb128 0x3
 891 033b 08060000 		.4byte	.LASF58
 892 033f 06       		.byte	0x6
 893 0340 61       		.byte	0x61
 894 0341 45030000 		.4byte	0x345
 895 0345 0D       		.uleb128 0xd
 896 0346 0D080000 		.4byte	.LASF59
 897 034a 14       		.byte	0x14
 898 034b 07       		.byte	0x7
 899 034c 4501     		.2byte	0x145
 900 034e 94030000 		.4byte	0x394
 901 0352 0B       		.uleb128 0xb
 902 0353 370B0000 		.4byte	.LASF50
 903 0357 07       		.byte	0x7
 904 0358 4601     		.2byte	0x146
 905 035a A9080000 		.4byte	0x8a9
 906 035e 00       		.byte	0
 907 035f 0B       		.uleb128 0xb
 908 0360 430B0000 		.4byte	.LASF53
ARM GAS  /var/folders/t8/16hdwfmd2fg_d3q6dgx6bpmw0000gn/T//cciK6y6j.s 			page 17


 909 0364 07       		.byte	0x7
 910 0365 4701     		.2byte	0x147
 911 0367 A9080000 		.4byte	0x8a9
 912 036b 04       		.byte	0x4
 913 036c 0B       		.uleb128 0xb
 914 036d 8D080000 		.4byte	.LASF60
 915 0371 07       		.byte	0x7
 916 0372 4801     		.2byte	0x148
 917 0374 4B010000 		.4byte	0x14b
 918 0378 08       		.byte	0x8
 919 0379 0B       		.uleb128 0xb
 920 037a 91090000 		.4byte	.LASF61
 921 037e 07       		.byte	0x7
 922 037f 4901     		.2byte	0x149
 923 0381 1C030000 		.4byte	0x31c
 924 0385 0C       		.byte	0xc
 925 0386 0A       		.uleb128 0xa
 926 0387 70617200 		.ascii	"par\000"
 927 038b 07       		.byte	0x7
 928 038c 4B01     		.2byte	0x14b
 929 038e 38030000 		.4byte	0x338
 930 0392 10       		.byte	0x10
 931 0393 00       		.byte	0
 932 0394 03       		.uleb128 0x3
 933 0395 DB050000 		.4byte	.LASF62
 934 0399 06       		.byte	0x6
 935 039a 66       		.byte	0x66
 936 039b 9F030000 		.4byte	0x39f
 937 039f 0D       		.uleb128 0xd
 938 03a0 6D000000 		.4byte	.LASF63
 939 03a4 10       		.byte	0x10
 940 03a5 07       		.byte	0x7
 941 03a6 5501     		.2byte	0x155
 942 03a8 E1030000 		.4byte	0x3e1
 943 03ac 0B       		.uleb128 0xb
 944 03ad 370B0000 		.4byte	.LASF50
 945 03b1 07       		.byte	0x7
 946 03b2 5601     		.2byte	0x156
 947 03b4 A9080000 		.4byte	0x8a9
 948 03b8 00       		.byte	0
 949 03b9 0B       		.uleb128 0xb
 950 03ba 430B0000 		.4byte	.LASF53
 951 03be 07       		.byte	0x7
 952 03bf 5801     		.2byte	0x158
 953 03c1 A9080000 		.4byte	0x8a9
 954 03c5 04       		.byte	0x4
 955 03c6 0B       		.uleb128 0xb
 956 03c7 8D080000 		.4byte	.LASF60
 957 03cb 07       		.byte	0x7
 958 03cc 5A01     		.2byte	0x15a
 959 03ce 4B010000 		.4byte	0x14b
 960 03d2 08       		.byte	0x8
 961 03d3 0B       		.uleb128 0xb
 962 03d4 3A010000 		.4byte	.LASF64
 963 03d8 07       		.byte	0x7
 964 03d9 5C01     		.2byte	0x15c
 965 03db 56010000 		.4byte	0x156
ARM GAS  /var/folders/t8/16hdwfmd2fg_d3q6dgx6bpmw0000gn/T//cciK6y6j.s 			page 18


 966 03df 0C       		.byte	0xc
 967 03e0 00       		.byte	0
 968 03e1 03       		.uleb128 0x3
 969 03e2 D4030000 		.4byte	.LASF65
 970 03e6 06       		.byte	0x6
 971 03e7 6B       		.byte	0x6b
 972 03e8 EC030000 		.4byte	0x3ec
 973 03ec 0D       		.uleb128 0xd
 974 03ed AD090000 		.4byte	.LASF66
 975 03f1 0C       		.byte	0xc
 976 03f2 07       		.byte	0x7
 977 03f3 7C01     		.2byte	0x17c
 978 03f5 21040000 		.4byte	0x421
 979 03f9 0B       		.uleb128 0xb
 980 03fa B9030000 		.4byte	.LASF67
 981 03fe 07       		.byte	0x7
 982 03ff 8401     		.2byte	0x184
 983 0401 92080000 		.4byte	0x892
 984 0405 00       		.byte	0
 985 0406 0B       		.uleb128 0xb
 986 0407 FA070000 		.4byte	.LASF68
 987 040b 07       		.byte	0x7
 988 040c 8901     		.2byte	0x189
 989 040e 40010000 		.4byte	0x140
 990 0412 04       		.byte	0x4
 991 0413 0B       		.uleb128 0xb
 992 0414 B4000000 		.4byte	.LASF69
 993 0418 07       		.byte	0x7
 994 0419 8D01     		.2byte	0x18d
 995 041b 40010000 		.4byte	0x140
 996 041f 08       		.byte	0x8
 997 0420 00       		.byte	0
 998 0421 03       		.uleb128 0x3
 999 0422 BD0A0000 		.4byte	.LASF70
 1000 0426 06       		.byte	0x6
 1001 0427 70       		.byte	0x70
 1002 0428 2C040000 		.4byte	0x42c
 1003 042c 0D       		.uleb128 0xd
 1004 042d 5D0A0000 		.4byte	.LASF71
 1005 0431 7C       		.byte	0x7c
 1006 0432 07       		.byte	0x7
 1007 0433 9C01     		.2byte	0x19c
 1008 0435 6E040000 		.4byte	0x46e
 1009 0439 0B       		.uleb128 0xb
 1010 043a 26090000 		.4byte	.LASF72
 1011 043e 07       		.byte	0x7
 1012 043f A001     		.2byte	0x1a0
 1013 0441 B5020000 		.4byte	0x2b5
 1014 0445 00       		.byte	0
 1015 0446 0B       		.uleb128 0xb
 1016 0447 050A0000 		.4byte	.LASF73
 1017 044b 07       		.byte	0x7
 1018 044c A401     		.2byte	0x1a4
 1019 044e 94030000 		.4byte	0x394
 1020 0452 1C       		.byte	0x1c
 1021 0453 0A       		.uleb128 0xa
 1022 0454 64626700 		.ascii	"dbg\000"
ARM GAS  /var/folders/t8/16hdwfmd2fg_d3q6dgx6bpmw0000gn/T//cciK6y6j.s 			page 19


 1023 0458 07       		.byte	0x7
 1024 0459 A801     		.2byte	0x1a8
 1025 045b E1030000 		.4byte	0x3e1
 1026 045f 2C       		.byte	0x2c
 1027 0460 0B       		.uleb128 0xb
 1028 0461 AE080000 		.4byte	.LASF74
 1029 0465 07       		.byte	0x7
 1030 0466 AC01     		.2byte	0x1ac
 1031 0468 5B010000 		.4byte	0x15b
 1032 046c 38       		.byte	0x38
 1033 046d 00       		.byte	0
 1034 046e 11       		.uleb128 0x11
 1035 046f D3000000 		.4byte	0xd3
 1036 0473 7E040000 		.4byte	0x47e
 1037 0477 12       		.uleb128 0x12
 1038 0478 37000000 		.4byte	0x37
 1039 047c 00       		.byte	0
 1040 047d 00       		.byte	0
 1041 047e 11       		.uleb128 0x11
 1042 047f D3000000 		.4byte	0xd3
 1043 0483 8E040000 		.4byte	0x48e
 1044 0487 12       		.uleb128 0x12
 1045 0488 37000000 		.4byte	0x37
 1046 048c 01       		.byte	0x1
 1047 048d 00       		.byte	0
 1048 048e 13       		.uleb128 0x13
 1049 048f 0811     		.2byte	0x1108
 1050 0491 08       		.byte	0x8
 1051 0492 37       		.byte	0x37
 1052 0493 F4050000 		.4byte	0x5f4
 1053 0497 08       		.uleb128 0x8
 1054 0498 DB060000 		.4byte	.LASF75
 1055 049c 08       		.byte	0x8
 1056 049d 39       		.byte	0x39
 1057 049e DE000000 		.4byte	0xde
 1058 04a2 00       		.byte	0
 1059 04a3 08       		.uleb128 0x8
 1060 04a4 CD090000 		.4byte	.LASF76
 1061 04a8 08       		.byte	0x8
 1062 04a9 3A       		.byte	0x3a
 1063 04aa DE000000 		.4byte	0xde
 1064 04ae 04       		.byte	0x4
 1065 04af 08       		.uleb128 0x8
 1066 04b0 65030000 		.4byte	.LASF77
 1067 04b4 08       		.byte	0x8
 1068 04b5 3B       		.byte	0x3b
 1069 04b6 F4050000 		.4byte	0x5f4
 1070 04ba 08       		.byte	0x8
 1071 04bb 14       		.uleb128 0x14
 1072 04bc E1060000 		.4byte	.LASF78
 1073 04c0 08       		.byte	0x8
 1074 04c1 3C       		.byte	0x3c
 1075 04c2 DE000000 		.4byte	0xde
 1076 04c6 0410     		.2byte	0x1004
 1077 04c8 14       		.uleb128 0x14
 1078 04c9 6F030000 		.4byte	.LASF79
 1079 04cd 08       		.byte	0x8
ARM GAS  /var/folders/t8/16hdwfmd2fg_d3q6dgx6bpmw0000gn/T//cciK6y6j.s 			page 20


 1080 04ce 3D       		.byte	0x3d
 1081 04cf 1A060000 		.4byte	0x61a
 1082 04d3 0810     		.2byte	0x1008
 1083 04d5 14       		.uleb128 0x14
 1084 04d6 E7060000 		.4byte	.LASF80
 1085 04da 08       		.byte	0x8
 1086 04db 3E       		.byte	0x3e
 1087 04dc DE000000 		.4byte	0xde
 1088 04e0 0C10     		.2byte	0x100c
 1089 04e2 14       		.uleb128 0x14
 1090 04e3 ED060000 		.4byte	.LASF81
 1091 04e7 08       		.byte	0x8
 1092 04e8 3F       		.byte	0x3f
 1093 04e9 DE000000 		.4byte	0xde
 1094 04ed 1010     		.2byte	0x1010
 1095 04ef 14       		.uleb128 0x14
 1096 04f0 FA030000 		.4byte	.LASF82
 1097 04f4 08       		.byte	0x8
 1098 04f5 40       		.byte	0x40
 1099 04f6 6E040000 		.4byte	0x46e
 1100 04fa 1410     		.2byte	0x1014
 1101 04fc 14       		.uleb128 0x14
 1102 04fd F3060000 		.4byte	.LASF83
 1103 0501 08       		.byte	0x8
 1104 0502 41       		.byte	0x41
 1105 0503 DE000000 		.4byte	0xde
 1106 0507 1810     		.2byte	0x1018
 1107 0509 14       		.uleb128 0x14
 1108 050a 87030000 		.4byte	.LASF84
 1109 050e 08       		.byte	0x8
 1110 050f 42       		.byte	0x42
 1111 0510 7E040000 		.4byte	0x47e
 1112 0514 1C10     		.2byte	0x101c
 1113 0516 14       		.uleb128 0x14
 1114 0517 0E010000 		.4byte	.LASF85
 1115 051b 08       		.byte	0x8
 1116 051c 43       		.byte	0x43
 1117 051d DE000000 		.4byte	0xde
 1118 0521 2410     		.2byte	0x1024
 1119 0523 14       		.uleb128 0x14
 1120 0524 91030000 		.4byte	.LASF86
 1121 0528 08       		.byte	0x8
 1122 0529 44       		.byte	0x44
 1123 052a 1F060000 		.4byte	0x61f
 1124 052e 2810     		.2byte	0x1028
 1125 0530 14       		.uleb128 0x14
 1126 0531 BD000000 		.4byte	.LASF87
 1127 0535 08       		.byte	0x8
 1128 0536 45       		.byte	0x45
 1129 0537 DE000000 		.4byte	0xde
 1130 053b 3410     		.2byte	0x1034
 1131 053d 14       		.uleb128 0x14
 1132 053e C3000000 		.4byte	.LASF88
 1133 0542 08       		.byte	0x8
 1134 0543 46       		.byte	0x46
 1135 0544 DE000000 		.4byte	0xde
 1136 0548 3810     		.2byte	0x1038
ARM GAS  /var/folders/t8/16hdwfmd2fg_d3q6dgx6bpmw0000gn/T//cciK6y6j.s 			page 21


 1137 054a 14       		.uleb128 0x14
 1138 054b C9000000 		.4byte	.LASF89
 1139 054f 08       		.byte	0x8
 1140 0550 47       		.byte	0x47
 1141 0551 DE000000 		.4byte	0xde
 1142 0555 3C10     		.2byte	0x103c
 1143 0557 14       		.uleb128 0x14
 1144 0558 CF000000 		.4byte	.LASF90
 1145 055c 08       		.byte	0x8
 1146 055d 48       		.byte	0x48
 1147 055e DE000000 		.4byte	0xde
 1148 0562 4010     		.2byte	0x1040
 1149 0564 14       		.uleb128 0x14
 1150 0565 CC030000 		.4byte	.LASF91
 1151 0569 08       		.byte	0x8
 1152 056a 49       		.byte	0x49
 1153 056b DE000000 		.4byte	0xde
 1154 056f 4410     		.2byte	0x1044
 1155 0571 14       		.uleb128 0x14
 1156 0572 9B030000 		.4byte	.LASF92
 1157 0576 08       		.byte	0x8
 1158 0577 4A       		.byte	0x4a
 1159 0578 6E040000 		.4byte	0x46e
 1160 057c 4810     		.2byte	0x1048
 1161 057e 14       		.uleb128 0x14
 1162 057f 42000000 		.4byte	.LASF93
 1163 0583 08       		.byte	0x8
 1164 0584 4B       		.byte	0x4b
 1165 0585 DE000000 		.4byte	0xde
 1166 0589 4C10     		.2byte	0x104c
 1167 058b 14       		.uleb128 0x14
 1168 058c 48000000 		.4byte	.LASF94
 1169 0590 08       		.byte	0x8
 1170 0591 4C       		.byte	0x4c
 1171 0592 DE000000 		.4byte	0xde
 1172 0596 5010     		.2byte	0x1050
 1173 0598 14       		.uleb128 0x14
 1174 0599 A5030000 		.4byte	.LASF95
 1175 059d 08       		.byte	0x8
 1176 059e 4D       		.byte	0x4d
 1177 059f 6E040000 		.4byte	0x46e
 1178 05a3 5410     		.2byte	0x1054
 1179 05a5 14       		.uleb128 0x14
 1180 05a6 1B070000 		.4byte	.LASF96
 1181 05aa 08       		.byte	0x8
 1182 05ab 4E       		.byte	0x4e
 1183 05ac DE000000 		.4byte	0xde
 1184 05b0 5810     		.2byte	0x1058
 1185 05b2 14       		.uleb128 0x14
 1186 05b3 21070000 		.4byte	.LASF97
 1187 05b7 08       		.byte	0x8
 1188 05b8 4F       		.byte	0x4f
 1189 05b9 DE000000 		.4byte	0xde
 1190 05bd 5C10     		.2byte	0x105c
 1191 05bf 14       		.uleb128 0x14
 1192 05c0 320B0000 		.4byte	.LASF98
 1193 05c4 08       		.byte	0x8
ARM GAS  /var/folders/t8/16hdwfmd2fg_d3q6dgx6bpmw0000gn/T//cciK6y6j.s 			page 22


 1194 05c5 50       		.byte	0x50
 1195 05c6 DE000000 		.4byte	0xde
 1196 05ca 6010     		.2byte	0x1060
 1197 05cc 14       		.uleb128 0x14
 1198 05cd AF030000 		.4byte	.LASF99
 1199 05d1 08       		.byte	0x8
 1200 05d2 51       		.byte	0x51
 1201 05d3 2F060000 		.4byte	0x62f
 1202 05d7 6410     		.2byte	0x1064
 1203 05d9 14       		.uleb128 0x14
 1204 05da 7A060000 		.4byte	.LASF100
 1205 05de 08       		.byte	0x8
 1206 05df 52       		.byte	0x52
 1207 05e0 DE000000 		.4byte	0xde
 1208 05e4 0011     		.2byte	0x1100
 1209 05e6 14       		.uleb128 0x14
 1210 05e7 84000000 		.4byte	.LASF101
 1211 05eb 08       		.byte	0x8
 1212 05ec 53       		.byte	0x53
 1213 05ed DE000000 		.4byte	0xde
 1214 05f1 0411     		.2byte	0x1104
 1215 05f3 00       		.byte	0
 1216 05f4 11       		.uleb128 0x11
 1217 05f5 D3000000 		.4byte	0xd3
 1218 05f9 05060000 		.4byte	0x605
 1219 05fd 15       		.uleb128 0x15
 1220 05fe 37000000 		.4byte	0x37
 1221 0602 FE03     		.2byte	0x3fe
 1222 0604 00       		.byte	0
 1223 0605 11       		.uleb128 0x11
 1224 0606 E3000000 		.4byte	0xe3
 1225 060a 15060000 		.4byte	0x615
 1226 060e 12       		.uleb128 0x12
 1227 060f 37000000 		.4byte	0x37
 1228 0613 00       		.byte	0
 1229 0614 00       		.byte	0
 1230 0615 05       		.uleb128 0x5
 1231 0616 05060000 		.4byte	0x605
 1232 061a 06       		.uleb128 0x6
 1233 061b 15060000 		.4byte	0x615
 1234 061f 11       		.uleb128 0x11
 1235 0620 D3000000 		.4byte	0xd3
 1236 0624 2F060000 		.4byte	0x62f
 1237 0628 12       		.uleb128 0x12
 1238 0629 37000000 		.4byte	0x37
 1239 062d 02       		.byte	0x2
 1240 062e 00       		.byte	0
 1241 062f 11       		.uleb128 0x11
 1242 0630 D3000000 		.4byte	0xd3
 1243 0634 3F060000 		.4byte	0x63f
 1244 0638 12       		.uleb128 0x12
 1245 0639 37000000 		.4byte	0x37
 1246 063d 26       		.byte	0x26
 1247 063e 00       		.byte	0
 1248 063f 03       		.uleb128 0x3
 1249 0640 850A0000 		.4byte	.LASF102
 1250 0644 08       		.byte	0x8
ARM GAS  /var/folders/t8/16hdwfmd2fg_d3q6dgx6bpmw0000gn/T//cciK6y6j.s 			page 23


 1251 0645 54       		.byte	0x54
 1252 0646 8E040000 		.4byte	0x48e
 1253 064a 16       		.uleb128 0x16
 1254 064b A4       		.byte	0xa4
 1255 064c 08       		.byte	0x8
 1256 064d 64       		.byte	0x64
 1257 064e 8F060000 		.4byte	0x68f
 1258 0652 09       		.uleb128 0x9
 1259 0653 50435200 		.ascii	"PCR\000"
 1260 0657 08       		.byte	0x8
 1261 0658 66       		.byte	0x66
 1262 0659 9F060000 		.4byte	0x69f
 1263 065d 00       		.byte	0
 1264 065e 08       		.uleb128 0x8
 1265 065f 18000000 		.4byte	.LASF103
 1266 0663 08       		.byte	0x8
 1267 0664 67       		.byte	0x67
 1268 0665 DE000000 		.4byte	0xde
 1269 0669 80       		.byte	0x80
 1270 066a 08       		.uleb128 0x8
 1271 066b 340A0000 		.4byte	.LASF104
 1272 066f 08       		.byte	0x8
 1273 0670 68       		.byte	0x68
 1274 0671 DE000000 		.4byte	0xde
 1275 0675 84       		.byte	0x84
 1276 0676 08       		.uleb128 0x8
 1277 0677 65030000 		.4byte	.LASF77
 1278 067b 08       		.byte	0x8
 1279 067c 69       		.byte	0x69
 1280 067d A4060000 		.4byte	0x6a4
 1281 0681 88       		.byte	0x88
 1282 0682 08       		.uleb128 0x8
 1283 0683 650B0000 		.4byte	.LASF105
 1284 0687 08       		.byte	0x8
 1285 0688 6A       		.byte	0x6a
 1286 0689 DE000000 		.4byte	0xde
 1287 068d A0       		.byte	0xa0
 1288 068e 00       		.byte	0
 1289 068f 11       		.uleb128 0x11
 1290 0690 DE000000 		.4byte	0xde
 1291 0694 9F060000 		.4byte	0x69f
 1292 0698 12       		.uleb128 0x12
 1293 0699 37000000 		.4byte	0x37
 1294 069d 1F       		.byte	0x1f
 1295 069e 00       		.byte	0
 1296 069f 06       		.uleb128 0x6
 1297 06a0 8F060000 		.4byte	0x68f
 1298 06a4 11       		.uleb128 0x11
 1299 06a5 D3000000 		.4byte	0xd3
 1300 06a9 B4060000 		.4byte	0x6b4
 1301 06ad 12       		.uleb128 0x12
 1302 06ae 37000000 		.4byte	0x37
 1303 06b2 05       		.byte	0x5
 1304 06b3 00       		.byte	0
 1305 06b4 03       		.uleb128 0x3
 1306 06b5 A9040000 		.4byte	.LASF106
 1307 06b9 08       		.byte	0x8
ARM GAS  /var/folders/t8/16hdwfmd2fg_d3q6dgx6bpmw0000gn/T//cciK6y6j.s 			page 24


 1308 06ba 6B       		.byte	0x6b
 1309 06bb 4A060000 		.4byte	0x64a
 1310 06bf 16       		.uleb128 0x16
 1311 06c0 18       		.byte	0x18
 1312 06c1 08       		.byte	0x8
 1313 06c2 C5       		.byte	0xc5
 1314 06c3 10070000 		.4byte	0x710
 1315 06c7 08       		.uleb128 0x8
 1316 06c8 74090000 		.4byte	.LASF107
 1317 06cc 08       		.byte	0x8
 1318 06cd C7       		.byte	0xc7
 1319 06ce DE000000 		.4byte	0xde
 1320 06d2 00       		.byte	0
 1321 06d3 08       		.uleb128 0x8
 1322 06d4 9F090000 		.4byte	.LASF108
 1323 06d8 08       		.byte	0x8
 1324 06d9 C8       		.byte	0xc8
 1325 06da DE000000 		.4byte	0xde
 1326 06de 04       		.byte	0x4
 1327 06df 08       		.uleb128 0x8
 1328 06e0 77070000 		.4byte	.LASF109
 1329 06e4 08       		.byte	0x8
 1330 06e5 C9       		.byte	0xc9
 1331 06e6 DE000000 		.4byte	0xde
 1332 06ea 08       		.byte	0x8
 1333 06eb 08       		.uleb128 0x8
 1334 06ec 4E000000 		.4byte	.LASF110
 1335 06f0 08       		.byte	0x8
 1336 06f1 CA       		.byte	0xca
 1337 06f2 DE000000 		.4byte	0xde
 1338 06f6 0C       		.byte	0xc
 1339 06f7 08       		.uleb128 0x8
 1340 06f8 7C070000 		.4byte	.LASF111
 1341 06fc 08       		.byte	0x8
 1342 06fd CB       		.byte	0xcb
 1343 06fe DE000000 		.4byte	0xde
 1344 0702 10       		.byte	0x10
 1345 0703 08       		.uleb128 0x8
 1346 0704 03060000 		.4byte	.LASF112
 1347 0708 08       		.byte	0x8
 1348 0709 CC       		.byte	0xcc
 1349 070a DE000000 		.4byte	0xde
 1350 070e 14       		.byte	0x14
 1351 070f 00       		.byte	0
 1352 0710 03       		.uleb128 0x3
 1353 0711 F8090000 		.4byte	.LASF113
 1354 0715 08       		.byte	0x8
 1355 0716 CD       		.byte	0xcd
 1356 0717 BF060000 		.4byte	0x6bf
 1357 071b 03       		.uleb128 0x3
 1358 071c 84020000 		.4byte	.LASF114
 1359 0720 09       		.byte	0x9
 1360 0721 65       		.byte	0x65
 1361 0722 38030000 		.4byte	0x338
 1362 0726 03       		.uleb128 0x3
 1363 0727 B6040000 		.4byte	.LASF115
 1364 072b 09       		.byte	0x9
ARM GAS  /var/folders/t8/16hdwfmd2fg_d3q6dgx6bpmw0000gn/T//cciK6y6j.s 			page 25


 1365 072c 6D       		.byte	0x6d
 1366 072d E8000000 		.4byte	0xe8
 1367 0731 07       		.uleb128 0x7
 1368 0732 3A0A0000 		.4byte	.LASF116
 1369 0736 04       		.byte	0x4
 1370 0737 09       		.byte	0x9
 1371 0738 89       		.byte	0x89
 1372 0739 49070000 		.4byte	0x749
 1373 073d 09       		.uleb128 0x9
 1374 073e 737000   		.ascii	"sp\000"
 1375 0741 09       		.byte	0x9
 1376 0742 8A       		.byte	0x8a
 1377 0743 BB070000 		.4byte	0x7bb
 1378 0747 00       		.byte	0
 1379 0748 00       		.byte	0
 1380 0749 07       		.uleb128 0x7
 1381 074a E8070000 		.4byte	.LASF117
 1382 074e 24       		.byte	0x24
 1383 074f 0A       		.byte	0xa
 1384 0750 C3       		.byte	0xc3
 1385 0751 BB070000 		.4byte	0x7bb
 1386 0755 09       		.uleb128 0x9
 1387 0756 723800   		.ascii	"r8\000"
 1388 0759 0A       		.byte	0xa
 1389 075a C4       		.byte	0xc4
 1390 075b 1B070000 		.4byte	0x71b
 1391 075f 00       		.byte	0
 1392 0760 09       		.uleb128 0x9
 1393 0761 723900   		.ascii	"r9\000"
 1394 0764 0A       		.byte	0xa
 1395 0765 C5       		.byte	0xc5
 1396 0766 1B070000 		.4byte	0x71b
 1397 076a 04       		.byte	0x4
 1398 076b 09       		.uleb128 0x9
 1399 076c 72313000 		.ascii	"r10\000"
 1400 0770 0A       		.byte	0xa
 1401 0771 C6       		.byte	0xc6
 1402 0772 1B070000 		.4byte	0x71b
 1403 0776 08       		.byte	0x8
 1404 0777 09       		.uleb128 0x9
 1405 0778 72313100 		.ascii	"r11\000"
 1406 077c 0A       		.byte	0xa
 1407 077d C7       		.byte	0xc7
 1408 077e 1B070000 		.4byte	0x71b
 1409 0782 0C       		.byte	0xc
 1410 0783 09       		.uleb128 0x9
 1411 0784 723400   		.ascii	"r4\000"
 1412 0787 0A       		.byte	0xa
 1413 0788 C8       		.byte	0xc8
 1414 0789 1B070000 		.4byte	0x71b
 1415 078d 10       		.byte	0x10
 1416 078e 09       		.uleb128 0x9
 1417 078f 723500   		.ascii	"r5\000"
 1418 0792 0A       		.byte	0xa
 1419 0793 C9       		.byte	0xc9
 1420 0794 1B070000 		.4byte	0x71b
 1421 0798 14       		.byte	0x14
ARM GAS  /var/folders/t8/16hdwfmd2fg_d3q6dgx6bpmw0000gn/T//cciK6y6j.s 			page 26


 1422 0799 09       		.uleb128 0x9
 1423 079a 723600   		.ascii	"r6\000"
 1424 079d 0A       		.byte	0xa
 1425 079e CA       		.byte	0xca
 1426 079f 1B070000 		.4byte	0x71b
 1427 07a3 18       		.byte	0x18
 1428 07a4 09       		.uleb128 0x9
 1429 07a5 723700   		.ascii	"r7\000"
 1430 07a8 0A       		.byte	0xa
 1431 07a9 CB       		.byte	0xcb
 1432 07aa 1B070000 		.4byte	0x71b
 1433 07ae 1C       		.byte	0x1c
 1434 07af 09       		.uleb128 0x9
 1435 07b0 6C7200   		.ascii	"lr\000"
 1436 07b3 0A       		.byte	0xa
 1437 07b4 CC       		.byte	0xcc
 1438 07b5 1B070000 		.4byte	0x71b
 1439 07b9 20       		.byte	0x20
 1440 07ba 00       		.byte	0
 1441 07bb 0C       		.uleb128 0xc
 1442 07bc 04       		.byte	0x4
 1443 07bd 49070000 		.4byte	0x749
 1444 07c1 17       		.uleb128 0x17
 1445 07c2 04       		.byte	0x4
 1446 07c3 07       		.byte	0x7
 1447 07c4 D2       		.byte	0xd2
 1448 07c5 24080000 		.4byte	0x824
 1449 07c9 18       		.uleb128 0x18
 1450 07ca 910A0000 		.4byte	.LASF118
 1451 07ce 07       		.byte	0x7
 1452 07cf D9       		.byte	0xd9
 1453 07d0 2A010000 		.4byte	0x12a
 1454 07d4 18       		.uleb128 0x18
 1455 07d5 13010000 		.4byte	.LASF119
 1456 07d9 07       		.byte	0x7
 1457 07da E0       		.byte	0xe0
 1458 07db 2A010000 		.4byte	0x12a
 1459 07df 18       		.uleb128 0x18
 1460 07e0 80040000 		.4byte	.LASF120
 1461 07e4 07       		.byte	0x7
 1462 07e5 E7       		.byte	0xe7
 1463 07e6 38030000 		.4byte	0x338
 1464 07ea 18       		.uleb128 0x18
 1465 07eb 5F030000 		.4byte	.LASF121
 1466 07ef 07       		.byte	0x7
 1467 07f0 EE       		.byte	0xee
 1468 07f1 24080000 		.4byte	0x824
 1469 07f5 18       		.uleb128 0x18
 1470 07f6 CC070000 		.4byte	.LASF122
 1471 07fa 07       		.byte	0x7
 1472 07fb F3       		.byte	0xf3
 1473 07fc 2A010000 		.4byte	0x12a
 1474 0800 18       		.uleb128 0x18
 1475 0801 5E0B0000 		.4byte	.LASF123
 1476 0805 07       		.byte	0x7
 1477 0806 FC       		.byte	0xfc
 1478 0807 4F080000 		.4byte	0x84f
ARM GAS  /var/folders/t8/16hdwfmd2fg_d3q6dgx6bpmw0000gn/T//cciK6y6j.s 			page 27


 1479 080b 19       		.uleb128 0x19
 1480 080c 2C050000 		.4byte	.LASF124
 1481 0810 07       		.byte	0x7
 1482 0811 0501     		.2byte	0x105
 1483 0813 86080000 		.4byte	0x886
 1484 0817 19       		.uleb128 0x19
 1485 0818 2B030000 		.4byte	.LASF125
 1486 081c 07       		.byte	0x7
 1487 081d 0D01     		.2byte	0x10d
 1488 081f 35010000 		.4byte	0x135
 1489 0823 00       		.byte	0
 1490 0824 0C       		.uleb128 0xc
 1491 0825 04       		.byte	0x4
 1492 0826 50020000 		.4byte	0x250
 1493 082a 07       		.uleb128 0x7
 1494 082b BB050000 		.4byte	.LASF126
 1495 082f 0C       		.byte	0xc
 1496 0830 0B       		.byte	0xb
 1497 0831 34       		.byte	0x34
 1498 0832 4F080000 		.4byte	0x84f
 1499 0836 08       		.uleb128 0x8
 1500 0837 A8080000 		.4byte	.LASF30
 1501 083b 0B       		.byte	0xb
 1502 083c 35       		.byte	0x35
 1503 083d 85020000 		.4byte	0x285
 1504 0841 00       		.byte	0
 1505 0842 09       		.uleb128 0x9
 1506 0843 636E7400 		.ascii	"cnt\000"
 1507 0847 0B       		.byte	0xb
 1508 0848 37       		.byte	0x37
 1509 0849 40010000 		.4byte	0x140
 1510 084d 08       		.byte	0x8
 1511 084e 00       		.byte	0
 1512 084f 0C       		.uleb128 0xc
 1513 0850 04       		.byte	0x4
 1514 0851 2A080000 		.4byte	0x82a
 1515 0855 07       		.uleb128 0x7
 1516 0856 96090000 		.4byte	.LASF127
 1517 085a 10       		.byte	0x10
 1518 085b 0C       		.byte	0xc
 1519 085c 39       		.byte	0x39
 1520 085d 86080000 		.4byte	0x886
 1521 0861 08       		.uleb128 0x8
 1522 0862 A8080000 		.4byte	.LASF30
 1523 0866 0C       		.byte	0xc
 1524 0867 3A       		.byte	0x3a
 1525 0868 85020000 		.4byte	0x285
 1526 086c 00       		.byte	0
 1527 086d 08       		.uleb128 0x8
 1528 086e 34000000 		.4byte	.LASF128
 1529 0872 0C       		.byte	0xc
 1530 0873 3C       		.byte	0x3c
 1531 0874 5B020000 		.4byte	0x25b
 1532 0878 08       		.byte	0x8
 1533 0879 08       		.uleb128 0x8
 1534 087a 370B0000 		.4byte	.LASF50
 1535 087e 0C       		.byte	0xc
ARM GAS  /var/folders/t8/16hdwfmd2fg_d3q6dgx6bpmw0000gn/T//cciK6y6j.s 			page 28


 1536 087f 3E       		.byte	0x3e
 1537 0880 E8090000 		.4byte	0x9e8
 1538 0884 0C       		.byte	0xc
 1539 0885 00       		.byte	0
 1540 0886 0C       		.uleb128 0xc
 1541 0887 04       		.byte	0x4
 1542 0888 55080000 		.4byte	0x855
 1543 088c 0C       		.uleb128 0xc
 1544 088d 04       		.byte	0x4
 1545 088e 9E080000 		.4byte	0x89e
 1546 0892 06       		.uleb128 0x6
 1547 0893 8C080000 		.4byte	0x88c
 1548 0897 04       		.uleb128 0x4
 1549 0898 01       		.byte	0x1
 1550 0899 08       		.byte	0x8
 1551 089a 04040000 		.4byte	.LASF129
 1552 089e 05       		.uleb128 0x5
 1553 089f 97080000 		.4byte	0x897
 1554 08a3 0C       		.uleb128 0xc
 1555 08a4 04       		.byte	0x4
 1556 08a5 26070000 		.4byte	0x726
 1557 08a9 0C       		.uleb128 0xc
 1558 08aa 04       		.byte	0x4
 1559 08ab 3A030000 		.4byte	0x33a
 1560 08af 1A       		.uleb128 0x1a
 1561 08b0 636800   		.ascii	"ch\000"
 1562 08b3 07       		.byte	0x7
 1563 08b4 D201     		.2byte	0x1d2
 1564 08b6 21040000 		.4byte	0x421
 1565 08ba 11       		.uleb128 0x11
 1566 08bb 26070000 		.4byte	0x726
 1567 08bf C5080000 		.4byte	0x8c5
 1568 08c3 1B       		.uleb128 0x1b
 1569 08c4 00       		.byte	0
 1570 08c5 1C       		.uleb128 0x1c
 1571 08c6 F1050000 		.4byte	.LASF130
 1572 08ca 0E       		.byte	0xe
 1573 08cb 2B01     		.2byte	0x12b
 1574 08cd BA080000 		.4byte	0x8ba
 1575 08d1 16       		.uleb128 0x16
 1576 08d2 16       		.byte	0x16
 1577 08d3 0D       		.byte	0xd
 1578 08d4 34       		.byte	0x34
 1579 08d5 B2090000 		.4byte	0x9b2
 1580 08d9 08       		.uleb128 0x8
 1581 08da 480B0000 		.4byte	.LASF131
 1582 08de 0D       		.byte	0xd
 1583 08df 35       		.byte	0x35
 1584 08e0 B2090000 		.4byte	0x9b2
 1585 08e4 00       		.byte	0
 1586 08e5 08       		.uleb128 0x8
 1587 08e6 63010000 		.4byte	.LASF132
 1588 08ea 0D       		.byte	0xd
 1589 08eb 36       		.byte	0x36
 1590 08ec AD000000 		.4byte	0xad
 1591 08f0 04       		.byte	0x4
 1592 08f1 08       		.uleb128 0x8
ARM GAS  /var/folders/t8/16hdwfmd2fg_d3q6dgx6bpmw0000gn/T//cciK6y6j.s 			page 29


 1593 08f2 32080000 		.4byte	.LASF133
 1594 08f6 0D       		.byte	0xd
 1595 08f7 37       		.byte	0x37
 1596 08f8 AD000000 		.4byte	0xad
 1597 08fc 05       		.byte	0x5
 1598 08fd 08       		.uleb128 0x8
 1599 08fe B9080000 		.4byte	.LASF134
 1600 0902 0D       		.byte	0xd
 1601 0903 38       		.byte	0x38
 1602 0904 BD000000 		.4byte	0xbd
 1603 0908 06       		.byte	0x6
 1604 0909 08       		.uleb128 0x8
 1605 090a D4040000 		.4byte	.LASF135
 1606 090e 0D       		.byte	0xd
 1607 090f 39       		.byte	0x39
 1608 0910 AD000000 		.4byte	0xad
 1609 0914 08       		.byte	0x8
 1610 0915 08       		.uleb128 0x8
 1611 0916 F00A0000 		.4byte	.LASF136
 1612 091a 0D       		.byte	0xd
 1613 091b 3A       		.byte	0x3a
 1614 091c AD000000 		.4byte	0xad
 1615 0920 09       		.byte	0x9
 1616 0921 08       		.uleb128 0x8
 1617 0922 A1050000 		.4byte	.LASF137
 1618 0926 0D       		.byte	0xd
 1619 0927 3B       		.byte	0x3b
 1620 0928 AD000000 		.4byte	0xad
 1621 092c 0A       		.byte	0xa
 1622 092d 08       		.uleb128 0x8
 1623 092e 0F000000 		.4byte	.LASF138
 1624 0932 0D       		.byte	0xd
 1625 0933 3C       		.byte	0x3c
 1626 0934 AD000000 		.4byte	0xad
 1627 0938 0B       		.byte	0xb
 1628 0939 08       		.uleb128 0x8
 1629 093a 00000000 		.4byte	.LASF139
 1630 093e 0D       		.byte	0xd
 1631 093f 3D       		.byte	0x3d
 1632 0940 AD000000 		.4byte	0xad
 1633 0944 0C       		.byte	0xc
 1634 0945 08       		.uleb128 0x8
 1635 0946 27070000 		.4byte	.LASF140
 1636 094a 0D       		.byte	0xd
 1637 094b 3E       		.byte	0x3e
 1638 094c AD000000 		.4byte	0xad
 1639 0950 0D       		.byte	0xd
 1640 0951 08       		.uleb128 0x8
 1641 0952 E0000000 		.4byte	.LASF141
 1642 0956 0D       		.byte	0xd
 1643 0957 3F       		.byte	0x3f
 1644 0958 AD000000 		.4byte	0xad
 1645 095c 0E       		.byte	0xe
 1646 095d 08       		.uleb128 0x8
 1647 095e 57080000 		.4byte	.LASF142
 1648 0962 0D       		.byte	0xd
 1649 0963 40       		.byte	0x40
ARM GAS  /var/folders/t8/16hdwfmd2fg_d3q6dgx6bpmw0000gn/T//cciK6y6j.s 			page 30


 1650 0964 AD000000 		.4byte	0xad
 1651 0968 0F       		.byte	0xf
 1652 0969 08       		.uleb128 0x8
 1653 096a 3B060000 		.4byte	.LASF143
 1654 096e 0D       		.byte	0xd
 1655 096f 41       		.byte	0x41
 1656 0970 AD000000 		.4byte	0xad
 1657 0974 10       		.byte	0x10
 1658 0975 08       		.uleb128 0x8
 1659 0976 85050000 		.4byte	.LASF144
 1660 097a 0D       		.byte	0xd
 1661 097b 42       		.byte	0x42
 1662 097c AD000000 		.4byte	0xad
 1663 0980 11       		.byte	0x11
 1664 0981 08       		.uleb128 0x8
 1665 0982 140B0000 		.4byte	.LASF145
 1666 0986 0D       		.byte	0xd
 1667 0987 43       		.byte	0x43
 1668 0988 AD000000 		.4byte	0xad
 1669 098c 12       		.byte	0x12
 1670 098d 08       		.uleb128 0x8
 1671 098e 9A040000 		.4byte	.LASF146
 1672 0992 0D       		.byte	0xd
 1673 0993 44       		.byte	0x44
 1674 0994 AD000000 		.4byte	0xad
 1675 0998 13       		.byte	0x13
 1676 0999 08       		.uleb128 0x8
 1677 099a 28000000 		.4byte	.LASF147
 1678 099e 0D       		.byte	0xd
 1679 099f 45       		.byte	0x45
 1680 09a0 AD000000 		.4byte	0xad
 1681 09a4 14       		.byte	0x14
 1682 09a5 08       		.uleb128 0x8
 1683 09a6 09050000 		.4byte	.LASF148
 1684 09aa 0D       		.byte	0xd
 1685 09ab 46       		.byte	0x46
 1686 09ac AD000000 		.4byte	0xad
 1687 09b0 15       		.byte	0x15
 1688 09b1 00       		.byte	0
 1689 09b2 11       		.uleb128 0x11
 1690 09b3 97080000 		.4byte	0x897
 1691 09b7 C2090000 		.4byte	0x9c2
 1692 09bb 12       		.uleb128 0x12
 1693 09bc 37000000 		.4byte	0x37
 1694 09c0 03       		.byte	0x3
 1695 09c1 00       		.byte	0
 1696 09c2 03       		.uleb128 0x3
 1697 09c3 C90A0000 		.4byte	.LASF149
 1698 09c7 0D       		.byte	0xd
 1699 09c8 47       		.byte	0x47
 1700 09c9 D1080000 		.4byte	0x8d1
 1701 09cd 05       		.uleb128 0x5
 1702 09ce C2090000 		.4byte	0x9c2
 1703 09d2 1D       		.uleb128 0x1d
 1704 09d3 5B000000 		.4byte	.LASF150
 1705 09d7 0D       		.byte	0xd
 1706 09d8 6C       		.byte	0x6c
ARM GAS  /var/folders/t8/16hdwfmd2fg_d3q6dgx6bpmw0000gn/T//cciK6y6j.s 			page 31


 1707 09d9 CD090000 		.4byte	0x9cd
 1708 09dd 03       		.uleb128 0x3
 1709 09de 240A0000 		.4byte	.LASF151
 1710 09e2 0C       		.byte	0xc
 1711 09e3 34       		.byte	0x34
 1712 09e4 55080000 		.4byte	0x855
 1713 09e8 0C       		.uleb128 0xc
 1714 09e9 04       		.byte	0x4
 1715 09ea DD090000 		.4byte	0x9dd
 1716 09ee 0C       		.uleb128 0xc
 1717 09ef 04       		.byte	0x4
 1718 09f0 B8000000 		.4byte	0xb8
 1719 09f4 0C       		.uleb128 0xc
 1720 09f5 04       		.byte	0x4
 1721 09f6 AD000000 		.4byte	0xad
 1722 09fa 04       		.uleb128 0x4
 1723 09fb 01       		.byte	0x1
 1724 09fc 02       		.byte	0x2
 1725 09fd F4030000 		.4byte	.LASF152
 1726 0a01 03       		.uleb128 0x3
 1727 0a02 FC040000 		.4byte	.LASF153
 1728 0a06 0F       		.byte	0xf
 1729 0a07 41       		.byte	0x41
 1730 0a08 D3000000 		.4byte	0xd3
 1731 0a0c 03       		.uleb128 0x3
 1732 0a0d EF000000 		.4byte	.LASF154
 1733 0a11 0F       		.byte	0xf
 1734 0a12 46       		.byte	0x46
 1735 0a13 D3000000 		.4byte	0xd3
 1736 0a17 03       		.uleb128 0x3
 1737 0a18 68010000 		.4byte	.LASF155
 1738 0a1c 0F       		.byte	0xf
 1739 0a1d 53       		.byte	0x53
 1740 0a1e 220A0000 		.4byte	0xa22
 1741 0a22 0C       		.uleb128 0xc
 1742 0a23 04       		.byte	0x4
 1743 0a24 10070000 		.4byte	0x710
 1744 0a28 16       		.uleb128 0x16
 1745 0a29 84       		.byte	0x84
 1746 0a2a 0F       		.byte	0xf
 1747 0a2b 5A       		.byte	0x5a
 1748 0a2c 490A0000 		.4byte	0xa49
 1749 0a30 08       		.uleb128 0x8
 1750 0a31 6F090000 		.4byte	.LASF156
 1751 0a35 0F       		.byte	0xf
 1752 0a36 5B       		.byte	0x5b
 1753 0a37 170A0000 		.4byte	0xa17
 1754 0a3b 00       		.byte	0
 1755 0a3c 08       		.uleb128 0x8
 1756 0a3d F9060000 		.4byte	.LASF157
 1757 0a41 0F       		.byte	0xf
 1758 0a42 5C       		.byte	0x5c
 1759 0a43 490A0000 		.4byte	0xa49
 1760 0a47 04       		.byte	0x4
 1761 0a48 00       		.byte	0
 1762 0a49 11       		.uleb128 0x11
 1763 0a4a 0C0A0000 		.4byte	0xa0c
ARM GAS  /var/folders/t8/16hdwfmd2fg_d3q6dgx6bpmw0000gn/T//cciK6y6j.s 			page 32


 1764 0a4e 590A0000 		.4byte	0xa59
 1765 0a52 12       		.uleb128 0x12
 1766 0a53 37000000 		.4byte	0x37
 1767 0a57 1F       		.byte	0x1f
 1768 0a58 00       		.byte	0
 1769 0a59 03       		.uleb128 0x3
 1770 0a5a 6F050000 		.4byte	.LASF158
 1771 0a5e 0F       		.byte	0xf
 1772 0a5f 5D       		.byte	0x5d
 1773 0a60 280A0000 		.4byte	0xa28
 1774 0a64 13       		.uleb128 0x13
 1775 0a65 9402     		.2byte	0x294
 1776 0a67 0F       		.byte	0xf
 1777 0a68 68       		.byte	0x68
 1778 0a69 7A0A0000 		.4byte	0xa7a
 1779 0a6d 08       		.uleb128 0x8
 1780 0a6e 34010000 		.4byte	.LASF159
 1781 0a72 0F       		.byte	0xf
 1782 0a73 69       		.byte	0x69
 1783 0a74 7A0A0000 		.4byte	0xa7a
 1784 0a78 00       		.byte	0
 1785 0a79 00       		.byte	0
 1786 0a7a 11       		.uleb128 0x11
 1787 0a7b 590A0000 		.4byte	0xa59
 1788 0a7f 8A0A0000 		.4byte	0xa8a
 1789 0a83 12       		.uleb128 0x12
 1790 0a84 37000000 		.4byte	0x37
 1791 0a88 04       		.byte	0x4
 1792 0a89 00       		.byte	0
 1793 0a8a 03       		.uleb128 0x3
 1794 0a8b D6090000 		.4byte	.LASF160
 1795 0a8f 0F       		.byte	0xf
 1796 0a90 6A       		.byte	0x6a
 1797 0a91 640A0000 		.4byte	0xa64
 1798 0a95 05       		.uleb128 0x5
 1799 0a96 8A0A0000 		.4byte	0xa8a
 1800 0a9a 1C       		.uleb128 0x1c
 1801 0a9b 0C030000 		.4byte	.LASF161
 1802 0a9f 0F       		.byte	0xf
 1803 0aa0 8D01     		.2byte	0x18d
 1804 0aa2 950A0000 		.4byte	0xa95
 1805 0aa6 1E       		.uleb128 0x1e
 1806 0aa7 76040000 		.4byte	.LASF162
 1807 0aab 10       		.byte	0x10
 1808 0aac 0001     		.2byte	0x100
 1809 0aae B20A0000 		.4byte	0xab2
 1810 0ab2 0D       		.uleb128 0xd
 1811 0ab3 76040000 		.4byte	.LASF162
 1812 0ab7 E8       		.byte	0xe8
 1813 0ab8 11       		.byte	0x11
 1814 0ab9 0601     		.2byte	0x106
 1815 0abb 9D0B0000 		.4byte	0xb9d
 1816 0abf 0B       		.uleb128 0xb
 1817 0ac0 A6000000 		.4byte	.LASF36
 1818 0ac4 11       		.byte	0x11
 1819 0ac5 0A01     		.2byte	0x10a
 1820 0ac7 DC0B0000 		.4byte	0xbdc
ARM GAS  /var/folders/t8/16hdwfmd2fg_d3q6dgx6bpmw0000gn/T//cciK6y6j.s 			page 33


 1821 0acb 00       		.byte	0
 1822 0acc 0B       		.uleb128 0xb
 1823 0acd 9F000000 		.4byte	.LASF163
 1824 0ad1 11       		.byte	0x11
 1825 0ad2 0E01     		.2byte	0x10e
 1826 0ad4 100F0000 		.4byte	0xf10
 1827 0ad8 04       		.byte	0x4
 1828 0ad9 0B       		.uleb128 0xb
 1829 0ada DC040000 		.4byte	.LASF164
 1830 0ade 11       		.byte	0x11
 1831 0adf 1201     		.2byte	0x112
 1832 0ae1 BD000000 		.4byte	0xbd
 1833 0ae5 08       		.byte	0x8
 1834 0ae6 0B       		.uleb128 0xb
 1835 0ae7 61040000 		.4byte	.LASF165
 1836 0aeb 11       		.byte	0x11
 1837 0aec 1601     		.2byte	0x116
 1838 0aee BD000000 		.4byte	0xbd
 1839 0af2 0A       		.byte	0xa
 1840 0af3 0A       		.uleb128 0xa
 1841 0af4 65706300 		.ascii	"epc\000"
 1842 0af8 11       		.byte	0x11
 1843 0af9 1A01     		.2byte	0x11a
 1844 0afb 160F0000 		.4byte	0xf16
 1845 0aff 0C       		.byte	0xc
 1846 0b00 0B       		.uleb128 0xb
 1847 0b01 59090000 		.4byte	.LASF166
 1848 0b05 11       		.byte	0x11
 1849 0b06 2101     		.2byte	0x121
 1850 0b08 2C0F0000 		.4byte	0xf2c
 1851 0b0c 4C       		.byte	0x4c
 1852 0b0d 0B       		.uleb128 0xb
 1853 0b0e E50A0000 		.4byte	.LASF167
 1854 0b12 11       		.byte	0x11
 1855 0b13 2801     		.2byte	0x128
 1856 0b15 2C0F0000 		.4byte	0xf2c
 1857 0b19 88       		.byte	0x88
 1858 0b1a 0B       		.uleb128 0xb
 1859 0b1b C3030000 		.4byte	.LASF168
 1860 0b1f 11       		.byte	0x11
 1861 0b20 2C01     		.2byte	0x12c
 1862 0b22 210C0000 		.4byte	0xc21
 1863 0b26 C4       		.byte	0xc4
 1864 0b27 0B       		.uleb128 0xb
 1865 0b28 D3060000 		.4byte	.LASF169
 1866 0b2c 11       		.byte	0x11
 1867 0b2d 3001     		.2byte	0x130
 1868 0b2f F4090000 		.4byte	0x9f4
 1869 0b33 C8       		.byte	0xc8
 1870 0b34 0B       		.uleb128 0xb
 1871 0b35 5C040000 		.4byte	.LASF170
 1872 0b39 11       		.byte	0x11
 1873 0b3a 3401     		.2byte	0x134
 1874 0b3c 2C000000 		.4byte	0x2c
 1875 0b40 CC       		.byte	0xcc
 1876 0b41 0B       		.uleb128 0xb
 1877 0b42 C8050000 		.4byte	.LASF171
ARM GAS  /var/folders/t8/16hdwfmd2fg_d3q6dgx6bpmw0000gn/T//cciK6y6j.s 			page 34


 1878 0b46 11       		.byte	0x11
 1879 0b47 3801     		.2byte	0x138
 1880 0b49 A70C0000 		.4byte	0xca7
 1881 0b4d D0       		.byte	0xd0
 1882 0b4e 0B       		.uleb128 0xb
 1883 0b4f 26050000 		.4byte	.LASF172
 1884 0b53 11       		.byte	0x11
 1885 0b54 3C01     		.2byte	0x13c
 1886 0b56 3C0F0000 		.4byte	0xf3c
 1887 0b5a D4       		.byte	0xd4
 1888 0b5b 0B       		.uleb128 0xb
 1889 0b5c AC050000 		.4byte	.LASF173
 1890 0b60 11       		.byte	0x11
 1891 0b61 4001     		.2byte	0x140
 1892 0b63 BD000000 		.4byte	0xbd
 1893 0b67 DC       		.byte	0xdc
 1894 0b68 0B       		.uleb128 0xb
 1895 0b69 B3050000 		.4byte	.LASF174
 1896 0b6d 11       		.byte	0x11
 1897 0b6e 4401     		.2byte	0x144
 1898 0b70 AD000000 		.4byte	0xad
 1899 0b74 DE       		.byte	0xde
 1900 0b75 0B       		.uleb128 0xb
 1901 0b76 61050000 		.4byte	.LASF175
 1902 0b7a 11       		.byte	0x11
 1903 0b7b 4801     		.2byte	0x148
 1904 0b7d AD000000 		.4byte	0xad
 1905 0b81 DF       		.byte	0xdf
 1906 0b82 0B       		.uleb128 0xb
 1907 0b83 81080000 		.4byte	.LASF176
 1908 0b87 11       		.byte	0x11
 1909 0b88 4C01     		.2byte	0x14c
 1910 0b8a DC0B0000 		.4byte	0xbdc
 1911 0b8e E0       		.byte	0xe0
 1912 0b8f 0B       		.uleb128 0xb
 1913 0b90 3C0B0000 		.4byte	.LASF177
 1914 0b94 11       		.byte	0x11
 1915 0b95 5401     		.2byte	0x154
 1916 0b97 D3000000 		.4byte	0xd3
 1917 0b9b E4       		.byte	0xe4
 1918 0b9c 00       		.byte	0
 1919 0b9d 1E       		.uleb128 0x1e
 1920 0b9e 760A0000 		.4byte	.LASF178
 1921 0ba2 10       		.byte	0x10
 1922 0ba3 0501     		.2byte	0x105
 1923 0ba5 AD000000 		.4byte	0xad
 1924 0ba9 1F       		.uleb128 0x1f
 1925 0baa 07       		.byte	0x7
 1926 0bab 01       		.byte	0x1
 1927 0bac 50000000 		.4byte	0x50
 1928 0bb0 10       		.byte	0x10
 1929 0bb1 0A01     		.2byte	0x10a
 1930 0bb3 DC0B0000 		.4byte	0xbdc
 1931 0bb7 20       		.uleb128 0x20
 1932 0bb8 02080000 		.4byte	.LASF179
 1933 0bbc 00       		.byte	0
 1934 0bbd 20       		.uleb128 0x20
ARM GAS  /var/folders/t8/16hdwfmd2fg_d3q6dgx6bpmw0000gn/T//cciK6y6j.s 			page 35


 1935 0bbe 81070000 		.4byte	.LASF180
 1936 0bc2 01       		.byte	0x1
 1937 0bc3 20       		.uleb128 0x20
 1938 0bc4 C9060000 		.4byte	.LASF181
 1939 0bc8 02       		.byte	0x2
 1940 0bc9 20       		.uleb128 0x20
 1941 0bca 54050000 		.4byte	.LASF182
 1942 0bce 03       		.byte	0x3
 1943 0bcf 20       		.uleb128 0x20
 1944 0bd0 D5000000 		.4byte	.LASF183
 1945 0bd4 04       		.byte	0x4
 1946 0bd5 20       		.uleb128 0x20
 1947 0bd6 EA020000 		.4byte	.LASF184
 1948 0bda 05       		.byte	0x5
 1949 0bdb 00       		.byte	0
 1950 0bdc 1E       		.uleb128 0x1e
 1951 0bdd 48060000 		.4byte	.LASF185
 1952 0be1 10       		.byte	0x10
 1953 0be2 1101     		.2byte	0x111
 1954 0be4 A90B0000 		.4byte	0xba9
 1955 0be8 1F       		.uleb128 0x1f
 1956 0be9 07       		.byte	0x7
 1957 0bea 01       		.byte	0x1
 1958 0beb 50000000 		.4byte	0x50
 1959 0bef 10       		.byte	0x10
 1960 0bf0 1F01     		.2byte	0x11f
 1961 0bf2 210C0000 		.4byte	0xc21
 1962 0bf6 20       		.uleb128 0x20
 1963 0bf7 D4020000 		.4byte	.LASF186
 1964 0bfb 00       		.byte	0
 1965 0bfc 20       		.uleb128 0x20
 1966 0bfd 94000000 		.4byte	.LASF187
 1967 0c01 01       		.byte	0x1
 1968 0c02 20       		.uleb128 0x20
 1969 0c03 D4070000 		.4byte	.LASF188
 1970 0c07 02       		.byte	0x2
 1971 0c08 20       		.uleb128 0x20
 1972 0c09 1E0B0000 		.4byte	.LASF189
 1973 0c0d 03       		.byte	0x3
 1974 0c0e 20       		.uleb128 0x20
 1975 0c0f 530B0000 		.4byte	.LASF190
 1976 0c13 04       		.byte	0x4
 1977 0c14 20       		.uleb128 0x20
 1978 0c15 00090000 		.4byte	.LASF191
 1979 0c19 05       		.byte	0x5
 1980 0c1a 20       		.uleb128 0x20
 1981 0c1b 63060000 		.4byte	.LASF192
 1982 0c1f 06       		.byte	0x6
 1983 0c20 00       		.byte	0
 1984 0c21 1E       		.uleb128 0x1e
 1985 0c22 1C010000 		.4byte	.LASF193
 1986 0c26 10       		.byte	0x10
 1987 0c27 2701     		.2byte	0x127
 1988 0c29 E80B0000 		.4byte	0xbe8
 1989 0c2d 1F       		.uleb128 0x1f
 1990 0c2e 07       		.byte	0x7
 1991 0c2f 01       		.byte	0x1
ARM GAS  /var/folders/t8/16hdwfmd2fg_d3q6dgx6bpmw0000gn/T//cciK6y6j.s 			page 36


 1992 0c30 50000000 		.4byte	0x50
 1993 0c34 10       		.byte	0x10
 1994 0c35 2C01     		.2byte	0x12c
 1995 0c37 660C0000 		.4byte	0xc66
 1996 0c3b 20       		.uleb128 0x20
 1997 0c3c 93080000 		.4byte	.LASF194
 1998 0c40 00       		.byte	0
 1999 0c41 20       		.uleb128 0x20
 2000 0c42 42010000 		.4byte	.LASF195
 2001 0c46 01       		.byte	0x1
 2002 0c47 20       		.uleb128 0x20
 2003 0c48 EB080000 		.4byte	.LASF196
 2004 0c4c 02       		.byte	0x2
 2005 0c4d 20       		.uleb128 0x20
 2006 0c4e C1080000 		.4byte	.LASF197
 2007 0c52 03       		.byte	0x3
 2008 0c53 20       		.uleb128 0x20
 2009 0c54 D30A0000 		.4byte	.LASF198
 2010 0c58 04       		.byte	0x4
 2011 0c59 20       		.uleb128 0x20
 2012 0c5a 8E060000 		.4byte	.LASF199
 2013 0c5e 05       		.byte	0x5
 2014 0c5f 20       		.uleb128 0x20
 2015 0c60 3A030000 		.4byte	.LASF200
 2016 0c64 06       		.byte	0x6
 2017 0c65 00       		.byte	0
 2018 0c66 1E       		.uleb128 0x1e
 2019 0c67 33050000 		.4byte	.LASF201
 2020 0c6b 10       		.byte	0x10
 2021 0c6c 3401     		.2byte	0x134
 2022 0c6e 2D0C0000 		.4byte	0xc2d
 2023 0c72 21       		.uleb128 0x21
 2024 0c73 08       		.byte	0x8
 2025 0c74 10       		.byte	0x10
 2026 0c75 3901     		.2byte	0x139
 2027 0c77 960C0000 		.4byte	0xc96
 2028 0c7b 0B       		.uleb128 0xb
 2029 0c7c 4C050000 		.4byte	.LASF202
 2030 0c80 10       		.byte	0x10
 2031 0c81 3D01     		.2byte	0x13d
 2032 0c83 2C000000 		.4byte	0x2c
 2033 0c87 00       		.byte	0
 2034 0c88 0B       		.uleb128 0xb
 2035 0c89 90040000 		.4byte	.LASF203
 2036 0c8d 10       		.byte	0x10
 2037 0c8e 4101     		.2byte	0x141
 2038 0c90 EE090000 		.4byte	0x9ee
 2039 0c94 04       		.byte	0x4
 2040 0c95 00       		.byte	0
 2041 0c96 1E       		.uleb128 0x1e
 2042 0c97 18050000 		.4byte	.LASF204
 2043 0c9b 10       		.byte	0x10
 2044 0c9c 4201     		.2byte	0x142
 2045 0c9e 720C0000 		.4byte	0xc72
 2046 0ca2 05       		.uleb128 0x5
 2047 0ca3 960C0000 		.4byte	0xc96
 2048 0ca7 1E       		.uleb128 0x1e
ARM GAS  /var/folders/t8/16hdwfmd2fg_d3q6dgx6bpmw0000gn/T//cciK6y6j.s 			page 37


 2049 0ca8 E0090000 		.4byte	.LASF205
 2050 0cac 10       		.byte	0x10
 2051 0cad 4A01     		.2byte	0x14a
 2052 0caf B30C0000 		.4byte	0xcb3
 2053 0cb3 0C       		.uleb128 0xc
 2054 0cb4 04       		.byte	0x4
 2055 0cb5 B90C0000 		.4byte	0xcb9
 2056 0cb9 0E       		.uleb128 0xe
 2057 0cba C40C0000 		.4byte	0xcc4
 2058 0cbe 0F       		.uleb128 0xf
 2059 0cbf C40C0000 		.4byte	0xcc4
 2060 0cc3 00       		.byte	0
 2061 0cc4 0C       		.uleb128 0xc
 2062 0cc5 04       		.byte	0x4
 2063 0cc6 A60A0000 		.4byte	0xaa6
 2064 0cca 1E       		.uleb128 0x1e
 2065 0ccb 0B070000 		.4byte	.LASF206
 2066 0ccf 10       		.byte	0x10
 2067 0cd0 5301     		.2byte	0x153
 2068 0cd2 D60C0000 		.4byte	0xcd6
 2069 0cd6 0C       		.uleb128 0xc
 2070 0cd7 04       		.byte	0x4
 2071 0cd8 DC0C0000 		.4byte	0xcdc
 2072 0cdc 0E       		.uleb128 0xe
 2073 0cdd EC0C0000 		.4byte	0xcec
 2074 0ce1 0F       		.uleb128 0xf
 2075 0ce2 C40C0000 		.4byte	0xcc4
 2076 0ce6 0F       		.uleb128 0xf
 2077 0ce7 9D0B0000 		.4byte	0xb9d
 2078 0ceb 00       		.byte	0
 2079 0cec 1E       		.uleb128 0x1e
 2080 0ced C7040000 		.4byte	.LASF207
 2081 0cf1 10       		.byte	0x10
 2082 0cf2 5C01     		.2byte	0x15c
 2083 0cf4 F80C0000 		.4byte	0xcf8
 2084 0cf8 0C       		.uleb128 0xc
 2085 0cf9 04       		.byte	0x4
 2086 0cfa FE0C0000 		.4byte	0xcfe
 2087 0cfe 0E       		.uleb128 0xe
 2088 0cff 0E0D0000 		.4byte	0xd0e
 2089 0d03 0F       		.uleb128 0xf
 2090 0d04 C40C0000 		.4byte	0xcc4
 2091 0d08 0F       		.uleb128 0xf
 2092 0d09 660C0000 		.4byte	0xc66
 2093 0d0d 00       		.byte	0
 2094 0d0e 1E       		.uleb128 0x1e
 2095 0d0f BD090000 		.4byte	.LASF208
 2096 0d13 10       		.byte	0x10
 2097 0d14 6801     		.2byte	0x168
 2098 0d16 1A0D0000 		.4byte	0xd1a
 2099 0d1a 0C       		.uleb128 0xc
 2100 0d1b 04       		.byte	0x4
 2101 0d1c 200D0000 		.4byte	0xd20
 2102 0d20 22       		.uleb128 0x22
 2103 0d21 FA090000 		.4byte	0x9fa
 2104 0d25 2F0D0000 		.4byte	0xd2f
 2105 0d29 0F       		.uleb128 0xf
ARM GAS  /var/folders/t8/16hdwfmd2fg_d3q6dgx6bpmw0000gn/T//cciK6y6j.s 			page 38


 2106 0d2a C40C0000 		.4byte	0xcc4
 2107 0d2e 00       		.byte	0
 2108 0d2f 1E       		.uleb128 0x1e
 2109 0d30 46090000 		.4byte	.LASF209
 2110 0d34 10       		.byte	0x10
 2111 0d35 6D01     		.2byte	0x16d
 2112 0d37 3B0D0000 		.4byte	0xd3b
 2113 0d3b 0C       		.uleb128 0xc
 2114 0d3c 04       		.byte	0x4
 2115 0d3d 410D0000 		.4byte	0xd41
 2116 0d41 22       		.uleb128 0x22
 2117 0d42 5F0D0000 		.4byte	0xd5f
 2118 0d46 5F0D0000 		.4byte	0xd5f
 2119 0d4a 0F       		.uleb128 0xf
 2120 0d4b C40C0000 		.4byte	0xcc4
 2121 0d4f 0F       		.uleb128 0xf
 2122 0d50 AD000000 		.4byte	0xad
 2123 0d54 0F       		.uleb128 0xf
 2124 0d55 AD000000 		.4byte	0xad
 2125 0d59 0F       		.uleb128 0xf
 2126 0d5a BD000000 		.4byte	0xbd
 2127 0d5e 00       		.byte	0
 2128 0d5f 0C       		.uleb128 0xc
 2129 0d60 04       		.byte	0x4
 2130 0d61 A20C0000 		.4byte	0xca2
 2131 0d65 16       		.uleb128 0x16
 2132 0d66 14       		.byte	0x14
 2133 0d67 11       		.byte	0x11
 2134 0d68 6B       		.byte	0x6b
 2135 0d69 B60D0000 		.4byte	0xdb6
 2136 0d6d 08       		.uleb128 0x8
 2137 0d6e 2B060000 		.4byte	.LASF210
 2138 0d72 11       		.byte	0x11
 2139 0d73 6F       		.byte	0x6f
 2140 0d74 2C000000 		.4byte	0x2c
 2141 0d78 00       		.byte	0
 2142 0d79 08       		.uleb128 0x8
 2143 0d7a 5D010000 		.4byte	.LASF211
 2144 0d7e 11       		.byte	0x11
 2145 0d7f 73       		.byte	0x73
 2146 0d80 2C000000 		.4byte	0x2c
 2147 0d84 04       		.byte	0x4
 2148 0d85 08       		.uleb128 0x8
 2149 0d86 7E020000 		.4byte	.LASF212
 2150 0d8a 11       		.byte	0x11
 2151 0d8b 77       		.byte	0x77
 2152 0d8c EE090000 		.4byte	0x9ee
 2153 0d90 08       		.byte	0x8
 2154 0d91 08       		.uleb128 0x8
 2155 0d92 63090000 		.4byte	.LASF213
 2156 0d96 11       		.byte	0x11
 2157 0d97 7C       		.byte	0x7c
 2158 0d98 50020000 		.4byte	0x250
 2159 0d9c 0C       		.byte	0xc
 2160 0d9d 08       		.uleb128 0x8
 2161 0d9e 71060000 		.4byte	.LASF214
 2162 0da2 11       		.byte	0x11
ARM GAS  /var/folders/t8/16hdwfmd2fg_d3q6dgx6bpmw0000gn/T//cciK6y6j.s 			page 39


 2163 0da3 80       		.byte	0x80
 2164 0da4 FA090000 		.4byte	0x9fa
 2165 0da8 10       		.byte	0x10
 2166 0da9 08       		.uleb128 0x8
 2167 0daa EE090000 		.4byte	.LASF215
 2168 0dae 11       		.byte	0x11
 2169 0daf 82       		.byte	0x82
 2170 0db0 FA090000 		.4byte	0x9fa
 2171 0db4 11       		.byte	0x11
 2172 0db5 00       		.byte	0
 2173 0db6 03       		.uleb128 0x3
 2174 0db7 E9040000 		.4byte	.LASF216
 2175 0dbb 11       		.byte	0x11
 2176 0dbc 83       		.byte	0x83
 2177 0dbd 650D0000 		.4byte	0xd65
 2178 0dc1 16       		.uleb128 0x16
 2179 0dc2 14       		.byte	0x14
 2180 0dc3 11       		.byte	0x11
 2181 0dc4 88       		.byte	0x88
 2182 0dc5 1E0E0000 		.4byte	0xe1e
 2183 0dc9 08       		.uleb128 0x8
 2184 0dca 58030000 		.4byte	.LASF217
 2185 0dce 11       		.byte	0x11
 2186 0dcf 8C       		.byte	0x8c
 2187 0dd0 2C000000 		.4byte	0x2c
 2188 0dd4 00       		.byte	0
 2189 0dd5 08       		.uleb128 0x8
 2190 0dd6 8A070000 		.4byte	.LASF218
 2191 0dda 11       		.byte	0x11
 2192 0ddb 90       		.byte	0x90
 2193 0ddc 2C000000 		.4byte	0x2c
 2194 0de0 04       		.byte	0x4
 2195 0de1 08       		.uleb128 0x8
 2196 0de2 7F060000 		.4byte	.LASF219
 2197 0de6 11       		.byte	0x11
 2198 0de7 94       		.byte	0x94
 2199 0de8 F4090000 		.4byte	0x9f4
 2200 0dec 08       		.byte	0x8
 2201 0ded 08       		.uleb128 0x8
 2202 0dee 63090000 		.4byte	.LASF213
 2203 0df2 11       		.byte	0x11
 2204 0df3 99       		.byte	0x99
 2205 0df4 50020000 		.4byte	0x250
 2206 0df8 0C       		.byte	0xc
 2207 0df9 08       		.uleb128 0x8
 2208 0dfa 7E0A0000 		.4byte	.LASF220
 2209 0dfe 11       		.byte	0x11
 2210 0dff 9F       		.byte	0x9f
 2211 0e00 BD000000 		.4byte	0xbd
 2212 0e04 10       		.byte	0x10
 2213 0e05 08       		.uleb128 0x8
 2214 0e06 71060000 		.4byte	.LASF214
 2215 0e0a 11       		.byte	0x11
 2216 0e0b A1       		.byte	0xa1
 2217 0e0c FA090000 		.4byte	0x9fa
 2218 0e10 12       		.byte	0x12
 2219 0e11 08       		.uleb128 0x8
ARM GAS  /var/folders/t8/16hdwfmd2fg_d3q6dgx6bpmw0000gn/T//cciK6y6j.s 			page 40


 2220 0e12 EE090000 		.4byte	.LASF215
 2221 0e16 11       		.byte	0x11
 2222 0e17 A3       		.byte	0xa3
 2223 0e18 FA090000 		.4byte	0x9fa
 2224 0e1c 13       		.byte	0x13
 2225 0e1d 00       		.byte	0
 2226 0e1e 03       		.uleb128 0x3
 2227 0e1f 1E080000 		.4byte	.LASF221
 2228 0e23 11       		.byte	0x11
 2229 0e24 A4       		.byte	0xa4
 2230 0e25 C10D0000 		.4byte	0xdc1
 2231 0e29 16       		.uleb128 0x16
 2232 0e2a 24       		.byte	0x24
 2233 0e2b 11       		.byte	0x11
 2234 0e2c AA       		.byte	0xaa
 2235 0e2d AA0E0000 		.4byte	0xeaa
 2236 0e31 08       		.uleb128 0x8
 2237 0e32 AC000000 		.4byte	.LASF222
 2238 0e36 11       		.byte	0x11
 2239 0e37 AE       		.byte	0xae
 2240 0e38 D3000000 		.4byte	0xd3
 2241 0e3c 00       		.byte	0
 2242 0e3d 08       		.uleb128 0x8
 2243 0e3e 87040000 		.4byte	.LASF223
 2244 0e42 11       		.byte	0x11
 2245 0e43 B9       		.byte	0xb9
 2246 0e44 CA0C0000 		.4byte	0xcca
 2247 0e48 04       		.byte	0x4
 2248 0e49 08       		.uleb128 0x8
 2249 0e4a F4070000 		.4byte	.LASF224
 2250 0e4e 11       		.byte	0x11
 2251 0e4f BE       		.byte	0xbe
 2252 0e50 CA0C0000 		.4byte	0xcca
 2253 0e54 08       		.byte	0x8
 2254 0e55 08       		.uleb128 0x8
 2255 0e56 70070000 		.4byte	.LASF225
 2256 0e5a 11       		.byte	0x11
 2257 0e5b C3       		.byte	0xc3
 2258 0e5c CA0C0000 		.4byte	0xcca
 2259 0e60 0C       		.byte	0xc
 2260 0e61 08       		.uleb128 0x8
 2261 0e62 90070000 		.4byte	.LASF226
 2262 0e66 11       		.byte	0x11
 2263 0e67 C8       		.byte	0xc8
 2264 0e68 BD000000 		.4byte	0xbd
 2265 0e6c 10       		.byte	0x10
 2266 0e6d 08       		.uleb128 0x8
 2267 0e6e D8080000 		.4byte	.LASF227
 2268 0e72 11       		.byte	0x11
 2269 0e73 CD       		.byte	0xcd
 2270 0e74 BD000000 		.4byte	0xbd
 2271 0e78 12       		.byte	0x12
 2272 0e79 08       		.uleb128 0x8
 2273 0e7a 85060000 		.4byte	.LASF228
 2274 0e7e 11       		.byte	0x11
 2275 0e7f D3       		.byte	0xd3
 2276 0e80 AA0E0000 		.4byte	0xeaa
ARM GAS  /var/folders/t8/16hdwfmd2fg_d3q6dgx6bpmw0000gn/T//cciK6y6j.s 			page 41


 2277 0e84 14       		.byte	0x14
 2278 0e85 08       		.uleb128 0x8
 2279 0e86 9B070000 		.4byte	.LASF229
 2280 0e8a 11       		.byte	0x11
 2281 0e8b D9       		.byte	0xd9
 2282 0e8c B00E0000 		.4byte	0xeb0
 2283 0e90 18       		.byte	0x18
 2284 0e91 08       		.uleb128 0x8
 2285 0e92 AE070000 		.4byte	.LASF230
 2286 0e96 11       		.byte	0x11
 2287 0e97 DF       		.byte	0xdf
 2288 0e98 BD000000 		.4byte	0xbd
 2289 0e9c 1C       		.byte	0x1c
 2290 0e9d 08       		.uleb128 0x8
 2291 0e9e 5E070000 		.4byte	.LASF231
 2292 0ea2 11       		.byte	0x11
 2293 0ea3 E5       		.byte	0xe5
 2294 0ea4 F4090000 		.4byte	0x9f4
 2295 0ea8 20       		.byte	0x20
 2296 0ea9 00       		.byte	0
 2297 0eaa 0C       		.uleb128 0xc
 2298 0eab 04       		.byte	0x4
 2299 0eac B60D0000 		.4byte	0xdb6
 2300 0eb0 0C       		.uleb128 0xc
 2301 0eb1 04       		.byte	0x4
 2302 0eb2 1E0E0000 		.4byte	0xe1e
 2303 0eb6 03       		.uleb128 0x3
 2304 0eb7 14090000 		.4byte	.LASF232
 2305 0ebb 11       		.byte	0x11
 2306 0ebc E6       		.byte	0xe6
 2307 0ebd 290E0000 		.4byte	0xe29
 2308 0ec1 05       		.uleb128 0x5
 2309 0ec2 B60E0000 		.4byte	0xeb6
 2310 0ec6 16       		.uleb128 0x16
 2311 0ec7 10       		.byte	0x10
 2312 0ec8 11       		.byte	0x11
 2313 0ec9 EB       		.byte	0xeb
 2314 0eca FF0E0000 		.4byte	0xeff
 2315 0ece 08       		.uleb128 0x8
 2316 0ecf AA060000 		.4byte	.LASF233
 2317 0ed3 11       		.byte	0x11
 2318 0ed4 F0       		.byte	0xf0
 2319 0ed5 EC0C0000 		.4byte	0xcec
 2320 0ed9 00       		.byte	0
 2321 0eda 08       		.uleb128 0x8
 2322 0edb AB0A0000 		.4byte	.LASF234
 2323 0edf 11       		.byte	0x11
 2324 0ee0 F5       		.byte	0xf5
 2325 0ee1 2F0D0000 		.4byte	0xd2f
 2326 0ee5 04       		.byte	0x4
 2327 0ee6 08       		.uleb128 0x8
 2328 0ee7 E3030000 		.4byte	.LASF235
 2329 0eeb 11       		.byte	0x11
 2330 0eec FB       		.byte	0xfb
 2331 0eed 0E0D0000 		.4byte	0xd0e
 2332 0ef1 08       		.byte	0x8
 2333 0ef2 08       		.uleb128 0x8
ARM GAS  /var/folders/t8/16hdwfmd2fg_d3q6dgx6bpmw0000gn/T//cciK6y6j.s 			page 42


 2334 0ef3 560A0000 		.4byte	.LASF236
 2335 0ef7 11       		.byte	0x11
 2336 0ef8 FF       		.byte	0xff
 2337 0ef9 A70C0000 		.4byte	0xca7
 2338 0efd 0C       		.byte	0xc
 2339 0efe 00       		.byte	0
 2340 0eff 1E       		.uleb128 0x1e
 2341 0f00 4C070000 		.4byte	.LASF237
 2342 0f04 11       		.byte	0x11
 2343 0f05 0101     		.2byte	0x101
 2344 0f07 C60E0000 		.4byte	0xec6
 2345 0f0b 05       		.uleb128 0x5
 2346 0f0c FF0E0000 		.4byte	0xeff
 2347 0f10 0C       		.uleb128 0xc
 2348 0f11 04       		.byte	0x4
 2349 0f12 0B0F0000 		.4byte	0xf0b
 2350 0f16 11       		.uleb128 0x11
 2351 0f17 260F0000 		.4byte	0xf26
 2352 0f1b 260F0000 		.4byte	0xf26
 2353 0f1f 12       		.uleb128 0x12
 2354 0f20 37000000 		.4byte	0x37
 2355 0f24 0F       		.byte	0xf
 2356 0f25 00       		.byte	0
 2357 0f26 0C       		.uleb128 0xc
 2358 0f27 04       		.byte	0x4
 2359 0f28 C10E0000 		.4byte	0xec1
 2360 0f2c 11       		.uleb128 0x11
 2361 0f2d 38030000 		.4byte	0x338
 2362 0f31 3C0F0000 		.4byte	0xf3c
 2363 0f35 12       		.uleb128 0x12
 2364 0f36 37000000 		.4byte	0x37
 2365 0f3a 0E       		.byte	0xe
 2366 0f3b 00       		.byte	0
 2367 0f3c 11       		.uleb128 0x11
 2368 0f3d AD000000 		.4byte	0xad
 2369 0f41 4C0F0000 		.4byte	0xf4c
 2370 0f45 12       		.uleb128 0x12
 2371 0f46 37000000 		.4byte	0x37
 2372 0f4a 07       		.byte	0x7
 2373 0f4b 00       		.byte	0
 2374 0f4c 1C       		.uleb128 0x1c
 2375 0f4d 1E0A0000 		.4byte	.LASF238
 2376 0f51 11       		.byte	0x11
 2377 0f52 9201     		.2byte	0x192
 2378 0f54 A60A0000 		.4byte	0xaa6
 2379 0f58 23       		.uleb128 0x23
 2380 0f59 F8000000 		.4byte	.LASF241
 2381 0f5d 01       		.byte	0x1
 2382 0f5e E6       		.byte	0xe6
 2383 0f5f 00000000 		.4byte	.LFB178
 2384 0f63 1A000000 		.4byte	.LFE178-.LFB178
 2385 0f67 01       		.uleb128 0x1
 2386 0f68 9C       		.byte	0x9c
 2387 0f69 BE0F0000 		.4byte	0xfbe
 2388 0f6d 24       		.uleb128 0x24
 2389 0f6e 6F090000 		.4byte	.LASF156
 2390 0f72 01       		.byte	0x1
ARM GAS  /var/folders/t8/16hdwfmd2fg_d3q6dgx6bpmw0000gn/T//cciK6y6j.s 			page 43


 2391 0f73 E6       		.byte	0xe6
 2392 0f74 170A0000 		.4byte	0xa17
 2393 0f78 00000000 		.4byte	.LLST8
 2394 0f7c 24       		.uleb128 0x24
 2395 0f7d FE060000 		.4byte	.LASF239
 2396 0f81 01       		.byte	0x1
 2397 0f82 E7       		.byte	0xe7
 2398 0f83 010A0000 		.4byte	0xa01
 2399 0f87 2C000000 		.4byte	.LLST9
 2400 0f8b 24       		.uleb128 0x24
 2401 0f8c 8C090000 		.4byte	.LASF240
 2402 0f90 01       		.byte	0x1
 2403 0f91 E8       		.byte	0xe8
 2404 0f92 0C0A0000 		.4byte	0xa0c
 2405 0f96 4D000000 		.4byte	.LLST10
 2406 0f9a 25       		.uleb128 0x25
 2407 0f9b 6900     		.ascii	"i\000"
 2408 0f9d 01       		.byte	0x1
 2409 0f9e EA       		.byte	0xea
 2410 0f9f 25000000 		.4byte	0x25
 2411 0fa3 79000000 		.4byte	.LLST11
 2412 0fa7 26       		.uleb128 0x26
 2413 0fa8 14000000 		.4byte	.LVL29
 2414 0fac 0C100000 		.4byte	0x100c
 2415 0fb0 27       		.uleb128 0x27
 2416 0fb1 01       		.uleb128 0x1
 2417 0fb2 50       		.byte	0x50
 2418 0fb3 02       		.uleb128 0x2
 2419 0fb4 76       		.byte	0x76
 2420 0fb5 00       		.sleb128 0
 2421 0fb6 27       		.uleb128 0x27
 2422 0fb7 01       		.uleb128 0x1
 2423 0fb8 52       		.byte	0x52
 2424 0fb9 02       		.uleb128 0x2
 2425 0fba 75       		.byte	0x75
 2426 0fbb 00       		.sleb128 0
 2427 0fbc 00       		.byte	0
 2428 0fbd 00       		.byte	0
 2429 0fbe 23       		.uleb128 0x23
 2430 0fbf 3E070000 		.4byte	.LASF242
 2431 0fc3 01       		.byte	0x1
 2432 0fc4 C6       		.byte	0xc6
 2433 0fc5 00000000 		.4byte	.LFB177
 2434 0fc9 3C000000 		.4byte	.LFE177-.LFB177
 2435 0fcd 01       		.uleb128 0x1
 2436 0fce 9C       		.byte	0x9c
 2437 0fcf 06100000 		.4byte	0x1006
 2438 0fd3 24       		.uleb128 0x24
 2439 0fd4 9F000000 		.4byte	.LASF163
 2440 0fd8 01       		.byte	0x1
 2441 0fd9 C6       		.byte	0xc6
 2442 0fda 06100000 		.4byte	0x1006
 2443 0fde B0000000 		.4byte	.LLST5
 2444 0fe2 25       		.uleb128 0x25
 2445 0fe3 6900     		.ascii	"i\000"
 2446 0fe5 01       		.byte	0x1
 2447 0fe6 C8       		.byte	0xc8
ARM GAS  /var/folders/t8/16hdwfmd2fg_d3q6dgx6bpmw0000gn/T//cciK6y6j.s 			page 44


 2448 0fe7 25000000 		.4byte	0x25
 2449 0feb DF000000 		.4byte	.LLST6
 2450 0fef 25       		.uleb128 0x25
 2451 0ff0 6A00     		.ascii	"j\000"
 2452 0ff2 01       		.byte	0x1
 2453 0ff3 C8       		.byte	0xc8
 2454 0ff4 25000000 		.4byte	0x25
 2455 0ff8 F3000000 		.4byte	.LLST7
 2456 0ffc 28       		.uleb128 0x28
 2457 0ffd 28000000 		.4byte	.LVL23
 2458 1001 0C100000 		.4byte	0x100c
 2459 1005 00       		.byte	0
 2460 1006 0C       		.uleb128 0xc
 2461 1007 04       		.byte	0x4
 2462 1008 950A0000 		.4byte	0xa95
 2463 100c 23       		.uleb128 0x23
 2464 100d F8020000 		.4byte	.LASF243
 2465 1011 01       		.byte	0x1
 2466 1012 69       		.byte	0x69
 2467 1013 00000000 		.4byte	.LFB176
 2468 1017 10010000 		.4byte	.LFE176-.LFB176
 2469 101b 01       		.uleb128 0x1
 2470 101c 9C       		.byte	0x9c
 2471 101d 94100000 		.4byte	0x1094
 2472 1021 24       		.uleb128 0x24
 2473 1022 6F090000 		.4byte	.LASF156
 2474 1026 01       		.byte	0x1
 2475 1027 69       		.byte	0x69
 2476 1028 170A0000 		.4byte	0xa17
 2477 102c 2A010000 		.4byte	.LLST2
 2478 1030 29       		.uleb128 0x29
 2479 1031 70616400 		.ascii	"pad\000"
 2480 1035 01       		.byte	0x1
 2481 1036 6A       		.byte	0x6a
 2482 1037 AD000000 		.4byte	0xad
 2483 103b 77010000 		.4byte	.LLST3
 2484 103f 24       		.uleb128 0x24
 2485 1040 8C090000 		.4byte	.LASF240
 2486 1044 01       		.byte	0x1
 2487 1045 6B       		.byte	0x6b
 2488 1046 0C0A0000 		.4byte	0xa0c
 2489 104a B1010000 		.4byte	.LLST4
 2490 104e 2A       		.uleb128 0x2a
 2491 104f 56070000 		.4byte	.LASF244
 2492 1053 01       		.byte	0x1
 2493 1054 6D       		.byte	0x6d
 2494 1055 94100000 		.4byte	0x1094
 2495 1059 00       		.byte	0
 2496 105a 2B       		.uleb128 0x2b
 2497 105b 8B000000 		.4byte	.LASF249
 2498 105f AA100000 		.4byte	0x10aa
 2499 1063 05       		.uleb128 0x5
 2500 1064 03       		.byte	0x3
 2501 1065 00000000 		.4byte	__func__.6432
 2502 1069 2C       		.uleb128 0x2c
 2503 106a 3E000000 		.4byte	.LVL8
 2504 106e 24110000 		.4byte	0x1124
ARM GAS  /var/folders/t8/16hdwfmd2fg_d3q6dgx6bpmw0000gn/T//cciK6y6j.s 			page 45


 2505 1072 80100000 		.4byte	0x1080
 2506 1076 27       		.uleb128 0x27
 2507 1077 01       		.uleb128 0x1
 2508 1078 50       		.byte	0x50
 2509 1079 05       		.uleb128 0x5
 2510 107a 03       		.byte	0x3
 2511 107b 00000000 		.4byte	.LANCHOR0
 2512 107f 00       		.byte	0
 2513 1080 26       		.uleb128 0x26
 2514 1081 7C000000 		.4byte	.LVL15
 2515 1085 24110000 		.4byte	0x1124
 2516 1089 27       		.uleb128 0x27
 2517 108a 01       		.uleb128 0x1
 2518 108b 50       		.byte	0x50
 2519 108c 05       		.uleb128 0x5
 2520 108d 03       		.byte	0x3
 2521 108e 00000000 		.4byte	.LANCHOR0
 2522 1092 00       		.byte	0
 2523 1093 00       		.byte	0
 2524 1094 0C       		.uleb128 0xc
 2525 1095 04       		.byte	0x4
 2526 1096 B4060000 		.4byte	0x6b4
 2527 109a 11       		.uleb128 0x11
 2528 109b 9E080000 		.4byte	0x89e
 2529 109f AA100000 		.4byte	0x10aa
 2530 10a3 12       		.uleb128 0x12
 2531 10a4 37000000 		.4byte	0x37
 2532 10a8 13       		.byte	0x13
 2533 10a9 00       		.byte	0
 2534 10aa 05       		.uleb128 0x5
 2535 10ab 9A100000 		.4byte	0x109a
 2536 10af 23       		.uleb128 0x23
 2537 10b0 34090000 		.4byte	.LASF245
 2538 10b4 01       		.byte	0x1
 2539 10b5 51       		.byte	0x51
 2540 10b6 00000000 		.4byte	.LFB175
 2541 10ba 18000000 		.4byte	.LFE175-.LFB175
 2542 10be 01       		.uleb128 0x1
 2543 10bf 9C       		.byte	0x9c
 2544 10c0 EE100000 		.4byte	0x10ee
 2545 10c4 2D       		.uleb128 0x2d
 2546 10c5 6F090000 		.4byte	.LASF156
 2547 10c9 01       		.byte	0x1
 2548 10ca 51       		.byte	0x51
 2549 10cb 170A0000 		.4byte	0xa17
 2550 10cf 01       		.uleb128 0x1
 2551 10d0 50       		.byte	0x50
 2552 10d1 2E       		.uleb128 0x2e
 2553 10d2 70616400 		.ascii	"pad\000"
 2554 10d6 01       		.byte	0x1
 2555 10d7 52       		.byte	0x52
 2556 10d8 AD000000 		.4byte	0xad
 2557 10dc 01       		.uleb128 0x1
 2558 10dd 51       		.byte	0x51
 2559 10de 29       		.uleb128 0x29
 2560 10df 62697400 		.ascii	"bit\000"
 2561 10e3 01       		.byte	0x1
ARM GAS  /var/folders/t8/16hdwfmd2fg_d3q6dgx6bpmw0000gn/T//cciK6y6j.s 			page 46


 2562 10e4 53       		.byte	0x53
 2563 10e5 AD000000 		.4byte	0xad
 2564 10e9 25020000 		.4byte	.LLST1
 2565 10ed 00       		.byte	0
 2566 10ee 2F       		.uleb128 0x2f
 2567 10ef 030B0000 		.4byte	.LASF250
 2568 10f3 01       		.byte	0x1
 2569 10f4 3C       		.byte	0x3c
 2570 10f5 AD000000 		.4byte	0xad
 2571 10f9 00000000 		.4byte	.LFB174
 2572 10fd 0A000000 		.4byte	.LFE174-.LFB174
 2573 1101 01       		.uleb128 0x1
 2574 1102 9C       		.byte	0x9c
 2575 1103 24110000 		.4byte	0x1124
 2576 1107 24       		.uleb128 0x24
 2577 1108 6F090000 		.4byte	.LASF156
 2578 110c 01       		.byte	0x1
 2579 110d 3C       		.byte	0x3c
 2580 110e 170A0000 		.4byte	0xa17
 2581 1112 5F020000 		.4byte	.LLST0
 2582 1116 2E       		.uleb128 0x2e
 2583 1117 70616400 		.ascii	"pad\000"
 2584 111b 01       		.byte	0x1
 2585 111c 3D       		.byte	0x3d
 2586 111d AD000000 		.4byte	0xad
 2587 1121 01       		.uleb128 0x1
 2588 1122 51       		.byte	0x51
 2589 1123 00       		.byte	0
 2590 1124 30       		.uleb128 0x30
 2591 1125 140A0000 		.4byte	.LASF251
 2592 1129 140A0000 		.4byte	.LASF251
 2593 112d 0E       		.byte	0xe
 2594 112e 3201     		.2byte	0x132
 2595 1130 00       		.byte	0
 2596              		.section	.debug_abbrev,"",%progbits
 2597              	.Ldebug_abbrev0:
 2598 0000 01       		.uleb128 0x1
 2599 0001 11       		.uleb128 0x11
 2600 0002 01       		.byte	0x1
 2601 0003 25       		.uleb128 0x25
 2602 0004 0E       		.uleb128 0xe
 2603 0005 13       		.uleb128 0x13
 2604 0006 0B       		.uleb128 0xb
 2605 0007 03       		.uleb128 0x3
 2606 0008 0E       		.uleb128 0xe
 2607 0009 1B       		.uleb128 0x1b
 2608 000a 0E       		.uleb128 0xe
 2609 000b 55       		.uleb128 0x55
 2610 000c 17       		.uleb128 0x17
 2611 000d 11       		.uleb128 0x11
 2612 000e 01       		.uleb128 0x1
 2613 000f 10       		.uleb128 0x10
 2614 0010 17       		.uleb128 0x17
 2615 0011 00       		.byte	0
 2616 0012 00       		.byte	0
 2617 0013 02       		.uleb128 0x2
 2618 0014 24       		.uleb128 0x24
ARM GAS  /var/folders/t8/16hdwfmd2fg_d3q6dgx6bpmw0000gn/T//cciK6y6j.s 			page 47


 2619 0015 00       		.byte	0
 2620 0016 0B       		.uleb128 0xb
 2621 0017 0B       		.uleb128 0xb
 2622 0018 3E       		.uleb128 0x3e
 2623 0019 0B       		.uleb128 0xb
 2624 001a 03       		.uleb128 0x3
 2625 001b 08       		.uleb128 0x8
 2626 001c 00       		.byte	0
 2627 001d 00       		.byte	0
 2628 001e 03       		.uleb128 0x3
 2629 001f 16       		.uleb128 0x16
 2630 0020 00       		.byte	0
 2631 0021 03       		.uleb128 0x3
 2632 0022 0E       		.uleb128 0xe
 2633 0023 3A       		.uleb128 0x3a
 2634 0024 0B       		.uleb128 0xb
 2635 0025 3B       		.uleb128 0x3b
 2636 0026 0B       		.uleb128 0xb
 2637 0027 49       		.uleb128 0x49
 2638 0028 13       		.uleb128 0x13
 2639 0029 00       		.byte	0
 2640 002a 00       		.byte	0
 2641 002b 04       		.uleb128 0x4
 2642 002c 24       		.uleb128 0x24
 2643 002d 00       		.byte	0
 2644 002e 0B       		.uleb128 0xb
 2645 002f 0B       		.uleb128 0xb
 2646 0030 3E       		.uleb128 0x3e
 2647 0031 0B       		.uleb128 0xb
 2648 0032 03       		.uleb128 0x3
 2649 0033 0E       		.uleb128 0xe
 2650 0034 00       		.byte	0
 2651 0035 00       		.byte	0
 2652 0036 05       		.uleb128 0x5
 2653 0037 26       		.uleb128 0x26
 2654 0038 00       		.byte	0
 2655 0039 49       		.uleb128 0x49
 2656 003a 13       		.uleb128 0x13
 2657 003b 00       		.byte	0
 2658 003c 00       		.byte	0
 2659 003d 06       		.uleb128 0x6
 2660 003e 35       		.uleb128 0x35
 2661 003f 00       		.byte	0
 2662 0040 49       		.uleb128 0x49
 2663 0041 13       		.uleb128 0x13
 2664 0042 00       		.byte	0
 2665 0043 00       		.byte	0
 2666 0044 07       		.uleb128 0x7
 2667 0045 13       		.uleb128 0x13
 2668 0046 01       		.byte	0x1
 2669 0047 03       		.uleb128 0x3
 2670 0048 0E       		.uleb128 0xe
 2671 0049 0B       		.uleb128 0xb
 2672 004a 0B       		.uleb128 0xb
 2673 004b 3A       		.uleb128 0x3a
 2674 004c 0B       		.uleb128 0xb
 2675 004d 3B       		.uleb128 0x3b
ARM GAS  /var/folders/t8/16hdwfmd2fg_d3q6dgx6bpmw0000gn/T//cciK6y6j.s 			page 48


 2676 004e 0B       		.uleb128 0xb
 2677 004f 01       		.uleb128 0x1
 2678 0050 13       		.uleb128 0x13
 2679 0051 00       		.byte	0
 2680 0052 00       		.byte	0
 2681 0053 08       		.uleb128 0x8
 2682 0054 0D       		.uleb128 0xd
 2683 0055 00       		.byte	0
 2684 0056 03       		.uleb128 0x3
 2685 0057 0E       		.uleb128 0xe
 2686 0058 3A       		.uleb128 0x3a
 2687 0059 0B       		.uleb128 0xb
 2688 005a 3B       		.uleb128 0x3b
 2689 005b 0B       		.uleb128 0xb
 2690 005c 49       		.uleb128 0x49
 2691 005d 13       		.uleb128 0x13
 2692 005e 38       		.uleb128 0x38
 2693 005f 0B       		.uleb128 0xb
 2694 0060 00       		.byte	0
 2695 0061 00       		.byte	0
 2696 0062 09       		.uleb128 0x9
 2697 0063 0D       		.uleb128 0xd
 2698 0064 00       		.byte	0
 2699 0065 03       		.uleb128 0x3
 2700 0066 08       		.uleb128 0x8
 2701 0067 3A       		.uleb128 0x3a
 2702 0068 0B       		.uleb128 0xb
 2703 0069 3B       		.uleb128 0x3b
 2704 006a 0B       		.uleb128 0xb
 2705 006b 49       		.uleb128 0x49
 2706 006c 13       		.uleb128 0x13
 2707 006d 38       		.uleb128 0x38
 2708 006e 0B       		.uleb128 0xb
 2709 006f 00       		.byte	0
 2710 0070 00       		.byte	0
 2711 0071 0A       		.uleb128 0xa
 2712 0072 0D       		.uleb128 0xd
 2713 0073 00       		.byte	0
 2714 0074 03       		.uleb128 0x3
 2715 0075 08       		.uleb128 0x8
 2716 0076 3A       		.uleb128 0x3a
 2717 0077 0B       		.uleb128 0xb
 2718 0078 3B       		.uleb128 0x3b
 2719 0079 05       		.uleb128 0x5
 2720 007a 49       		.uleb128 0x49
 2721 007b 13       		.uleb128 0x13
 2722 007c 38       		.uleb128 0x38
 2723 007d 0B       		.uleb128 0xb
 2724 007e 00       		.byte	0
 2725 007f 00       		.byte	0
 2726 0080 0B       		.uleb128 0xb
 2727 0081 0D       		.uleb128 0xd
 2728 0082 00       		.byte	0
 2729 0083 03       		.uleb128 0x3
 2730 0084 0E       		.uleb128 0xe
 2731 0085 3A       		.uleb128 0x3a
 2732 0086 0B       		.uleb128 0xb
ARM GAS  /var/folders/t8/16hdwfmd2fg_d3q6dgx6bpmw0000gn/T//cciK6y6j.s 			page 49


 2733 0087 3B       		.uleb128 0x3b
 2734 0088 05       		.uleb128 0x5
 2735 0089 49       		.uleb128 0x49
 2736 008a 13       		.uleb128 0x13
 2737 008b 38       		.uleb128 0x38
 2738 008c 0B       		.uleb128 0xb
 2739 008d 00       		.byte	0
 2740 008e 00       		.byte	0
 2741 008f 0C       		.uleb128 0xc
 2742 0090 0F       		.uleb128 0xf
 2743 0091 00       		.byte	0
 2744 0092 0B       		.uleb128 0xb
 2745 0093 0B       		.uleb128 0xb
 2746 0094 49       		.uleb128 0x49
 2747 0095 13       		.uleb128 0x13
 2748 0096 00       		.byte	0
 2749 0097 00       		.byte	0
 2750 0098 0D       		.uleb128 0xd
 2751 0099 13       		.uleb128 0x13
 2752 009a 01       		.byte	0x1
 2753 009b 03       		.uleb128 0x3
 2754 009c 0E       		.uleb128 0xe
 2755 009d 0B       		.uleb128 0xb
 2756 009e 0B       		.uleb128 0xb
 2757 009f 3A       		.uleb128 0x3a
 2758 00a0 0B       		.uleb128 0xb
 2759 00a1 3B       		.uleb128 0x3b
 2760 00a2 05       		.uleb128 0x5
 2761 00a3 01       		.uleb128 0x1
 2762 00a4 13       		.uleb128 0x13
 2763 00a5 00       		.byte	0
 2764 00a6 00       		.byte	0
 2765 00a7 0E       		.uleb128 0xe
 2766 00a8 15       		.uleb128 0x15
 2767 00a9 01       		.byte	0x1
 2768 00aa 27       		.uleb128 0x27
 2769 00ab 19       		.uleb128 0x19
 2770 00ac 01       		.uleb128 0x1
 2771 00ad 13       		.uleb128 0x13
 2772 00ae 00       		.byte	0
 2773 00af 00       		.byte	0
 2774 00b0 0F       		.uleb128 0xf
 2775 00b1 05       		.uleb128 0x5
 2776 00b2 00       		.byte	0
 2777 00b3 49       		.uleb128 0x49
 2778 00b4 13       		.uleb128 0x13
 2779 00b5 00       		.byte	0
 2780 00b6 00       		.byte	0
 2781 00b7 10       		.uleb128 0x10
 2782 00b8 0F       		.uleb128 0xf
 2783 00b9 00       		.byte	0
 2784 00ba 0B       		.uleb128 0xb
 2785 00bb 0B       		.uleb128 0xb
 2786 00bc 00       		.byte	0
 2787 00bd 00       		.byte	0
 2788 00be 11       		.uleb128 0x11
 2789 00bf 01       		.uleb128 0x1
ARM GAS  /var/folders/t8/16hdwfmd2fg_d3q6dgx6bpmw0000gn/T//cciK6y6j.s 			page 50


 2790 00c0 01       		.byte	0x1
 2791 00c1 49       		.uleb128 0x49
 2792 00c2 13       		.uleb128 0x13
 2793 00c3 01       		.uleb128 0x1
 2794 00c4 13       		.uleb128 0x13
 2795 00c5 00       		.byte	0
 2796 00c6 00       		.byte	0
 2797 00c7 12       		.uleb128 0x12
 2798 00c8 21       		.uleb128 0x21
 2799 00c9 00       		.byte	0
 2800 00ca 49       		.uleb128 0x49
 2801 00cb 13       		.uleb128 0x13
 2802 00cc 2F       		.uleb128 0x2f
 2803 00cd 0B       		.uleb128 0xb
 2804 00ce 00       		.byte	0
 2805 00cf 00       		.byte	0
 2806 00d0 13       		.uleb128 0x13
 2807 00d1 13       		.uleb128 0x13
 2808 00d2 01       		.byte	0x1
 2809 00d3 0B       		.uleb128 0xb
 2810 00d4 05       		.uleb128 0x5
 2811 00d5 3A       		.uleb128 0x3a
 2812 00d6 0B       		.uleb128 0xb
 2813 00d7 3B       		.uleb128 0x3b
 2814 00d8 0B       		.uleb128 0xb
 2815 00d9 01       		.uleb128 0x1
 2816 00da 13       		.uleb128 0x13
 2817 00db 00       		.byte	0
 2818 00dc 00       		.byte	0
 2819 00dd 14       		.uleb128 0x14
 2820 00de 0D       		.uleb128 0xd
 2821 00df 00       		.byte	0
 2822 00e0 03       		.uleb128 0x3
 2823 00e1 0E       		.uleb128 0xe
 2824 00e2 3A       		.uleb128 0x3a
 2825 00e3 0B       		.uleb128 0xb
 2826 00e4 3B       		.uleb128 0x3b
 2827 00e5 0B       		.uleb128 0xb
 2828 00e6 49       		.uleb128 0x49
 2829 00e7 13       		.uleb128 0x13
 2830 00e8 38       		.uleb128 0x38
 2831 00e9 05       		.uleb128 0x5
 2832 00ea 00       		.byte	0
 2833 00eb 00       		.byte	0
 2834 00ec 15       		.uleb128 0x15
 2835 00ed 21       		.uleb128 0x21
 2836 00ee 00       		.byte	0
 2837 00ef 49       		.uleb128 0x49
 2838 00f0 13       		.uleb128 0x13
 2839 00f1 2F       		.uleb128 0x2f
 2840 00f2 05       		.uleb128 0x5
 2841 00f3 00       		.byte	0
 2842 00f4 00       		.byte	0
 2843 00f5 16       		.uleb128 0x16
 2844 00f6 13       		.uleb128 0x13
 2845 00f7 01       		.byte	0x1
 2846 00f8 0B       		.uleb128 0xb
ARM GAS  /var/folders/t8/16hdwfmd2fg_d3q6dgx6bpmw0000gn/T//cciK6y6j.s 			page 51


 2847 00f9 0B       		.uleb128 0xb
 2848 00fa 3A       		.uleb128 0x3a
 2849 00fb 0B       		.uleb128 0xb
 2850 00fc 3B       		.uleb128 0x3b
 2851 00fd 0B       		.uleb128 0xb
 2852 00fe 01       		.uleb128 0x1
 2853 00ff 13       		.uleb128 0x13
 2854 0100 00       		.byte	0
 2855 0101 00       		.byte	0
 2856 0102 17       		.uleb128 0x17
 2857 0103 17       		.uleb128 0x17
 2858 0104 01       		.byte	0x1
 2859 0105 0B       		.uleb128 0xb
 2860 0106 0B       		.uleb128 0xb
 2861 0107 3A       		.uleb128 0x3a
 2862 0108 0B       		.uleb128 0xb
 2863 0109 3B       		.uleb128 0x3b
 2864 010a 0B       		.uleb128 0xb
 2865 010b 01       		.uleb128 0x1
 2866 010c 13       		.uleb128 0x13
 2867 010d 00       		.byte	0
 2868 010e 00       		.byte	0
 2869 010f 18       		.uleb128 0x18
 2870 0110 0D       		.uleb128 0xd
 2871 0111 00       		.byte	0
 2872 0112 03       		.uleb128 0x3
 2873 0113 0E       		.uleb128 0xe
 2874 0114 3A       		.uleb128 0x3a
 2875 0115 0B       		.uleb128 0xb
 2876 0116 3B       		.uleb128 0x3b
 2877 0117 0B       		.uleb128 0xb
 2878 0118 49       		.uleb128 0x49
 2879 0119 13       		.uleb128 0x13
 2880 011a 00       		.byte	0
 2881 011b 00       		.byte	0
 2882 011c 19       		.uleb128 0x19
 2883 011d 0D       		.uleb128 0xd
 2884 011e 00       		.byte	0
 2885 011f 03       		.uleb128 0x3
 2886 0120 0E       		.uleb128 0xe
 2887 0121 3A       		.uleb128 0x3a
 2888 0122 0B       		.uleb128 0xb
 2889 0123 3B       		.uleb128 0x3b
 2890 0124 05       		.uleb128 0x5
 2891 0125 49       		.uleb128 0x49
 2892 0126 13       		.uleb128 0x13
 2893 0127 00       		.byte	0
 2894 0128 00       		.byte	0
 2895 0129 1A       		.uleb128 0x1a
 2896 012a 34       		.uleb128 0x34
 2897 012b 00       		.byte	0
 2898 012c 03       		.uleb128 0x3
 2899 012d 08       		.uleb128 0x8
 2900 012e 3A       		.uleb128 0x3a
 2901 012f 0B       		.uleb128 0xb
 2902 0130 3B       		.uleb128 0x3b
 2903 0131 05       		.uleb128 0x5
ARM GAS  /var/folders/t8/16hdwfmd2fg_d3q6dgx6bpmw0000gn/T//cciK6y6j.s 			page 52


 2904 0132 49       		.uleb128 0x49
 2905 0133 13       		.uleb128 0x13
 2906 0134 3F       		.uleb128 0x3f
 2907 0135 19       		.uleb128 0x19
 2908 0136 3C       		.uleb128 0x3c
 2909 0137 19       		.uleb128 0x19
 2910 0138 00       		.byte	0
 2911 0139 00       		.byte	0
 2912 013a 1B       		.uleb128 0x1b
 2913 013b 21       		.uleb128 0x21
 2914 013c 00       		.byte	0
 2915 013d 00       		.byte	0
 2916 013e 00       		.byte	0
 2917 013f 1C       		.uleb128 0x1c
 2918 0140 34       		.uleb128 0x34
 2919 0141 00       		.byte	0
 2920 0142 03       		.uleb128 0x3
 2921 0143 0E       		.uleb128 0xe
 2922 0144 3A       		.uleb128 0x3a
 2923 0145 0B       		.uleb128 0xb
 2924 0146 3B       		.uleb128 0x3b
 2925 0147 05       		.uleb128 0x5
 2926 0148 49       		.uleb128 0x49
 2927 0149 13       		.uleb128 0x13
 2928 014a 3F       		.uleb128 0x3f
 2929 014b 19       		.uleb128 0x19
 2930 014c 3C       		.uleb128 0x3c
 2931 014d 19       		.uleb128 0x19
 2932 014e 00       		.byte	0
 2933 014f 00       		.byte	0
 2934 0150 1D       		.uleb128 0x1d
 2935 0151 34       		.uleb128 0x34
 2936 0152 00       		.byte	0
 2937 0153 03       		.uleb128 0x3
 2938 0154 0E       		.uleb128 0xe
 2939 0155 3A       		.uleb128 0x3a
 2940 0156 0B       		.uleb128 0xb
 2941 0157 3B       		.uleb128 0x3b
 2942 0158 0B       		.uleb128 0xb
 2943 0159 49       		.uleb128 0x49
 2944 015a 13       		.uleb128 0x13
 2945 015b 3F       		.uleb128 0x3f
 2946 015c 19       		.uleb128 0x19
 2947 015d 3C       		.uleb128 0x3c
 2948 015e 19       		.uleb128 0x19
 2949 015f 00       		.byte	0
 2950 0160 00       		.byte	0
 2951 0161 1E       		.uleb128 0x1e
 2952 0162 16       		.uleb128 0x16
 2953 0163 00       		.byte	0
 2954 0164 03       		.uleb128 0x3
 2955 0165 0E       		.uleb128 0xe
 2956 0166 3A       		.uleb128 0x3a
 2957 0167 0B       		.uleb128 0xb
 2958 0168 3B       		.uleb128 0x3b
 2959 0169 05       		.uleb128 0x5
 2960 016a 49       		.uleb128 0x49
ARM GAS  /var/folders/t8/16hdwfmd2fg_d3q6dgx6bpmw0000gn/T//cciK6y6j.s 			page 53


 2961 016b 13       		.uleb128 0x13
 2962 016c 00       		.byte	0
 2963 016d 00       		.byte	0
 2964 016e 1F       		.uleb128 0x1f
 2965 016f 04       		.uleb128 0x4
 2966 0170 01       		.byte	0x1
 2967 0171 3E       		.uleb128 0x3e
 2968 0172 0B       		.uleb128 0xb
 2969 0173 0B       		.uleb128 0xb
 2970 0174 0B       		.uleb128 0xb
 2971 0175 49       		.uleb128 0x49
 2972 0176 13       		.uleb128 0x13
 2973 0177 3A       		.uleb128 0x3a
 2974 0178 0B       		.uleb128 0xb
 2975 0179 3B       		.uleb128 0x3b
 2976 017a 05       		.uleb128 0x5
 2977 017b 01       		.uleb128 0x1
 2978 017c 13       		.uleb128 0x13
 2979 017d 00       		.byte	0
 2980 017e 00       		.byte	0
 2981 017f 20       		.uleb128 0x20
 2982 0180 28       		.uleb128 0x28
 2983 0181 00       		.byte	0
 2984 0182 03       		.uleb128 0x3
 2985 0183 0E       		.uleb128 0xe
 2986 0184 1C       		.uleb128 0x1c
 2987 0185 0B       		.uleb128 0xb
 2988 0186 00       		.byte	0
 2989 0187 00       		.byte	0
 2990 0188 21       		.uleb128 0x21
 2991 0189 13       		.uleb128 0x13
 2992 018a 01       		.byte	0x1
 2993 018b 0B       		.uleb128 0xb
 2994 018c 0B       		.uleb128 0xb
 2995 018d 3A       		.uleb128 0x3a
 2996 018e 0B       		.uleb128 0xb
 2997 018f 3B       		.uleb128 0x3b
 2998 0190 05       		.uleb128 0x5
 2999 0191 01       		.uleb128 0x1
 3000 0192 13       		.uleb128 0x13
 3001 0193 00       		.byte	0
 3002 0194 00       		.byte	0
 3003 0195 22       		.uleb128 0x22
 3004 0196 15       		.uleb128 0x15
 3005 0197 01       		.byte	0x1
 3006 0198 27       		.uleb128 0x27
 3007 0199 19       		.uleb128 0x19
 3008 019a 49       		.uleb128 0x49
 3009 019b 13       		.uleb128 0x13
 3010 019c 01       		.uleb128 0x1
 3011 019d 13       		.uleb128 0x13
 3012 019e 00       		.byte	0
 3013 019f 00       		.byte	0
 3014 01a0 23       		.uleb128 0x23
 3015 01a1 2E       		.uleb128 0x2e
 3016 01a2 01       		.byte	0x1
 3017 01a3 3F       		.uleb128 0x3f
ARM GAS  /var/folders/t8/16hdwfmd2fg_d3q6dgx6bpmw0000gn/T//cciK6y6j.s 			page 54


 3018 01a4 19       		.uleb128 0x19
 3019 01a5 03       		.uleb128 0x3
 3020 01a6 0E       		.uleb128 0xe
 3021 01a7 3A       		.uleb128 0x3a
 3022 01a8 0B       		.uleb128 0xb
 3023 01a9 3B       		.uleb128 0x3b
 3024 01aa 0B       		.uleb128 0xb
 3025 01ab 27       		.uleb128 0x27
 3026 01ac 19       		.uleb128 0x19
 3027 01ad 11       		.uleb128 0x11
 3028 01ae 01       		.uleb128 0x1
 3029 01af 12       		.uleb128 0x12
 3030 01b0 06       		.uleb128 0x6
 3031 01b1 40       		.uleb128 0x40
 3032 01b2 18       		.uleb128 0x18
 3033 01b3 9742     		.uleb128 0x2117
 3034 01b5 19       		.uleb128 0x19
 3035 01b6 01       		.uleb128 0x1
 3036 01b7 13       		.uleb128 0x13
 3037 01b8 00       		.byte	0
 3038 01b9 00       		.byte	0
 3039 01ba 24       		.uleb128 0x24
 3040 01bb 05       		.uleb128 0x5
 3041 01bc 00       		.byte	0
 3042 01bd 03       		.uleb128 0x3
 3043 01be 0E       		.uleb128 0xe
 3044 01bf 3A       		.uleb128 0x3a
 3045 01c0 0B       		.uleb128 0xb
 3046 01c1 3B       		.uleb128 0x3b
 3047 01c2 0B       		.uleb128 0xb
 3048 01c3 49       		.uleb128 0x49
 3049 01c4 13       		.uleb128 0x13
 3050 01c5 02       		.uleb128 0x2
 3051 01c6 17       		.uleb128 0x17
 3052 01c7 00       		.byte	0
 3053 01c8 00       		.byte	0
 3054 01c9 25       		.uleb128 0x25
 3055 01ca 34       		.uleb128 0x34
 3056 01cb 00       		.byte	0
 3057 01cc 03       		.uleb128 0x3
 3058 01cd 08       		.uleb128 0x8
 3059 01ce 3A       		.uleb128 0x3a
 3060 01cf 0B       		.uleb128 0xb
 3061 01d0 3B       		.uleb128 0x3b
 3062 01d1 0B       		.uleb128 0xb
 3063 01d2 49       		.uleb128 0x49
 3064 01d3 13       		.uleb128 0x13
 3065 01d4 02       		.uleb128 0x2
 3066 01d5 17       		.uleb128 0x17
 3067 01d6 00       		.byte	0
 3068 01d7 00       		.byte	0
 3069 01d8 26       		.uleb128 0x26
 3070 01d9 898201   		.uleb128 0x4109
 3071 01dc 01       		.byte	0x1
 3072 01dd 11       		.uleb128 0x11
 3073 01de 01       		.uleb128 0x1
 3074 01df 31       		.uleb128 0x31
ARM GAS  /var/folders/t8/16hdwfmd2fg_d3q6dgx6bpmw0000gn/T//cciK6y6j.s 			page 55


 3075 01e0 13       		.uleb128 0x13
 3076 01e1 00       		.byte	0
 3077 01e2 00       		.byte	0
 3078 01e3 27       		.uleb128 0x27
 3079 01e4 8A8201   		.uleb128 0x410a
 3080 01e7 00       		.byte	0
 3081 01e8 02       		.uleb128 0x2
 3082 01e9 18       		.uleb128 0x18
 3083 01ea 9142     		.uleb128 0x2111
 3084 01ec 18       		.uleb128 0x18
 3085 01ed 00       		.byte	0
 3086 01ee 00       		.byte	0
 3087 01ef 28       		.uleb128 0x28
 3088 01f0 898201   		.uleb128 0x4109
 3089 01f3 00       		.byte	0
 3090 01f4 11       		.uleb128 0x11
 3091 01f5 01       		.uleb128 0x1
 3092 01f6 31       		.uleb128 0x31
 3093 01f7 13       		.uleb128 0x13
 3094 01f8 00       		.byte	0
 3095 01f9 00       		.byte	0
 3096 01fa 29       		.uleb128 0x29
 3097 01fb 05       		.uleb128 0x5
 3098 01fc 00       		.byte	0
 3099 01fd 03       		.uleb128 0x3
 3100 01fe 08       		.uleb128 0x8
 3101 01ff 3A       		.uleb128 0x3a
 3102 0200 0B       		.uleb128 0xb
 3103 0201 3B       		.uleb128 0x3b
 3104 0202 0B       		.uleb128 0xb
 3105 0203 49       		.uleb128 0x49
 3106 0204 13       		.uleb128 0x13
 3107 0205 02       		.uleb128 0x2
 3108 0206 17       		.uleb128 0x17
 3109 0207 00       		.byte	0
 3110 0208 00       		.byte	0
 3111 0209 2A       		.uleb128 0x2a
 3112 020a 34       		.uleb128 0x34
 3113 020b 00       		.byte	0
 3114 020c 03       		.uleb128 0x3
 3115 020d 0E       		.uleb128 0xe
 3116 020e 3A       		.uleb128 0x3a
 3117 020f 0B       		.uleb128 0xb
 3118 0210 3B       		.uleb128 0x3b
 3119 0211 0B       		.uleb128 0xb
 3120 0212 49       		.uleb128 0x49
 3121 0213 13       		.uleb128 0x13
 3122 0214 1C       		.uleb128 0x1c
 3123 0215 0B       		.uleb128 0xb
 3124 0216 00       		.byte	0
 3125 0217 00       		.byte	0
 3126 0218 2B       		.uleb128 0x2b
 3127 0219 34       		.uleb128 0x34
 3128 021a 00       		.byte	0
 3129 021b 03       		.uleb128 0x3
 3130 021c 0E       		.uleb128 0xe
 3131 021d 49       		.uleb128 0x49
ARM GAS  /var/folders/t8/16hdwfmd2fg_d3q6dgx6bpmw0000gn/T//cciK6y6j.s 			page 56


 3132 021e 13       		.uleb128 0x13
 3133 021f 34       		.uleb128 0x34
 3134 0220 19       		.uleb128 0x19
 3135 0221 02       		.uleb128 0x2
 3136 0222 18       		.uleb128 0x18
 3137 0223 00       		.byte	0
 3138 0224 00       		.byte	0
 3139 0225 2C       		.uleb128 0x2c
 3140 0226 898201   		.uleb128 0x4109
 3141 0229 01       		.byte	0x1
 3142 022a 11       		.uleb128 0x11
 3143 022b 01       		.uleb128 0x1
 3144 022c 31       		.uleb128 0x31
 3145 022d 13       		.uleb128 0x13
 3146 022e 01       		.uleb128 0x1
 3147 022f 13       		.uleb128 0x13
 3148 0230 00       		.byte	0
 3149 0231 00       		.byte	0
 3150 0232 2D       		.uleb128 0x2d
 3151 0233 05       		.uleb128 0x5
 3152 0234 00       		.byte	0
 3153 0235 03       		.uleb128 0x3
 3154 0236 0E       		.uleb128 0xe
 3155 0237 3A       		.uleb128 0x3a
 3156 0238 0B       		.uleb128 0xb
 3157 0239 3B       		.uleb128 0x3b
 3158 023a 0B       		.uleb128 0xb
 3159 023b 49       		.uleb128 0x49
 3160 023c 13       		.uleb128 0x13
 3161 023d 02       		.uleb128 0x2
 3162 023e 18       		.uleb128 0x18
 3163 023f 00       		.byte	0
 3164 0240 00       		.byte	0
 3165 0241 2E       		.uleb128 0x2e
 3166 0242 05       		.uleb128 0x5
 3167 0243 00       		.byte	0
 3168 0244 03       		.uleb128 0x3
 3169 0245 08       		.uleb128 0x8
 3170 0246 3A       		.uleb128 0x3a
 3171 0247 0B       		.uleb128 0xb
 3172 0248 3B       		.uleb128 0x3b
 3173 0249 0B       		.uleb128 0xb
 3174 024a 49       		.uleb128 0x49
 3175 024b 13       		.uleb128 0x13
 3176 024c 02       		.uleb128 0x2
 3177 024d 18       		.uleb128 0x18
 3178 024e 00       		.byte	0
 3179 024f 00       		.byte	0
 3180 0250 2F       		.uleb128 0x2f
 3181 0251 2E       		.uleb128 0x2e
 3182 0252 01       		.byte	0x1
 3183 0253 3F       		.uleb128 0x3f
 3184 0254 19       		.uleb128 0x19
 3185 0255 03       		.uleb128 0x3
 3186 0256 0E       		.uleb128 0xe
 3187 0257 3A       		.uleb128 0x3a
 3188 0258 0B       		.uleb128 0xb
ARM GAS  /var/folders/t8/16hdwfmd2fg_d3q6dgx6bpmw0000gn/T//cciK6y6j.s 			page 57


 3189 0259 3B       		.uleb128 0x3b
 3190 025a 0B       		.uleb128 0xb
 3191 025b 27       		.uleb128 0x27
 3192 025c 19       		.uleb128 0x19
 3193 025d 49       		.uleb128 0x49
 3194 025e 13       		.uleb128 0x13
 3195 025f 11       		.uleb128 0x11
 3196 0260 01       		.uleb128 0x1
 3197 0261 12       		.uleb128 0x12
 3198 0262 06       		.uleb128 0x6
 3199 0263 40       		.uleb128 0x40
 3200 0264 18       		.uleb128 0x18
 3201 0265 9742     		.uleb128 0x2117
 3202 0267 19       		.uleb128 0x19
 3203 0268 01       		.uleb128 0x1
 3204 0269 13       		.uleb128 0x13
 3205 026a 00       		.byte	0
 3206 026b 00       		.byte	0
 3207 026c 30       		.uleb128 0x30
 3208 026d 2E       		.uleb128 0x2e
 3209 026e 00       		.byte	0
 3210 026f 3F       		.uleb128 0x3f
 3211 0270 19       		.uleb128 0x19
 3212 0271 3C       		.uleb128 0x3c
 3213 0272 19       		.uleb128 0x19
 3214 0273 6E       		.uleb128 0x6e
 3215 0274 0E       		.uleb128 0xe
 3216 0275 03       		.uleb128 0x3
 3217 0276 0E       		.uleb128 0xe
 3218 0277 3A       		.uleb128 0x3a
 3219 0278 0B       		.uleb128 0xb
 3220 0279 3B       		.uleb128 0x3b
 3221 027a 05       		.uleb128 0x5
 3222 027b 00       		.byte	0
 3223 027c 00       		.byte	0
 3224 027d 00       		.byte	0
 3225              		.section	.debug_loc,"",%progbits
 3226              	.Ldebug_loc0:
 3227              	.LLST8:
 3228 0000 00000000 		.4byte	.LVL26
 3229 0004 08000000 		.4byte	.LVL27
 3230 0008 0100     		.2byte	0x1
 3231 000a 50       		.byte	0x50
 3232 000b 08000000 		.4byte	.LVL27
 3233 000f 18000000 		.4byte	.LVL32
 3234 0013 0100     		.2byte	0x1
 3235 0015 56       		.byte	0x56
 3236 0016 18000000 		.4byte	.LVL32
 3237 001a 1A000000 		.4byte	.LFE178
 3238 001e 0400     		.2byte	0x4
 3239 0020 F3       		.byte	0xf3
 3240 0021 01       		.uleb128 0x1
 3241 0022 50       		.byte	0x50
 3242 0023 9F       		.byte	0x9f
 3243 0024 00000000 		.4byte	0
 3244 0028 00000000 		.4byte	0
 3245              	.LLST9:
ARM GAS  /var/folders/t8/16hdwfmd2fg_d3q6dgx6bpmw0000gn/T//cciK6y6j.s 			page 58


 3246 002c 00000000 		.4byte	.LVL26
 3247 0030 08000000 		.4byte	.LVL27
 3248 0034 0100     		.2byte	0x1
 3249 0036 51       		.byte	0x51
 3250 0037 08000000 		.4byte	.LVL27
 3251 003b 1A000000 		.4byte	.LFE178
 3252 003f 0400     		.2byte	0x4
 3253 0041 F3       		.byte	0xf3
 3254 0042 01       		.uleb128 0x1
 3255 0043 51       		.byte	0x51
 3256 0044 9F       		.byte	0x9f
 3257 0045 00000000 		.4byte	0
 3258 0049 00000000 		.4byte	0
 3259              	.LLST10:
 3260 004d 00000000 		.4byte	.LVL26
 3261 0051 08000000 		.4byte	.LVL27
 3262 0055 0100     		.2byte	0x1
 3263 0057 52       		.byte	0x52
 3264 0058 08000000 		.4byte	.LVL27
 3265 005c 18000000 		.4byte	.LVL31
 3266 0060 0100     		.2byte	0x1
 3267 0062 55       		.byte	0x55
 3268 0063 18000000 		.4byte	.LVL31
 3269 0067 1A000000 		.4byte	.LFE178
 3270 006b 0400     		.2byte	0x4
 3271 006d F3       		.byte	0xf3
 3272 006e 01       		.uleb128 0x1
 3273 006f 52       		.byte	0x52
 3274 0070 9F       		.byte	0x9f
 3275 0071 00000000 		.4byte	0
 3276 0075 00000000 		.4byte	0
 3277              	.LLST11:
 3278 0079 00000000 		.4byte	.LVL26
 3279 007d 08000000 		.4byte	.LVL27
 3280 0081 0200     		.2byte	0x2
 3281 0083 30       		.byte	0x30
 3282 0084 9F       		.byte	0x9f
 3283 0085 08000000 		.4byte	.LVL27
 3284 0089 10000000 		.4byte	.LVL28
 3285 008d 0100     		.2byte	0x1
 3286 008f 54       		.byte	0x54
 3287 0090 10000000 		.4byte	.LVL28
 3288 0094 14000000 		.4byte	.LVL29
 3289 0098 0300     		.2byte	0x3
 3290 009a 74       		.byte	0x74
 3291 009b 7F       		.sleb128 -1
 3292 009c 9F       		.byte	0x9f
 3293 009d 14000000 		.4byte	.LVL29
 3294 00a1 18000000 		.4byte	.LVL30
 3295 00a5 0100     		.2byte	0x1
 3296 00a7 54       		.byte	0x54
 3297 00a8 00000000 		.4byte	0
 3298 00ac 00000000 		.4byte	0
 3299              	.LLST5:
 3300 00b0 00000000 		.4byte	.LVL18
 3301 00b4 18000000 		.4byte	.LVL20
 3302 00b8 0100     		.2byte	0x1
ARM GAS  /var/folders/t8/16hdwfmd2fg_d3q6dgx6bpmw0000gn/T//cciK6y6j.s 			page 59


 3303 00ba 50       		.byte	0x50
 3304 00bb 18000000 		.4byte	.LVL20
 3305 00bf 32000000 		.4byte	.LVL25
 3306 00c3 0400     		.2byte	0x4
 3307 00c5 77       		.byte	0x77
 3308 00c6 EC7A     		.sleb128 -660
 3309 00c8 9F       		.byte	0x9f
 3310 00c9 32000000 		.4byte	.LVL25
 3311 00cd 3C000000 		.4byte	.LFE177
 3312 00d1 0400     		.2byte	0x4
 3313 00d3 F3       		.byte	0xf3
 3314 00d4 01       		.uleb128 0x1
 3315 00d5 50       		.byte	0x50
 3316 00d6 9F       		.byte	0x9f
 3317 00d7 00000000 		.4byte	0
 3318 00db 00000000 		.4byte	0
 3319              	.LLST6:
 3320 00df 12000000 		.4byte	.LVL19
 3321 00e3 18000000 		.4byte	.LVL20
 3322 00e7 0200     		.2byte	0x2
 3323 00e9 30       		.byte	0x30
 3324 00ea 9F       		.byte	0x9f
 3325 00eb 00000000 		.4byte	0
 3326 00ef 00000000 		.4byte	0
 3327              	.LLST7:
 3328 00f3 18000000 		.4byte	.LVL20
 3329 00f7 1C000000 		.4byte	.LVL21
 3330 00fb 0200     		.2byte	0x2
 3331 00fd 30       		.byte	0x30
 3332 00fe 9F       		.byte	0x9f
 3333 00ff 1C000000 		.4byte	.LVL21
 3334 0103 24000000 		.4byte	.LVL22
 3335 0107 0100     		.2byte	0x1
 3336 0109 54       		.byte	0x54
 3337 010a 24000000 		.4byte	.LVL22
 3338 010e 28000000 		.4byte	.LVL23
 3339 0112 0300     		.2byte	0x3
 3340 0114 74       		.byte	0x74
 3341 0115 7F       		.sleb128 -1
 3342 0116 9F       		.byte	0x9f
 3343 0117 28000000 		.4byte	.LVL23
 3344 011b 32000000 		.4byte	.LVL24
 3345 011f 0100     		.2byte	0x1
 3346 0121 54       		.byte	0x54
 3347 0122 00000000 		.4byte	0
 3348 0126 00000000 		.4byte	0
 3349              	.LLST2:
 3350 012a 00000000 		.4byte	.LVL6
 3351 012e 0C000000 		.4byte	.LVL7
 3352 0132 0100     		.2byte	0x1
 3353 0134 50       		.byte	0x50
 3354 0135 0C000000 		.4byte	.LVL7
 3355 0139 58000000 		.4byte	.LVL10
 3356 013d 0100     		.2byte	0x1
 3357 013f 54       		.byte	0x54
 3358 0140 58000000 		.4byte	.LVL10
 3359 0144 5A000000 		.4byte	.LVL11
ARM GAS  /var/folders/t8/16hdwfmd2fg_d3q6dgx6bpmw0000gn/T//cciK6y6j.s 			page 60


 3360 0148 0400     		.2byte	0x4
 3361 014a F3       		.byte	0xf3
 3362 014b 01       		.uleb128 0x1
 3363 014c 50       		.byte	0x50
 3364 014d 9F       		.byte	0x9f
 3365 014e 5A000000 		.4byte	.LVL11
 3366 0152 76000000 		.4byte	.LVL13
 3367 0156 0100     		.2byte	0x1
 3368 0158 54       		.byte	0x54
 3369 0159 76000000 		.4byte	.LVL13
 3370 015d 78000000 		.4byte	.LVL14
 3371 0161 0100     		.2byte	0x1
 3372 0163 50       		.byte	0x50
 3373 0164 78000000 		.4byte	.LVL14
 3374 0168 10010000 		.4byte	.LFE176
 3375 016c 0100     		.2byte	0x1
 3376 016e 54       		.byte	0x54
 3377 016f 00000000 		.4byte	0
 3378 0173 00000000 		.4byte	0
 3379              	.LLST3:
 3380 0177 00000000 		.4byte	.LVL6
 3381 017b 0C000000 		.4byte	.LVL7
 3382 017f 0100     		.2byte	0x1
 3383 0181 51       		.byte	0x51
 3384 0182 0C000000 		.4byte	.LVL7
 3385 0186 76000000 		.4byte	.LVL13
 3386 018a 0400     		.2byte	0x4
 3387 018c F3       		.byte	0xf3
 3388 018d 01       		.uleb128 0x1
 3389 018e 51       		.byte	0x51
 3390 018f 9F       		.byte	0x9f
 3391 0190 76000000 		.4byte	.LVL13
 3392 0194 7B000000 		.4byte	.LVL15-1
 3393 0198 0100     		.2byte	0x1
 3394 019a 51       		.byte	0x51
 3395 019b 7B000000 		.4byte	.LVL15-1
 3396 019f 10010000 		.4byte	.LFE176
 3397 01a3 0400     		.2byte	0x4
 3398 01a5 F3       		.byte	0xf3
 3399 01a6 01       		.uleb128 0x1
 3400 01a7 51       		.byte	0x51
 3401 01a8 9F       		.byte	0x9f
 3402 01a9 00000000 		.4byte	0
 3403 01ad 00000000 		.4byte	0
 3404              	.LLST4:
 3405 01b1 00000000 		.4byte	.LVL6
 3406 01b5 0C000000 		.4byte	.LVL7
 3407 01b9 0100     		.2byte	0x1
 3408 01bb 52       		.byte	0x52
 3409 01bc 0C000000 		.4byte	.LVL7
 3410 01c0 4C000000 		.4byte	.LVL9
 3411 01c4 0100     		.2byte	0x1
 3412 01c6 56       		.byte	0x56
 3413 01c7 4C000000 		.4byte	.LVL9
 3414 01cb 5A000000 		.4byte	.LVL11
 3415 01cf 0400     		.2byte	0x4
 3416 01d1 F3       		.byte	0xf3
ARM GAS  /var/folders/t8/16hdwfmd2fg_d3q6dgx6bpmw0000gn/T//cciK6y6j.s 			page 61


 3417 01d2 01       		.uleb128 0x1
 3418 01d3 52       		.byte	0x52
 3419 01d4 9F       		.byte	0x9f
 3420 01d5 5A000000 		.4byte	.LVL11
 3421 01d9 6C000000 		.4byte	.LVL12
 3422 01dd 0100     		.2byte	0x1
 3423 01df 56       		.byte	0x56
 3424 01e0 6C000000 		.4byte	.LVL12
 3425 01e4 76000000 		.4byte	.LVL13
 3426 01e8 0400     		.2byte	0x4
 3427 01ea F3       		.byte	0xf3
 3428 01eb 01       		.uleb128 0x1
 3429 01ec 52       		.byte	0x52
 3430 01ed 9F       		.byte	0x9f
 3431 01ee 76000000 		.4byte	.LVL13
 3432 01f2 7B000000 		.4byte	.LVL15-1
 3433 01f6 0100     		.2byte	0x1
 3434 01f8 52       		.byte	0x52
 3435 01f9 7B000000 		.4byte	.LVL15-1
 3436 01fd 86000000 		.4byte	.LVL16
 3437 0201 0100     		.2byte	0x1
 3438 0203 56       		.byte	0x56
 3439 0204 86000000 		.4byte	.LVL16
 3440 0208 D4000000 		.4byte	.LVL17
 3441 020c 0400     		.2byte	0x4
 3442 020e F3       		.byte	0xf3
 3443 020f 01       		.uleb128 0x1
 3444 0210 52       		.byte	0x52
 3445 0211 9F       		.byte	0x9f
 3446 0212 D4000000 		.4byte	.LVL17
 3447 0216 10010000 		.4byte	.LFE176
 3448 021a 0100     		.2byte	0x1
 3449 021c 56       		.byte	0x56
 3450 021d 00000000 		.4byte	0
 3451 0221 00000000 		.4byte	0
 3452              	.LLST1:
 3453 0225 00000000 		.4byte	.LVL2
 3454 0229 0A000000 		.4byte	.LVL3
 3455 022d 0100     		.2byte	0x1
 3456 022f 52       		.byte	0x52
 3457 0230 0A000000 		.4byte	.LVL3
 3458 0234 10000000 		.4byte	.LVL4
 3459 0238 0400     		.2byte	0x4
 3460 023a F3       		.byte	0xf3
 3461 023b 01       		.uleb128 0x1
 3462 023c 52       		.byte	0x52
 3463 023d 9F       		.byte	0x9f
 3464 023e 10000000 		.4byte	.LVL4
 3465 0242 12000000 		.4byte	.LVL5
 3466 0246 0100     		.2byte	0x1
 3467 0248 52       		.byte	0x52
 3468 0249 12000000 		.4byte	.LVL5
 3469 024d 18000000 		.4byte	.LFE175
 3470 0251 0400     		.2byte	0x4
 3471 0253 F3       		.byte	0xf3
 3472 0254 01       		.uleb128 0x1
 3473 0255 52       		.byte	0x52
ARM GAS  /var/folders/t8/16hdwfmd2fg_d3q6dgx6bpmw0000gn/T//cciK6y6j.s 			page 62


 3474 0256 9F       		.byte	0x9f
 3475 0257 00000000 		.4byte	0
 3476 025b 00000000 		.4byte	0
 3477              	.LLST0:
 3478 025f 00000000 		.4byte	.LVL0
 3479 0263 04000000 		.4byte	.LVL1
 3480 0267 0100     		.2byte	0x1
 3481 0269 50       		.byte	0x50
 3482 026a 04000000 		.4byte	.LVL1
 3483 026e 0A000000 		.4byte	.LFE174
 3484 0272 0400     		.2byte	0x4
 3485 0274 F3       		.byte	0xf3
 3486 0275 01       		.uleb128 0x1
 3487 0276 50       		.byte	0x50
 3488 0277 9F       		.byte	0x9f
 3489 0278 00000000 		.4byte	0
 3490 027c 00000000 		.4byte	0
 3491              		.section	.debug_aranges,"",%progbits
 3492 0000 3C000000 		.4byte	0x3c
 3493 0004 0200     		.2byte	0x2
 3494 0006 00000000 		.4byte	.Ldebug_info0
 3495 000a 04       		.byte	0x4
 3496 000b 00       		.byte	0
 3497 000c 0000     		.2byte	0
 3498 000e 0000     		.2byte	0
 3499 0010 00000000 		.4byte	.LFB174
 3500 0014 0A000000 		.4byte	.LFE174-.LFB174
 3501 0018 00000000 		.4byte	.LFB175
 3502 001c 18000000 		.4byte	.LFE175-.LFB175
 3503 0020 00000000 		.4byte	.LFB176
 3504 0024 10010000 		.4byte	.LFE176-.LFB176
 3505 0028 00000000 		.4byte	.LFB177
 3506 002c 3C000000 		.4byte	.LFE177-.LFB177
 3507 0030 00000000 		.4byte	.LFB178
 3508 0034 1A000000 		.4byte	.LFE178-.LFB178
 3509 0038 00000000 		.4byte	0
 3510 003c 00000000 		.4byte	0
 3511              		.section	.debug_ranges,"",%progbits
 3512              	.Ldebug_ranges0:
 3513 0000 00000000 		.4byte	.LFB174
 3514 0004 0A000000 		.4byte	.LFE174
 3515 0008 00000000 		.4byte	.LFB175
 3516 000c 18000000 		.4byte	.LFE175
 3517 0010 00000000 		.4byte	.LFB176
 3518 0014 10010000 		.4byte	.LFE176
 3519 0018 00000000 		.4byte	.LFB177
 3520 001c 3C000000 		.4byte	.LFE177
 3521 0020 00000000 		.4byte	.LFB178
 3522 0024 1A000000 		.4byte	.LFE178
 3523 0028 00000000 		.4byte	0
 3524 002c 00000000 		.4byte	0
 3525              		.section	.debug_line,"",%progbits
 3526              	.Ldebug_line0:
 3527 0000 B7040000 		.section	.debug_str,"MS",%progbits,1
 3527      0200D803 
 3527      00000201 
 3527      FB0E0D00 
ARM GAS  /var/folders/t8/16hdwfmd2fg_d3q6dgx6bpmw0000gn/T//cciK6y6j.s 			page 63


 3527      01010101 
 3528              	.LASF139:
 3529 0000 6F66665F 		.ascii	"off_ctx\000"
 3529      63747800 
 3530              	.LASF2:
 3531 0008 73697A65 		.ascii	"size_t\000"
 3531      5F7400
 3532              	.LASF138:
 3533 000f 6F66665F 		.ascii	"off_prio\000"
 3533      7072696F 
 3533      00
 3534              	.LASF103:
 3535 0018 4750434C 		.ascii	"GPCLR\000"
 3535      5200
 3536              	.LASF28:
 3537 001e 73797374 		.ascii	"systime_t\000"
 3537      696D655F 
 3537      7400
 3538              	.LASF147:
 3539 0028 6F66665F 		.ascii	"off_preempt\000"
 3539      70726565 
 3539      6D707400 
 3540              	.LASF128:
 3541 0034 6F776E65 		.ascii	"owner\000"
 3541      7200
 3542              	.LASF24:
 3543 003a 74707269 		.ascii	"tprio_t\000"
 3543      6F5F7400 
 3544              	.LASF93:
 3545 0042 46434647 		.ascii	"FCFG1\000"
 3545      3100
 3546              	.LASF94:
 3547 0048 46434647 		.ascii	"FCFG2\000"
 3547      3200
 3548              	.LASF110:
 3549 004e 50544F52 		.ascii	"PTOR\000"
 3549      00
 3550              	.LASF17:
 3551 0053 696E7433 		.ascii	"int32_t\000"
 3551      325F7400 
 3552              	.LASF150:
 3553 005b 63685F64 		.ascii	"ch_debug\000"
 3553      65627567 
 3553      00
 3554              	.LASF57:
 3555 0064 76746675 		.ascii	"vtfunc_t\000"
 3555      6E635F74 
 3555      00
 3556              	.LASF63:
 3557 006d 63685F76 		.ascii	"ch_virtual_timers_list\000"
 3557      69727475 
 3557      616C5F74 
 3557      696D6572 
 3557      735F6C69 
 3558              	.LASF101:
 3559 0084 53525643 		.ascii	"SRVCOP\000"
 3559      4F5000
ARM GAS  /var/folders/t8/16hdwfmd2fg_d3q6dgx6bpmw0000gn/T//cciK6y6j.s 			page 64


 3560              	.LASF249:
 3561 008b 5F5F6675 		.ascii	"__func__\000"
 3561      6E635F5F 
 3561      00
 3562              	.LASF187:
 3563 0094 5553425F 		.ascii	"USB_EP0_TX\000"
 3563      4550305F 
 3563      545800
 3564              	.LASF163:
 3565 009f 636F6E66 		.ascii	"config\000"
 3565      696700
 3566              	.LASF36:
 3567 00a6 73746174 		.ascii	"state\000"
 3567      6500
 3568              	.LASF222:
 3569 00ac 65705F6D 		.ascii	"ep_mode\000"
 3569      6F646500 
 3570              	.LASF69:
 3571 00b4 6C6F636B 		.ascii	"lock_cnt\000"
 3571      5F636E74 
 3571      00
 3572              	.LASF87:
 3573 00bd 53434743 		.ascii	"SCGC4\000"
 3573      3400
 3574              	.LASF88:
 3575 00c3 53434743 		.ascii	"SCGC5\000"
 3575      3500
 3576              	.LASF89:
 3577 00c9 53434743 		.ascii	"SCGC6\000"
 3577      3600
 3578              	.LASF90:
 3579 00cf 53434743 		.ascii	"SCGC7\000"
 3579      3700
 3580              	.LASF183:
 3581 00d5 5553425F 		.ascii	"USB_ACTIVE\000"
 3581      41435449 
 3581      564500
 3582              	.LASF141:
 3583 00e0 6F66665F 		.ascii	"off_older\000"
 3583      6F6C6465 
 3583      7200
 3584              	.LASF31:
 3585 00ea 7072696F 		.ascii	"prio\000"
 3585      00
 3586              	.LASF154:
 3587 00ef 696F6D6F 		.ascii	"iomode_t\000"
 3587      64655F74 
 3587      00
 3588              	.LASF241:
 3589 00f8 5F70616C 		.ascii	"_pal_lld_setgroupmode\000"
 3589      5F6C6C64 
 3589      5F736574 
 3589      67726F75 
 3589      706D6F64 
 3590              	.LASF85:
 3591 010e 53444944 		.ascii	"SDID\000"
 3591      00
ARM GAS  /var/folders/t8/16hdwfmd2fg_d3q6dgx6bpmw0000gn/T//cciK6y6j.s 			page 65


 3592              	.LASF119:
 3593 0113 65786974 		.ascii	"exitcode\000"
 3593      636F6465 
 3593      00
 3594              	.LASF193:
 3595 011c 75736265 		.ascii	"usbep0state_t\000"
 3595      70307374 
 3595      6174655F 
 3595      7400
 3596              	.LASF3:
 3597 012a 5F5F7569 		.ascii	"__uint8_t\000"
 3597      6E74385F 
 3597      7400
 3598              	.LASF159:
 3599 0134 706F7274 		.ascii	"ports\000"
 3599      7300
 3600              	.LASF64:
 3601 013a 73797374 		.ascii	"systime\000"
 3601      696D6500 
 3602              	.LASF195:
 3603 0142 5553425F 		.ascii	"USB_EVENT_ADDRESS\000"
 3603      4556454E 
 3603      545F4144 
 3603      44524553 
 3603      5300
 3604              	.LASF9:
 3605 0154 6C6F6E67 		.ascii	"long int\000"
 3605      20696E74 
 3605      00
 3606              	.LASF211:
 3607 015d 7478636E 		.ascii	"txcnt\000"
 3607      7400
 3608              	.LASF132:
 3609 0163 7A65726F 		.ascii	"zero\000"
 3609      00
 3610              	.LASF155:
 3611 0168 696F706F 		.ascii	"ioportid_t\000"
 3611      72746964 
 3611      5F7400
 3612              	.LASF21:
 3613 0173 74737461 		.ascii	"tstate_t\000"
 3613      74655F74 
 3613      00
 3614              	.LASF42:
 3615 017c 6570656E 		.ascii	"epending\000"
 3615      64696E67 
 3615      00
 3616              	.LASF246:
 3617 0185 474E5520 		.ascii	"GNU C99 7.2.1 20170904 (release) [ARM/embedded-7-br"
 3617      43393920 
 3617      372E322E 
 3617      31203230 
 3617      31373039 
 3618 01b8 616E6368 		.ascii	"anch revision 255204] -mcpu=cortex-m0plus -mno-thum"
 3618      20726576 
 3618      6973696F 
 3618      6E203235 
ARM GAS  /var/folders/t8/16hdwfmd2fg_d3q6dgx6bpmw0000gn/T//cciK6y6j.s 			page 66


 3618      35323034 
 3619 01eb 622D696E 		.ascii	"b-interwork -mthumb -ggdb -O2 -std=gnu99 -fomit-fra"
 3619      74657277 
 3619      6F726B20 
 3619      2D6D7468 
 3619      756D6220 
 3620 021e 6D652D70 		.ascii	"me-pointer -falign-functions=16 -ffunction-sections"
 3620      6F696E74 
 3620      6572202D 
 3620      66616C69 
 3620      676E2D66 
 3621 0251 202D6664 		.ascii	" -fdata-sections -fno-common\000"
 3621      6174612D 
 3621      73656374 
 3621      696F6E73 
 3621      202D666E 
 3622              	.LASF51:
 3623 026e 74687265 		.ascii	"threads_queue_t\000"
 3623      6164735F 
 3623      71756575 
 3623      655F7400 
 3624              	.LASF212:
 3625 027e 74786275 		.ascii	"txbuf\000"
 3625      6600
 3626              	.LASF114:
 3627 0284 72656761 		.ascii	"regarm_t\000"
 3627      726D5F74 
 3627      00
 3628              	.LASF248:
 3629 028d 2F557365 		.ascii	"/Users/jpablobr/tmp/tmk/di0ib-tmk_keyboard/keyboard"
 3629      72732F6A 
 3629      7061626C 
 3629      6F62722F 
 3629      746D702F 
 3630 02c0 2F746565 		.ascii	"/teensy_lc_menelaus\000"
 3630      6E73795F 
 3630      6C635F6D 
 3630      656E656C 
 3630      61757300 
 3631              	.LASF186:
 3632 02d4 5553425F 		.ascii	"USB_EP0_WAITING_SETUP\000"
 3632      4550305F 
 3632      57414954 
 3632      494E475F 
 3632      53455455 
 3633              	.LASF184:
 3634 02ea 5553425F 		.ascii	"USB_SUSPENDED\000"
 3634      53555350 
 3634      454E4445 
 3634      4400
 3635              	.LASF243:
 3636 02f8 5F70616C 		.ascii	"_pal_lld_setpadmode\000"
 3636      5F6C6C64 
 3636      5F736574 
 3636      7061646D 
 3636      6F646500 
 3637              	.LASF161:
ARM GAS  /var/folders/t8/16hdwfmd2fg_d3q6dgx6bpmw0000gn/T//cciK6y6j.s 			page 67


 3638 030c 70616C5F 		.ascii	"pal_default_config\000"
 3638      64656661 
 3638      756C745F 
 3638      636F6E66 
 3638      696700
 3639              	.LASF1:
 3640 031f 7369676E 		.ascii	"signed char\000"
 3640      65642063 
 3640      68617200 
 3641              	.LASF125:
 3642 032b 65776D61 		.ascii	"ewmask\000"
 3642      736B00
 3643              	.LASF15:
 3644 0332 75696E74 		.ascii	"uint8_t\000"
 3644      385F7400 
 3645              	.LASF200:
 3646 033a 5553425F 		.ascii	"USB_EVENT_STALLED\000"
 3646      4556454E 
 3646      545F5354 
 3646      414C4C45 
 3646      4400
 3647              	.LASF26:
 3648 034c 6576656E 		.ascii	"eventmask_t\000"
 3648      746D6173 
 3648      6B5F7400 
 3649              	.LASF217:
 3650 0358 72787369 		.ascii	"rxsize\000"
 3650      7A6500
 3651              	.LASF121:
 3652 035f 77747472 		.ascii	"wttrp\000"
 3652      7000
 3653              	.LASF77:
 3654 0365 52455345 		.ascii	"RESERVED0\000"
 3654      52564544 
 3654      3000
 3655              	.LASF79:
 3656 036f 52455345 		.ascii	"RESERVED1\000"
 3656      52564544 
 3656      3100
 3657              	.LASF4:
 3658 0379 756E7369 		.ascii	"unsigned char\000"
 3658      676E6564 
 3658      20636861 
 3658      7200
 3659              	.LASF84:
 3660 0387 52455345 		.ascii	"RESERVED3\000"
 3660      52564544 
 3660      3300
 3661              	.LASF86:
 3662 0391 52455345 		.ascii	"RESERVED4\000"
 3662      52564544 
 3662      3400
 3663              	.LASF92:
 3664 039b 52455345 		.ascii	"RESERVED5\000"
 3664      52564544 
 3664      3500
 3665              	.LASF95:
ARM GAS  /var/folders/t8/16hdwfmd2fg_d3q6dgx6bpmw0000gn/T//cciK6y6j.s 			page 68


 3666 03a5 52455345 		.ascii	"RESERVED6\000"
 3666      52564544 
 3666      3600
 3667              	.LASF99:
 3668 03af 52455345 		.ascii	"RESERVED7\000"
 3668      52564544 
 3668      3700
 3669              	.LASF67:
 3670 03b9 70616E69 		.ascii	"panic_msg\000"
 3670      635F6D73 
 3670      6700
 3671              	.LASF168:
 3672 03c3 65703073 		.ascii	"ep0state\000"
 3672      74617465 
 3672      00
 3673              	.LASF91:
 3674 03cc 434C4B44 		.ascii	"CLKDIV1\000"
 3674      49563100 
 3675              	.LASF65:
 3676 03d4 73797374 		.ascii	"system_debug_t\000"
 3676      656D5F64 
 3676      65627567 
 3676      5F7400
 3677              	.LASF235:
 3678 03e3 72657175 		.ascii	"requests_hook_cb\000"
 3678      65737473 
 3678      5F686F6F 
 3678      6B5F6362 
 3678      00
 3679              	.LASF152:
 3680 03f4 5F426F6F 		.ascii	"_Bool\000"
 3680      6C00
 3681              	.LASF82:
 3682 03fa 52455345 		.ascii	"RESERVED2\000"
 3682      52564544 
 3682      3200
 3683              	.LASF129:
 3684 0404 63686172 		.ascii	"char\000"
 3684      00
 3685              	.LASF247:
 3686 0409 2E2E2F2E 		.ascii	"../../tmk_core/tool/chibios/ChibiOS-Contrib/os/hal/"
 3686      2E2F746D 
 3686      6B5F636F 
 3686      72652F74 
 3686      6F6F6C2F 
 3687 043c 706F7274 		.ascii	"ports/KINETIS/LLD/hal_pal_lld.c\000"
 3687      732F4B49 
 3687      4E455449 
 3687      532F4C4C 
 3687      442F6861 
 3688              	.LASF170:
 3689 045c 6570306E 		.ascii	"ep0n\000"
 3689      00
 3690              	.LASF165:
 3691 0461 72656365 		.ascii	"receiving\000"
 3691      6976696E 
 3691      6700
ARM GAS  /var/folders/t8/16hdwfmd2fg_d3q6dgx6bpmw0000gn/T//cciK6y6j.s 			page 69


 3692              	.LASF6:
 3693 046b 5F5F7569 		.ascii	"__uint16_t\000"
 3693      6E743136 
 3693      5F7400
 3694              	.LASF162:
 3695 0476 55534244 		.ascii	"USBDriver\000"
 3695      72697665 
 3695      7200
 3696              	.LASF120:
 3697 0480 77746F62 		.ascii	"wtobjp\000"
 3697      6A7000
 3698              	.LASF223:
 3699 0487 73657475 		.ascii	"setup_cb\000"
 3699      705F6362 
 3699      00
 3700              	.LASF203:
 3701 0490 75645F73 		.ascii	"ud_string\000"
 3701      7472696E 
 3701      6700
 3702              	.LASF146:
 3703 049a 6F66665F 		.ascii	"off_refs\000"
 3703      72656673 
 3703      00
 3704              	.LASF37:
 3705 04a3 666C6167 		.ascii	"flags\000"
 3705      7300
 3706              	.LASF106:
 3707 04a9 504F5254 		.ascii	"PORT_TypeDef\000"
 3707      5F547970 
 3707      65446566 
 3707      00
 3708              	.LASF115:
 3709 04b6 73746B61 		.ascii	"stkalign_t\000"
 3709      6C69676E 
 3709      5F7400
 3710              	.LASF45:
 3711 04c1 6D706F6F 		.ascii	"mpool\000"
 3711      6C00
 3712              	.LASF207:
 3713 04c7 75736265 		.ascii	"usbeventcb_t\000"
 3713      76656E74 
 3713      63625F74 
 3713      00
 3714              	.LASF135:
 3715 04d4 70747273 		.ascii	"ptrsize\000"
 3715      697A6500 
 3716              	.LASF164:
 3717 04dc 7472616E 		.ascii	"transmitting\000"
 3717      736D6974 
 3717      74696E67 
 3717      00
 3718              	.LASF216:
 3719 04e9 55534249 		.ascii	"USBInEndpointState\000"
 3719      6E456E64 
 3719      706F696E 
 3719      74537461 
 3719      746500
ARM GAS  /var/folders/t8/16hdwfmd2fg_d3q6dgx6bpmw0000gn/T//cciK6y6j.s 			page 70


 3720              	.LASF153:
 3721 04fc 696F706F 		.ascii	"ioportmask_t\000"
 3721      72746D61 
 3721      736B5F74 
 3721      00
 3722              	.LASF148:
 3723 0509 6F66665F 		.ascii	"off_time\000"
 3723      74696D65 
 3723      00
 3724              	.LASF27:
 3725 0512 636E745F 		.ascii	"cnt_t\000"
 3725      7400
 3726              	.LASF204:
 3727 0518 55534244 		.ascii	"USBDescriptor\000"
 3727      65736372 
 3727      6970746F 
 3727      7200
 3728              	.LASF172:
 3729 0526 73657475 		.ascii	"setup\000"
 3729      7000
 3730              	.LASF124:
 3731 052c 77746D74 		.ascii	"wtmtxp\000"
 3731      787000
 3732              	.LASF201:
 3733 0533 75736265 		.ascii	"usbevent_t\000"
 3733      76656E74 
 3733      5F7400
 3734              	.LASF55:
 3735 053e 63685F72 		.ascii	"ch_ready_list\000"
 3735      65616479 
 3735      5F6C6973 
 3735      7400
 3736              	.LASF202:
 3737 054c 75645F73 		.ascii	"ud_size\000"
 3737      697A6500 
 3738              	.LASF182:
 3739 0554 5553425F 		.ascii	"USB_SELECTED\000"
 3739      53454C45 
 3739      43544544 
 3739      00
 3740              	.LASF175:
 3741 0561 636F6E66 		.ascii	"configuration\000"
 3741      69677572 
 3741      6174696F 
 3741      6E00
 3742              	.LASF158:
 3743 056f 506F7274 		.ascii	"PortConfig\000"
 3743      436F6E66 
 3743      696700
 3744              	.LASF13:
 3745 057a 5F5F7569 		.ascii	"__uint64_t\000"
 3745      6E743634 
 3745      5F7400
 3746              	.LASF144:
 3747 0585 6F66665F 		.ascii	"off_state\000"
 3747      73746174 
 3747      6500
ARM GAS  /var/folders/t8/16hdwfmd2fg_d3q6dgx6bpmw0000gn/T//cciK6y6j.s 			page 71


 3748              	.LASF11:
 3749 058f 6C6F6E67 		.ascii	"long unsigned int\000"
 3749      20756E73 
 3749      69676E65 
 3749      6420696E 
 3749      7400
 3750              	.LASF137:
 3751 05a1 74687265 		.ascii	"threadsize\000"
 3751      61647369 
 3751      7A6500
 3752              	.LASF173:
 3753 05ac 73746174 		.ascii	"status\000"
 3753      757300
 3754              	.LASF174:
 3755 05b3 61646472 		.ascii	"address\000"
 3755      65737300 
 3756              	.LASF126:
 3757 05bb 63685F73 		.ascii	"ch_semaphore\000"
 3757      656D6170 
 3757      686F7265 
 3757      00
 3758              	.LASF171:
 3759 05c8 65703065 		.ascii	"ep0endcb\000"
 3759      6E646362 
 3759      00
 3760              	.LASF48:
 3761 05d1 63685F74 		.ascii	"ch_thread\000"
 3761      68726561 
 3761      6400
 3762              	.LASF62:
 3763 05db 76697274 		.ascii	"virtual_timers_list_t\000"
 3763      75616C5F 
 3763      74696D65 
 3763      72735F6C 
 3763      6973745F 
 3764              	.LASF130:
 3765 05f1 63685F69 		.ascii	"ch_idle_thread_wa\000"
 3765      646C655F 
 3765      74687265 
 3765      61645F77 
 3765      6100
 3766              	.LASF112:
 3767 0603 50444452 		.ascii	"PDDR\000"
 3767      00
 3768              	.LASF58:
 3769 0608 76697274 		.ascii	"virtual_timer_t\000"
 3769      75616C5F 
 3769      74696D65 
 3769      725F7400 
 3770              	.LASF54:
 3771 0618 72656164 		.ascii	"ready_list_t\000"
 3771      795F6C69 
 3771      73745F74 
 3771      00
 3772              	.LASF33:
 3773 0625 6F6C6465 		.ascii	"older\000"
 3773      7200
ARM GAS  /var/folders/t8/16hdwfmd2fg_d3q6dgx6bpmw0000gn/T//cciK6y6j.s 			page 72


 3774              	.LASF210:
 3775 062b 74787369 		.ascii	"txsize\000"
 3775      7A6500
 3776              	.LASF44:
 3777 0632 7265616C 		.ascii	"realprio\000"
 3777      7072696F 
 3777      00
 3778              	.LASF143:
 3779 063b 6F66665F 		.ascii	"off_stklimit\000"
 3779      73746B6C 
 3779      696D6974 
 3779      00
 3780              	.LASF185:
 3781 0648 75736273 		.ascii	"usbstate_t\000"
 3781      74617465 
 3781      5F7400
 3782              	.LASF49:
 3783 0653 63685F74 		.ascii	"ch_threads_list\000"
 3783      68726561 
 3783      64735F6C 
 3783      69737400 
 3784              	.LASF192:
 3785 0663 5553425F 		.ascii	"USB_EP0_ERROR\000"
 3785      4550305F 
 3785      4552524F 
 3785      5200
 3786              	.LASF214:
 3787 0671 6F64645F 		.ascii	"odd_even\000"
 3787      6576656E 
 3787      00
 3788              	.LASF100:
 3789 067a 434F5043 		.ascii	"COPC\000"
 3789      00
 3790              	.LASF219:
 3791 067f 72786275 		.ascii	"rxbuf\000"
 3791      6600
 3792              	.LASF228:
 3793 0685 696E5F73 		.ascii	"in_state\000"
 3793      74617465 
 3793      00
 3794              	.LASF199:
 3795 068e 5553425F 		.ascii	"USB_EVENT_WAKEUP\000"
 3795      4556454E 
 3795      545F5741 
 3795      4B455550 
 3795      00
 3796              	.LASF10:
 3797 069f 5F5F7569 		.ascii	"__uint32_t\000"
 3797      6E743332 
 3797      5F7400
 3798              	.LASF233:
 3799 06aa 6576656E 		.ascii	"event_cb\000"
 3799      745F6362 
 3799      00
 3800              	.LASF43:
 3801 06b3 6D74786C 		.ascii	"mtxlist\000"
 3801      69737400 
ARM GAS  /var/folders/t8/16hdwfmd2fg_d3q6dgx6bpmw0000gn/T//cciK6y6j.s 			page 73


 3802              	.LASF12:
 3803 06bb 6C6F6E67 		.ascii	"long long int\000"
 3803      206C6F6E 
 3803      6720696E 
 3803      7400
 3804              	.LASF181:
 3805 06c9 5553425F 		.ascii	"USB_READY\000"
 3805      52454144 
 3805      5900
 3806              	.LASF169:
 3807 06d3 6570306E 		.ascii	"ep0next\000"
 3807      65787400 
 3808              	.LASF75:
 3809 06db 534F5054 		.ascii	"SOPT1\000"
 3809      3100
 3810              	.LASF78:
 3811 06e1 534F5054 		.ascii	"SOPT2\000"
 3811      3200
 3812              	.LASF80:
 3813 06e7 534F5054 		.ascii	"SOPT4\000"
 3813      3400
 3814              	.LASF81:
 3815 06ed 534F5054 		.ascii	"SOPT5\000"
 3815      3500
 3816              	.LASF83:
 3817 06f3 534F5054 		.ascii	"SOPT7\000"
 3817      3700
 3818              	.LASF157:
 3819 06f9 70616473 		.ascii	"pads\000"
 3819      00
 3820              	.LASF239:
 3821 06fe 6D61736B 		.ascii	"mask\000"
 3821      00
 3822              	.LASF39:
 3823 0703 70726565 		.ascii	"preempt\000"
 3823      6D707400 
 3824              	.LASF206:
 3825 070b 75736265 		.ascii	"usbepcallback_t\000"
 3825      7063616C 
 3825      6C626163 
 3825      6B5F7400 
 3826              	.LASF96:
 3827 071b 5549444D 		.ascii	"UIDMH\000"
 3827      4800
 3828              	.LASF97:
 3829 0721 5549444D 		.ascii	"UIDML\000"
 3829      4C00
 3830              	.LASF140:
 3831 0727 6F66665F 		.ascii	"off_newer\000"
 3831      6E657765 
 3831      7200
 3832              	.LASF0:
 3833 0731 756E7369 		.ascii	"unsigned int\000"
 3833      676E6564 
 3833      20696E74 
 3833      00
 3834              	.LASF242:
ARM GAS  /var/folders/t8/16hdwfmd2fg_d3q6dgx6bpmw0000gn/T//cciK6y6j.s 			page 74


 3835 073e 5F70616C 		.ascii	"_pal_lld_init\000"
 3835      5F6C6C64 
 3835      5F696E69 
 3835      7400
 3836              	.LASF237:
 3837 074c 55534243 		.ascii	"USBConfig\000"
 3837      6F6E6669 
 3837      6700
 3838              	.LASF244:
 3839 0756 706F7274 		.ascii	"portcfg\000"
 3839      63666700 
 3840              	.LASF231:
 3841 075e 73657475 		.ascii	"setup_buf\000"
 3841      705F6275 
 3841      6600
 3842              	.LASF56:
 3843 0768 63757272 		.ascii	"current\000"
 3843      656E7400 
 3844              	.LASF225:
 3845 0770 6F75745F 		.ascii	"out_cb\000"
 3845      636200
 3846              	.LASF109:
 3847 0777 50434F52 		.ascii	"PCOR\000"
 3847      00
 3848              	.LASF111:
 3849 077c 50444952 		.ascii	"PDIR\000"
 3849      00
 3850              	.LASF180:
 3851 0781 5553425F 		.ascii	"USB_STOP\000"
 3851      53544F50 
 3851      00
 3852              	.LASF218:
 3853 078a 7278636E 		.ascii	"rxcnt\000"
 3853      7400
 3854              	.LASF226:
 3855 0790 696E5F6D 		.ascii	"in_maxsize\000"
 3855      61787369 
 3855      7A6500
 3856              	.LASF229:
 3857 079b 6F75745F 		.ascii	"out_state\000"
 3857      73746174 
 3857      6500
 3858              	.LASF29:
 3859 07a5 74687265 		.ascii	"thread_t\000"
 3859      61645F74 
 3859      00
 3860              	.LASF230:
 3861 07ae 65705F62 		.ascii	"ep_buffers\000"
 3861      75666665 
 3861      727300
 3862              	.LASF46:
 3863 07b9 74687265 		.ascii	"thread_reference_t\000"
 3863      61645F72 
 3863      65666572 
 3863      656E6365 
 3863      5F7400
 3864              	.LASF122:
ARM GAS  /var/folders/t8/16hdwfmd2fg_d3q6dgx6bpmw0000gn/T//cciK6y6j.s 			page 75


 3865 07cc 73656E74 		.ascii	"sentmsg\000"
 3865      6D736700 
 3866              	.LASF188:
 3867 07d4 5553425F 		.ascii	"USB_EP0_WAITING_TX0\000"
 3867      4550305F 
 3867      57414954 
 3867      494E475F 
 3867      54583000 
 3868              	.LASF117:
 3869 07e8 706F7274 		.ascii	"port_intctx\000"
 3869      5F696E74 
 3869      63747800 
 3870              	.LASF224:
 3871 07f4 696E5F63 		.ascii	"in_cb\000"
 3871      6200
 3872              	.LASF68:
 3873 07fa 6973725F 		.ascii	"isr_cnt\000"
 3873      636E7400 
 3874              	.LASF179:
 3875 0802 5553425F 		.ascii	"USB_UNINIT\000"
 3875      554E494E 
 3875      495400
 3876              	.LASF59:
 3877 080d 63685F76 		.ascii	"ch_virtual_timer\000"
 3877      69727475 
 3877      616C5F74 
 3877      696D6572 
 3877      00
 3878              	.LASF221:
 3879 081e 5553424F 		.ascii	"USBOutEndpointState\000"
 3879      7574456E 
 3879      64706F69 
 3879      6E745374 
 3879      61746500 
 3880              	.LASF133:
 3881 0832 73697A65 		.ascii	"size\000"
 3881      00
 3882              	.LASF14:
 3883 0837 6C6F6E67 		.ascii	"long long unsigned int\000"
 3883      206C6F6E 
 3883      6720756E 
 3883      7369676E 
 3883      65642069 
 3884              	.LASF16:
 3885 084e 75696E74 		.ascii	"uint16_t\000"
 3885      31365F74 
 3885      00
 3886              	.LASF142:
 3887 0857 6F66665F 		.ascii	"off_name\000"
 3887      6E616D65 
 3887      00
 3888              	.LASF25:
 3889 0860 6D73675F 		.ascii	"msg_t\000"
 3889      7400
 3890              	.LASF52:
 3891 0866 63685F74 		.ascii	"ch_threads_queue\000"
 3891      68726561 
ARM GAS  /var/folders/t8/16hdwfmd2fg_d3q6dgx6bpmw0000gn/T//cciK6y6j.s 			page 76


 3891      64735F71 
 3891      75657565 
 3891      00
 3892              	.LASF23:
 3893 0877 74736C69 		.ascii	"tslices_t\000"
 3893      6365735F 
 3893      7400
 3894              	.LASF176:
 3895 0881 73617665 		.ascii	"saved_state\000"
 3895      645F7374 
 3895      61746500 
 3896              	.LASF60:
 3897 088d 64656C74 		.ascii	"delta\000"
 3897      6100
 3898              	.LASF194:
 3899 0893 5553425F 		.ascii	"USB_EVENT_RESET\000"
 3899      4556454E 
 3899      545F5245 
 3899      53455400 
 3900              	.LASF38:
 3901 08a3 72656673 		.ascii	"refs\000"
 3901      00
 3902              	.LASF30:
 3903 08a8 71756575 		.ascii	"queue\000"
 3903      6500
 3904              	.LASF74:
 3905 08ae 6D61696E 		.ascii	"mainthread\000"
 3905      74687265 
 3905      616400
 3906              	.LASF134:
 3907 08b9 76657273 		.ascii	"version\000"
 3907      696F6E00 
 3908              	.LASF197:
 3909 08c1 5553425F 		.ascii	"USB_EVENT_UNCONFIGURED\000"
 3909      4556454E 
 3909      545F554E 
 3909      434F4E46 
 3909      49475552 
 3910              	.LASF227:
 3911 08d8 6F75745F 		.ascii	"out_maxsize\000"
 3911      6D617873 
 3911      697A6500 
 3912              	.LASF35:
 3913 08e4 77616261 		.ascii	"wabase\000"
 3913      736500
 3914              	.LASF196:
 3915 08eb 5553425F 		.ascii	"USB_EVENT_CONFIGURED\000"
 3915      4556454E 
 3915      545F434F 
 3915      4E464947 
 3915      55524544 
 3916              	.LASF191:
 3917 0900 5553425F 		.ascii	"USB_EP0_SENDING_STS\000"
 3917      4550305F 
 3917      53454E44 
 3917      494E475F 
 3917      53545300 
ARM GAS  /var/folders/t8/16hdwfmd2fg_d3q6dgx6bpmw0000gn/T//cciK6y6j.s 			page 77


 3918              	.LASF232:
 3919 0914 55534245 		.ascii	"USBEndpointConfig\000"
 3919      6E64706F 
 3919      696E7443 
 3919      6F6E6669 
 3919      6700
 3920              	.LASF72:
 3921 0926 726C6973 		.ascii	"rlist\000"
 3921      7400
 3922              	.LASF20:
 3923 092c 746D6F64 		.ascii	"tmode_t\000"
 3923      655F7400 
 3924              	.LASF245:
 3925 0934 5F70616C 		.ascii	"_pal_lld_writepad\000"
 3925      5F6C6C64 
 3925      5F777269 
 3925      74657061 
 3925      6400
 3926              	.LASF209:
 3927 0946 75736267 		.ascii	"usbgetdescriptor_t\000"
 3927      65746465 
 3927      73637269 
 3927      70746F72 
 3927      5F7400
 3928              	.LASF166:
 3929 0959 696E5F70 		.ascii	"in_params\000"
 3929      6172616D 
 3929      7300
 3930              	.LASF213:
 3931 0963 74687265 		.ascii	"thread\000"
 3931      616400
 3932              	.LASF34:
 3933 096a 6E616D65 		.ascii	"name\000"
 3933      00
 3934              	.LASF156:
 3935 096f 706F7274 		.ascii	"port\000"
 3935      00
 3936              	.LASF107:
 3937 0974 50444F52 		.ascii	"PDOR\000"
 3937      00
 3938              	.LASF5:
 3939 0979 73686F72 		.ascii	"short int\000"
 3939      7420696E 
 3939      7400
 3940              	.LASF19:
 3941 0983 75696E74 		.ascii	"uint64_t\000"
 3941      36345F74 
 3941      00
 3942              	.LASF240:
 3943 098c 6D6F6465 		.ascii	"mode\000"
 3943      00
 3944              	.LASF61:
 3945 0991 66756E63 		.ascii	"func\000"
 3945      00
 3946              	.LASF127:
 3947 0996 63685F6D 		.ascii	"ch_mutex\000"
 3947      75746578 
ARM GAS  /var/folders/t8/16hdwfmd2fg_d3q6dgx6bpmw0000gn/T//cciK6y6j.s 			page 78


 3947      00
 3948              	.LASF108:
 3949 099f 50534F52 		.ascii	"PSOR\000"
 3949      00
 3950              	.LASF41:
 3951 09a4 6D736771 		.ascii	"msgqueue\000"
 3951      75657565 
 3951      00
 3952              	.LASF66:
 3953 09ad 63685F73 		.ascii	"ch_system_debug\000"
 3953      79737465 
 3953      6D5F6465 
 3953      62756700 
 3954              	.LASF208:
 3955 09bd 75736272 		.ascii	"usbreqhandler_t\000"
 3955      65716861 
 3955      6E646C65 
 3955      725F7400 
 3956              	.LASF76:
 3957 09cd 534F5054 		.ascii	"SOPT1CFG\000"
 3957      31434647 
 3957      00
 3958              	.LASF160:
 3959 09d6 50414C43 		.ascii	"PALConfig\000"
 3959      6F6E6669 
 3959      6700
 3960              	.LASF205:
 3961 09e0 75736263 		.ascii	"usbcallback_t\000"
 3961      616C6C62 
 3961      61636B5F 
 3961      7400
 3962              	.LASF215:
 3963 09ee 64617461 		.ascii	"data_bank\000"
 3963      5F62616E 
 3963      6B00
 3964              	.LASF113:
 3965 09f8 4750494F 		.ascii	"GPIO_TypeDef\000"
 3965      5F547970 
 3965      65446566 
 3965      00
 3966              	.LASF73:
 3967 0a05 76746C69 		.ascii	"vtlist\000"
 3967      737400
 3968              	.LASF40:
 3969 0a0c 77616974 		.ascii	"waiting\000"
 3969      696E6700 
 3970              	.LASF251:
 3971 0a14 63685379 		.ascii	"chSysHalt\000"
 3971      7348616C 
 3971      7400
 3972              	.LASF238:
 3973 0a1e 55534244 		.ascii	"USBD1\000"
 3973      3100
 3974              	.LASF151:
 3975 0a24 6D757465 		.ascii	"mutex_t\000"
 3975      785F7400 
 3976              	.LASF22:
ARM GAS  /var/folders/t8/16hdwfmd2fg_d3q6dgx6bpmw0000gn/T//cciK6y6j.s 			page 79


 3977 0a2c 74726566 		.ascii	"trefs_t\000"
 3977      735F7400 
 3978              	.LASF104:
 3979 0a34 47504348 		.ascii	"GPCHR\000"
 3979      5200
 3980              	.LASF116:
 3981 0a3a 706F7274 		.ascii	"port_context\000"
 3981      5F636F6E 
 3981      74657874 
 3981      00
 3982              	.LASF47:
 3983 0a47 74687265 		.ascii	"threads_list_t\000"
 3983      6164735F 
 3983      6C697374 
 3983      5F7400
 3984              	.LASF236:
 3985 0a56 736F665F 		.ascii	"sof_cb\000"
 3985      636200
 3986              	.LASF71:
 3987 0a5d 63685F73 		.ascii	"ch_system\000"
 3987      79737465 
 3987      6D00
 3988              	.LASF32:
 3989 0a67 6E657765 		.ascii	"newer\000"
 3989      7200
 3990              	.LASF18:
 3991 0a6d 75696E74 		.ascii	"uint32_t\000"
 3991      33325F74 
 3991      00
 3992              	.LASF178:
 3993 0a76 75736265 		.ascii	"usbep_t\000"
 3993      705F7400 
 3994              	.LASF220:
 3995 0a7e 7278706B 		.ascii	"rxpkts\000"
 3995      747300
 3996              	.LASF102:
 3997 0a85 53494D5F 		.ascii	"SIM_TypeDef\000"
 3997      54797065 
 3997      44656600 
 3998              	.LASF118:
 3999 0a91 7264796D 		.ascii	"rdymsg\000"
 3999      736700
 4000              	.LASF7:
 4001 0a98 73686F72 		.ascii	"short unsigned int\000"
 4001      7420756E 
 4001      7369676E 
 4001      65642069 
 4001      6E7400
 4002              	.LASF234:
 4003 0aab 6765745F 		.ascii	"get_descriptor_cb\000"
 4003      64657363 
 4003      72697074 
 4003      6F725F63 
 4003      6200
 4004              	.LASF70:
 4005 0abd 63685F73 		.ascii	"ch_system_t\000"
 4005      79737465 
ARM GAS  /var/folders/t8/16hdwfmd2fg_d3q6dgx6bpmw0000gn/T//cciK6y6j.s 			page 80


 4005      6D5F7400 
 4006              	.LASF149:
 4007 0ac9 63686465 		.ascii	"chdebug_t\000"
 4007      6275675F 
 4007      7400
 4008              	.LASF198:
 4009 0ad3 5553425F 		.ascii	"USB_EVENT_SUSPEND\000"
 4009      4556454E 
 4009      545F5355 
 4009      5350454E 
 4009      4400
 4010              	.LASF167:
 4011 0ae5 6F75745F 		.ascii	"out_params\000"
 4011      70617261 
 4011      6D7300
 4012              	.LASF136:
 4013 0af0 74696D65 		.ascii	"timesize\000"
 4013      73697A65 
 4013      00
 4014              	.LASF8:
 4015 0af9 5F5F696E 		.ascii	"__int32_t\000"
 4015      7433325F 
 4015      7400
 4016              	.LASF250:
 4017 0b03 5F70616C 		.ascii	"_pal_lld_readpad\000"
 4017      5F6C6C64 
 4017      5F726561 
 4017      64706164 
 4017      00
 4018              	.LASF145:
 4019 0b14 6F66665F 		.ascii	"off_flags\000"
 4019      666C6167 
 4019      7300
 4020              	.LASF189:
 4021 0b1e 5553425F 		.ascii	"USB_EP0_WAITING_STS\000"
 4021      4550305F 
 4021      57414954 
 4021      494E475F 
 4021      53545300 
 4022              	.LASF98:
 4023 0b32 5549444C 		.ascii	"UIDL\000"
 4023      00
 4024              	.LASF50:
 4025 0b37 6E657874 		.ascii	"next\000"
 4025      00
 4026              	.LASF177:
 4027 0b3c 706D6E65 		.ascii	"pmnext\000"
 4027      787400
 4028              	.LASF53:
 4029 0b43 70726576 		.ascii	"prev\000"
 4029      00
 4030              	.LASF131:
 4031 0b48 6964656E 		.ascii	"identifier\000"
 4031      74696669 
 4031      657200
 4032              	.LASF190:
 4033 0b53 5553425F 		.ascii	"USB_EP0_RX\000"
ARM GAS  /var/folders/t8/16hdwfmd2fg_d3q6dgx6bpmw0000gn/T//cciK6y6j.s 			page 81


 4033      4550305F 
 4033      525800
 4034              	.LASF123:
 4035 0b5e 77747365 		.ascii	"wtsemp\000"
 4035      6D7000
 4036              	.LASF105:
 4037 0b65 49534652 		.ascii	"ISFR\000"
 4037      00
 4038              		.ident	"GCC: (GNU Tools for Arm Embedded Processors 7-2017-q4-major) 7.2.1 20170904 (release) [ARM
ARM GAS  /var/folders/t8/16hdwfmd2fg_d3q6dgx6bpmw0000gn/T//cciK6y6j.s 			page 82


DEFINED SYMBOLS
                            *ABS*:0000000000000000 hal_pal_lld.c
/var/folders/t8/16hdwfmd2fg_d3q6dgx6bpmw0000gn/T//cciK6y6j.s:16     .text._pal_lld_readpad:0000000000000000 $t
/var/folders/t8/16hdwfmd2fg_d3q6dgx6bpmw0000gn/T//cciK6y6j.s:24     .text._pal_lld_readpad:0000000000000000 _pal_lld_readpad
/var/folders/t8/16hdwfmd2fg_d3q6dgx6bpmw0000gn/T//cciK6y6j.s:48     .text._pal_lld_writepad:0000000000000000 $t
/var/folders/t8/16hdwfmd2fg_d3q6dgx6bpmw0000gn/T//cciK6y6j.s:56     .text._pal_lld_writepad:0000000000000000 _pal_lld_writepad
/var/folders/t8/16hdwfmd2fg_d3q6dgx6bpmw0000gn/T//cciK6y6j.s:90     .text._pal_lld_setpadmode:0000000000000000 $t
/var/folders/t8/16hdwfmd2fg_d3q6dgx6bpmw0000gn/T//cciK6y6j.s:98     .text._pal_lld_setpadmode:0000000000000000 _pal_lld_setpadmode
/var/folders/t8/16hdwfmd2fg_d3q6dgx6bpmw0000gn/T//cciK6y6j.s:173    .rodata._pal_lld_setpadmode:0000000000000000 $d
/var/folders/t8/16hdwfmd2fg_d3q6dgx6bpmw0000gn/T//cciK6y6j.s:330    .text._pal_lld_setpadmode:00000000000000e0 $d
/var/folders/t8/16hdwfmd2fg_d3q6dgx6bpmw0000gn/T//cciK6y6j.s:346    .text._pal_lld_init:0000000000000000 $t
/var/folders/t8/16hdwfmd2fg_d3q6dgx6bpmw0000gn/T//cciK6y6j.s:354    .text._pal_lld_init:0000000000000000 _pal_lld_init
/var/folders/t8/16hdwfmd2fg_d3q6dgx6bpmw0000gn/T//cciK6y6j.s:414    .text._pal_lld_init:0000000000000034 $d
/var/folders/t8/16hdwfmd2fg_d3q6dgx6bpmw0000gn/T//cciK6y6j.s:420    .text._pal_lld_setgroupmode:0000000000000000 $t
/var/folders/t8/16hdwfmd2fg_d3q6dgx6bpmw0000gn/T//cciK6y6j.s:428    .text._pal_lld_setgroupmode:0000000000000000 _pal_lld_setgroupmode
/var/folders/t8/16hdwfmd2fg_d3q6dgx6bpmw0000gn/T//cciK6y6j.s:471    .rodata.__func__.6432:0000000000000000 $d
/var/folders/t8/16hdwfmd2fg_d3q6dgx6bpmw0000gn/T//cciK6y6j.s:475    .rodata.__func__.6432:0000000000000000 __func__.6432

UNDEFINED SYMBOLS
chSysHalt
