ARM GAS  /var/folders/t8/16hdwfmd2fg_d3q6dgx6bpmw0000gn/T//cc9oHqFa.s 			page 1


   1              		.cpu cortex-m0plus
   2              		.eabi_attribute 20, 1
   3              		.eabi_attribute 21, 1
   4              		.eabi_attribute 23, 3
   5              		.eabi_attribute 24, 1
   6              		.eabi_attribute 25, 1
   7              		.eabi_attribute 26, 1
   8              		.eabi_attribute 30, 2
   9              		.eabi_attribute 34, 0
  10              		.eabi_attribute 18, 4
  11              		.file	"hal_pal.c"
  12              		.text
  13              	.Ltext0:
  14              		.cfi_sections	.debug_frame
  15              		.section	.text.palReadBus,"ax",%progbits
  16              		.align	1
  17              		.p2align 4,,15
  18              		.global	palReadBus
  19              		.syntax unified
  20              		.code	16
  21              		.thumb_func
  22              		.fpu softvfp
  23              		.type	palReadBus, %function
  24              	palReadBus:
  25              	.LFB174:
  26              		.file 1 "../../tmk_core/tool/chibios/ChibiOS/os/hal/src/hal_pal.c"
  27              		.loc 1 65 0
  28              		.cfi_startproc
  29              		@ args = 0, pretend = 0, frame = 0
  30              		@ frame_needed = 0, uses_anonymous_args = 0
  31              	.LVL0:
  32 0000 10B5     		push	{r4, lr}
  33              		.cfi_def_cfa_offset 8
  34              		.cfi_offset 4, -8
  35              		.cfi_offset 14, -4
  36              		.loc 1 67 0
  37 0002 0028     		cmp	r0, #0
  38 0004 02D0     		beq	.L2
  39              		.loc 1 67 0 is_stmt 0 discriminator 3
  40 0006 8368     		ldr	r3, [r0, #8]
  41 0008 1F2B     		cmp	r3, #31
  42 000a 02D9     		bls	.L3
  43              	.L2:
  44              		.loc 1 67 0 discriminator 4
  45 000c 0248     		ldr	r0, .L8
  46              	.LVL1:
  47 000e FFF7FEFF 		bl	chSysHalt
  48              	.LVL2:
  49              	.L3:
  50              		.loc 1 70 0 is_stmt 1
  51 0012 0020     		movs	r0, #0
  52              		@ sp needed
  53 0014 10BD     		pop	{r4, pc}
  54              	.L9:
  55 0016 C046     		.align	2
  56              	.L8:
  57 0018 00000000 		.word	.LANCHOR0
ARM GAS  /var/folders/t8/16hdwfmd2fg_d3q6dgx6bpmw0000gn/T//cc9oHqFa.s 			page 2


  58              		.cfi_endproc
  59              	.LFE174:
  60              		.size	palReadBus, .-palReadBus
  61              		.section	.text.palWriteBus,"ax",%progbits
  62              		.align	1
  63              		.p2align 4,,15
  64              		.global	palWriteBus
  65              		.syntax unified
  66              		.code	16
  67              		.thumb_func
  68              		.fpu softvfp
  69              		.type	palWriteBus, %function
  70              	palWriteBus:
  71              	.LFB175:
  72              		.loc 1 90 0
  73              		.cfi_startproc
  74              		@ args = 0, pretend = 0, frame = 0
  75              		@ frame_needed = 0, uses_anonymous_args = 0
  76              	.LVL3:
  77 0000 10B5     		push	{r4, lr}
  78              		.cfi_def_cfa_offset 8
  79              		.cfi_offset 4, -8
  80              		.cfi_offset 14, -4
  81              		.loc 1 92 0
  82 0002 0028     		cmp	r0, #0
  83 0004 02D0     		beq	.L11
  84              		.loc 1 92 0 is_stmt 0 discriminator 3
  85 0006 8368     		ldr	r3, [r0, #8]
  86 0008 1F2B     		cmp	r3, #31
  87 000a 02D9     		bls	.L10
  88              	.L11:
  89              		.loc 1 92 0 discriminator 4
  90 000c 0148     		ldr	r0, .L16
  91              	.LVL4:
  92 000e FFF7FEFF 		bl	chSysHalt
  93              	.LVL5:
  94              	.L10:
  95              		.loc 1 95 0 is_stmt 1
  96              		@ sp needed
  97 0012 10BD     		pop	{r4, pc}
  98              	.L17:
  99              		.align	2
 100              	.L16:
 101 0014 00000000 		.word	.LANCHOR1
 102              		.cfi_endproc
 103              	.LFE175:
 104              		.size	palWriteBus, .-palWriteBus
 105              		.section	.text.palSetBusMode,"ax",%progbits
 106              		.align	1
 107              		.p2align 4,,15
 108              		.global	palSetBusMode
 109              		.syntax unified
 110              		.code	16
 111              		.thumb_func
 112              		.fpu softvfp
 113              		.type	palSetBusMode, %function
 114              	palSetBusMode:
ARM GAS  /var/folders/t8/16hdwfmd2fg_d3q6dgx6bpmw0000gn/T//cc9oHqFa.s 			page 3


 115              	.LFB176:
 116              		.loc 1 113 0
 117              		.cfi_startproc
 118              		@ args = 0, pretend = 0, frame = 0
 119              		@ frame_needed = 0, uses_anonymous_args = 0
 120              	.LVL6:
 121 0000 70B5     		push	{r4, r5, r6, lr}
 122              		.cfi_def_cfa_offset 16
 123              		.cfi_offset 4, -16
 124              		.cfi_offset 5, -12
 125              		.cfi_offset 6, -8
 126              		.cfi_offset 14, -4
 127              		.loc 1 113 0
 128 0002 0400     		movs	r4, r0
 129 0004 0D00     		movs	r5, r1
 130              		.loc 1 115 0
 131 0006 0028     		cmp	r0, #0
 132 0008 02D0     		beq	.L19
 133              		.loc 1 115 0 is_stmt 0 discriminator 3
 134 000a 8368     		ldr	r3, [r0, #8]
 135 000c 1F2B     		cmp	r3, #31
 136 000e 03D9     		bls	.L20
 137              	.L19:
 138              		.loc 1 115 0 discriminator 4
 139 0010 0548     		ldr	r0, .L24
 140              	.LVL7:
 141 0012 FFF7FEFF 		bl	chSysHalt
 142              	.LVL8:
 143 0016 A368     		ldr	r3, [r4, #8]
 144              	.L20:
 145              		.loc 1 117 0 is_stmt 1
 146 0018 6168     		ldr	r1, [r4, #4]
 147 001a 2A00     		movs	r2, r5
 148 001c 9940     		lsls	r1, r1, r3
 149 001e 2068     		ldr	r0, [r4]
 150 0020 FFF7FEFF 		bl	_pal_lld_setgroupmode
 151              	.LVL9:
 152              		.loc 1 118 0
 153              		@ sp needed
 154              	.LVL10:
 155              	.LVL11:
 156 0024 70BD     		pop	{r4, r5, r6, pc}
 157              	.L25:
 158 0026 C046     		.align	2
 159              	.L24:
 160 0028 00000000 		.word	.LANCHOR2
 161              		.cfi_endproc
 162              	.LFE176:
 163              		.size	palSetBusMode, .-palSetBusMode
 164              		.section	.rodata.__func__.6420,"a",%progbits
 165              		.align	2
 166              		.set	.LANCHOR0,. + 0
 167              		.type	__func__.6420, %object
 168              		.size	__func__.6420, 11
 169              	__func__.6420:
 170 0000 70616C52 		.ascii	"palReadBus\000"
 170      65616442 
ARM GAS  /var/folders/t8/16hdwfmd2fg_d3q6dgx6bpmw0000gn/T//cc9oHqFa.s 			page 4


 170      757300
 171              		.section	.rodata.__func__.6425,"a",%progbits
 172              		.align	2
 173              		.set	.LANCHOR1,. + 0
 174              		.type	__func__.6425, %object
 175              		.size	__func__.6425, 12
 176              	__func__.6425:
 177 0000 70616C57 		.ascii	"palWriteBus\000"
 177      72697465 
 177      42757300 
 178              		.section	.rodata.__func__.6430,"a",%progbits
 179              		.align	2
 180              		.set	.LANCHOR2,. + 0
 181              		.type	__func__.6430, %object
 182              		.size	__func__.6430, 14
 183              	__func__.6430:
 184 0000 70616C53 		.ascii	"palSetBusMode\000"
 184      65744275 
 184      734D6F64 
 184      6500
 185              		.text
 186              	.Letext0:
 187              		.file 2 "/usr/local/Caskroom/gcc-arm-embedded/7-2017-q4-major/gcc-arm-none-eabi-7-2017-q4-major/li
 188              		.file 3 "/usr/local/Caskroom/gcc-arm-embedded/7-2017-q4-major/gcc-arm-none-eabi-7-2017-q4-major/ar
 189              		.file 4 "/usr/local/Caskroom/gcc-arm-embedded/7-2017-q4-major/gcc-arm-none-eabi-7-2017-q4-major/ar
 190              		.file 5 "/usr/local/Caskroom/gcc-arm-embedded/7-2017-q4-major/gcc-arm-none-eabi-7-2017-q4-major/ar
 191              		.file 6 "../../tmk_core/tool/chibios/ChibiOS/os/common/ports/ARMCMx/compilers/GCC/chtypes.h"
 192              		.file 7 "../../tmk_core/tool/chibios/ChibiOS/os/rt/include/chsystypes.h"
 193              		.file 8 "../../tmk_core/tool/chibios/ChibiOS/os/rt/include/chschd.h"
 194              		.file 9 "../../tmk_core/tool/chibios/ChibiOS-Contrib/os/common/ext/CMSIS/KINETIS/kl2xz.h"
 195              		.file 10 "../../tmk_core/tool/chibios/ChibiOS/os/common/ports/ARMCMx/chcore.h"
 196              		.file 11 "../../tmk_core/tool/chibios/ChibiOS/os/common/ports/ARMCMx/chcore_v6m.h"
 197              		.file 12 "../../tmk_core/tool/chibios/ChibiOS/os/rt/include/chsem.h"
 198              		.file 13 "../../tmk_core/tool/chibios/ChibiOS/os/rt/include/chmtx.h"
 199              		.file 14 "../../tmk_core/tool/chibios/ChibiOS/os/rt/include/chregistry.h"
 200              		.file 15 "../../tmk_core/tool/chibios/ChibiOS/os/rt/include/chsys.h"
 201              		.file 16 "../../tmk_core/tool/chibios/ChibiOS-Contrib/os/hal/ports/KINETIS/LLD/hal_pal_lld.h"
 202              		.file 17 "../../tmk_core/tool/chibios/ChibiOS/os/hal/include/hal_pal.h"
 203              		.file 18 "../../tmk_core/tool/chibios/ChibiOS/os/hal/include/hal_usb.h"
 204              		.file 19 "../../tmk_core/tool/chibios/ChibiOS-Contrib/os/hal/ports/KINETIS/LLD/hal_usb_lld.h"
 205              		.section	.debug_info,"",%progbits
 206              	.Ldebug_info0:
 207 0000 AA0E0000 		.4byte	0xeaa
 208 0004 0400     		.2byte	0x4
 209 0006 00000000 		.4byte	.Ldebug_abbrev0
 210 000a 04       		.byte	0x4
 211 000b 01       		.uleb128 0x1
 212 000c 19000000 		.4byte	.LASF219
 213 0010 0C       		.byte	0xc
 214 0011 D2020000 		.4byte	.LASF220
 215 0015 61060000 		.4byte	.LASF221
 216 0019 00000000 		.4byte	.Ldebug_ranges0+0
 217 001d 00000000 		.4byte	0
 218 0021 00000000 		.4byte	.Ldebug_line0
 219 0025 02       		.uleb128 0x2
 220 0026 04       		.byte	0x4
 221 0027 05       		.byte	0x5
ARM GAS  /var/folders/t8/16hdwfmd2fg_d3q6dgx6bpmw0000gn/T//cc9oHqFa.s 			page 5


 222 0028 696E7400 		.ascii	"int\000"
 223 002c 03       		.uleb128 0x3
 224 002d 42040000 		.4byte	.LASF2
 225 0031 02       		.byte	0x2
 226 0032 D8       		.byte	0xd8
 227 0033 37000000 		.4byte	0x37
 228 0037 04       		.uleb128 0x4
 229 0038 04       		.byte	0x4
 230 0039 07       		.byte	0x7
 231 003a 79010000 		.4byte	.LASF0
 232 003e 04       		.uleb128 0x4
 233 003f 01       		.byte	0x1
 234 0040 06       		.byte	0x6
 235 0041 5C090000 		.4byte	.LASF1
 236 0045 03       		.uleb128 0x3
 237 0046 CA070000 		.4byte	.LASF3
 238 004a 03       		.byte	0x3
 239 004b 2B       		.byte	0x2b
 240 004c 50000000 		.4byte	0x50
 241 0050 04       		.uleb128 0x4
 242 0051 01       		.byte	0x1
 243 0052 08       		.byte	0x8
 244 0053 85080000 		.4byte	.LASF4
 245 0057 04       		.uleb128 0x4
 246 0058 02       		.byte	0x2
 247 0059 05       		.byte	0x5
 248 005a 3F070000 		.4byte	.LASF5
 249 005e 03       		.uleb128 0x3
 250 005f B8030000 		.4byte	.LASF6
 251 0063 03       		.byte	0x3
 252 0064 39       		.byte	0x39
 253 0065 69000000 		.4byte	0x69
 254 0069 04       		.uleb128 0x4
 255 006a 02       		.byte	0x2
 256 006b 07       		.byte	0x7
 257 006c 6E090000 		.4byte	.LASF7
 258 0070 03       		.uleb128 0x3
 259 0071 C3010000 		.4byte	.LASF8
 260 0075 03       		.byte	0x3
 261 0076 4D       		.byte	0x4d
 262 0077 7B000000 		.4byte	0x7b
 263 007b 04       		.uleb128 0x4
 264 007c 04       		.byte	0x4
 265 007d 05       		.byte	0x5
 266 007e 54070000 		.4byte	.LASF9
 267 0082 03       		.uleb128 0x3
 268 0083 A0080000 		.4byte	.LASF10
 269 0087 03       		.byte	0x3
 270 0088 4F       		.byte	0x4f
 271 0089 8D000000 		.4byte	0x8d
 272 008d 04       		.uleb128 0x4
 273 008e 04       		.byte	0x4
 274 008f 07       		.byte	0x7
 275 0090 26080000 		.4byte	.LASF11
 276 0094 04       		.uleb128 0x4
 277 0095 08       		.byte	0x8
 278 0096 05       		.byte	0x5
ARM GAS  /var/folders/t8/16hdwfmd2fg_d3q6dgx6bpmw0000gn/T//cc9oHqFa.s 			page 6


 279 0097 C5050000 		.4byte	.LASF12
 280 009b 03       		.uleb128 0x3
 281 009c 84040000 		.4byte	.LASF13
 282 00a0 03       		.byte	0x3
 283 00a1 69       		.byte	0x69
 284 00a2 A6000000 		.4byte	0xa6
 285 00a6 04       		.uleb128 0x4
 286 00a7 08       		.byte	0x8
 287 00a8 07       		.byte	0x7
 288 00a9 69030000 		.4byte	.LASF14
 289 00ad 03       		.uleb128 0x3
 290 00ae 61050000 		.4byte	.LASF15
 291 00b2 04       		.byte	0x4
 292 00b3 18       		.byte	0x18
 293 00b4 45000000 		.4byte	0x45
 294 00b8 05       		.uleb128 0x5
 295 00b9 AD000000 		.4byte	0xad
 296 00bd 03       		.uleb128 0x3
 297 00be 13070000 		.4byte	.LASF16
 298 00c2 04       		.byte	0x4
 299 00c3 24       		.byte	0x24
 300 00c4 5E000000 		.4byte	0x5e
 301 00c8 03       		.uleb128 0x3
 302 00c9 5C080000 		.4byte	.LASF17
 303 00cd 04       		.byte	0x4
 304 00ce 2C       		.byte	0x2c
 305 00cf 70000000 		.4byte	0x70
 306 00d3 03       		.uleb128 0x3
 307 00d4 C9020000 		.4byte	.LASF18
 308 00d8 04       		.byte	0x4
 309 00d9 30       		.byte	0x30
 310 00da 82000000 		.4byte	0x82
 311 00de 06       		.uleb128 0x6
 312 00df D3000000 		.4byte	0xd3
 313 00e3 03       		.uleb128 0x3
 314 00e4 AE070000 		.4byte	.LASF19
 315 00e8 04       		.byte	0x4
 316 00e9 3C       		.byte	0x3c
 317 00ea 9B000000 		.4byte	0x9b
 318 00ee 03       		.uleb128 0x3
 319 00ef E8080000 		.4byte	.LASF20
 320 00f3 05       		.byte	0x5
 321 00f4 34       		.byte	0x34
 322 00f5 37000000 		.4byte	0x37
 323 00f9 03       		.uleb128 0x3
 324 00fa EF060000 		.4byte	.LASF21
 325 00fe 06       		.byte	0x6
 326 00ff 3C       		.byte	0x3c
 327 0100 AD000000 		.4byte	0xad
 328 0104 03       		.uleb128 0x3
 329 0105 49050000 		.4byte	.LASF22
 330 0109 06       		.byte	0x6
 331 010a 3D       		.byte	0x3d
 332 010b AD000000 		.4byte	0xad
 333 010f 03       		.uleb128 0x3
 334 0110 1E080000 		.4byte	.LASF23
 335 0114 06       		.byte	0x6
ARM GAS  /var/folders/t8/16hdwfmd2fg_d3q6dgx6bpmw0000gn/T//cc9oHqFa.s 			page 7


 336 0115 3E       		.byte	0x3e
 337 0116 AD000000 		.4byte	0xad
 338 011a 03       		.uleb128 0x3
 339 011b 57060000 		.4byte	.LASF24
 340 011f 06       		.byte	0x6
 341 0120 3F       		.byte	0x3f
 342 0121 AD000000 		.4byte	0xad
 343 0125 03       		.uleb128 0x3
 344 0126 37030000 		.4byte	.LASF25
 345 012a 06       		.byte	0x6
 346 012b 40       		.byte	0x40
 347 012c D3000000 		.4byte	0xd3
 348 0130 03       		.uleb128 0x3
 349 0131 D8050000 		.4byte	.LASF26
 350 0135 06       		.byte	0x6
 351 0136 41       		.byte	0x41
 352 0137 C8000000 		.4byte	0xc8
 353 013b 03       		.uleb128 0x3
 354 013c 13030000 		.4byte	.LASF27
 355 0140 06       		.byte	0x6
 356 0141 43       		.byte	0x43
 357 0142 D3000000 		.4byte	0xd3
 358 0146 03       		.uleb128 0x3
 359 0147 C3030000 		.4byte	.LASF28
 360 014b 06       		.byte	0x6
 361 014c 45       		.byte	0x45
 362 014d C8000000 		.4byte	0xc8
 363 0151 03       		.uleb128 0x3
 364 0152 46010000 		.4byte	.LASF29
 365 0156 07       		.byte	0x7
 366 0157 33       		.byte	0x33
 367 0158 D3000000 		.4byte	0xd3
 368 015c 06       		.uleb128 0x6
 369 015d 51010000 		.4byte	0x151
 370 0161 03       		.uleb128 0x3
 371 0162 25040000 		.4byte	.LASF30
 372 0166 07       		.byte	0x7
 373 0167 3F       		.byte	0x3f
 374 0168 6C010000 		.4byte	0x16c
 375 016c 07       		.uleb128 0x7
 376 016d 79050000 		.4byte	.LASF49
 377 0171 44       		.byte	0x44
 378 0172 08       		.byte	0x8
 379 0173 9A       		.byte	0x9a
 380 0174 56020000 		.4byte	0x256
 381 0178 08       		.uleb128 0x8
 382 0179 56080000 		.4byte	.LASF31
 383 017d 08       		.byte	0x8
 384 017e 9B       		.byte	0x9b
 385 017f 8B020000 		.4byte	0x28b
 386 0183 00       		.byte	0
 387 0184 08       		.uleb128 0x8
 388 0185 EC040000 		.4byte	.LASF32
 389 0189 08       		.byte	0x8
 390 018a 9C       		.byte	0x9c
 391 018b 25010000 		.4byte	0x125
 392 018f 08       		.byte	0x8
ARM GAS  /var/folders/t8/16hdwfmd2fg_d3q6dgx6bpmw0000gn/T//cc9oHqFa.s 			page 8


 393 0190 09       		.uleb128 0x9
 394 0191 63747800 		.ascii	"ctx\000"
 395 0195 08       		.byte	0x8
 396 0196 9D       		.byte	0x9d
 397 0197 E6040000 		.4byte	0x4e6
 398 019b 0C       		.byte	0xc
 399 019c 08       		.uleb128 0x8
 400 019d 7F080000 		.4byte	.LASF33
 401 01a1 08       		.byte	0x8
 402 01a2 9F       		.byte	0x9f
 403 01a3 61020000 		.4byte	0x261
 404 01a7 10       		.byte	0x10
 405 01a8 08       		.uleb128 0x8
 406 01a9 2B0A0000 		.4byte	.LASF34
 407 01ad 08       		.byte	0x8
 408 01ae A0       		.byte	0xa0
 409 01af 61020000 		.4byte	0x261
 410 01b3 14       		.byte	0x14
 411 01b4 08       		.uleb128 0x8
 412 01b5 D4070000 		.4byte	.LASF35
 413 01b9 08       		.byte	0x8
 414 01ba A7       		.byte	0xa7
 415 01bb 41060000 		.4byte	0x641
 416 01bf 18       		.byte	0x18
 417 01c0 08       		.uleb128 0x8
 418 01c1 26050000 		.4byte	.LASF36
 419 01c5 08       		.byte	0x8
 420 01c6 B0       		.byte	0xb0
 421 01c7 58060000 		.4byte	0x658
 422 01cb 1C       		.byte	0x1c
 423 01cc 08       		.uleb128 0x8
 424 01cd 10090000 		.4byte	.LASF37
 425 01d1 08       		.byte	0x8
 426 01d2 B5       		.byte	0xb5
 427 01d3 04010000 		.4byte	0x104
 428 01d7 20       		.byte	0x20
 429 01d8 08       		.uleb128 0x8
 430 01d9 40010000 		.4byte	.LASF38
 431 01dd 08       		.byte	0x8
 432 01de B9       		.byte	0xb9
 433 01df F9000000 		.4byte	0xf9
 434 01e3 21       		.byte	0x21
 435 01e4 08       		.uleb128 0x8
 436 01e5 D8010000 		.4byte	.LASF39
 437 01e9 08       		.byte	0x8
 438 01ea BE       		.byte	0xbe
 439 01eb 0F010000 		.4byte	0x10f
 440 01ef 22       		.byte	0x22
 441 01f0 08       		.uleb128 0x8
 442 01f1 69070000 		.4byte	.LASF40
 443 01f5 08       		.byte	0x8
 444 01f6 C4       		.byte	0xc4
 445 01f7 1A010000 		.4byte	0x11a
 446 01fb 23       		.byte	0x23
 447 01fc 0A       		.uleb128 0xa
 448 01fd 7500     		.ascii	"u\000"
 449 01ff 08       		.byte	0x8
ARM GAS  /var/folders/t8/16hdwfmd2fg_d3q6dgx6bpmw0000gn/T//cc9oHqFa.s 			page 9


 450 0200 0F01     		.2byte	0x10f
 451 0202 76050000 		.4byte	0x576
 452 0206 24       		.byte	0x24
 453 0207 0B       		.uleb128 0xb
 454 0208 AB080000 		.4byte	.LASF41
 455 020c 08       		.byte	0x8
 456 020d 1401     		.2byte	0x114
 457 020f 67020000 		.4byte	0x267
 458 0213 28       		.byte	0x28
 459 0214 0B       		.uleb128 0xb
 460 0215 70050000 		.4byte	.LASF42
 461 0219 08       		.byte	0x8
 462 021a 1A01     		.2byte	0x11a
 463 021c 8B020000 		.4byte	0x28b
 464 0220 2C       		.byte	0x2c
 465 0221 0B       		.uleb128 0xb
 466 0222 70010000 		.4byte	.LASF43
 467 0226 08       		.byte	0x8
 468 0227 2001     		.2byte	0x120
 469 0229 3B010000 		.4byte	0x13b
 470 022d 34       		.byte	0x34
 471 022e 0B       		.uleb128 0xb
 472 022f FA030000 		.4byte	.LASF44
 473 0233 08       		.byte	0x8
 474 0234 2701     		.2byte	0x127
 475 0236 3B060000 		.4byte	0x63b
 476 023a 38       		.byte	0x38
 477 023b 0B       		.uleb128 0xb
 478 023c 50010000 		.4byte	.LASF45
 479 0240 08       		.byte	0x8
 480 0241 2B01     		.2byte	0x12b
 481 0243 25010000 		.4byte	0x125
 482 0247 3C       		.byte	0x3c
 483 0248 0B       		.uleb128 0xb
 484 0249 490A0000 		.4byte	.LASF46
 485 024d 08       		.byte	0x8
 486 024e 3201     		.2byte	0x132
 487 0250 3E030000 		.4byte	0x33e
 488 0254 40       		.byte	0x40
 489 0255 00       		.byte	0
 490 0256 03       		.uleb128 0x3
 491 0257 13050000 		.4byte	.LASF47
 492 025b 07       		.byte	0x7
 493 025c 44       		.byte	0x44
 494 025d 61020000 		.4byte	0x261
 495 0261 0C       		.uleb128 0xc
 496 0262 04       		.byte	0x4
 497 0263 61010000 		.4byte	0x161
 498 0267 03       		.uleb128 0x3
 499 0268 93010000 		.4byte	.LASF48
 500 026c 07       		.byte	0x7
 501 026d 49       		.byte	0x49
 502 026e 72020000 		.4byte	0x272
 503 0272 07       		.uleb128 0x7
 504 0273 00000000 		.4byte	.LASF50
 505 0277 04       		.byte	0x4
 506 0278 08       		.byte	0x8
ARM GAS  /var/folders/t8/16hdwfmd2fg_d3q6dgx6bpmw0000gn/T//cc9oHqFa.s 			page 10


 507 0279 88       		.byte	0x88
 508 027a 8B020000 		.4byte	0x28b
 509 027e 08       		.uleb128 0x8
 510 027f 86010000 		.4byte	.LASF51
 511 0283 08       		.byte	0x8
 512 0284 89       		.byte	0x89
 513 0285 61020000 		.4byte	0x261
 514 0289 00       		.byte	0
 515 028a 00       		.byte	0
 516 028b 03       		.uleb128 0x3
 517 028c E4030000 		.4byte	.LASF52
 518 0290 07       		.byte	0x7
 519 0291 50       		.byte	0x50
 520 0292 96020000 		.4byte	0x296
 521 0296 07       		.uleb128 0x7
 522 0297 51020000 		.4byte	.LASF53
 523 029b 08       		.byte	0x8
 524 029c 08       		.byte	0x8
 525 029d 8F       		.byte	0x8f
 526 029e BB020000 		.4byte	0x2bb
 527 02a2 08       		.uleb128 0x8
 528 02a3 86010000 		.4byte	.LASF51
 529 02a7 08       		.byte	0x8
 530 02a8 90       		.byte	0x90
 531 02a9 61020000 		.4byte	0x261
 532 02ad 00       		.byte	0
 533 02ae 08       		.uleb128 0x8
 534 02af 4C020000 		.4byte	.LASF54
 535 02b3 08       		.byte	0x8
 536 02b4 91       		.byte	0x91
 537 02b5 61020000 		.4byte	0x261
 538 02b9 04       		.byte	0x4
 539 02ba 00       		.byte	0
 540 02bb 03       		.uleb128 0x3
 541 02bc 40080000 		.4byte	.LASF55
 542 02c0 07       		.byte	0x7
 543 02c1 57       		.byte	0x57
 544 02c2 C6020000 		.4byte	0x2c6
 545 02c6 0D       		.uleb128 0xd
 546 02c7 2D020000 		.4byte	.LASF56
 547 02cb 1C       		.byte	0x1c
 548 02cc 08       		.byte	0x8
 549 02cd 6A01     		.2byte	0x16a
 550 02cf 22030000 		.4byte	0x322
 551 02d3 0B       		.uleb128 0xb
 552 02d4 56080000 		.4byte	.LASF31
 553 02d8 08       		.byte	0x8
 554 02d9 6B01     		.2byte	0x16b
 555 02db 8B020000 		.4byte	0x28b
 556 02df 00       		.byte	0
 557 02e0 0B       		.uleb128 0xb
 558 02e1 EC040000 		.4byte	.LASF32
 559 02e5 08       		.byte	0x8
 560 02e6 6C01     		.2byte	0x16c
 561 02e8 25010000 		.4byte	0x125
 562 02ec 08       		.byte	0x8
 563 02ed 0A       		.uleb128 0xa
ARM GAS  /var/folders/t8/16hdwfmd2fg_d3q6dgx6bpmw0000gn/T//cc9oHqFa.s 			page 11


 564 02ee 63747800 		.ascii	"ctx\000"
 565 02f2 08       		.byte	0x8
 566 02f3 6E01     		.2byte	0x16e
 567 02f5 E6040000 		.4byte	0x4e6
 568 02f9 0C       		.byte	0xc
 569 02fa 0B       		.uleb128 0xb
 570 02fb 7F080000 		.4byte	.LASF33
 571 02ff 08       		.byte	0x8
 572 0300 7101     		.2byte	0x171
 573 0302 61020000 		.4byte	0x261
 574 0306 10       		.byte	0x10
 575 0307 0B       		.uleb128 0xb
 576 0308 2B0A0000 		.4byte	.LASF34
 577 030c 08       		.byte	0x8
 578 030d 7201     		.2byte	0x172
 579 030f 61020000 		.4byte	0x261
 580 0313 14       		.byte	0x14
 581 0314 0B       		.uleb128 0xb
 582 0315 95090000 		.4byte	.LASF57
 583 0319 08       		.byte	0x8
 584 031a 7501     		.2byte	0x175
 585 031c 61020000 		.4byte	0x261
 586 0320 18       		.byte	0x18
 587 0321 00       		.byte	0
 588 0322 03       		.uleb128 0x3
 589 0323 87020000 		.4byte	.LASF58
 590 0327 07       		.byte	0x7
 591 0328 5C       		.byte	0x5c
 592 0329 2D030000 		.4byte	0x32d
 593 032d 0C       		.uleb128 0xc
 594 032e 04       		.byte	0x4
 595 032f 33030000 		.4byte	0x333
 596 0333 0E       		.uleb128 0xe
 597 0334 3E030000 		.4byte	0x33e
 598 0338 0F       		.uleb128 0xf
 599 0339 3E030000 		.4byte	0x33e
 600 033d 00       		.byte	0
 601 033e 10       		.uleb128 0x10
 602 033f 04       		.byte	0x4
 603 0340 03       		.uleb128 0x3
 604 0341 ED050000 		.4byte	.LASF59
 605 0345 07       		.byte	0x7
 606 0346 61       		.byte	0x61
 607 0347 4B030000 		.4byte	0x34b
 608 034b 0D       		.uleb128 0xd
 609 034c 3F030000 		.4byte	.LASF60
 610 0350 14       		.byte	0x14
 611 0351 08       		.byte	0x8
 612 0352 4501     		.2byte	0x145
 613 0354 9A030000 		.4byte	0x39a
 614 0358 0B       		.uleb128 0xb
 615 0359 86010000 		.4byte	.LASF51
 616 035d 08       		.byte	0x8
 617 035e 4601     		.2byte	0x146
 618 0360 5E060000 		.4byte	0x65e
 619 0364 00       		.byte	0
 620 0365 0B       		.uleb128 0xb
ARM GAS  /var/folders/t8/16hdwfmd2fg_d3q6dgx6bpmw0000gn/T//cc9oHqFa.s 			page 12


 621 0366 4C020000 		.4byte	.LASF54
 622 036a 08       		.byte	0x8
 623 036b 4701     		.2byte	0x147
 624 036d 5E060000 		.4byte	0x65e
 625 0371 04       		.byte	0x4
 626 0372 0B       		.uleb128 0xb
 627 0373 68090000 		.4byte	.LASF61
 628 0377 08       		.byte	0x8
 629 0378 4801     		.2byte	0x148
 630 037a 51010000 		.4byte	0x151
 631 037e 08       		.byte	0x8
 632 037f 0B       		.uleb128 0xb
 633 0380 3B020000 		.4byte	.LASF62
 634 0384 08       		.byte	0x8
 635 0385 4901     		.2byte	0x149
 636 0387 22030000 		.4byte	0x322
 637 038b 0C       		.byte	0xc
 638 038c 0A       		.uleb128 0xa
 639 038d 70617200 		.ascii	"par\000"
 640 0391 08       		.byte	0x8
 641 0392 4B01     		.2byte	0x14b
 642 0394 3E030000 		.4byte	0x33e
 643 0398 10       		.byte	0x10
 644 0399 00       		.byte	0
 645 039a 03       		.uleb128 0x3
 646 039b C1080000 		.4byte	.LASF63
 647 039f 07       		.byte	0x7
 648 03a0 66       		.byte	0x66
 649 03a1 A5030000 		.4byte	0x3a5
 650 03a5 0D       		.uleb128 0xd
 651 03a6 02040000 		.4byte	.LASF64
 652 03aa 10       		.byte	0x10
 653 03ab 08       		.byte	0x8
 654 03ac 5501     		.2byte	0x155
 655 03ae E7030000 		.4byte	0x3e7
 656 03b2 0B       		.uleb128 0xb
 657 03b3 86010000 		.4byte	.LASF51
 658 03b7 08       		.byte	0x8
 659 03b8 5601     		.2byte	0x156
 660 03ba 5E060000 		.4byte	0x65e
 661 03be 00       		.byte	0
 662 03bf 0B       		.uleb128 0xb
 663 03c0 4C020000 		.4byte	.LASF54
 664 03c4 08       		.byte	0x8
 665 03c5 5801     		.2byte	0x158
 666 03c7 5E060000 		.4byte	0x65e
 667 03cb 04       		.byte	0x4
 668 03cc 0B       		.uleb128 0xb
 669 03cd 68090000 		.4byte	.LASF61
 670 03d1 08       		.byte	0x8
 671 03d2 5A01     		.2byte	0x15a
 672 03d4 51010000 		.4byte	0x151
 673 03d8 08       		.byte	0x8
 674 03d9 0B       		.uleb128 0xb
 675 03da F7060000 		.4byte	.LASF65
 676 03de 08       		.byte	0x8
 677 03df 5C01     		.2byte	0x15c
ARM GAS  /var/folders/t8/16hdwfmd2fg_d3q6dgx6bpmw0000gn/T//cc9oHqFa.s 			page 13


 678 03e1 5C010000 		.4byte	0x15c
 679 03e5 0C       		.byte	0xc
 680 03e6 00       		.byte	0
 681 03e7 03       		.uleb128 0x3
 682 03e8 AA050000 		.4byte	.LASF66
 683 03ec 07       		.byte	0x7
 684 03ed 6B       		.byte	0x6b
 685 03ee F2030000 		.4byte	0x3f2
 686 03f2 0D       		.uleb128 0xd
 687 03f3 B9020000 		.4byte	.LASF67
 688 03f7 0C       		.byte	0xc
 689 03f8 08       		.byte	0x8
 690 03f9 7C01     		.2byte	0x17c
 691 03fb 27040000 		.4byte	0x427
 692 03ff 0B       		.uleb128 0xb
 693 0400 D7060000 		.4byte	.LASF68
 694 0404 08       		.byte	0x8
 695 0405 8401     		.2byte	0x184
 696 0407 47060000 		.4byte	0x647
 697 040b 00       		.byte	0
 698 040c 0B       		.uleb128 0xb
 699 040d D6030000 		.4byte	.LASF69
 700 0411 08       		.byte	0x8
 701 0412 8901     		.2byte	0x189
 702 0414 46010000 		.4byte	0x146
 703 0418 04       		.byte	0x4
 704 0419 0B       		.uleb128 0xb
 705 041a 2F070000 		.4byte	.LASF70
 706 041e 08       		.byte	0x8
 707 041f 8D01     		.2byte	0x18d
 708 0421 46010000 		.4byte	0x146
 709 0425 08       		.byte	0x8
 710 0426 00       		.byte	0
 711 0427 03       		.uleb128 0x3
 712 0428 39090000 		.4byte	.LASF71
 713 042c 07       		.byte	0x7
 714 042d 70       		.byte	0x70
 715 042e 32040000 		.4byte	0x432
 716 0432 0D       		.uleb128 0xd
 717 0433 A4070000 		.4byte	.LASF72
 718 0437 7C       		.byte	0x7c
 719 0438 08       		.byte	0x8
 720 0439 9C01     		.2byte	0x19c
 721 043b 74040000 		.4byte	0x474
 722 043f 0B       		.uleb128 0xb
 723 0440 B7070000 		.4byte	.LASF73
 724 0444 08       		.byte	0x8
 725 0445 A001     		.2byte	0x1a0
 726 0447 BB020000 		.4byte	0x2bb
 727 044b 00       		.byte	0
 728 044c 0B       		.uleb128 0xb
 729 044d 11020000 		.4byte	.LASF74
 730 0451 08       		.byte	0x8
 731 0452 A401     		.2byte	0x1a4
 732 0454 9A030000 		.4byte	0x39a
 733 0458 1C       		.byte	0x1c
 734 0459 0A       		.uleb128 0xa
ARM GAS  /var/folders/t8/16hdwfmd2fg_d3q6dgx6bpmw0000gn/T//cc9oHqFa.s 			page 14


 735 045a 64626700 		.ascii	"dbg\000"
 736 045e 08       		.byte	0x8
 737 045f A801     		.2byte	0x1a8
 738 0461 E7030000 		.4byte	0x3e7
 739 0465 2C       		.byte	0x2c
 740 0466 0B       		.uleb128 0xb
 741 0467 FF060000 		.4byte	.LASF75
 742 046b 08       		.byte	0x8
 743 046c AC01     		.2byte	0x1ac
 744 046e 61010000 		.4byte	0x161
 745 0472 38       		.byte	0x38
 746 0473 00       		.byte	0
 747 0474 11       		.uleb128 0x11
 748 0475 18       		.byte	0x18
 749 0476 09       		.byte	0x9
 750 0477 C5       		.byte	0xc5
 751 0478 C5040000 		.4byte	0x4c5
 752 047c 08       		.uleb128 0x8
 753 047d DF090000 		.4byte	.LASF76
 754 0481 09       		.byte	0x9
 755 0482 C7       		.byte	0xc7
 756 0483 DE000000 		.4byte	0xde
 757 0487 00       		.byte	0
 758 0488 08       		.uleb128 0x8
 759 0489 57090000 		.4byte	.LASF77
 760 048d 09       		.byte	0x9
 761 048e C8       		.byte	0xc8
 762 048f DE000000 		.4byte	0xde
 763 0493 04       		.byte	0x4
 764 0494 08       		.uleb128 0x8
 765 0495 33060000 		.4byte	.LASF78
 766 0499 09       		.byte	0x9
 767 049a C9       		.byte	0xc9
 768 049b DE000000 		.4byte	0xde
 769 049f 08       		.byte	0x8
 770 04a0 08       		.uleb128 0x8
 771 04a1 20040000 		.4byte	.LASF79
 772 04a5 09       		.byte	0x9
 773 04a6 CA       		.byte	0xca
 774 04a7 DE000000 		.4byte	0xde
 775 04ab 0C       		.byte	0xc
 776 04ac 08       		.uleb128 0x8
 777 04ad 40060000 		.4byte	.LASF80
 778 04b1 09       		.byte	0x9
 779 04b2 CB       		.byte	0xcb
 780 04b3 DE000000 		.4byte	0xde
 781 04b7 10       		.byte	0x10
 782 04b8 08       		.uleb128 0x8
 783 04b9 64030000 		.4byte	.LASF81
 784 04bd 09       		.byte	0x9
 785 04be CC       		.byte	0xcc
 786 04bf DE000000 		.4byte	0xde
 787 04c3 14       		.byte	0x14
 788 04c4 00       		.byte	0
 789 04c5 03       		.uleb128 0x3
 790 04c6 F0070000 		.4byte	.LASF82
 791 04ca 09       		.byte	0x9
ARM GAS  /var/folders/t8/16hdwfmd2fg_d3q6dgx6bpmw0000gn/T//cc9oHqFa.s 			page 15


 792 04cb CD       		.byte	0xcd
 793 04cc 74040000 		.4byte	0x474
 794 04d0 03       		.uleb128 0x3
 795 04d1 09010000 		.4byte	.LASF83
 796 04d5 0A       		.byte	0xa
 797 04d6 65       		.byte	0x65
 798 04d7 3E030000 		.4byte	0x33e
 799 04db 03       		.uleb128 0x3
 800 04dc 81090000 		.4byte	.LASF84
 801 04e0 0A       		.byte	0xa
 802 04e1 6D       		.byte	0x6d
 803 04e2 E3000000 		.4byte	0xe3
 804 04e6 07       		.uleb128 0x7
 805 04e7 20020000 		.4byte	.LASF85
 806 04eb 04       		.byte	0x4
 807 04ec 0A       		.byte	0xa
 808 04ed 89       		.byte	0x89
 809 04ee FE040000 		.4byte	0x4fe
 810 04f2 09       		.uleb128 0x9
 811 04f3 737000   		.ascii	"sp\000"
 812 04f6 0A       		.byte	0xa
 813 04f7 8A       		.byte	0x8a
 814 04f8 70050000 		.4byte	0x570
 815 04fc 00       		.byte	0
 816 04fd 00       		.byte	0
 817 04fe 07       		.uleb128 0x7
 818 04ff 5D070000 		.4byte	.LASF86
 819 0503 24       		.byte	0x24
 820 0504 0B       		.byte	0xb
 821 0505 C3       		.byte	0xc3
 822 0506 70050000 		.4byte	0x570
 823 050a 09       		.uleb128 0x9
 824 050b 723800   		.ascii	"r8\000"
 825 050e 0B       		.byte	0xb
 826 050f C4       		.byte	0xc4
 827 0510 D0040000 		.4byte	0x4d0
 828 0514 00       		.byte	0
 829 0515 09       		.uleb128 0x9
 830 0516 723900   		.ascii	"r9\000"
 831 0519 0B       		.byte	0xb
 832 051a C5       		.byte	0xc5
 833 051b D0040000 		.4byte	0x4d0
 834 051f 04       		.byte	0x4
 835 0520 09       		.uleb128 0x9
 836 0521 72313000 		.ascii	"r10\000"
 837 0525 0B       		.byte	0xb
 838 0526 C6       		.byte	0xc6
 839 0527 D0040000 		.4byte	0x4d0
 840 052b 08       		.byte	0x8
 841 052c 09       		.uleb128 0x9
 842 052d 72313100 		.ascii	"r11\000"
 843 0531 0B       		.byte	0xb
 844 0532 C7       		.byte	0xc7
 845 0533 D0040000 		.4byte	0x4d0
 846 0537 0C       		.byte	0xc
 847 0538 09       		.uleb128 0x9
 848 0539 723400   		.ascii	"r4\000"
ARM GAS  /var/folders/t8/16hdwfmd2fg_d3q6dgx6bpmw0000gn/T//cc9oHqFa.s 			page 16


 849 053c 0B       		.byte	0xb
 850 053d C8       		.byte	0xc8
 851 053e D0040000 		.4byte	0x4d0
 852 0542 10       		.byte	0x10
 853 0543 09       		.uleb128 0x9
 854 0544 723500   		.ascii	"r5\000"
 855 0547 0B       		.byte	0xb
 856 0548 C9       		.byte	0xc9
 857 0549 D0040000 		.4byte	0x4d0
 858 054d 14       		.byte	0x14
 859 054e 09       		.uleb128 0x9
 860 054f 723600   		.ascii	"r6\000"
 861 0552 0B       		.byte	0xb
 862 0553 CA       		.byte	0xca
 863 0554 D0040000 		.4byte	0x4d0
 864 0558 18       		.byte	0x18
 865 0559 09       		.uleb128 0x9
 866 055a 723700   		.ascii	"r7\000"
 867 055d 0B       		.byte	0xb
 868 055e CB       		.byte	0xcb
 869 055f D0040000 		.4byte	0x4d0
 870 0563 1C       		.byte	0x1c
 871 0564 09       		.uleb128 0x9
 872 0565 6C7200   		.ascii	"lr\000"
 873 0568 0B       		.byte	0xb
 874 0569 CC       		.byte	0xcc
 875 056a D0040000 		.4byte	0x4d0
 876 056e 20       		.byte	0x20
 877 056f 00       		.byte	0
 878 0570 0C       		.uleb128 0xc
 879 0571 04       		.byte	0x4
 880 0572 FE040000 		.4byte	0x4fe
 881 0576 12       		.uleb128 0x12
 882 0577 04       		.byte	0x4
 883 0578 08       		.byte	0x8
 884 0579 D2       		.byte	0xd2
 885 057a D9050000 		.4byte	0x5d9
 886 057e 13       		.uleb128 0x13
 887 057f 49040000 		.4byte	.LASF87
 888 0583 08       		.byte	0x8
 889 0584 D9       		.byte	0xd9
 890 0585 30010000 		.4byte	0x130
 891 0589 13       		.uleb128 0x13
 892 058a 310A0000 		.4byte	.LASF88
 893 058e 08       		.byte	0x8
 894 058f E0       		.byte	0xe0
 895 0590 30010000 		.4byte	0x130
 896 0594 13       		.uleb128 0x13
 897 0595 01020000 		.4byte	.LASF89
 898 0599 08       		.byte	0x8
 899 059a E7       		.byte	0xe7
 900 059b 3E030000 		.4byte	0x33e
 901 059f 13       		.uleb128 0x13
 902 05a0 45090000 		.4byte	.LASF90
 903 05a4 08       		.byte	0x8
 904 05a5 EE       		.byte	0xee
 905 05a6 D9050000 		.4byte	0x5d9
ARM GAS  /var/folders/t8/16hdwfmd2fg_d3q6dgx6bpmw0000gn/T//cc9oHqFa.s 			page 17


 906 05aa 13       		.uleb128 0x13
 907 05ab 0B030000 		.4byte	.LASF91
 908 05af 08       		.byte	0x8
 909 05b0 F3       		.byte	0xf3
 910 05b1 30010000 		.4byte	0x130
 911 05b5 13       		.uleb128 0x13
 912 05b6 70080000 		.4byte	.LASF92
 913 05ba 08       		.byte	0x8
 914 05bb FC       		.byte	0xfc
 915 05bc 04060000 		.4byte	0x604
 916 05c0 14       		.uleb128 0x14
 917 05c1 02010000 		.4byte	.LASF93
 918 05c5 08       		.byte	0x8
 919 05c6 0501     		.2byte	0x105
 920 05c8 3B060000 		.4byte	0x63b
 921 05cc 14       		.uleb128 0x14
 922 05cd 40020000 		.4byte	.LASF94
 923 05d1 08       		.byte	0x8
 924 05d2 0D01     		.2byte	0x10d
 925 05d4 3B010000 		.4byte	0x13b
 926 05d8 00       		.byte	0
 927 05d9 0C       		.uleb128 0xc
 928 05da 04       		.byte	0x4
 929 05db 56020000 		.4byte	0x256
 930 05df 07       		.uleb128 0x7
 931 05e0 2A030000 		.4byte	.LASF95
 932 05e4 0C       		.byte	0xc
 933 05e5 0C       		.byte	0xc
 934 05e6 34       		.byte	0x34
 935 05e7 04060000 		.4byte	0x604
 936 05eb 08       		.uleb128 0x8
 937 05ec 56080000 		.4byte	.LASF31
 938 05f0 0C       		.byte	0xc
 939 05f1 35       		.byte	0x35
 940 05f2 8B020000 		.4byte	0x28b
 941 05f6 00       		.byte	0
 942 05f7 09       		.uleb128 0x9
 943 05f8 636E7400 		.ascii	"cnt\000"
 944 05fc 0C       		.byte	0xc
 945 05fd 37       		.byte	0x37
 946 05fe 46010000 		.4byte	0x146
 947 0602 08       		.byte	0x8
 948 0603 00       		.byte	0
 949 0604 0C       		.uleb128 0xc
 950 0605 04       		.byte	0x4
 951 0606 DF050000 		.4byte	0x5df
 952 060a 07       		.uleb128 0x7
 953 060b 7B040000 		.4byte	.LASF96
 954 060f 10       		.byte	0x10
 955 0610 0D       		.byte	0xd
 956 0611 39       		.byte	0x39
 957 0612 3B060000 		.4byte	0x63b
 958 0616 08       		.uleb128 0x8
 959 0617 56080000 		.4byte	.LASF31
 960 061b 0D       		.byte	0xd
 961 061c 3A       		.byte	0x3a
 962 061d 8B020000 		.4byte	0x28b
ARM GAS  /var/folders/t8/16hdwfmd2fg_d3q6dgx6bpmw0000gn/T//cc9oHqFa.s 			page 18


 963 0621 00       		.byte	0
 964 0622 08       		.uleb128 0x8
 965 0623 DE030000 		.4byte	.LASF97
 966 0627 0D       		.byte	0xd
 967 0628 3C       		.byte	0x3c
 968 0629 61020000 		.4byte	0x261
 969 062d 08       		.byte	0x8
 970 062e 08       		.uleb128 0x8
 971 062f 86010000 		.4byte	.LASF51
 972 0633 0D       		.byte	0xd
 973 0634 3E       		.byte	0x3e
 974 0635 9D070000 		.4byte	0x79d
 975 0639 0C       		.byte	0xc
 976 063a 00       		.byte	0
 977 063b 0C       		.uleb128 0xc
 978 063c 04       		.byte	0x4
 979 063d 0A060000 		.4byte	0x60a
 980 0641 0C       		.uleb128 0xc
 981 0642 04       		.byte	0x4
 982 0643 53060000 		.4byte	0x653
 983 0647 06       		.uleb128 0x6
 984 0648 41060000 		.4byte	0x641
 985 064c 04       		.uleb128 0x4
 986 064d 01       		.byte	0x1
 987 064e 08       		.byte	0x8
 988 064f 03050000 		.4byte	.LASF98
 989 0653 05       		.uleb128 0x5
 990 0654 4C060000 		.4byte	0x64c
 991 0658 0C       		.uleb128 0xc
 992 0659 04       		.byte	0x4
 993 065a DB040000 		.4byte	0x4db
 994 065e 0C       		.uleb128 0xc
 995 065f 04       		.byte	0x4
 996 0660 40030000 		.4byte	0x340
 997 0664 15       		.uleb128 0x15
 998 0665 636800   		.ascii	"ch\000"
 999 0668 08       		.byte	0x8
 1000 0669 D201     		.2byte	0x1d2
 1001 066b 27040000 		.4byte	0x427
 1002 066f 16       		.uleb128 0x16
 1003 0670 DB040000 		.4byte	0x4db
 1004 0674 7A060000 		.4byte	0x67a
 1005 0678 17       		.uleb128 0x17
 1006 0679 00       		.byte	0
 1007 067a 18       		.uleb128 0x18
 1008 067b 2D050000 		.4byte	.LASF99
 1009 067f 0F       		.byte	0xf
 1010 0680 2B01     		.2byte	0x12b
 1011 0682 6F060000 		.4byte	0x66f
 1012 0686 11       		.uleb128 0x11
 1013 0687 16       		.byte	0x16
 1014 0688 0E       		.byte	0xe
 1015 0689 34       		.byte	0x34
 1016 068a 67070000 		.4byte	0x767
 1017 068e 08       		.uleb128 0x8
 1018 068f FD070000 		.4byte	.LASF100
 1019 0693 0E       		.byte	0xe
ARM GAS  /var/folders/t8/16hdwfmd2fg_d3q6dgx6bpmw0000gn/T//cc9oHqFa.s 			page 19


 1020 0694 35       		.byte	0x35
 1021 0695 67070000 		.4byte	0x767
 1022 0699 00       		.byte	0
 1023 069a 08       		.uleb128 0x8
 1024 069b D3050000 		.4byte	.LASF101
 1025 069f 0E       		.byte	0xe
 1026 06a0 36       		.byte	0x36
 1027 06a1 AD000000 		.4byte	0xad
 1028 06a5 04       		.byte	0x4
 1029 06a6 08       		.uleb128 0x8
 1030 06a7 2E060000 		.4byte	.LASF102
 1031 06ab 0E       		.byte	0xe
 1032 06ac 37       		.byte	0x37
 1033 06ad AD000000 		.4byte	0xad
 1034 06b1 05       		.byte	0x5
 1035 06b2 08       		.uleb128 0x8
 1036 06b3 8B010000 		.4byte	.LASF103
 1037 06b7 0E       		.byte	0xe
 1038 06b8 38       		.byte	0x38
 1039 06b9 BD000000 		.4byte	0xbd
 1040 06bd 06       		.byte	0x6
 1041 06be 08       		.uleb128 0x8
 1042 06bf 38060000 		.4byte	.LASF104
 1043 06c3 0E       		.byte	0xe
 1044 06c4 39       		.byte	0x39
 1045 06c5 AD000000 		.4byte	0xad
 1046 06c9 08       		.byte	0x8
 1047 06ca 08       		.uleb128 0x8
 1048 06cb 10000000 		.4byte	.LASF105
 1049 06cf 0E       		.byte	0xe
 1050 06d0 3A       		.byte	0x3a
 1051 06d1 AD000000 		.4byte	0xad
 1052 06d5 09       		.byte	0x9
 1053 06d6 08       		.uleb128 0x8
 1054 06d7 1F030000 		.4byte	.LASF106
 1055 06db 0E       		.byte	0xe
 1056 06dc 3B       		.byte	0x3b
 1057 06dd AD000000 		.4byte	0xad
 1058 06e1 0A       		.byte	0xa
 1059 06e2 08       		.uleb128 0x8
 1060 06e3 26070000 		.4byte	.LASF107
 1061 06e7 0E       		.byte	0xe
 1062 06e8 3C       		.byte	0x3c
 1063 06e9 AD000000 		.4byte	0xad
 1064 06ed 0B       		.byte	0xb
 1065 06ee 08       		.uleb128 0x8
 1066 06ef C8040000 		.4byte	.LASF108
 1067 06f3 0E       		.byte	0xe
 1068 06f4 3D       		.byte	0x3d
 1069 06f5 AD000000 		.4byte	0xad
 1070 06f9 0C       		.byte	0xc
 1071 06fa 08       		.uleb128 0x8
 1072 06fb 7D020000 		.4byte	.LASF109
 1073 06ff 0E       		.byte	0xe
 1074 0700 3E       		.byte	0x3e
 1075 0701 AD000000 		.4byte	0xad
 1076 0705 0D       		.byte	0xd
ARM GAS  /var/folders/t8/16hdwfmd2fg_d3q6dgx6bpmw0000gn/T//cc9oHqFa.s 			page 20


 1077 0706 08       		.uleb128 0x8
 1078 0707 2E040000 		.4byte	.LASF110
 1079 070b 0E       		.byte	0xe
 1080 070c 3F       		.byte	0x3f
 1081 070d AD000000 		.4byte	0xad
 1082 0711 0E       		.byte	0xe
 1083 0712 08       		.uleb128 0x8
 1084 0713 83050000 		.4byte	.LASF111
 1085 0717 0E       		.byte	0xe
 1086 0718 40       		.byte	0x40
 1087 0719 AD000000 		.4byte	0xad
 1088 071d 0F       		.byte	0xf
 1089 071e 08       		.uleb128 0x8
 1090 071f C9030000 		.4byte	.LASF112
 1091 0723 0E       		.byte	0xe
 1092 0724 41       		.byte	0x41
 1093 0725 AD000000 		.4byte	0xad
 1094 0729 10       		.byte	0x10
 1095 072a 08       		.uleb128 0x8
 1096 072b 38040000 		.4byte	.LASF113
 1097 072f 0E       		.byte	0xe
 1098 0730 42       		.byte	0x42
 1099 0731 AD000000 		.4byte	0xad
 1100 0735 11       		.byte	0x11
 1101 0736 08       		.uleb128 0x8
 1102 0737 E2040000 		.4byte	.LASF114
 1103 073b 0E       		.byte	0xe
 1104 073c 43       		.byte	0x43
 1105 073d AD000000 		.4byte	0xad
 1106 0741 12       		.byte	0x12
 1107 0742 08       		.uleb128 0x8
 1108 0743 8C090000 		.4byte	.LASF115
 1109 0747 0E       		.byte	0xe
 1110 0748 44       		.byte	0x44
 1111 0749 AD000000 		.4byte	0xad
 1112 074d 13       		.byte	0x13
 1113 074e 08       		.uleb128 0x8
 1114 074f 08080000 		.4byte	.LASF116
 1115 0753 0E       		.byte	0xe
 1116 0754 45       		.byte	0x45
 1117 0755 AD000000 		.4byte	0xad
 1118 0759 14       		.byte	0x14
 1119 075a 08       		.uleb128 0x8
 1120 075b E6010000 		.4byte	.LASF117
 1121 075f 0E       		.byte	0xe
 1122 0760 46       		.byte	0x46
 1123 0761 AD000000 		.4byte	0xad
 1124 0765 15       		.byte	0x15
 1125 0766 00       		.byte	0
 1126 0767 16       		.uleb128 0x16
 1127 0768 4C060000 		.4byte	0x64c
 1128 076c 77070000 		.4byte	0x777
 1129 0770 19       		.uleb128 0x19
 1130 0771 37000000 		.4byte	0x37
 1131 0775 03       		.byte	0x3
 1132 0776 00       		.byte	0
 1133 0777 03       		.uleb128 0x3
ARM GAS  /var/folders/t8/16hdwfmd2fg_d3q6dgx6bpmw0000gn/T//cc9oHqFa.s 			page 21


 1134 0778 1C070000 		.4byte	.LASF118
 1135 077c 0E       		.byte	0xe
 1136 077d 47       		.byte	0x47
 1137 077e 86060000 		.4byte	0x686
 1138 0782 05       		.uleb128 0x5
 1139 0783 77070000 		.4byte	0x777
 1140 0787 1A       		.uleb128 0x1a
 1141 0788 A6090000 		.4byte	.LASF119
 1142 078c 0E       		.byte	0xe
 1143 078d 6C       		.byte	0x6c
 1144 078e 82070000 		.4byte	0x782
 1145 0792 03       		.uleb128 0x3
 1146 0793 77080000 		.4byte	.LASF120
 1147 0797 0D       		.byte	0xd
 1148 0798 34       		.byte	0x34
 1149 0799 0A060000 		.4byte	0x60a
 1150 079d 0C       		.uleb128 0xc
 1151 079e 04       		.byte	0x4
 1152 079f 92070000 		.4byte	0x792
 1153 07a3 0C       		.uleb128 0xc
 1154 07a4 04       		.byte	0x4
 1155 07a5 B8000000 		.4byte	0xb8
 1156 07a9 0C       		.uleb128 0xc
 1157 07aa 04       		.byte	0x4
 1158 07ab AD000000 		.4byte	0xad
 1159 07af 04       		.uleb128 0x4
 1160 07b0 01       		.byte	0x1
 1161 07b1 02       		.byte	0x2
 1162 07b2 75040000 		.4byte	.LASF121
 1163 07b6 03       		.uleb128 0x3
 1164 07b7 FD050000 		.4byte	.LASF122
 1165 07bb 10       		.byte	0x10
 1166 07bc 41       		.byte	0x41
 1167 07bd D3000000 		.4byte	0xd3
 1168 07c1 03       		.uleb128 0x3
 1169 07c2 0A060000 		.4byte	.LASF123
 1170 07c6 10       		.byte	0x10
 1171 07c7 46       		.byte	0x46
 1172 07c8 D3000000 		.4byte	0xd3
 1173 07cc 03       		.uleb128 0x3
 1174 07cd D0040000 		.4byte	.LASF124
 1175 07d1 10       		.byte	0x10
 1176 07d2 53       		.byte	0x53
 1177 07d3 D7070000 		.4byte	0x7d7
 1178 07d7 0C       		.uleb128 0xc
 1179 07d8 04       		.byte	0x4
 1180 07d9 C5040000 		.4byte	0x4c5
 1181 07dd 11       		.uleb128 0x11
 1182 07de 84       		.byte	0x84
 1183 07df 10       		.byte	0x10
 1184 07e0 5A       		.byte	0x5a
 1185 07e1 FE070000 		.4byte	0x7fe
 1186 07e5 08       		.uleb128 0x8
 1187 07e6 64080000 		.4byte	.LASF125
 1188 07ea 10       		.byte	0x10
 1189 07eb 5B       		.byte	0x5b
 1190 07ec CC070000 		.4byte	0x7cc
ARM GAS  /var/folders/t8/16hdwfmd2fg_d3q6dgx6bpmw0000gn/T//cc9oHqFa.s 			page 22


 1191 07f0 00       		.byte	0
 1192 07f1 08       		.uleb128 0x8
 1193 07f2 57040000 		.4byte	.LASF126
 1194 07f6 10       		.byte	0x10
 1195 07f7 5C       		.byte	0x5c
 1196 07f8 FE070000 		.4byte	0x7fe
 1197 07fc 04       		.byte	0x4
 1198 07fd 00       		.byte	0
 1199 07fe 16       		.uleb128 0x16
 1200 07ff C1070000 		.4byte	0x7c1
 1201 0803 0E080000 		.4byte	0x80e
 1202 0807 19       		.uleb128 0x19
 1203 0808 37000000 		.4byte	0x37
 1204 080c 1F       		.byte	0x1f
 1205 080d 00       		.byte	0
 1206 080e 03       		.uleb128 0x3
 1207 080f E4090000 		.4byte	.LASF127
 1208 0813 10       		.byte	0x10
 1209 0814 5D       		.byte	0x5d
 1210 0815 DD070000 		.4byte	0x7dd
 1211 0819 1B       		.uleb128 0x1b
 1212 081a 9402     		.2byte	0x294
 1213 081c 10       		.byte	0x10
 1214 081d 68       		.byte	0x68
 1215 081e 2F080000 		.4byte	0x82f
 1216 0822 08       		.uleb128 0x8
 1217 0823 4B090000 		.4byte	.LASF128
 1218 0827 10       		.byte	0x10
 1219 0828 69       		.byte	0x69
 1220 0829 2F080000 		.4byte	0x82f
 1221 082d 00       		.byte	0
 1222 082e 00       		.byte	0
 1223 082f 16       		.uleb128 0x16
 1224 0830 0E080000 		.4byte	0x80e
 1225 0834 3F080000 		.4byte	0x83f
 1226 0838 19       		.uleb128 0x19
 1227 0839 37000000 		.4byte	0x37
 1228 083d 04       		.byte	0x4
 1229 083e 00       		.byte	0
 1230 083f 03       		.uleb128 0x3
 1231 0840 14080000 		.4byte	.LASF129
 1232 0844 10       		.byte	0x10
 1233 0845 6A       		.byte	0x6a
 1234 0846 19080000 		.4byte	0x819
 1235 084a 05       		.uleb128 0x5
 1236 084b 3F080000 		.4byte	0x83f
 1237 084f 18       		.uleb128 0x18
 1238 0850 A1040000 		.4byte	.LASF130
 1239 0854 10       		.byte	0x10
 1240 0855 8D01     		.2byte	0x18d
 1241 0857 4A080000 		.4byte	0x84a
 1242 085b 11       		.uleb128 0x11
 1243 085c 0C       		.byte	0xc
 1244 085d 11       		.byte	0x11
 1245 085e 8A       		.byte	0x8a
 1246 085f 88080000 		.4byte	0x888
 1247 0863 08       		.uleb128 0x8
ARM GAS  /var/folders/t8/16hdwfmd2fg_d3q6dgx6bpmw0000gn/T//cc9oHqFa.s 			page 23


 1248 0864 DB040000 		.4byte	.LASF131
 1249 0868 11       		.byte	0x11
 1250 0869 8E       		.byte	0x8e
 1251 086a CC070000 		.4byte	0x7cc
 1252 086e 00       		.byte	0
 1253 086f 08       		.uleb128 0x8
 1254 0870 A2010000 		.4byte	.LASF132
 1255 0874 11       		.byte	0x11
 1256 0875 94       		.byte	0x94
 1257 0876 B6070000 		.4byte	0x7b6
 1258 087a 04       		.byte	0x4
 1259 087b 08       		.uleb128 0x8
 1260 087c 50040000 		.4byte	.LASF133
 1261 0880 11       		.byte	0x11
 1262 0881 98       		.byte	0x98
 1263 0882 EE000000 		.4byte	0xee
 1264 0886 08       		.byte	0x8
 1265 0887 00       		.byte	0
 1266 0888 03       		.uleb128 0x3
 1267 0889 59010000 		.4byte	.LASF134
 1268 088d 11       		.byte	0x11
 1269 088e 99       		.byte	0x99
 1270 088f 5B080000 		.4byte	0x85b
 1271 0893 1C       		.uleb128 0x1c
 1272 0894 A7010000 		.4byte	.LASF135
 1273 0898 12       		.byte	0x12
 1274 0899 0001     		.2byte	0x100
 1275 089b 9F080000 		.4byte	0x89f
 1276 089f 0D       		.uleb128 0xd
 1277 08a0 A7010000 		.4byte	.LASF135
 1278 08a4 E8       		.byte	0xe8
 1279 08a5 13       		.byte	0x13
 1280 08a6 0601     		.2byte	0x106
 1281 08a8 8A090000 		.4byte	0x98a
 1282 08ac 0B       		.uleb128 0xb
 1283 08ad 10090000 		.4byte	.LASF37
 1284 08b1 13       		.byte	0x13
 1285 08b2 0A01     		.2byte	0x10a
 1286 08b4 C9090000 		.4byte	0x9c9
 1287 08b8 00       		.byte	0
 1288 08b9 0B       		.uleb128 0xb
 1289 08ba 38070000 		.4byte	.LASF136
 1290 08be 13       		.byte	0x13
 1291 08bf 0E01     		.2byte	0x10e
 1292 08c1 FD0C0000 		.4byte	0xcfd
 1293 08c5 04       		.byte	0x4
 1294 08c6 0B       		.uleb128 0xb
 1295 08c7 86030000 		.4byte	.LASF137
 1296 08cb 13       		.byte	0x13
 1297 08cc 1201     		.2byte	0x112
 1298 08ce BD000000 		.4byte	0xbd
 1299 08d2 08       		.byte	0x8
 1300 08d3 0B       		.uleb128 0xb
 1301 08d4 A5030000 		.4byte	.LASF138
 1302 08d8 13       		.byte	0x13
 1303 08d9 1601     		.2byte	0x116
 1304 08db BD000000 		.4byte	0xbd
ARM GAS  /var/folders/t8/16hdwfmd2fg_d3q6dgx6bpmw0000gn/T//cc9oHqFa.s 			page 24


 1305 08df 0A       		.byte	0xa
 1306 08e0 0A       		.uleb128 0xa
 1307 08e1 65706300 		.ascii	"epc\000"
 1308 08e5 13       		.byte	0x13
 1309 08e6 1A01     		.2byte	0x11a
 1310 08e8 030D0000 		.4byte	0xd03
 1311 08ec 0C       		.byte	0xc
 1312 08ed 0B       		.uleb128 0xb
 1313 08ee 13060000 		.4byte	.LASF139
 1314 08f2 13       		.byte	0x13
 1315 08f3 2101     		.2byte	0x121
 1316 08f5 190D0000 		.4byte	0xd19
 1317 08f9 4C       		.byte	0x4c
 1318 08fa 0B       		.uleb128 0xb
 1319 08fb 49070000 		.4byte	.LASF140
 1320 08ff 13       		.byte	0x13
 1321 0900 2801     		.2byte	0x128
 1322 0902 190D0000 		.4byte	0xd19
 1323 0906 88       		.byte	0x88
 1324 0907 0B       		.uleb128 0xb
 1325 0908 0A070000 		.4byte	.LASF141
 1326 090c 13       		.byte	0x13
 1327 090d 2C01     		.2byte	0x12c
 1328 090f 0E0A0000 		.4byte	0xa0e
 1329 0913 C4       		.byte	0xc4
 1330 0914 0B       		.uleb128 0xb
 1331 0915 52050000 		.4byte	.LASF142
 1332 0919 13       		.byte	0x13
 1333 091a 3001     		.2byte	0x130
 1334 091c A9070000 		.4byte	0x7a9
 1335 0920 C8       		.byte	0xc8
 1336 0921 0B       		.uleb128 0xb
 1337 0922 DE050000 		.4byte	.LASF143
 1338 0926 13       		.byte	0x13
 1339 0927 3401     		.2byte	0x134
 1340 0929 2C000000 		.4byte	0x2c
 1341 092d CC       		.byte	0xcc
 1342 092e 0B       		.uleb128 0xb
 1343 092f 08020000 		.4byte	.LASF144
 1344 0933 13       		.byte	0x13
 1345 0934 3801     		.2byte	0x138
 1346 0936 940A0000 		.4byte	0xa94
 1347 093a D0       		.byte	0xd0
 1348 093b 0B       		.uleb128 0xb
 1349 093c 93080000 		.4byte	.LASF145
 1350 0940 13       		.byte	0x13
 1351 0941 3C01     		.2byte	0x13c
 1352 0943 290D0000 		.4byte	0xd29
 1353 0947 D4       		.byte	0xd4
 1354 0948 0B       		.uleb128 0xb
 1355 0949 69050000 		.4byte	.LASF146
 1356 094d 13       		.byte	0x13
 1357 094e 4001     		.2byte	0x140
 1358 0950 BD000000 		.4byte	0xbd
 1359 0954 DC       		.byte	0xdc
 1360 0955 0B       		.uleb128 0xb
 1361 0956 38080000 		.4byte	.LASF147
ARM GAS  /var/folders/t8/16hdwfmd2fg_d3q6dgx6bpmw0000gn/T//cc9oHqFa.s 			page 25


 1362 095a 13       		.byte	0x13
 1363 095b 4401     		.2byte	0x144
 1364 095d AD000000 		.4byte	0xad
 1365 0961 DE       		.byte	0xde
 1366 0962 0B       		.uleb128 0xb
 1367 0963 5C040000 		.4byte	.LASF148
 1368 0967 13       		.byte	0x13
 1369 0968 4801     		.2byte	0x148
 1370 096a AD000000 		.4byte	0xad
 1371 096e DF       		.byte	0xdf
 1372 096f 0B       		.uleb128 0xb
 1373 0970 85070000 		.4byte	.LASF149
 1374 0974 13       		.byte	0x13
 1375 0975 4C01     		.2byte	0x14c
 1376 0977 C9090000 		.4byte	0x9c9
 1377 097b E0       		.byte	0xe0
 1378 097c 0B       		.uleb128 0xb
 1379 097d 99080000 		.4byte	.LASF150
 1380 0981 13       		.byte	0x13
 1381 0982 5401     		.2byte	0x154
 1382 0984 D3000000 		.4byte	0xd3
 1383 0988 E4       		.byte	0xe4
 1384 0989 00       		.byte	0
 1385 098a 1C       		.uleb128 0x1c
 1386 098b D7080000 		.4byte	.LASF151
 1387 098f 12       		.byte	0x12
 1388 0990 0501     		.2byte	0x105
 1389 0992 AD000000 		.4byte	0xad
 1390 0996 1D       		.uleb128 0x1d
 1391 0997 07       		.byte	0x7
 1392 0998 01       		.byte	0x1
 1393 0999 50000000 		.4byte	0x50
 1394 099d 12       		.byte	0x12
 1395 099e 0A01     		.2byte	0x10a
 1396 09a0 C9090000 		.4byte	0x9c9
 1397 09a4 1E       		.uleb128 0x1e
 1398 09a5 19010000 		.4byte	.LASF152
 1399 09a9 00       		.byte	0
 1400 09aa 1E       		.uleb128 0x1e
 1401 09ab 3A0A0000 		.4byte	.LASF153
 1402 09af 01       		.byte	0x1
 1403 09b0 1E       		.uleb128 0x1e
 1404 09b1 24010000 		.4byte	.LASF154
 1405 09b5 02       		.byte	0x2
 1406 09b6 1E       		.uleb128 0x1e
 1407 09b7 BD070000 		.4byte	.LASF155
 1408 09bb 03       		.byte	0x3
 1409 09bc 1E       		.uleb128 0x1e
 1410 09bd 6A040000 		.4byte	.LASF156
 1411 09c1 04       		.byte	0x4
 1412 09c2 1E       		.uleb128 0x1e
 1413 09c3 A8060000 		.4byte	.LASF157
 1414 09c7 05       		.byte	0x5
 1415 09c8 00       		.byte	0
 1416 09c9 1C       		.uleb128 0x1c
 1417 09ca 9F050000 		.4byte	.LASF158
 1418 09ce 12       		.byte	0x12
ARM GAS  /var/folders/t8/16hdwfmd2fg_d3q6dgx6bpmw0000gn/T//cc9oHqFa.s 			page 26


 1419 09cf 1101     		.2byte	0x111
 1420 09d1 96090000 		.4byte	0x996
 1421 09d5 1D       		.uleb128 0x1d
 1422 09d6 07       		.byte	0x7
 1423 09d7 01       		.byte	0x1
 1424 09d8 50000000 		.4byte	0x50
 1425 09dc 12       		.byte	0x12
 1426 09dd 1F01     		.2byte	0x11f
 1427 09df 0E0A0000 		.4byte	0xa0e
 1428 09e3 1E       		.uleb128 0x1e
 1429 09e4 90020000 		.4byte	.LASF159
 1430 09e8 00       		.byte	0
 1431 09e9 1E       		.uleb128 0x1e
 1432 09ea CD010000 		.4byte	.LASF160
 1433 09ee 01       		.byte	0x1
 1434 09ef 1E       		.uleb128 0x1e
 1435 09f0 50030000 		.4byte	.LASF161
 1436 09f4 02       		.byte	0x2
 1437 09f5 1E       		.uleb128 0x1e
 1438 09f6 B4040000 		.4byte	.LASF162
 1439 09fa 03       		.byte	0x3
 1440 09fb 1E       		.uleb128 0x1e
 1441 09fc EF090000 		.4byte	.LASF163
 1442 0a00 04       		.byte	0x4
 1443 0a01 1E       		.uleb128 0x1e
 1444 0a02 AF090000 		.4byte	.LASF164
 1445 0a06 05       		.byte	0x5
 1446 0a07 1E       		.uleb128 0x1e
 1447 0a08 B3080000 		.4byte	.LASF165
 1448 0a0c 06       		.byte	0x6
 1449 0a0d 00       		.byte	0
 1450 0a0e 1C       		.uleb128 0x1c
 1451 0a0f FA090000 		.4byte	.LASF166
 1452 0a13 12       		.byte	0x12
 1453 0a14 2701     		.2byte	0x127
 1454 0a16 D5090000 		.4byte	0x9d5
 1455 0a1a 1D       		.uleb128 0x1d
 1456 0a1b 07       		.byte	0x7
 1457 0a1c 01       		.byte	0x1
 1458 0a1d 50000000 		.4byte	0x50
 1459 0a21 12       		.byte	0x12
 1460 0a22 2C01     		.2byte	0x12c
 1461 0a24 530A0000 		.4byte	0xa53
 1462 0a28 1E       		.uleb128 0x1e
 1463 0a29 62020000 		.4byte	.LASF167
 1464 0a2d 00       		.byte	0
 1465 0a2e 1E       		.uleb128 0x1e
 1466 0a2f F1040000 		.4byte	.LASF168
 1467 0a33 01       		.byte	0x1
 1468 0a34 1E       		.uleb128 0x1e
 1469 0a35 080A0000 		.4byte	.LASF169
 1470 0a39 02       		.byte	0x2
 1471 0a3a 1E       		.uleb128 0x1e
 1472 0a3b C0060000 		.4byte	.LASF170
 1473 0a3f 03       		.byte	0x3
 1474 0a40 1E       		.uleb128 0x1e
 1475 0a41 2E010000 		.4byte	.LASF171
ARM GAS  /var/folders/t8/16hdwfmd2fg_d3q6dgx6bpmw0000gn/T//cc9oHqFa.s 			page 27


 1476 0a45 04       		.byte	0x4
 1477 0a46 1E       		.uleb128 0x1e
 1478 0a47 FF080000 		.4byte	.LASF172
 1479 0a4b 05       		.byte	0x5
 1480 0a4c 1E       		.uleb128 0x1e
 1481 0a4d 45060000 		.4byte	.LASF173
 1482 0a51 06       		.byte	0x6
 1483 0a52 00       		.byte	0
 1484 0a53 1C       		.uleb128 0x1c
 1485 0a54 D4090000 		.4byte	.LASF174
 1486 0a58 12       		.byte	0x12
 1487 0a59 3401     		.2byte	0x134
 1488 0a5b 1A0A0000 		.4byte	0xa1a
 1489 0a5f 1F       		.uleb128 0x1f
 1490 0a60 08       		.byte	0x8
 1491 0a61 12       		.byte	0x12
 1492 0a62 3901     		.2byte	0x139
 1493 0a64 830A0000 		.4byte	0xa83
 1494 0a68 0B       		.uleb128 0xb
 1495 0a69 18020000 		.4byte	.LASF175
 1496 0a6d 12       		.byte	0x12
 1497 0a6e 3D01     		.2byte	0x13d
 1498 0a70 2C000000 		.4byte	0x2c
 1499 0a74 00       		.byte	0
 1500 0a75 0B       		.uleb128 0xb
 1501 0a76 F5080000 		.4byte	.LASF176
 1502 0a7a 12       		.byte	0x12
 1503 0a7b 4101     		.2byte	0x141
 1504 0a7d A3070000 		.4byte	0x7a3
 1505 0a81 04       		.byte	0x4
 1506 0a82 00       		.byte	0
 1507 0a83 1C       		.uleb128 0x1c
 1508 0a84 E1060000 		.4byte	.LASF177
 1509 0a88 12       		.byte	0x12
 1510 0a89 4201     		.2byte	0x142
 1511 0a8b 5F0A0000 		.4byte	0xa5f
 1512 0a8f 05       		.uleb128 0x5
 1513 0a90 830A0000 		.4byte	0xa83
 1514 0a94 1C       		.uleb128 0x1c
 1515 0a95 1D0A0000 		.4byte	.LASF178
 1516 0a99 12       		.byte	0x12
 1517 0a9a 4A01     		.2byte	0x14a
 1518 0a9c A00A0000 		.4byte	0xaa0
 1519 0aa0 0C       		.uleb128 0xc
 1520 0aa1 04       		.byte	0x4
 1521 0aa2 A60A0000 		.4byte	0xaa6
 1522 0aa6 0E       		.uleb128 0xe
 1523 0aa7 B10A0000 		.4byte	0xab1
 1524 0aab 0F       		.uleb128 0xf
 1525 0aac B10A0000 		.4byte	0xab1
 1526 0ab0 00       		.byte	0
 1527 0ab1 0C       		.uleb128 0xc
 1528 0ab2 04       		.byte	0x4
 1529 0ab3 93080000 		.4byte	0x893
 1530 0ab7 1C       		.uleb128 0x1c
 1531 0ab8 D9070000 		.4byte	.LASF179
 1532 0abc 12       		.byte	0x12
ARM GAS  /var/folders/t8/16hdwfmd2fg_d3q6dgx6bpmw0000gn/T//cc9oHqFa.s 			page 28


 1533 0abd 5301     		.2byte	0x153
 1534 0abf C30A0000 		.4byte	0xac3
 1535 0ac3 0C       		.uleb128 0xc
 1536 0ac4 04       		.byte	0x4
 1537 0ac5 C90A0000 		.4byte	0xac9
 1538 0ac9 0E       		.uleb128 0xe
 1539 0aca D90A0000 		.4byte	0xad9
 1540 0ace 0F       		.uleb128 0xf
 1541 0acf B10A0000 		.4byte	0xab1
 1542 0ad3 0F       		.uleb128 0xf
 1543 0ad4 8A090000 		.4byte	0x98a
 1544 0ad8 00       		.byte	0
 1545 0ad9 1C       		.uleb128 0x1c
 1546 0ada 16090000 		.4byte	.LASF180
 1547 0ade 12       		.byte	0x12
 1548 0adf 5C01     		.2byte	0x15c
 1549 0ae1 E50A0000 		.4byte	0xae5
 1550 0ae5 0C       		.uleb128 0xc
 1551 0ae6 04       		.byte	0x4
 1552 0ae7 EB0A0000 		.4byte	0xaeb
 1553 0aeb 0E       		.uleb128 0xe
 1554 0aec FB0A0000 		.4byte	0xafb
 1555 0af0 0F       		.uleb128 0xf
 1556 0af1 B10A0000 		.4byte	0xab1
 1557 0af5 0F       		.uleb128 0xf
 1558 0af6 530A0000 		.4byte	0xa53
 1559 0afa 00       		.byte	0
 1560 0afb 1C       		.uleb128 0x1c
 1561 0afc 4F0A0000 		.4byte	.LASF181
 1562 0b00 12       		.byte	0x12
 1563 0b01 6801     		.2byte	0x168
 1564 0b03 070B0000 		.4byte	0xb07
 1565 0b07 0C       		.uleb128 0xc
 1566 0b08 04       		.byte	0x4
 1567 0b09 0D0B0000 		.4byte	0xb0d
 1568 0b0d 20       		.uleb128 0x20
 1569 0b0e AF070000 		.4byte	0x7af
 1570 0b12 1C0B0000 		.4byte	0xb1c
 1571 0b16 0F       		.uleb128 0xf
 1572 0b17 B10A0000 		.4byte	0xab1
 1573 0b1b 00       		.byte	0
 1574 0b1c 1C       		.uleb128 0x1c
 1575 0b1d 91070000 		.4byte	.LASF182
 1576 0b21 12       		.byte	0x12
 1577 0b22 6D01     		.2byte	0x16d
 1578 0b24 280B0000 		.4byte	0xb28
 1579 0b28 0C       		.uleb128 0xc
 1580 0b29 04       		.byte	0x4
 1581 0b2a 2E0B0000 		.4byte	0xb2e
 1582 0b2e 20       		.uleb128 0x20
 1583 0b2f 4C0B0000 		.4byte	0xb4c
 1584 0b33 4C0B0000 		.4byte	0xb4c
 1585 0b37 0F       		.uleb128 0xf
 1586 0b38 B10A0000 		.4byte	0xab1
 1587 0b3c 0F       		.uleb128 0xf
 1588 0b3d AD000000 		.4byte	0xad
 1589 0b41 0F       		.uleb128 0xf
ARM GAS  /var/folders/t8/16hdwfmd2fg_d3q6dgx6bpmw0000gn/T//cc9oHqFa.s 			page 29


 1590 0b42 AD000000 		.4byte	0xad
 1591 0b46 0F       		.uleb128 0xf
 1592 0b47 BD000000 		.4byte	0xbd
 1593 0b4b 00       		.byte	0
 1594 0b4c 0C       		.uleb128 0xc
 1595 0b4d 04       		.byte	0x4
 1596 0b4e 8F0A0000 		.4byte	0xa8f
 1597 0b52 11       		.uleb128 0x11
 1598 0b53 14       		.byte	0x14
 1599 0b54 13       		.byte	0x13
 1600 0b55 6B       		.byte	0x6b
 1601 0b56 A30B0000 		.4byte	0xba3
 1602 0b5a 08       		.uleb128 0x8
 1603 0b5b 12010000 		.4byte	.LASF183
 1604 0b5f 13       		.byte	0x13
 1605 0b60 6F       		.byte	0x6f
 1606 0b61 2C000000 		.4byte	0x2c
 1607 0b65 00       		.byte	0
 1608 0b66 08       		.uleb128 0x8
 1609 0b67 80030000 		.4byte	.LASF184
 1610 0b6b 13       		.byte	0x13
 1611 0b6c 73       		.byte	0x73
 1612 0b6d 2C000000 		.4byte	0x2c
 1613 0b71 04       		.byte	0x4
 1614 0b72 08       		.uleb128 0x8
 1615 0b73 F4030000 		.4byte	.LASF185
 1616 0b77 13       		.byte	0x13
 1617 0b78 77       		.byte	0x77
 1618 0b79 A3070000 		.4byte	0x7a3
 1619 0b7d 08       		.byte	0x8
 1620 0b7e 08       		.uleb128 0x8
 1621 0b7f 69080000 		.4byte	.LASF186
 1622 0b83 13       		.byte	0x13
 1623 0b84 7C       		.byte	0x7c
 1624 0b85 56020000 		.4byte	0x256
 1625 0b89 0C       		.byte	0xc
 1626 0b8a 08       		.uleb128 0x8
 1627 0b8b 4D080000 		.4byte	.LASF187
 1628 0b8f 13       		.byte	0x13
 1629 0b90 80       		.byte	0x80
 1630 0b91 AF070000 		.4byte	0x7af
 1631 0b95 10       		.byte	0x10
 1632 0b96 08       		.uleb128 0x8
 1633 0b97 24060000 		.4byte	.LASF188
 1634 0b9b 13       		.byte	0x13
 1635 0b9c 82       		.byte	0x82
 1636 0b9d AF070000 		.4byte	0x7af
 1637 0ba1 11       		.byte	0x11
 1638 0ba2 00       		.byte	0
 1639 0ba3 03       		.uleb128 0x3
 1640 0ba4 A6020000 		.4byte	.LASF189
 1641 0ba8 13       		.byte	0x13
 1642 0ba9 83       		.byte	0x83
 1643 0baa 520B0000 		.4byte	0xb52
 1644 0bae 11       		.uleb128 0x11
 1645 0baf 14       		.byte	0x14
 1646 0bb0 13       		.byte	0x13
ARM GAS  /var/folders/t8/16hdwfmd2fg_d3q6dgx6bpmw0000gn/T//cc9oHqFa.s 			page 30


 1647 0bb1 88       		.byte	0x88
 1648 0bb2 0B0C0000 		.4byte	0xc0b
 1649 0bb6 08       		.uleb128 0x8
 1650 0bb7 E9070000 		.4byte	.LASF190
 1651 0bbb 13       		.byte	0x13
 1652 0bbc 8C       		.byte	0x8c
 1653 0bbd 2C000000 		.4byte	0x2c
 1654 0bc1 00       		.byte	0
 1655 0bc2 08       		.uleb128 0x8
 1656 0bc3 C3090000 		.4byte	.LASF191
 1657 0bc7 13       		.byte	0x13
 1658 0bc8 90       		.byte	0x90
 1659 0bc9 2C000000 		.4byte	0x2c
 1660 0bcd 04       		.byte	0x4
 1661 0bce 08       		.uleb128 0x8
 1662 0bcf 430A0000 		.4byte	.LASF192
 1663 0bd3 13       		.byte	0x13
 1664 0bd4 94       		.byte	0x94
 1665 0bd5 A9070000 		.4byte	0x7a9
 1666 0bd9 08       		.byte	0x8
 1667 0bda 08       		.uleb128 0x8
 1668 0bdb 69080000 		.4byte	.LASF186
 1669 0bdf 13       		.byte	0x13
 1670 0be0 99       		.byte	0x99
 1671 0be1 56020000 		.4byte	0x256
 1672 0be5 0C       		.byte	0xc
 1673 0be6 08       		.uleb128 0x8
 1674 0be7 5A050000 		.4byte	.LASF193
 1675 0beb 13       		.byte	0x13
 1676 0bec 9F       		.byte	0x9f
 1677 0bed BD000000 		.4byte	0xbd
 1678 0bf1 10       		.byte	0x10
 1679 0bf2 08       		.uleb128 0x8
 1680 0bf3 4D080000 		.4byte	.LASF187
 1681 0bf7 13       		.byte	0x13
 1682 0bf8 A1       		.byte	0xa1
 1683 0bf9 AF070000 		.4byte	0x7af
 1684 0bfd 12       		.byte	0x12
 1685 0bfe 08       		.uleb128 0x8
 1686 0bff 24060000 		.4byte	.LASF188
 1687 0c03 13       		.byte	0x13
 1688 0c04 A3       		.byte	0xa3
 1689 0c05 AF070000 		.4byte	0x7af
 1690 0c09 13       		.byte	0x13
 1691 0c0a 00       		.byte	0
 1692 0c0b 03       		.uleb128 0x3
 1693 0c0c 71070000 		.4byte	.LASF194
 1694 0c10 13       		.byte	0x13
 1695 0c11 A4       		.byte	0xa4
 1696 0c12 AE0B0000 		.4byte	0xbae
 1697 0c16 11       		.uleb128 0x11
 1698 0c17 24       		.byte	0x24
 1699 0c18 13       		.byte	0x13
 1700 0c19 AA       		.byte	0xaa
 1701 0c1a 970C0000 		.4byte	0xc97
 1702 0c1e 08       		.uleb128 0x8
 1703 0c1f F9010000 		.4byte	.LASF195
ARM GAS  /var/folders/t8/16hdwfmd2fg_d3q6dgx6bpmw0000gn/T//cc9oHqFa.s 			page 31


 1704 0c23 13       		.byte	0x13
 1705 0c24 AE       		.byte	0xae
 1706 0c25 D3000000 		.4byte	0xd3
 1707 0c29 00       		.byte	0
 1708 0c2a 08       		.uleb128 0x8
 1709 0c2b DF080000 		.4byte	.LASF196
 1710 0c2f 13       		.byte	0x13
 1711 0c30 B9       		.byte	0xb9
 1712 0c31 B70A0000 		.4byte	0xab7
 1713 0c35 04       		.byte	0x4
 1714 0c36 08       		.uleb128 0x8
 1715 0c37 B1010000 		.4byte	.LASF197
 1716 0c3b 13       		.byte	0x13
 1717 0c3c BE       		.byte	0xbe
 1718 0c3d B70A0000 		.4byte	0xab7
 1719 0c41 08       		.byte	0x8
 1720 0c42 08       		.uleb128 0x8
 1721 0c43 19040000 		.4byte	.LASF198
 1722 0c47 13       		.byte	0x13
 1723 0c48 C3       		.byte	0xc3
 1724 0c49 B70A0000 		.4byte	0xab7
 1725 0c4d 0C       		.byte	0xc
 1726 0c4e 08       		.uleb128 0x8
 1727 0c4f C9090000 		.4byte	.LASF199
 1728 0c53 13       		.byte	0x13
 1729 0c54 C8       		.byte	0xc8
 1730 0c55 BD000000 		.4byte	0xbd
 1731 0c59 10       		.byte	0x10
 1732 0c5a 08       		.uleb128 0x8
 1733 0c5b B7010000 		.4byte	.LASF200
 1734 0c5f 13       		.byte	0x13
 1735 0c60 CD       		.byte	0xcd
 1736 0c61 BD000000 		.4byte	0xbd
 1737 0c65 12       		.byte	0x12
 1738 0c66 08       		.uleb128 0x8
 1739 0c67 DD010000 		.4byte	.LASF201
 1740 0c6b 13       		.byte	0x13
 1741 0c6c D3       		.byte	0xd3
 1742 0c6d 970C0000 		.4byte	0xc97
 1743 0c71 14       		.byte	0x14
 1744 0c72 08       		.uleb128 0x8
 1745 0c73 E3050000 		.4byte	.LASF202
 1746 0c77 13       		.byte	0x13
 1747 0c78 D9       		.byte	0xd9
 1748 0c79 9D0C0000 		.4byte	0xc9d
 1749 0c7d 18       		.byte	0x18
 1750 0c7e 08       		.uleb128 0x8
 1751 0c7f 72020000 		.4byte	.LASF203
 1752 0c83 13       		.byte	0x13
 1753 0c84 DF       		.byte	0xdf
 1754 0c85 BD000000 		.4byte	0xbd
 1755 0c89 1C       		.byte	0x1c
 1756 0c8a 08       		.uleb128 0x8
 1757 0c8b B6060000 		.4byte	.LASF204
 1758 0c8f 13       		.byte	0x13
 1759 0c90 E5       		.byte	0xe5
 1760 0c91 A9070000 		.4byte	0x7a9
ARM GAS  /var/folders/t8/16hdwfmd2fg_d3q6dgx6bpmw0000gn/T//cc9oHqFa.s 			page 32


 1761 0c95 20       		.byte	0x20
 1762 0c96 00       		.byte	0
 1763 0c97 0C       		.uleb128 0xc
 1764 0c98 04       		.byte	0x4
 1765 0c99 A30B0000 		.4byte	0xba3
 1766 0c9d 0C       		.uleb128 0xc
 1767 0c9e 04       		.byte	0x4
 1768 0c9f 0B0C0000 		.4byte	0xc0b
 1769 0ca3 03       		.uleb128 0x3
 1770 0ca4 93030000 		.4byte	.LASF205
 1771 0ca8 13       		.byte	0x13
 1772 0ca9 E6       		.byte	0xe6
 1773 0caa 160C0000 		.4byte	0xc16
 1774 0cae 05       		.uleb128 0x5
 1775 0caf A30C0000 		.4byte	0xca3
 1776 0cb3 11       		.uleb128 0x11
 1777 0cb4 10       		.byte	0x10
 1778 0cb5 13       		.byte	0x13
 1779 0cb6 EB       		.byte	0xeb
 1780 0cb7 EC0C0000 		.4byte	0xcec
 1781 0cbb 08       		.uleb128 0x8
 1782 0cbc AF030000 		.4byte	.LASF206
 1783 0cc0 13       		.byte	0x13
 1784 0cc1 F0       		.byte	0xf0
 1785 0cc2 D90A0000 		.4byte	0xad9
 1786 0cc6 00       		.byte	0
 1787 0cc7 08       		.uleb128 0x8
 1788 0cc8 8F040000 		.4byte	.LASF207
 1789 0ccc 13       		.byte	0x13
 1790 0ccd F5       		.byte	0xf5
 1791 0cce 1C0B0000 		.4byte	0xb1c
 1792 0cd2 04       		.byte	0x4
 1793 0cd3 08       		.uleb128 0x8
 1794 0cd4 5F010000 		.4byte	.LASF208
 1795 0cd8 13       		.byte	0x13
 1796 0cd9 FB       		.byte	0xfb
 1797 0cda FB0A0000 		.4byte	0xafb
 1798 0cde 08       		.byte	0x8
 1799 0cdf 08       		.uleb128 0x8
 1800 0ce0 1D060000 		.4byte	.LASF209
 1801 0ce4 13       		.byte	0x13
 1802 0ce5 FF       		.byte	0xff
 1803 0ce6 940A0000 		.4byte	0xa94
 1804 0cea 0C       		.byte	0xc
 1805 0ceb 00       		.byte	0
 1806 0cec 1C       		.uleb128 0x1c
 1807 0ced EF010000 		.4byte	.LASF210
 1808 0cf1 13       		.byte	0x13
 1809 0cf2 0101     		.2byte	0x101
 1810 0cf4 B30C0000 		.4byte	0xcb3
 1811 0cf8 05       		.uleb128 0x5
 1812 0cf9 EC0C0000 		.4byte	0xcec
 1813 0cfd 0C       		.uleb128 0xc
 1814 0cfe 04       		.byte	0x4
 1815 0cff F80C0000 		.4byte	0xcf8
 1816 0d03 16       		.uleb128 0x16
 1817 0d04 130D0000 		.4byte	0xd13
ARM GAS  /var/folders/t8/16hdwfmd2fg_d3q6dgx6bpmw0000gn/T//cc9oHqFa.s 			page 33


 1818 0d08 130D0000 		.4byte	0xd13
 1819 0d0c 19       		.uleb128 0x19
 1820 0d0d 37000000 		.4byte	0x37
 1821 0d11 0F       		.byte	0xf
 1822 0d12 00       		.byte	0
 1823 0d13 0C       		.uleb128 0xc
 1824 0d14 04       		.byte	0x4
 1825 0d15 AE0C0000 		.4byte	0xcae
 1826 0d19 16       		.uleb128 0x16
 1827 0d1a 3E030000 		.4byte	0x33e
 1828 0d1e 290D0000 		.4byte	0xd29
 1829 0d22 19       		.uleb128 0x19
 1830 0d23 37000000 		.4byte	0x37
 1831 0d27 0E       		.byte	0xe
 1832 0d28 00       		.byte	0
 1833 0d29 16       		.uleb128 0x16
 1834 0d2a AD000000 		.4byte	0xad
 1835 0d2e 390D0000 		.4byte	0xd39
 1836 0d32 19       		.uleb128 0x19
 1837 0d33 37000000 		.4byte	0x37
 1838 0d37 07       		.byte	0x7
 1839 0d38 00       		.byte	0
 1840 0d39 18       		.uleb128 0x18
 1841 0d3a 51090000 		.4byte	.LASF211
 1842 0d3e 13       		.byte	0x13
 1843 0d3f 9201     		.2byte	0x192
 1844 0d41 93080000 		.4byte	0x893
 1845 0d45 21       		.uleb128 0x21
 1846 0d46 91050000 		.4byte	.LASF213
 1847 0d4a 01       		.byte	0x1
 1848 0d4b 71       		.byte	0x71
 1849 0d4c 00000000 		.4byte	.LFB176
 1850 0d50 2C000000 		.4byte	.LFE176-.LFB176
 1851 0d54 01       		.uleb128 0x1
 1852 0d55 9C       		.byte	0x9c
 1853 0d56 AF0D0000 		.4byte	0xdaf
 1854 0d5a 22       		.uleb128 0x22
 1855 0d5b 62757300 		.ascii	"bus\000"
 1856 0d5f 01       		.byte	0x1
 1857 0d60 71       		.byte	0x71
 1858 0d61 AF0D0000 		.4byte	0xdaf
 1859 0d65 00000000 		.4byte	.LLST3
 1860 0d69 23       		.uleb128 0x23
 1861 0d6a 47020000 		.4byte	.LASF212
 1862 0d6e 01       		.byte	0x1
 1863 0d6f 71       		.byte	0x71
 1864 0d70 C1070000 		.4byte	0x7c1
 1865 0d74 2C000000 		.4byte	.LLST4
 1866 0d78 24       		.uleb128 0x24
 1867 0d79 9D090000 		.4byte	.LASF216
 1868 0d7d C50D0000 		.4byte	0xdc5
 1869 0d81 05       		.uleb128 0x5
 1870 0d82 03       		.byte	0x3
 1871 0d83 00000000 		.4byte	__func__.6430
 1872 0d87 25       		.uleb128 0x25
 1873 0d88 16000000 		.4byte	.LVL8
 1874 0d8c 950E0000 		.4byte	0xe95
ARM GAS  /var/folders/t8/16hdwfmd2fg_d3q6dgx6bpmw0000gn/T//cc9oHqFa.s 			page 34


 1875 0d90 9E0D0000 		.4byte	0xd9e
 1876 0d94 26       		.uleb128 0x26
 1877 0d95 01       		.uleb128 0x1
 1878 0d96 50       		.byte	0x50
 1879 0d97 05       		.uleb128 0x5
 1880 0d98 03       		.byte	0x3
 1881 0d99 00000000 		.4byte	.LANCHOR2
 1882 0d9d 00       		.byte	0
 1883 0d9e 27       		.uleb128 0x27
 1884 0d9f 24000000 		.4byte	.LVL9
 1885 0da3 A10E0000 		.4byte	0xea1
 1886 0da7 26       		.uleb128 0x26
 1887 0da8 01       		.uleb128 0x1
 1888 0da9 52       		.byte	0x52
 1889 0daa 02       		.uleb128 0x2
 1890 0dab 75       		.byte	0x75
 1891 0dac 00       		.sleb128 0
 1892 0dad 00       		.byte	0
 1893 0dae 00       		.byte	0
 1894 0daf 0C       		.uleb128 0xc
 1895 0db0 04       		.byte	0x4
 1896 0db1 88080000 		.4byte	0x888
 1897 0db5 16       		.uleb128 0x16
 1898 0db6 53060000 		.4byte	0x653
 1899 0dba C50D0000 		.4byte	0xdc5
 1900 0dbe 19       		.uleb128 0x19
 1901 0dbf 37000000 		.4byte	0x37
 1902 0dc3 0D       		.byte	0xd
 1903 0dc4 00       		.byte	0
 1904 0dc5 05       		.uleb128 0x5
 1905 0dc6 B50D0000 		.4byte	0xdb5
 1906 0dca 21       		.uleb128 0x21
 1907 0dcb B9050000 		.4byte	.LASF214
 1908 0dcf 01       		.byte	0x1
 1909 0dd0 5A       		.byte	0x5a
 1910 0dd1 00000000 		.4byte	.LFB175
 1911 0dd5 18000000 		.4byte	.LFE175-.LFB175
 1912 0dd9 01       		.uleb128 0x1
 1913 0dda 9C       		.byte	0x9c
 1914 0ddb 200E0000 		.4byte	0xe20
 1915 0ddf 22       		.uleb128 0x22
 1916 0de0 62757300 		.ascii	"bus\000"
 1917 0de4 01       		.byte	0x1
 1918 0de5 5A       		.byte	0x5a
 1919 0de6 AF0D0000 		.4byte	0xdaf
 1920 0dea 58000000 		.4byte	.LLST1
 1921 0dee 23       		.uleb128 0x23
 1922 0def 8C050000 		.4byte	.LASF215
 1923 0df3 01       		.byte	0x1
 1924 0df4 5A       		.byte	0x5a
 1925 0df5 B6070000 		.4byte	0x7b6
 1926 0df9 79000000 		.4byte	.LLST2
 1927 0dfd 24       		.uleb128 0x24
 1928 0dfe 9D090000 		.4byte	.LASF216
 1929 0e02 300E0000 		.4byte	0xe30
 1930 0e06 05       		.uleb128 0x5
 1931 0e07 03       		.byte	0x3
ARM GAS  /var/folders/t8/16hdwfmd2fg_d3q6dgx6bpmw0000gn/T//cc9oHqFa.s 			page 35


 1932 0e08 00000000 		.4byte	__func__.6425
 1933 0e0c 27       		.uleb128 0x27
 1934 0e0d 12000000 		.4byte	.LVL5
 1935 0e11 950E0000 		.4byte	0xe95
 1936 0e15 26       		.uleb128 0x26
 1937 0e16 01       		.uleb128 0x1
 1938 0e17 50       		.byte	0x50
 1939 0e18 05       		.uleb128 0x5
 1940 0e19 03       		.byte	0x3
 1941 0e1a 00000000 		.4byte	.LANCHOR1
 1942 0e1e 00       		.byte	0
 1943 0e1f 00       		.byte	0
 1944 0e20 16       		.uleb128 0x16
 1945 0e21 53060000 		.4byte	0x653
 1946 0e25 300E0000 		.4byte	0xe30
 1947 0e29 19       		.uleb128 0x19
 1948 0e2a 37000000 		.4byte	0x37
 1949 0e2e 0B       		.byte	0xb
 1950 0e2f 00       		.byte	0
 1951 0e30 05       		.uleb128 0x5
 1952 0e31 200E0000 		.4byte	0xe20
 1953 0e35 28       		.uleb128 0x28
 1954 0e36 08050000 		.4byte	.LASF222
 1955 0e3a 01       		.byte	0x1
 1956 0e3b 41       		.byte	0x41
 1957 0e3c B6070000 		.4byte	0x7b6
 1958 0e40 00000000 		.4byte	.LFB174
 1959 0e44 1C000000 		.4byte	.LFE174-.LFB174
 1960 0e48 01       		.uleb128 0x1
 1961 0e49 9C       		.byte	0x9c
 1962 0e4a 800E0000 		.4byte	0xe80
 1963 0e4e 22       		.uleb128 0x22
 1964 0e4f 62757300 		.ascii	"bus\000"
 1965 0e53 01       		.byte	0x1
 1966 0e54 41       		.byte	0x41
 1967 0e55 AF0D0000 		.4byte	0xdaf
 1968 0e59 9A000000 		.4byte	.LLST0
 1969 0e5d 24       		.uleb128 0x24
 1970 0e5e 9D090000 		.4byte	.LASF216
 1971 0e62 900E0000 		.4byte	0xe90
 1972 0e66 05       		.uleb128 0x5
 1973 0e67 03       		.byte	0x3
 1974 0e68 00000000 		.4byte	__func__.6420
 1975 0e6c 27       		.uleb128 0x27
 1976 0e6d 12000000 		.4byte	.LVL2
 1977 0e71 950E0000 		.4byte	0xe95
 1978 0e75 26       		.uleb128 0x26
 1979 0e76 01       		.uleb128 0x1
 1980 0e77 50       		.byte	0x50
 1981 0e78 05       		.uleb128 0x5
 1982 0e79 03       		.byte	0x3
 1983 0e7a 00000000 		.4byte	.LANCHOR0
 1984 0e7e 00       		.byte	0
 1985 0e7f 00       		.byte	0
 1986 0e80 16       		.uleb128 0x16
 1987 0e81 53060000 		.4byte	0x653
 1988 0e85 900E0000 		.4byte	0xe90
ARM GAS  /var/folders/t8/16hdwfmd2fg_d3q6dgx6bpmw0000gn/T//cc9oHqFa.s 			page 36


 1989 0e89 19       		.uleb128 0x19
 1990 0e8a 37000000 		.4byte	0x37
 1991 0e8e 0A       		.byte	0xa
 1992 0e8f 00       		.byte	0
 1993 0e90 05       		.uleb128 0x5
 1994 0e91 800E0000 		.4byte	0xe80
 1995 0e95 29       		.uleb128 0x29
 1996 0e96 3F050000 		.4byte	.LASF217
 1997 0e9a 3F050000 		.4byte	.LASF217
 1998 0e9e 0F       		.byte	0xf
 1999 0e9f 3201     		.2byte	0x132
 2000 0ea1 29       		.uleb128 0x29
 2001 0ea2 23090000 		.4byte	.LASF218
 2002 0ea6 23090000 		.4byte	.LASF218
 2003 0eaa 10       		.byte	0x10
 2004 0eab 9401     		.2byte	0x194
 2005 0ead 00       		.byte	0
 2006              		.section	.debug_abbrev,"",%progbits
 2007              	.Ldebug_abbrev0:
 2008 0000 01       		.uleb128 0x1
 2009 0001 11       		.uleb128 0x11
 2010 0002 01       		.byte	0x1
 2011 0003 25       		.uleb128 0x25
 2012 0004 0E       		.uleb128 0xe
 2013 0005 13       		.uleb128 0x13
 2014 0006 0B       		.uleb128 0xb
 2015 0007 03       		.uleb128 0x3
 2016 0008 0E       		.uleb128 0xe
 2017 0009 1B       		.uleb128 0x1b
 2018 000a 0E       		.uleb128 0xe
 2019 000b 55       		.uleb128 0x55
 2020 000c 17       		.uleb128 0x17
 2021 000d 11       		.uleb128 0x11
 2022 000e 01       		.uleb128 0x1
 2023 000f 10       		.uleb128 0x10
 2024 0010 17       		.uleb128 0x17
 2025 0011 00       		.byte	0
 2026 0012 00       		.byte	0
 2027 0013 02       		.uleb128 0x2
 2028 0014 24       		.uleb128 0x24
 2029 0015 00       		.byte	0
 2030 0016 0B       		.uleb128 0xb
 2031 0017 0B       		.uleb128 0xb
 2032 0018 3E       		.uleb128 0x3e
 2033 0019 0B       		.uleb128 0xb
 2034 001a 03       		.uleb128 0x3
 2035 001b 08       		.uleb128 0x8
 2036 001c 00       		.byte	0
 2037 001d 00       		.byte	0
 2038 001e 03       		.uleb128 0x3
 2039 001f 16       		.uleb128 0x16
 2040 0020 00       		.byte	0
 2041 0021 03       		.uleb128 0x3
 2042 0022 0E       		.uleb128 0xe
 2043 0023 3A       		.uleb128 0x3a
 2044 0024 0B       		.uleb128 0xb
 2045 0025 3B       		.uleb128 0x3b
ARM GAS  /var/folders/t8/16hdwfmd2fg_d3q6dgx6bpmw0000gn/T//cc9oHqFa.s 			page 37


 2046 0026 0B       		.uleb128 0xb
 2047 0027 49       		.uleb128 0x49
 2048 0028 13       		.uleb128 0x13
 2049 0029 00       		.byte	0
 2050 002a 00       		.byte	0
 2051 002b 04       		.uleb128 0x4
 2052 002c 24       		.uleb128 0x24
 2053 002d 00       		.byte	0
 2054 002e 0B       		.uleb128 0xb
 2055 002f 0B       		.uleb128 0xb
 2056 0030 3E       		.uleb128 0x3e
 2057 0031 0B       		.uleb128 0xb
 2058 0032 03       		.uleb128 0x3
 2059 0033 0E       		.uleb128 0xe
 2060 0034 00       		.byte	0
 2061 0035 00       		.byte	0
 2062 0036 05       		.uleb128 0x5
 2063 0037 26       		.uleb128 0x26
 2064 0038 00       		.byte	0
 2065 0039 49       		.uleb128 0x49
 2066 003a 13       		.uleb128 0x13
 2067 003b 00       		.byte	0
 2068 003c 00       		.byte	0
 2069 003d 06       		.uleb128 0x6
 2070 003e 35       		.uleb128 0x35
 2071 003f 00       		.byte	0
 2072 0040 49       		.uleb128 0x49
 2073 0041 13       		.uleb128 0x13
 2074 0042 00       		.byte	0
 2075 0043 00       		.byte	0
 2076 0044 07       		.uleb128 0x7
 2077 0045 13       		.uleb128 0x13
 2078 0046 01       		.byte	0x1
 2079 0047 03       		.uleb128 0x3
 2080 0048 0E       		.uleb128 0xe
 2081 0049 0B       		.uleb128 0xb
 2082 004a 0B       		.uleb128 0xb
 2083 004b 3A       		.uleb128 0x3a
 2084 004c 0B       		.uleb128 0xb
 2085 004d 3B       		.uleb128 0x3b
 2086 004e 0B       		.uleb128 0xb
 2087 004f 01       		.uleb128 0x1
 2088 0050 13       		.uleb128 0x13
 2089 0051 00       		.byte	0
 2090 0052 00       		.byte	0
 2091 0053 08       		.uleb128 0x8
 2092 0054 0D       		.uleb128 0xd
 2093 0055 00       		.byte	0
 2094 0056 03       		.uleb128 0x3
 2095 0057 0E       		.uleb128 0xe
 2096 0058 3A       		.uleb128 0x3a
 2097 0059 0B       		.uleb128 0xb
 2098 005a 3B       		.uleb128 0x3b
 2099 005b 0B       		.uleb128 0xb
 2100 005c 49       		.uleb128 0x49
 2101 005d 13       		.uleb128 0x13
 2102 005e 38       		.uleb128 0x38
ARM GAS  /var/folders/t8/16hdwfmd2fg_d3q6dgx6bpmw0000gn/T//cc9oHqFa.s 			page 38


 2103 005f 0B       		.uleb128 0xb
 2104 0060 00       		.byte	0
 2105 0061 00       		.byte	0
 2106 0062 09       		.uleb128 0x9
 2107 0063 0D       		.uleb128 0xd
 2108 0064 00       		.byte	0
 2109 0065 03       		.uleb128 0x3
 2110 0066 08       		.uleb128 0x8
 2111 0067 3A       		.uleb128 0x3a
 2112 0068 0B       		.uleb128 0xb
 2113 0069 3B       		.uleb128 0x3b
 2114 006a 0B       		.uleb128 0xb
 2115 006b 49       		.uleb128 0x49
 2116 006c 13       		.uleb128 0x13
 2117 006d 38       		.uleb128 0x38
 2118 006e 0B       		.uleb128 0xb
 2119 006f 00       		.byte	0
 2120 0070 00       		.byte	0
 2121 0071 0A       		.uleb128 0xa
 2122 0072 0D       		.uleb128 0xd
 2123 0073 00       		.byte	0
 2124 0074 03       		.uleb128 0x3
 2125 0075 08       		.uleb128 0x8
 2126 0076 3A       		.uleb128 0x3a
 2127 0077 0B       		.uleb128 0xb
 2128 0078 3B       		.uleb128 0x3b
 2129 0079 05       		.uleb128 0x5
 2130 007a 49       		.uleb128 0x49
 2131 007b 13       		.uleb128 0x13
 2132 007c 38       		.uleb128 0x38
 2133 007d 0B       		.uleb128 0xb
 2134 007e 00       		.byte	0
 2135 007f 00       		.byte	0
 2136 0080 0B       		.uleb128 0xb
 2137 0081 0D       		.uleb128 0xd
 2138 0082 00       		.byte	0
 2139 0083 03       		.uleb128 0x3
 2140 0084 0E       		.uleb128 0xe
 2141 0085 3A       		.uleb128 0x3a
 2142 0086 0B       		.uleb128 0xb
 2143 0087 3B       		.uleb128 0x3b
 2144 0088 05       		.uleb128 0x5
 2145 0089 49       		.uleb128 0x49
 2146 008a 13       		.uleb128 0x13
 2147 008b 38       		.uleb128 0x38
 2148 008c 0B       		.uleb128 0xb
 2149 008d 00       		.byte	0
 2150 008e 00       		.byte	0
 2151 008f 0C       		.uleb128 0xc
 2152 0090 0F       		.uleb128 0xf
 2153 0091 00       		.byte	0
 2154 0092 0B       		.uleb128 0xb
 2155 0093 0B       		.uleb128 0xb
 2156 0094 49       		.uleb128 0x49
 2157 0095 13       		.uleb128 0x13
 2158 0096 00       		.byte	0
 2159 0097 00       		.byte	0
ARM GAS  /var/folders/t8/16hdwfmd2fg_d3q6dgx6bpmw0000gn/T//cc9oHqFa.s 			page 39


 2160 0098 0D       		.uleb128 0xd
 2161 0099 13       		.uleb128 0x13
 2162 009a 01       		.byte	0x1
 2163 009b 03       		.uleb128 0x3
 2164 009c 0E       		.uleb128 0xe
 2165 009d 0B       		.uleb128 0xb
 2166 009e 0B       		.uleb128 0xb
 2167 009f 3A       		.uleb128 0x3a
 2168 00a0 0B       		.uleb128 0xb
 2169 00a1 3B       		.uleb128 0x3b
 2170 00a2 05       		.uleb128 0x5
 2171 00a3 01       		.uleb128 0x1
 2172 00a4 13       		.uleb128 0x13
 2173 00a5 00       		.byte	0
 2174 00a6 00       		.byte	0
 2175 00a7 0E       		.uleb128 0xe
 2176 00a8 15       		.uleb128 0x15
 2177 00a9 01       		.byte	0x1
 2178 00aa 27       		.uleb128 0x27
 2179 00ab 19       		.uleb128 0x19
 2180 00ac 01       		.uleb128 0x1
 2181 00ad 13       		.uleb128 0x13
 2182 00ae 00       		.byte	0
 2183 00af 00       		.byte	0
 2184 00b0 0F       		.uleb128 0xf
 2185 00b1 05       		.uleb128 0x5
 2186 00b2 00       		.byte	0
 2187 00b3 49       		.uleb128 0x49
 2188 00b4 13       		.uleb128 0x13
 2189 00b5 00       		.byte	0
 2190 00b6 00       		.byte	0
 2191 00b7 10       		.uleb128 0x10
 2192 00b8 0F       		.uleb128 0xf
 2193 00b9 00       		.byte	0
 2194 00ba 0B       		.uleb128 0xb
 2195 00bb 0B       		.uleb128 0xb
 2196 00bc 00       		.byte	0
 2197 00bd 00       		.byte	0
 2198 00be 11       		.uleb128 0x11
 2199 00bf 13       		.uleb128 0x13
 2200 00c0 01       		.byte	0x1
 2201 00c1 0B       		.uleb128 0xb
 2202 00c2 0B       		.uleb128 0xb
 2203 00c3 3A       		.uleb128 0x3a
 2204 00c4 0B       		.uleb128 0xb
 2205 00c5 3B       		.uleb128 0x3b
 2206 00c6 0B       		.uleb128 0xb
 2207 00c7 01       		.uleb128 0x1
 2208 00c8 13       		.uleb128 0x13
 2209 00c9 00       		.byte	0
 2210 00ca 00       		.byte	0
 2211 00cb 12       		.uleb128 0x12
 2212 00cc 17       		.uleb128 0x17
 2213 00cd 01       		.byte	0x1
 2214 00ce 0B       		.uleb128 0xb
 2215 00cf 0B       		.uleb128 0xb
 2216 00d0 3A       		.uleb128 0x3a
ARM GAS  /var/folders/t8/16hdwfmd2fg_d3q6dgx6bpmw0000gn/T//cc9oHqFa.s 			page 40


 2217 00d1 0B       		.uleb128 0xb
 2218 00d2 3B       		.uleb128 0x3b
 2219 00d3 0B       		.uleb128 0xb
 2220 00d4 01       		.uleb128 0x1
 2221 00d5 13       		.uleb128 0x13
 2222 00d6 00       		.byte	0
 2223 00d7 00       		.byte	0
 2224 00d8 13       		.uleb128 0x13
 2225 00d9 0D       		.uleb128 0xd
 2226 00da 00       		.byte	0
 2227 00db 03       		.uleb128 0x3
 2228 00dc 0E       		.uleb128 0xe
 2229 00dd 3A       		.uleb128 0x3a
 2230 00de 0B       		.uleb128 0xb
 2231 00df 3B       		.uleb128 0x3b
 2232 00e0 0B       		.uleb128 0xb
 2233 00e1 49       		.uleb128 0x49
 2234 00e2 13       		.uleb128 0x13
 2235 00e3 00       		.byte	0
 2236 00e4 00       		.byte	0
 2237 00e5 14       		.uleb128 0x14
 2238 00e6 0D       		.uleb128 0xd
 2239 00e7 00       		.byte	0
 2240 00e8 03       		.uleb128 0x3
 2241 00e9 0E       		.uleb128 0xe
 2242 00ea 3A       		.uleb128 0x3a
 2243 00eb 0B       		.uleb128 0xb
 2244 00ec 3B       		.uleb128 0x3b
 2245 00ed 05       		.uleb128 0x5
 2246 00ee 49       		.uleb128 0x49
 2247 00ef 13       		.uleb128 0x13
 2248 00f0 00       		.byte	0
 2249 00f1 00       		.byte	0
 2250 00f2 15       		.uleb128 0x15
 2251 00f3 34       		.uleb128 0x34
 2252 00f4 00       		.byte	0
 2253 00f5 03       		.uleb128 0x3
 2254 00f6 08       		.uleb128 0x8
 2255 00f7 3A       		.uleb128 0x3a
 2256 00f8 0B       		.uleb128 0xb
 2257 00f9 3B       		.uleb128 0x3b
 2258 00fa 05       		.uleb128 0x5
 2259 00fb 49       		.uleb128 0x49
 2260 00fc 13       		.uleb128 0x13
 2261 00fd 3F       		.uleb128 0x3f
 2262 00fe 19       		.uleb128 0x19
 2263 00ff 3C       		.uleb128 0x3c
 2264 0100 19       		.uleb128 0x19
 2265 0101 00       		.byte	0
 2266 0102 00       		.byte	0
 2267 0103 16       		.uleb128 0x16
 2268 0104 01       		.uleb128 0x1
 2269 0105 01       		.byte	0x1
 2270 0106 49       		.uleb128 0x49
 2271 0107 13       		.uleb128 0x13
 2272 0108 01       		.uleb128 0x1
 2273 0109 13       		.uleb128 0x13
ARM GAS  /var/folders/t8/16hdwfmd2fg_d3q6dgx6bpmw0000gn/T//cc9oHqFa.s 			page 41


 2274 010a 00       		.byte	0
 2275 010b 00       		.byte	0
 2276 010c 17       		.uleb128 0x17
 2277 010d 21       		.uleb128 0x21
 2278 010e 00       		.byte	0
 2279 010f 00       		.byte	0
 2280 0110 00       		.byte	0
 2281 0111 18       		.uleb128 0x18
 2282 0112 34       		.uleb128 0x34
 2283 0113 00       		.byte	0
 2284 0114 03       		.uleb128 0x3
 2285 0115 0E       		.uleb128 0xe
 2286 0116 3A       		.uleb128 0x3a
 2287 0117 0B       		.uleb128 0xb
 2288 0118 3B       		.uleb128 0x3b
 2289 0119 05       		.uleb128 0x5
 2290 011a 49       		.uleb128 0x49
 2291 011b 13       		.uleb128 0x13
 2292 011c 3F       		.uleb128 0x3f
 2293 011d 19       		.uleb128 0x19
 2294 011e 3C       		.uleb128 0x3c
 2295 011f 19       		.uleb128 0x19
 2296 0120 00       		.byte	0
 2297 0121 00       		.byte	0
 2298 0122 19       		.uleb128 0x19
 2299 0123 21       		.uleb128 0x21
 2300 0124 00       		.byte	0
 2301 0125 49       		.uleb128 0x49
 2302 0126 13       		.uleb128 0x13
 2303 0127 2F       		.uleb128 0x2f
 2304 0128 0B       		.uleb128 0xb
 2305 0129 00       		.byte	0
 2306 012a 00       		.byte	0
 2307 012b 1A       		.uleb128 0x1a
 2308 012c 34       		.uleb128 0x34
 2309 012d 00       		.byte	0
 2310 012e 03       		.uleb128 0x3
 2311 012f 0E       		.uleb128 0xe
 2312 0130 3A       		.uleb128 0x3a
 2313 0131 0B       		.uleb128 0xb
 2314 0132 3B       		.uleb128 0x3b
 2315 0133 0B       		.uleb128 0xb
 2316 0134 49       		.uleb128 0x49
 2317 0135 13       		.uleb128 0x13
 2318 0136 3F       		.uleb128 0x3f
 2319 0137 19       		.uleb128 0x19
 2320 0138 3C       		.uleb128 0x3c
 2321 0139 19       		.uleb128 0x19
 2322 013a 00       		.byte	0
 2323 013b 00       		.byte	0
 2324 013c 1B       		.uleb128 0x1b
 2325 013d 13       		.uleb128 0x13
 2326 013e 01       		.byte	0x1
 2327 013f 0B       		.uleb128 0xb
 2328 0140 05       		.uleb128 0x5
 2329 0141 3A       		.uleb128 0x3a
 2330 0142 0B       		.uleb128 0xb
ARM GAS  /var/folders/t8/16hdwfmd2fg_d3q6dgx6bpmw0000gn/T//cc9oHqFa.s 			page 42


 2331 0143 3B       		.uleb128 0x3b
 2332 0144 0B       		.uleb128 0xb
 2333 0145 01       		.uleb128 0x1
 2334 0146 13       		.uleb128 0x13
 2335 0147 00       		.byte	0
 2336 0148 00       		.byte	0
 2337 0149 1C       		.uleb128 0x1c
 2338 014a 16       		.uleb128 0x16
 2339 014b 00       		.byte	0
 2340 014c 03       		.uleb128 0x3
 2341 014d 0E       		.uleb128 0xe
 2342 014e 3A       		.uleb128 0x3a
 2343 014f 0B       		.uleb128 0xb
 2344 0150 3B       		.uleb128 0x3b
 2345 0151 05       		.uleb128 0x5
 2346 0152 49       		.uleb128 0x49
 2347 0153 13       		.uleb128 0x13
 2348 0154 00       		.byte	0
 2349 0155 00       		.byte	0
 2350 0156 1D       		.uleb128 0x1d
 2351 0157 04       		.uleb128 0x4
 2352 0158 01       		.byte	0x1
 2353 0159 3E       		.uleb128 0x3e
 2354 015a 0B       		.uleb128 0xb
 2355 015b 0B       		.uleb128 0xb
 2356 015c 0B       		.uleb128 0xb
 2357 015d 49       		.uleb128 0x49
 2358 015e 13       		.uleb128 0x13
 2359 015f 3A       		.uleb128 0x3a
 2360 0160 0B       		.uleb128 0xb
 2361 0161 3B       		.uleb128 0x3b
 2362 0162 05       		.uleb128 0x5
 2363 0163 01       		.uleb128 0x1
 2364 0164 13       		.uleb128 0x13
 2365 0165 00       		.byte	0
 2366 0166 00       		.byte	0
 2367 0167 1E       		.uleb128 0x1e
 2368 0168 28       		.uleb128 0x28
 2369 0169 00       		.byte	0
 2370 016a 03       		.uleb128 0x3
 2371 016b 0E       		.uleb128 0xe
 2372 016c 1C       		.uleb128 0x1c
 2373 016d 0B       		.uleb128 0xb
 2374 016e 00       		.byte	0
 2375 016f 00       		.byte	0
 2376 0170 1F       		.uleb128 0x1f
 2377 0171 13       		.uleb128 0x13
 2378 0172 01       		.byte	0x1
 2379 0173 0B       		.uleb128 0xb
 2380 0174 0B       		.uleb128 0xb
 2381 0175 3A       		.uleb128 0x3a
 2382 0176 0B       		.uleb128 0xb
 2383 0177 3B       		.uleb128 0x3b
 2384 0178 05       		.uleb128 0x5
 2385 0179 01       		.uleb128 0x1
 2386 017a 13       		.uleb128 0x13
 2387 017b 00       		.byte	0
ARM GAS  /var/folders/t8/16hdwfmd2fg_d3q6dgx6bpmw0000gn/T//cc9oHqFa.s 			page 43


 2388 017c 00       		.byte	0
 2389 017d 20       		.uleb128 0x20
 2390 017e 15       		.uleb128 0x15
 2391 017f 01       		.byte	0x1
 2392 0180 27       		.uleb128 0x27
 2393 0181 19       		.uleb128 0x19
 2394 0182 49       		.uleb128 0x49
 2395 0183 13       		.uleb128 0x13
 2396 0184 01       		.uleb128 0x1
 2397 0185 13       		.uleb128 0x13
 2398 0186 00       		.byte	0
 2399 0187 00       		.byte	0
 2400 0188 21       		.uleb128 0x21
 2401 0189 2E       		.uleb128 0x2e
 2402 018a 01       		.byte	0x1
 2403 018b 3F       		.uleb128 0x3f
 2404 018c 19       		.uleb128 0x19
 2405 018d 03       		.uleb128 0x3
 2406 018e 0E       		.uleb128 0xe
 2407 018f 3A       		.uleb128 0x3a
 2408 0190 0B       		.uleb128 0xb
 2409 0191 3B       		.uleb128 0x3b
 2410 0192 0B       		.uleb128 0xb
 2411 0193 27       		.uleb128 0x27
 2412 0194 19       		.uleb128 0x19
 2413 0195 11       		.uleb128 0x11
 2414 0196 01       		.uleb128 0x1
 2415 0197 12       		.uleb128 0x12
 2416 0198 06       		.uleb128 0x6
 2417 0199 40       		.uleb128 0x40
 2418 019a 18       		.uleb128 0x18
 2419 019b 9742     		.uleb128 0x2117
 2420 019d 19       		.uleb128 0x19
 2421 019e 01       		.uleb128 0x1
 2422 019f 13       		.uleb128 0x13
 2423 01a0 00       		.byte	0
 2424 01a1 00       		.byte	0
 2425 01a2 22       		.uleb128 0x22
 2426 01a3 05       		.uleb128 0x5
 2427 01a4 00       		.byte	0
 2428 01a5 03       		.uleb128 0x3
 2429 01a6 08       		.uleb128 0x8
 2430 01a7 3A       		.uleb128 0x3a
 2431 01a8 0B       		.uleb128 0xb
 2432 01a9 3B       		.uleb128 0x3b
 2433 01aa 0B       		.uleb128 0xb
 2434 01ab 49       		.uleb128 0x49
 2435 01ac 13       		.uleb128 0x13
 2436 01ad 02       		.uleb128 0x2
 2437 01ae 17       		.uleb128 0x17
 2438 01af 00       		.byte	0
 2439 01b0 00       		.byte	0
 2440 01b1 23       		.uleb128 0x23
 2441 01b2 05       		.uleb128 0x5
 2442 01b3 00       		.byte	0
 2443 01b4 03       		.uleb128 0x3
 2444 01b5 0E       		.uleb128 0xe
ARM GAS  /var/folders/t8/16hdwfmd2fg_d3q6dgx6bpmw0000gn/T//cc9oHqFa.s 			page 44


 2445 01b6 3A       		.uleb128 0x3a
 2446 01b7 0B       		.uleb128 0xb
 2447 01b8 3B       		.uleb128 0x3b
 2448 01b9 0B       		.uleb128 0xb
 2449 01ba 49       		.uleb128 0x49
 2450 01bb 13       		.uleb128 0x13
 2451 01bc 02       		.uleb128 0x2
 2452 01bd 17       		.uleb128 0x17
 2453 01be 00       		.byte	0
 2454 01bf 00       		.byte	0
 2455 01c0 24       		.uleb128 0x24
 2456 01c1 34       		.uleb128 0x34
 2457 01c2 00       		.byte	0
 2458 01c3 03       		.uleb128 0x3
 2459 01c4 0E       		.uleb128 0xe
 2460 01c5 49       		.uleb128 0x49
 2461 01c6 13       		.uleb128 0x13
 2462 01c7 34       		.uleb128 0x34
 2463 01c8 19       		.uleb128 0x19
 2464 01c9 02       		.uleb128 0x2
 2465 01ca 18       		.uleb128 0x18
 2466 01cb 00       		.byte	0
 2467 01cc 00       		.byte	0
 2468 01cd 25       		.uleb128 0x25
 2469 01ce 898201   		.uleb128 0x4109
 2470 01d1 01       		.byte	0x1
 2471 01d2 11       		.uleb128 0x11
 2472 01d3 01       		.uleb128 0x1
 2473 01d4 31       		.uleb128 0x31
 2474 01d5 13       		.uleb128 0x13
 2475 01d6 01       		.uleb128 0x1
 2476 01d7 13       		.uleb128 0x13
 2477 01d8 00       		.byte	0
 2478 01d9 00       		.byte	0
 2479 01da 26       		.uleb128 0x26
 2480 01db 8A8201   		.uleb128 0x410a
 2481 01de 00       		.byte	0
 2482 01df 02       		.uleb128 0x2
 2483 01e0 18       		.uleb128 0x18
 2484 01e1 9142     		.uleb128 0x2111
 2485 01e3 18       		.uleb128 0x18
 2486 01e4 00       		.byte	0
 2487 01e5 00       		.byte	0
 2488 01e6 27       		.uleb128 0x27
 2489 01e7 898201   		.uleb128 0x4109
 2490 01ea 01       		.byte	0x1
 2491 01eb 11       		.uleb128 0x11
 2492 01ec 01       		.uleb128 0x1
 2493 01ed 31       		.uleb128 0x31
 2494 01ee 13       		.uleb128 0x13
 2495 01ef 00       		.byte	0
 2496 01f0 00       		.byte	0
 2497 01f1 28       		.uleb128 0x28
 2498 01f2 2E       		.uleb128 0x2e
 2499 01f3 01       		.byte	0x1
 2500 01f4 3F       		.uleb128 0x3f
 2501 01f5 19       		.uleb128 0x19
ARM GAS  /var/folders/t8/16hdwfmd2fg_d3q6dgx6bpmw0000gn/T//cc9oHqFa.s 			page 45


 2502 01f6 03       		.uleb128 0x3
 2503 01f7 0E       		.uleb128 0xe
 2504 01f8 3A       		.uleb128 0x3a
 2505 01f9 0B       		.uleb128 0xb
 2506 01fa 3B       		.uleb128 0x3b
 2507 01fb 0B       		.uleb128 0xb
 2508 01fc 27       		.uleb128 0x27
 2509 01fd 19       		.uleb128 0x19
 2510 01fe 49       		.uleb128 0x49
 2511 01ff 13       		.uleb128 0x13
 2512 0200 11       		.uleb128 0x11
 2513 0201 01       		.uleb128 0x1
 2514 0202 12       		.uleb128 0x12
 2515 0203 06       		.uleb128 0x6
 2516 0204 40       		.uleb128 0x40
 2517 0205 18       		.uleb128 0x18
 2518 0206 9742     		.uleb128 0x2117
 2519 0208 19       		.uleb128 0x19
 2520 0209 01       		.uleb128 0x1
 2521 020a 13       		.uleb128 0x13
 2522 020b 00       		.byte	0
 2523 020c 00       		.byte	0
 2524 020d 29       		.uleb128 0x29
 2525 020e 2E       		.uleb128 0x2e
 2526 020f 00       		.byte	0
 2527 0210 3F       		.uleb128 0x3f
 2528 0211 19       		.uleb128 0x19
 2529 0212 3C       		.uleb128 0x3c
 2530 0213 19       		.uleb128 0x19
 2531 0214 6E       		.uleb128 0x6e
 2532 0215 0E       		.uleb128 0xe
 2533 0216 03       		.uleb128 0x3
 2534 0217 0E       		.uleb128 0xe
 2535 0218 3A       		.uleb128 0x3a
 2536 0219 0B       		.uleb128 0xb
 2537 021a 3B       		.uleb128 0x3b
 2538 021b 05       		.uleb128 0x5
 2539 021c 00       		.byte	0
 2540 021d 00       		.byte	0
 2541 021e 00       		.byte	0
 2542              		.section	.debug_loc,"",%progbits
 2543              	.Ldebug_loc0:
 2544              	.LLST3:
 2545 0000 00000000 		.4byte	.LVL6
 2546 0004 12000000 		.4byte	.LVL7
 2547 0008 0100     		.2byte	0x1
 2548 000a 50       		.byte	0x50
 2549 000b 12000000 		.4byte	.LVL7
 2550 000f 24000000 		.4byte	.LVL10
 2551 0013 0100     		.2byte	0x1
 2552 0015 54       		.byte	0x54
 2553 0016 24000000 		.4byte	.LVL10
 2554 001a 2C000000 		.4byte	.LFE176
 2555 001e 0400     		.2byte	0x4
 2556 0020 F3       		.byte	0xf3
 2557 0021 01       		.uleb128 0x1
 2558 0022 50       		.byte	0x50
ARM GAS  /var/folders/t8/16hdwfmd2fg_d3q6dgx6bpmw0000gn/T//cc9oHqFa.s 			page 46


 2559 0023 9F       		.byte	0x9f
 2560 0024 00000000 		.4byte	0
 2561 0028 00000000 		.4byte	0
 2562              	.LLST4:
 2563 002c 00000000 		.4byte	.LVL6
 2564 0030 15000000 		.4byte	.LVL8-1
 2565 0034 0100     		.2byte	0x1
 2566 0036 51       		.byte	0x51
 2567 0037 15000000 		.4byte	.LVL8-1
 2568 003b 24000000 		.4byte	.LVL11
 2569 003f 0100     		.2byte	0x1
 2570 0041 55       		.byte	0x55
 2571 0042 24000000 		.4byte	.LVL11
 2572 0046 2C000000 		.4byte	.LFE176
 2573 004a 0400     		.2byte	0x4
 2574 004c F3       		.byte	0xf3
 2575 004d 01       		.uleb128 0x1
 2576 004e 51       		.byte	0x51
 2577 004f 9F       		.byte	0x9f
 2578 0050 00000000 		.4byte	0
 2579 0054 00000000 		.4byte	0
 2580              	.LLST1:
 2581 0058 00000000 		.4byte	.LVL3
 2582 005c 0E000000 		.4byte	.LVL4
 2583 0060 0100     		.2byte	0x1
 2584 0062 50       		.byte	0x50
 2585 0063 0E000000 		.4byte	.LVL4
 2586 0067 18000000 		.4byte	.LFE175
 2587 006b 0400     		.2byte	0x4
 2588 006d F3       		.byte	0xf3
 2589 006e 01       		.uleb128 0x1
 2590 006f 50       		.byte	0x50
 2591 0070 9F       		.byte	0x9f
 2592 0071 00000000 		.4byte	0
 2593 0075 00000000 		.4byte	0
 2594              	.LLST2:
 2595 0079 00000000 		.4byte	.LVL3
 2596 007d 11000000 		.4byte	.LVL5-1
 2597 0081 0100     		.2byte	0x1
 2598 0083 51       		.byte	0x51
 2599 0084 11000000 		.4byte	.LVL5-1
 2600 0088 18000000 		.4byte	.LFE175
 2601 008c 0400     		.2byte	0x4
 2602 008e F3       		.byte	0xf3
 2603 008f 01       		.uleb128 0x1
 2604 0090 51       		.byte	0x51
 2605 0091 9F       		.byte	0x9f
 2606 0092 00000000 		.4byte	0
 2607 0096 00000000 		.4byte	0
 2608              	.LLST0:
 2609 009a 00000000 		.4byte	.LVL0
 2610 009e 0E000000 		.4byte	.LVL1
 2611 00a2 0100     		.2byte	0x1
 2612 00a4 50       		.byte	0x50
 2613 00a5 0E000000 		.4byte	.LVL1
 2614 00a9 1C000000 		.4byte	.LFE174
 2615 00ad 0400     		.2byte	0x4
ARM GAS  /var/folders/t8/16hdwfmd2fg_d3q6dgx6bpmw0000gn/T//cc9oHqFa.s 			page 47


 2616 00af F3       		.byte	0xf3
 2617 00b0 01       		.uleb128 0x1
 2618 00b1 50       		.byte	0x50
 2619 00b2 9F       		.byte	0x9f
 2620 00b3 00000000 		.4byte	0
 2621 00b7 00000000 		.4byte	0
 2622              		.section	.debug_aranges,"",%progbits
 2623 0000 2C000000 		.4byte	0x2c
 2624 0004 0200     		.2byte	0x2
 2625 0006 00000000 		.4byte	.Ldebug_info0
 2626 000a 04       		.byte	0x4
 2627 000b 00       		.byte	0
 2628 000c 0000     		.2byte	0
 2629 000e 0000     		.2byte	0
 2630 0010 00000000 		.4byte	.LFB174
 2631 0014 1C000000 		.4byte	.LFE174-.LFB174
 2632 0018 00000000 		.4byte	.LFB175
 2633 001c 18000000 		.4byte	.LFE175-.LFB175
 2634 0020 00000000 		.4byte	.LFB176
 2635 0024 2C000000 		.4byte	.LFE176-.LFB176
 2636 0028 00000000 		.4byte	0
 2637 002c 00000000 		.4byte	0
 2638              		.section	.debug_ranges,"",%progbits
 2639              	.Ldebug_ranges0:
 2640 0000 00000000 		.4byte	.LFB174
 2641 0004 1C000000 		.4byte	.LFE174
 2642 0008 00000000 		.4byte	.LFB175
 2643 000c 18000000 		.4byte	.LFE175
 2644 0010 00000000 		.4byte	.LFB176
 2645 0014 2C000000 		.4byte	.LFE176
 2646 0018 00000000 		.4byte	0
 2647 001c 00000000 		.4byte	0
 2648              		.section	.debug_line,"",%progbits
 2649              	.Ldebug_line0:
 2650 0000 EB040000 		.section	.debug_str,"MS",%progbits,1
 2650      02008904 
 2650      00000201 
 2650      FB0E0D00 
 2650      01010101 
 2651              	.LASF50:
 2652 0000 63685F74 		.ascii	"ch_threads_list\000"
 2652      68726561 
 2652      64735F6C 
 2652      69737400 
 2653              	.LASF105:
 2654 0010 74696D65 		.ascii	"timesize\000"
 2654      73697A65 
 2654      00
 2655              	.LASF219:
 2656 0019 474E5520 		.ascii	"GNU C99 7.2.1 20170904 (release) [ARM/embedded-7-br"
 2656      43393920 
 2656      372E322E 
 2656      31203230 
 2656      31373039 
 2657 004c 616E6368 		.ascii	"anch revision 255204] -mcpu=cortex-m0plus -mno-thum"
 2657      20726576 
 2657      6973696F 
ARM GAS  /var/folders/t8/16hdwfmd2fg_d3q6dgx6bpmw0000gn/T//cc9oHqFa.s 			page 48


 2657      6E203235 
 2657      35323034 
 2658 007f 622D696E 		.ascii	"b-interwork -mthumb -ggdb -O2 -std=gnu99 -fomit-fra"
 2658      74657277 
 2658      6F726B20 
 2658      2D6D7468 
 2658      756D6220 
 2659 00b2 6D652D70 		.ascii	"me-pointer -falign-functions=16 -ffunction-sections"
 2659      6F696E74 
 2659      6572202D 
 2659      66616C69 
 2659      676E2D66 
 2660 00e5 202D6664 		.ascii	" -fdata-sections -fno-common\000"
 2660      6174612D 
 2660      73656374 
 2660      696F6E73 
 2660      202D666E 
 2661              	.LASF93:
 2662 0102 77746D74 		.ascii	"wtmtxp\000"
 2662      787000
 2663              	.LASF83:
 2664 0109 72656761 		.ascii	"regarm_t\000"
 2664      726D5F74 
 2664      00
 2665              	.LASF183:
 2666 0112 74787369 		.ascii	"txsize\000"
 2666      7A6500
 2667              	.LASF152:
 2668 0119 5553425F 		.ascii	"USB_UNINIT\000"
 2668      554E494E 
 2668      495400
 2669              	.LASF154:
 2670 0124 5553425F 		.ascii	"USB_READY\000"
 2670      52454144 
 2670      5900
 2671              	.LASF171:
 2672 012e 5553425F 		.ascii	"USB_EVENT_SUSPEND\000"
 2672      4556454E 
 2672      545F5355 
 2672      5350454E 
 2672      4400
 2673              	.LASF38:
 2674 0140 666C6167 		.ascii	"flags\000"
 2674      7300
 2675              	.LASF29:
 2676 0146 73797374 		.ascii	"systime_t\000"
 2676      696D655F 
 2676      7400
 2677              	.LASF45:
 2678 0150 7265616C 		.ascii	"realprio\000"
 2678      7072696F 
 2678      00
 2679              	.LASF134:
 2680 0159 494F4275 		.ascii	"IOBus\000"
 2680      7300
 2681              	.LASF208:
 2682 015f 72657175 		.ascii	"requests_hook_cb\000"
ARM GAS  /var/folders/t8/16hdwfmd2fg_d3q6dgx6bpmw0000gn/T//cc9oHqFa.s 			page 49


 2682      65737473 
 2682      5F686F6F 
 2682      6B5F6362 
 2682      00
 2683              	.LASF43:
 2684 0170 6570656E 		.ascii	"epending\000"
 2684      64696E67 
 2684      00
 2685              	.LASF0:
 2686 0179 756E7369 		.ascii	"unsigned int\000"
 2686      676E6564 
 2686      20696E74 
 2686      00
 2687              	.LASF51:
 2688 0186 6E657874 		.ascii	"next\000"
 2688      00
 2689              	.LASF103:
 2690 018b 76657273 		.ascii	"version\000"
 2690      696F6E00 
 2691              	.LASF48:
 2692 0193 74687265 		.ascii	"threads_list_t\000"
 2692      6164735F 
 2692      6C697374 
 2692      5F7400
 2693              	.LASF132:
 2694 01a2 6D61736B 		.ascii	"mask\000"
 2694      00
 2695              	.LASF135:
 2696 01a7 55534244 		.ascii	"USBDriver\000"
 2696      72697665 
 2696      7200
 2697              	.LASF197:
 2698 01b1 696E5F63 		.ascii	"in_cb\000"
 2698      6200
 2699              	.LASF200:
 2700 01b7 6F75745F 		.ascii	"out_maxsize\000"
 2700      6D617873 
 2700      697A6500 
 2701              	.LASF8:
 2702 01c3 5F5F696E 		.ascii	"__int32_t\000"
 2702      7433325F 
 2702      7400
 2703              	.LASF160:
 2704 01cd 5553425F 		.ascii	"USB_EP0_TX\000"
 2704      4550305F 
 2704      545800
 2705              	.LASF39:
 2706 01d8 72656673 		.ascii	"refs\000"
 2706      00
 2707              	.LASF201:
 2708 01dd 696E5F73 		.ascii	"in_state\000"
 2708      74617465 
 2708      00
 2709              	.LASF117:
 2710 01e6 6F66665F 		.ascii	"off_time\000"
 2710      74696D65 
 2710      00
ARM GAS  /var/folders/t8/16hdwfmd2fg_d3q6dgx6bpmw0000gn/T//cc9oHqFa.s 			page 50


 2711              	.LASF210:
 2712 01ef 55534243 		.ascii	"USBConfig\000"
 2712      6F6E6669 
 2712      6700
 2713              	.LASF195:
 2714 01f9 65705F6D 		.ascii	"ep_mode\000"
 2714      6F646500 
 2715              	.LASF89:
 2716 0201 77746F62 		.ascii	"wtobjp\000"
 2716      6A7000
 2717              	.LASF144:
 2718 0208 65703065 		.ascii	"ep0endcb\000"
 2718      6E646362 
 2718      00
 2719              	.LASF74:
 2720 0211 76746C69 		.ascii	"vtlist\000"
 2720      737400
 2721              	.LASF175:
 2722 0218 75645F73 		.ascii	"ud_size\000"
 2722      697A6500 
 2723              	.LASF85:
 2724 0220 706F7274 		.ascii	"port_context\000"
 2724      5F636F6E 
 2724      74657874 
 2724      00
 2725              	.LASF56:
 2726 022d 63685F72 		.ascii	"ch_ready_list\000"
 2726      65616479 
 2726      5F6C6973 
 2726      7400
 2727              	.LASF62:
 2728 023b 66756E63 		.ascii	"func\000"
 2728      00
 2729              	.LASF94:
 2730 0240 65776D61 		.ascii	"ewmask\000"
 2730      736B00
 2731              	.LASF212:
 2732 0247 6D6F6465 		.ascii	"mode\000"
 2732      00
 2733              	.LASF54:
 2734 024c 70726576 		.ascii	"prev\000"
 2734      00
 2735              	.LASF53:
 2736 0251 63685F74 		.ascii	"ch_threads_queue\000"
 2736      68726561 
 2736      64735F71 
 2736      75657565 
 2736      00
 2737              	.LASF167:
 2738 0262 5553425F 		.ascii	"USB_EVENT_RESET\000"
 2738      4556454E 
 2738      545F5245 
 2738      53455400 
 2739              	.LASF203:
 2740 0272 65705F62 		.ascii	"ep_buffers\000"
 2740      75666665 
 2740      727300
ARM GAS  /var/folders/t8/16hdwfmd2fg_d3q6dgx6bpmw0000gn/T//cc9oHqFa.s 			page 51


 2741              	.LASF109:
 2742 027d 6F66665F 		.ascii	"off_newer\000"
 2742      6E657765 
 2742      7200
 2743              	.LASF58:
 2744 0287 76746675 		.ascii	"vtfunc_t\000"
 2744      6E635F74 
 2744      00
 2745              	.LASF159:
 2746 0290 5553425F 		.ascii	"USB_EP0_WAITING_SETUP\000"
 2746      4550305F 
 2746      57414954 
 2746      494E475F 
 2746      53455455 
 2747              	.LASF189:
 2748 02a6 55534249 		.ascii	"USBInEndpointState\000"
 2748      6E456E64 
 2748      706F696E 
 2748      74537461 
 2748      746500
 2749              	.LASF67:
 2750 02b9 63685F73 		.ascii	"ch_system_debug\000"
 2750      79737465 
 2750      6D5F6465 
 2750      62756700 
 2751              	.LASF18:
 2752 02c9 75696E74 		.ascii	"uint32_t\000"
 2752      33325F74 
 2752      00
 2753              	.LASF220:
 2754 02d2 2E2E2F2E 		.ascii	"../../tmk_core/tool/chibios/ChibiOS/os/hal/src/hal_"
 2754      2E2F746D 
 2754      6B5F636F 
 2754      72652F74 
 2754      6F6F6C2F 
 2755 0305 70616C2E 		.ascii	"pal.c\000"
 2755      6300
 2756              	.LASF91:
 2757 030b 73656E74 		.ascii	"sentmsg\000"
 2757      6D736700 
 2758              	.LASF27:
 2759 0313 6576656E 		.ascii	"eventmask_t\000"
 2759      746D6173 
 2759      6B5F7400 
 2760              	.LASF106:
 2761 031f 74687265 		.ascii	"threadsize\000"
 2761      61647369 
 2761      7A6500
 2762              	.LASF95:
 2763 032a 63685F73 		.ascii	"ch_semaphore\000"
 2763      656D6170 
 2763      686F7265 
 2763      00
 2764              	.LASF25:
 2765 0337 74707269 		.ascii	"tprio_t\000"
 2765      6F5F7400 
 2766              	.LASF60:
ARM GAS  /var/folders/t8/16hdwfmd2fg_d3q6dgx6bpmw0000gn/T//cc9oHqFa.s 			page 52


 2767 033f 63685F76 		.ascii	"ch_virtual_timer\000"
 2767      69727475 
 2767      616C5F74 
 2767      696D6572 
 2767      00
 2768              	.LASF161:
 2769 0350 5553425F 		.ascii	"USB_EP0_WAITING_TX0\000"
 2769      4550305F 
 2769      57414954 
 2769      494E475F 
 2769      54583000 
 2770              	.LASF81:
 2771 0364 50444452 		.ascii	"PDDR\000"
 2771      00
 2772              	.LASF14:
 2773 0369 6C6F6E67 		.ascii	"long long unsigned int\000"
 2773      206C6F6E 
 2773      6720756E 
 2773      7369676E 
 2773      65642069 
 2774              	.LASF184:
 2775 0380 7478636E 		.ascii	"txcnt\000"
 2775      7400
 2776              	.LASF137:
 2777 0386 7472616E 		.ascii	"transmitting\000"
 2777      736D6974 
 2777      74696E67 
 2777      00
 2778              	.LASF205:
 2779 0393 55534245 		.ascii	"USBEndpointConfig\000"
 2779      6E64706F 
 2779      696E7443 
 2779      6F6E6669 
 2779      6700
 2780              	.LASF138:
 2781 03a5 72656365 		.ascii	"receiving\000"
 2781      6976696E 
 2781      6700
 2782              	.LASF206:
 2783 03af 6576656E 		.ascii	"event_cb\000"
 2783      745F6362 
 2783      00
 2784              	.LASF6:
 2785 03b8 5F5F7569 		.ascii	"__uint16_t\000"
 2785      6E743136 
 2785      5F7400
 2786              	.LASF28:
 2787 03c3 636E745F 		.ascii	"cnt_t\000"
 2787      7400
 2788              	.LASF112:
 2789 03c9 6F66665F 		.ascii	"off_stklimit\000"
 2789      73746B6C 
 2789      696D6974 
 2789      00
 2790              	.LASF69:
 2791 03d6 6973725F 		.ascii	"isr_cnt\000"
 2791      636E7400 
ARM GAS  /var/folders/t8/16hdwfmd2fg_d3q6dgx6bpmw0000gn/T//cc9oHqFa.s 			page 53


 2792              	.LASF97:
 2793 03de 6F776E65 		.ascii	"owner\000"
 2793      7200
 2794              	.LASF52:
 2795 03e4 74687265 		.ascii	"threads_queue_t\000"
 2795      6164735F 
 2795      71756575 
 2795      655F7400 
 2796              	.LASF185:
 2797 03f4 74786275 		.ascii	"txbuf\000"
 2797      6600
 2798              	.LASF44:
 2799 03fa 6D74786C 		.ascii	"mtxlist\000"
 2799      69737400 
 2800              	.LASF64:
 2801 0402 63685F76 		.ascii	"ch_virtual_timers_list\000"
 2801      69727475 
 2801      616C5F74 
 2801      696D6572 
 2801      735F6C69 
 2802              	.LASF198:
 2803 0419 6F75745F 		.ascii	"out_cb\000"
 2803      636200
 2804              	.LASF79:
 2805 0420 50544F52 		.ascii	"PTOR\000"
 2805      00
 2806              	.LASF30:
 2807 0425 74687265 		.ascii	"thread_t\000"
 2807      61645F74 
 2807      00
 2808              	.LASF110:
 2809 042e 6F66665F 		.ascii	"off_older\000"
 2809      6F6C6465 
 2809      7200
 2810              	.LASF113:
 2811 0438 6F66665F 		.ascii	"off_state\000"
 2811      73746174 
 2811      6500
 2812              	.LASF2:
 2813 0442 73697A65 		.ascii	"size_t\000"
 2813      5F7400
 2814              	.LASF87:
 2815 0449 7264796D 		.ascii	"rdymsg\000"
 2815      736700
 2816              	.LASF133:
 2817 0450 6F666673 		.ascii	"offset\000"
 2817      657400
 2818              	.LASF126:
 2819 0457 70616473 		.ascii	"pads\000"
 2819      00
 2820              	.LASF148:
 2821 045c 636F6E66 		.ascii	"configuration\000"
 2821      69677572 
 2821      6174696F 
 2821      6E00
 2822              	.LASF156:
 2823 046a 5553425F 		.ascii	"USB_ACTIVE\000"
ARM GAS  /var/folders/t8/16hdwfmd2fg_d3q6dgx6bpmw0000gn/T//cc9oHqFa.s 			page 54


 2823      41435449 
 2823      564500
 2824              	.LASF121:
 2825 0475 5F426F6F 		.ascii	"_Bool\000"
 2825      6C00
 2826              	.LASF96:
 2827 047b 63685F6D 		.ascii	"ch_mutex\000"
 2827      75746578 
 2827      00
 2828              	.LASF13:
 2829 0484 5F5F7569 		.ascii	"__uint64_t\000"
 2829      6E743634 
 2829      5F7400
 2830              	.LASF207:
 2831 048f 6765745F 		.ascii	"get_descriptor_cb\000"
 2831      64657363 
 2831      72697074 
 2831      6F725F63 
 2831      6200
 2832              	.LASF130:
 2833 04a1 70616C5F 		.ascii	"pal_default_config\000"
 2833      64656661 
 2833      756C745F 
 2833      636F6E66 
 2833      696700
 2834              	.LASF162:
 2835 04b4 5553425F 		.ascii	"USB_EP0_WAITING_STS\000"
 2835      4550305F 
 2835      57414954 
 2835      494E475F 
 2835      53545300 
 2836              	.LASF108:
 2837 04c8 6F66665F 		.ascii	"off_ctx\000"
 2837      63747800 
 2838              	.LASF124:
 2839 04d0 696F706F 		.ascii	"ioportid_t\000"
 2839      72746964 
 2839      5F7400
 2840              	.LASF131:
 2841 04db 706F7274 		.ascii	"portid\000"
 2841      696400
 2842              	.LASF114:
 2843 04e2 6F66665F 		.ascii	"off_flags\000"
 2843      666C6167 
 2843      7300
 2844              	.LASF32:
 2845 04ec 7072696F 		.ascii	"prio\000"
 2845      00
 2846              	.LASF168:
 2847 04f1 5553425F 		.ascii	"USB_EVENT_ADDRESS\000"
 2847      4556454E 
 2847      545F4144 
 2847      44524553 
 2847      5300
 2848              	.LASF98:
 2849 0503 63686172 		.ascii	"char\000"
 2849      00
ARM GAS  /var/folders/t8/16hdwfmd2fg_d3q6dgx6bpmw0000gn/T//cc9oHqFa.s 			page 55


 2850              	.LASF222:
 2851 0508 70616C52 		.ascii	"palReadBus\000"
 2851      65616442 
 2851      757300
 2852              	.LASF47:
 2853 0513 74687265 		.ascii	"thread_reference_t\000"
 2853      61645F72 
 2853      65666572 
 2853      656E6365 
 2853      5F7400
 2854              	.LASF36:
 2855 0526 77616261 		.ascii	"wabase\000"
 2855      736500
 2856              	.LASF99:
 2857 052d 63685F69 		.ascii	"ch_idle_thread_wa\000"
 2857      646C655F 
 2857      74687265 
 2857      61645F77 
 2857      6100
 2858              	.LASF217:
 2859 053f 63685379 		.ascii	"chSysHalt\000"
 2859      7348616C 
 2859      7400
 2860              	.LASF22:
 2861 0549 74737461 		.ascii	"tstate_t\000"
 2861      74655F74 
 2861      00
 2862              	.LASF142:
 2863 0552 6570306E 		.ascii	"ep0next\000"
 2863      65787400 
 2864              	.LASF193:
 2865 055a 7278706B 		.ascii	"rxpkts\000"
 2865      747300
 2866              	.LASF15:
 2867 0561 75696E74 		.ascii	"uint8_t\000"
 2867      385F7400 
 2868              	.LASF146:
 2869 0569 73746174 		.ascii	"status\000"
 2869      757300
 2870              	.LASF42:
 2871 0570 6D736771 		.ascii	"msgqueue\000"
 2871      75657565 
 2871      00
 2872              	.LASF49:
 2873 0579 63685F74 		.ascii	"ch_thread\000"
 2873      68726561 
 2873      6400
 2874              	.LASF111:
 2875 0583 6F66665F 		.ascii	"off_name\000"
 2875      6E616D65 
 2875      00
 2876              	.LASF215:
 2877 058c 62697473 		.ascii	"bits\000"
 2877      00
 2878              	.LASF213:
 2879 0591 70616C53 		.ascii	"palSetBusMode\000"
 2879      65744275 
ARM GAS  /var/folders/t8/16hdwfmd2fg_d3q6dgx6bpmw0000gn/T//cc9oHqFa.s 			page 56


 2879      734D6F64 
 2879      6500
 2880              	.LASF158:
 2881 059f 75736273 		.ascii	"usbstate_t\000"
 2881      74617465 
 2881      5F7400
 2882              	.LASF66:
 2883 05aa 73797374 		.ascii	"system_debug_t\000"
 2883      656D5F64 
 2883      65627567 
 2883      5F7400
 2884              	.LASF214:
 2885 05b9 70616C57 		.ascii	"palWriteBus\000"
 2885      72697465 
 2885      42757300 
 2886              	.LASF12:
 2887 05c5 6C6F6E67 		.ascii	"long long int\000"
 2887      206C6F6E 
 2887      6720696E 
 2887      7400
 2888              	.LASF101:
 2889 05d3 7A65726F 		.ascii	"zero\000"
 2889      00
 2890              	.LASF26:
 2891 05d8 6D73675F 		.ascii	"msg_t\000"
 2891      7400
 2892              	.LASF143:
 2893 05de 6570306E 		.ascii	"ep0n\000"
 2893      00
 2894              	.LASF202:
 2895 05e3 6F75745F 		.ascii	"out_state\000"
 2895      73746174 
 2895      6500
 2896              	.LASF59:
 2897 05ed 76697274 		.ascii	"virtual_timer_t\000"
 2897      75616C5F 
 2897      74696D65 
 2897      725F7400 
 2898              	.LASF122:
 2899 05fd 696F706F 		.ascii	"ioportmask_t\000"
 2899      72746D61 
 2899      736B5F74 
 2899      00
 2900              	.LASF123:
 2901 060a 696F6D6F 		.ascii	"iomode_t\000"
 2901      64655F74 
 2901      00
 2902              	.LASF139:
 2903 0613 696E5F70 		.ascii	"in_params\000"
 2903      6172616D 
 2903      7300
 2904              	.LASF209:
 2905 061d 736F665F 		.ascii	"sof_cb\000"
 2905      636200
 2906              	.LASF188:
 2907 0624 64617461 		.ascii	"data_bank\000"
 2907      5F62616E 
ARM GAS  /var/folders/t8/16hdwfmd2fg_d3q6dgx6bpmw0000gn/T//cc9oHqFa.s 			page 57


 2907      6B00
 2908              	.LASF102:
 2909 062e 73697A65 		.ascii	"size\000"
 2909      00
 2910              	.LASF78:
 2911 0633 50434F52 		.ascii	"PCOR\000"
 2911      00
 2912              	.LASF104:
 2913 0638 70747273 		.ascii	"ptrsize\000"
 2913      697A6500 
 2914              	.LASF80:
 2915 0640 50444952 		.ascii	"PDIR\000"
 2915      00
 2916              	.LASF173:
 2917 0645 5553425F 		.ascii	"USB_EVENT_STALLED\000"
 2917      4556454E 
 2917      545F5354 
 2917      414C4C45 
 2917      4400
 2918              	.LASF24:
 2919 0657 74736C69 		.ascii	"tslices_t\000"
 2919      6365735F 
 2919      7400
 2920              	.LASF221:
 2921 0661 2F557365 		.ascii	"/Users/jpablobr/tmp/tmk/di0ib-tmk_keyboard/keyboard"
 2921      72732F6A 
 2921      7061626C 
 2921      6F62722F 
 2921      746D702F 
 2922 0694 2F746565 		.ascii	"/teensy_lc_menelaus\000"
 2922      6E73795F 
 2922      6C635F6D 
 2922      656E656C 
 2922      61757300 
 2923              	.LASF157:
 2924 06a8 5553425F 		.ascii	"USB_SUSPENDED\000"
 2924      53555350 
 2924      454E4445 
 2924      4400
 2925              	.LASF204:
 2926 06b6 73657475 		.ascii	"setup_buf\000"
 2926      705F6275 
 2926      6600
 2927              	.LASF170:
 2928 06c0 5553425F 		.ascii	"USB_EVENT_UNCONFIGURED\000"
 2928      4556454E 
 2928      545F554E 
 2928      434F4E46 
 2928      49475552 
 2929              	.LASF68:
 2930 06d7 70616E69 		.ascii	"panic_msg\000"
 2930      635F6D73 
 2930      6700
 2931              	.LASF177:
 2932 06e1 55534244 		.ascii	"USBDescriptor\000"
 2932      65736372 
 2932      6970746F 
ARM GAS  /var/folders/t8/16hdwfmd2fg_d3q6dgx6bpmw0000gn/T//cc9oHqFa.s 			page 58


 2932      7200
 2933              	.LASF21:
 2934 06ef 746D6F64 		.ascii	"tmode_t\000"
 2934      655F7400 
 2935              	.LASF65:
 2936 06f7 73797374 		.ascii	"systime\000"
 2936      696D6500 
 2937              	.LASF75:
 2938 06ff 6D61696E 		.ascii	"mainthread\000"
 2938      74687265 
 2938      616400
 2939              	.LASF141:
 2940 070a 65703073 		.ascii	"ep0state\000"
 2940      74617465 
 2940      00
 2941              	.LASF16:
 2942 0713 75696E74 		.ascii	"uint16_t\000"
 2942      31365F74 
 2942      00
 2943              	.LASF118:
 2944 071c 63686465 		.ascii	"chdebug_t\000"
 2944      6275675F 
 2944      7400
 2945              	.LASF107:
 2946 0726 6F66665F 		.ascii	"off_prio\000"
 2946      7072696F 
 2946      00
 2947              	.LASF70:
 2948 072f 6C6F636B 		.ascii	"lock_cnt\000"
 2948      5F636E74 
 2948      00
 2949              	.LASF136:
 2950 0738 636F6E66 		.ascii	"config\000"
 2950      696700
 2951              	.LASF5:
 2952 073f 73686F72 		.ascii	"short int\000"
 2952      7420696E 
 2952      7400
 2953              	.LASF140:
 2954 0749 6F75745F 		.ascii	"out_params\000"
 2954      70617261 
 2954      6D7300
 2955              	.LASF9:
 2956 0754 6C6F6E67 		.ascii	"long int\000"
 2956      20696E74 
 2956      00
 2957              	.LASF86:
 2958 075d 706F7274 		.ascii	"port_intctx\000"
 2958      5F696E74 
 2958      63747800 
 2959              	.LASF40:
 2960 0769 70726565 		.ascii	"preempt\000"
 2960      6D707400 
 2961              	.LASF194:
 2962 0771 5553424F 		.ascii	"USBOutEndpointState\000"
 2962      7574456E 
 2962      64706F69 
ARM GAS  /var/folders/t8/16hdwfmd2fg_d3q6dgx6bpmw0000gn/T//cc9oHqFa.s 			page 59


 2962      6E745374 
 2962      61746500 
 2963              	.LASF149:
 2964 0785 73617665 		.ascii	"saved_state\000"
 2964      645F7374 
 2964      61746500 
 2965              	.LASF182:
 2966 0791 75736267 		.ascii	"usbgetdescriptor_t\000"
 2966      65746465 
 2966      73637269 
 2966      70746F72 
 2966      5F7400
 2967              	.LASF72:
 2968 07a4 63685F73 		.ascii	"ch_system\000"
 2968      79737465 
 2968      6D00
 2969              	.LASF19:
 2970 07ae 75696E74 		.ascii	"uint64_t\000"
 2970      36345F74 
 2970      00
 2971              	.LASF73:
 2972 07b7 726C6973 		.ascii	"rlist\000"
 2972      7400
 2973              	.LASF155:
 2974 07bd 5553425F 		.ascii	"USB_SELECTED\000"
 2974      53454C45 
 2974      43544544 
 2974      00
 2975              	.LASF3:
 2976 07ca 5F5F7569 		.ascii	"__uint8_t\000"
 2976      6E74385F 
 2976      7400
 2977              	.LASF35:
 2978 07d4 6E616D65 		.ascii	"name\000"
 2978      00
 2979              	.LASF179:
 2980 07d9 75736265 		.ascii	"usbepcallback_t\000"
 2980      7063616C 
 2980      6C626163 
 2980      6B5F7400 
 2981              	.LASF190:
 2982 07e9 72787369 		.ascii	"rxsize\000"
 2982      7A6500
 2983              	.LASF82:
 2984 07f0 4750494F 		.ascii	"GPIO_TypeDef\000"
 2984      5F547970 
 2984      65446566 
 2984      00
 2985              	.LASF100:
 2986 07fd 6964656E 		.ascii	"identifier\000"
 2986      74696669 
 2986      657200
 2987              	.LASF116:
 2988 0808 6F66665F 		.ascii	"off_preempt\000"
 2988      70726565 
 2988      6D707400 
 2989              	.LASF129:
ARM GAS  /var/folders/t8/16hdwfmd2fg_d3q6dgx6bpmw0000gn/T//cc9oHqFa.s 			page 60


 2990 0814 50414C43 		.ascii	"PALConfig\000"
 2990      6F6E6669 
 2990      6700
 2991              	.LASF23:
 2992 081e 74726566 		.ascii	"trefs_t\000"
 2992      735F7400 
 2993              	.LASF11:
 2994 0826 6C6F6E67 		.ascii	"long unsigned int\000"
 2994      20756E73 
 2994      69676E65 
 2994      6420696E 
 2994      7400
 2995              	.LASF147:
 2996 0838 61646472 		.ascii	"address\000"
 2996      65737300 
 2997              	.LASF55:
 2998 0840 72656164 		.ascii	"ready_list_t\000"
 2998      795F6C69 
 2998      73745F74 
 2998      00
 2999              	.LASF187:
 3000 084d 6F64645F 		.ascii	"odd_even\000"
 3000      6576656E 
 3000      00
 3001              	.LASF31:
 3002 0856 71756575 		.ascii	"queue\000"
 3002      6500
 3003              	.LASF17:
 3004 085c 696E7433 		.ascii	"int32_t\000"
 3004      325F7400 
 3005              	.LASF125:
 3006 0864 706F7274 		.ascii	"port\000"
 3006      00
 3007              	.LASF186:
 3008 0869 74687265 		.ascii	"thread\000"
 3008      616400
 3009              	.LASF92:
 3010 0870 77747365 		.ascii	"wtsemp\000"
 3010      6D7000
 3011              	.LASF120:
 3012 0877 6D757465 		.ascii	"mutex_t\000"
 3012      785F7400 
 3013              	.LASF33:
 3014 087f 6E657765 		.ascii	"newer\000"
 3014      7200
 3015              	.LASF4:
 3016 0885 756E7369 		.ascii	"unsigned char\000"
 3016      676E6564 
 3016      20636861 
 3016      7200
 3017              	.LASF145:
 3018 0893 73657475 		.ascii	"setup\000"
 3018      7000
 3019              	.LASF150:
 3020 0899 706D6E65 		.ascii	"pmnext\000"
 3020      787400
 3021              	.LASF10:
ARM GAS  /var/folders/t8/16hdwfmd2fg_d3q6dgx6bpmw0000gn/T//cc9oHqFa.s 			page 61


 3022 08a0 5F5F7569 		.ascii	"__uint32_t\000"
 3022      6E743332 
 3022      5F7400
 3023              	.LASF41:
 3024 08ab 77616974 		.ascii	"waiting\000"
 3024      696E6700 
 3025              	.LASF165:
 3026 08b3 5553425F 		.ascii	"USB_EP0_ERROR\000"
 3026      4550305F 
 3026      4552524F 
 3026      5200
 3027              	.LASF63:
 3028 08c1 76697274 		.ascii	"virtual_timers_list_t\000"
 3028      75616C5F 
 3028      74696D65 
 3028      72735F6C 
 3028      6973745F 
 3029              	.LASF151:
 3030 08d7 75736265 		.ascii	"usbep_t\000"
 3030      705F7400 
 3031              	.LASF196:
 3032 08df 73657475 		.ascii	"setup_cb\000"
 3032      705F6362 
 3032      00
 3033              	.LASF20:
 3034 08e8 75696E74 		.ascii	"uint_fast8_t\000"
 3034      5F666173 
 3034      74385F74 
 3034      00
 3035              	.LASF176:
 3036 08f5 75645F73 		.ascii	"ud_string\000"
 3036      7472696E 
 3036      6700
 3037              	.LASF172:
 3038 08ff 5553425F 		.ascii	"USB_EVENT_WAKEUP\000"
 3038      4556454E 
 3038      545F5741 
 3038      4B455550 
 3038      00
 3039              	.LASF37:
 3040 0910 73746174 		.ascii	"state\000"
 3040      6500
 3041              	.LASF180:
 3042 0916 75736265 		.ascii	"usbeventcb_t\000"
 3042      76656E74 
 3042      63625F74 
 3042      00
 3043              	.LASF218:
 3044 0923 5F70616C 		.ascii	"_pal_lld_setgroupmode\000"
 3044      5F6C6C64 
 3044      5F736574 
 3044      67726F75 
 3044      706D6F64 
 3045              	.LASF71:
 3046 0939 63685F73 		.ascii	"ch_system_t\000"
 3046      79737465 
 3046      6D5F7400 
ARM GAS  /var/folders/t8/16hdwfmd2fg_d3q6dgx6bpmw0000gn/T//cc9oHqFa.s 			page 62


 3047              	.LASF90:
 3048 0945 77747472 		.ascii	"wttrp\000"
 3048      7000
 3049              	.LASF128:
 3050 094b 706F7274 		.ascii	"ports\000"
 3050      7300
 3051              	.LASF211:
 3052 0951 55534244 		.ascii	"USBD1\000"
 3052      3100
 3053              	.LASF77:
 3054 0957 50534F52 		.ascii	"PSOR\000"
 3054      00
 3055              	.LASF1:
 3056 095c 7369676E 		.ascii	"signed char\000"
 3056      65642063 
 3056      68617200 
 3057              	.LASF61:
 3058 0968 64656C74 		.ascii	"delta\000"
 3058      6100
 3059              	.LASF7:
 3060 096e 73686F72 		.ascii	"short unsigned int\000"
 3060      7420756E 
 3060      7369676E 
 3060      65642069 
 3060      6E7400
 3061              	.LASF84:
 3062 0981 73746B61 		.ascii	"stkalign_t\000"
 3062      6C69676E 
 3062      5F7400
 3063              	.LASF115:
 3064 098c 6F66665F 		.ascii	"off_refs\000"
 3064      72656673 
 3064      00
 3065              	.LASF57:
 3066 0995 63757272 		.ascii	"current\000"
 3066      656E7400 
 3067              	.LASF216:
 3068 099d 5F5F6675 		.ascii	"__func__\000"
 3068      6E635F5F 
 3068      00
 3069              	.LASF119:
 3070 09a6 63685F64 		.ascii	"ch_debug\000"
 3070      65627567 
 3070      00
 3071              	.LASF164:
 3072 09af 5553425F 		.ascii	"USB_EP0_SENDING_STS\000"
 3072      4550305F 
 3072      53454E44 
 3072      494E475F 
 3072      53545300 
 3073              	.LASF191:
 3074 09c3 7278636E 		.ascii	"rxcnt\000"
 3074      7400
 3075              	.LASF199:
 3076 09c9 696E5F6D 		.ascii	"in_maxsize\000"
 3076      61787369 
 3076      7A6500
ARM GAS  /var/folders/t8/16hdwfmd2fg_d3q6dgx6bpmw0000gn/T//cc9oHqFa.s 			page 63


 3077              	.LASF174:
 3078 09d4 75736265 		.ascii	"usbevent_t\000"
 3078      76656E74 
 3078      5F7400
 3079              	.LASF76:
 3080 09df 50444F52 		.ascii	"PDOR\000"
 3080      00
 3081              	.LASF127:
 3082 09e4 506F7274 		.ascii	"PortConfig\000"
 3082      436F6E66 
 3082      696700
 3083              	.LASF163:
 3084 09ef 5553425F 		.ascii	"USB_EP0_RX\000"
 3084      4550305F 
 3084      525800
 3085              	.LASF166:
 3086 09fa 75736265 		.ascii	"usbep0state_t\000"
 3086      70307374 
 3086      6174655F 
 3086      7400
 3087              	.LASF169:
 3088 0a08 5553425F 		.ascii	"USB_EVENT_CONFIGURED\000"
 3088      4556454E 
 3088      545F434F 
 3088      4E464947 
 3088      55524544 
 3089              	.LASF178:
 3090 0a1d 75736263 		.ascii	"usbcallback_t\000"
 3090      616C6C62 
 3090      61636B5F 
 3090      7400
 3091              	.LASF34:
 3092 0a2b 6F6C6465 		.ascii	"older\000"
 3092      7200
 3093              	.LASF88:
 3094 0a31 65786974 		.ascii	"exitcode\000"
 3094      636F6465 
 3094      00
 3095              	.LASF153:
 3096 0a3a 5553425F 		.ascii	"USB_STOP\000"
 3096      53544F50 
 3096      00
 3097              	.LASF192:
 3098 0a43 72786275 		.ascii	"rxbuf\000"
 3098      6600
 3099              	.LASF46:
 3100 0a49 6D706F6F 		.ascii	"mpool\000"
 3100      6C00
 3101              	.LASF181:
 3102 0a4f 75736272 		.ascii	"usbreqhandler_t\000"
 3102      65716861 
 3102      6E646C65 
 3102      725F7400 
 3103              		.ident	"GCC: (GNU Tools for Arm Embedded Processors 7-2017-q4-major) 7.2.1 20170904 (release) [ARM
ARM GAS  /var/folders/t8/16hdwfmd2fg_d3q6dgx6bpmw0000gn/T//cc9oHqFa.s 			page 64


DEFINED SYMBOLS
                            *ABS*:0000000000000000 hal_pal.c
/var/folders/t8/16hdwfmd2fg_d3q6dgx6bpmw0000gn/T//cc9oHqFa.s:16     .text.palReadBus:0000000000000000 $t
/var/folders/t8/16hdwfmd2fg_d3q6dgx6bpmw0000gn/T//cc9oHqFa.s:24     .text.palReadBus:0000000000000000 palReadBus
/var/folders/t8/16hdwfmd2fg_d3q6dgx6bpmw0000gn/T//cc9oHqFa.s:57     .text.palReadBus:0000000000000018 $d
/var/folders/t8/16hdwfmd2fg_d3q6dgx6bpmw0000gn/T//cc9oHqFa.s:62     .text.palWriteBus:0000000000000000 $t
/var/folders/t8/16hdwfmd2fg_d3q6dgx6bpmw0000gn/T//cc9oHqFa.s:70     .text.palWriteBus:0000000000000000 palWriteBus
/var/folders/t8/16hdwfmd2fg_d3q6dgx6bpmw0000gn/T//cc9oHqFa.s:101    .text.palWriteBus:0000000000000014 $d
/var/folders/t8/16hdwfmd2fg_d3q6dgx6bpmw0000gn/T//cc9oHqFa.s:106    .text.palSetBusMode:0000000000000000 $t
/var/folders/t8/16hdwfmd2fg_d3q6dgx6bpmw0000gn/T//cc9oHqFa.s:114    .text.palSetBusMode:0000000000000000 palSetBusMode
/var/folders/t8/16hdwfmd2fg_d3q6dgx6bpmw0000gn/T//cc9oHqFa.s:160    .text.palSetBusMode:0000000000000028 $d
/var/folders/t8/16hdwfmd2fg_d3q6dgx6bpmw0000gn/T//cc9oHqFa.s:165    .rodata.__func__.6420:0000000000000000 $d
/var/folders/t8/16hdwfmd2fg_d3q6dgx6bpmw0000gn/T//cc9oHqFa.s:169    .rodata.__func__.6420:0000000000000000 __func__.6420
/var/folders/t8/16hdwfmd2fg_d3q6dgx6bpmw0000gn/T//cc9oHqFa.s:172    .rodata.__func__.6425:0000000000000000 $d
/var/folders/t8/16hdwfmd2fg_d3q6dgx6bpmw0000gn/T//cc9oHqFa.s:176    .rodata.__func__.6425:0000000000000000 __func__.6425
/var/folders/t8/16hdwfmd2fg_d3q6dgx6bpmw0000gn/T//cc9oHqFa.s:179    .rodata.__func__.6430:0000000000000000 $d
/var/folders/t8/16hdwfmd2fg_d3q6dgx6bpmw0000gn/T//cc9oHqFa.s:183    .rodata.__func__.6430:0000000000000000 __func__.6430

UNDEFINED SYMBOLS
chSysHalt
_pal_lld_setgroupmode
