ARM GAS  /var/folders/t8/16hdwfmd2fg_d3q6dgx6bpmw0000gn/T//cc1hzQo4.s 			page 1


   1              		.cpu cortex-m0plus
   2              		.eabi_attribute 20, 1
   3              		.eabi_attribute 21, 1
   4              		.eabi_attribute 23, 3
   5              		.eabi_attribute 24, 1
   6              		.eabi_attribute 25, 1
   7              		.eabi_attribute 26, 1
   8              		.eabi_attribute 30, 2
   9              		.eabi_attribute 34, 0
  10              		.eabi_attribute 18, 4
  11              		.file	"hal_lld.c"
  12              		.text
  13              	.Ltext0:
  14              		.cfi_sections	.debug_frame
  15              		.section	.text.hal_lld_init,"ax",%progbits
  16              		.align	1
  17              		.p2align 4,,15
  18              		.global	hal_lld_init
  19              		.syntax unified
  20              		.code	16
  21              		.thumb_func
  22              		.fpu softvfp
  23              		.type	hal_lld_init, %function
  24              	hal_lld_init:
  25              	.LFB174:
  26              		.file 1 "../../tmk_core/tool/chibios/ChibiOS-Contrib/os/hal/ports/KINETIS/KL2x/hal_lld.c"
  27              		.loc 1 93 0
  28              		.cfi_startproc
  29              		@ args = 0, pretend = 0, frame = 0
  30              		@ frame_needed = 0, uses_anonymous_args = 0
  31              		@ link register save eliminated.
  32              		.loc 1 94 0
  33              		@ sp needed
  34 0000 7047     		bx	lr
  35              		.cfi_endproc
  36              	.LFE174:
  37              		.size	hal_lld_init, .-hal_lld_init
  38 0002 C046     		.section	.text.kl2x_clock_init,"ax",%progbits
  39              		.align	1
  40              		.p2align 4,,15
  41              		.global	kl2x_clock_init
  42              		.syntax unified
  43              		.code	16
  44              		.thumb_func
  45              		.fpu softvfp
  46              		.type	kl2x_clock_init, %function
  47              	kl2x_clock_init:
  48              	.LFB175:
  49              		.loc 1 103 0
  50              		.cfi_startproc
  51              		@ args = 0, pretend = 0, frame = 32
  52              		@ frame_needed = 0, uses_anonymous_args = 0
  53              		.loc 1 107 0
  54 0000 8822     		movs	r2, #136
  55 0002 0021     		movs	r1, #0
  56              		.loc 1 110 0
  57 0004 8020     		movs	r0, #128
ARM GAS  /var/folders/t8/16hdwfmd2fg_d3q6dgx6bpmw0000gn/T//cc1hzQo4.s 			page 2


  58              		.loc 1 107 0
  59 0006 374B     		ldr	r3, .L24
  60 0008 5201     		lsls	r2, r2, #5
  61              		.loc 1 103 0
  62 000a 70B5     		push	{r4, r5, r6, lr}
  63              		.cfi_def_cfa_offset 16
  64              		.cfi_offset 4, -16
  65              		.cfi_offset 5, -12
  66              		.cfi_offset 6, -8
  67              		.cfi_offset 14, -4
  68              		.loc 1 107 0
  69 000c 9950     		str	r1, [r3, r2]
  70              		.loc 1 110 0
  71 000e 3649     		ldr	r1, .L24+4
  72 0010 8000     		lsls	r0, r0, #2
  73 0012 5A58     		ldr	r2, [r3, r1]
  74              		.loc 1 103 0
  75 0014 88B0     		sub	sp, sp, #32
  76              		.cfi_def_cfa_offset 48
  77              		.loc 1 110 0
  78 0016 0243     		orrs	r2, r0
  79 0018 5A50     		str	r2, [r3, r1]
  80              		.loc 1 120 0
  81 001a 1A68     		ldr	r2, [r3]
  82 001c 3349     		ldr	r1, .L24+8
  83 001e 0A40     		ands	r2, r1
  84              		.loc 1 307 0
  85 0020 6946     		mov	r1, sp
  86              		.loc 1 120 0
  87 0022 1A60     		str	r2, [r3]
  88              		.loc 1 307 0
  89 0024 0A00     		movs	r2, r1
  90 0026 324B     		ldr	r3, .L24+12
  91 0028 70CB     		ldmia	r3!, {r4, r5, r6}
  92 002a 70C2     		stmia	r2!, {r4, r5, r6}
  93 002c 70CB     		ldmia	r3!, {r4, r5, r6}
  94 002e 70C2     		stmia	r2!, {r4, r5, r6}
  95 0030 30CB     		ldmia	r3!, {r4, r5}
  96 0032 30C2     		stmia	r2!, {r4, r5}
  97              	.LVL0:
  98              		.loc 1 328 0
  99 0034 2F4B     		ldr	r3, .L24+16
 100 0036 304D     		ldr	r5, .L24+20
 101 0038 9C6C     		ldr	r4, [r3, #72]
 102 003a 2C40     		ands	r4, r5
 103 003c 9C64     		str	r4, [r3, #72]
 104              		.loc 1 329 0
 105 003e DA6C     		ldr	r2, [r3, #76]
 106              		.loc 1 350 0
 107 0040 2024     		movs	r4, #32
 108              		.loc 1 329 0
 109 0042 2A40     		ands	r2, r5
 110 0044 DA64     		str	r2, [r3, #76]
 111              		.loc 1 335 0
 112 0046 8A22     		movs	r2, #138
 113 0048 2C4B     		ldr	r3, .L24+24
 114 004a 1A70     		strb	r2, [r3]
ARM GAS  /var/folders/t8/16hdwfmd2fg_d3q6dgx6bpmw0000gn/T//cc1hzQo4.s 			page 3


 115              		.loc 1 348 0
 116 004c 2C4B     		ldr	r3, .L24+28
 117 004e 863A     		subs	r2, r2, #134
 118 0050 5A70     		strb	r2, [r3, #1]
 119              		.loc 1 350 0
 120 0052 5A78     		ldrb	r2, [r3, #1]
 121 0054 2243     		orrs	r2, r4
 122 0056 5A70     		strb	r2, [r3, #1]
 123              	.LVL1:
 124 0058 0023     		movs	r3, #0
 125              	.LVL2:
 126              	.L6:
 127              		.loc 1 357 0
 128 005a 9A00     		lsls	r2, r3, #2
 129 005c 8A58     		ldr	r2, [r1, r2]
 130 005e 8242     		cmp	r2, r0
 131 0060 39D0     		beq	.L23
 132              	.LVL3:
 133 0062 0133     		adds	r3, r3, #1
 134              	.LVL4:
 135              		.loc 1 356 0 discriminator 2
 136 0064 082B     		cmp	r3, #8
 137 0066 F8D1     		bne	.L6
 138 0068 B822     		movs	r2, #184
 139              	.LVL5:
 140              	.L5:
 141              		.loc 1 364 0
 142 006a 254B     		ldr	r3, .L24+28
 143 006c 1A70     		strb	r2, [r3]
 144              		.loc 1 369 0
 145 006e 1F22     		movs	r2, #31
 146 0070 D978     		ldrb	r1, [r3, #3]
 147 0072 0A40     		ands	r2, r1
 148 0074 DA70     		strb	r2, [r3, #3]
 149              		.loc 1 370 0
 150 0076 0022     		movs	r2, #0
 151              		.loc 1 377 0
 152 0078 0221     		movs	r1, #2
 153              		.loc 1 370 0
 154 007a 5A71     		strb	r2, [r3, #5]
 155              	.L7:
 156              		.loc 1 377 0 discriminator 1
 157 007c 9A79     		ldrb	r2, [r3, #6]
 158 007e 1142     		tst	r1, r2
 159 0080 FCD0     		beq	.L7
 160              		.loc 1 381 0
 161 0082 1022     		movs	r2, #16
 162 0084 1E49     		ldr	r1, .L24+28
 163              	.L8:
 164              		.loc 1 381 0 is_stmt 0 discriminator 1
 165 0086 8B79     		ldrb	r3, [r1, #6]
 166 0088 1A42     		tst	r2, r3
 167 008a FCD1     		bne	.L8
 168              		.loc 1 385 0 is_stmt 1
 169 008c 0C21     		movs	r1, #12
 170 008e 1C4A     		ldr	r2, .L24+28
 171              	.L9:
ARM GAS  /var/folders/t8/16hdwfmd2fg_d3q6dgx6bpmw0000gn/T//cc1hzQo4.s 			page 4


 172              		.loc 1 385 0 is_stmt 0 discriminator 1
 173 0090 9379     		ldrb	r3, [r2, #6]
 174 0092 0B40     		ands	r3, r1
 175 0094 082B     		cmp	r3, #8
 176 0096 FBD1     		bne	.L9
 177              		.loc 1 397 0 is_stmt 1
 178 0098 013B     		subs	r3, r3, #1
 179 009a 1371     		strb	r3, [r2, #4]
 180              	.LVL6:
 181              		.loc 1 406 0
 182 009c 5133     		adds	r3, r3, #81
 183 009e 5371     		strb	r3, [r2, #5]
 184              		.loc 1 415 0
 185 00a0 2022     		movs	r2, #32
 186 00a2 1749     		ldr	r1, .L24+28
 187              	.L10:
 188              		.loc 1 415 0 is_stmt 0 discriminator 1
 189 00a4 8B79     		ldrb	r3, [r1, #6]
 190 00a6 1A42     		tst	r2, r3
 191 00a8 FCD0     		beq	.L10
 192              		.loc 1 419 0 is_stmt 1
 193 00aa 4021     		movs	r1, #64
 194 00ac 144A     		ldr	r2, .L24+28
 195              	.L11:
 196              		.loc 1 419 0 is_stmt 0 discriminator 1
 197 00ae 9379     		ldrb	r3, [r2, #6]
 198 00b0 1942     		tst	r1, r3
 199 00b2 FCD0     		beq	.L11
 200              		.loc 1 429 0 is_stmt 1
 201 00b4 0B4B     		ldr	r3, .L24
 202 00b6 1349     		ldr	r1, .L24+32
 203 00b8 1348     		ldr	r0, .L24+36
 204 00ba 5850     		str	r0, [r3, r1]
 205              		.loc 1 433 0
 206 00bc 1349     		ldr	r1, .L24+40
 207 00be 1448     		ldr	r0, .L24+44
 208 00c0 5850     		str	r0, [r3, r1]
 209              		.loc 1 443 0
 210 00c2 0023     		movs	r3, #0
 211 00c4 1370     		strb	r3, [r2]
 212              		.loc 1 445 0
 213 00c6 0C22     		movs	r2, #12
 214 00c8 0D49     		ldr	r1, .L24+28
 215              	.L12:
 216              		.loc 1 445 0 is_stmt 0 discriminator 1
 217 00ca 8B79     		ldrb	r3, [r1, #6]
 218 00cc 1340     		ands	r3, r2
 219 00ce 0C2B     		cmp	r3, #12
 220 00d0 FBD1     		bne	.L12
 221              		.loc 1 457 0 is_stmt 1
 222 00d2 08B0     		add	sp, sp, #32
 223              		@ sp needed
 224 00d4 70BD     		pop	{r4, r5, r6, pc}
 225              	.LVL7:
 226              	.L23:
 227 00d6 8022     		movs	r2, #128
 228 00d8 DB00     		lsls	r3, r3, #3
ARM GAS  /var/folders/t8/16hdwfmd2fg_d3q6dgx6bpmw0000gn/T//cc1hzQo4.s 			page 5


 229              	.LVL8:
 230 00da 5242     		rsbs	r2, r2, #0
 231 00dc 1A43     		orrs	r2, r3
 232 00de D2B2     		uxtb	r2, r2
 233              		.loc 1 359 0
 234 00e0 C3E7     		b	.L5
 235              	.L25:
 236 00e2 C046     		.align	2
 237              	.L24:
 238 00e4 00700440 		.word	1074032640
 239 00e8 38100000 		.word	4152
 240 00ec FFFFF3FF 		.word	-786433
 241 00f0 00000000 		.word	.LANCHOR0
 242 00f4 00900440 		.word	1074040832
 243 00f8 FFF8FFFE 		.word	-16779009
 244 00fc 00500640 		.word	1074155520
 245 0100 00400640 		.word	1074151424
 246 0104 44100000 		.word	4164
 247 0108 00000110 		.word	268500992
 248 010c 04100000 		.word	4100
 249 0110 00000101 		.word	16842752
 250              		.cfi_endproc
 251              	.LFE175:
 252              		.size	kl2x_clock_init, .-kl2x_clock_init
 253              		.section	.text.platform_early_init,"ax",%progbits
 254              		.align	1
 255              		.p2align 4,,15
 256              		.global	platform_early_init
 257              		.syntax unified
 258              		.code	16
 259              		.thumb_func
 260              		.fpu softvfp
 261              		.type	platform_early_init, %function
 262              	platform_early_init:
 263              	.LFB178:
 264              		.cfi_startproc
 265              		@ args = 0, pretend = 0, frame = 0
 266              		@ frame_needed = 0, uses_anonymous_args = 0
 267              		@ link register save eliminated.
 268              		@ sp needed
 269 0000 7047     		bx	lr
 270              		.cfi_endproc
 271              	.LFE178:
 272              		.size	platform_early_init, .-platform_early_init
 273              		.global	_cfm
 274 0002 C046     		.section	.rodata
 275              		.align	2
 276              		.set	.LANCHOR0,. + 0
 277              	.LC0:
 278 0000 20000000 		.word	32
 279 0004 40000000 		.word	64
 280 0008 80000000 		.word	128
 281 000c 00010000 		.word	256
 282 0010 00020000 		.word	512
 283 0014 00040000 		.word	1024
 284 0018 00050000 		.word	1280
 285 001c 00060000 		.word	1536
ARM GAS  /var/folders/t8/16hdwfmd2fg_d3q6dgx6bpmw0000gn/T//cc1hzQo4.s 			page 6


 286              		.section	.cfmconfig,"a",%progbits
 287              		.align	2
 288              		.type	_cfm, %object
 289              		.size	_cfm, 16
 290              	_cfm:
 291 0000 FF       		.byte	-1
 292 0001 FF       		.byte	-1
 293 0002 FF       		.byte	-1
 294 0003 FF       		.byte	-1
 295 0004 FF       		.byte	-1
 296 0005 FF       		.byte	-1
 297 0006 FF       		.byte	-1
 298 0007 FF       		.byte	-1
 299 0008 FF       		.byte	-1
 300 0009 FF       		.byte	-1
 301 000a FF       		.byte	-1
 302 000b FF       		.byte	-1
 303 000c 7E       		.byte	126
 304 000d FF       		.byte	-1
 305 000e FF       		.byte	-1
 306 000f FF       		.byte	-1
 307              		.text
 308              	.Letext0:
 309              		.file 2 "/usr/local/Caskroom/gcc-arm-embedded/7-2017-q4-major/gcc-arm-none-eabi-7-2017-q4-major/li
 310              		.file 3 "/usr/local/Caskroom/gcc-arm-embedded/7-2017-q4-major/gcc-arm-none-eabi-7-2017-q4-major/ar
 311              		.file 4 "/usr/local/Caskroom/gcc-arm-embedded/7-2017-q4-major/gcc-arm-none-eabi-7-2017-q4-major/ar
 312              		.file 5 "../../tmk_core/tool/chibios/ChibiOS/os/common/ports/ARMCMx/compilers/GCC/chtypes.h"
 313              		.file 6 "../../tmk_core/tool/chibios/ChibiOS/os/rt/include/chsystypes.h"
 314              		.file 7 "../../tmk_core/tool/chibios/ChibiOS/os/rt/include/chschd.h"
 315              		.file 8 "../../tmk_core/tool/chibios/ChibiOS-Contrib/os/common/ext/CMSIS/KINETIS/kl26z.h"
 316              		.file 9 "../../tmk_core/tool/chibios/ChibiOS-Contrib/os/common/ext/CMSIS/KINETIS/kl2xz.h"
 317              		.file 10 "../../tmk_core/tool/chibios/ChibiOS/os/common/ports/ARMCMx/chcore.h"
 318              		.file 11 "../../tmk_core/tool/chibios/ChibiOS/os/common/ports/ARMCMx/chcore_v6m.h"
 319              		.file 12 "../../tmk_core/tool/chibios/ChibiOS/os/rt/include/chsem.h"
 320              		.file 13 "../../tmk_core/tool/chibios/ChibiOS/os/rt/include/chmtx.h"
 321              		.file 14 "../../tmk_core/tool/chibios/ChibiOS/os/rt/include/chregistry.h"
 322              		.file 15 "../../tmk_core/tool/chibios/ChibiOS/os/rt/include/chsys.h"
 323              		.file 16 "../../tmk_core/tool/chibios/ChibiOS-Contrib/os/hal/ports/KINETIS/LLD/hal_pal_lld.h"
 324              		.file 17 "../../tmk_core/tool/chibios/ChibiOS/os/hal/include/hal_usb.h"
 325              		.file 18 "../../tmk_core/tool/chibios/ChibiOS-Contrib/os/hal/ports/KINETIS/LLD/hal_usb_lld.h"
 326              		.section	.debug_info,"",%progbits
 327              	.Ldebug_info0:
 328 0000 FE100000 		.4byte	0x10fe
 329 0004 0400     		.2byte	0x4
 330 0006 00000000 		.4byte	.Ldebug_abbrev0
 331 000a 04       		.byte	0x4
 332 000b 01       		.uleb128 0x1
 333 000c 7C010000 		.4byte	.LASF247
 334 0010 0C       		.byte	0xc
 335 0011 65070000 		.4byte	.LASF248
 336 0015 84020000 		.4byte	.LASF249
 337 0019 00000000 		.4byte	.Ldebug_ranges0+0
 338 001d 00000000 		.4byte	0
 339 0021 00000000 		.4byte	.Ldebug_line0
 340 0025 02       		.uleb128 0x2
 341 0026 04       		.byte	0x4
 342 0027 05       		.byte	0x5
ARM GAS  /var/folders/t8/16hdwfmd2fg_d3q6dgx6bpmw0000gn/T//cc1hzQo4.s 			page 7


 343 0028 696E7400 		.ascii	"int\000"
 344 002c 03       		.uleb128 0x3
 345 002d 0E000000 		.4byte	.LASF2
 346 0031 02       		.byte	0x2
 347 0032 D8       		.byte	0xd8
 348 0033 37000000 		.4byte	0x37
 349 0037 04       		.uleb128 0x4
 350 0038 04       		.byte	0x4
 351 0039 07       		.byte	0x7
 352 003a F3060000 		.4byte	.LASF0
 353 003e 04       		.uleb128 0x4
 354 003f 01       		.byte	0x1
 355 0040 06       		.byte	0x6
 356 0041 02030000 		.4byte	.LASF1
 357 0045 03       		.uleb128 0x3
 358 0046 39010000 		.4byte	.LASF3
 359 004a 03       		.byte	0x3
 360 004b 2B       		.byte	0x2b
 361 004c 50000000 		.4byte	0x50
 362 0050 04       		.uleb128 0x4
 363 0051 01       		.byte	0x1
 364 0052 08       		.byte	0x8
 365 0053 78030000 		.4byte	.LASF4
 366 0057 04       		.uleb128 0x4
 367 0058 02       		.byte	0x2
 368 0059 05       		.byte	0x5
 369 005a 77090000 		.4byte	.LASF5
 370 005e 03       		.uleb128 0x3
 371 005f 17040000 		.4byte	.LASF6
 372 0063 03       		.byte	0x3
 373 0064 39       		.byte	0x39
 374 0065 69000000 		.4byte	0x69
 375 0069 04       		.uleb128 0x4
 376 006a 02       		.byte	0x2
 377 006b 07       		.byte	0x7
 378 006c 870A0000 		.4byte	.LASF7
 379 0070 03       		.uleb128 0x3
 380 0071 EF0A0000 		.4byte	.LASF8
 381 0075 03       		.byte	0x3
 382 0076 4D       		.byte	0x4d
 383 0077 7B000000 		.4byte	0x7b
 384 007b 04       		.uleb128 0x4
 385 007c 04       		.byte	0x4
 386 007d 05       		.byte	0x5
 387 007e 51010000 		.4byte	.LASF9
 388 0082 03       		.uleb128 0x3
 389 0083 66060000 		.4byte	.LASF10
 390 0087 03       		.byte	0x3
 391 0088 4F       		.byte	0x4f
 392 0089 8D000000 		.4byte	0x8d
 393 008d 04       		.uleb128 0x4
 394 008e 04       		.byte	0x4
 395 008f 07       		.byte	0x7
 396 0090 4A050000 		.4byte	.LASF11
 397 0094 04       		.uleb128 0x4
 398 0095 08       		.byte	0x8
 399 0096 05       		.byte	0x5
ARM GAS  /var/folders/t8/16hdwfmd2fg_d3q6dgx6bpmw0000gn/T//cc1hzQo4.s 			page 8


 400 0097 82060000 		.4byte	.LASF12
 401 009b 03       		.uleb128 0x3
 402 009c 35050000 		.4byte	.LASF13
 403 00a0 03       		.byte	0x3
 404 00a1 69       		.byte	0x69
 405 00a2 A6000000 		.4byte	0xa6
 406 00a6 04       		.uleb128 0x4
 407 00a7 08       		.byte	0x8
 408 00a8 07       		.byte	0x7
 409 00a9 47080000 		.4byte	.LASF14
 410 00ad 03       		.uleb128 0x3
 411 00ae 15030000 		.4byte	.LASF15
 412 00b2 04       		.byte	0x4
 413 00b3 18       		.byte	0x18
 414 00b4 45000000 		.4byte	0x45
 415 00b8 05       		.uleb128 0x5
 416 00b9 AD000000 		.4byte	0xad
 417 00bd 06       		.uleb128 0x6
 418 00be B8000000 		.4byte	0xb8
 419 00c2 06       		.uleb128 0x6
 420 00c3 AD000000 		.4byte	0xad
 421 00c7 03       		.uleb128 0x3
 422 00c8 5E080000 		.4byte	.LASF16
 423 00cc 04       		.byte	0x4
 424 00cd 24       		.byte	0x24
 425 00ce 5E000000 		.4byte	0x5e
 426 00d2 03       		.uleb128 0x3
 427 00d3 7B000000 		.4byte	.LASF17
 428 00d7 04       		.byte	0x4
 429 00d8 2C       		.byte	0x2c
 430 00d9 70000000 		.4byte	0x70
 431 00dd 03       		.uleb128 0x3
 432 00de 5C0A0000 		.4byte	.LASF18
 433 00e2 04       		.byte	0x4
 434 00e3 30       		.byte	0x30
 435 00e4 82000000 		.4byte	0x82
 436 00e8 05       		.uleb128 0x5
 437 00e9 DD000000 		.4byte	0xdd
 438 00ed 06       		.uleb128 0x6
 439 00ee E8000000 		.4byte	0xe8
 440 00f2 03       		.uleb128 0x3
 441 00f3 81090000 		.4byte	.LASF19
 442 00f7 04       		.byte	0x4
 443 00f8 3C       		.byte	0x3c
 444 00f9 9B000000 		.4byte	0x9b
 445 00fd 03       		.uleb128 0x3
 446 00fe 3C090000 		.4byte	.LASF20
 447 0102 05       		.byte	0x5
 448 0103 3C       		.byte	0x3c
 449 0104 AD000000 		.4byte	0xad
 450 0108 03       		.uleb128 0x3
 451 0109 6A010000 		.4byte	.LASF21
 452 010d 05       		.byte	0x5
 453 010e 3D       		.byte	0x3d
 454 010f AD000000 		.4byte	0xad
 455 0113 03       		.uleb128 0x3
 456 0114 1B0A0000 		.4byte	.LASF22
ARM GAS  /var/folders/t8/16hdwfmd2fg_d3q6dgx6bpmw0000gn/T//cc1hzQo4.s 			page 9


 457 0118 05       		.byte	0x5
 458 0119 3E       		.byte	0x3e
 459 011a AD000000 		.4byte	0xad
 460 011e 03       		.uleb128 0x3
 461 011f 87080000 		.4byte	.LASF23
 462 0123 05       		.byte	0x5
 463 0124 3F       		.byte	0x3f
 464 0125 AD000000 		.4byte	0xad
 465 0129 03       		.uleb128 0x3
 466 012a 50000000 		.4byte	.LASF24
 467 012e 05       		.byte	0x5
 468 012f 40       		.byte	0x40
 469 0130 DD000000 		.4byte	0xdd
 470 0134 03       		.uleb128 0x3
 471 0135 70080000 		.4byte	.LASF25
 472 0139 05       		.byte	0x5
 473 013a 41       		.byte	0x41
 474 013b D2000000 		.4byte	0xd2
 475 013f 03       		.uleb128 0x3
 476 0140 4B030000 		.4byte	.LASF26
 477 0144 05       		.byte	0x5
 478 0145 43       		.byte	0x43
 479 0146 DD000000 		.4byte	0xdd
 480 014a 03       		.uleb128 0x3
 481 014b C2040000 		.4byte	.LASF27
 482 014f 05       		.byte	0x5
 483 0150 45       		.byte	0x45
 484 0151 D2000000 		.4byte	0xd2
 485 0155 03       		.uleb128 0x3
 486 0156 24000000 		.4byte	.LASF28
 487 015a 06       		.byte	0x6
 488 015b 33       		.byte	0x33
 489 015c DD000000 		.4byte	0xdd
 490 0160 05       		.uleb128 0x5
 491 0161 55010000 		.4byte	0x155
 492 0165 03       		.uleb128 0x3
 493 0166 51070000 		.4byte	.LASF29
 494 016a 06       		.byte	0x6
 495 016b 3F       		.byte	0x3f
 496 016c 70010000 		.4byte	0x170
 497 0170 07       		.uleb128 0x7
 498 0171 8C050000 		.4byte	.LASF48
 499 0175 44       		.byte	0x44
 500 0176 07       		.byte	0x7
 501 0177 9A       		.byte	0x9a
 502 0178 5A020000 		.4byte	0x25a
 503 017c 08       		.uleb128 0x8
 504 017d B8080000 		.4byte	.LASF30
 505 0181 07       		.byte	0x7
 506 0182 9B       		.byte	0x9b
 507 0183 8F020000 		.4byte	0x28f
 508 0187 00       		.byte	0
 509 0188 08       		.uleb128 0x8
 510 0189 0F010000 		.4byte	.LASF31
 511 018d 07       		.byte	0x7
 512 018e 9C       		.byte	0x9c
 513 018f 29010000 		.4byte	0x129
ARM GAS  /var/folders/t8/16hdwfmd2fg_d3q6dgx6bpmw0000gn/T//cc1hzQo4.s 			page 10


 514 0193 08       		.byte	0x8
 515 0194 09       		.uleb128 0x9
 516 0195 63747800 		.ascii	"ctx\000"
 517 0199 07       		.byte	0x7
 518 019a 9D       		.byte	0x9d
 519 019b 32080000 		.4byte	0x832
 520 019f 0C       		.byte	0xc
 521 01a0 08       		.uleb128 0x8
 522 01a1 560A0000 		.4byte	.LASF32
 523 01a5 07       		.byte	0x7
 524 01a6 9F       		.byte	0x9f
 525 01a7 65020000 		.4byte	0x265
 526 01ab 10       		.byte	0x10
 527 01ac 08       		.uleb128 0x8
 528 01ad E0050000 		.4byte	.LASF33
 529 01b1 07       		.byte	0x7
 530 01b2 A0       		.byte	0xa0
 531 01b3 65020000 		.4byte	0x265
 532 01b7 14       		.byte	0x14
 533 01b8 08       		.uleb128 0x8
 534 01b9 68090000 		.4byte	.LASF34
 535 01bd 07       		.byte	0x7
 536 01be A7       		.byte	0xa7
 537 01bf 8D090000 		.4byte	0x98d
 538 01c3 18       		.byte	0x18
 539 01c4 08       		.uleb128 0x8
 540 01c5 F4080000 		.4byte	.LASF35
 541 01c9 07       		.byte	0x7
 542 01ca B0       		.byte	0xb0
 543 01cb A4090000 		.4byte	0x9a4
 544 01cf 1C       		.byte	0x1c
 545 01d0 08       		.uleb128 0x8
 546 01d1 C5000000 		.4byte	.LASF36
 547 01d5 07       		.byte	0x7
 548 01d6 B5       		.byte	0xb5
 549 01d7 08010000 		.4byte	0x108
 550 01db 20       		.byte	0x20
 551 01dc 08       		.uleb128 0x8
 552 01dd 54040000 		.4byte	.LASF37
 553 01e1 07       		.byte	0x7
 554 01e2 B9       		.byte	0xb9
 555 01e3 FD000000 		.4byte	0xfd
 556 01e7 21       		.byte	0x21
 557 01e8 08       		.uleb128 0x8
 558 01e9 B3080000 		.4byte	.LASF38
 559 01ed 07       		.byte	0x7
 560 01ee BE       		.byte	0xbe
 561 01ef 13010000 		.4byte	0x113
 562 01f3 22       		.byte	0x22
 563 01f4 08       		.uleb128 0x8
 564 01f5 C5060000 		.4byte	.LASF39
 565 01f9 07       		.byte	0x7
 566 01fa C4       		.byte	0xc4
 567 01fb 1E010000 		.4byte	0x11e
 568 01ff 23       		.byte	0x23
 569 0200 0A       		.uleb128 0xa
 570 0201 7500     		.ascii	"u\000"
ARM GAS  /var/folders/t8/16hdwfmd2fg_d3q6dgx6bpmw0000gn/T//cc1hzQo4.s 			page 11


 571 0203 07       		.byte	0x7
 572 0204 0F01     		.2byte	0x10f
 573 0206 C2080000 		.4byte	0x8c2
 574 020a 24       		.byte	0x24
 575 020b 0B       		.uleb128 0xb
 576 020c 050A0000 		.4byte	.LASF40
 577 0210 07       		.byte	0x7
 578 0211 1401     		.2byte	0x114
 579 0213 6B020000 		.4byte	0x26b
 580 0217 28       		.byte	0x28
 581 0218 0B       		.uleb128 0xb
 582 0219 9D090000 		.4byte	.LASF41
 583 021d 07       		.byte	0x7
 584 021e 1A01     		.2byte	0x11a
 585 0220 8F020000 		.4byte	0x28f
 586 0224 2C       		.byte	0x2c
 587 0225 0B       		.uleb128 0xb
 588 0226 73010000 		.4byte	.LASF42
 589 022a 07       		.byte	0x7
 590 022b 2001     		.2byte	0x120
 591 022d 3F010000 		.4byte	0x13f
 592 0231 34       		.byte	0x34
 593 0232 0B       		.uleb128 0xb
 594 0233 7A060000 		.4byte	.LASF43
 595 0237 07       		.byte	0x7
 596 0238 2701     		.2byte	0x127
 597 023a 87090000 		.4byte	0x987
 598 023e 38       		.byte	0x38
 599 023f 0B       		.uleb128 0xb
 600 0240 ED050000 		.4byte	.LASF44
 601 0244 07       		.byte	0x7
 602 0245 2B01     		.2byte	0x12b
 603 0247 29010000 		.4byte	0x129
 604 024b 3C       		.byte	0x3c
 605 024c 0B       		.uleb128 0xb
 606 024d 72040000 		.4byte	.LASF45
 607 0251 07       		.byte	0x7
 608 0252 3201     		.2byte	0x132
 609 0254 42030000 		.4byte	0x342
 610 0258 40       		.byte	0x40
 611 0259 00       		.byte	0
 612 025a 03       		.uleb128 0x3
 613 025b B5070000 		.4byte	.LASF46
 614 025f 06       		.byte	0x6
 615 0260 44       		.byte	0x44
 616 0261 65020000 		.4byte	0x265
 617 0265 0C       		.uleb128 0xc
 618 0266 04       		.byte	0x4
 619 0267 65010000 		.4byte	0x165
 620 026b 03       		.uleb128 0x3
 621 026c 360A0000 		.4byte	.LASF47
 622 0270 06       		.byte	0x6
 623 0271 49       		.byte	0x49
 624 0272 76020000 		.4byte	0x276
 625 0276 07       		.uleb128 0x7
 626 0277 0E060000 		.4byte	.LASF49
 627 027b 04       		.byte	0x4
ARM GAS  /var/folders/t8/16hdwfmd2fg_d3q6dgx6bpmw0000gn/T//cc1hzQo4.s 			page 12


 628 027c 07       		.byte	0x7
 629 027d 88       		.byte	0x88
 630 027e 8F020000 		.4byte	0x28f
 631 0282 08       		.uleb128 0x8
 632 0283 230B0000 		.4byte	.LASF50
 633 0287 07       		.byte	0x7
 634 0288 89       		.byte	0x89
 635 0289 65020000 		.4byte	0x265
 636 028d 00       		.byte	0
 637 028e 00       		.byte	0
 638 028f 03       		.uleb128 0x3
 639 0290 65020000 		.4byte	.LASF51
 640 0294 06       		.byte	0x6
 641 0295 50       		.byte	0x50
 642 0296 9A020000 		.4byte	0x29a
 643 029a 07       		.uleb128 0x7
 644 029b 76080000 		.4byte	.LASF52
 645 029f 08       		.byte	0x8
 646 02a0 07       		.byte	0x7
 647 02a1 8F       		.byte	0x8f
 648 02a2 BF020000 		.4byte	0x2bf
 649 02a6 08       		.uleb128 0x8
 650 02a7 230B0000 		.4byte	.LASF50
 651 02ab 07       		.byte	0x7
 652 02ac 90       		.byte	0x90
 653 02ad 65020000 		.4byte	0x265
 654 02b1 00       		.byte	0
 655 02b2 08       		.uleb128 0x8
 656 02b3 2F0B0000 		.4byte	.LASF53
 657 02b7 07       		.byte	0x7
 658 02b8 91       		.byte	0x91
 659 02b9 65020000 		.4byte	0x265
 660 02bd 04       		.byte	0x4
 661 02be 00       		.byte	0
 662 02bf 03       		.uleb128 0x3
 663 02c0 D3050000 		.4byte	.LASF54
 664 02c4 06       		.byte	0x6
 665 02c5 57       		.byte	0x57
 666 02c6 CA020000 		.4byte	0x2ca
 667 02ca 0D       		.uleb128 0xd
 668 02cb EE040000 		.4byte	.LASF55
 669 02cf 1C       		.byte	0x1c
 670 02d0 07       		.byte	0x7
 671 02d1 6A01     		.2byte	0x16a
 672 02d3 26030000 		.4byte	0x326
 673 02d7 0B       		.uleb128 0xb
 674 02d8 B8080000 		.4byte	.LASF30
 675 02dc 07       		.byte	0x7
 676 02dd 6B01     		.2byte	0x16b
 677 02df 8F020000 		.4byte	0x28f
 678 02e3 00       		.byte	0
 679 02e4 0B       		.uleb128 0xb
 680 02e5 0F010000 		.4byte	.LASF31
 681 02e9 07       		.byte	0x7
 682 02ea 6C01     		.2byte	0x16c
 683 02ec 29010000 		.4byte	0x129
 684 02f0 08       		.byte	0x8
ARM GAS  /var/folders/t8/16hdwfmd2fg_d3q6dgx6bpmw0000gn/T//cc1hzQo4.s 			page 13


 685 02f1 0A       		.uleb128 0xa
 686 02f2 63747800 		.ascii	"ctx\000"
 687 02f6 07       		.byte	0x7
 688 02f7 6E01     		.2byte	0x16e
 689 02f9 32080000 		.4byte	0x832
 690 02fd 0C       		.byte	0xc
 691 02fe 0B       		.uleb128 0xb
 692 02ff 560A0000 		.4byte	.LASF32
 693 0303 07       		.byte	0x7
 694 0304 7101     		.2byte	0x171
 695 0306 65020000 		.4byte	0x265
 696 030a 10       		.byte	0x10
 697 030b 0B       		.uleb128 0xb
 698 030c E0050000 		.4byte	.LASF33
 699 0310 07       		.byte	0x7
 700 0311 7201     		.2byte	0x172
 701 0313 65020000 		.4byte	0x265
 702 0317 14       		.byte	0x14
 703 0318 0B       		.uleb128 0xb
 704 0319 14070000 		.4byte	.LASF56
 705 031d 07       		.byte	0x7
 706 031e 7501     		.2byte	0x175
 707 0320 65020000 		.4byte	0x265
 708 0324 18       		.byte	0x18
 709 0325 00       		.byte	0
 710 0326 03       		.uleb128 0x3
 711 0327 8C000000 		.4byte	.LASF57
 712 032b 06       		.byte	0x6
 713 032c 5C       		.byte	0x5c
 714 032d 31030000 		.4byte	0x331
 715 0331 0C       		.uleb128 0xc
 716 0332 04       		.byte	0x4
 717 0333 37030000 		.4byte	0x337
 718 0337 0E       		.uleb128 0xe
 719 0338 42030000 		.4byte	0x342
 720 033c 0F       		.uleb128 0xf
 721 033d 42030000 		.4byte	0x342
 722 0341 00       		.byte	0
 723 0342 10       		.uleb128 0x10
 724 0343 04       		.byte	0x4
 725 0344 03       		.uleb128 0x3
 726 0345 C3050000 		.4byte	.LASF58
 727 0349 06       		.byte	0x6
 728 034a 61       		.byte	0x61
 729 034b 4F030000 		.4byte	0x34f
 730 034f 0D       		.uleb128 0xd
 731 0350 1D080000 		.4byte	.LASF59
 732 0354 14       		.byte	0x14
 733 0355 07       		.byte	0x7
 734 0356 4501     		.2byte	0x145
 735 0358 9E030000 		.4byte	0x39e
 736 035c 0B       		.uleb128 0xb
 737 035d 230B0000 		.4byte	.LASF50
 738 0361 07       		.byte	0x7
 739 0362 4601     		.2byte	0x146
 740 0364 AA090000 		.4byte	0x9aa
 741 0368 00       		.byte	0
ARM GAS  /var/folders/t8/16hdwfmd2fg_d3q6dgx6bpmw0000gn/T//cc1hzQo4.s 			page 14


 742 0369 0B       		.uleb128 0xb
 743 036a 2F0B0000 		.4byte	.LASF53
 744 036e 07       		.byte	0x7
 745 036f 4701     		.2byte	0x147
 746 0371 AA090000 		.4byte	0x9aa
 747 0375 04       		.byte	0x4
 748 0376 0B       		.uleb128 0xb
 749 0377 9D080000 		.4byte	.LASF60
 750 037b 07       		.byte	0x7
 751 037c 4801     		.2byte	0x148
 752 037e 55010000 		.4byte	0x155
 753 0382 08       		.byte	0x8
 754 0383 0B       		.uleb128 0xb
 755 0384 8A090000 		.4byte	.LASF61
 756 0388 07       		.byte	0x7
 757 0389 4901     		.2byte	0x149
 758 038b 26030000 		.4byte	0x326
 759 038f 0C       		.byte	0xc
 760 0390 0A       		.uleb128 0xa
 761 0391 70617200 		.ascii	"par\000"
 762 0395 07       		.byte	0x7
 763 0396 4B01     		.2byte	0x14b
 764 0398 42030000 		.4byte	0x342
 765 039c 10       		.byte	0x10
 766 039d 00       		.byte	0
 767 039e 03       		.uleb128 0x3
 768 039f 96050000 		.4byte	.LASF62
 769 03a3 06       		.byte	0x6
 770 03a4 66       		.byte	0x66
 771 03a5 A9030000 		.4byte	0x3a9
 772 03a9 0D       		.uleb128 0xd
 773 03aa 95000000 		.4byte	.LASF63
 774 03ae 10       		.byte	0x10
 775 03af 07       		.byte	0x7
 776 03b0 5501     		.2byte	0x155
 777 03b2 EB030000 		.4byte	0x3eb
 778 03b6 0B       		.uleb128 0xb
 779 03b7 230B0000 		.4byte	.LASF50
 780 03bb 07       		.byte	0x7
 781 03bc 5601     		.2byte	0x156
 782 03be AA090000 		.4byte	0x9aa
 783 03c2 00       		.byte	0
 784 03c3 0B       		.uleb128 0xb
 785 03c4 2F0B0000 		.4byte	.LASF53
 786 03c8 07       		.byte	0x7
 787 03c9 5801     		.2byte	0x158
 788 03cb AA090000 		.4byte	0x9aa
 789 03cf 04       		.byte	0x4
 790 03d0 0B       		.uleb128 0xb
 791 03d1 9D080000 		.4byte	.LASF60
 792 03d5 07       		.byte	0x7
 793 03d6 5A01     		.2byte	0x15a
 794 03d8 55010000 		.4byte	0x155
 795 03dc 08       		.byte	0x8
 796 03dd 0B       		.uleb128 0xb
 797 03de 49010000 		.4byte	.LASF64
 798 03e2 07       		.byte	0x7
ARM GAS  /var/folders/t8/16hdwfmd2fg_d3q6dgx6bpmw0000gn/T//cc1hzQo4.s 			page 15


 799 03e3 5C01     		.2byte	0x15c
 800 03e5 60010000 		.4byte	0x160
 801 03e9 0C       		.byte	0xc
 802 03ea 00       		.byte	0
 803 03eb 03       		.uleb128 0x3
 804 03ec D3030000 		.4byte	.LASF65
 805 03f0 06       		.byte	0x6
 806 03f1 6B       		.byte	0x6b
 807 03f2 F6030000 		.4byte	0x3f6
 808 03f6 0D       		.uleb128 0xd
 809 03f7 A6090000 		.4byte	.LASF66
 810 03fb 0C       		.byte	0xc
 811 03fc 07       		.byte	0x7
 812 03fd 7C01     		.2byte	0x17c
 813 03ff 2B040000 		.4byte	0x42b
 814 0403 0B       		.uleb128 0xb
 815 0404 B8030000 		.4byte	.LASF67
 816 0408 07       		.byte	0x7
 817 0409 8401     		.2byte	0x184
 818 040b 93090000 		.4byte	0x993
 819 040f 00       		.byte	0
 820 0410 0B       		.uleb128 0xb
 821 0411 0A080000 		.4byte	.LASF68
 822 0415 07       		.byte	0x7
 823 0416 8901     		.2byte	0x189
 824 0418 4A010000 		.4byte	0x14a
 825 041c 04       		.byte	0x4
 826 041d 0B       		.uleb128 0xb
 827 041e D3000000 		.4byte	.LASF69
 828 0422 07       		.byte	0x7
 829 0423 8D01     		.2byte	0x18d
 830 0425 4A010000 		.4byte	0x14a
 831 0429 08       		.byte	0x8
 832 042a 00       		.byte	0
 833 042b 03       		.uleb128 0x3
 834 042c B30A0000 		.4byte	.LASF70
 835 0430 06       		.byte	0x6
 836 0431 70       		.byte	0x70
 837 0432 36040000 		.4byte	0x436
 838 0436 0D       		.uleb128 0xd
 839 0437 4C0A0000 		.4byte	.LASF71
 840 043b 7C       		.byte	0x7c
 841 043c 07       		.byte	0x7
 842 043d 9C01     		.2byte	0x19c
 843 043f 78040000 		.4byte	0x478
 844 0443 0B       		.uleb128 0xb
 845 0444 36090000 		.4byte	.LASF72
 846 0448 07       		.byte	0x7
 847 0449 A001     		.2byte	0x1a0
 848 044b BF020000 		.4byte	0x2bf
 849 044f 00       		.byte	0
 850 0450 0B       		.uleb128 0xb
 851 0451 FE090000 		.4byte	.LASF73
 852 0455 07       		.byte	0x7
 853 0456 A401     		.2byte	0x1a4
 854 0458 9E030000 		.4byte	0x39e
 855 045c 1C       		.byte	0x1c
ARM GAS  /var/folders/t8/16hdwfmd2fg_d3q6dgx6bpmw0000gn/T//cc1hzQo4.s 			page 16


 856 045d 0A       		.uleb128 0xa
 857 045e 64626700 		.ascii	"dbg\000"
 858 0462 07       		.byte	0x7
 859 0463 A801     		.2byte	0x1a8
 860 0465 EB030000 		.4byte	0x3eb
 861 0469 2C       		.byte	0x2c
 862 046a 0B       		.uleb128 0xb
 863 046b BE080000 		.4byte	.LASF74
 864 046f 07       		.byte	0x7
 865 0470 AC01     		.2byte	0x1ac
 866 0472 65010000 		.4byte	0x165
 867 0476 38       		.byte	0x38
 868 0477 00       		.byte	0
 869 0478 11       		.uleb128 0x11
 870 0479 10       		.byte	0x10
 871 047a 08       		.byte	0x8
 872 047b 5E       		.byte	0x5e
 873 047c 35050000 		.4byte	0x535
 874 0480 09       		.uleb128 0x9
 875 0481 433100   		.ascii	"C1\000"
 876 0484 08       		.byte	0x8
 877 0485 60       		.byte	0x60
 878 0486 B8000000 		.4byte	0xb8
 879 048a 00       		.byte	0
 880 048b 09       		.uleb128 0x9
 881 048c 433200   		.ascii	"C2\000"
 882 048f 08       		.byte	0x8
 883 0490 61       		.byte	0x61
 884 0491 B8000000 		.4byte	0xb8
 885 0495 01       		.byte	0x1
 886 0496 09       		.uleb128 0x9
 887 0497 433300   		.ascii	"C3\000"
 888 049a 08       		.byte	0x8
 889 049b 62       		.byte	0x62
 890 049c B8000000 		.4byte	0xb8
 891 04a0 02       		.byte	0x2
 892 04a1 09       		.uleb128 0x9
 893 04a2 433400   		.ascii	"C4\000"
 894 04a5 08       		.byte	0x8
 895 04a6 63       		.byte	0x63
 896 04a7 B8000000 		.4byte	0xb8
 897 04ab 03       		.byte	0x3
 898 04ac 09       		.uleb128 0x9
 899 04ad 433500   		.ascii	"C5\000"
 900 04b0 08       		.byte	0x8
 901 04b1 64       		.byte	0x64
 902 04b2 B8000000 		.4byte	0xb8
 903 04b6 04       		.byte	0x4
 904 04b7 09       		.uleb128 0x9
 905 04b8 433600   		.ascii	"C6\000"
 906 04bb 08       		.byte	0x8
 907 04bc 65       		.byte	0x65
 908 04bd B8000000 		.4byte	0xb8
 909 04c1 05       		.byte	0x5
 910 04c2 09       		.uleb128 0x9
 911 04c3 5300     		.ascii	"S\000"
 912 04c5 08       		.byte	0x8
ARM GAS  /var/folders/t8/16hdwfmd2fg_d3q6dgx6bpmw0000gn/T//cc1hzQo4.s 			page 17


 913 04c6 66       		.byte	0x66
 914 04c7 BD000000 		.4byte	0xbd
 915 04cb 06       		.byte	0x6
 916 04cc 08       		.uleb128 0x8
 917 04cd 64030000 		.4byte	.LASF75
 918 04d1 08       		.byte	0x8
 919 04d2 67       		.byte	0x67
 920 04d3 35050000 		.4byte	0x535
 921 04d7 07       		.byte	0x7
 922 04d8 09       		.uleb128 0x9
 923 04d9 534300   		.ascii	"SC\000"
 924 04dc 08       		.byte	0x8
 925 04dd 68       		.byte	0x68
 926 04de B8000000 		.4byte	0xb8
 927 04e2 08       		.byte	0x8
 928 04e3 08       		.uleb128 0x8
 929 04e4 6E030000 		.4byte	.LASF76
 930 04e8 08       		.byte	0x8
 931 04e9 69       		.byte	0x69
 932 04ea 35050000 		.4byte	0x535
 933 04ee 09       		.byte	0x9
 934 04ef 08       		.uleb128 0x8
 935 04f0 2C040000 		.4byte	.LASF77
 936 04f4 08       		.byte	0x8
 937 04f5 6A       		.byte	0x6a
 938 04f6 B8000000 		.4byte	0xb8
 939 04fa 0A       		.byte	0xa
 940 04fb 08       		.uleb128 0x8
 941 04fc 32040000 		.4byte	.LASF78
 942 0500 08       		.byte	0x8
 943 0501 6B       		.byte	0x6b
 944 0502 B8000000 		.4byte	0xb8
 945 0506 0B       		.byte	0xb
 946 0507 09       		.uleb128 0x9
 947 0508 433700   		.ascii	"C7\000"
 948 050b 08       		.byte	0x8
 949 050c 6C       		.byte	0x6c
 950 050d B8000000 		.4byte	0xb8
 951 0511 0C       		.byte	0xc
 952 0512 09       		.uleb128 0x9
 953 0513 433800   		.ascii	"C8\000"
 954 0516 08       		.byte	0x8
 955 0517 6D       		.byte	0x6d
 956 0518 B8000000 		.4byte	0xb8
 957 051c 0D       		.byte	0xd
 958 051d 09       		.uleb128 0x9
 959 051e 433900   		.ascii	"C9\000"
 960 0521 08       		.byte	0x8
 961 0522 6E       		.byte	0x6e
 962 0523 B8000000 		.4byte	0xb8
 963 0527 0E       		.byte	0xe
 964 0528 09       		.uleb128 0x9
 965 0529 43313000 		.ascii	"C10\000"
 966 052d 08       		.byte	0x8
 967 052e 6F       		.byte	0x6f
 968 052f B8000000 		.4byte	0xb8
 969 0533 0F       		.byte	0xf
ARM GAS  /var/folders/t8/16hdwfmd2fg_d3q6dgx6bpmw0000gn/T//cc1hzQo4.s 			page 18


 970 0534 00       		.byte	0
 971 0535 12       		.uleb128 0x12
 972 0536 AD000000 		.4byte	0xad
 973 053a 45050000 		.4byte	0x545
 974 053e 13       		.uleb128 0x13
 975 053f 37000000 		.4byte	0x37
 976 0543 00       		.byte	0
 977 0544 00       		.byte	0
 978 0545 03       		.uleb128 0x3
 979 0546 2C060000 		.4byte	.LASF79
 980 054a 08       		.byte	0x8
 981 054b 70       		.byte	0x70
 982 054c 78040000 		.4byte	0x478
 983 0550 12       		.uleb128 0x12
 984 0551 DD000000 		.4byte	0xdd
 985 0555 60050000 		.4byte	0x560
 986 0559 13       		.uleb128 0x13
 987 055a 37000000 		.4byte	0x37
 988 055e 00       		.byte	0
 989 055f 00       		.byte	0
 990 0560 12       		.uleb128 0x12
 991 0561 DD000000 		.4byte	0xdd
 992 0565 70050000 		.4byte	0x570
 993 0569 13       		.uleb128 0x13
 994 056a 37000000 		.4byte	0x37
 995 056e 01       		.byte	0x1
 996 056f 00       		.byte	0
 997 0570 14       		.uleb128 0x14
 998 0571 0811     		.2byte	0x1108
 999 0573 09       		.byte	0x9
 1000 0574 37       		.byte	0x37
 1001 0575 D6060000 		.4byte	0x6d6
 1002 0579 08       		.uleb128 0x8
 1003 057a A2060000 		.4byte	.LASF80
 1004 057e 09       		.byte	0x9
 1005 057f 39       		.byte	0x39
 1006 0580 E8000000 		.4byte	0xe8
 1007 0584 00       		.byte	0
 1008 0585 08       		.uleb128 0x8
 1009 0586 C6090000 		.4byte	.LASF81
 1010 058a 09       		.byte	0x9
 1011 058b 3A       		.byte	0x3a
 1012 058c E8000000 		.4byte	0xe8
 1013 0590 04       		.byte	0x4
 1014 0591 08       		.uleb128 0x8
 1015 0592 64030000 		.4byte	.LASF75
 1016 0596 09       		.byte	0x9
 1017 0597 3B       		.byte	0x3b
 1018 0598 D6060000 		.4byte	0x6d6
 1019 059c 08       		.byte	0x8
 1020 059d 15       		.uleb128 0x15
 1021 059e A8060000 		.4byte	.LASF82
 1022 05a2 09       		.byte	0x9
 1023 05a3 3C       		.byte	0x3c
 1024 05a4 E8000000 		.4byte	0xe8
 1025 05a8 0410     		.2byte	0x1004
 1026 05aa 15       		.uleb128 0x15
ARM GAS  /var/folders/t8/16hdwfmd2fg_d3q6dgx6bpmw0000gn/T//cc1hzQo4.s 			page 19


 1027 05ab 6E030000 		.4byte	.LASF76
 1028 05af 09       		.byte	0x9
 1029 05b0 3D       		.byte	0x3d
 1030 05b1 FC060000 		.4byte	0x6fc
 1031 05b5 0810     		.2byte	0x1008
 1032 05b7 15       		.uleb128 0x15
 1033 05b8 AE060000 		.4byte	.LASF83
 1034 05bc 09       		.byte	0x9
 1035 05bd 3E       		.byte	0x3e
 1036 05be E8000000 		.4byte	0xe8
 1037 05c2 0C10     		.2byte	0x100c
 1038 05c4 15       		.uleb128 0x15
 1039 05c5 B4060000 		.4byte	.LASF84
 1040 05c9 09       		.byte	0x9
 1041 05ca 3F       		.byte	0x3f
 1042 05cb E8000000 		.4byte	0xe8
 1043 05cf 1010     		.2byte	0x1010
 1044 05d1 15       		.uleb128 0x15
 1045 05d2 F9030000 		.4byte	.LASF85
 1046 05d6 09       		.byte	0x9
 1047 05d7 40       		.byte	0x40
 1048 05d8 50050000 		.4byte	0x550
 1049 05dc 1410     		.2byte	0x1014
 1050 05de 15       		.uleb128 0x15
 1051 05df BA060000 		.4byte	.LASF86
 1052 05e3 09       		.byte	0x9
 1053 05e4 41       		.byte	0x41
 1054 05e5 E8000000 		.4byte	0xe8
 1055 05e9 1810     		.2byte	0x1018
 1056 05eb 15       		.uleb128 0x15
 1057 05ec 86030000 		.4byte	.LASF87
 1058 05f0 09       		.byte	0x9
 1059 05f1 42       		.byte	0x42
 1060 05f2 60050000 		.4byte	0x560
 1061 05f6 1C10     		.2byte	0x101c
 1062 05f8 15       		.uleb128 0x15
 1063 05f9 1D010000 		.4byte	.LASF88
 1064 05fd 09       		.byte	0x9
 1065 05fe 43       		.byte	0x43
 1066 05ff E8000000 		.4byte	0xe8
 1067 0603 2410     		.2byte	0x1024
 1068 0605 15       		.uleb128 0x15
 1069 0606 90030000 		.4byte	.LASF89
 1070 060a 09       		.byte	0x9
 1071 060b 44       		.byte	0x44
 1072 060c 01070000 		.4byte	0x701
 1073 0610 2810     		.2byte	0x1028
 1074 0612 15       		.uleb128 0x15
 1075 0613 DC000000 		.4byte	.LASF90
 1076 0617 09       		.byte	0x9
 1077 0618 45       		.byte	0x45
 1078 0619 E8000000 		.4byte	0xe8
 1079 061d 3410     		.2byte	0x1034
 1080 061f 15       		.uleb128 0x15
 1081 0620 E2000000 		.4byte	.LASF91
 1082 0624 09       		.byte	0x9
 1083 0625 46       		.byte	0x46
ARM GAS  /var/folders/t8/16hdwfmd2fg_d3q6dgx6bpmw0000gn/T//cc1hzQo4.s 			page 20


 1084 0626 E8000000 		.4byte	0xe8
 1085 062a 3810     		.2byte	0x1038
 1086 062c 15       		.uleb128 0x15
 1087 062d E8000000 		.4byte	.LASF92
 1088 0631 09       		.byte	0x9
 1089 0632 47       		.byte	0x47
 1090 0633 E8000000 		.4byte	0xe8
 1091 0637 3C10     		.2byte	0x103c
 1092 0639 15       		.uleb128 0x15
 1093 063a EE000000 		.4byte	.LASF93
 1094 063e 09       		.byte	0x9
 1095 063f 48       		.byte	0x48
 1096 0640 E8000000 		.4byte	0xe8
 1097 0644 4010     		.2byte	0x1040
 1098 0646 15       		.uleb128 0x15
 1099 0647 CB030000 		.4byte	.LASF94
 1100 064b 09       		.byte	0x9
 1101 064c 49       		.byte	0x49
 1102 064d E8000000 		.4byte	0xe8
 1103 0651 4410     		.2byte	0x1044
 1104 0653 15       		.uleb128 0x15
 1105 0654 9A030000 		.4byte	.LASF95
 1106 0658 09       		.byte	0x9
 1107 0659 4A       		.byte	0x4a
 1108 065a 50050000 		.4byte	0x550
 1109 065e 4810     		.2byte	0x1048
 1110 0660 15       		.uleb128 0x15
 1111 0661 58000000 		.4byte	.LASF96
 1112 0665 09       		.byte	0x9
 1113 0666 4B       		.byte	0x4b
 1114 0667 E8000000 		.4byte	0xe8
 1115 066b 4C10     		.2byte	0x104c
 1116 066d 15       		.uleb128 0x15
 1117 066e 5E000000 		.4byte	.LASF97
 1118 0672 09       		.byte	0x9
 1119 0673 4C       		.byte	0x4c
 1120 0674 E8000000 		.4byte	0xe8
 1121 0678 5010     		.2byte	0x1050
 1122 067a 15       		.uleb128 0x15
 1123 067b A4030000 		.4byte	.LASF98
 1124 067f 09       		.byte	0x9
 1125 0680 4D       		.byte	0x4d
 1126 0681 50050000 		.4byte	0x550
 1127 0685 5410     		.2byte	0x1054
 1128 0687 15       		.uleb128 0x15
 1129 0688 DD060000 		.4byte	.LASF99
 1130 068c 09       		.byte	0x9
 1131 068d 4E       		.byte	0x4e
 1132 068e E8000000 		.4byte	0xe8
 1133 0692 5810     		.2byte	0x1058
 1134 0694 15       		.uleb128 0x15
 1135 0695 E3060000 		.4byte	.LASF100
 1136 0699 09       		.byte	0x9
 1137 069a 4F       		.byte	0x4f
 1138 069b E8000000 		.4byte	0xe8
 1139 069f 5C10     		.2byte	0x105c
 1140 06a1 15       		.uleb128 0x15
ARM GAS  /var/folders/t8/16hdwfmd2fg_d3q6dgx6bpmw0000gn/T//cc1hzQo4.s 			page 21


 1141 06a2 1E0B0000 		.4byte	.LASF101
 1142 06a6 09       		.byte	0x9
 1143 06a7 50       		.byte	0x50
 1144 06a8 E8000000 		.4byte	0xe8
 1145 06ac 6010     		.2byte	0x1060
 1146 06ae 15       		.uleb128 0x15
 1147 06af AE030000 		.4byte	.LASF102
 1148 06b3 09       		.byte	0x9
 1149 06b4 51       		.byte	0x51
 1150 06b5 11070000 		.4byte	0x711
 1151 06b9 6410     		.2byte	0x1064
 1152 06bb 15       		.uleb128 0x15
 1153 06bc 41060000 		.4byte	.LASF103
 1154 06c0 09       		.byte	0x9
 1155 06c1 52       		.byte	0x52
 1156 06c2 E8000000 		.4byte	0xe8
 1157 06c6 0011     		.2byte	0x1100
 1158 06c8 15       		.uleb128 0x15
 1159 06c9 AC000000 		.4byte	.LASF104
 1160 06cd 09       		.byte	0x9
 1161 06ce 53       		.byte	0x53
 1162 06cf E8000000 		.4byte	0xe8
 1163 06d3 0411     		.2byte	0x1104
 1164 06d5 00       		.byte	0
 1165 06d6 12       		.uleb128 0x12
 1166 06d7 DD000000 		.4byte	0xdd
 1167 06db E7060000 		.4byte	0x6e7
 1168 06df 16       		.uleb128 0x16
 1169 06e0 37000000 		.4byte	0x37
 1170 06e4 FE03     		.2byte	0x3fe
 1171 06e6 00       		.byte	0
 1172 06e7 12       		.uleb128 0x12
 1173 06e8 ED000000 		.4byte	0xed
 1174 06ec F7060000 		.4byte	0x6f7
 1175 06f0 13       		.uleb128 0x13
 1176 06f1 37000000 		.4byte	0x37
 1177 06f5 00       		.byte	0
 1178 06f6 00       		.byte	0
 1179 06f7 06       		.uleb128 0x6
 1180 06f8 E7060000 		.4byte	0x6e7
 1181 06fc 05       		.uleb128 0x5
 1182 06fd F7060000 		.4byte	0x6f7
 1183 0701 12       		.uleb128 0x12
 1184 0702 DD000000 		.4byte	0xdd
 1185 0706 11070000 		.4byte	0x711
 1186 070a 13       		.uleb128 0x13
 1187 070b 37000000 		.4byte	0x37
 1188 070f 02       		.byte	0x2
 1189 0710 00       		.byte	0
 1190 0711 12       		.uleb128 0x12
 1191 0712 DD000000 		.4byte	0xdd
 1192 0716 21070000 		.4byte	0x721
 1193 071a 13       		.uleb128 0x13
 1194 071b 37000000 		.4byte	0x37
 1195 071f 26       		.byte	0x26
 1196 0720 00       		.byte	0
 1197 0721 03       		.uleb128 0x3
ARM GAS  /var/folders/t8/16hdwfmd2fg_d3q6dgx6bpmw0000gn/T//cc1hzQo4.s 			page 22


 1198 0722 740A0000 		.4byte	.LASF105
 1199 0726 09       		.byte	0x9
 1200 0727 54       		.byte	0x54
 1201 0728 70050000 		.4byte	0x570
 1202 072c 11       		.uleb128 0x11
 1203 072d A4       		.byte	0xa4
 1204 072e 09       		.byte	0x9
 1205 072f 64       		.byte	0x64
 1206 0730 71070000 		.4byte	0x771
 1207 0734 09       		.uleb128 0x9
 1208 0735 50435200 		.ascii	"PCR\000"
 1209 0739 09       		.byte	0x9
 1210 073a 66       		.byte	0x66
 1211 073b 81070000 		.4byte	0x781
 1212 073f 00       		.byte	0
 1213 0740 08       		.uleb128 0x8
 1214 0741 1E000000 		.4byte	.LASF106
 1215 0745 09       		.byte	0x9
 1216 0746 67       		.byte	0x67
 1217 0747 E8000000 		.4byte	0xe8
 1218 074b 80       		.byte	0x80
 1219 074c 08       		.uleb128 0x8
 1220 074d 230A0000 		.4byte	.LASF107
 1221 0751 09       		.byte	0x9
 1222 0752 68       		.byte	0x68
 1223 0753 E8000000 		.4byte	0xe8
 1224 0757 84       		.byte	0x84
 1225 0758 08       		.uleb128 0x8
 1226 0759 64030000 		.4byte	.LASF75
 1227 075d 09       		.byte	0x9
 1228 075e 69       		.byte	0x69
 1229 075f 86070000 		.4byte	0x786
 1230 0763 88       		.byte	0x88
 1231 0764 08       		.uleb128 0x8
 1232 0765 510B0000 		.4byte	.LASF108
 1233 0769 09       		.byte	0x9
 1234 076a 6A       		.byte	0x6a
 1235 076b E8000000 		.4byte	0xe8
 1236 076f A0       		.byte	0xa0
 1237 0770 00       		.byte	0
 1238 0771 12       		.uleb128 0x12
 1239 0772 E8000000 		.4byte	0xe8
 1240 0776 81070000 		.4byte	0x781
 1241 077a 13       		.uleb128 0x13
 1242 077b 37000000 		.4byte	0x37
 1243 077f 1F       		.byte	0x1f
 1244 0780 00       		.byte	0
 1245 0781 05       		.uleb128 0x5
 1246 0782 71070000 		.4byte	0x771
 1247 0786 12       		.uleb128 0x12
 1248 0787 DD000000 		.4byte	0xdd
 1249 078b 96070000 		.4byte	0x796
 1250 078f 13       		.uleb128 0x13
 1251 0790 37000000 		.4byte	0x37
 1252 0794 05       		.byte	0x5
 1253 0795 00       		.byte	0
 1254 0796 03       		.uleb128 0x3
ARM GAS  /var/folders/t8/16hdwfmd2fg_d3q6dgx6bpmw0000gn/T//cc1hzQo4.s 			page 23


 1255 0797 5A040000 		.4byte	.LASF109
 1256 079b 09       		.byte	0x9
 1257 079c 6B       		.byte	0x6b
 1258 079d 2C070000 		.4byte	0x72c
 1259 07a1 11       		.uleb128 0x11
 1260 07a2 01       		.byte	0x1
 1261 07a3 09       		.byte	0x9
 1262 07a4 71       		.byte	0x71
 1263 07a5 B5070000 		.4byte	0x7b5
 1264 07a9 09       		.uleb128 0x9
 1265 07aa 435200   		.ascii	"CR\000"
 1266 07ad 09       		.byte	0x9
 1267 07ae 73       		.byte	0x73
 1268 07af B8000000 		.4byte	0xb8
 1269 07b3 00       		.byte	0
 1270 07b4 00       		.byte	0
 1271 07b5 03       		.uleb128 0x3
 1272 07b6 AD040000 		.4byte	.LASF110
 1273 07ba 09       		.byte	0x9
 1274 07bb 74       		.byte	0x74
 1275 07bc A1070000 		.4byte	0x7a1
 1276 07c0 11       		.uleb128 0x11
 1277 07c1 18       		.byte	0x18
 1278 07c2 09       		.byte	0x9
 1279 07c3 C5       		.byte	0xc5
 1280 07c4 11080000 		.4byte	0x811
 1281 07c8 08       		.uleb128 0x8
 1282 07c9 72090000 		.4byte	.LASF111
 1283 07cd 09       		.byte	0x9
 1284 07ce C7       		.byte	0xc7
 1285 07cf E8000000 		.4byte	0xe8
 1286 07d3 00       		.byte	0
 1287 07d4 08       		.uleb128 0x8
 1288 07d5 98090000 		.4byte	.LASF112
 1289 07d9 09       		.byte	0x9
 1290 07da C8       		.byte	0xc8
 1291 07db E8000000 		.4byte	0xe8
 1292 07df 04       		.byte	0x4
 1293 07e0 08       		.uleb128 0x8
 1294 07e1 23070000 		.4byte	.LASF113
 1295 07e5 09       		.byte	0x9
 1296 07e6 C9       		.byte	0xc9
 1297 07e7 E8000000 		.4byte	0xe8
 1298 07eb 08       		.byte	0x8
 1299 07ec 08       		.uleb128 0x8
 1300 07ed 76000000 		.4byte	.LASF114
 1301 07f1 09       		.byte	0x9
 1302 07f2 CA       		.byte	0xca
 1303 07f3 E8000000 		.4byte	0xe8
 1304 07f7 0C       		.byte	0xc
 1305 07f8 08       		.uleb128 0x8
 1306 07f9 28070000 		.4byte	.LASF115
 1307 07fd 09       		.byte	0x9
 1308 07fe CB       		.byte	0xcb
 1309 07ff E8000000 		.4byte	0xe8
 1310 0803 10       		.byte	0x10
 1311 0804 08       		.uleb128 0x8
ARM GAS  /var/folders/t8/16hdwfmd2fg_d3q6dgx6bpmw0000gn/T//cc1hzQo4.s 			page 24


 1312 0805 BE050000 		.4byte	.LASF116
 1313 0809 09       		.byte	0x9
 1314 080a CC       		.byte	0xcc
 1315 080b E8000000 		.4byte	0xe8
 1316 080f 14       		.byte	0x14
 1317 0810 00       		.byte	0
 1318 0811 03       		.uleb128 0x3
 1319 0812 F1090000 		.4byte	.LASF117
 1320 0816 09       		.byte	0x9
 1321 0817 CD       		.byte	0xcd
 1322 0818 C0070000 		.4byte	0x7c0
 1323 081c 03       		.uleb128 0x3
 1324 081d 7B020000 		.4byte	.LASF118
 1325 0821 0A       		.byte	0xa
 1326 0822 65       		.byte	0x65
 1327 0823 42030000 		.4byte	0x342
 1328 0827 03       		.uleb128 0x3
 1329 0828 67040000 		.4byte	.LASF119
 1330 082c 0A       		.byte	0xa
 1331 082d 6D       		.byte	0x6d
 1332 082e F2000000 		.4byte	0xf2
 1333 0832 07       		.uleb128 0x7
 1334 0833 290A0000 		.4byte	.LASF120
 1335 0837 04       		.byte	0x4
 1336 0838 0A       		.byte	0xa
 1337 0839 89       		.byte	0x89
 1338 083a 4A080000 		.4byte	0x84a
 1339 083e 09       		.uleb128 0x9
 1340 083f 737000   		.ascii	"sp\000"
 1341 0842 0A       		.byte	0xa
 1342 0843 8A       		.byte	0x8a
 1343 0844 BC080000 		.4byte	0x8bc
 1344 0848 00       		.byte	0
 1345 0849 00       		.byte	0
 1346 084a 07       		.uleb128 0x7
 1347 084b E4070000 		.4byte	.LASF121
 1348 084f 24       		.byte	0x24
 1349 0850 0B       		.byte	0xb
 1350 0851 C3       		.byte	0xc3
 1351 0852 BC080000 		.4byte	0x8bc
 1352 0856 09       		.uleb128 0x9
 1353 0857 723800   		.ascii	"r8\000"
 1354 085a 0B       		.byte	0xb
 1355 085b C4       		.byte	0xc4
 1356 085c 1C080000 		.4byte	0x81c
 1357 0860 00       		.byte	0
 1358 0861 09       		.uleb128 0x9
 1359 0862 723900   		.ascii	"r9\000"
 1360 0865 0B       		.byte	0xb
 1361 0866 C5       		.byte	0xc5
 1362 0867 1C080000 		.4byte	0x81c
 1363 086b 04       		.byte	0x4
 1364 086c 09       		.uleb128 0x9
 1365 086d 72313000 		.ascii	"r10\000"
 1366 0871 0B       		.byte	0xb
 1367 0872 C6       		.byte	0xc6
 1368 0873 1C080000 		.4byte	0x81c
ARM GAS  /var/folders/t8/16hdwfmd2fg_d3q6dgx6bpmw0000gn/T//cc1hzQo4.s 			page 25


 1369 0877 08       		.byte	0x8
 1370 0878 09       		.uleb128 0x9
 1371 0879 72313100 		.ascii	"r11\000"
 1372 087d 0B       		.byte	0xb
 1373 087e C7       		.byte	0xc7
 1374 087f 1C080000 		.4byte	0x81c
 1375 0883 0C       		.byte	0xc
 1376 0884 09       		.uleb128 0x9
 1377 0885 723400   		.ascii	"r4\000"
 1378 0888 0B       		.byte	0xb
 1379 0889 C8       		.byte	0xc8
 1380 088a 1C080000 		.4byte	0x81c
 1381 088e 10       		.byte	0x10
 1382 088f 09       		.uleb128 0x9
 1383 0890 723500   		.ascii	"r5\000"
 1384 0893 0B       		.byte	0xb
 1385 0894 C9       		.byte	0xc9
 1386 0895 1C080000 		.4byte	0x81c
 1387 0899 14       		.byte	0x14
 1388 089a 09       		.uleb128 0x9
 1389 089b 723600   		.ascii	"r6\000"
 1390 089e 0B       		.byte	0xb
 1391 089f CA       		.byte	0xca
 1392 08a0 1C080000 		.4byte	0x81c
 1393 08a4 18       		.byte	0x18
 1394 08a5 09       		.uleb128 0x9
 1395 08a6 723700   		.ascii	"r7\000"
 1396 08a9 0B       		.byte	0xb
 1397 08aa CB       		.byte	0xcb
 1398 08ab 1C080000 		.4byte	0x81c
 1399 08af 1C       		.byte	0x1c
 1400 08b0 09       		.uleb128 0x9
 1401 08b1 6C7200   		.ascii	"lr\000"
 1402 08b4 0B       		.byte	0xb
 1403 08b5 CC       		.byte	0xcc
 1404 08b6 1C080000 		.4byte	0x81c
 1405 08ba 20       		.byte	0x20
 1406 08bb 00       		.byte	0
 1407 08bc 0C       		.uleb128 0xc
 1408 08bd 04       		.byte	0x4
 1409 08be 4A080000 		.4byte	0x84a
 1410 08c2 17       		.uleb128 0x17
 1411 08c3 04       		.byte	0x4
 1412 08c4 07       		.byte	0x7
 1413 08c5 D2       		.byte	0xd2
 1414 08c6 25090000 		.4byte	0x925
 1415 08ca 18       		.uleb128 0x18
 1416 08cb 800A0000 		.4byte	.LASF122
 1417 08cf 07       		.byte	0x7
 1418 08d0 D9       		.byte	0xd9
 1419 08d1 34010000 		.4byte	0x134
 1420 08d5 18       		.uleb128 0x18
 1421 08d6 22010000 		.4byte	.LASF123
 1422 08da 07       		.byte	0x7
 1423 08db E0       		.byte	0xe0
 1424 08dc 34010000 		.4byte	0x134
 1425 08e0 18       		.uleb128 0x18
ARM GAS  /var/folders/t8/16hdwfmd2fg_d3q6dgx6bpmw0000gn/T//cc1hzQo4.s 			page 26


 1426 08e1 F90A0000 		.4byte	.LASF124
 1427 08e5 07       		.byte	0x7
 1428 08e6 E7       		.byte	0xe7
 1429 08e7 42030000 		.4byte	0x342
 1430 08eb 18       		.uleb128 0x18
 1431 08ec 5E030000 		.4byte	.LASF125
 1432 08f0 07       		.byte	0x7
 1433 08f1 EE       		.byte	0xee
 1434 08f2 25090000 		.4byte	0x925
 1435 08f6 18       		.uleb128 0x18
 1436 08f7 C8070000 		.4byte	.LASF126
 1437 08fb 07       		.byte	0x7
 1438 08fc F3       		.byte	0xf3
 1439 08fd 34010000 		.4byte	0x134
 1440 0901 18       		.uleb128 0x18
 1441 0902 4A0B0000 		.4byte	.LASF127
 1442 0906 07       		.byte	0x7
 1443 0907 FC       		.byte	0xfc
 1444 0908 50090000 		.4byte	0x950
 1445 090c 19       		.uleb128 0x19
 1446 090d DC040000 		.4byte	.LASF128
 1447 0911 07       		.byte	0x7
 1448 0912 0501     		.2byte	0x105
 1449 0914 87090000 		.4byte	0x987
 1450 0918 19       		.uleb128 0x19
 1451 0919 0E030000 		.4byte	.LASF129
 1452 091d 07       		.byte	0x7
 1453 091e 0D01     		.2byte	0x10d
 1454 0920 3F010000 		.4byte	0x13f
 1455 0924 00       		.byte	0
 1456 0925 0C       		.uleb128 0xc
 1457 0926 04       		.byte	0x4
 1458 0927 5A020000 		.4byte	0x25a
 1459 092b 07       		.uleb128 0x7
 1460 092c 76050000 		.4byte	.LASF130
 1461 0930 0C       		.byte	0xc
 1462 0931 0C       		.byte	0xc
 1463 0932 34       		.byte	0x34
 1464 0933 50090000 		.4byte	0x950
 1465 0937 08       		.uleb128 0x8
 1466 0938 B8080000 		.4byte	.LASF30
 1467 093c 0C       		.byte	0xc
 1468 093d 35       		.byte	0x35
 1469 093e 8F020000 		.4byte	0x28f
 1470 0942 00       		.byte	0
 1471 0943 09       		.uleb128 0x9
 1472 0944 636E7400 		.ascii	"cnt\000"
 1473 0948 0C       		.byte	0xc
 1474 0949 37       		.byte	0x37
 1475 094a 4A010000 		.4byte	0x14a
 1476 094e 08       		.byte	0x8
 1477 094f 00       		.byte	0
 1478 0950 0C       		.uleb128 0xc
 1479 0951 04       		.byte	0x4
 1480 0952 2B090000 		.4byte	0x92b
 1481 0956 07       		.uleb128 0x7
 1482 0957 8F090000 		.4byte	.LASF131
ARM GAS  /var/folders/t8/16hdwfmd2fg_d3q6dgx6bpmw0000gn/T//cc1hzQo4.s 			page 27


 1483 095b 10       		.byte	0x10
 1484 095c 0D       		.byte	0xd
 1485 095d 39       		.byte	0x39
 1486 095e 87090000 		.4byte	0x987
 1487 0962 08       		.uleb128 0x8
 1488 0963 B8080000 		.4byte	.LASF30
 1489 0967 0D       		.byte	0xd
 1490 0968 3A       		.byte	0x3a
 1491 0969 8F020000 		.4byte	0x28f
 1492 096d 00       		.byte	0
 1493 096e 08       		.uleb128 0x8
 1494 096f 4A000000 		.4byte	.LASF132
 1495 0973 0D       		.byte	0xd
 1496 0974 3C       		.byte	0x3c
 1497 0975 65020000 		.4byte	0x265
 1498 0979 08       		.byte	0x8
 1499 097a 08       		.uleb128 0x8
 1500 097b 230B0000 		.4byte	.LASF50
 1501 097f 0D       		.byte	0xd
 1502 0980 3E       		.byte	0x3e
 1503 0981 E90A0000 		.4byte	0xae9
 1504 0985 0C       		.byte	0xc
 1505 0986 00       		.byte	0
 1506 0987 0C       		.uleb128 0xc
 1507 0988 04       		.byte	0x4
 1508 0989 56090000 		.4byte	0x956
 1509 098d 0C       		.uleb128 0xc
 1510 098e 04       		.byte	0x4
 1511 098f 9F090000 		.4byte	0x99f
 1512 0993 05       		.uleb128 0x5
 1513 0994 8D090000 		.4byte	0x98d
 1514 0998 04       		.uleb128 0x4
 1515 0999 01       		.byte	0x1
 1516 099a 08       		.byte	0x8
 1517 099b 03040000 		.4byte	.LASF133
 1518 099f 06       		.uleb128 0x6
 1519 09a0 98090000 		.4byte	0x998
 1520 09a4 0C       		.uleb128 0xc
 1521 09a5 04       		.byte	0x4
 1522 09a6 27080000 		.4byte	0x827
 1523 09aa 0C       		.uleb128 0xc
 1524 09ab 04       		.byte	0x4
 1525 09ac 44030000 		.4byte	0x344
 1526 09b0 1A       		.uleb128 0x1a
 1527 09b1 636800   		.ascii	"ch\000"
 1528 09b4 07       		.byte	0x7
 1529 09b5 D201     		.2byte	0x1d2
 1530 09b7 2B040000 		.4byte	0x42b
 1531 09bb 12       		.uleb128 0x12
 1532 09bc 27080000 		.4byte	0x827
 1533 09c0 C6090000 		.4byte	0x9c6
 1534 09c4 1B       		.uleb128 0x1b
 1535 09c5 00       		.byte	0
 1536 09c6 1C       		.uleb128 0x1c
 1537 09c7 AC050000 		.4byte	.LASF134
 1538 09cb 0F       		.byte	0xf
 1539 09cc 2B01     		.2byte	0x12b
ARM GAS  /var/folders/t8/16hdwfmd2fg_d3q6dgx6bpmw0000gn/T//cc1hzQo4.s 			page 28


 1540 09ce BB090000 		.4byte	0x9bb
 1541 09d2 11       		.uleb128 0x11
 1542 09d3 16       		.byte	0x16
 1543 09d4 0E       		.byte	0xe
 1544 09d5 34       		.byte	0x34
 1545 09d6 B30A0000 		.4byte	0xab3
 1546 09da 08       		.uleb128 0x8
 1547 09db 340B0000 		.4byte	.LASF135
 1548 09df 0E       		.byte	0xe
 1549 09e0 35       		.byte	0x35
 1550 09e1 B30A0000 		.4byte	0xab3
 1551 09e5 00       		.byte	0
 1552 09e6 08       		.uleb128 0x8
 1553 09e7 5A010000 		.4byte	.LASF136
 1554 09eb 0E       		.byte	0xe
 1555 09ec 36       		.byte	0x36
 1556 09ed AD000000 		.4byte	0xad
 1557 09f1 04       		.byte	0x4
 1558 09f2 08       		.uleb128 0x8
 1559 09f3 42080000 		.4byte	.LASF137
 1560 09f7 0E       		.byte	0xe
 1561 09f8 37       		.byte	0x37
 1562 09f9 AD000000 		.4byte	0xad
 1563 09fd 05       		.byte	0x5
 1564 09fe 08       		.uleb128 0x8
 1565 09ff C9080000 		.4byte	.LASF138
 1566 0a03 0E       		.byte	0xe
 1567 0a04 38       		.byte	0x38
 1568 0a05 C7000000 		.4byte	0xc7
 1569 0a09 06       		.byte	0x6
 1570 0a0a 08       		.uleb128 0x8
 1571 0a0b 85040000 		.4byte	.LASF139
 1572 0a0f 0E       		.byte	0xe
 1573 0a10 39       		.byte	0x39
 1574 0a11 AD000000 		.4byte	0xad
 1575 0a15 08       		.byte	0x8
 1576 0a16 08       		.uleb128 0x8
 1577 0a17 E60A0000 		.4byte	.LASF140
 1578 0a1b 0E       		.byte	0xe
 1579 0a1c 3A       		.byte	0x3a
 1580 0a1d AD000000 		.4byte	0xad
 1581 0a21 09       		.byte	0x9
 1582 0a22 08       		.uleb128 0x8
 1583 0a23 5C050000 		.4byte	.LASF141
 1584 0a27 0E       		.byte	0xe
 1585 0a28 3B       		.byte	0x3b
 1586 0a29 AD000000 		.4byte	0xad
 1587 0a2d 0A       		.byte	0xa
 1588 0a2e 08       		.uleb128 0x8
 1589 0a2f 15000000 		.4byte	.LASF142
 1590 0a33 0E       		.byte	0xe
 1591 0a34 3C       		.byte	0x3c
 1592 0a35 AD000000 		.4byte	0xad
 1593 0a39 0B       		.byte	0xb
 1594 0a3a 08       		.uleb128 0x8
 1595 0a3b 00000000 		.4byte	.LASF143
 1596 0a3f 0E       		.byte	0xe
ARM GAS  /var/folders/t8/16hdwfmd2fg_d3q6dgx6bpmw0000gn/T//cc1hzQo4.s 			page 29


 1597 0a40 3D       		.byte	0x3d
 1598 0a41 AD000000 		.4byte	0xad
 1599 0a45 0C       		.byte	0xc
 1600 0a46 08       		.uleb128 0x8
 1601 0a47 E9060000 		.4byte	.LASF144
 1602 0a4b 0E       		.byte	0xe
 1603 0a4c 3E       		.byte	0x3e
 1604 0a4d AD000000 		.4byte	0xad
 1605 0a51 0D       		.byte	0xd
 1606 0a52 08       		.uleb128 0x8
 1607 0a53 05010000 		.4byte	.LASF145
 1608 0a57 0E       		.byte	0xe
 1609 0a58 3F       		.byte	0x3f
 1610 0a59 AD000000 		.4byte	0xad
 1611 0a5d 0E       		.byte	0xe
 1612 0a5e 08       		.uleb128 0x8
 1613 0a5f 67080000 		.4byte	.LASF146
 1614 0a63 0E       		.byte	0xe
 1615 0a64 40       		.byte	0x40
 1616 0a65 AD000000 		.4byte	0xad
 1617 0a69 0F       		.byte	0xf
 1618 0a6a 08       		.uleb128 0x8
 1619 0a6b F6050000 		.4byte	.LASF147
 1620 0a6f 0E       		.byte	0xe
 1621 0a70 41       		.byte	0x41
 1622 0a71 AD000000 		.4byte	0xad
 1623 0a75 10       		.byte	0x10
 1624 0a76 08       		.uleb128 0x8
 1625 0a77 40050000 		.4byte	.LASF148
 1626 0a7b 0E       		.byte	0xe
 1627 0a7c 42       		.byte	0x42
 1628 0a7d AD000000 		.4byte	0xad
 1629 0a81 11       		.byte	0x11
 1630 0a82 08       		.uleb128 0x8
 1631 0a83 000B0000 		.4byte	.LASF149
 1632 0a87 0E       		.byte	0xe
 1633 0a88 43       		.byte	0x43
 1634 0a89 AD000000 		.4byte	0xad
 1635 0a8d 12       		.byte	0x12
 1636 0a8e 08       		.uleb128 0x8
 1637 0a8f 4B040000 		.4byte	.LASF150
 1638 0a93 0E       		.byte	0xe
 1639 0a94 44       		.byte	0x44
 1640 0a95 AD000000 		.4byte	0xad
 1641 0a99 13       		.byte	0x13
 1642 0a9a 08       		.uleb128 0x8
 1643 0a9b 2E000000 		.4byte	.LASF151
 1644 0a9f 0E       		.byte	0xe
 1645 0aa0 45       		.byte	0x45
 1646 0aa1 AD000000 		.4byte	0xad
 1647 0aa5 14       		.byte	0x14
 1648 0aa6 08       		.uleb128 0x8
 1649 0aa7 B9040000 		.4byte	.LASF152
 1650 0aab 0E       		.byte	0xe
 1651 0aac 46       		.byte	0x46
 1652 0aad AD000000 		.4byte	0xad
 1653 0ab1 15       		.byte	0x15
ARM GAS  /var/folders/t8/16hdwfmd2fg_d3q6dgx6bpmw0000gn/T//cc1hzQo4.s 			page 30


 1654 0ab2 00       		.byte	0
 1655 0ab3 12       		.uleb128 0x12
 1656 0ab4 98090000 		.4byte	0x998
 1657 0ab8 C30A0000 		.4byte	0xac3
 1658 0abc 13       		.uleb128 0x13
 1659 0abd 37000000 		.4byte	0x37
 1660 0ac1 03       		.byte	0x3
 1661 0ac2 00       		.byte	0
 1662 0ac3 03       		.uleb128 0x3
 1663 0ac4 BF0A0000 		.4byte	.LASF153
 1664 0ac8 0E       		.byte	0xe
 1665 0ac9 47       		.byte	0x47
 1666 0aca D2090000 		.4byte	0x9d2
 1667 0ace 06       		.uleb128 0x6
 1668 0acf C30A0000 		.4byte	0xac3
 1669 0ad3 1D       		.uleb128 0x1d
 1670 0ad4 83000000 		.4byte	.LASF154
 1671 0ad8 0E       		.byte	0xe
 1672 0ad9 6C       		.byte	0x6c
 1673 0ada CE0A0000 		.4byte	0xace
 1674 0ade 03       		.uleb128 0x3
 1675 0adf 130A0000 		.4byte	.LASF155
 1676 0ae3 0D       		.byte	0xd
 1677 0ae4 34       		.byte	0x34
 1678 0ae5 56090000 		.4byte	0x956
 1679 0ae9 0C       		.uleb128 0xc
 1680 0aea 04       		.byte	0x4
 1681 0aeb DE0A0000 		.4byte	0xade
 1682 0aef 0C       		.uleb128 0xc
 1683 0af0 04       		.byte	0x4
 1684 0af1 C2000000 		.4byte	0xc2
 1685 0af5 0C       		.uleb128 0xc
 1686 0af6 04       		.byte	0x4
 1687 0af7 AD000000 		.4byte	0xad
 1688 0afb 04       		.uleb128 0x4
 1689 0afc 01       		.byte	0x1
 1690 0afd 02       		.byte	0x2
 1691 0afe F3030000 		.4byte	.LASF156
 1692 0b02 03       		.uleb128 0x3
 1693 0b03 14010000 		.4byte	.LASF157
 1694 0b07 10       		.byte	0x10
 1695 0b08 46       		.byte	0x46
 1696 0b09 DD000000 		.4byte	0xdd
 1697 0b0d 03       		.uleb128 0x3
 1698 0b0e 5F010000 		.4byte	.LASF158
 1699 0b12 10       		.byte	0x10
 1700 0b13 53       		.byte	0x53
 1701 0b14 180B0000 		.4byte	0xb18
 1702 0b18 0C       		.uleb128 0xc
 1703 0b19 04       		.byte	0x4
 1704 0b1a 11080000 		.4byte	0x811
 1705 0b1e 11       		.uleb128 0x11
 1706 0b1f 84       		.byte	0x84
 1707 0b20 10       		.byte	0x10
 1708 0b21 5A       		.byte	0x5a
 1709 0b22 3F0B0000 		.4byte	0xb3f
 1710 0b26 08       		.uleb128 0x8
ARM GAS  /var/folders/t8/16hdwfmd2fg_d3q6dgx6bpmw0000gn/T//cc1hzQo4.s 			page 31


 1711 0b27 6D090000 		.4byte	.LASF159
 1712 0b2b 10       		.byte	0x10
 1713 0b2c 5B       		.byte	0x5b
 1714 0b2d 0D0B0000 		.4byte	0xb0d
 1715 0b31 00       		.byte	0
 1716 0b32 08       		.uleb128 0x8
 1717 0b33 C0060000 		.4byte	.LASF160
 1718 0b37 10       		.byte	0x10
 1719 0b38 5C       		.byte	0x5c
 1720 0b39 3F0B0000 		.4byte	0xb3f
 1721 0b3d 04       		.byte	0x4
 1722 0b3e 00       		.byte	0
 1723 0b3f 12       		.uleb128 0x12
 1724 0b40 020B0000 		.4byte	0xb02
 1725 0b44 4F0B0000 		.4byte	0xb4f
 1726 0b48 13       		.uleb128 0x13
 1727 0b49 37000000 		.4byte	0x37
 1728 0b4d 1F       		.byte	0x1f
 1729 0b4e 00       		.byte	0
 1730 0b4f 03       		.uleb128 0x3
 1731 0b50 1F050000 		.4byte	.LASF161
 1732 0b54 10       		.byte	0x10
 1733 0b55 5D       		.byte	0x5d
 1734 0b56 1E0B0000 		.4byte	0xb1e
 1735 0b5a 14       		.uleb128 0x14
 1736 0b5b 9402     		.2byte	0x294
 1737 0b5d 10       		.byte	0x10
 1738 0b5e 68       		.byte	0x68
 1739 0b5f 700B0000 		.4byte	0xb70
 1740 0b63 08       		.uleb128 0x8
 1741 0b64 43010000 		.4byte	.LASF162
 1742 0b68 10       		.byte	0x10
 1743 0b69 69       		.byte	0x69
 1744 0b6a 700B0000 		.4byte	0xb70
 1745 0b6e 00       		.byte	0
 1746 0b6f 00       		.byte	0
 1747 0b70 12       		.uleb128 0x12
 1748 0b71 4F0B0000 		.4byte	0xb4f
 1749 0b75 800B0000 		.4byte	0xb80
 1750 0b79 13       		.uleb128 0x13
 1751 0b7a 37000000 		.4byte	0x37
 1752 0b7e 04       		.byte	0x4
 1753 0b7f 00       		.byte	0
 1754 0b80 03       		.uleb128 0x3
 1755 0b81 CF090000 		.4byte	.LASF163
 1756 0b85 10       		.byte	0x10
 1757 0b86 6A       		.byte	0x6a
 1758 0b87 5A0B0000 		.4byte	0xb5a
 1759 0b8b 06       		.uleb128 0x6
 1760 0b8c 800B0000 		.4byte	0xb80
 1761 0b90 1C       		.uleb128 0x1c
 1762 0b91 EF020000 		.4byte	.LASF164
 1763 0b95 10       		.byte	0x10
 1764 0b96 8D01     		.2byte	0x18d
 1765 0b98 8B0B0000 		.4byte	0xb8b
 1766 0b9c 1E       		.uleb128 0x1e
 1767 0b9d 22040000 		.4byte	.LASF165
ARM GAS  /var/folders/t8/16hdwfmd2fg_d3q6dgx6bpmw0000gn/T//cc1hzQo4.s 			page 32


 1768 0ba1 11       		.byte	0x11
 1769 0ba2 0001     		.2byte	0x100
 1770 0ba4 A80B0000 		.4byte	0xba8
 1771 0ba8 0D       		.uleb128 0xd
 1772 0ba9 22040000 		.4byte	.LASF165
 1773 0bad E8       		.byte	0xe8
 1774 0bae 12       		.byte	0x12
 1775 0baf 0601     		.2byte	0x106
 1776 0bb1 930C0000 		.4byte	0xc93
 1777 0bb5 0B       		.uleb128 0xb
 1778 0bb6 C5000000 		.4byte	.LASF36
 1779 0bba 12       		.byte	0x12
 1780 0bbb 0A01     		.2byte	0x10a
 1781 0bbd D20C0000 		.4byte	0xcd2
 1782 0bc1 00       		.byte	0
 1783 0bc2 0B       		.uleb128 0xb
 1784 0bc3 BE000000 		.4byte	.LASF166
 1785 0bc7 12       		.byte	0x12
 1786 0bc8 0E01     		.2byte	0x10e
 1787 0bca 06100000 		.4byte	0x1006
 1788 0bce 04       		.byte	0x4
 1789 0bcf 0B       		.uleb128 0xb
 1790 0bd0 8D040000 		.4byte	.LASF167
 1791 0bd4 12       		.byte	0x12
 1792 0bd5 1201     		.2byte	0x112
 1793 0bd7 C7000000 		.4byte	0xc7
 1794 0bdb 08       		.byte	0x8
 1795 0bdc 0B       		.uleb128 0xb
 1796 0bdd 0D040000 		.4byte	.LASF168
 1797 0be1 12       		.byte	0x12
 1798 0be2 1601     		.2byte	0x116
 1799 0be4 C7000000 		.4byte	0xc7
 1800 0be8 0A       		.byte	0xa
 1801 0be9 0A       		.uleb128 0xa
 1802 0bea 65706300 		.ascii	"epc\000"
 1803 0bee 12       		.byte	0x12
 1804 0bef 1A01     		.2byte	0x11a
 1805 0bf1 0C100000 		.4byte	0x100c
 1806 0bf5 0C       		.byte	0xc
 1807 0bf6 0B       		.uleb128 0xb
 1808 0bf7 57090000 		.4byte	.LASF169
 1809 0bfb 12       		.byte	0x12
 1810 0bfc 2101     		.2byte	0x121
 1811 0bfe 22100000 		.4byte	0x1022
 1812 0c02 4C       		.byte	0x4c
 1813 0c03 0B       		.uleb128 0xb
 1814 0c04 DB0A0000 		.4byte	.LASF170
 1815 0c08 12       		.byte	0x12
 1816 0c09 2801     		.2byte	0x128
 1817 0c0b 22100000 		.4byte	0x1022
 1818 0c0f 88       		.byte	0x88
 1819 0c10 0B       		.uleb128 0xb
 1820 0c11 C2030000 		.4byte	.LASF171
 1821 0c15 12       		.byte	0x12
 1822 0c16 2C01     		.2byte	0x12c
 1823 0c18 170D0000 		.4byte	0xd17
 1824 0c1c C4       		.byte	0xc4
ARM GAS  /var/folders/t8/16hdwfmd2fg_d3q6dgx6bpmw0000gn/T//cc1hzQo4.s 			page 33


 1825 0c1d 0B       		.uleb128 0xb
 1826 0c1e 9A060000 		.4byte	.LASF172
 1827 0c22 12       		.byte	0x12
 1828 0c23 3001     		.2byte	0x130
 1829 0c25 F50A0000 		.4byte	0xaf5
 1830 0c29 C8       		.byte	0xc8
 1831 0c2a 0B       		.uleb128 0xb
 1832 0c2b 08040000 		.4byte	.LASF173
 1833 0c2f 12       		.byte	0x12
 1834 0c30 3401     		.2byte	0x134
 1835 0c32 2C000000 		.4byte	0x2c
 1836 0c36 CC       		.byte	0xcc
 1837 0c37 0B       		.uleb128 0xb
 1838 0c38 83050000 		.4byte	.LASF174
 1839 0c3c 12       		.byte	0x12
 1840 0c3d 3801     		.2byte	0x138
 1841 0c3f 9D0D0000 		.4byte	0xd9d
 1842 0c43 D0       		.byte	0xd0
 1843 0c44 0B       		.uleb128 0xb
 1844 0c45 D6040000 		.4byte	.LASF175
 1845 0c49 12       		.byte	0x12
 1846 0c4a 3C01     		.2byte	0x13c
 1847 0c4c 32100000 		.4byte	0x1032
 1848 0c50 D4       		.byte	0xd4
 1849 0c51 0B       		.uleb128 0xb
 1850 0c52 67050000 		.4byte	.LASF176
 1851 0c56 12       		.byte	0x12
 1852 0c57 4001     		.2byte	0x140
 1853 0c59 C7000000 		.4byte	0xc7
 1854 0c5d DC       		.byte	0xdc
 1855 0c5e 0B       		.uleb128 0xb
 1856 0c5f 6E050000 		.4byte	.LASF177
 1857 0c63 12       		.byte	0x12
 1858 0c64 4401     		.2byte	0x144
 1859 0c66 AD000000 		.4byte	0xad
 1860 0c6a DE       		.byte	0xde
 1861 0c6b 0B       		.uleb128 0xb
 1862 0c6c 11050000 		.4byte	.LASF178
 1863 0c70 12       		.byte	0x12
 1864 0c71 4801     		.2byte	0x148
 1865 0c73 AD000000 		.4byte	0xad
 1866 0c77 DF       		.byte	0xdf
 1867 0c78 0B       		.uleb128 0xb
 1868 0c79 91080000 		.4byte	.LASF179
 1869 0c7d 12       		.byte	0x12
 1870 0c7e 4C01     		.2byte	0x14c
 1871 0c80 D20C0000 		.4byte	0xcd2
 1872 0c84 E0       		.byte	0xe0
 1873 0c85 0B       		.uleb128 0xb
 1874 0c86 280B0000 		.4byte	.LASF180
 1875 0c8a 12       		.byte	0x12
 1876 0c8b 5401     		.2byte	0x154
 1877 0c8d DD000000 		.4byte	0xdd
 1878 0c91 E4       		.byte	0xe4
 1879 0c92 00       		.byte	0
 1880 0c93 1E       		.uleb128 0x1e
 1881 0c94 650A0000 		.4byte	.LASF181
ARM GAS  /var/folders/t8/16hdwfmd2fg_d3q6dgx6bpmw0000gn/T//cc1hzQo4.s 			page 34


 1882 0c98 11       		.byte	0x11
 1883 0c99 0501     		.2byte	0x105
 1884 0c9b AD000000 		.4byte	0xad
 1885 0c9f 1F       		.uleb128 0x1f
 1886 0ca0 07       		.byte	0x7
 1887 0ca1 01       		.byte	0x1
 1888 0ca2 50000000 		.4byte	0x50
 1889 0ca6 11       		.byte	0x11
 1890 0ca7 0A01     		.2byte	0x10a
 1891 0ca9 D20C0000 		.4byte	0xcd2
 1892 0cad 20       		.uleb128 0x20
 1893 0cae 12080000 		.4byte	.LASF182
 1894 0cb2 00       		.byte	0
 1895 0cb3 20       		.uleb128 0x20
 1896 0cb4 2D070000 		.4byte	.LASF183
 1897 0cb8 01       		.byte	0x1
 1898 0cb9 20       		.uleb128 0x20
 1899 0cba 90060000 		.4byte	.LASF184
 1900 0cbe 02       		.byte	0x2
 1901 0cbf 20       		.uleb128 0x20
 1902 0cc0 04050000 		.4byte	.LASF185
 1903 0cc4 03       		.byte	0x3
 1904 0cc5 20       		.uleb128 0x20
 1905 0cc6 F4000000 		.4byte	.LASF186
 1906 0cca 04       		.byte	0x4
 1907 0ccb 20       		.uleb128 0x20
 1908 0ccc E1020000 		.4byte	.LASF187
 1909 0cd0 05       		.byte	0x5
 1910 0cd1 00       		.byte	0
 1911 0cd2 1E       		.uleb128 0x1e
 1912 0cd3 03060000 		.4byte	.LASF188
 1913 0cd7 11       		.byte	0x11
 1914 0cd8 1101     		.2byte	0x111
 1915 0cda 9F0C0000 		.4byte	0xc9f
 1916 0cde 1F       		.uleb128 0x1f
 1917 0cdf 07       		.byte	0x7
 1918 0ce0 01       		.byte	0x1
 1919 0ce1 50000000 		.4byte	0x50
 1920 0ce5 11       		.byte	0x11
 1921 0ce6 1F01     		.2byte	0x11f
 1922 0ce8 170D0000 		.4byte	0xd17
 1923 0cec 20       		.uleb128 0x20
 1924 0ced CB020000 		.4byte	.LASF189
 1925 0cf1 00       		.byte	0
 1926 0cf2 20       		.uleb128 0x20
 1927 0cf3 B3000000 		.4byte	.LASF190
 1928 0cf7 01       		.byte	0x1
 1929 0cf8 20       		.uleb128 0x20
 1930 0cf9 D0070000 		.4byte	.LASF191
 1931 0cfd 02       		.byte	0x2
 1932 0cfe 20       		.uleb128 0x20
 1933 0cff 0A0B0000 		.4byte	.LASF192
 1934 0d03 03       		.byte	0x3
 1935 0d04 20       		.uleb128 0x20
 1936 0d05 3F0B0000 		.4byte	.LASF193
 1937 0d09 04       		.byte	0x4
 1938 0d0a 20       		.uleb128 0x20
ARM GAS  /var/folders/t8/16hdwfmd2fg_d3q6dgx6bpmw0000gn/T//cc1hzQo4.s 			page 35


 1939 0d0b 10090000 		.4byte	.LASF194
 1940 0d0f 05       		.byte	0x5
 1941 0d10 20       		.uleb128 0x20
 1942 0d11 1E060000 		.4byte	.LASF195
 1943 0d15 06       		.byte	0x6
 1944 0d16 00       		.byte	0
 1945 0d17 1E       		.uleb128 0x1e
 1946 0d18 2B010000 		.4byte	.LASF196
 1947 0d1c 11       		.byte	0x11
 1948 0d1d 2701     		.2byte	0x127
 1949 0d1f DE0C0000 		.4byte	0xcde
 1950 0d23 1F       		.uleb128 0x1f
 1951 0d24 07       		.byte	0x7
 1952 0d25 01       		.byte	0x1
 1953 0d26 50000000 		.4byte	0x50
 1954 0d2a 11       		.byte	0x11
 1955 0d2b 2C01     		.2byte	0x12c
 1956 0d2d 5C0D0000 		.4byte	0xd5c
 1957 0d31 20       		.uleb128 0x20
 1958 0d32 A3080000 		.4byte	.LASF197
 1959 0d36 00       		.byte	0
 1960 0d37 20       		.uleb128 0x20
 1961 0d38 64000000 		.4byte	.LASF198
 1962 0d3c 01       		.byte	0x1
 1963 0d3d 20       		.uleb128 0x20
 1964 0d3e FB080000 		.4byte	.LASF199
 1965 0d42 02       		.byte	0x2
 1966 0d43 20       		.uleb128 0x20
 1967 0d44 D1080000 		.4byte	.LASF200
 1968 0d48 03       		.byte	0x3
 1969 0d49 20       		.uleb128 0x20
 1970 0d4a C90A0000 		.4byte	.LASF201
 1971 0d4e 04       		.byte	0x4
 1972 0d4f 20       		.uleb128 0x20
 1973 0d50 55060000 		.4byte	.LASF202
 1974 0d54 05       		.byte	0x5
 1975 0d55 20       		.uleb128 0x20
 1976 0d56 1D030000 		.4byte	.LASF203
 1977 0d5a 06       		.byte	0x6
 1978 0d5b 00       		.byte	0
 1979 0d5c 1E       		.uleb128 0x1e
 1980 0d5d E3040000 		.4byte	.LASF204
 1981 0d61 11       		.byte	0x11
 1982 0d62 3401     		.2byte	0x134
 1983 0d64 230D0000 		.4byte	0xd23
 1984 0d68 21       		.uleb128 0x21
 1985 0d69 08       		.byte	0x8
 1986 0d6a 11       		.byte	0x11
 1987 0d6b 3901     		.2byte	0x139
 1988 0d6d 8C0D0000 		.4byte	0xd8c
 1989 0d71 0B       		.uleb128 0xb
 1990 0d72 FC040000 		.4byte	.LASF205
 1991 0d76 11       		.byte	0x11
 1992 0d77 3D01     		.2byte	0x13d
 1993 0d79 2C000000 		.4byte	0x2c
 1994 0d7d 00       		.byte	0
 1995 0d7e 0B       		.uleb128 0xb
ARM GAS  /var/folders/t8/16hdwfmd2fg_d3q6dgx6bpmw0000gn/T//cc1hzQo4.s 			page 36


 1996 0d7f 41040000 		.4byte	.LASF206
 1997 0d83 11       		.byte	0x11
 1998 0d84 4101     		.2byte	0x141
 1999 0d86 EF0A0000 		.4byte	0xaef
 2000 0d8a 04       		.byte	0x4
 2001 0d8b 00       		.byte	0
 2002 0d8c 1E       		.uleb128 0x1e
 2003 0d8d C8040000 		.4byte	.LASF207
 2004 0d91 11       		.byte	0x11
 2005 0d92 4201     		.2byte	0x142
 2006 0d94 680D0000 		.4byte	0xd68
 2007 0d98 06       		.uleb128 0x6
 2008 0d99 8C0D0000 		.4byte	0xd8c
 2009 0d9d 1E       		.uleb128 0x1e
 2010 0d9e D9090000 		.4byte	.LASF208
 2011 0da2 11       		.byte	0x11
 2012 0da3 4A01     		.2byte	0x14a
 2013 0da5 A90D0000 		.4byte	0xda9
 2014 0da9 0C       		.uleb128 0xc
 2015 0daa 04       		.byte	0x4
 2016 0dab AF0D0000 		.4byte	0xdaf
 2017 0daf 0E       		.uleb128 0xe
 2018 0db0 BA0D0000 		.4byte	0xdba
 2019 0db4 0F       		.uleb128 0xf
 2020 0db5 BA0D0000 		.4byte	0xdba
 2021 0db9 00       		.byte	0
 2022 0dba 0C       		.uleb128 0xc
 2023 0dbb 04       		.byte	0x4
 2024 0dbc 9C0B0000 		.4byte	0xb9c
 2025 0dc0 1E       		.uleb128 0x1e
 2026 0dc1 CD060000 		.4byte	.LASF209
 2027 0dc5 11       		.byte	0x11
 2028 0dc6 5301     		.2byte	0x153
 2029 0dc8 CC0D0000 		.4byte	0xdcc
 2030 0dcc 0C       		.uleb128 0xc
 2031 0dcd 04       		.byte	0x4
 2032 0dce D20D0000 		.4byte	0xdd2
 2033 0dd2 0E       		.uleb128 0xe
 2034 0dd3 E20D0000 		.4byte	0xde2
 2035 0dd7 0F       		.uleb128 0xf
 2036 0dd8 BA0D0000 		.4byte	0xdba
 2037 0ddc 0F       		.uleb128 0xf
 2038 0ddd 930C0000 		.4byte	0xc93
 2039 0de1 00       		.byte	0
 2040 0de2 1E       		.uleb128 0x1e
 2041 0de3 78040000 		.4byte	.LASF210
 2042 0de7 11       		.byte	0x11
 2043 0de8 5C01     		.2byte	0x15c
 2044 0dea EE0D0000 		.4byte	0xdee
 2045 0dee 0C       		.uleb128 0xc
 2046 0def 04       		.byte	0x4
 2047 0df0 F40D0000 		.4byte	0xdf4
 2048 0df4 0E       		.uleb128 0xe
 2049 0df5 040E0000 		.4byte	0xe04
 2050 0df9 0F       		.uleb128 0xf
 2051 0dfa BA0D0000 		.4byte	0xdba
 2052 0dfe 0F       		.uleb128 0xf
ARM GAS  /var/folders/t8/16hdwfmd2fg_d3q6dgx6bpmw0000gn/T//cc1hzQo4.s 			page 37


 2053 0dff 5C0D0000 		.4byte	0xd5c
 2054 0e03 00       		.byte	0
 2055 0e04 1E       		.uleb128 0x1e
 2056 0e05 B6090000 		.4byte	.LASF211
 2057 0e09 11       		.byte	0x11
 2058 0e0a 6801     		.2byte	0x168
 2059 0e0c 100E0000 		.4byte	0xe10
 2060 0e10 0C       		.uleb128 0xc
 2061 0e11 04       		.byte	0x4
 2062 0e12 160E0000 		.4byte	0xe16
 2063 0e16 22       		.uleb128 0x22
 2064 0e17 FB0A0000 		.4byte	0xafb
 2065 0e1b 250E0000 		.4byte	0xe25
 2066 0e1f 0F       		.uleb128 0xf
 2067 0e20 BA0D0000 		.4byte	0xdba
 2068 0e24 00       		.byte	0
 2069 0e25 1E       		.uleb128 0x1e
 2070 0e26 44090000 		.4byte	.LASF212
 2071 0e2a 11       		.byte	0x11
 2072 0e2b 6D01     		.2byte	0x16d
 2073 0e2d 310E0000 		.4byte	0xe31
 2074 0e31 0C       		.uleb128 0xc
 2075 0e32 04       		.byte	0x4
 2076 0e33 370E0000 		.4byte	0xe37
 2077 0e37 22       		.uleb128 0x22
 2078 0e38 550E0000 		.4byte	0xe55
 2079 0e3c 550E0000 		.4byte	0xe55
 2080 0e40 0F       		.uleb128 0xf
 2081 0e41 BA0D0000 		.4byte	0xdba
 2082 0e45 0F       		.uleb128 0xf
 2083 0e46 AD000000 		.4byte	0xad
 2084 0e4a 0F       		.uleb128 0xf
 2085 0e4b AD000000 		.4byte	0xad
 2086 0e4f 0F       		.uleb128 0xf
 2087 0e50 C7000000 		.4byte	0xc7
 2088 0e54 00       		.byte	0
 2089 0e55 0C       		.uleb128 0xc
 2090 0e56 04       		.byte	0x4
 2091 0e57 980D0000 		.4byte	0xd98
 2092 0e5b 11       		.uleb128 0x11
 2093 0e5c 14       		.byte	0x14
 2094 0e5d 12       		.byte	0x12
 2095 0e5e 6B       		.byte	0x6b
 2096 0e5f AC0E0000 		.4byte	0xeac
 2097 0e63 08       		.uleb128 0x8
 2098 0e64 E6050000 		.4byte	.LASF213
 2099 0e68 12       		.byte	0x12
 2100 0e69 6F       		.byte	0x6f
 2101 0e6a 2C000000 		.4byte	0x2c
 2102 0e6e 00       		.byte	0
 2103 0e6f 08       		.uleb128 0x8
 2104 0e70 2A050000 		.4byte	.LASF214
 2105 0e74 12       		.byte	0x12
 2106 0e75 73       		.byte	0x73
 2107 0e76 2C000000 		.4byte	0x2c
 2108 0e7a 04       		.byte	0x4
 2109 0e7b 08       		.uleb128 0x8
ARM GAS  /var/folders/t8/16hdwfmd2fg_d3q6dgx6bpmw0000gn/T//cc1hzQo4.s 			page 38


 2110 0e7c 75020000 		.4byte	.LASF215
 2111 0e80 12       		.byte	0x12
 2112 0e81 77       		.byte	0x77
 2113 0e82 EF0A0000 		.4byte	0xaef
 2114 0e86 08       		.byte	0x8
 2115 0e87 08       		.uleb128 0x8
 2116 0e88 61090000 		.4byte	.LASF216
 2117 0e8c 12       		.byte	0x12
 2118 0e8d 7C       		.byte	0x7c
 2119 0e8e 5A020000 		.4byte	0x25a
 2120 0e92 0C       		.byte	0xc
 2121 0e93 08       		.uleb128 0x8
 2122 0e94 38060000 		.4byte	.LASF217
 2123 0e98 12       		.byte	0x12
 2124 0e99 80       		.byte	0x80
 2125 0e9a FB0A0000 		.4byte	0xafb
 2126 0e9e 10       		.byte	0x10
 2127 0e9f 08       		.uleb128 0x8
 2128 0ea0 E7090000 		.4byte	.LASF218
 2129 0ea4 12       		.byte	0x12
 2130 0ea5 82       		.byte	0x82
 2131 0ea6 FB0A0000 		.4byte	0xafb
 2132 0eaa 11       		.byte	0x11
 2133 0eab 00       		.byte	0
 2134 0eac 03       		.uleb128 0x3
 2135 0ead 9A040000 		.4byte	.LASF219
 2136 0eb1 12       		.byte	0x12
 2137 0eb2 83       		.byte	0x83
 2138 0eb3 5B0E0000 		.4byte	0xe5b
 2139 0eb7 11       		.uleb128 0x11
 2140 0eb8 14       		.byte	0x14
 2141 0eb9 12       		.byte	0x12
 2142 0eba 88       		.byte	0x88
 2143 0ebb 140F0000 		.4byte	0xf14
 2144 0ebf 08       		.uleb128 0x8
 2145 0ec0 57030000 		.4byte	.LASF220
 2146 0ec4 12       		.byte	0x12
 2147 0ec5 8C       		.byte	0x8c
 2148 0ec6 2C000000 		.4byte	0x2c
 2149 0eca 00       		.byte	0
 2150 0ecb 08       		.uleb128 0x8
 2151 0ecc 36070000 		.4byte	.LASF221
 2152 0ed0 12       		.byte	0x12
 2153 0ed1 90       		.byte	0x90
 2154 0ed2 2C000000 		.4byte	0x2c
 2155 0ed6 04       		.byte	0x4
 2156 0ed7 08       		.uleb128 0x8
 2157 0ed8 46060000 		.4byte	.LASF222
 2158 0edc 12       		.byte	0x12
 2159 0edd 94       		.byte	0x94
 2160 0ede F50A0000 		.4byte	0xaf5
 2161 0ee2 08       		.byte	0x8
 2162 0ee3 08       		.uleb128 0x8
 2163 0ee4 61090000 		.4byte	.LASF216
 2164 0ee8 12       		.byte	0x12
 2165 0ee9 99       		.byte	0x99
 2166 0eea 5A020000 		.4byte	0x25a
ARM GAS  /var/folders/t8/16hdwfmd2fg_d3q6dgx6bpmw0000gn/T//cc1hzQo4.s 			page 39


 2167 0eee 0C       		.byte	0xc
 2168 0eef 08       		.uleb128 0x8
 2169 0ef0 6D0A0000 		.4byte	.LASF223
 2170 0ef4 12       		.byte	0x12
 2171 0ef5 9F       		.byte	0x9f
 2172 0ef6 C7000000 		.4byte	0xc7
 2173 0efa 10       		.byte	0x10
 2174 0efb 08       		.uleb128 0x8
 2175 0efc 38060000 		.4byte	.LASF217
 2176 0f00 12       		.byte	0x12
 2177 0f01 A1       		.byte	0xa1
 2178 0f02 FB0A0000 		.4byte	0xafb
 2179 0f06 12       		.byte	0x12
 2180 0f07 08       		.uleb128 0x8
 2181 0f08 E7090000 		.4byte	.LASF218
 2182 0f0c 12       		.byte	0x12
 2183 0f0d A3       		.byte	0xa3
 2184 0f0e FB0A0000 		.4byte	0xafb
 2185 0f12 13       		.byte	0x13
 2186 0f13 00       		.byte	0
 2187 0f14 03       		.uleb128 0x3
 2188 0f15 2E080000 		.4byte	.LASF224
 2189 0f19 12       		.byte	0x12
 2190 0f1a A4       		.byte	0xa4
 2191 0f1b B70E0000 		.4byte	0xeb7
 2192 0f1f 11       		.uleb128 0x11
 2193 0f20 24       		.byte	0x24
 2194 0f21 12       		.byte	0x12
 2195 0f22 AA       		.byte	0xaa
 2196 0f23 A00F0000 		.4byte	0xfa0
 2197 0f27 08       		.uleb128 0x8
 2198 0f28 CB000000 		.4byte	.LASF225
 2199 0f2c 12       		.byte	0x12
 2200 0f2d AE       		.byte	0xae
 2201 0f2e DD000000 		.4byte	0xdd
 2202 0f32 00       		.byte	0
 2203 0f33 08       		.uleb128 0x8
 2204 0f34 38040000 		.4byte	.LASF226
 2205 0f38 12       		.byte	0x12
 2206 0f39 B9       		.byte	0xb9
 2207 0f3a C00D0000 		.4byte	0xdc0
 2208 0f3e 04       		.byte	0x4
 2209 0f3f 08       		.uleb128 0x8
 2210 0f40 04080000 		.4byte	.LASF227
 2211 0f44 12       		.byte	0x12
 2212 0f45 BE       		.byte	0xbe
 2213 0f46 C00D0000 		.4byte	0xdc0
 2214 0f4a 08       		.byte	0x8
 2215 0f4b 08       		.uleb128 0x8
 2216 0f4c 1C070000 		.4byte	.LASF228
 2217 0f50 12       		.byte	0x12
 2218 0f51 C3       		.byte	0xc3
 2219 0f52 C00D0000 		.4byte	0xdc0
 2220 0f56 0C       		.byte	0xc
 2221 0f57 08       		.uleb128 0x8
 2222 0f58 3C070000 		.4byte	.LASF229
 2223 0f5c 12       		.byte	0x12
ARM GAS  /var/folders/t8/16hdwfmd2fg_d3q6dgx6bpmw0000gn/T//cc1hzQo4.s 			page 40


 2224 0f5d C8       		.byte	0xc8
 2225 0f5e C7000000 		.4byte	0xc7
 2226 0f62 10       		.byte	0x10
 2227 0f63 08       		.uleb128 0x8
 2228 0f64 E8080000 		.4byte	.LASF230
 2229 0f68 12       		.byte	0x12
 2230 0f69 CD       		.byte	0xcd
 2231 0f6a C7000000 		.4byte	0xc7
 2232 0f6e 12       		.byte	0x12
 2233 0f6f 08       		.uleb128 0x8
 2234 0f70 4C060000 		.4byte	.LASF231
 2235 0f74 12       		.byte	0x12
 2236 0f75 D3       		.byte	0xd3
 2237 0f76 A00F0000 		.4byte	0xfa0
 2238 0f7a 14       		.byte	0x14
 2239 0f7b 08       		.uleb128 0x8
 2240 0f7c 47070000 		.4byte	.LASF232
 2241 0f80 12       		.byte	0x12
 2242 0f81 D9       		.byte	0xd9
 2243 0f82 A60F0000 		.4byte	0xfa6
 2244 0f86 18       		.byte	0x18
 2245 0f87 08       		.uleb128 0x8
 2246 0f88 5A070000 		.4byte	.LASF233
 2247 0f8c 12       		.byte	0x12
 2248 0f8d DF       		.byte	0xdf
 2249 0f8e C7000000 		.4byte	0xc7
 2250 0f92 1C       		.byte	0x1c
 2251 0f93 08       		.uleb128 0x8
 2252 0f94 0A070000 		.4byte	.LASF234
 2253 0f98 12       		.byte	0x12
 2254 0f99 E5       		.byte	0xe5
 2255 0f9a F50A0000 		.4byte	0xaf5
 2256 0f9e 20       		.byte	0x20
 2257 0f9f 00       		.byte	0
 2258 0fa0 0C       		.uleb128 0xc
 2259 0fa1 04       		.byte	0x4
 2260 0fa2 AC0E0000 		.4byte	0xeac
 2261 0fa6 0C       		.uleb128 0xc
 2262 0fa7 04       		.byte	0x4
 2263 0fa8 140F0000 		.4byte	0xf14
 2264 0fac 03       		.uleb128 0x3
 2265 0fad 24090000 		.4byte	.LASF235
 2266 0fb1 12       		.byte	0x12
 2267 0fb2 E6       		.byte	0xe6
 2268 0fb3 1F0F0000 		.4byte	0xf1f
 2269 0fb7 06       		.uleb128 0x6
 2270 0fb8 AC0F0000 		.4byte	0xfac
 2271 0fbc 11       		.uleb128 0x11
 2272 0fbd 10       		.byte	0x10
 2273 0fbe 12       		.byte	0x12
 2274 0fbf EB       		.byte	0xeb
 2275 0fc0 F50F0000 		.4byte	0xff5
 2276 0fc4 08       		.uleb128 0x8
 2277 0fc5 71060000 		.4byte	.LASF236
 2278 0fc9 12       		.byte	0x12
 2279 0fca F0       		.byte	0xf0
 2280 0fcb E20D0000 		.4byte	0xde2
ARM GAS  /var/folders/t8/16hdwfmd2fg_d3q6dgx6bpmw0000gn/T//cc1hzQo4.s 			page 41


 2281 0fcf 00       		.byte	0
 2282 0fd0 08       		.uleb128 0x8
 2283 0fd1 A10A0000 		.4byte	.LASF237
 2284 0fd5 12       		.byte	0x12
 2285 0fd6 F5       		.byte	0xf5
 2286 0fd7 250E0000 		.4byte	0xe25
 2287 0fdb 04       		.byte	0x4
 2288 0fdc 08       		.uleb128 0x8
 2289 0fdd E2030000 		.4byte	.LASF238
 2290 0fe1 12       		.byte	0x12
 2291 0fe2 FB       		.byte	0xfb
 2292 0fe3 040E0000 		.4byte	0xe04
 2293 0fe7 08       		.byte	0x8
 2294 0fe8 08       		.uleb128 0x8
 2295 0fe9 450A0000 		.4byte	.LASF239
 2296 0fed 12       		.byte	0x12
 2297 0fee FF       		.byte	0xff
 2298 0fef 9D0D0000 		.4byte	0xd9d
 2299 0ff3 0C       		.byte	0xc
 2300 0ff4 00       		.byte	0
 2301 0ff5 1E       		.uleb128 0x1e
 2302 0ff6 00070000 		.4byte	.LASF240
 2303 0ffa 12       		.byte	0x12
 2304 0ffb 0101     		.2byte	0x101
 2305 0ffd BC0F0000 		.4byte	0xfbc
 2306 1001 06       		.uleb128 0x6
 2307 1002 F50F0000 		.4byte	0xff5
 2308 1006 0C       		.uleb128 0xc
 2309 1007 04       		.byte	0x4
 2310 1008 01100000 		.4byte	0x1001
 2311 100c 12       		.uleb128 0x12
 2312 100d 1C100000 		.4byte	0x101c
 2313 1011 1C100000 		.4byte	0x101c
 2314 1015 13       		.uleb128 0x13
 2315 1016 37000000 		.4byte	0x37
 2316 101a 0F       		.byte	0xf
 2317 101b 00       		.byte	0
 2318 101c 0C       		.uleb128 0xc
 2319 101d 04       		.byte	0x4
 2320 101e B70F0000 		.4byte	0xfb7
 2321 1022 12       		.uleb128 0x12
 2322 1023 42030000 		.4byte	0x342
 2323 1027 32100000 		.4byte	0x1032
 2324 102b 13       		.uleb128 0x13
 2325 102c 37000000 		.4byte	0x37
 2326 1030 0E       		.byte	0xe
 2327 1031 00       		.byte	0
 2328 1032 12       		.uleb128 0x12
 2329 1033 AD000000 		.4byte	0xad
 2330 1037 42100000 		.4byte	0x1042
 2331 103b 13       		.uleb128 0x13
 2332 103c 37000000 		.4byte	0x37
 2333 1040 07       		.byte	0x7
 2334 1041 00       		.byte	0
 2335 1042 1C       		.uleb128 0x1c
 2336 1043 0D0A0000 		.4byte	.LASF241
 2337 1047 12       		.byte	0x12
ARM GAS  /var/folders/t8/16hdwfmd2fg_d3q6dgx6bpmw0000gn/T//cc1hzQo4.s 			page 42


 2338 1048 9201     		.2byte	0x192
 2339 104a 9C0B0000 		.4byte	0xb9c
 2340 104e 12       		.uleb128 0x12
 2341 104f C2000000 		.4byte	0xc2
 2342 1053 5E100000 		.4byte	0x105e
 2343 1057 13       		.uleb128 0x13
 2344 1058 37000000 		.4byte	0x37
 2345 105c 0F       		.byte	0xf
 2346 105d 00       		.byte	0
 2347 105e 06       		.uleb128 0x6
 2348 105f 4E100000 		.4byte	0x104e
 2349 1063 23       		.uleb128 0x23
 2350 1064 30050000 		.4byte	.LASF242
 2351 1068 01       		.byte	0x1
 2352 1069 2D       		.byte	0x2d
 2353 106a 5E100000 		.4byte	0x105e
 2354 106e 05       		.uleb128 0x5
 2355 106f 03       		.byte	0x3
 2356 1070 00000000 		.4byte	_cfm
 2357 1074 24       		.uleb128 0x24
 2358 1075 F0070000 		.4byte	.LASF250
 2359 1079 01       		.byte	0x1
 2360 107a D401     		.2byte	0x1d4
 2361 107c 25       		.uleb128 0x25
 2362 107d 3A000000 		.4byte	.LASF251
 2363 1081 01       		.byte	0x1
 2364 1082 67       		.byte	0x67
 2365 1083 00000000 		.4byte	.LFB175
 2366 1087 14010000 		.4byte	.LFE175-.LFB175
 2367 108b 01       		.uleb128 0x1
 2368 108c 9C       		.byte	0x9c
 2369 108d DA100000 		.4byte	0x10da
 2370 1091 26       		.uleb128 0x26
 2371 1092 FF000000 		.4byte	.LASF243
 2372 1096 01       		.byte	0x1
 2373 1097 3201     		.2byte	0x132
 2374 1099 DD000000 		.4byte	0xdd
 2375 109d 0002     		.2byte	0x200
 2376 109f 27       		.uleb128 0x27
 2377 10a0 08000000 		.4byte	.LASF244
 2378 10a4 01       		.byte	0x1
 2379 10a5 3201     		.2byte	0x132
 2380 10a7 DD000000 		.4byte	0xdd
 2381 10ab 00000000 		.4byte	.LLST0
 2382 10af 28       		.uleb128 0x28
 2383 10b0 9A0A0000 		.4byte	.LASF245
 2384 10b4 01       		.byte	0x1
 2385 10b5 3301     		.2byte	0x133
 2386 10b7 DA100000 		.4byte	0x10da
 2387 10bb 02       		.uleb128 0x2
 2388 10bc 91       		.byte	0x91
 2389 10bd 50       		.sleb128 -48
 2390 10be 29       		.uleb128 0x29
 2391 10bf 2F030000 		.4byte	.LASF246
 2392 10c3 01       		.byte	0x1
 2393 10c4 3401     		.2byte	0x134
 2394 10c6 AD000000 		.4byte	0xad
ARM GAS  /var/folders/t8/16hdwfmd2fg_d3q6dgx6bpmw0000gn/T//cc1hzQo4.s 			page 43


 2395 10ca 08       		.byte	0x8
 2396 10cb 2A       		.uleb128 0x2a
 2397 10cc 6900     		.ascii	"i\000"
 2398 10ce 01       		.byte	0x1
 2399 10cf 3501     		.2byte	0x135
 2400 10d1 AD000000 		.4byte	0xad
 2401 10d5 24000000 		.4byte	.LLST1
 2402 10d9 00       		.byte	0
 2403 10da 12       		.uleb128 0x12
 2404 10db DD000000 		.4byte	0xdd
 2405 10df EA100000 		.4byte	0x10ea
 2406 10e3 13       		.uleb128 0x13
 2407 10e4 37000000 		.4byte	0x37
 2408 10e8 07       		.byte	0x7
 2409 10e9 00       		.byte	0
 2410 10ea 2B       		.uleb128 0x2b
 2411 10eb 3E030000 		.4byte	.LASF252
 2412 10ef 01       		.byte	0x1
 2413 10f0 5D       		.byte	0x5d
 2414 10f1 01       		.byte	0x1
 2415 10f2 2C       		.uleb128 0x2c
 2416 10f3 EA100000 		.4byte	0x10ea
 2417 10f7 00000000 		.4byte	.LFB174
 2418 10fb 02000000 		.4byte	.LFE174-.LFB174
 2419 10ff 01       		.uleb128 0x1
 2420 1100 9C       		.byte	0x9c
 2421 1101 00       		.byte	0
 2422              		.section	.debug_abbrev,"",%progbits
 2423              	.Ldebug_abbrev0:
 2424 0000 01       		.uleb128 0x1
 2425 0001 11       		.uleb128 0x11
 2426 0002 01       		.byte	0x1
 2427 0003 25       		.uleb128 0x25
 2428 0004 0E       		.uleb128 0xe
 2429 0005 13       		.uleb128 0x13
 2430 0006 0B       		.uleb128 0xb
 2431 0007 03       		.uleb128 0x3
 2432 0008 0E       		.uleb128 0xe
 2433 0009 1B       		.uleb128 0x1b
 2434 000a 0E       		.uleb128 0xe
 2435 000b 55       		.uleb128 0x55
 2436 000c 17       		.uleb128 0x17
 2437 000d 11       		.uleb128 0x11
 2438 000e 01       		.uleb128 0x1
 2439 000f 10       		.uleb128 0x10
 2440 0010 17       		.uleb128 0x17
 2441 0011 00       		.byte	0
 2442 0012 00       		.byte	0
 2443 0013 02       		.uleb128 0x2
 2444 0014 24       		.uleb128 0x24
 2445 0015 00       		.byte	0
 2446 0016 0B       		.uleb128 0xb
 2447 0017 0B       		.uleb128 0xb
 2448 0018 3E       		.uleb128 0x3e
 2449 0019 0B       		.uleb128 0xb
 2450 001a 03       		.uleb128 0x3
 2451 001b 08       		.uleb128 0x8
ARM GAS  /var/folders/t8/16hdwfmd2fg_d3q6dgx6bpmw0000gn/T//cc1hzQo4.s 			page 44


 2452 001c 00       		.byte	0
 2453 001d 00       		.byte	0
 2454 001e 03       		.uleb128 0x3
 2455 001f 16       		.uleb128 0x16
 2456 0020 00       		.byte	0
 2457 0021 03       		.uleb128 0x3
 2458 0022 0E       		.uleb128 0xe
 2459 0023 3A       		.uleb128 0x3a
 2460 0024 0B       		.uleb128 0xb
 2461 0025 3B       		.uleb128 0x3b
 2462 0026 0B       		.uleb128 0xb
 2463 0027 49       		.uleb128 0x49
 2464 0028 13       		.uleb128 0x13
 2465 0029 00       		.byte	0
 2466 002a 00       		.byte	0
 2467 002b 04       		.uleb128 0x4
 2468 002c 24       		.uleb128 0x24
 2469 002d 00       		.byte	0
 2470 002e 0B       		.uleb128 0xb
 2471 002f 0B       		.uleb128 0xb
 2472 0030 3E       		.uleb128 0x3e
 2473 0031 0B       		.uleb128 0xb
 2474 0032 03       		.uleb128 0x3
 2475 0033 0E       		.uleb128 0xe
 2476 0034 00       		.byte	0
 2477 0035 00       		.byte	0
 2478 0036 05       		.uleb128 0x5
 2479 0037 35       		.uleb128 0x35
 2480 0038 00       		.byte	0
 2481 0039 49       		.uleb128 0x49
 2482 003a 13       		.uleb128 0x13
 2483 003b 00       		.byte	0
 2484 003c 00       		.byte	0
 2485 003d 06       		.uleb128 0x6
 2486 003e 26       		.uleb128 0x26
 2487 003f 00       		.byte	0
 2488 0040 49       		.uleb128 0x49
 2489 0041 13       		.uleb128 0x13
 2490 0042 00       		.byte	0
 2491 0043 00       		.byte	0
 2492 0044 07       		.uleb128 0x7
 2493 0045 13       		.uleb128 0x13
 2494 0046 01       		.byte	0x1
 2495 0047 03       		.uleb128 0x3
 2496 0048 0E       		.uleb128 0xe
 2497 0049 0B       		.uleb128 0xb
 2498 004a 0B       		.uleb128 0xb
 2499 004b 3A       		.uleb128 0x3a
 2500 004c 0B       		.uleb128 0xb
 2501 004d 3B       		.uleb128 0x3b
 2502 004e 0B       		.uleb128 0xb
 2503 004f 01       		.uleb128 0x1
 2504 0050 13       		.uleb128 0x13
 2505 0051 00       		.byte	0
 2506 0052 00       		.byte	0
 2507 0053 08       		.uleb128 0x8
 2508 0054 0D       		.uleb128 0xd
ARM GAS  /var/folders/t8/16hdwfmd2fg_d3q6dgx6bpmw0000gn/T//cc1hzQo4.s 			page 45


 2509 0055 00       		.byte	0
 2510 0056 03       		.uleb128 0x3
 2511 0057 0E       		.uleb128 0xe
 2512 0058 3A       		.uleb128 0x3a
 2513 0059 0B       		.uleb128 0xb
 2514 005a 3B       		.uleb128 0x3b
 2515 005b 0B       		.uleb128 0xb
 2516 005c 49       		.uleb128 0x49
 2517 005d 13       		.uleb128 0x13
 2518 005e 38       		.uleb128 0x38
 2519 005f 0B       		.uleb128 0xb
 2520 0060 00       		.byte	0
 2521 0061 00       		.byte	0
 2522 0062 09       		.uleb128 0x9
 2523 0063 0D       		.uleb128 0xd
 2524 0064 00       		.byte	0
 2525 0065 03       		.uleb128 0x3
 2526 0066 08       		.uleb128 0x8
 2527 0067 3A       		.uleb128 0x3a
 2528 0068 0B       		.uleb128 0xb
 2529 0069 3B       		.uleb128 0x3b
 2530 006a 0B       		.uleb128 0xb
 2531 006b 49       		.uleb128 0x49
 2532 006c 13       		.uleb128 0x13
 2533 006d 38       		.uleb128 0x38
 2534 006e 0B       		.uleb128 0xb
 2535 006f 00       		.byte	0
 2536 0070 00       		.byte	0
 2537 0071 0A       		.uleb128 0xa
 2538 0072 0D       		.uleb128 0xd
 2539 0073 00       		.byte	0
 2540 0074 03       		.uleb128 0x3
 2541 0075 08       		.uleb128 0x8
 2542 0076 3A       		.uleb128 0x3a
 2543 0077 0B       		.uleb128 0xb
 2544 0078 3B       		.uleb128 0x3b
 2545 0079 05       		.uleb128 0x5
 2546 007a 49       		.uleb128 0x49
 2547 007b 13       		.uleb128 0x13
 2548 007c 38       		.uleb128 0x38
 2549 007d 0B       		.uleb128 0xb
 2550 007e 00       		.byte	0
 2551 007f 00       		.byte	0
 2552 0080 0B       		.uleb128 0xb
 2553 0081 0D       		.uleb128 0xd
 2554 0082 00       		.byte	0
 2555 0083 03       		.uleb128 0x3
 2556 0084 0E       		.uleb128 0xe
 2557 0085 3A       		.uleb128 0x3a
 2558 0086 0B       		.uleb128 0xb
 2559 0087 3B       		.uleb128 0x3b
 2560 0088 05       		.uleb128 0x5
 2561 0089 49       		.uleb128 0x49
 2562 008a 13       		.uleb128 0x13
 2563 008b 38       		.uleb128 0x38
 2564 008c 0B       		.uleb128 0xb
 2565 008d 00       		.byte	0
ARM GAS  /var/folders/t8/16hdwfmd2fg_d3q6dgx6bpmw0000gn/T//cc1hzQo4.s 			page 46


 2566 008e 00       		.byte	0
 2567 008f 0C       		.uleb128 0xc
 2568 0090 0F       		.uleb128 0xf
 2569 0091 00       		.byte	0
 2570 0092 0B       		.uleb128 0xb
 2571 0093 0B       		.uleb128 0xb
 2572 0094 49       		.uleb128 0x49
 2573 0095 13       		.uleb128 0x13
 2574 0096 00       		.byte	0
 2575 0097 00       		.byte	0
 2576 0098 0D       		.uleb128 0xd
 2577 0099 13       		.uleb128 0x13
 2578 009a 01       		.byte	0x1
 2579 009b 03       		.uleb128 0x3
 2580 009c 0E       		.uleb128 0xe
 2581 009d 0B       		.uleb128 0xb
 2582 009e 0B       		.uleb128 0xb
 2583 009f 3A       		.uleb128 0x3a
 2584 00a0 0B       		.uleb128 0xb
 2585 00a1 3B       		.uleb128 0x3b
 2586 00a2 05       		.uleb128 0x5
 2587 00a3 01       		.uleb128 0x1
 2588 00a4 13       		.uleb128 0x13
 2589 00a5 00       		.byte	0
 2590 00a6 00       		.byte	0
 2591 00a7 0E       		.uleb128 0xe
 2592 00a8 15       		.uleb128 0x15
 2593 00a9 01       		.byte	0x1
 2594 00aa 27       		.uleb128 0x27
 2595 00ab 19       		.uleb128 0x19
 2596 00ac 01       		.uleb128 0x1
 2597 00ad 13       		.uleb128 0x13
 2598 00ae 00       		.byte	0
 2599 00af 00       		.byte	0
 2600 00b0 0F       		.uleb128 0xf
 2601 00b1 05       		.uleb128 0x5
 2602 00b2 00       		.byte	0
 2603 00b3 49       		.uleb128 0x49
 2604 00b4 13       		.uleb128 0x13
 2605 00b5 00       		.byte	0
 2606 00b6 00       		.byte	0
 2607 00b7 10       		.uleb128 0x10
 2608 00b8 0F       		.uleb128 0xf
 2609 00b9 00       		.byte	0
 2610 00ba 0B       		.uleb128 0xb
 2611 00bb 0B       		.uleb128 0xb
 2612 00bc 00       		.byte	0
 2613 00bd 00       		.byte	0
 2614 00be 11       		.uleb128 0x11
 2615 00bf 13       		.uleb128 0x13
 2616 00c0 01       		.byte	0x1
 2617 00c1 0B       		.uleb128 0xb
 2618 00c2 0B       		.uleb128 0xb
 2619 00c3 3A       		.uleb128 0x3a
 2620 00c4 0B       		.uleb128 0xb
 2621 00c5 3B       		.uleb128 0x3b
 2622 00c6 0B       		.uleb128 0xb
ARM GAS  /var/folders/t8/16hdwfmd2fg_d3q6dgx6bpmw0000gn/T//cc1hzQo4.s 			page 47


 2623 00c7 01       		.uleb128 0x1
 2624 00c8 13       		.uleb128 0x13
 2625 00c9 00       		.byte	0
 2626 00ca 00       		.byte	0
 2627 00cb 12       		.uleb128 0x12
 2628 00cc 01       		.uleb128 0x1
 2629 00cd 01       		.byte	0x1
 2630 00ce 49       		.uleb128 0x49
 2631 00cf 13       		.uleb128 0x13
 2632 00d0 01       		.uleb128 0x1
 2633 00d1 13       		.uleb128 0x13
 2634 00d2 00       		.byte	0
 2635 00d3 00       		.byte	0
 2636 00d4 13       		.uleb128 0x13
 2637 00d5 21       		.uleb128 0x21
 2638 00d6 00       		.byte	0
 2639 00d7 49       		.uleb128 0x49
 2640 00d8 13       		.uleb128 0x13
 2641 00d9 2F       		.uleb128 0x2f
 2642 00da 0B       		.uleb128 0xb
 2643 00db 00       		.byte	0
 2644 00dc 00       		.byte	0
 2645 00dd 14       		.uleb128 0x14
 2646 00de 13       		.uleb128 0x13
 2647 00df 01       		.byte	0x1
 2648 00e0 0B       		.uleb128 0xb
 2649 00e1 05       		.uleb128 0x5
 2650 00e2 3A       		.uleb128 0x3a
 2651 00e3 0B       		.uleb128 0xb
 2652 00e4 3B       		.uleb128 0x3b
 2653 00e5 0B       		.uleb128 0xb
 2654 00e6 01       		.uleb128 0x1
 2655 00e7 13       		.uleb128 0x13
 2656 00e8 00       		.byte	0
 2657 00e9 00       		.byte	0
 2658 00ea 15       		.uleb128 0x15
 2659 00eb 0D       		.uleb128 0xd
 2660 00ec 00       		.byte	0
 2661 00ed 03       		.uleb128 0x3
 2662 00ee 0E       		.uleb128 0xe
 2663 00ef 3A       		.uleb128 0x3a
 2664 00f0 0B       		.uleb128 0xb
 2665 00f1 3B       		.uleb128 0x3b
 2666 00f2 0B       		.uleb128 0xb
 2667 00f3 49       		.uleb128 0x49
 2668 00f4 13       		.uleb128 0x13
 2669 00f5 38       		.uleb128 0x38
 2670 00f6 05       		.uleb128 0x5
 2671 00f7 00       		.byte	0
 2672 00f8 00       		.byte	0
 2673 00f9 16       		.uleb128 0x16
 2674 00fa 21       		.uleb128 0x21
 2675 00fb 00       		.byte	0
 2676 00fc 49       		.uleb128 0x49
 2677 00fd 13       		.uleb128 0x13
 2678 00fe 2F       		.uleb128 0x2f
 2679 00ff 05       		.uleb128 0x5
ARM GAS  /var/folders/t8/16hdwfmd2fg_d3q6dgx6bpmw0000gn/T//cc1hzQo4.s 			page 48


 2680 0100 00       		.byte	0
 2681 0101 00       		.byte	0
 2682 0102 17       		.uleb128 0x17
 2683 0103 17       		.uleb128 0x17
 2684 0104 01       		.byte	0x1
 2685 0105 0B       		.uleb128 0xb
 2686 0106 0B       		.uleb128 0xb
 2687 0107 3A       		.uleb128 0x3a
 2688 0108 0B       		.uleb128 0xb
 2689 0109 3B       		.uleb128 0x3b
 2690 010a 0B       		.uleb128 0xb
 2691 010b 01       		.uleb128 0x1
 2692 010c 13       		.uleb128 0x13
 2693 010d 00       		.byte	0
 2694 010e 00       		.byte	0
 2695 010f 18       		.uleb128 0x18
 2696 0110 0D       		.uleb128 0xd
 2697 0111 00       		.byte	0
 2698 0112 03       		.uleb128 0x3
 2699 0113 0E       		.uleb128 0xe
 2700 0114 3A       		.uleb128 0x3a
 2701 0115 0B       		.uleb128 0xb
 2702 0116 3B       		.uleb128 0x3b
 2703 0117 0B       		.uleb128 0xb
 2704 0118 49       		.uleb128 0x49
 2705 0119 13       		.uleb128 0x13
 2706 011a 00       		.byte	0
 2707 011b 00       		.byte	0
 2708 011c 19       		.uleb128 0x19
 2709 011d 0D       		.uleb128 0xd
 2710 011e 00       		.byte	0
 2711 011f 03       		.uleb128 0x3
 2712 0120 0E       		.uleb128 0xe
 2713 0121 3A       		.uleb128 0x3a
 2714 0122 0B       		.uleb128 0xb
 2715 0123 3B       		.uleb128 0x3b
 2716 0124 05       		.uleb128 0x5
 2717 0125 49       		.uleb128 0x49
 2718 0126 13       		.uleb128 0x13
 2719 0127 00       		.byte	0
 2720 0128 00       		.byte	0
 2721 0129 1A       		.uleb128 0x1a
 2722 012a 34       		.uleb128 0x34
 2723 012b 00       		.byte	0
 2724 012c 03       		.uleb128 0x3
 2725 012d 08       		.uleb128 0x8
 2726 012e 3A       		.uleb128 0x3a
 2727 012f 0B       		.uleb128 0xb
 2728 0130 3B       		.uleb128 0x3b
 2729 0131 05       		.uleb128 0x5
 2730 0132 49       		.uleb128 0x49
 2731 0133 13       		.uleb128 0x13
 2732 0134 3F       		.uleb128 0x3f
 2733 0135 19       		.uleb128 0x19
 2734 0136 3C       		.uleb128 0x3c
 2735 0137 19       		.uleb128 0x19
 2736 0138 00       		.byte	0
ARM GAS  /var/folders/t8/16hdwfmd2fg_d3q6dgx6bpmw0000gn/T//cc1hzQo4.s 			page 49


 2737 0139 00       		.byte	0
 2738 013a 1B       		.uleb128 0x1b
 2739 013b 21       		.uleb128 0x21
 2740 013c 00       		.byte	0
 2741 013d 00       		.byte	0
 2742 013e 00       		.byte	0
 2743 013f 1C       		.uleb128 0x1c
 2744 0140 34       		.uleb128 0x34
 2745 0141 00       		.byte	0
 2746 0142 03       		.uleb128 0x3
 2747 0143 0E       		.uleb128 0xe
 2748 0144 3A       		.uleb128 0x3a
 2749 0145 0B       		.uleb128 0xb
 2750 0146 3B       		.uleb128 0x3b
 2751 0147 05       		.uleb128 0x5
 2752 0148 49       		.uleb128 0x49
 2753 0149 13       		.uleb128 0x13
 2754 014a 3F       		.uleb128 0x3f
 2755 014b 19       		.uleb128 0x19
 2756 014c 3C       		.uleb128 0x3c
 2757 014d 19       		.uleb128 0x19
 2758 014e 00       		.byte	0
 2759 014f 00       		.byte	0
 2760 0150 1D       		.uleb128 0x1d
 2761 0151 34       		.uleb128 0x34
 2762 0152 00       		.byte	0
 2763 0153 03       		.uleb128 0x3
 2764 0154 0E       		.uleb128 0xe
 2765 0155 3A       		.uleb128 0x3a
 2766 0156 0B       		.uleb128 0xb
 2767 0157 3B       		.uleb128 0x3b
 2768 0158 0B       		.uleb128 0xb
 2769 0159 49       		.uleb128 0x49
 2770 015a 13       		.uleb128 0x13
 2771 015b 3F       		.uleb128 0x3f
 2772 015c 19       		.uleb128 0x19
 2773 015d 3C       		.uleb128 0x3c
 2774 015e 19       		.uleb128 0x19
 2775 015f 00       		.byte	0
 2776 0160 00       		.byte	0
 2777 0161 1E       		.uleb128 0x1e
 2778 0162 16       		.uleb128 0x16
 2779 0163 00       		.byte	0
 2780 0164 03       		.uleb128 0x3
 2781 0165 0E       		.uleb128 0xe
 2782 0166 3A       		.uleb128 0x3a
 2783 0167 0B       		.uleb128 0xb
 2784 0168 3B       		.uleb128 0x3b
 2785 0169 05       		.uleb128 0x5
 2786 016a 49       		.uleb128 0x49
 2787 016b 13       		.uleb128 0x13
 2788 016c 00       		.byte	0
 2789 016d 00       		.byte	0
 2790 016e 1F       		.uleb128 0x1f
 2791 016f 04       		.uleb128 0x4
 2792 0170 01       		.byte	0x1
 2793 0171 3E       		.uleb128 0x3e
ARM GAS  /var/folders/t8/16hdwfmd2fg_d3q6dgx6bpmw0000gn/T//cc1hzQo4.s 			page 50


 2794 0172 0B       		.uleb128 0xb
 2795 0173 0B       		.uleb128 0xb
 2796 0174 0B       		.uleb128 0xb
 2797 0175 49       		.uleb128 0x49
 2798 0176 13       		.uleb128 0x13
 2799 0177 3A       		.uleb128 0x3a
 2800 0178 0B       		.uleb128 0xb
 2801 0179 3B       		.uleb128 0x3b
 2802 017a 05       		.uleb128 0x5
 2803 017b 01       		.uleb128 0x1
 2804 017c 13       		.uleb128 0x13
 2805 017d 00       		.byte	0
 2806 017e 00       		.byte	0
 2807 017f 20       		.uleb128 0x20
 2808 0180 28       		.uleb128 0x28
 2809 0181 00       		.byte	0
 2810 0182 03       		.uleb128 0x3
 2811 0183 0E       		.uleb128 0xe
 2812 0184 1C       		.uleb128 0x1c
 2813 0185 0B       		.uleb128 0xb
 2814 0186 00       		.byte	0
 2815 0187 00       		.byte	0
 2816 0188 21       		.uleb128 0x21
 2817 0189 13       		.uleb128 0x13
 2818 018a 01       		.byte	0x1
 2819 018b 0B       		.uleb128 0xb
 2820 018c 0B       		.uleb128 0xb
 2821 018d 3A       		.uleb128 0x3a
 2822 018e 0B       		.uleb128 0xb
 2823 018f 3B       		.uleb128 0x3b
 2824 0190 05       		.uleb128 0x5
 2825 0191 01       		.uleb128 0x1
 2826 0192 13       		.uleb128 0x13
 2827 0193 00       		.byte	0
 2828 0194 00       		.byte	0
 2829 0195 22       		.uleb128 0x22
 2830 0196 15       		.uleb128 0x15
 2831 0197 01       		.byte	0x1
 2832 0198 27       		.uleb128 0x27
 2833 0199 19       		.uleb128 0x19
 2834 019a 49       		.uleb128 0x49
 2835 019b 13       		.uleb128 0x13
 2836 019c 01       		.uleb128 0x1
 2837 019d 13       		.uleb128 0x13
 2838 019e 00       		.byte	0
 2839 019f 00       		.byte	0
 2840 01a0 23       		.uleb128 0x23
 2841 01a1 34       		.uleb128 0x34
 2842 01a2 00       		.byte	0
 2843 01a3 03       		.uleb128 0x3
 2844 01a4 0E       		.uleb128 0xe
 2845 01a5 3A       		.uleb128 0x3a
 2846 01a6 0B       		.uleb128 0xb
 2847 01a7 3B       		.uleb128 0x3b
 2848 01a8 0B       		.uleb128 0xb
 2849 01a9 49       		.uleb128 0x49
 2850 01aa 13       		.uleb128 0x13
ARM GAS  /var/folders/t8/16hdwfmd2fg_d3q6dgx6bpmw0000gn/T//cc1hzQo4.s 			page 51


 2851 01ab 3F       		.uleb128 0x3f
 2852 01ac 19       		.uleb128 0x19
 2853 01ad 02       		.uleb128 0x2
 2854 01ae 18       		.uleb128 0x18
 2855 01af 00       		.byte	0
 2856 01b0 00       		.byte	0
 2857 01b1 24       		.uleb128 0x24
 2858 01b2 2E       		.uleb128 0x2e
 2859 01b3 00       		.byte	0
 2860 01b4 3F       		.uleb128 0x3f
 2861 01b5 19       		.uleb128 0x19
 2862 01b6 03       		.uleb128 0x3
 2863 01b7 0E       		.uleb128 0xe
 2864 01b8 3A       		.uleb128 0x3a
 2865 01b9 0B       		.uleb128 0xb
 2866 01ba 3B       		.uleb128 0x3b
 2867 01bb 05       		.uleb128 0x5
 2868 01bc 27       		.uleb128 0x27
 2869 01bd 19       		.uleb128 0x19
 2870 01be 00       		.byte	0
 2871 01bf 00       		.byte	0
 2872 01c0 25       		.uleb128 0x25
 2873 01c1 2E       		.uleb128 0x2e
 2874 01c2 01       		.byte	0x1
 2875 01c3 3F       		.uleb128 0x3f
 2876 01c4 19       		.uleb128 0x19
 2877 01c5 03       		.uleb128 0x3
 2878 01c6 0E       		.uleb128 0xe
 2879 01c7 3A       		.uleb128 0x3a
 2880 01c8 0B       		.uleb128 0xb
 2881 01c9 3B       		.uleb128 0x3b
 2882 01ca 0B       		.uleb128 0xb
 2883 01cb 27       		.uleb128 0x27
 2884 01cc 19       		.uleb128 0x19
 2885 01cd 11       		.uleb128 0x11
 2886 01ce 01       		.uleb128 0x1
 2887 01cf 12       		.uleb128 0x12
 2888 01d0 06       		.uleb128 0x6
 2889 01d1 40       		.uleb128 0x40
 2890 01d2 18       		.uleb128 0x18
 2891 01d3 9742     		.uleb128 0x2117
 2892 01d5 19       		.uleb128 0x19
 2893 01d6 01       		.uleb128 0x1
 2894 01d7 13       		.uleb128 0x13
 2895 01d8 00       		.byte	0
 2896 01d9 00       		.byte	0
 2897 01da 26       		.uleb128 0x26
 2898 01db 34       		.uleb128 0x34
 2899 01dc 00       		.byte	0
 2900 01dd 03       		.uleb128 0x3
 2901 01de 0E       		.uleb128 0xe
 2902 01df 3A       		.uleb128 0x3a
 2903 01e0 0B       		.uleb128 0xb
 2904 01e1 3B       		.uleb128 0x3b
 2905 01e2 05       		.uleb128 0x5
 2906 01e3 49       		.uleb128 0x49
 2907 01e4 13       		.uleb128 0x13
ARM GAS  /var/folders/t8/16hdwfmd2fg_d3q6dgx6bpmw0000gn/T//cc1hzQo4.s 			page 52


 2908 01e5 1C       		.uleb128 0x1c
 2909 01e6 05       		.uleb128 0x5
 2910 01e7 00       		.byte	0
 2911 01e8 00       		.byte	0
 2912 01e9 27       		.uleb128 0x27
 2913 01ea 34       		.uleb128 0x34
 2914 01eb 00       		.byte	0
 2915 01ec 03       		.uleb128 0x3
 2916 01ed 0E       		.uleb128 0xe
 2917 01ee 3A       		.uleb128 0x3a
 2918 01ef 0B       		.uleb128 0xb
 2919 01f0 3B       		.uleb128 0x3b
 2920 01f1 05       		.uleb128 0x5
 2921 01f2 49       		.uleb128 0x49
 2922 01f3 13       		.uleb128 0x13
 2923 01f4 02       		.uleb128 0x2
 2924 01f5 17       		.uleb128 0x17
 2925 01f6 00       		.byte	0
 2926 01f7 00       		.byte	0
 2927 01f8 28       		.uleb128 0x28
 2928 01f9 34       		.uleb128 0x34
 2929 01fa 00       		.byte	0
 2930 01fb 03       		.uleb128 0x3
 2931 01fc 0E       		.uleb128 0xe
 2932 01fd 3A       		.uleb128 0x3a
 2933 01fe 0B       		.uleb128 0xb
 2934 01ff 3B       		.uleb128 0x3b
 2935 0200 05       		.uleb128 0x5
 2936 0201 49       		.uleb128 0x49
 2937 0202 13       		.uleb128 0x13
 2938 0203 02       		.uleb128 0x2
 2939 0204 18       		.uleb128 0x18
 2940 0205 00       		.byte	0
 2941 0206 00       		.byte	0
 2942 0207 29       		.uleb128 0x29
 2943 0208 34       		.uleb128 0x34
 2944 0209 00       		.byte	0
 2945 020a 03       		.uleb128 0x3
 2946 020b 0E       		.uleb128 0xe
 2947 020c 3A       		.uleb128 0x3a
 2948 020d 0B       		.uleb128 0xb
 2949 020e 3B       		.uleb128 0x3b
 2950 020f 05       		.uleb128 0x5
 2951 0210 49       		.uleb128 0x49
 2952 0211 13       		.uleb128 0x13
 2953 0212 1C       		.uleb128 0x1c
 2954 0213 0B       		.uleb128 0xb
 2955 0214 00       		.byte	0
 2956 0215 00       		.byte	0
 2957 0216 2A       		.uleb128 0x2a
 2958 0217 34       		.uleb128 0x34
 2959 0218 00       		.byte	0
 2960 0219 03       		.uleb128 0x3
 2961 021a 08       		.uleb128 0x8
 2962 021b 3A       		.uleb128 0x3a
 2963 021c 0B       		.uleb128 0xb
 2964 021d 3B       		.uleb128 0x3b
ARM GAS  /var/folders/t8/16hdwfmd2fg_d3q6dgx6bpmw0000gn/T//cc1hzQo4.s 			page 53


 2965 021e 05       		.uleb128 0x5
 2966 021f 49       		.uleb128 0x49
 2967 0220 13       		.uleb128 0x13
 2968 0221 02       		.uleb128 0x2
 2969 0222 17       		.uleb128 0x17
 2970 0223 00       		.byte	0
 2971 0224 00       		.byte	0
 2972 0225 2B       		.uleb128 0x2b
 2973 0226 2E       		.uleb128 0x2e
 2974 0227 00       		.byte	0
 2975 0228 3F       		.uleb128 0x3f
 2976 0229 19       		.uleb128 0x19
 2977 022a 03       		.uleb128 0x3
 2978 022b 0E       		.uleb128 0xe
 2979 022c 3A       		.uleb128 0x3a
 2980 022d 0B       		.uleb128 0xb
 2981 022e 3B       		.uleb128 0x3b
 2982 022f 0B       		.uleb128 0xb
 2983 0230 27       		.uleb128 0x27
 2984 0231 19       		.uleb128 0x19
 2985 0232 20       		.uleb128 0x20
 2986 0233 0B       		.uleb128 0xb
 2987 0234 00       		.byte	0
 2988 0235 00       		.byte	0
 2989 0236 2C       		.uleb128 0x2c
 2990 0237 2E       		.uleb128 0x2e
 2991 0238 00       		.byte	0
 2992 0239 31       		.uleb128 0x31
 2993 023a 13       		.uleb128 0x13
 2994 023b 11       		.uleb128 0x11
 2995 023c 01       		.uleb128 0x1
 2996 023d 12       		.uleb128 0x12
 2997 023e 06       		.uleb128 0x6
 2998 023f 40       		.uleb128 0x40
 2999 0240 18       		.uleb128 0x18
 3000 0241 9742     		.uleb128 0x2117
 3001 0243 19       		.uleb128 0x19
 3002 0244 00       		.byte	0
 3003 0245 00       		.byte	0
 3004 0246 00       		.byte	0
 3005              		.section	.debug_loc,"",%progbits
 3006              	.Ldebug_loc0:
 3007              	.LLST0:
 3008 0000 58000000 		.4byte	.LVL1
 3009 0004 6A000000 		.4byte	.LVL5
 3010 0008 0200     		.2byte	0x2
 3011 000a 37       		.byte	0x37
 3012 000b 9F       		.byte	0x9f
 3013 000c D6000000 		.4byte	.LVL7
 3014 0010 DA000000 		.4byte	.LVL8
 3015 0014 0600     		.2byte	0x6
 3016 0016 73       		.byte	0x73
 3017 0017 00       		.sleb128 0
 3018 0018 08       		.byte	0x8
 3019 0019 FF       		.byte	0xff
 3020 001a 1A       		.byte	0x1a
 3021 001b 9F       		.byte	0x9f
ARM GAS  /var/folders/t8/16hdwfmd2fg_d3q6dgx6bpmw0000gn/T//cc1hzQo4.s 			page 54


 3022 001c 00000000 		.4byte	0
 3023 0020 00000000 		.4byte	0
 3024              	.LLST1:
 3025 0024 58000000 		.4byte	.LVL1
 3026 0028 5A000000 		.4byte	.LVL2
 3027 002c 0200     		.2byte	0x2
 3028 002e 30       		.byte	0x30
 3029 002f 9F       		.byte	0x9f
 3030 0030 5A000000 		.4byte	.LVL2
 3031 0034 62000000 		.4byte	.LVL3
 3032 0038 0100     		.2byte	0x1
 3033 003a 53       		.byte	0x53
 3034 003b 62000000 		.4byte	.LVL3
 3035 003f 64000000 		.4byte	.LVL4
 3036 0043 0300     		.2byte	0x3
 3037 0045 73       		.byte	0x73
 3038 0046 01       		.sleb128 1
 3039 0047 9F       		.byte	0x9f
 3040 0048 9C000000 		.4byte	.LVL6
 3041 004c D6000000 		.4byte	.LVL7
 3042 0050 0200     		.2byte	0x2
 3043 0052 48       		.byte	0x48
 3044 0053 9F       		.byte	0x9f
 3045 0054 D6000000 		.4byte	.LVL7
 3046 0058 DA000000 		.4byte	.LVL8
 3047 005c 0100     		.2byte	0x1
 3048 005e 53       		.byte	0x53
 3049 005f 00000000 		.4byte	0
 3050 0063 00000000 		.4byte	0
 3051              		.section	.debug_aranges,"",%progbits
 3052 0000 24000000 		.4byte	0x24
 3053 0004 0200     		.2byte	0x2
 3054 0006 00000000 		.4byte	.Ldebug_info0
 3055 000a 04       		.byte	0x4
 3056 000b 00       		.byte	0
 3057 000c 0000     		.2byte	0
 3058 000e 0000     		.2byte	0
 3059 0010 00000000 		.4byte	.LFB174
 3060 0014 02000000 		.4byte	.LFE174-.LFB174
 3061 0018 00000000 		.4byte	.LFB175
 3062 001c 14010000 		.4byte	.LFE175-.LFB175
 3063 0020 00000000 		.4byte	0
 3064 0024 00000000 		.4byte	0
 3065              		.section	.debug_ranges,"",%progbits
 3066              	.Ldebug_ranges0:
 3067 0000 00000000 		.4byte	.LFB174
 3068 0004 02000000 		.4byte	.LFE174
 3069 0008 00000000 		.4byte	.LFB175
 3070 000c 14010000 		.4byte	.LFE175
 3071 0010 00000000 		.4byte	0
 3072 0014 00000000 		.4byte	0
 3073              		.section	.debug_line,"",%progbits
 3074              	.Ldebug_line0:
 3075 0000 C4040000 		.section	.debug_str,"MS",%progbits,1
 3075      02002504 
 3075      00000201 
 3075      FB0E0D00 
ARM GAS  /var/folders/t8/16hdwfmd2fg_d3q6dgx6bpmw0000gn/T//cc1hzQo4.s 			page 55


 3075      01010101 
 3076              	.LASF143:
 3077 0000 6F66665F 		.ascii	"off_ctx\000"
 3077      63747800 
 3078              	.LASF244:
 3079 0008 66726469 		.ascii	"frdiv\000"
 3079      7600
 3080              	.LASF2:
 3081 000e 73697A65 		.ascii	"size_t\000"
 3081      5F7400
 3082              	.LASF142:
 3083 0015 6F66665F 		.ascii	"off_prio\000"
 3083      7072696F 
 3083      00
 3084              	.LASF106:
 3085 001e 4750434C 		.ascii	"GPCLR\000"
 3085      5200
 3086              	.LASF28:
 3087 0024 73797374 		.ascii	"systime_t\000"
 3087      696D655F 
 3087      7400
 3088              	.LASF151:
 3089 002e 6F66665F 		.ascii	"off_preempt\000"
 3089      70726565 
 3089      6D707400 
 3090              	.LASF251:
 3091 003a 6B6C3278 		.ascii	"kl2x_clock_init\000"
 3091      5F636C6F 
 3091      636B5F69 
 3091      6E697400 
 3092              	.LASF132:
 3093 004a 6F776E65 		.ascii	"owner\000"
 3093      7200
 3094              	.LASF24:
 3095 0050 74707269 		.ascii	"tprio_t\000"
 3095      6F5F7400 
 3096              	.LASF96:
 3097 0058 46434647 		.ascii	"FCFG1\000"
 3097      3100
 3098              	.LASF97:
 3099 005e 46434647 		.ascii	"FCFG2\000"
 3099      3200
 3100              	.LASF198:
 3101 0064 5553425F 		.ascii	"USB_EVENT_ADDRESS\000"
 3101      4556454E 
 3101      545F4144 
 3101      44524553 
 3101      5300
 3102              	.LASF114:
 3103 0076 50544F52 		.ascii	"PTOR\000"
 3103      00
 3104              	.LASF17:
 3105 007b 696E7433 		.ascii	"int32_t\000"
 3105      325F7400 
 3106              	.LASF154:
 3107 0083 63685F64 		.ascii	"ch_debug\000"
 3107      65627567 
ARM GAS  /var/folders/t8/16hdwfmd2fg_d3q6dgx6bpmw0000gn/T//cc1hzQo4.s 			page 56


 3107      00
 3108              	.LASF57:
 3109 008c 76746675 		.ascii	"vtfunc_t\000"
 3109      6E635F74 
 3109      00
 3110              	.LASF63:
 3111 0095 63685F76 		.ascii	"ch_virtual_timers_list\000"
 3111      69727475 
 3111      616C5F74 
 3111      696D6572 
 3111      735F6C69 
 3112              	.LASF104:
 3113 00ac 53525643 		.ascii	"SRVCOP\000"
 3113      4F5000
 3114              	.LASF190:
 3115 00b3 5553425F 		.ascii	"USB_EP0_TX\000"
 3115      4550305F 
 3115      545800
 3116              	.LASF166:
 3117 00be 636F6E66 		.ascii	"config\000"
 3117      696700
 3118              	.LASF36:
 3119 00c5 73746174 		.ascii	"state\000"
 3119      6500
 3120              	.LASF225:
 3121 00cb 65705F6D 		.ascii	"ep_mode\000"
 3121      6F646500 
 3122              	.LASF69:
 3123 00d3 6C6F636B 		.ascii	"lock_cnt\000"
 3123      5F636E74 
 3123      00
 3124              	.LASF90:
 3125 00dc 53434743 		.ascii	"SCGC4\000"
 3125      3400
 3126              	.LASF91:
 3127 00e2 53434743 		.ascii	"SCGC5\000"
 3127      3500
 3128              	.LASF92:
 3129 00e8 53434743 		.ascii	"SCGC6\000"
 3129      3600
 3130              	.LASF93:
 3131 00ee 53434743 		.ascii	"SCGC7\000"
 3131      3700
 3132              	.LASF186:
 3133 00f4 5553425F 		.ascii	"USB_ACTIVE\000"
 3133      41435449 
 3133      564500
 3134              	.LASF243:
 3135 00ff 72617469 		.ascii	"ratio\000"
 3135      6F00
 3136              	.LASF145:
 3137 0105 6F66665F 		.ascii	"off_older\000"
 3137      6F6C6465 
 3137      7200
 3138              	.LASF31:
 3139 010f 7072696F 		.ascii	"prio\000"
 3139      00
ARM GAS  /var/folders/t8/16hdwfmd2fg_d3q6dgx6bpmw0000gn/T//cc1hzQo4.s 			page 57


 3140              	.LASF157:
 3141 0114 696F6D6F 		.ascii	"iomode_t\000"
 3141      64655F74 
 3141      00
 3142              	.LASF88:
 3143 011d 53444944 		.ascii	"SDID\000"
 3143      00
 3144              	.LASF123:
 3145 0122 65786974 		.ascii	"exitcode\000"
 3145      636F6465 
 3145      00
 3146              	.LASF196:
 3147 012b 75736265 		.ascii	"usbep0state_t\000"
 3147      70307374 
 3147      6174655F 
 3147      7400
 3148              	.LASF3:
 3149 0139 5F5F7569 		.ascii	"__uint8_t\000"
 3149      6E74385F 
 3149      7400
 3150              	.LASF162:
 3151 0143 706F7274 		.ascii	"ports\000"
 3151      7300
 3152              	.LASF64:
 3153 0149 73797374 		.ascii	"systime\000"
 3153      696D6500 
 3154              	.LASF9:
 3155 0151 6C6F6E67 		.ascii	"long int\000"
 3155      20696E74 
 3155      00
 3156              	.LASF136:
 3157 015a 7A65726F 		.ascii	"zero\000"
 3157      00
 3158              	.LASF158:
 3159 015f 696F706F 		.ascii	"ioportid_t\000"
 3159      72746964 
 3159      5F7400
 3160              	.LASF21:
 3161 016a 74737461 		.ascii	"tstate_t\000"
 3161      74655F74 
 3161      00
 3162              	.LASF42:
 3163 0173 6570656E 		.ascii	"epending\000"
 3163      64696E67 
 3163      00
 3164              	.LASF247:
 3165 017c 474E5520 		.ascii	"GNU C99 7.2.1 20170904 (release) [ARM/embedded-7-br"
 3165      43393920 
 3165      372E322E 
 3165      31203230 
 3165      31373039 
 3166 01af 616E6368 		.ascii	"anch revision 255204] -mcpu=cortex-m0plus -mno-thum"
 3166      20726576 
 3166      6973696F 
 3166      6E203235 
 3166      35323034 
 3167 01e2 622D696E 		.ascii	"b-interwork -mthumb -ggdb -O2 -std=gnu99 -fomit-fra"
ARM GAS  /var/folders/t8/16hdwfmd2fg_d3q6dgx6bpmw0000gn/T//cc1hzQo4.s 			page 58


 3167      74657277 
 3167      6F726B20 
 3167      2D6D7468 
 3167      756D6220 
 3168 0215 6D652D70 		.ascii	"me-pointer -falign-functions=16 -ffunction-sections"
 3168      6F696E74 
 3168      6572202D 
 3168      66616C69 
 3168      676E2D66 
 3169 0248 202D6664 		.ascii	" -fdata-sections -fno-common\000"
 3169      6174612D 
 3169      73656374 
 3169      696F6E73 
 3169      202D666E 
 3170              	.LASF51:
 3171 0265 74687265 		.ascii	"threads_queue_t\000"
 3171      6164735F 
 3171      71756575 
 3171      655F7400 
 3172              	.LASF215:
 3173 0275 74786275 		.ascii	"txbuf\000"
 3173      6600
 3174              	.LASF118:
 3175 027b 72656761 		.ascii	"regarm_t\000"
 3175      726D5F74 
 3175      00
 3176              	.LASF249:
 3177 0284 2F557365 		.ascii	"/Users/jpablobr/tmp/tmk/di0ib-tmk_keyboard/keyboard"
 3177      72732F6A 
 3177      7061626C 
 3177      6F62722F 
 3177      746D702F 
 3178 02b7 2F746565 		.ascii	"/teensy_lc_menelaus\000"
 3178      6E73795F 
 3178      6C635F6D 
 3178      656E656C 
 3178      61757300 
 3179              	.LASF189:
 3180 02cb 5553425F 		.ascii	"USB_EP0_WAITING_SETUP\000"
 3180      4550305F 
 3180      57414954 
 3180      494E475F 
 3180      53455455 
 3181              	.LASF187:
 3182 02e1 5553425F 		.ascii	"USB_SUSPENDED\000"
 3182      53555350 
 3182      454E4445 
 3182      4400
 3183              	.LASF164:
 3184 02ef 70616C5F 		.ascii	"pal_default_config\000"
 3184      64656661 
 3184      756C745F 
 3184      636F6E66 
 3184      696700
 3185              	.LASF1:
 3186 0302 7369676E 		.ascii	"signed char\000"
 3186      65642063 
ARM GAS  /var/folders/t8/16hdwfmd2fg_d3q6dgx6bpmw0000gn/T//cc1hzQo4.s 			page 59


 3186      68617200 
 3187              	.LASF129:
 3188 030e 65776D61 		.ascii	"ewmask\000"
 3188      736B00
 3189              	.LASF15:
 3190 0315 75696E74 		.ascii	"uint8_t\000"
 3190      385F7400 
 3191              	.LASF203:
 3192 031d 5553425F 		.ascii	"USB_EVENT_STALLED\000"
 3192      4556454E 
 3192      545F5354 
 3192      414C4C45 
 3192      4400
 3193              	.LASF246:
 3194 032f 72617469 		.ascii	"ratio_quantity\000"
 3194      6F5F7175 
 3194      616E7469 
 3194      747900
 3195              	.LASF252:
 3196 033e 68616C5F 		.ascii	"hal_lld_init\000"
 3196      6C6C645F 
 3196      696E6974 
 3196      00
 3197              	.LASF26:
 3198 034b 6576656E 		.ascii	"eventmask_t\000"
 3198      746D6173 
 3198      6B5F7400 
 3199              	.LASF220:
 3200 0357 72787369 		.ascii	"rxsize\000"
 3200      7A6500
 3201              	.LASF125:
 3202 035e 77747472 		.ascii	"wttrp\000"
 3202      7000
 3203              	.LASF75:
 3204 0364 52455345 		.ascii	"RESERVED0\000"
 3204      52564544 
 3204      3000
 3205              	.LASF76:
 3206 036e 52455345 		.ascii	"RESERVED1\000"
 3206      52564544 
 3206      3100
 3207              	.LASF4:
 3208 0378 756E7369 		.ascii	"unsigned char\000"
 3208      676E6564 
 3208      20636861 
 3208      7200
 3209              	.LASF87:
 3210 0386 52455345 		.ascii	"RESERVED3\000"
 3210      52564544 
 3210      3300
 3211              	.LASF89:
 3212 0390 52455345 		.ascii	"RESERVED4\000"
 3212      52564544 
 3212      3400
 3213              	.LASF95:
 3214 039a 52455345 		.ascii	"RESERVED5\000"
 3214      52564544 
ARM GAS  /var/folders/t8/16hdwfmd2fg_d3q6dgx6bpmw0000gn/T//cc1hzQo4.s 			page 60


 3214      3500
 3215              	.LASF98:
 3216 03a4 52455345 		.ascii	"RESERVED6\000"
 3216      52564544 
 3216      3600
 3217              	.LASF102:
 3218 03ae 52455345 		.ascii	"RESERVED7\000"
 3218      52564544 
 3218      3700
 3219              	.LASF67:
 3220 03b8 70616E69 		.ascii	"panic_msg\000"
 3220      635F6D73 
 3220      6700
 3221              	.LASF171:
 3222 03c2 65703073 		.ascii	"ep0state\000"
 3222      74617465 
 3222      00
 3223              	.LASF94:
 3224 03cb 434C4B44 		.ascii	"CLKDIV1\000"
 3224      49563100 
 3225              	.LASF65:
 3226 03d3 73797374 		.ascii	"system_debug_t\000"
 3226      656D5F64 
 3226      65627567 
 3226      5F7400
 3227              	.LASF238:
 3228 03e2 72657175 		.ascii	"requests_hook_cb\000"
 3228      65737473 
 3228      5F686F6F 
 3228      6B5F6362 
 3228      00
 3229              	.LASF156:
 3230 03f3 5F426F6F 		.ascii	"_Bool\000"
 3230      6C00
 3231              	.LASF85:
 3232 03f9 52455345 		.ascii	"RESERVED2\000"
 3232      52564544 
 3232      3200
 3233              	.LASF133:
 3234 0403 63686172 		.ascii	"char\000"
 3234      00
 3235              	.LASF173:
 3236 0408 6570306E 		.ascii	"ep0n\000"
 3236      00
 3237              	.LASF168:
 3238 040d 72656365 		.ascii	"receiving\000"
 3238      6976696E 
 3238      6700
 3239              	.LASF6:
 3240 0417 5F5F7569 		.ascii	"__uint16_t\000"
 3240      6E743136 
 3240      5F7400
 3241              	.LASF165:
 3242 0422 55534244 		.ascii	"USBDriver\000"
 3242      72697665 
 3242      7200
 3243              	.LASF77:
ARM GAS  /var/folders/t8/16hdwfmd2fg_d3q6dgx6bpmw0000gn/T//cc1hzQo4.s 			page 61


 3244 042c 41544356 		.ascii	"ATCVH\000"
 3244      4800
 3245              	.LASF78:
 3246 0432 41544356 		.ascii	"ATCVL\000"
 3246      4C00
 3247              	.LASF226:
 3248 0438 73657475 		.ascii	"setup_cb\000"
 3248      705F6362 
 3248      00
 3249              	.LASF206:
 3250 0441 75645F73 		.ascii	"ud_string\000"
 3250      7472696E 
 3250      6700
 3251              	.LASF150:
 3252 044b 6F66665F 		.ascii	"off_refs\000"
 3252      72656673 
 3252      00
 3253              	.LASF37:
 3254 0454 666C6167 		.ascii	"flags\000"
 3254      7300
 3255              	.LASF109:
 3256 045a 504F5254 		.ascii	"PORT_TypeDef\000"
 3256      5F547970 
 3256      65446566 
 3256      00
 3257              	.LASF119:
 3258 0467 73746B61 		.ascii	"stkalign_t\000"
 3258      6C69676E 
 3258      5F7400
 3259              	.LASF45:
 3260 0472 6D706F6F 		.ascii	"mpool\000"
 3260      6C00
 3261              	.LASF210:
 3262 0478 75736265 		.ascii	"usbeventcb_t\000"
 3262      76656E74 
 3262      63625F74 
 3262      00
 3263              	.LASF139:
 3264 0485 70747273 		.ascii	"ptrsize\000"
 3264      697A6500 
 3265              	.LASF167:
 3266 048d 7472616E 		.ascii	"transmitting\000"
 3266      736D6974 
 3266      74696E67 
 3266      00
 3267              	.LASF219:
 3268 049a 55534249 		.ascii	"USBInEndpointState\000"
 3268      6E456E64 
 3268      706F696E 
 3268      74537461 
 3268      746500
 3269              	.LASF110:
 3270 04ad 4F53435F 		.ascii	"OSC_TypeDef\000"
 3270      54797065 
 3270      44656600 
 3271              	.LASF152:
 3272 04b9 6F66665F 		.ascii	"off_time\000"
ARM GAS  /var/folders/t8/16hdwfmd2fg_d3q6dgx6bpmw0000gn/T//cc1hzQo4.s 			page 62


 3272      74696D65 
 3272      00
 3273              	.LASF27:
 3274 04c2 636E745F 		.ascii	"cnt_t\000"
 3274      7400
 3275              	.LASF207:
 3276 04c8 55534244 		.ascii	"USBDescriptor\000"
 3276      65736372 
 3276      6970746F 
 3276      7200
 3277              	.LASF175:
 3278 04d6 73657475 		.ascii	"setup\000"
 3278      7000
 3279              	.LASF128:
 3280 04dc 77746D74 		.ascii	"wtmtxp\000"
 3280      787000
 3281              	.LASF204:
 3282 04e3 75736265 		.ascii	"usbevent_t\000"
 3282      76656E74 
 3282      5F7400
 3283              	.LASF55:
 3284 04ee 63685F72 		.ascii	"ch_ready_list\000"
 3284      65616479 
 3284      5F6C6973 
 3284      7400
 3285              	.LASF205:
 3286 04fc 75645F73 		.ascii	"ud_size\000"
 3286      697A6500 
 3287              	.LASF185:
 3288 0504 5553425F 		.ascii	"USB_SELECTED\000"
 3288      53454C45 
 3288      43544544 
 3288      00
 3289              	.LASF178:
 3290 0511 636F6E66 		.ascii	"configuration\000"
 3290      69677572 
 3290      6174696F 
 3290      6E00
 3291              	.LASF161:
 3292 051f 506F7274 		.ascii	"PortConfig\000"
 3292      436F6E66 
 3292      696700
 3293              	.LASF214:
 3294 052a 7478636E 		.ascii	"txcnt\000"
 3294      7400
 3295              	.LASF242:
 3296 0530 5F63666D 		.ascii	"_cfm\000"
 3296      00
 3297              	.LASF13:
 3298 0535 5F5F7569 		.ascii	"__uint64_t\000"
 3298      6E743634 
 3298      5F7400
 3299              	.LASF148:
 3300 0540 6F66665F 		.ascii	"off_state\000"
 3300      73746174 
 3300      6500
 3301              	.LASF11:
ARM GAS  /var/folders/t8/16hdwfmd2fg_d3q6dgx6bpmw0000gn/T//cc1hzQo4.s 			page 63


 3302 054a 6C6F6E67 		.ascii	"long unsigned int\000"
 3302      20756E73 
 3302      69676E65 
 3302      6420696E 
 3302      7400
 3303              	.LASF141:
 3304 055c 74687265 		.ascii	"threadsize\000"
 3304      61647369 
 3304      7A6500
 3305              	.LASF176:
 3306 0567 73746174 		.ascii	"status\000"
 3306      757300
 3307              	.LASF177:
 3308 056e 61646472 		.ascii	"address\000"
 3308      65737300 
 3309              	.LASF130:
 3310 0576 63685F73 		.ascii	"ch_semaphore\000"
 3310      656D6170 
 3310      686F7265 
 3310      00
 3311              	.LASF174:
 3312 0583 65703065 		.ascii	"ep0endcb\000"
 3312      6E646362 
 3312      00
 3313              	.LASF48:
 3314 058c 63685F74 		.ascii	"ch_thread\000"
 3314      68726561 
 3314      6400
 3315              	.LASF62:
 3316 0596 76697274 		.ascii	"virtual_timers_list_t\000"
 3316      75616C5F 
 3316      74696D65 
 3316      72735F6C 
 3316      6973745F 
 3317              	.LASF134:
 3318 05ac 63685F69 		.ascii	"ch_idle_thread_wa\000"
 3318      646C655F 
 3318      74687265 
 3318      61645F77 
 3318      6100
 3319              	.LASF116:
 3320 05be 50444452 		.ascii	"PDDR\000"
 3320      00
 3321              	.LASF58:
 3322 05c3 76697274 		.ascii	"virtual_timer_t\000"
 3322      75616C5F 
 3322      74696D65 
 3322      725F7400 
 3323              	.LASF54:
 3324 05d3 72656164 		.ascii	"ready_list_t\000"
 3324      795F6C69 
 3324      73745F74 
 3324      00
 3325              	.LASF33:
 3326 05e0 6F6C6465 		.ascii	"older\000"
 3326      7200
 3327              	.LASF213:
ARM GAS  /var/folders/t8/16hdwfmd2fg_d3q6dgx6bpmw0000gn/T//cc1hzQo4.s 			page 64


 3328 05e6 74787369 		.ascii	"txsize\000"
 3328      7A6500
 3329              	.LASF44:
 3330 05ed 7265616C 		.ascii	"realprio\000"
 3330      7072696F 
 3330      00
 3331              	.LASF147:
 3332 05f6 6F66665F 		.ascii	"off_stklimit\000"
 3332      73746B6C 
 3332      696D6974 
 3332      00
 3333              	.LASF188:
 3334 0603 75736273 		.ascii	"usbstate_t\000"
 3334      74617465 
 3334      5F7400
 3335              	.LASF49:
 3336 060e 63685F74 		.ascii	"ch_threads_list\000"
 3336      68726561 
 3336      64735F6C 
 3336      69737400 
 3337              	.LASF195:
 3338 061e 5553425F 		.ascii	"USB_EP0_ERROR\000"
 3338      4550305F 
 3338      4552524F 
 3338      5200
 3339              	.LASF79:
 3340 062c 4D43475F 		.ascii	"MCG_TypeDef\000"
 3340      54797065 
 3340      44656600 
 3341              	.LASF217:
 3342 0638 6F64645F 		.ascii	"odd_even\000"
 3342      6576656E 
 3342      00
 3343              	.LASF103:
 3344 0641 434F5043 		.ascii	"COPC\000"
 3344      00
 3345              	.LASF222:
 3346 0646 72786275 		.ascii	"rxbuf\000"
 3346      6600
 3347              	.LASF231:
 3348 064c 696E5F73 		.ascii	"in_state\000"
 3348      74617465 
 3348      00
 3349              	.LASF202:
 3350 0655 5553425F 		.ascii	"USB_EVENT_WAKEUP\000"
 3350      4556454E 
 3350      545F5741 
 3350      4B455550 
 3350      00
 3351              	.LASF10:
 3352 0666 5F5F7569 		.ascii	"__uint32_t\000"
 3352      6E743332 
 3352      5F7400
 3353              	.LASF236:
 3354 0671 6576656E 		.ascii	"event_cb\000"
 3354      745F6362 
 3354      00
ARM GAS  /var/folders/t8/16hdwfmd2fg_d3q6dgx6bpmw0000gn/T//cc1hzQo4.s 			page 65


 3355              	.LASF43:
 3356 067a 6D74786C 		.ascii	"mtxlist\000"
 3356      69737400 
 3357              	.LASF12:
 3358 0682 6C6F6E67 		.ascii	"long long int\000"
 3358      206C6F6E 
 3358      6720696E 
 3358      7400
 3359              	.LASF184:
 3360 0690 5553425F 		.ascii	"USB_READY\000"
 3360      52454144 
 3360      5900
 3361              	.LASF172:
 3362 069a 6570306E 		.ascii	"ep0next\000"
 3362      65787400 
 3363              	.LASF80:
 3364 06a2 534F5054 		.ascii	"SOPT1\000"
 3364      3100
 3365              	.LASF82:
 3366 06a8 534F5054 		.ascii	"SOPT2\000"
 3366      3200
 3367              	.LASF83:
 3368 06ae 534F5054 		.ascii	"SOPT4\000"
 3368      3400
 3369              	.LASF84:
 3370 06b4 534F5054 		.ascii	"SOPT5\000"
 3370      3500
 3371              	.LASF86:
 3372 06ba 534F5054 		.ascii	"SOPT7\000"
 3372      3700
 3373              	.LASF160:
 3374 06c0 70616473 		.ascii	"pads\000"
 3374      00
 3375              	.LASF39:
 3376 06c5 70726565 		.ascii	"preempt\000"
 3376      6D707400 
 3377              	.LASF209:
 3378 06cd 75736265 		.ascii	"usbepcallback_t\000"
 3378      7063616C 
 3378      6C626163 
 3378      6B5F7400 
 3379              	.LASF99:
 3380 06dd 5549444D 		.ascii	"UIDMH\000"
 3380      4800
 3381              	.LASF100:
 3382 06e3 5549444D 		.ascii	"UIDML\000"
 3382      4C00
 3383              	.LASF144:
 3384 06e9 6F66665F 		.ascii	"off_newer\000"
 3384      6E657765 
 3384      7200
 3385              	.LASF0:
 3386 06f3 756E7369 		.ascii	"unsigned int\000"
 3386      676E6564 
 3386      20696E74 
 3386      00
 3387              	.LASF240:
ARM GAS  /var/folders/t8/16hdwfmd2fg_d3q6dgx6bpmw0000gn/T//cc1hzQo4.s 			page 66


 3388 0700 55534243 		.ascii	"USBConfig\000"
 3388      6F6E6669 
 3388      6700
 3389              	.LASF234:
 3390 070a 73657475 		.ascii	"setup_buf\000"
 3390      705F6275 
 3390      6600
 3391              	.LASF56:
 3392 0714 63757272 		.ascii	"current\000"
 3392      656E7400 
 3393              	.LASF228:
 3394 071c 6F75745F 		.ascii	"out_cb\000"
 3394      636200
 3395              	.LASF113:
 3396 0723 50434F52 		.ascii	"PCOR\000"
 3396      00
 3397              	.LASF115:
 3398 0728 50444952 		.ascii	"PDIR\000"
 3398      00
 3399              	.LASF183:
 3400 072d 5553425F 		.ascii	"USB_STOP\000"
 3400      53544F50 
 3400      00
 3401              	.LASF221:
 3402 0736 7278636E 		.ascii	"rxcnt\000"
 3402      7400
 3403              	.LASF229:
 3404 073c 696E5F6D 		.ascii	"in_maxsize\000"
 3404      61787369 
 3404      7A6500
 3405              	.LASF232:
 3406 0747 6F75745F 		.ascii	"out_state\000"
 3406      73746174 
 3406      6500
 3407              	.LASF29:
 3408 0751 74687265 		.ascii	"thread_t\000"
 3408      61645F74 
 3408      00
 3409              	.LASF233:
 3410 075a 65705F62 		.ascii	"ep_buffers\000"
 3410      75666665 
 3410      727300
 3411              	.LASF248:
 3412 0765 2E2E2F2E 		.ascii	"../../tmk_core/tool/chibios/ChibiOS-Contrib/os/hal/"
 3412      2E2F746D 
 3412      6B5F636F 
 3412      72652F74 
 3412      6F6F6C2F 
 3413 0798 706F7274 		.ascii	"ports/KINETIS/KL2x/hal_lld.c\000"
 3413      732F4B49 
 3413      4E455449 
 3413      532F4B4C 
 3413      32782F68 
 3414              	.LASF46:
 3415 07b5 74687265 		.ascii	"thread_reference_t\000"
 3415      61645F72 
 3415      65666572 
ARM GAS  /var/folders/t8/16hdwfmd2fg_d3q6dgx6bpmw0000gn/T//cc1hzQo4.s 			page 67


 3415      656E6365 
 3415      5F7400
 3416              	.LASF126:
 3417 07c8 73656E74 		.ascii	"sentmsg\000"
 3417      6D736700 
 3418              	.LASF191:
 3419 07d0 5553425F 		.ascii	"USB_EP0_WAITING_TX0\000"
 3419      4550305F 
 3419      57414954 
 3419      494E475F 
 3419      54583000 
 3420              	.LASF121:
 3421 07e4 706F7274 		.ascii	"port_intctx\000"
 3421      5F696E74 
 3421      63747800 
 3422              	.LASF250:
 3423 07f0 706C6174 		.ascii	"platform_early_init\000"
 3423      666F726D 
 3423      5F656172 
 3423      6C795F69 
 3423      6E697400 
 3424              	.LASF227:
 3425 0804 696E5F63 		.ascii	"in_cb\000"
 3425      6200
 3426              	.LASF68:
 3427 080a 6973725F 		.ascii	"isr_cnt\000"
 3427      636E7400 
 3428              	.LASF182:
 3429 0812 5553425F 		.ascii	"USB_UNINIT\000"
 3429      554E494E 
 3429      495400
 3430              	.LASF59:
 3431 081d 63685F76 		.ascii	"ch_virtual_timer\000"
 3431      69727475 
 3431      616C5F74 
 3431      696D6572 
 3431      00
 3432              	.LASF224:
 3433 082e 5553424F 		.ascii	"USBOutEndpointState\000"
 3433      7574456E 
 3433      64706F69 
 3433      6E745374 
 3433      61746500 
 3434              	.LASF137:
 3435 0842 73697A65 		.ascii	"size\000"
 3435      00
 3436              	.LASF14:
 3437 0847 6C6F6E67 		.ascii	"long long unsigned int\000"
 3437      206C6F6E 
 3437      6720756E 
 3437      7369676E 
 3437      65642069 
 3438              	.LASF16:
 3439 085e 75696E74 		.ascii	"uint16_t\000"
 3439      31365F74 
 3439      00
 3440              	.LASF146:
ARM GAS  /var/folders/t8/16hdwfmd2fg_d3q6dgx6bpmw0000gn/T//cc1hzQo4.s 			page 68


 3441 0867 6F66665F 		.ascii	"off_name\000"
 3441      6E616D65 
 3441      00
 3442              	.LASF25:
 3443 0870 6D73675F 		.ascii	"msg_t\000"
 3443      7400
 3444              	.LASF52:
 3445 0876 63685F74 		.ascii	"ch_threads_queue\000"
 3445      68726561 
 3445      64735F71 
 3445      75657565 
 3445      00
 3446              	.LASF23:
 3447 0887 74736C69 		.ascii	"tslices_t\000"
 3447      6365735F 
 3447      7400
 3448              	.LASF179:
 3449 0891 73617665 		.ascii	"saved_state\000"
 3449      645F7374 
 3449      61746500 
 3450              	.LASF60:
 3451 089d 64656C74 		.ascii	"delta\000"
 3451      6100
 3452              	.LASF197:
 3453 08a3 5553425F 		.ascii	"USB_EVENT_RESET\000"
 3453      4556454E 
 3453      545F5245 
 3453      53455400 
 3454              	.LASF38:
 3455 08b3 72656673 		.ascii	"refs\000"
 3455      00
 3456              	.LASF30:
 3457 08b8 71756575 		.ascii	"queue\000"
 3457      6500
 3458              	.LASF74:
 3459 08be 6D61696E 		.ascii	"mainthread\000"
 3459      74687265 
 3459      616400
 3460              	.LASF138:
 3461 08c9 76657273 		.ascii	"version\000"
 3461      696F6E00 
 3462              	.LASF200:
 3463 08d1 5553425F 		.ascii	"USB_EVENT_UNCONFIGURED\000"
 3463      4556454E 
 3463      545F554E 
 3463      434F4E46 
 3463      49475552 
 3464              	.LASF230:
 3465 08e8 6F75745F 		.ascii	"out_maxsize\000"
 3465      6D617873 
 3465      697A6500 
 3466              	.LASF35:
 3467 08f4 77616261 		.ascii	"wabase\000"
 3467      736500
 3468              	.LASF199:
 3469 08fb 5553425F 		.ascii	"USB_EVENT_CONFIGURED\000"
 3469      4556454E 
ARM GAS  /var/folders/t8/16hdwfmd2fg_d3q6dgx6bpmw0000gn/T//cc1hzQo4.s 			page 69


 3469      545F434F 
 3469      4E464947 
 3469      55524544 
 3470              	.LASF194:
 3471 0910 5553425F 		.ascii	"USB_EP0_SENDING_STS\000"
 3471      4550305F 
 3471      53454E44 
 3471      494E475F 
 3471      53545300 
 3472              	.LASF235:
 3473 0924 55534245 		.ascii	"USBEndpointConfig\000"
 3473      6E64706F 
 3473      696E7443 
 3473      6F6E6669 
 3473      6700
 3474              	.LASF72:
 3475 0936 726C6973 		.ascii	"rlist\000"
 3475      7400
 3476              	.LASF20:
 3477 093c 746D6F64 		.ascii	"tmode_t\000"
 3477      655F7400 
 3478              	.LASF212:
 3479 0944 75736267 		.ascii	"usbgetdescriptor_t\000"
 3479      65746465 
 3479      73637269 
 3479      70746F72 
 3479      5F7400
 3480              	.LASF169:
 3481 0957 696E5F70 		.ascii	"in_params\000"
 3481      6172616D 
 3481      7300
 3482              	.LASF216:
 3483 0961 74687265 		.ascii	"thread\000"
 3483      616400
 3484              	.LASF34:
 3485 0968 6E616D65 		.ascii	"name\000"
 3485      00
 3486              	.LASF159:
 3487 096d 706F7274 		.ascii	"port\000"
 3487      00
 3488              	.LASF111:
 3489 0972 50444F52 		.ascii	"PDOR\000"
 3489      00
 3490              	.LASF5:
 3491 0977 73686F72 		.ascii	"short int\000"
 3491      7420696E 
 3491      7400
 3492              	.LASF19:
 3493 0981 75696E74 		.ascii	"uint64_t\000"
 3493      36345F74 
 3493      00
 3494              	.LASF61:
 3495 098a 66756E63 		.ascii	"func\000"
 3495      00
 3496              	.LASF131:
 3497 098f 63685F6D 		.ascii	"ch_mutex\000"
 3497      75746578 
ARM GAS  /var/folders/t8/16hdwfmd2fg_d3q6dgx6bpmw0000gn/T//cc1hzQo4.s 			page 70


 3497      00
 3498              	.LASF112:
 3499 0998 50534F52 		.ascii	"PSOR\000"
 3499      00
 3500              	.LASF41:
 3501 099d 6D736771 		.ascii	"msgqueue\000"
 3501      75657565 
 3501      00
 3502              	.LASF66:
 3503 09a6 63685F73 		.ascii	"ch_system_debug\000"
 3503      79737465 
 3503      6D5F6465 
 3503      62756700 
 3504              	.LASF211:
 3505 09b6 75736272 		.ascii	"usbreqhandler_t\000"
 3505      65716861 
 3505      6E646C65 
 3505      725F7400 
 3506              	.LASF81:
 3507 09c6 534F5054 		.ascii	"SOPT1CFG\000"
 3507      31434647 
 3507      00
 3508              	.LASF163:
 3509 09cf 50414C43 		.ascii	"PALConfig\000"
 3509      6F6E6669 
 3509      6700
 3510              	.LASF208:
 3511 09d9 75736263 		.ascii	"usbcallback_t\000"
 3511      616C6C62 
 3511      61636B5F 
 3511      7400
 3512              	.LASF218:
 3513 09e7 64617461 		.ascii	"data_bank\000"
 3513      5F62616E 
 3513      6B00
 3514              	.LASF117:
 3515 09f1 4750494F 		.ascii	"GPIO_TypeDef\000"
 3515      5F547970 
 3515      65446566 
 3515      00
 3516              	.LASF73:
 3517 09fe 76746C69 		.ascii	"vtlist\000"
 3517      737400
 3518              	.LASF40:
 3519 0a05 77616974 		.ascii	"waiting\000"
 3519      696E6700 
 3520              	.LASF241:
 3521 0a0d 55534244 		.ascii	"USBD1\000"
 3521      3100
 3522              	.LASF155:
 3523 0a13 6D757465 		.ascii	"mutex_t\000"
 3523      785F7400 
 3524              	.LASF22:
 3525 0a1b 74726566 		.ascii	"trefs_t\000"
 3525      735F7400 
 3526              	.LASF107:
 3527 0a23 47504348 		.ascii	"GPCHR\000"
ARM GAS  /var/folders/t8/16hdwfmd2fg_d3q6dgx6bpmw0000gn/T//cc1hzQo4.s 			page 71


 3527      5200
 3528              	.LASF120:
 3529 0a29 706F7274 		.ascii	"port_context\000"
 3529      5F636F6E 
 3529      74657874 
 3529      00
 3530              	.LASF47:
 3531 0a36 74687265 		.ascii	"threads_list_t\000"
 3531      6164735F 
 3531      6C697374 
 3531      5F7400
 3532              	.LASF239:
 3533 0a45 736F665F 		.ascii	"sof_cb\000"
 3533      636200
 3534              	.LASF71:
 3535 0a4c 63685F73 		.ascii	"ch_system\000"
 3535      79737465 
 3535      6D00
 3536              	.LASF32:
 3537 0a56 6E657765 		.ascii	"newer\000"
 3537      7200
 3538              	.LASF18:
 3539 0a5c 75696E74 		.ascii	"uint32_t\000"
 3539      33325F74 
 3539      00
 3540              	.LASF181:
 3541 0a65 75736265 		.ascii	"usbep_t\000"
 3541      705F7400 
 3542              	.LASF223:
 3543 0a6d 7278706B 		.ascii	"rxpkts\000"
 3543      747300
 3544              	.LASF105:
 3545 0a74 53494D5F 		.ascii	"SIM_TypeDef\000"
 3545      54797065 
 3545      44656600 
 3546              	.LASF122:
 3547 0a80 7264796D 		.ascii	"rdymsg\000"
 3547      736700
 3548              	.LASF7:
 3549 0a87 73686F72 		.ascii	"short unsigned int\000"
 3549      7420756E 
 3549      7369676E 
 3549      65642069 
 3549      6E7400
 3550              	.LASF245:
 3551 0a9a 72617469 		.ascii	"ratios\000"
 3551      6F7300
 3552              	.LASF237:
 3553 0aa1 6765745F 		.ascii	"get_descriptor_cb\000"
 3553      64657363 
 3553      72697074 
 3553      6F725F63 
 3553      6200
 3554              	.LASF70:
 3555 0ab3 63685F73 		.ascii	"ch_system_t\000"
 3555      79737465 
 3555      6D5F7400 
ARM GAS  /var/folders/t8/16hdwfmd2fg_d3q6dgx6bpmw0000gn/T//cc1hzQo4.s 			page 72


 3556              	.LASF153:
 3557 0abf 63686465 		.ascii	"chdebug_t\000"
 3557      6275675F 
 3557      7400
 3558              	.LASF201:
 3559 0ac9 5553425F 		.ascii	"USB_EVENT_SUSPEND\000"
 3559      4556454E 
 3559      545F5355 
 3559      5350454E 
 3559      4400
 3560              	.LASF170:
 3561 0adb 6F75745F 		.ascii	"out_params\000"
 3561      70617261 
 3561      6D7300
 3562              	.LASF140:
 3563 0ae6 74696D65 		.ascii	"timesize\000"
 3563      73697A65 
 3563      00
 3564              	.LASF8:
 3565 0aef 5F5F696E 		.ascii	"__int32_t\000"
 3565      7433325F 
 3565      7400
 3566              	.LASF124:
 3567 0af9 77746F62 		.ascii	"wtobjp\000"
 3567      6A7000
 3568              	.LASF149:
 3569 0b00 6F66665F 		.ascii	"off_flags\000"
 3569      666C6167 
 3569      7300
 3570              	.LASF192:
 3571 0b0a 5553425F 		.ascii	"USB_EP0_WAITING_STS\000"
 3571      4550305F 
 3571      57414954 
 3571      494E475F 
 3571      53545300 
 3572              	.LASF101:
 3573 0b1e 5549444C 		.ascii	"UIDL\000"
 3573      00
 3574              	.LASF50:
 3575 0b23 6E657874 		.ascii	"next\000"
 3575      00
 3576              	.LASF180:
 3577 0b28 706D6E65 		.ascii	"pmnext\000"
 3577      787400
 3578              	.LASF53:
 3579 0b2f 70726576 		.ascii	"prev\000"
 3579      00
 3580              	.LASF135:
 3581 0b34 6964656E 		.ascii	"identifier\000"
 3581      74696669 
 3581      657200
 3582              	.LASF193:
 3583 0b3f 5553425F 		.ascii	"USB_EP0_RX\000"
 3583      4550305F 
 3583      525800
 3584              	.LASF127:
 3585 0b4a 77747365 		.ascii	"wtsemp\000"
ARM GAS  /var/folders/t8/16hdwfmd2fg_d3q6dgx6bpmw0000gn/T//cc1hzQo4.s 			page 73


 3585      6D7000
 3586              	.LASF108:
 3587 0b51 49534652 		.ascii	"ISFR\000"
 3587      00
 3588              		.ident	"GCC: (GNU Tools for Arm Embedded Processors 7-2017-q4-major) 7.2.1 20170904 (release) [ARM
ARM GAS  /var/folders/t8/16hdwfmd2fg_d3q6dgx6bpmw0000gn/T//cc1hzQo4.s 			page 74


DEFINED SYMBOLS
                            *ABS*:0000000000000000 hal_lld.c
/var/folders/t8/16hdwfmd2fg_d3q6dgx6bpmw0000gn/T//cc1hzQo4.s:16     .text.hal_lld_init:0000000000000000 $t
/var/folders/t8/16hdwfmd2fg_d3q6dgx6bpmw0000gn/T//cc1hzQo4.s:24     .text.hal_lld_init:0000000000000000 hal_lld_init
/var/folders/t8/16hdwfmd2fg_d3q6dgx6bpmw0000gn/T//cc1hzQo4.s:39     .text.kl2x_clock_init:0000000000000000 $t
/var/folders/t8/16hdwfmd2fg_d3q6dgx6bpmw0000gn/T//cc1hzQo4.s:47     .text.kl2x_clock_init:0000000000000000 kl2x_clock_init
/var/folders/t8/16hdwfmd2fg_d3q6dgx6bpmw0000gn/T//cc1hzQo4.s:238    .text.kl2x_clock_init:00000000000000e4 $d
/var/folders/t8/16hdwfmd2fg_d3q6dgx6bpmw0000gn/T//cc1hzQo4.s:254    .text.platform_early_init:0000000000000000 $t
/var/folders/t8/16hdwfmd2fg_d3q6dgx6bpmw0000gn/T//cc1hzQo4.s:262    .text.platform_early_init:0000000000000000 platform_early_init
/var/folders/t8/16hdwfmd2fg_d3q6dgx6bpmw0000gn/T//cc1hzQo4.s:290    .cfmconfig:0000000000000000 _cfm
/var/folders/t8/16hdwfmd2fg_d3q6dgx6bpmw0000gn/T//cc1hzQo4.s:275    .rodata:0000000000000000 $d
/var/folders/t8/16hdwfmd2fg_d3q6dgx6bpmw0000gn/T//cc1hzQo4.s:287    .cfmconfig:0000000000000000 $d

NO UNDEFINED SYMBOLS
