ARM GAS  /var/folders/t8/16hdwfmd2fg_d3q6dgx6bpmw0000gn/T//cc1hzQo4.s 			page 1


   1              		.cpu cortex-m0plus
   2              		.eabi_attribute 20, 1
   3              		.eabi_attribute 21, 1
   4              		.eabi_attribute 23, 3
   5              		.eabi_attribute 24, 1
   6              		.eabi_attribute 25, 1
   7              		.eabi_attribute 26, 1
   8              		.eabi_attribute 30, 2
   9              		.eabi_attribute 34, 0
  10              		.eabi_attribute 18, 4
  11              		.file	"hal_lld.c"
  12              		.text
  13              	.Ltext0:
  14              		.cfi_sections	.debug_frame
  15              		.section	.text.hal_lld_init,"ax",%progbits
  16              		.align	1
  17              		.p2align 4,,15
  18              		.global	hal_lld_init
  19              		.syntax unified
  20              		.code	16
  21              		.thumb_func
  22              		.fpu softvfp
  23              		.type	hal_lld_init, %function
  24              	hal_lld_init:
  25              	.LFB174:
  26              		.file 1 "../../tmk_core/tool/chibios/ChibiOS-Contrib/os/hal/ports/KINETIS/KL2x/hal_lld.c"
  27              		.loc 1 93 0
  28              		.cfi_startproc
  29              		@ args = 0, pretend = 0, frame = 0
  30              		@ frame_needed = 0, uses_anonymous_args = 0
  31              		@ link register save eliminated.
  32              		.loc 1 94 0
  33              		@ sp needed
  34 0000 7047     		bx	lr
  35              		.cfi_endproc
  36              	.LFE174:
  37              		.size	hal_lld_init, .-hal_lld_init
  38 0002 C046     		.section	.text.kl2x_clock_init,"ax",%progbits
  39              		.align	1
  40              		.p2align 4,,15
  41              		.global	kl2x_clock_init
  42              		.syntax unified
  43              		.code	16
  44              		.thumb_func
  45              		.fpu softvfp
  46              		.type	kl2x_clock_init, %function
  47              	kl2x_clock_init:
  48              	.LFB175:
  49              		.loc 1 103 0
  50              		.cfi_startproc
  51              		@ args = 0, pretend = 0, frame = 32
  52              		@ frame_needed = 0, uses_anonymous_args = 0
  53              		.loc 1 107 0
  54 0000 8822     		movs	r2, #136
  55 0002 0021     		movs	r1, #0
  56              		.loc 1 110 0
  57 0004 8020     		movs	r0, #128
ARM GAS  /var/folders/t8/16hdwfmd2fg_d3q6dgx6bpmw0000gn/T//cc1hzQo4.s 			page 2


  58              		.loc 1 107 0
  59 0006 374B     		ldr	r3, .L24
  60 0008 5201     		lsls	r2, r2, #5
  61              		.loc 1 103 0
  62 000a 70B5     		push	{r4, r5, r6, lr}
  63              		.cfi_def_cfa_offset 16
  64              		.cfi_offset 4, -16
  65              		.cfi_offset 5, -12
  66              		.cfi_offset 6, -8
  67              		.cfi_offset 14, -4
  68              		.loc 1 107 0
  69 000c 9950     		str	r1, [r3, r2]
  70              		.loc 1 110 0
  71 000e 3649     		ldr	r1, .L24+4
  72 0010 8000     		lsls	r0, r0, #2
  73 0012 5A58     		ldr	r2, [r3, r1]
  74              		.loc 1 103 0
  75 0014 88B0     		sub	sp, sp, #32
  76              		.cfi_def_cfa_offset 48
  77              		.loc 1 110 0
  78 0016 0243     		orrs	r2, r0
  79 0018 5A50     		str	r2, [r3, r1]
  80              		.loc 1 120 0
  81 001a 1A68     		ldr	r2, [r3]
  82 001c 3349     		ldr	r1, .L24+8
  83 001e 0A40     		ands	r2, r1
  84              		.loc 1 307 0
  85 0020 6946     		mov	r1, sp
  86              		.loc 1 120 0
  87 0022 1A60     		str	r2, [r3]
  88              		.loc 1 307 0
  89 0024 0A00     		movs	r2, r1
  90 0026 324B     		ldr	r3, .L24+12
  91 0028 70CB     		ldmia	r3!, {r4, r5, r6}
  92 002a 70C2     		stmia	r2!, {r4, r5, r6}
  93 002c 70CB     		ldmia	r3!, {r4, r5, r6}
  94 002e 70C2     		stmia	r2!, {r4, r5, r6}
  95 0030 30CB     		ldmia	r3!, {r4, r5}
  96 0032 30C2     		stmia	r2!, {r4, r5}
  97              	.LVL0:
  98              		.loc 1 328 0
  99 0034 2F4B     		ldr	r3, .L24+16
 100 0036 304D     		ldr	r5, .L24+20
 101 0038 9C6C     		ldr	r4, [r3, #72]
 102 003a 2C40     		ands	r4, r5
 103 003c 9C64     		str	r4, [r3, #72]
 104              		.loc 1 329 0
 105 003e DA6C     		ldr	r2, [r3, #76]
 106              		.loc 1 350 0
 107 0040 2024     		movs	r4, #32
 108              		.loc 1 329 0
 109 0042 2A40     		ands	r2, r5
 110 0044 DA64     		str	r2, [r3, #76]
 111              		.loc 1 335 0
 112 0046 8A22     		movs	r2, #138
 113 0048 2C4B     		ldr	r3, .L24+24
 114 004a 1A70     		strb	r2, [r3]
ARM GAS  /var/folders/t8/16hdwfmd2fg_d3q6dgx6bpmw0000gn/T//cc1hzQo4.s 			page 3


 115              		.loc 1 348 0
 116 004c 2C4B     		ldr	r3, .L24+28
 117 004e 863A     		subs	r2, r2, #134
 118 0050 5A70     		strb	r2, [r3, #1]
 119              		.loc 1 350 0
 120 0052 5A78     		ldrb	r2, [r3, #1]
 121 0054 2243     		orrs	r2, r4
 122 0056 5A70     		strb	r2, [r3, #1]
 123              	.LVL1:
 124 0058 0023     		movs	r3, #0
 125              	.LVL2:
 126              	.L6:
 127              		.loc 1 357 0
 128 005a 9A00     		lsls	r2, r3, #2
 129 005c 8A58     		ldr	r2, [r1, r2]
 130 005e 8242     		cmp	r2, r0
 131 0060 39D0     		beq	.L23
 132              	.LVL3:
 133 0062 0133     		adds	r3, r3, #1
 134              	.LVL4:
 135              		.loc 1 356 0 discriminator 2
 136 0064 082B     		cmp	r3, #8
 137 0066 F8D1     		bne	.L6
 138 0068 B822     		movs	r2, #184
 139              	.LVL5:
 140              	.L5:
 141              		.loc 1 364 0
 142 006a 254B     		ldr	r3, .L24+28
 143 006c 1A70     		strb	r2, [r3]
 144              		.loc 1 369 0
 145 006e 1F22     		movs	r2, #31
 146 0070 D978     		ldrb	r1, [r3, #3]
 147 0072 0A40     		ands	r2, r1
 148 0074 DA70     		strb	r2, [r3, #3]
 149              		.loc 1 370 0
 150 0076 0022     		movs	r2, #0
 151              		.loc 1 377 0
 152 0078 0221     		movs	r1, #2
 153              		.loc 1 370 0
 154 007a 5A71     		strb	r2, [r3, #5]
 155              	.L7:
 156              		.loc 1 377 0 discriminator 1
 157 007c 9A79     		ldrb	r2, [r3, #6]
 158 007e 1142     		tst	r1, r2
 159 0080 FCD0     		beq	.L7
 160              		.loc 1 381 0
 161 0082 1022     		movs	r2, #16
 162 0084 1E49     		ldr	r1, .L24+28
 163              	.L8:
 164              		.loc 1 381 0 is_stmt 0 discriminator 1
 165 0086 8B79     		ldrb	r3, [r1, #6]
 166 0088 1A42     		tst	r2, r3
 167 008a FCD1     		bne	.L8
 168              		.loc 1 385 0 is_stmt 1
 169 008c 0C21     		movs	r1, #12
 170 008e 1C4A     		ldr	r2, .L24+28
 171              	.L9:
ARM GAS  /var/folders/t8/16hdwfmd2fg_d3q6dgx6bpmw0000gn/T//cc1hzQo4.s 			page 4


 172              		.loc 1 385 0 is_stmt 0 discriminator 1
 173 0090 9379     		ldrb	r3, [r2, #6]
 174 0092 0B40     		ands	r3, r1
 175 0094 082B     		cmp	r3, #8
 176 0096 FBD1     		bne	.L9
 177              		.loc 1 397 0 is_stmt 1
 178 0098 013B     		subs	r3, r3, #1
 179 009a 1371     		strb	r3, [r2, #4]
 180              	.LVL6:
 181              		.loc 1 406 0
 182 009c 5133     		adds	r3, r3, #81
 183 009e 5371     		strb	r3, [r2, #5]
 184              		.loc 1 415 0
 185 00a0 2022     		movs	r2, #32
 186 00a2 1749     		ldr	r1, .L24+28
 187              	.L10:
 188              		.loc 1 415 0 is_stmt 0 discriminator 1
 189 00a4 8B79     		ldrb	r3, [r1, #6]
 190 00a6 1A42     		tst	r2, r3
 191 00a8 FCD0     		beq	.L10
 192              		.loc 1 419 0 is_stmt 1
 193 00aa 4021     		movs	r1, #64
 194 00ac 144A     		ldr	r2, .L24+28
 195              	.L11:
 196              		.loc 1 419 0 is_stmt 0 discriminator 1
 197 00ae 9379     		ldrb	r3, [r2, #6]
 198 00b0 1942     		tst	r1, r3
 199 00b2 FCD0     		beq	.L11
 200              		.loc 1 429 0 is_stmt 1
 201 00b4 0B4B     		ldr	r3, .L24
 202 00b6 1349     		ldr	r1, .L24+32
 203 00b8 1348     		ldr	r0, .L24+36
 204 00ba 5850     		str	r0, [r3, r1]
 205              		.loc 1 433 0
 206 00bc 1349     		ldr	r1, .L24+40
 207 00be 1448     		ldr	r0, .L24+44
 208 00c0 5850     		str	r0, [r3, r1]
 209              		.loc 1 443 0
 210 00c2 0023     		movs	r3, #0
 211 00c4 1370     		strb	r3, [r2]
 212              		.loc 1 445 0
 213 00c6 0C22     		movs	r2, #12
 214 00c8 0D49     		ldr	r1, .L24+28
 215              	.L12:
 216              		.loc 1 445 0 is_stmt 0 discriminator 1
 217 00ca 8B79     		ldrb	r3, [r1, #6]
 218 00cc 1340     		ands	r3, r2
 219 00ce 0C2B     		cmp	r3, #12
 220 00d0 FBD1     		bne	.L12
 221              		.loc 1 457 0 is_stmt 1
 222 00d2 08B0     		add	sp, sp, #32
 223              		@ sp needed
 224 00d4 70BD     		pop	{r4, r5, r6, pc}
 225              	.LVL7:
 226              	.L23:
 227 00d6 8022     		movs	r2, #128
 228 00d8 DB00     		lsls	r3, r3, #3
ARM GAS  /var/folders/t8/16hdwfmd2fg_d3q6dgx6bpmw0000gn/T//cc1hzQo4.s 			page 5


 229              	.LVL8:
 230 00da 5242     		rsbs	r2, r2, #0
 231 00dc 1A43     		orrs	r2, r3
 232 00de D2B2     		uxtb	r2, r2
 233              		.loc 1 359 0
 234 00e0 C3E7     		b	.L5
 235              	.L25:
 236 00e2 C046     		.align	2
 237              	.L24:
 238 00e4 00700440 		.word	1074032640
 239 00e8 38100000 		.word	4152
 240 00ec FFFFF3FF 		.word	-786433
 241 00f0 00000000 		.word	.LANCHOR0
 242 00f4 00900440 		.word	1074040832
 243 00f8 FFF8FFFE 		.word	-16779009
 244 00fc 00500640 		.word	1074155520
 245 0100 00400640 		.word	1074151424
 246 0104 44100000 		.word	4164
 247 0108 00000110 		.word	268500992
 248 010c 04100000 		.word	4100
 249 0110 00000101 		.word	16842752
 250              		.cfi_endproc
 251              	.LFE175:
 252              		.size	kl2x_clock_init, .-kl2x_clock_init
 253              		.section	.text.platform_early_init,"ax",%progbits
 254              		.align	1
 255              		.p2align 4,,15
 256              		.global	platform_early_init
 257              		.syntax unified
 258              		.code	16
 259              		.thumb_func
 260              		.fpu softvfp
 261              		.type	platform_early_init, %function
 262              	platform_early_init:
 263              	.LFB178:
 264              		.cfi_startproc
 265              		@ args = 0, pretend = 0, frame = 0
 266              		@ frame_needed = 0, uses_anonymous_args = 0
 267              		@ link register save eliminated.
 268              		@ sp needed
 269 0000 7047     		bx	lr
 270              		.cfi_endproc
 271              	.LFE178:
 272              		.size	platform_early_init, .-platform_early_init
 273              		.global	_cfm
 274 0002 C046     		.section	.rodata
 275              		.align	2
 276              		.set	.LANCHOR0,. + 0
 277              	.LC0:
 278 0000 20000000 		.word	32
 279 0004 40000000 		.word	64
 280 0008 80000000 		.word	128
 281 000c 00010000 		.word	256
 282 0010 00020000 		.word	512
 283 0014 00040000 		.word	1024
 284 0018 00050000 		.word	1280
 285 001c 00060000 		.word	1536
ARM GAS  /var/folders/t8/16hdwfmd2fg_d3q6dgx6bpmw0000gn/T//cc1hzQo4.s 			page 6


 286              		.section	.cfmconfig,"a",%progbits
 287              		.align	2
 288              		.type	_cfm, %object
 289              		.size	_cfm, 16
 290              	_cfm:
 291 0000 FF       		.byte	-1
 292 0001 FF       		.byte	-1
 293 0002 FF       		.byte	-1
 294 0003 FF       		.byte	-1
 295 0004 FF       		.byte	-1
 296 0005 FF       		.byte	-1
 297 0006 FF       		.byte	-1
 298 0007 FF       		.byte	-1
 299 0008 FF       		.byte	-1
 300 0009 FF       		.byte	-1
 301 000a FF       		.byte	-1
 302 000b FF       		.byte	-1
 303 000c 7E       		.byte	126
 304 000d FF       		.byte	-1
 305 000e FF       		.byte	-1
 306 000f FF       		.byte	-1
 307              		.text
 308              	.Letext0:
 309              		.file 2 "/usr/local/Caskroom/gcc-arm-embedded/7-2017-q4-major/gcc-arm-none-eabi-7-2017-q4-major/li
 310              		.file 3 "/usr/local/Caskroom/gcc-arm-embedded/7-2017-q4-major/gcc-arm-none-eabi-7-2017-q4-major/ar
 311              		.file 4 "/usr/local/Caskroom/gcc-arm-embedded/7-2017-q4-major/gcc-arm-none-eabi-7-2017-q4-major/ar
 312              		.file 5 "../../tmk_core/tool/chibios/ChibiOS/os/common/ports/ARMCMx/compilers/GCC/chtypes.h"
 313              		.file 6 "../../tmk_core/tool/chibios/ChibiOS/os/rt/include/chsystypes.h"
 314              		.file 7 "../../tmk_core/tool/chibios/ChibiOS/os/rt/include/chschd.h"
 315              		.file 8 "../../tmk_core/tool/chibios/ChibiOS-Contrib/os/common/ext/CMSIS/KINETIS/kl26z.h"
 316              		.file 9 "../../tmk_core/tool/chibios/ChibiOS-Contrib/os/common/ext/CMSIS/KINETIS/kl2xz.h"
 317              		.file 10 "../../tmk_core/tool/chibios/ChibiOS/os/common/ports/ARMCMx/chcore.h"
 318              		.file 11 "../../tmk_core/tool/chibios/ChibiOS/os/common/ports/ARMCMx/chcore_v6m.h"
 319              		.file 12 "../../tmk_core/tool/chibios/ChibiOS/os/rt/include/chsem.h"
 320              		.file 13 "../../tmk_core/tool/chibios/ChibiOS/os/rt/include/chmtx.h"
 321              		.file 14 "../../tmk_core/tool/chibios/ChibiOS/os/rt/include/chregistry.h"
 322              		.file 15 "../../tmk_core/tool/chibios/ChibiOS/os/rt/include/chsys.h"
 323              		.file 16 "../../tmk_core/tool/chibios/ChibiOS-Contrib/os/hal/ports/KINETIS/LLD/hal_pal_lld.h"
 324              		.file 17 "../../tmk_core/tool/chibios/ChibiOS/os/hal/include/hal_usb.h"
 325              		.file 18 "../../tmk_core/tool/chibios/ChibiOS-Contrib/os/hal/ports/KINETIS/LLD/hal_usb_lld.h"