ARM GAS  /var/folders/t8/16hdwfmd2fg_d3q6dgx6bpmw0000gn/T//cchzqc6D.s 			page 1


   1              		.cpu cortex-m0plus
   2              		.eabi_attribute 20, 1
   3              		.eabi_attribute 21, 1
   4              		.eabi_attribute 23, 3
   5              		.eabi_attribute 24, 1
   6              		.eabi_attribute 25, 1
   7              		.eabi_attribute 26, 1
   8              		.eabi_attribute 30, 2
   9              		.eabi_attribute 34, 0
  10              		.eabi_attribute 18, 4
  11              		.file	"hal_st_lld.c"
  12              		.text
  13              	.Ltext0:
  14              		.cfi_sections	.debug_frame
  15              		.section	.text.SysTick_Handler,"ax",%progbits
  16              		.align	1
  17              		.p2align 4,,15
  18              		.global	SysTick_Handler
  19              		.syntax unified
  20              		.code	16
  21              		.thumb_func
  22              		.fpu softvfp
  23              		.type	SysTick_Handler, %function
  24              	SysTick_Handler:
  25              	.LFB174:
  26              		.file 1 "../../tmk_core/tool/chibios/ChibiOS-Contrib/os/hal/ports/KINETIS/LLD/hal_st_lld.c"
  27              		.loc 1 60 0
  28              		.cfi_startproc
  29              		@ args = 0, pretend = 0, frame = 0
  30              		@ frame_needed = 0, uses_anonymous_args = 0
  31              	.LVL0:
  32 0000 10B5     		push	{r4, lr}
  33              		.cfi_def_cfa_offset 8
  34              		.cfi_offset 4, -8
  35              		.cfi_offset 14, -4
  36 0002 7446     		mov	r4, lr
  37              		.loc 1 62 0
  38 0004 FFF7FEFF 		bl	_dbg_check_enter_isr
  39              	.LVL1:
  40              	.LBB54:
  41              	.LBB55:
  42              	.LBB56:
  43              	.LBB57:
  44              	.LBB58:
  45              	.LBB59:
  46              	.LBB60:
  47              		.file 2 "../../tmk_core/tool/chibios/ChibiOS/os/common/ext/CMSIS/include/cmsis_gcc.h"
  48              		.loc 2 71 0
  49              		.syntax divided
  50              	@ 71 "../../tmk_core/tool/chibios/ChibiOS/os/common/ext/CMSIS/include/cmsis_gcc.h" 1
  51 0008 72B6     		cpsid i
  52              	@ 0 "" 2
  53              		.thumb
  54              		.syntax unified
  55              	.LBE60:
  56              	.LBE59:
  57              	.LBE58:
ARM GAS  /var/folders/t8/16hdwfmd2fg_d3q6dgx6bpmw0000gn/T//cchzqc6D.s 			page 2


  58              	.LBE57:
  59              		.file 3 "../../tmk_core/tool/chibios/ChibiOS/os/rt/include/chsys.h"
  60              		.loc 3 418 0
  61 000a FFF7FEFF 		bl	_dbg_check_lock_from_isr
  62              	.LVL2:
  63              	.LBE56:
  64              	.LBE55:
  65              	.LBE54:
  66              	.LBB61:
  67              	.LBB62:
  68              		.file 4 "../../tmk_core/tool/chibios/ChibiOS/os/hal/osal/rt/osal.h"
  69              		.loc 4 585 0
  70 000e FFF7FEFF 		bl	chSysTimerHandlerI
  71              	.LVL3:
  72              	.LBE62:
  73              	.LBE61:
  74              	.LBB63:
  75              	.LBB64:
  76              	.LBB65:
  77              		.loc 3 436 0
  78 0012 FFF7FEFF 		bl	_dbg_check_unlock_from_isr
  79              	.LVL4:
  80              	.LBB66:
  81              	.LBB67:
  82              	.LBB68:
  83              	.LBB69:
  84              		.loc 2 60 0
  85              		.syntax divided
  86              	@ 60 "../../tmk_core/tool/chibios/ChibiOS/os/common/ext/CMSIS/include/cmsis_gcc.h" 1
  87 0016 62B6     		cpsie i
  88              	@ 0 "" 2
  89              		.thumb
  90              		.syntax unified
  91              	.LBE69:
  92              	.LBE68:
  93              	.LBE67:
  94              	.LBE66:
  95              	.LBE65:
  96              	.LBE64:
  97              	.LBE63:
  98              		.loc 1 68 0
  99 0018 FFF7FEFF 		bl	_dbg_check_leave_isr
 100              	.LVL5:
 101 001c 2000     		movs	r0, r4
 102 001e FFF7FEFF 		bl	_port_irq_epilogue
 103              	.LVL6:
 104              		.loc 1 69 0
 105              		@ sp needed
 106 0022 10BD     		pop	{r4, pc}
 107              		.cfi_endproc
 108              	.LFE174:
 109              		.size	SysTick_Handler, .-SysTick_Handler
 110              		.section	.text.st_lld_init,"ax",%progbits
 111              		.align	1
 112              		.p2align 4,,15
 113              		.global	st_lld_init
 114              		.syntax unified
ARM GAS  /var/folders/t8/16hdwfmd2fg_d3q6dgx6bpmw0000gn/T//cchzqc6D.s 			page 3


 115              		.code	16
 116              		.thumb_func
 117              		.fpu softvfp
 118              		.type	st_lld_init, %function
 119              	st_lld_init:
 120              	.LFB175:
 121              		.loc 1 81 0
 122              		.cfi_startproc
 123              		@ args = 0, pretend = 0, frame = 0
 124              		@ frame_needed = 0, uses_anonymous_args = 0
 125              		.loc 1 85 0
 126 0000 064B     		ldr	r3, .L4
 127 0002 074A     		ldr	r2, .L4+4
 128              		.loc 1 81 0
 129 0004 10B5     		push	{r4, lr}
 130              		.cfi_def_cfa_offset 8
 131              		.cfi_offset 4, -8
 132              		.cfi_offset 14, -4
 133              		.loc 1 85 0
 134 0006 5A60     		str	r2, [r3, #4]
 135              		.loc 1 86 0
 136 0008 0022     		movs	r2, #0
 137 000a 9A60     		str	r2, [r3, #8]
 138              		.loc 1 87 0
 139 000c 0732     		adds	r2, r2, #7
 140 000e 1A60     		str	r2, [r3]
 141              		.loc 1 92 0
 142 0010 0821     		movs	r1, #8
 143 0012 0B20     		movs	r0, #11
 144 0014 FFF7FEFF 		bl	nvicSetSystemHandlerPriority
 145              	.LVL7:
 146              		.loc 1 94 0
 147              		@ sp needed
 148 0018 10BD     		pop	{r4, pc}
 149              	.L5:
 150 001a C046     		.align	2
 151              	.L4:
 152 001c 10E000E0 		.word	-536813552
 153 0020 7FBB0000 		.word	47999
 154              		.cfi_endproc
 155              	.LFE175:
 156              		.size	st_lld_init, .-st_lld_init
 157              		.text
 158              	.Letext0:
 159              		.file 5 "/usr/local/Caskroom/gcc-arm-embedded/7-2017-q4-major/gcc-arm-none-eabi-7-2017-q4-major/li
 160              		.file 6 "/usr/local/Caskroom/gcc-arm-embedded/7-2017-q4-major/gcc-arm-none-eabi-7-2017-q4-major/ar
 161              		.file 7 "/usr/local/Caskroom/gcc-arm-embedded/7-2017-q4-major/gcc-arm-none-eabi-7-2017-q4-major/ar
 162              		.file 8 "../../tmk_core/tool/chibios/ChibiOS/os/common/ports/ARMCMx/compilers/GCC/chtypes.h"
 163              		.file 9 "../../tmk_core/tool/chibios/ChibiOS/os/rt/include/chsystypes.h"
 164              		.file 10 "../../tmk_core/tool/chibios/ChibiOS/os/rt/include/chschd.h"
 165              		.file 11 "../../tmk_core/tool/chibios/ChibiOS/os/common/ext/CMSIS/include/core_cm0plus.h"
 166              		.file 12 "../../tmk_core/tool/chibios/ChibiOS-Contrib/os/common/ext/CMSIS/KINETIS/kl2xz.h"
 167              		.file 13 "../../tmk_core/tool/chibios/ChibiOS/os/common/ports/ARMCMx/chcore.h"
 168              		.file 14 "../../tmk_core/tool/chibios/ChibiOS/os/common/ports/ARMCMx/chcore_v6m.h"
 169              		.file 15 "../../tmk_core/tool/chibios/ChibiOS/os/rt/include/chsem.h"
 170              		.file 16 "../../tmk_core/tool/chibios/ChibiOS/os/rt/include/chmtx.h"
 171              		.file 17 "../../tmk_core/tool/chibios/ChibiOS/os/rt/include/chregistry.h"
ARM GAS  /var/folders/t8/16hdwfmd2fg_d3q6dgx6bpmw0000gn/T//cchzqc6D.s 			page 4


 172              		.file 18 "../../tmk_core/tool/chibios/ChibiOS-Contrib/os/hal/ports/KINETIS/LLD/hal_pal_lld.h"
 173              		.file 19 "../../tmk_core/tool/chibios/ChibiOS/os/hal/include/hal_usb.h"
 174              		.file 20 "../../tmk_core/tool/chibios/ChibiOS-Contrib/os/hal/ports/KINETIS/LLD/hal_usb_lld.h"
 175              		.file 21 "../../tmk_core/tool/chibios/ChibiOS/os/hal/ports/common/ARMCMx/nvic.h"
 176              		.file 22 "../../tmk_core/tool/chibios/ChibiOS/os/rt/include/chdebug.h"