ARM GAS  /var/folders/t8/16hdwfmd2fg_d3q6dgx6bpmw0000gn/T//ccWLiiid.s 			page 1


   1              		.cpu cortex-m0plus
   2              		.eabi_attribute 20, 1
   3              		.eabi_attribute 21, 1
   4              		.eabi_attribute 23, 3
   5              		.eabi_attribute 24, 1
   6              		.eabi_attribute 25, 1
   7              		.eabi_attribute 26, 1
   8              		.eabi_attribute 30, 2
   9              		.eabi_attribute 34, 0
  10              		.eabi_attribute 18, 4
  11              		.file	"hook.c"
  12              		.text
  13              	.Ltext0:
  14              		.cfi_sections	.debug_frame
  15              		.section	.text.hook_keyboard_loop,"ax",%progbits
  16              		.align	1
  17              		.p2align 4,,15
  18              		.weak	hook_keyboard_loop
  19              		.syntax unified
  20              		.code	16
  21              		.thumb_func
  22              		.fpu softvfp
  23              		.type	hook_keyboard_loop, %function
  24              	hook_keyboard_loop:
  25              	.LFB3:
  26              		.file 1 "../../tmk_core/common/hook.c"
  27              		.loc 1 26 0
  28              		.cfi_startproc
  29              		@ args = 0, pretend = 0, frame = 0
  30              		@ frame_needed = 0, uses_anonymous_args = 0
  31              		@ link register save eliminated.
  32              		.loc 1 26 0
  33              		@ sp needed
  34 0000 7047     		bx	lr
  35              		.cfi_endproc
  36              	.LFE3:
  37              		.size	hook_keyboard_loop, .-hook_keyboard_loop
  38 0002 C046     		.section	.text.hook_matrix_change,"ax",%progbits
  39              		.align	1
  40              		.p2align 4,,15
  41              		.weak	hook_matrix_change
  42              		.syntax unified
  43              		.code	16
  44              		.thumb_func
  45              		.fpu softvfp
  46              		.type	hook_matrix_change, %function
  47              	hook_matrix_change:
  48              	.LFB4:
  49              		.loc 1 29 0
  50              		.cfi_startproc
  51              		@ args = 0, pretend = 0, frame = 8
  52              		@ frame_needed = 0, uses_anonymous_args = 0
  53              		@ link register save eliminated.
  54 0000 82B0     		sub	sp, sp, #8
  55              		.cfi_def_cfa_offset 8
  56              		.loc 1 31 0
  57 0002 02B0     		add	sp, sp, #8
ARM GAS  /var/folders/t8/16hdwfmd2fg_d3q6dgx6bpmw0000gn/T//ccWLiiid.s 			page 2


  58              		@ sp needed
  59 0004 7047     		bx	lr
  60              		.cfi_endproc
  61              	.LFE4:
  62              		.size	hook_matrix_change, .-hook_matrix_change
  63 0006 C046     		.section	.text.hook_default_layer_change,"ax",%progbits
  64              		.align	1
  65              		.p2align 4,,15
  66              		.weak	hook_default_layer_change
  67              		.syntax unified
  68              		.code	16
  69              		.thumb_func
  70              		.fpu softvfp
  71              		.type	hook_default_layer_change, %function
  72              	hook_default_layer_change:
  73              	.LFB5:
  74              		.loc 1 34 0
  75              		.cfi_startproc
  76              		@ args = 0, pretend = 0, frame = 0
  77              		@ frame_needed = 0, uses_anonymous_args = 0
  78              		@ link register save eliminated.
  79              	.LVL0:
  80              		.loc 1 36 0
  81              		@ sp needed
  82 0000 7047     		bx	lr
  83              		.cfi_endproc
  84              	.LFE5:
  85              		.size	hook_default_layer_change, .-hook_default_layer_change
  86 0002 C046     		.section	.text.hook_layer_change,"ax",%progbits
  87              		.align	1
  88              		.p2align 4,,15
  89              		.weak	hook_layer_change
  90              		.syntax unified
  91              		.code	16
  92              		.thumb_func
  93              		.fpu softvfp
  94              		.type	hook_layer_change, %function
  95              	hook_layer_change:
  96              	.LFB12:
  97              		.cfi_startproc
  98              		@ args = 0, pretend = 0, frame = 0
  99              		@ frame_needed = 0, uses_anonymous_args = 0
 100              		@ link register save eliminated.
 101              		@ sp needed
 102 0000 7047     		bx	lr
 103              		.cfi_endproc
 104              	.LFE12:
 105              		.size	hook_layer_change, .-hook_layer_change
 106 0002 C046     		.section	.text.hook_keyboard_leds_change,"ax",%progbits
 107              		.align	1
 108              		.p2align 4,,15
 109              		.weak	hook_keyboard_leds_change
 110              		.syntax unified
 111              		.code	16
 112              		.thumb_func
 113              		.fpu softvfp
 114              		.type	hook_keyboard_leds_change, %function
ARM GAS  /var/folders/t8/16hdwfmd2fg_d3q6dgx6bpmw0000gn/T//ccWLiiid.s 			page 3


 115              	hook_keyboard_leds_change:
 116              	.LFB7:
 117              		.loc 1 44 0
 118              		.cfi_startproc
 119              		@ args = 0, pretend = 0, frame = 0
 120              		@ frame_needed = 0, uses_anonymous_args = 0
 121              	.LVL1:
 122              		.loc 1 44 0
 123 0000 10B5     		push	{r4, lr}
 124              		.cfi_def_cfa_offset 8
 125              		.cfi_offset 4, -8
 126              		.cfi_offset 14, -4
 127              		.loc 1 45 0
 128 0002 FFF7FEFF 		bl	keyboard_set_leds
 129              	.LVL2:
 130              		.loc 1 46 0
 131              		@ sp needed
 132 0006 10BD     		pop	{r4, pc}
 133              		.cfi_endproc
 134              	.LFE7:
 135              		.size	hook_keyboard_leds_change, .-hook_keyboard_leds_change
 136              		.section	.text.hook_bootmagic,"ax",%progbits
 137              		.align	1
 138              		.p2align 4,,15
 139              		.weak	hook_bootmagic
 140              		.syntax unified
 141              		.code	16
 142              		.thumb_func
 143              		.fpu softvfp
 144              		.type	hook_bootmagic, %function
 145              	hook_bootmagic:
 146              	.LFB10:
 147              		.cfi_startproc
 148              		@ args = 0, pretend = 0, frame = 0
 149              		@ frame_needed = 0, uses_anonymous_args = 0
 150              		@ link register save eliminated.
 151              		@ sp needed
 152 0000 7047     		bx	lr
 153              		.cfi_endproc
 154              	.LFE10:
 155              		.size	hook_bootmagic, .-hook_bootmagic
 156 0002 C046     		.text
 157              	.Letext0:
 158              		.file 2 "/usr/local/Caskroom/gcc-arm-embedded/7-2017-q4-major/gcc-arm-none-eabi-7-2017-q4-major/ar
 159              		.file 3 "/usr/local/Caskroom/gcc-arm-embedded/7-2017-q4-major/gcc-arm-none-eabi-7-2017-q4-major/ar
 160              		.file 4 "../../tmk_core/common/keyboard.h"