ARM GAS  /var/folders/t8/16hdwfmd2fg_d3q6dgx6bpmw0000gn/T//ccQYZpjs.s 			page 1


   1              		.cpu cortex-m0plus
   2              		.eabi_attribute 20, 1
   3              		.eabi_attribute 21, 1
   4              		.eabi_attribute 23, 3
   5              		.eabi_attribute 24, 1
   6              		.eabi_attribute 25, 1
   7              		.eabi_attribute 26, 1
   8              		.eabi_attribute 30, 2
   9              		.eabi_attribute 34, 0
  10              		.eabi_attribute 18, 4
  11              		.file	"host.c"
  12              		.text
  13              	.Ltext0:
  14              		.cfi_sections	.debug_frame
  15              		.section	.text.host_set_driver,"ax",%progbits
  16              		.align	1
  17              		.p2align 4,,15
  18              		.global	host_set_driver
  19              		.syntax unified
  20              		.code	16
  21              		.thumb_func
  22              		.fpu softvfp
  23              		.type	host_set_driver, %function
  24              	host_set_driver:
  25              	.LFB174:
  26              		.file 1 "../../tmk_core/common/host.c"
  27              		.loc 1 36 0
  28              		.cfi_startproc
  29              		@ args = 0, pretend = 0, frame = 0
  30              		@ frame_needed = 0, uses_anonymous_args = 0
  31              		@ link register save eliminated.
  32              	.LVL0:
  33              		.loc 1 37 0
  34 0000 014B     		ldr	r3, .L3
  35              		.loc 1 38 0
  36              		@ sp needed
  37              		.loc 1 37 0
  38 0002 1860     		str	r0, [r3]
  39              		.loc 1 38 0
  40 0004 7047     		bx	lr
  41              	.L4:
  42 0006 C046     		.align	2
  43              	.L3:
  44 0008 00000000 		.word	.LANCHOR0
  45              		.cfi_endproc
  46              	.LFE174:
  47              		.size	host_set_driver, .-host_set_driver
  48              		.section	.text.host_get_driver,"ax",%progbits
  49              		.align	1
  50              		.p2align 4,,15
  51              		.global	host_get_driver
  52              		.syntax unified
  53              		.code	16
  54              		.thumb_func
  55              		.fpu softvfp
  56              		.type	host_get_driver, %function
  57              	host_get_driver:
ARM GAS  /var/folders/t8/16hdwfmd2fg_d3q6dgx6bpmw0000gn/T//ccQYZpjs.s 			page 2


  58              	.LFB175:
  59              		.loc 1 41 0
  60              		.cfi_startproc
  61              		@ args = 0, pretend = 0, frame = 0
  62              		@ frame_needed = 0, uses_anonymous_args = 0
  63              		@ link register save eliminated.
  64              		.loc 1 42 0
  65 0000 014B     		ldr	r3, .L6
  66              		.loc 1 43 0
  67              		@ sp needed
  68              		.loc 1 42 0
  69 0002 1868     		ldr	r0, [r3]
  70              		.loc 1 43 0
  71 0004 7047     		bx	lr
  72              	.L7:
  73 0006 C046     		.align	2
  74              	.L6:
  75 0008 00000000 		.word	.LANCHOR0
  76              		.cfi_endproc
  77              	.LFE175:
  78              		.size	host_get_driver, .-host_get_driver
  79              		.section	.text.host_keyboard_leds,"ax",%progbits
  80              		.align	1
  81              		.p2align 4,,15
  82              		.global	host_keyboard_leds
  83              		.syntax unified
  84              		.code	16
  85              		.thumb_func
  86              		.fpu softvfp
  87              		.type	host_keyboard_leds, %function
  88              	host_keyboard_leds:
  89              	.LFB176:
  90              		.loc 1 46 0
  91              		.cfi_startproc
  92              		@ args = 0, pretend = 0, frame = 0
  93              		@ frame_needed = 0, uses_anonymous_args = 0
  94              		.loc 1 47 0
  95 0000 044B     		ldr	r3, .L11
  96              		.loc 1 46 0
  97 0002 10B5     		push	{r4, lr}
  98              		.cfi_def_cfa_offset 8
  99              		.cfi_offset 4, -8
 100              		.cfi_offset 14, -4
 101              		.loc 1 47 0
 102 0004 1B68     		ldr	r3, [r3]
 103 0006 002B     		cmp	r3, #0
 104 0008 02D0     		beq	.L10
 105              		.loc 1 48 0
 106 000a 1B68     		ldr	r3, [r3]
 107 000c 9847     		blx	r3
 108              	.LVL1:
 109              	.L9:
 110              		.loc 1 49 0
 111              		@ sp needed
 112 000e 10BD     		pop	{r4, pc}
 113              	.L10:
 114              		.loc 1 47 0
ARM GAS  /var/folders/t8/16hdwfmd2fg_d3q6dgx6bpmw0000gn/T//ccQYZpjs.s 			page 3


 115 0010 0020     		movs	r0, #0
 116 0012 FCE7     		b	.L9
 117              	.L12:
 118              		.align	2
 119              	.L11:
 120 0014 00000000 		.word	.LANCHOR0
 121              		.cfi_endproc
 122              	.LFE176:
 123              		.size	host_keyboard_leds, .-host_keyboard_leds
 124              		.section	.text.host_keyboard_send,"ax",%progbits
 125              		.align	1
 126              		.p2align 4,,15
 127              		.global	host_keyboard_send
 128              		.syntax unified
 129              		.code	16
 130              		.thumb_func
 131              		.fpu softvfp
 132              		.type	host_keyboard_send, %function
 133              	host_keyboard_send:
 134              	.LFB177:
 135              		.loc 1 52 0
 136              		.cfi_startproc
 137              		@ args = 0, pretend = 0, frame = 0
 138              		@ frame_needed = 0, uses_anonymous_args = 0
 139              	.LVL2:
 140 0000 F0B5     		push	{r4, r5, r6, r7, lr}
 141              		.cfi_def_cfa_offset 20
 142              		.cfi_offset 4, -20
 143              		.cfi_offset 5, -16
 144              		.cfi_offset 6, -12
 145              		.cfi_offset 7, -8
 146              		.cfi_offset 14, -4
 147 0002 C646     		mov	lr, r8
 148              		.loc 1 53 0
 149 0004 184B     		ldr	r3, .L36
 150              		.loc 1 52 0
 151 0006 00B5     		push	{lr}
 152              		.cfi_def_cfa_offset 24
 153              		.cfi_offset 8, -24
 154              		.loc 1 53 0
 155 0008 1B68     		ldr	r3, [r3]
 156              		.loc 1 52 0
 157 000a 0400     		movs	r4, r0
 158              		.loc 1 53 0
 159 000c 002B     		cmp	r3, #0
 160 000e 1FD0     		beq	.L13
 161              		.loc 1 54 0
 162 0010 5B68     		ldr	r3, [r3, #4]
 163 0012 9847     		blx	r3
 164              	.LVL3:
 165              		.loc 1 56 0
 166 0014 154F     		ldr	r7, .L36+4
 167 0016 3A78     		ldrb	r2, [r7]
 168 0018 5307     		lsls	r3, r2, #29
 169 001a 19D5     		bpl	.L13
 170              		.loc 1 57 0
 171 001c D307     		lsls	r3, r2, #31
ARM GAS  /var/folders/t8/16hdwfmd2fg_d3q6dgx6bpmw0000gn/T//ccQYZpjs.s 			page 4


 172 001e 1ED4     		bmi	.L33
 173              	.L17:
 174 0020 2600     		movs	r6, r4
 175              	.LBB2:
 176              		.loc 1 59 0
 177 0022 134B     		ldr	r3, .L36+8
 178 0024 1036     		adds	r6, r6, #16
 179 0026 0125     		movs	r5, #1
 180 0028 9846     		mov	r8, r3
 181 002a 02E0     		b	.L19
 182              	.LVL4:
 183              	.L18:
 184 002c 0134     		adds	r4, r4, #1
 185              	.LVL5:
 186              		.loc 1 58 0 discriminator 2
 187 002e A642     		cmp	r6, r4
 188 0030 0CD0     		beq	.L34
 189              	.L19:
 190              	.LVL6:
 191              		.loc 1 59 0
 192 0032 2B00     		movs	r3, r5
 193 0034 1340     		ands	r3, r2
 194 0036 F9D0     		beq	.L18
 195              		.loc 1 59 0 is_stmt 0 discriminator 1
 196 0038 2178     		ldrb	r1, [r4]
 197 003a 4046     		mov	r0, r8
 198 003c FFF7FEFF 		bl	tfp_printf
 199              	.LVL7:
 200 0040 2B00     		movs	r3, r5
 201 0042 3A78     		ldrb	r2, [r7]
 202 0044 0134     		adds	r4, r4, #1
 203              	.LVL8:
 204 0046 1340     		ands	r3, r2
 205              		.loc 1 58 0 is_stmt 1 discriminator 1
 206 0048 A642     		cmp	r6, r4
 207 004a F2D1     		bne	.L19
 208              	.L34:
 209              	.LBE2:
 210              		.loc 1 61 0
 211 004c 002B     		cmp	r3, #0
 212 004e 02D1     		bne	.L35
 213              	.LVL9:
 214              	.L13:
 215              		.loc 1 63 0
 216              		@ sp needed
 217 0050 04BC     		pop	{r2}
 218 0052 9046     		mov	r8, r2
 219 0054 F0BD     		pop	{r4, r5, r6, r7, pc}
 220              	.LVL10:
 221              	.L35:
 222              		.loc 1 61 0 discriminator 1
 223 0056 0748     		ldr	r0, .L36+12
 224 0058 FFF7FEFF 		bl	tfp_printf
 225              	.LVL11:
 226 005c F8E7     		b	.L13
 227              	.LVL12:
 228              	.L33:
ARM GAS  /var/folders/t8/16hdwfmd2fg_d3q6dgx6bpmw0000gn/T//ccQYZpjs.s 			page 5


 229              		.loc 1 57 0 discriminator 1
 230 005e 0648     		ldr	r0, .L36+16
 231 0060 FFF7FEFF 		bl	tfp_printf
 232              	.LVL13:
 233 0064 3A78     		ldrb	r2, [r7]
 234 0066 DBE7     		b	.L17
 235              	.L37:
 236              		.align	2
 237              	.L36:
 238 0068 00000000 		.word	.LANCHOR0
 239 006c 00000000 		.word	debug_config
 240 0070 0C000000 		.word	.LC9
 241 0074 14000000 		.word	.LC11
 242 0078 00000000 		.word	.LC7
 243              		.cfi_endproc
 244              	.LFE177:
 245              		.size	host_keyboard_send, .-host_keyboard_send
 246              		.section	.text.host_mouse_send,"ax",%progbits
 247              		.align	1
 248              		.p2align 4,,15
 249              		.global	host_mouse_send
 250              		.syntax unified
 251              		.code	16
 252              		.thumb_func
 253              		.fpu softvfp
 254              		.type	host_mouse_send, %function
 255              	host_mouse_send:
 256              	.LFB178:
 257              		.loc 1 66 0
 258              		.cfi_startproc
 259              		@ args = 0, pretend = 0, frame = 0
 260              		@ frame_needed = 0, uses_anonymous_args = 0
 261              	.LVL14:
 262              		.loc 1 67 0
 263 0000 034B     		ldr	r3, .L43
 264              		.loc 1 66 0
 265 0002 10B5     		push	{r4, lr}
 266              		.cfi_def_cfa_offset 8
 267              		.cfi_offset 4, -8
 268              		.cfi_offset 14, -4
 269              		.loc 1 67 0
 270 0004 1B68     		ldr	r3, [r3]
 271 0006 002B     		cmp	r3, #0
 272 0008 01D0     		beq	.L38
 273              		.loc 1 68 0
 274 000a 9B68     		ldr	r3, [r3, #8]
 275 000c 9847     		blx	r3
 276              	.LVL15:
 277              	.L38:
 278              		.loc 1 69 0
 279              		@ sp needed
 280 000e 10BD     		pop	{r4, pc}
 281              	.L44:
 282              		.align	2
 283              	.L43:
 284 0010 00000000 		.word	.LANCHOR0
 285              		.cfi_endproc
ARM GAS  /var/folders/t8/16hdwfmd2fg_d3q6dgx6bpmw0000gn/T//ccQYZpjs.s 			page 6


 286              	.LFE178:
 287              		.size	host_mouse_send, .-host_mouse_send
 288              		.section	.text.host_system_send,"ax",%progbits
 289              		.align	1
 290              		.p2align 4,,15
 291              		.global	host_system_send
 292              		.syntax unified
 293              		.code	16
 294              		.thumb_func
 295              		.fpu softvfp
 296              		.type	host_system_send, %function
 297              	host_system_send:
 298              	.LFB179:
 299              		.loc 1 72 0
 300              		.cfi_startproc
 301              		@ args = 0, pretend = 0, frame = 0
 302              		@ frame_needed = 0, uses_anonymous_args = 0
 303              	.LVL16:
 304              		.loc 1 73 0
 305 0000 0C4B     		ldr	r3, .L53
 306              		.loc 1 72 0
 307 0002 10B5     		push	{r4, lr}
 308              		.cfi_def_cfa_offset 8
 309              		.cfi_offset 4, -8
 310              		.cfi_offset 14, -4
 311              		.loc 1 73 0
 312 0004 1A88     		ldrh	r2, [r3]
 313              		.loc 1 72 0
 314 0006 0400     		movs	r4, r0
 315              		.loc 1 73 0
 316 0008 8242     		cmp	r2, r0
 317 000a 0CD0     		beq	.L45
 318              		.loc 1 74 0
 319 000c 1880     		strh	r0, [r3]
 320              		.loc 1 76 0
 321 000e 0A4B     		ldr	r3, .L53+4
 322 0010 1B68     		ldr	r3, [r3]
 323 0012 002B     		cmp	r3, #0
 324 0014 07D0     		beq	.L45
 325              		.loc 1 77 0
 326 0016 DB68     		ldr	r3, [r3, #12]
 327 0018 9847     		blx	r3
 328              	.LVL17:
 329              		.loc 1 79 0
 330 001a 084B     		ldr	r3, .L53+8
 331              		.loc 1 80 0
 332 001c 1A78     		ldrb	r2, [r3]
 333 001e 0523     		movs	r3, #5
 334 0020 1340     		ands	r3, r2
 335 0022 052B     		cmp	r3, #5
 336 0024 00D0     		beq	.L52
 337              	.L45:
 338              		.loc 1 82 0
 339              		@ sp needed
 340 0026 10BD     		pop	{r4, pc}
 341              	.L52:
 342              		.loc 1 80 0 discriminator 1
ARM GAS  /var/folders/t8/16hdwfmd2fg_d3q6dgx6bpmw0000gn/T//ccQYZpjs.s 			page 7


 343 0028 2100     		movs	r1, r4
 344 002a 0548     		ldr	r0, .L53+12
 345 002c FFF7FEFF 		bl	tfp_printf
 346              	.LVL18:
 347 0030 F9E7     		b	.L45
 348              	.L54:
 349 0032 C046     		.align	2
 350              	.L53:
 351 0034 00000000 		.word	.LANCHOR1
 352 0038 00000000 		.word	.LANCHOR0
 353 003c 00000000 		.word	debug_config
 354 0040 00000000 		.word	.LC17
 355              		.cfi_endproc
 356              	.LFE179:
 357              		.size	host_system_send, .-host_system_send
 358              		.section	.text.host_consumer_send,"ax",%progbits
 359              		.align	1
 360              		.p2align 4,,15
 361              		.global	host_consumer_send
 362              		.syntax unified
 363              		.code	16
 364              		.thumb_func
 365              		.fpu softvfp
 366              		.type	host_consumer_send, %function
 367              	host_consumer_send:
 368              	.LFB180:
 369              		.loc 1 85 0
 370              		.cfi_startproc
 371              		@ args = 0, pretend = 0, frame = 0
 372              		@ frame_needed = 0, uses_anonymous_args = 0
 373              	.LVL19:
 374              		.loc 1 86 0
 375 0000 0C4B     		ldr	r3, .L63
 376              		.loc 1 85 0
 377 0002 10B5     		push	{r4, lr}
 378              		.cfi_def_cfa_offset 8
 379              		.cfi_offset 4, -8
 380              		.cfi_offset 14, -4
 381              		.loc 1 86 0
 382 0004 1A88     		ldrh	r2, [r3]
 383              		.loc 1 85 0
 384 0006 0400     		movs	r4, r0
 385              		.loc 1 86 0
 386 0008 8242     		cmp	r2, r0
 387 000a 0CD0     		beq	.L55
 388              		.loc 1 87 0
 389 000c 1880     		strh	r0, [r3]
 390              		.loc 1 89 0
 391 000e 0A4B     		ldr	r3, .L63+4
 392 0010 1B68     		ldr	r3, [r3]
 393 0012 002B     		cmp	r3, #0
 394 0014 07D0     		beq	.L55
 395              		.loc 1 90 0
 396 0016 1B69     		ldr	r3, [r3, #16]
 397 0018 9847     		blx	r3
 398              	.LVL20:
 399              		.loc 1 92 0
ARM GAS  /var/folders/t8/16hdwfmd2fg_d3q6dgx6bpmw0000gn/T//ccQYZpjs.s 			page 8


 400 001a 084B     		ldr	r3, .L63+8
 401              		.loc 1 93 0
 402 001c 1A78     		ldrb	r2, [r3]
 403 001e 0523     		movs	r3, #5
 404 0020 1340     		ands	r3, r2
 405 0022 052B     		cmp	r3, #5
 406 0024 00D0     		beq	.L62
 407              	.L55:
 408              		.loc 1 95 0
 409              		@ sp needed
 410 0026 10BD     		pop	{r4, pc}
 411              	.L62:
 412              		.loc 1 93 0 discriminator 1
 413 0028 2100     		movs	r1, r4
 414 002a 0548     		ldr	r0, .L63+12
 415 002c FFF7FEFF 		bl	tfp_printf
 416              	.LVL21:
 417 0030 F9E7     		b	.L55
 418              	.L64:
 419 0032 C046     		.align	2
 420              	.L63:
 421 0034 00000000 		.word	.LANCHOR2
 422 0038 00000000 		.word	.LANCHOR0
 423 003c 00000000 		.word	debug_config
 424 0040 00000000 		.word	.LC22
 425              		.cfi_endproc
 426              	.LFE180:
 427              		.size	host_consumer_send, .-host_consumer_send
 428              		.section	.text.host_last_system_report,"ax",%progbits
 429              		.align	1
 430              		.p2align 4,,15
 431              		.global	host_last_system_report
 432              		.syntax unified
 433              		.code	16
 434              		.thumb_func
 435              		.fpu softvfp
 436              		.type	host_last_system_report, %function
 437              	host_last_system_report:
 438              	.LFB181:
 439              		.loc 1 98 0
 440              		.cfi_startproc
 441              		@ args = 0, pretend = 0, frame = 0
 442              		@ frame_needed = 0, uses_anonymous_args = 0
 443              		@ link register save eliminated.
 444              		.loc 1 99 0
 445 0000 014B     		ldr	r3, .L66
 446              		.loc 1 100 0
 447              		@ sp needed
 448              		.loc 1 99 0
 449 0002 1888     		ldrh	r0, [r3]
 450              		.loc 1 100 0
 451 0004 7047     		bx	lr
 452              	.L67:
 453 0006 C046     		.align	2
 454              	.L66:
 455 0008 00000000 		.word	.LANCHOR1
 456              		.cfi_endproc
ARM GAS  /var/folders/t8/16hdwfmd2fg_d3q6dgx6bpmw0000gn/T//ccQYZpjs.s 			page 9


 457              	.LFE181:
 458              		.size	host_last_system_report, .-host_last_system_report
 459              		.section	.text.host_last_consumer_report,"ax",%progbits
 460              		.align	1
 461              		.p2align 4,,15
 462              		.global	host_last_consumer_report
 463              		.syntax unified
 464              		.code	16
 465              		.thumb_func
 466              		.fpu softvfp
 467              		.type	host_last_consumer_report, %function
 468              	host_last_consumer_report:
 469              	.LFB182:
 470              		.loc 1 103 0
 471              		.cfi_startproc
 472              		@ args = 0, pretend = 0, frame = 0
 473              		@ frame_needed = 0, uses_anonymous_args = 0
 474              		@ link register save eliminated.
 475              		.loc 1 104 0
 476 0000 014B     		ldr	r3, .L69
 477              		.loc 1 105 0
 478              		@ sp needed
 479              		.loc 1 104 0
 480 0002 1888     		ldrh	r0, [r3]
 481              		.loc 1 105 0
 482 0004 7047     		bx	lr
 483              	.L70:
 484 0006 C046     		.align	2
 485              	.L69:
 486 0008 00000000 		.word	.LANCHOR2
 487              		.cfi_endproc
 488              	.LFE182:
 489              		.size	host_last_consumer_report, .-host_last_consumer_report
 490              		.global	keyboard_nkro
 491              		.section	.bss.driver,"aw",%nobits
 492              		.align	2
 493              		.set	.LANCHOR0,. + 0
 494              		.type	driver, %object
 495              		.size	driver, 4
 496              	driver:
 497 0000 00000000 		.space	4
 498              		.section	.bss.last_consumer_report,"aw",%nobits
 499              		.align	1
 500              		.set	.LANCHOR2,. + 0
 501              		.type	last_consumer_report, %object
 502              		.size	last_consumer_report, 2
 503              	last_consumer_report:
 504 0000 0000     		.space	2
 505              		.section	.bss.last_system_report,"aw",%nobits
 506              		.align	1
 507              		.set	.LANCHOR1,. + 0
 508              		.type	last_system_report, %object
 509              		.size	last_system_report, 2
 510              	last_system_report:
 511 0000 0000     		.space	2
 512              		.section	.data.keyboard_nkro,"aw",%progbits
 513              		.type	keyboard_nkro, %object
ARM GAS  /var/folders/t8/16hdwfmd2fg_d3q6dgx6bpmw0000gn/T//ccQYZpjs.s 			page 10


 514              		.size	keyboard_nkro, 1
 515              	keyboard_nkro:
 516 0000 01       		.byte	1
 517              		.section	.rodata.host_consumer_send.str1.4,"aMS",%progbits,1
 518              		.align	2
 519              	.LC22:
 520 0000 636F6E73 		.ascii	"consumer: %04X\012\000"
 520      756D6572 
 520      3A202530 
 520      34580A00 
 521              		.section	.rodata.host_keyboard_send.str1.4,"aMS",%progbits,1
 522              		.align	2
 523              	.LC7:
 524 0000 6B657962 		.ascii	"keyboard: \000"
 524      6F617264 
 524      3A2000
 525 000b 00       		.space	1
 526              	.LC9:
 527 000c 25303258 		.ascii	"%02X \000"
 527      2000
 528 0012 0000     		.space	2
 529              	.LC11:
 530 0014 0A00     		.ascii	"\012\000"
 531              		.section	.rodata.host_system_send.str1.4,"aMS",%progbits,1
 532              		.align	2
 533              	.LC17:
 534 0000 73797374 		.ascii	"system: %04X\012\000"
 534      656D3A20 
 534      25303458 
 534      0A00
 535              		.text
 536              	.Letext0:
 537              		.file 2 "/usr/local/Caskroom/gcc-arm-embedded/7-2017-q4-major/gcc-arm-none-eabi-7-2017-q4-major/ar
 538              		.file 3 "/usr/local/Caskroom/gcc-arm-embedded/7-2017-q4-major/gcc-arm-none-eabi-7-2017-q4-major/ar
 539              		.file 4 "/usr/local/Caskroom/gcc-arm-embedded/7-2017-q4-major/gcc-arm-none-eabi-7-2017-q4-major/li
 540              		.file 5 "../../tmk_core/tool/chibios/ChibiOS/os/common/ports/ARMCMx/compilers/GCC/chtypes.h"
 541              		.file 6 "../../tmk_core/tool/chibios/ChibiOS/os/rt/include/chsystypes.h"
 542              		.file 7 "../../tmk_core/tool/chibios/ChibiOS/os/rt/include/chschd.h"
 543              		.file 8 "../../tmk_core/tool/chibios/ChibiOS-Contrib/os/common/ext/CMSIS/KINETIS/kl2xz.h"
 544              		.file 9 "../../tmk_core/tool/chibios/ChibiOS/os/common/ports/ARMCMx/chcore.h"
 545              		.file 10 "../../tmk_core/tool/chibios/ChibiOS/os/common/ports/ARMCMx/chcore_v6m.h"
 546              		.file 11 "../../tmk_core/tool/chibios/ChibiOS/os/rt/include/chsem.h"
 547              		.file 12 "../../tmk_core/tool/chibios/ChibiOS/os/rt/include/chmtx.h"
 548              		.file 13 "../../tmk_core/tool/chibios/ChibiOS/os/rt/include/chregistry.h"
 549              		.file 14 "../../tmk_core/tool/chibios/ChibiOS/os/rt/include/chsys.h"
 550              		.file 15 "../../tmk_core/tool/chibios/ChibiOS-Contrib/os/hal/ports/KINETIS/LLD/hal_pal_lld.h"
 551              		.file 16 "../../tmk_core/tool/chibios/ChibiOS/os/hal/include/hal_usb.h"
 552              		.file 17 "../../tmk_core/tool/chibios/ChibiOS-Contrib/os/hal/ports/KINETIS/LLD/hal_usb_lld.h"
 553              		.file 18 "../../tmk_core/common/report.h"
 554              		.file 19 "../../tmk_core/common/host_driver.h"
 555              		.file 20 "../../tmk_core/common/host.h"
 556              		.file 21 "../../tmk_core/common/debug.h"
 557              		.file 22 "../../tmk_core/common/chibios/printf.h"