ARM GAS  /var/folders/t8/16hdwfmd2fg_d3q6dgx6bpmw0000gn/T//ccQYZpjs.s 			page 1


   1              		.cpu cortex-m0plus
   2              		.eabi_attribute 20, 1
   3              		.eabi_attribute 21, 1
   4              		.eabi_attribute 23, 3
   5              		.eabi_attribute 24, 1
   6              		.eabi_attribute 25, 1
   7              		.eabi_attribute 26, 1
   8              		.eabi_attribute 30, 2
   9              		.eabi_attribute 34, 0
  10              		.eabi_attribute 18, 4
  11              		.file	"host.c"
  12              		.text
  13              	.Ltext0:
  14              		.cfi_sections	.debug_frame
  15              		.section	.text.host_set_driver,"ax",%progbits
  16              		.align	1
  17              		.p2align 4,,15
  18              		.global	host_set_driver
  19              		.syntax unified
  20              		.code	16
  21              		.thumb_func
  22              		.fpu softvfp
  23              		.type	host_set_driver, %function
  24              	host_set_driver:
  25              	.LFB174:
  26              		.file 1 "../../tmk_core/common/host.c"
  27              		.loc 1 36 0
  28              		.cfi_startproc
  29              		@ args = 0, pretend = 0, frame = 0
  30              		@ frame_needed = 0, uses_anonymous_args = 0
  31              		@ link register save eliminated.
  32              	.LVL0:
  33              		.loc 1 37 0
  34 0000 014B     		ldr	r3, .L3
  35              		.loc 1 38 0
  36              		@ sp needed
  37              		.loc 1 37 0
  38 0002 1860     		str	r0, [r3]
  39              		.loc 1 38 0
  40 0004 7047     		bx	lr
  41              	.L4:
  42 0006 C046     		.align	2
  43              	.L3:
  44 0008 00000000 		.word	.LANCHOR0
  45              		.cfi_endproc
  46              	.LFE174:
  47              		.size	host_set_driver, .-host_set_driver
  48              		.section	.text.host_get_driver,"ax",%progbits
  49              		.align	1
  50              		.p2align 4,,15
  51              		.global	host_get_driver
  52              		.syntax unified
  53              		.code	16
  54              		.thumb_func
  55              		.fpu softvfp
  56              		.type	host_get_driver, %function
  57              	host_get_driver:
ARM GAS  /var/folders/t8/16hdwfmd2fg_d3q6dgx6bpmw0000gn/T//ccQYZpjs.s 			page 2


  58              	.LFB175:
  59              		.loc 1 41 0
  60              		.cfi_startproc
  61              		@ args = 0, pretend = 0, frame = 0
  62              		@ frame_needed = 0, uses_anonymous_args = 0
  63              		@ link register save eliminated.
  64              		.loc 1 42 0
  65 0000 014B     		ldr	r3, .L6
  66              		.loc 1 43 0
  67              		@ sp needed
  68              		.loc 1 42 0
  69 0002 1868     		ldr	r0, [r3]
  70              		.loc 1 43 0
  71 0004 7047     		bx	lr
  72              	.L7:
  73 0006 C046     		.align	2
  74              	.L6:
  75 0008 00000000 		.word	.LANCHOR0
  76              		.cfi_endproc
  77              	.LFE175:
  78              		.size	host_get_driver, .-host_get_driver
  79              		.section	.text.host_keyboard_leds,"ax",%progbits
  80              		.align	1
  81              		.p2align 4,,15
  82              		.global	host_keyboard_leds
  83              		.syntax unified
  84              		.code	16
  85              		.thumb_func
  86              		.fpu softvfp
  87              		.type	host_keyboard_leds, %function
  88              	host_keyboard_leds:
  89              	.LFB176:
  90              		.loc 1 46 0
  91              		.cfi_startproc
  92              		@ args = 0, pretend = 0, frame = 0
  93              		@ frame_needed = 0, uses_anonymous_args = 0
  94              		.loc 1 47 0
  95 0000 044B     		ldr	r3, .L11
  96              		.loc 1 46 0
  97 0002 10B5     		push	{r4, lr}
  98              		.cfi_def_cfa_offset 8
  99              		.cfi_offset 4, -8
 100              		.cfi_offset 14, -4
 101              		.loc 1 47 0
 102 0004 1B68     		ldr	r3, [r3]
 103 0006 002B     		cmp	r3, #0
 104 0008 02D0     		beq	.L10
 105              		.loc 1 48 0
 106 000a 1B68     		ldr	r3, [r3]
 107 000c 9847     		blx	r3
 108              	.LVL1:
 109              	.L9:
 110              		.loc 1 49 0
 111              		@ sp needed
 112 000e 10BD     		pop	{r4, pc}
 113              	.L10:
 114              		.loc 1 47 0
ARM GAS  /var/folders/t8/16hdwfmd2fg_d3q6dgx6bpmw0000gn/T//ccQYZpjs.s 			page 3


 115 0010 0020     		movs	r0, #0
 116 0012 FCE7     		b	.L9
 117              	.L12:
 118              		.align	2
 119              	.L11:
 120 0014 00000000 		.word	.LANCHOR0
 121              		.cfi_endproc
 122              	.LFE176:
 123              		.size	host_keyboard_leds, .-host_keyboard_leds
 124              		.section	.text.host_keyboard_send,"ax",%progbits
 125              		.align	1
 126              		.p2align 4,,15
 127              		.global	host_keyboard_send
 128              		.syntax unified
 129              		.code	16
 130              		.thumb_func
 131              		.fpu softvfp
 132              		.type	host_keyboard_send, %function
 133              	host_keyboard_send:
 134              	.LFB177:
 135              		.loc 1 52 0
 136              		.cfi_startproc
 137              		@ args = 0, pretend = 0, frame = 0
 138              		@ frame_needed = 0, uses_anonymous_args = 0
 139              	.LVL2:
 140 0000 F0B5     		push	{r4, r5, r6, r7, lr}
 141              		.cfi_def_cfa_offset 20
 142              		.cfi_offset 4, -20
 143              		.cfi_offset 5, -16
 144              		.cfi_offset 6, -12
 145              		.cfi_offset 7, -8
 146              		.cfi_offset 14, -4
 147 0002 C646     		mov	lr, r8
 148              		.loc 1 53 0
 149 0004 184B     		ldr	r3, .L36
 150              		.loc 1 52 0
 151 0006 00B5     		push	{lr}
 152              		.cfi_def_cfa_offset 24
 153              		.cfi_offset 8, -24
 154              		.loc 1 53 0
 155 0008 1B68     		ldr	r3, [r3]
 156              		.loc 1 52 0
 157 000a 0400     		movs	r4, r0
 158              		.loc 1 53 0
 159 000c 002B     		cmp	r3, #0
 160 000e 1FD0     		beq	.L13
 161              		.loc 1 54 0
 162 0010 5B68     		ldr	r3, [r3, #4]
 163 0012 9847     		blx	r3
 164              	.LVL3:
 165              		.loc 1 56 0
 166 0014 154F     		ldr	r7, .L36+4
 167 0016 3A78     		ldrb	r2, [r7]
 168 0018 5307     		lsls	r3, r2, #29
 169 001a 19D5     		bpl	.L13
 170              		.loc 1 57 0
 171 001c D307     		lsls	r3, r2, #31
ARM GAS  /var/folders/t8/16hdwfmd2fg_d3q6dgx6bpmw0000gn/T//ccQYZpjs.s 			page 4


 172 001e 1ED4     		bmi	.L33
 173              	.L17:
 174 0020 2600     		movs	r6, r4
 175              	.LBB2:
 176              		.loc 1 59 0
 177 0022 134B     		ldr	r3, .L36+8
 178 0024 1036     		adds	r6, r6, #16
 179 0026 0125     		movs	r5, #1
 180 0028 9846     		mov	r8, r3
 181 002a 02E0     		b	.L19
 182              	.LVL4:
 183              	.L18:
 184 002c 0134     		adds	r4, r4, #1
 185              	.LVL5:
 186              		.loc 1 58 0 discriminator 2
 187 002e A642     		cmp	r6, r4
 188 0030 0CD0     		beq	.L34
 189              	.L19:
 190              	.LVL6:
 191              		.loc 1 59 0
 192 0032 2B00     		movs	r3, r5
 193 0034 1340     		ands	r3, r2
 194 0036 F9D0     		beq	.L18
 195              		.loc 1 59 0 is_stmt 0 discriminator 1
 196 0038 2178     		ldrb	r1, [r4]
 197 003a 4046     		mov	r0, r8
 198 003c FFF7FEFF 		bl	tfp_printf
 199              	.LVL7:
 200 0040 2B00     		movs	r3, r5
 201 0042 3A78     		ldrb	r2, [r7]
 202 0044 0134     		adds	r4, r4, #1
 203              	.LVL8:
 204 0046 1340     		ands	r3, r2
 205              		.loc 1 58 0 is_stmt 1 discriminator 1
 206 0048 A642     		cmp	r6, r4
 207 004a F2D1     		bne	.L19
 208              	.L34:
 209              	.LBE2:
 210              		.loc 1 61 0
 211 004c 002B     		cmp	r3, #0
 212 004e 02D1     		bne	.L35
 213              	.LVL9:
 214              	.L13:
 215              		.loc 1 63 0
 216              		@ sp needed
 217 0050 04BC     		pop	{r2}
 218 0052 9046     		mov	r8, r2
 219 0054 F0BD     		pop	{r4, r5, r6, r7, pc}
 220              	.LVL10:
 221              	.L35:
 222              		.loc 1 61 0 discriminator 1
 223 0056 0748     		ldr	r0, .L36+12
 224 0058 FFF7FEFF 		bl	tfp_printf
 225              	.LVL11:
 226 005c F8E7     		b	.L13
 227              	.LVL12:
 228              	.L33:
ARM GAS  /var/folders/t8/16hdwfmd2fg_d3q6dgx6bpmw0000gn/T//ccQYZpjs.s 			page 5


 229              		.loc 1 57 0 discriminator 1
 230 005e 0648     		ldr	r0, .L36+16
 231 0060 FFF7FEFF 		bl	tfp_printf
 232              	.LVL13:
 233 0064 3A78     		ldrb	r2, [r7]
 234 0066 DBE7     		b	.L17
 235              	.L37:
 236              		.align	2
 237              	.L36:
 238 0068 00000000 		.word	.LANCHOR0
 239 006c 00000000 		.word	debug_config
 240 0070 0C000000 		.word	.LC9
 241 0074 14000000 		.word	.LC11
 242 0078 00000000 		.word	.LC7
 243              		.cfi_endproc
 244              	.LFE177:
 245              		.size	host_keyboard_send, .-host_keyboard_send
 246              		.section	.text.host_mouse_send,"ax",%progbits
 247              		.align	1
 248              		.p2align 4,,15
 249              		.global	host_mouse_send
 250              		.syntax unified
 251              		.code	16
 252              		.thumb_func
 253              		.fpu softvfp
 254              		.type	host_mouse_send, %function
 255              	host_mouse_send:
 256              	.LFB178:
 257              		.loc 1 66 0
 258              		.cfi_startproc
 259              		@ args = 0, pretend = 0, frame = 0
 260              		@ frame_needed = 0, uses_anonymous_args = 0
 261              	.LVL14:
 262              		.loc 1 67 0
 263 0000 034B     		ldr	r3, .L43
 264              		.loc 1 66 0
 265 0002 10B5     		push	{r4, lr}
 266              		.cfi_def_cfa_offset 8
 267              		.cfi_offset 4, -8
 268              		.cfi_offset 14, -4
 269              		.loc 1 67 0
 270 0004 1B68     		ldr	r3, [r3]
 271 0006 002B     		cmp	r3, #0
 272 0008 01D0     		beq	.L38
 273              		.loc 1 68 0
 274 000a 9B68     		ldr	r3, [r3, #8]
 275 000c 9847     		blx	r3
 276              	.LVL15:
 277              	.L38:
 278              		.loc 1 69 0
 279              		@ sp needed
 280 000e 10BD     		pop	{r4, pc}
 281              	.L44:
 282              		.align	2
 283              	.L43:
 284 0010 00000000 		.word	.LANCHOR0
 285              		.cfi_endproc
ARM GAS  /var/folders/t8/16hdwfmd2fg_d3q6dgx6bpmw0000gn/T//ccQYZpjs.s 			page 6


 286              	.LFE178:
 287              		.size	host_mouse_send, .-host_mouse_send
 288              		.section	.text.host_system_send,"ax",%progbits
 289              		.align	1
 290              		.p2align 4,,15
 291              		.global	host_system_send
 292              		.syntax unified
 293              		.code	16
 294              		.thumb_func
 295              		.fpu softvfp
 296              		.type	host_system_send, %function
 297              	host_system_send:
 298              	.LFB179:
 299              		.loc 1 72 0
 300              		.cfi_startproc
 301              		@ args = 0, pretend = 0, frame = 0
 302              		@ frame_needed = 0, uses_anonymous_args = 0
 303              	.LVL16:
 304              		.loc 1 73 0
 305 0000 0C4B     		ldr	r3, .L53
 306              		.loc 1 72 0
 307 0002 10B5     		push	{r4, lr}
 308              		.cfi_def_cfa_offset 8
 309              		.cfi_offset 4, -8
 310              		.cfi_offset 14, -4
 311              		.loc 1 73 0
 312 0004 1A88     		ldrh	r2, [r3]
 313              		.loc 1 72 0
 314 0006 0400     		movs	r4, r0
 315              		.loc 1 73 0
 316 0008 8242     		cmp	r2, r0
 317 000a 0CD0     		beq	.L45
 318              		.loc 1 74 0
 319 000c 1880     		strh	r0, [r3]
 320              		.loc 1 76 0
 321 000e 0A4B     		ldr	r3, .L53+4
 322 0010 1B68     		ldr	r3, [r3]
 323 0012 002B     		cmp	r3, #0
 324 0014 07D0     		beq	.L45
 325              		.loc 1 77 0
 326 0016 DB68     		ldr	r3, [r3, #12]
 327 0018 9847     		blx	r3
 328              	.LVL17:
 329              		.loc 1 79 0
 330 001a 084B     		ldr	r3, .L53+8
 331              		.loc 1 80 0
 332 001c 1A78     		ldrb	r2, [r3]
 333 001e 0523     		movs	r3, #5
 334 0020 1340     		ands	r3, r2
 335 0022 052B     		cmp	r3, #5
 336 0024 00D0     		beq	.L52
 337              	.L45:
 338              		.loc 1 82 0
 339              		@ sp needed
 340 0026 10BD     		pop	{r4, pc}
 341              	.L52:
 342              		.loc 1 80 0 discriminator 1
ARM GAS  /var/folders/t8/16hdwfmd2fg_d3q6dgx6bpmw0000gn/T//ccQYZpjs.s 			page 7


 343 0028 2100     		movs	r1, r4
 344 002a 0548     		ldr	r0, .L53+12
 345 002c FFF7FEFF 		bl	tfp_printf
 346              	.LVL18:
 347 0030 F9E7     		b	.L45
 348              	.L54:
 349 0032 C046     		.align	2
 350              	.L53:
 351 0034 00000000 		.word	.LANCHOR1
 352 0038 00000000 		.word	.LANCHOR0
 353 003c 00000000 		.word	debug_config
 354 0040 00000000 		.word	.LC17
 355              		.cfi_endproc
 356              	.LFE179:
 357              		.size	host_system_send, .-host_system_send
 358              		.section	.text.host_consumer_send,"ax",%progbits
 359              		.align	1
 360              		.p2align 4,,15
 361              		.global	host_consumer_send
 362              		.syntax unified
 363              		.code	16
 364              		.thumb_func
 365              		.fpu softvfp
 366              		.type	host_consumer_send, %function
 367              	host_consumer_send:
 368              	.LFB180:
 369              		.loc 1 85 0
 370              		.cfi_startproc
 371              		@ args = 0, pretend = 0, frame = 0
 372              		@ frame_needed = 0, uses_anonymous_args = 0
 373              	.LVL19:
 374              		.loc 1 86 0
 375 0000 0C4B     		ldr	r3, .L63
 376              		.loc 1 85 0
 377 0002 10B5     		push	{r4, lr}
 378              		.cfi_def_cfa_offset 8
 379              		.cfi_offset 4, -8
 380              		.cfi_offset 14, -4
 381              		.loc 1 86 0
 382 0004 1A88     		ldrh	r2, [r3]
 383              		.loc 1 85 0
 384 0006 0400     		movs	r4, r0
 385              		.loc 1 86 0
 386 0008 8242     		cmp	r2, r0
 387 000a 0CD0     		beq	.L55
 388              		.loc 1 87 0
 389 000c 1880     		strh	r0, [r3]
 390              		.loc 1 89 0
 391 000e 0A4B     		ldr	r3, .L63+4
 392 0010 1B68     		ldr	r3, [r3]
 393 0012 002B     		cmp	r3, #0
 394 0014 07D0     		beq	.L55
 395              		.loc 1 90 0
 396 0016 1B69     		ldr	r3, [r3, #16]
 397 0018 9847     		blx	r3
 398              	.LVL20:
 399              		.loc 1 92 0
ARM GAS  /var/folders/t8/16hdwfmd2fg_d3q6dgx6bpmw0000gn/T//ccQYZpjs.s 			page 8


 400 001a 084B     		ldr	r3, .L63+8
 401              		.loc 1 93 0
 402 001c 1A78     		ldrb	r2, [r3]
 403 001e 0523     		movs	r3, #5
 404 0020 1340     		ands	r3, r2
 405 0022 052B     		cmp	r3, #5
 406 0024 00D0     		beq	.L62
 407              	.L55:
 408              		.loc 1 95 0
 409              		@ sp needed
 410 0026 10BD     		pop	{r4, pc}
 411              	.L62:
 412              		.loc 1 93 0 discriminator 1
 413 0028 2100     		movs	r1, r4
 414 002a 0548     		ldr	r0, .L63+12
 415 002c FFF7FEFF 		bl	tfp_printf
 416              	.LVL21:
 417 0030 F9E7     		b	.L55
 418              	.L64:
 419 0032 C046     		.align	2
 420              	.L63:
 421 0034 00000000 		.word	.LANCHOR2
 422 0038 00000000 		.word	.LANCHOR0
 423 003c 00000000 		.word	debug_config
 424 0040 00000000 		.word	.LC22
 425              		.cfi_endproc
 426              	.LFE180:
 427              		.size	host_consumer_send, .-host_consumer_send
 428              		.section	.text.host_last_system_report,"ax",%progbits
 429              		.align	1
 430              		.p2align 4,,15
 431              		.global	host_last_system_report
 432              		.syntax unified
 433              		.code	16
 434              		.thumb_func
 435              		.fpu softvfp
 436              		.type	host_last_system_report, %function
 437              	host_last_system_report:
 438              	.LFB181:
 439              		.loc 1 98 0
 440              		.cfi_startproc
 441              		@ args = 0, pretend = 0, frame = 0
 442              		@ frame_needed = 0, uses_anonymous_args = 0
 443              		@ link register save eliminated.
 444              		.loc 1 99 0
 445 0000 014B     		ldr	r3, .L66
 446              		.loc 1 100 0
 447              		@ sp needed
 448              		.loc 1 99 0
 449 0002 1888     		ldrh	r0, [r3]
 450              		.loc 1 100 0
 451 0004 7047     		bx	lr
 452              	.L67:
 453 0006 C046     		.align	2
 454              	.L66:
 455 0008 00000000 		.word	.LANCHOR1
 456              		.cfi_endproc
ARM GAS  /var/folders/t8/16hdwfmd2fg_d3q6dgx6bpmw0000gn/T//ccQYZpjs.s 			page 9


 457              	.LFE181:
 458              		.size	host_last_system_report, .-host_last_system_report
 459              		.section	.text.host_last_consumer_report,"ax",%progbits
 460              		.align	1
 461              		.p2align 4,,15
 462              		.global	host_last_consumer_report
 463              		.syntax unified
 464              		.code	16
 465              		.thumb_func
 466              		.fpu softvfp
 467              		.type	host_last_consumer_report, %function
 468              	host_last_consumer_report:
 469              	.LFB182:
 470              		.loc 1 103 0
 471              		.cfi_startproc
 472              		@ args = 0, pretend = 0, frame = 0
 473              		@ frame_needed = 0, uses_anonymous_args = 0
 474              		@ link register save eliminated.
 475              		.loc 1 104 0
 476 0000 014B     		ldr	r3, .L69
 477              		.loc 1 105 0
 478              		@ sp needed
 479              		.loc 1 104 0
 480 0002 1888     		ldrh	r0, [r3]
 481              		.loc 1 105 0
 482 0004 7047     		bx	lr
 483              	.L70:
 484 0006 C046     		.align	2
 485              	.L69:
 486 0008 00000000 		.word	.LANCHOR2
 487              		.cfi_endproc
 488              	.LFE182:
 489              		.size	host_last_consumer_report, .-host_last_consumer_report
 490              		.global	keyboard_nkro
 491              		.section	.bss.driver,"aw",%nobits
 492              		.align	2
 493              		.set	.LANCHOR0,. + 0
 494              		.type	driver, %object
 495              		.size	driver, 4
 496              	driver:
 497 0000 00000000 		.space	4
 498              		.section	.bss.last_consumer_report,"aw",%nobits
 499              		.align	1
 500              		.set	.LANCHOR2,. + 0
 501              		.type	last_consumer_report, %object
 502              		.size	last_consumer_report, 2
 503              	last_consumer_report:
 504 0000 0000     		.space	2
 505              		.section	.bss.last_system_report,"aw",%nobits
 506              		.align	1
 507              		.set	.LANCHOR1,. + 0
 508              		.type	last_system_report, %object
 509              		.size	last_system_report, 2
 510              	last_system_report:
 511 0000 0000     		.space	2
 512              		.section	.data.keyboard_nkro,"aw",%progbits
 513              		.type	keyboard_nkro, %object
ARM GAS  /var/folders/t8/16hdwfmd2fg_d3q6dgx6bpmw0000gn/T//ccQYZpjs.s 			page 10


 514              		.size	keyboard_nkro, 1
 515              	keyboard_nkro:
 516 0000 01       		.byte	1
 517              		.section	.rodata.host_consumer_send.str1.4,"aMS",%progbits,1
 518              		.align	2
 519              	.LC22:
 520 0000 636F6E73 		.ascii	"consumer: %04X\012\000"
 520      756D6572 
 520      3A202530 
 520      34580A00 
 521              		.section	.rodata.host_keyboard_send.str1.4,"aMS",%progbits,1
 522              		.align	2
 523              	.LC7:
 524 0000 6B657962 		.ascii	"keyboard: \000"
 524      6F617264 
 524      3A2000
 525 000b 00       		.space	1
 526              	.LC9:
 527 000c 25303258 		.ascii	"%02X \000"
 527      2000
 528 0012 0000     		.space	2
 529              	.LC11:
 530 0014 0A00     		.ascii	"\012\000"
 531              		.section	.rodata.host_system_send.str1.4,"aMS",%progbits,1
 532              		.align	2
 533              	.LC17:
 534 0000 73797374 		.ascii	"system: %04X\012\000"
 534      656D3A20 
 534      25303458 
 534      0A00
 535              		.text
 536              	.Letext0:
 537              		.file 2 "/usr/local/Caskroom/gcc-arm-embedded/7-2017-q4-major/gcc-arm-none-eabi-7-2017-q4-major/ar
 538              		.file 3 "/usr/local/Caskroom/gcc-arm-embedded/7-2017-q4-major/gcc-arm-none-eabi-7-2017-q4-major/ar
 539              		.file 4 "/usr/local/Caskroom/gcc-arm-embedded/7-2017-q4-major/gcc-arm-none-eabi-7-2017-q4-major/li
 540              		.file 5 "../../tmk_core/tool/chibios/ChibiOS/os/common/ports/ARMCMx/compilers/GCC/chtypes.h"
 541              		.file 6 "../../tmk_core/tool/chibios/ChibiOS/os/rt/include/chsystypes.h"
 542              		.file 7 "../../tmk_core/tool/chibios/ChibiOS/os/rt/include/chschd.h"
 543              		.file 8 "../../tmk_core/tool/chibios/ChibiOS-Contrib/os/common/ext/CMSIS/KINETIS/kl2xz.h"
 544              		.file 9 "../../tmk_core/tool/chibios/ChibiOS/os/common/ports/ARMCMx/chcore.h"
 545              		.file 10 "../../tmk_core/tool/chibios/ChibiOS/os/common/ports/ARMCMx/chcore_v6m.h"
 546              		.file 11 "../../tmk_core/tool/chibios/ChibiOS/os/rt/include/chsem.h"
 547              		.file 12 "../../tmk_core/tool/chibios/ChibiOS/os/rt/include/chmtx.h"
 548              		.file 13 "../../tmk_core/tool/chibios/ChibiOS/os/rt/include/chregistry.h"
 549              		.file 14 "../../tmk_core/tool/chibios/ChibiOS/os/rt/include/chsys.h"
 550              		.file 15 "../../tmk_core/tool/chibios/ChibiOS-Contrib/os/hal/ports/KINETIS/LLD/hal_pal_lld.h"
 551              		.file 16 "../../tmk_core/tool/chibios/ChibiOS/os/hal/include/hal_usb.h"
 552              		.file 17 "../../tmk_core/tool/chibios/ChibiOS-Contrib/os/hal/ports/KINETIS/LLD/hal_usb_lld.h"
 553              		.file 18 "../../tmk_core/common/report.h"
 554              		.file 19 "../../tmk_core/common/host_driver.h"
 555              		.file 20 "../../tmk_core/common/host.h"
 556              		.file 21 "../../tmk_core/common/debug.h"
 557              		.file 22 "../../tmk_core/common/chibios/printf.h"
 558              		.section	.debug_info,"",%progbits
 559              	.Ldebug_info0:
 560 0000 5B110000 		.4byte	0x115b
 561 0004 0400     		.2byte	0x4
ARM GAS  /var/folders/t8/16hdwfmd2fg_d3q6dgx6bpmw0000gn/T//ccQYZpjs.s 			page 11


 562 0006 00000000 		.4byte	.Ldebug_abbrev0
 563 000a 04       		.byte	0x4
 564 000b 01       		.uleb128 0x1
 565 000c 74010000 		.4byte	.LASF244
 566 0010 0C       		.byte	0xc
 567 0011 36050000 		.4byte	.LASF245
 568 0015 8A020000 		.4byte	.LASF246
 569 0019 00000000 		.4byte	.Ldebug_ranges0+0
 570 001d 00000000 		.4byte	0
 571 0021 00000000 		.4byte	.Ldebug_line0
 572 0025 02       		.uleb128 0x2
 573 0026 19080000 		.4byte	.LASF0
 574 002a 02       		.byte	0x2
 575 002b 29       		.byte	0x29
 576 002c 30000000 		.4byte	0x30
 577 0030 03       		.uleb128 0x3
 578 0031 01       		.byte	0x1
 579 0032 06       		.byte	0x6
 580 0033 24030000 		.4byte	.LASF2
 581 0037 02       		.uleb128 0x2
 582 0038 03010000 		.4byte	.LASF1
 583 003c 02       		.byte	0x2
 584 003d 2B       		.byte	0x2b
 585 003e 42000000 		.4byte	0x42
 586 0042 03       		.uleb128 0x3
 587 0043 01       		.byte	0x1
 588 0044 08       		.byte	0x8
 589 0045 7F030000 		.4byte	.LASF3
 590 0049 03       		.uleb128 0x3
 591 004a 02       		.byte	0x2
 592 004b 05       		.byte	0x5
 593 004c B4090000 		.4byte	.LASF4
 594 0050 02       		.uleb128 0x2
 595 0051 F0030000 		.4byte	.LASF5
 596 0055 02       		.byte	0x2
 597 0056 39       		.byte	0x39
 598 0057 5B000000 		.4byte	0x5b
 599 005b 03       		.uleb128 0x3
 600 005c 02       		.byte	0x2
 601 005d 07       		.byte	0x7
 602 005e DD0A0000 		.4byte	.LASF6
 603 0062 02       		.uleb128 0x2
 604 0063 3E0B0000 		.4byte	.LASF7
 605 0067 02       		.byte	0x2
 606 0068 4D       		.byte	0x4d
 607 0069 6D000000 		.4byte	0x6d
 608 006d 03       		.uleb128 0x3
 609 006e 04       		.byte	0x4
 610 006f 05       		.byte	0x5
 611 0070 3D010000 		.4byte	.LASF8
 612 0074 02       		.uleb128 0x2
 613 0075 6A060000 		.4byte	.LASF9
 614 0079 02       		.byte	0x2
 615 007a 4F       		.byte	0x4f
 616 007b 7F000000 		.4byte	0x7f
 617 007f 03       		.uleb128 0x3
 618 0080 04       		.byte	0x4
ARM GAS  /var/folders/t8/16hdwfmd2fg_d3q6dgx6bpmw0000gn/T//ccQYZpjs.s 			page 12


 619 0081 07       		.byte	0x7
 620 0082 53050000 		.4byte	.LASF10
 621 0086 03       		.uleb128 0x3
 622 0087 08       		.byte	0x8
 623 0088 05       		.byte	0x5
 624 0089 8B060000 		.4byte	.LASF11
 625 008d 02       		.uleb128 0x2
 626 008e 12050000 		.4byte	.LASF12
 627 0092 02       		.byte	0x2
 628 0093 69       		.byte	0x69
 629 0094 98000000 		.4byte	0x98
 630 0098 03       		.uleb128 0x3
 631 0099 08       		.byte	0x8
 632 009a 07       		.byte	0x7
 633 009b 27080000 		.4byte	.LASF13
 634 009f 04       		.uleb128 0x4
 635 00a0 04       		.byte	0x4
 636 00a1 05       		.byte	0x5
 637 00a2 696E7400 		.ascii	"int\000"
 638 00a6 03       		.uleb128 0x3
 639 00a7 04       		.byte	0x4
 640 00a8 07       		.byte	0x7
 641 00a9 01070000 		.4byte	.LASF14
 642 00ad 02       		.uleb128 0x2
 643 00ae 1A000000 		.4byte	.LASF15
 644 00b2 03       		.byte	0x3
 645 00b3 14       		.byte	0x14
 646 00b4 25000000 		.4byte	0x25
 647 00b8 02       		.uleb128 0x2
 648 00b9 37030000 		.4byte	.LASF16
 649 00bd 03       		.byte	0x3
 650 00be 18       		.byte	0x18
 651 00bf 37000000 		.4byte	0x37
 652 00c3 05       		.uleb128 0x5
 653 00c4 B8000000 		.4byte	0xb8
 654 00c8 02       		.uleb128 0x2
 655 00c9 56080000 		.4byte	.LASF17
 656 00cd 03       		.byte	0x3
 657 00ce 24       		.byte	0x24
 658 00cf 50000000 		.4byte	0x50
 659 00d3 02       		.uleb128 0x2
 660 00d4 61000000 		.4byte	.LASF18
 661 00d8 03       		.byte	0x3
 662 00d9 2C       		.byte	0x2c
 663 00da 62000000 		.4byte	0x62
 664 00de 02       		.uleb128 0x2
 665 00df B50A0000 		.4byte	.LASF19
 666 00e3 03       		.byte	0x3
 667 00e4 30       		.byte	0x30
 668 00e5 74000000 		.4byte	0x74
 669 00e9 06       		.uleb128 0x6
 670 00ea DE000000 		.4byte	0xde
 671 00ee 02       		.uleb128 0x2
 672 00ef BE090000 		.4byte	.LASF20
 673 00f3 03       		.byte	0x3
 674 00f4 3C       		.byte	0x3c
 675 00f5 8D000000 		.4byte	0x8d
ARM GAS  /var/folders/t8/16hdwfmd2fg_d3q6dgx6bpmw0000gn/T//ccQYZpjs.s 			page 13


 676 00f9 02       		.uleb128 0x2
 677 00fa 21000000 		.4byte	.LASF21
 678 00fe 04       		.byte	0x4
 679 00ff D8       		.byte	0xd8
 680 0100 A6000000 		.4byte	0xa6
 681 0104 02       		.uleb128 0x2
 682 0105 72090000 		.4byte	.LASF22
 683 0109 05       		.byte	0x5
 684 010a 3C       		.byte	0x3c
 685 010b B8000000 		.4byte	0xb8
 686 010f 02       		.uleb128 0x2
 687 0110 62010000 		.4byte	.LASF23
 688 0114 05       		.byte	0x5
 689 0115 3D       		.byte	0x3d
 690 0116 B8000000 		.4byte	0xb8
 691 011a 02       		.uleb128 0x2
 692 011b 670A0000 		.4byte	.LASF24
 693 011f 05       		.byte	0x5
 694 0120 3E       		.byte	0x3e
 695 0121 B8000000 		.4byte	0xb8
 696 0125 02       		.uleb128 0x2
 697 0126 7F080000 		.4byte	.LASF25
 698 012a 05       		.byte	0x5
 699 012b 3F       		.byte	0x3f
 700 012c B8000000 		.4byte	0xb8
 701 0130 02       		.uleb128 0x2
 702 0131 4B000000 		.4byte	.LASF26
 703 0135 05       		.byte	0x5
 704 0136 40       		.byte	0x40
 705 0137 DE000000 		.4byte	0xde
 706 013b 02       		.uleb128 0x2
 707 013c 68080000 		.4byte	.LASF27
 708 0140 05       		.byte	0x5
 709 0141 41       		.byte	0x41
 710 0142 D3000000 		.4byte	0xd3
 711 0146 02       		.uleb128 0x2
 712 0147 66030000 		.4byte	.LASF28
 713 014b 05       		.byte	0x5
 714 014c 43       		.byte	0x43
 715 014d DE000000 		.4byte	0xde
 716 0151 02       		.uleb128 0x2
 717 0152 83040000 		.4byte	.LASF29
 718 0156 05       		.byte	0x5
 719 0157 45       		.byte	0x45
 720 0158 D3000000 		.4byte	0xd3
 721 015c 02       		.uleb128 0x2
 722 015d 2F000000 		.4byte	.LASF30
 723 0161 06       		.byte	0x6
 724 0162 33       		.byte	0x33
 725 0163 DE000000 		.4byte	0xde
 726 0167 06       		.uleb128 0x6
 727 0168 5C010000 		.4byte	0x15c
 728 016c 02       		.uleb128 0x2
 729 016d 92070000 		.4byte	.LASF31
 730 0171 06       		.byte	0x6
 731 0172 3F       		.byte	0x3f
 732 0173 77010000 		.4byte	0x177
ARM GAS  /var/folders/t8/16hdwfmd2fg_d3q6dgx6bpmw0000gn/T//ccQYZpjs.s 			page 14


 733 0177 07       		.uleb128 0x7
 734 0178 A8050000 		.4byte	.LASF50
 735 017c 44       		.byte	0x44
 736 017d 07       		.byte	0x7
 737 017e 9A       		.byte	0x9a
 738 017f 61020000 		.4byte	0x261
 739 0183 08       		.uleb128 0x8
 740 0184 D1080000 		.4byte	.LASF32
 741 0188 07       		.byte	0x7
 742 0189 9B       		.byte	0x9b
 743 018a 96020000 		.4byte	0x296
 744 018e 00       		.byte	0
 745 018f 08       		.uleb128 0x8
 746 0190 DE000000 		.4byte	.LASF33
 747 0194 07       		.byte	0x7
 748 0195 9C       		.byte	0x9c
 749 0196 30010000 		.4byte	0x130
 750 019a 08       		.byte	0x8
 751 019b 09       		.uleb128 0x9
 752 019c 63747800 		.ascii	"ctx\000"
 753 01a0 07       		.byte	0x7
 754 01a1 9D       		.byte	0x9d
 755 01a2 F1040000 		.4byte	0x4f1
 756 01a6 0C       		.byte	0xc
 757 01a7 08       		.uleb128 0x8
 758 01a8 9C0A0000 		.4byte	.LASF34
 759 01ac 07       		.byte	0x7
 760 01ad 9F       		.byte	0x9f
 761 01ae 6C020000 		.4byte	0x26c
 762 01b2 10       		.byte	0x10
 763 01b3 08       		.uleb128 0x8
 764 01b4 FC050000 		.4byte	.LASF35
 765 01b8 07       		.byte	0x7
 766 01b9 A0       		.byte	0xa0
 767 01ba 6C020000 		.4byte	0x26c
 768 01be 14       		.byte	0x14
 769 01bf 08       		.uleb128 0x8
 770 01c0 A5090000 		.4byte	.LASF36
 771 01c4 07       		.byte	0x7
 772 01c5 A7       		.byte	0xa7
 773 01c6 4C060000 		.4byte	0x64c
 774 01ca 18       		.byte	0x18
 775 01cb 08       		.uleb128 0x8
 776 01cc 2A090000 		.4byte	.LASF37
 777 01d0 07       		.byte	0x7
 778 01d1 B0       		.byte	0xb0
 779 01d2 63060000 		.4byte	0x663
 780 01d6 1C       		.byte	0x1c
 781 01d7 08       		.uleb128 0x8
 782 01d8 B2000000 		.4byte	.LASF38
 783 01dc 07       		.byte	0x7
 784 01dd B5       		.byte	0xb5
 785 01de 0F010000 		.4byte	0x10f
 786 01e2 20       		.byte	0x20
 787 01e3 08       		.uleb128 0x8
 788 01e4 28040000 		.4byte	.LASF39
 789 01e8 07       		.byte	0x7
ARM GAS  /var/folders/t8/16hdwfmd2fg_d3q6dgx6bpmw0000gn/T//ccQYZpjs.s 			page 15


 790 01e9 B9       		.byte	0xb9
 791 01ea 04010000 		.4byte	0x104
 792 01ee 21       		.byte	0x21
 793 01ef 08       		.uleb128 0x8
 794 01f0 CC080000 		.4byte	.LASF40
 795 01f4 07       		.byte	0x7
 796 01f5 BE       		.byte	0xbe
 797 01f6 1A010000 		.4byte	0x11a
 798 01fa 22       		.byte	0x22
 799 01fb 08       		.uleb128 0x8
 800 01fc D4060000 		.4byte	.LASF41
 801 0200 07       		.byte	0x7
 802 0201 C4       		.byte	0xc4
 803 0202 25010000 		.4byte	0x125
 804 0206 23       		.byte	0x23
 805 0207 0A       		.uleb128 0xa
 806 0208 7500     		.ascii	"u\000"
 807 020a 07       		.byte	0x7
 808 020b 0F01     		.2byte	0x10f
 809 020d 81050000 		.4byte	0x581
 810 0211 24       		.byte	0x24
 811 0212 0B       		.uleb128 0xb
 812 0213 510A0000 		.4byte	.LASF42
 813 0217 07       		.byte	0x7
 814 0218 1401     		.2byte	0x114
 815 021a 72020000 		.4byte	0x272
 816 021e 28       		.byte	0x28
 817 021f 0B       		.uleb128 0xb
 818 0220 DF090000 		.4byte	.LASF43
 819 0224 07       		.byte	0x7
 820 0225 1A01     		.2byte	0x11a
 821 0227 96020000 		.4byte	0x296
 822 022b 2C       		.byte	0x2c
 823 022c 0B       		.uleb128 0xb
 824 022d 6B010000 		.4byte	.LASF44
 825 0231 07       		.byte	0x7
 826 0232 2001     		.2byte	0x120
 827 0234 46010000 		.4byte	0x146
 828 0238 34       		.byte	0x34
 829 0239 0B       		.uleb128 0xb
 830 023a 83060000 		.4byte	.LASF45
 831 023e 07       		.byte	0x7
 832 023f 2701     		.2byte	0x127
 833 0241 46060000 		.4byte	0x646
 834 0245 38       		.byte	0x38
 835 0246 0B       		.uleb128 0xb
 836 0247 09060000 		.4byte	.LASF46
 837 024b 07       		.byte	0x7
 838 024c 2B01     		.2byte	0x12b
 839 024e 30010000 		.4byte	0x130
 840 0252 3C       		.byte	0x3c
 841 0253 0B       		.uleb128 0xb
 842 0254 3F040000 		.4byte	.LASF47
 843 0258 07       		.byte	0x7
 844 0259 3201     		.2byte	0x132
 845 025b 49030000 		.4byte	0x349
 846 025f 40       		.byte	0x40
ARM GAS  /var/folders/t8/16hdwfmd2fg_d3q6dgx6bpmw0000gn/T//ccQYZpjs.s 			page 16


 847 0260 00       		.byte	0
 848 0261 02       		.uleb128 0x2
 849 0262 A6070000 		.4byte	.LASF48
 850 0266 06       		.byte	0x6
 851 0267 44       		.byte	0x44
 852 0268 6C020000 		.4byte	0x26c
 853 026c 0C       		.uleb128 0xc
 854 026d 04       		.byte	0x4
 855 026e 6C010000 		.4byte	0x16c
 856 0272 02       		.uleb128 0x2
 857 0273 7C0A0000 		.4byte	.LASF49
 858 0277 06       		.byte	0x6
 859 0278 49       		.byte	0x49
 860 0279 7D020000 		.4byte	0x27d
 861 027d 07       		.uleb128 0x7
 862 027e 31060000 		.4byte	.LASF51
 863 0282 04       		.byte	0x4
 864 0283 07       		.byte	0x7
 865 0284 88       		.byte	0x88
 866 0285 96020000 		.4byte	0x296
 867 0289 08       		.uleb128 0x8
 868 028a 770B0000 		.4byte	.LASF52
 869 028e 07       		.byte	0x7
 870 028f 89       		.byte	0x89
 871 0290 6C020000 		.4byte	0x26c
 872 0294 00       		.byte	0
 873 0295 00       		.byte	0
 874 0296 02       		.uleb128 0x2
 875 0297 5D020000 		.4byte	.LASF53
 876 029b 06       		.byte	0x6
 877 029c 50       		.byte	0x50
 878 029d A1020000 		.4byte	0x2a1
 879 02a1 07       		.uleb128 0x7
 880 02a2 6E080000 		.4byte	.LASF54
 881 02a6 08       		.byte	0x8
 882 02a7 07       		.byte	0x7
 883 02a8 8F       		.byte	0x8f
 884 02a9 C6020000 		.4byte	0x2c6
 885 02ad 08       		.uleb128 0x8
 886 02ae 770B0000 		.4byte	.LASF52
 887 02b2 07       		.byte	0x7
 888 02b3 90       		.byte	0x90
 889 02b4 6C020000 		.4byte	0x26c
 890 02b8 00       		.byte	0
 891 02b9 08       		.uleb128 0x8
 892 02ba 830B0000 		.4byte	.LASF55
 893 02be 07       		.byte	0x7
 894 02bf 91       		.byte	0x91
 895 02c0 6C020000 		.4byte	0x26c
 896 02c4 04       		.byte	0x4
 897 02c5 00       		.byte	0
 898 02c6 02       		.uleb128 0x2
 899 02c7 EF050000 		.4byte	.LASF56
 900 02cb 06       		.byte	0x6
 901 02cc 57       		.byte	0x57
 902 02cd D1020000 		.4byte	0x2d1
 903 02d1 0D       		.uleb128 0xd
ARM GAS  /var/folders/t8/16hdwfmd2fg_d3q6dgx6bpmw0000gn/T//ccQYZpjs.s 			page 17


 904 02d2 AF040000 		.4byte	.LASF57
 905 02d6 1C       		.byte	0x1c
 906 02d7 07       		.byte	0x7
 907 02d8 6A01     		.2byte	0x16a
 908 02da 2D030000 		.4byte	0x32d
 909 02de 0B       		.uleb128 0xb
 910 02df D1080000 		.4byte	.LASF32
 911 02e3 07       		.byte	0x7
 912 02e4 6B01     		.2byte	0x16b
 913 02e6 96020000 		.4byte	0x296
 914 02ea 00       		.byte	0
 915 02eb 0B       		.uleb128 0xb
 916 02ec DE000000 		.4byte	.LASF33
 917 02f0 07       		.byte	0x7
 918 02f1 6C01     		.2byte	0x16c
 919 02f3 30010000 		.4byte	0x130
 920 02f7 08       		.byte	0x8
 921 02f8 0A       		.uleb128 0xa
 922 02f9 63747800 		.ascii	"ctx\000"
 923 02fd 07       		.byte	0x7
 924 02fe 6E01     		.2byte	0x16e
 925 0300 F1040000 		.4byte	0x4f1
 926 0304 0C       		.byte	0xc
 927 0305 0B       		.uleb128 0xb
 928 0306 9C0A0000 		.4byte	.LASF34
 929 030a 07       		.byte	0x7
 930 030b 7101     		.2byte	0x171
 931 030d 6C020000 		.4byte	0x26c
 932 0311 10       		.byte	0x10
 933 0312 0B       		.uleb128 0xb
 934 0313 FC050000 		.4byte	.LASF35
 935 0317 07       		.byte	0x7
 936 0318 7201     		.2byte	0x172
 937 031a 6C020000 		.4byte	0x26c
 938 031e 14       		.byte	0x14
 939 031f 0B       		.uleb128 0xb
 940 0320 35070000 		.4byte	.LASF58
 941 0324 07       		.byte	0x7
 942 0325 7501     		.2byte	0x175
 943 0327 6C020000 		.4byte	0x26c
 944 032b 18       		.byte	0x18
 945 032c 00       		.byte	0
 946 032d 02       		.uleb128 0x2
 947 032e 69000000 		.4byte	.LASF59
 948 0332 06       		.byte	0x6
 949 0333 5C       		.byte	0x5c
 950 0334 38030000 		.4byte	0x338
 951 0338 0C       		.uleb128 0xc
 952 0339 04       		.byte	0x4
 953 033a 3E030000 		.4byte	0x33e
 954 033e 0E       		.uleb128 0xe
 955 033f 49030000 		.4byte	0x349
 956 0343 0F       		.uleb128 0xf
 957 0344 49030000 		.4byte	0x349
 958 0348 00       		.byte	0
 959 0349 10       		.uleb128 0x10
 960 034a 04       		.byte	0x4
ARM GAS  /var/folders/t8/16hdwfmd2fg_d3q6dgx6bpmw0000gn/T//ccQYZpjs.s 			page 18


 961 034b 02       		.uleb128 0x2
 962 034c DF050000 		.4byte	.LASF60
 963 0350 06       		.byte	0x6
 964 0351 61       		.byte	0x61
 965 0352 56030000 		.4byte	0x356
 966 0356 0D       		.uleb128 0xd
 967 0357 F4070000 		.4byte	.LASF61
 968 035b 14       		.byte	0x14
 969 035c 07       		.byte	0x7
 970 035d 4501     		.2byte	0x145
 971 035f A5030000 		.4byte	0x3a5
 972 0363 0B       		.uleb128 0xb
 973 0364 770B0000 		.4byte	.LASF52
 974 0368 07       		.byte	0x7
 975 0369 4601     		.2byte	0x146
 976 036b 69060000 		.4byte	0x669
 977 036f 00       		.byte	0
 978 0370 0B       		.uleb128 0xb
 979 0371 830B0000 		.4byte	.LASF55
 980 0375 07       		.byte	0x7
 981 0376 4701     		.2byte	0x147
 982 0378 69060000 		.4byte	0x669
 983 037c 04       		.byte	0x4
 984 037d 0B       		.uleb128 0xb
 985 037e 95080000 		.4byte	.LASF62
 986 0382 07       		.byte	0x7
 987 0383 4801     		.2byte	0x148
 988 0385 5C010000 		.4byte	0x15c
 989 0389 08       		.byte	0x8
 990 038a 0B       		.uleb128 0xb
 991 038b C7090000 		.4byte	.LASF63
 992 038f 07       		.byte	0x7
 993 0390 4901     		.2byte	0x149
 994 0392 2D030000 		.4byte	0x32d
 995 0396 0C       		.byte	0xc
 996 0397 0A       		.uleb128 0xa
 997 0398 70617200 		.ascii	"par\000"
 998 039c 07       		.byte	0x7
 999 039d 4B01     		.2byte	0x14b
 1000 039f 49030000 		.4byte	0x349
 1001 03a3 10       		.byte	0x10
 1002 03a4 00       		.byte	0
 1003 03a5 02       		.uleb128 0x2
 1004 03a6 B2050000 		.4byte	.LASF64
 1005 03aa 06       		.byte	0x6
 1006 03ab 66       		.byte	0x66
 1007 03ac B0030000 		.4byte	0x3b0
 1008 03b0 0D       		.uleb128 0xd
 1009 03b1 80000000 		.4byte	.LASF65
 1010 03b5 10       		.byte	0x10
 1011 03b6 07       		.byte	0x7
 1012 03b7 5501     		.2byte	0x155
 1013 03b9 F2030000 		.4byte	0x3f2
 1014 03bd 0B       		.uleb128 0xb
 1015 03be 770B0000 		.4byte	.LASF52
 1016 03c2 07       		.byte	0x7
 1017 03c3 5601     		.2byte	0x156
ARM GAS  /var/folders/t8/16hdwfmd2fg_d3q6dgx6bpmw0000gn/T//ccQYZpjs.s 			page 19


 1018 03c5 69060000 		.4byte	0x669
 1019 03c9 00       		.byte	0
 1020 03ca 0B       		.uleb128 0xb
 1021 03cb 830B0000 		.4byte	.LASF55
 1022 03cf 07       		.byte	0x7
 1023 03d0 5801     		.2byte	0x158
 1024 03d2 69060000 		.4byte	0x669
 1025 03d6 04       		.byte	0x4
 1026 03d7 0B       		.uleb128 0xb
 1027 03d8 95080000 		.4byte	.LASF62
 1028 03dc 07       		.byte	0x7
 1029 03dd 5A01     		.2byte	0x15a
 1030 03df 5C010000 		.4byte	0x15c
 1031 03e3 08       		.byte	0x8
 1032 03e4 0B       		.uleb128 0xb
 1033 03e5 13010000 		.4byte	.LASF66
 1034 03e9 07       		.byte	0x7
 1035 03ea 5C01     		.2byte	0x15c
 1036 03ec 67010000 		.4byte	0x167
 1037 03f0 0C       		.byte	0xc
 1038 03f1 00       		.byte	0
 1039 03f2 02       		.uleb128 0x2
 1040 03f3 AE030000 		.4byte	.LASF67
 1041 03f7 06       		.byte	0x6
 1042 03f8 6B       		.byte	0x6b
 1043 03f9 FD030000 		.4byte	0x3fd
 1044 03fd 0D       		.uleb128 0xd
 1045 03fe E8090000 		.4byte	.LASF68
 1046 0402 0C       		.byte	0xc
 1047 0403 07       		.byte	0x7
 1048 0404 7C01     		.2byte	0x17c
 1049 0406 32040000 		.4byte	0x432
 1050 040a 0B       		.uleb128 0xb
 1051 040b 9B030000 		.4byte	.LASF69
 1052 040f 07       		.byte	0x7
 1053 0410 8401     		.2byte	0x184
 1054 0412 52060000 		.4byte	0x652
 1055 0416 00       		.byte	0
 1056 0417 0B       		.uleb128 0xb
 1057 0418 E1070000 		.4byte	.LASF70
 1058 041c 07       		.byte	0x7
 1059 041d 8901     		.2byte	0x189
 1060 041f 51010000 		.4byte	0x151
 1061 0423 04       		.byte	0x4
 1062 0424 0B       		.uleb128 0xb
 1063 0425 C0000000 		.4byte	.LASF71
 1064 0429 07       		.byte	0x7
 1065 042a 8D01     		.2byte	0x18d
 1066 042c 51010000 		.4byte	0x151
 1067 0430 08       		.byte	0x8
 1068 0431 00       		.byte	0
 1069 0432 02       		.uleb128 0x2
 1070 0433 020B0000 		.4byte	.LASF72
 1071 0437 06       		.byte	0x6
 1072 0438 70       		.byte	0x70
 1073 0439 3D040000 		.4byte	0x43d
 1074 043d 0D       		.uleb128 0xd
ARM GAS  /var/folders/t8/16hdwfmd2fg_d3q6dgx6bpmw0000gn/T//ccQYZpjs.s 			page 20


 1075 043e 920A0000 		.4byte	.LASF73
 1076 0442 7C       		.byte	0x7c
 1077 0443 07       		.byte	0x7
 1078 0444 9C01     		.2byte	0x19c
 1079 0446 7F040000 		.4byte	0x47f
 1080 044a 0B       		.uleb128 0xb
 1081 044b 6C090000 		.4byte	.LASF74
 1082 044f 07       		.byte	0x7
 1083 0450 A001     		.2byte	0x1a0
 1084 0452 C6020000 		.4byte	0x2c6
 1085 0456 00       		.byte	0
 1086 0457 0B       		.uleb128 0xb
 1087 0458 4A0A0000 		.4byte	.LASF75
 1088 045c 07       		.byte	0x7
 1089 045d A401     		.2byte	0x1a4
 1090 045f A5030000 		.4byte	0x3a5
 1091 0463 1C       		.byte	0x1c
 1092 0464 0A       		.uleb128 0xa
 1093 0465 64626700 		.ascii	"dbg\000"
 1094 0469 07       		.byte	0x7
 1095 046a A801     		.2byte	0x1a8
 1096 046c F2030000 		.4byte	0x3f2
 1097 0470 2C       		.byte	0x2c
 1098 0471 0B       		.uleb128 0xb
 1099 0472 E5080000 		.4byte	.LASF76
 1100 0476 07       		.byte	0x7
 1101 0477 AC01     		.2byte	0x1ac
 1102 0479 6C010000 		.4byte	0x16c
 1103 047d 38       		.byte	0x38
 1104 047e 00       		.byte	0
 1105 047f 11       		.uleb128 0x11
 1106 0480 18       		.byte	0x18
 1107 0481 08       		.byte	0x8
 1108 0482 C5       		.byte	0xc5
 1109 0483 D0040000 		.4byte	0x4d0
 1110 0487 08       		.uleb128 0x8
 1111 0488 AF090000 		.4byte	.LASF77
 1112 048c 08       		.byte	0x8
 1113 048d C7       		.byte	0xc7
 1114 048e E9000000 		.4byte	0xe9
 1115 0492 00       		.byte	0
 1116 0493 08       		.uleb128 0x8
 1117 0494 DA090000 		.4byte	.LASF78
 1118 0498 08       		.byte	0x8
 1119 0499 C8       		.byte	0xc8
 1120 049a E9000000 		.4byte	0xe9
 1121 049e 04       		.byte	0x4
 1122 049f 08       		.uleb128 0x8
 1123 04a0 4B070000 		.4byte	.LASF79
 1124 04a4 08       		.byte	0x8
 1125 04a5 C9       		.byte	0xc9
 1126 04a6 E9000000 		.4byte	0xe9
 1127 04aa 08       		.byte	0x8
 1128 04ab 08       		.uleb128 0x8
 1129 04ac 5C000000 		.4byte	.LASF80
 1130 04b0 08       		.byte	0x8
 1131 04b1 CA       		.byte	0xca
ARM GAS  /var/folders/t8/16hdwfmd2fg_d3q6dgx6bpmw0000gn/T//ccQYZpjs.s 			page 21


 1132 04b2 E9000000 		.4byte	0xe9
 1133 04b6 0C       		.byte	0xc
 1134 04b7 08       		.uleb128 0x8
 1135 04b8 50070000 		.4byte	.LASF81
 1136 04bc 08       		.byte	0x8
 1137 04bd CB       		.byte	0xcb
 1138 04be E9000000 		.4byte	0xe9
 1139 04c2 10       		.byte	0x10
 1140 04c3 08       		.uleb128 0x8
 1141 04c4 DA050000 		.4byte	.LASF82
 1142 04c8 08       		.byte	0x8
 1143 04c9 CC       		.byte	0xcc
 1144 04ca E9000000 		.4byte	0xe9
 1145 04ce 14       		.byte	0x14
 1146 04cf 00       		.byte	0
 1147 04d0 02       		.uleb128 0x2
 1148 04d1 3D0A0000 		.4byte	.LASF83
 1149 04d5 08       		.byte	0x8
 1150 04d6 CD       		.byte	0xcd
 1151 04d7 7F040000 		.4byte	0x47f
 1152 04db 02       		.uleb128 0x2
 1153 04dc 81020000 		.4byte	.LASF84
 1154 04e0 09       		.byte	0x9
 1155 04e1 65       		.byte	0x65
 1156 04e2 49030000 		.4byte	0x349
 1157 04e6 02       		.uleb128 0x2
 1158 04e7 34040000 		.4byte	.LASF85
 1159 04eb 09       		.byte	0x9
 1160 04ec 6D       		.byte	0x6d
 1161 04ed EE000000 		.4byte	0xee
 1162 04f1 07       		.uleb128 0x7
 1163 04f2 6F0A0000 		.4byte	.LASF86
 1164 04f6 04       		.byte	0x4
 1165 04f7 09       		.byte	0x9
 1166 04f8 89       		.byte	0x89
 1167 04f9 09050000 		.4byte	0x509
 1168 04fd 09       		.uleb128 0x9
 1169 04fe 737000   		.ascii	"sp\000"
 1170 0501 09       		.byte	0x9
 1171 0502 8A       		.byte	0x8a
 1172 0503 7B050000 		.4byte	0x57b
 1173 0507 00       		.byte	0
 1174 0508 00       		.byte	0
 1175 0509 07       		.uleb128 0x7
 1176 050a D5070000 		.4byte	.LASF87
 1177 050e 24       		.byte	0x24
 1178 050f 0A       		.byte	0xa
 1179 0510 C3       		.byte	0xc3
 1180 0511 7B050000 		.4byte	0x57b
 1181 0515 09       		.uleb128 0x9
 1182 0516 723800   		.ascii	"r8\000"
 1183 0519 0A       		.byte	0xa
 1184 051a C4       		.byte	0xc4
 1185 051b DB040000 		.4byte	0x4db
 1186 051f 00       		.byte	0
 1187 0520 09       		.uleb128 0x9
 1188 0521 723900   		.ascii	"r9\000"
ARM GAS  /var/folders/t8/16hdwfmd2fg_d3q6dgx6bpmw0000gn/T//ccQYZpjs.s 			page 22


 1189 0524 0A       		.byte	0xa
 1190 0525 C5       		.byte	0xc5
 1191 0526 DB040000 		.4byte	0x4db
 1192 052a 04       		.byte	0x4
 1193 052b 09       		.uleb128 0x9
 1194 052c 72313000 		.ascii	"r10\000"
 1195 0530 0A       		.byte	0xa
 1196 0531 C6       		.byte	0xc6
 1197 0532 DB040000 		.4byte	0x4db
 1198 0536 08       		.byte	0x8
 1199 0537 09       		.uleb128 0x9
 1200 0538 72313100 		.ascii	"r11\000"
 1201 053c 0A       		.byte	0xa
 1202 053d C7       		.byte	0xc7
 1203 053e DB040000 		.4byte	0x4db
 1204 0542 0C       		.byte	0xc
 1205 0543 09       		.uleb128 0x9
 1206 0544 723400   		.ascii	"r4\000"
 1207 0547 0A       		.byte	0xa
 1208 0548 C8       		.byte	0xc8
 1209 0549 DB040000 		.4byte	0x4db
 1210 054d 10       		.byte	0x10
 1211 054e 09       		.uleb128 0x9
 1212 054f 723500   		.ascii	"r5\000"
 1213 0552 0A       		.byte	0xa
 1214 0553 C9       		.byte	0xc9
 1215 0554 DB040000 		.4byte	0x4db
 1216 0558 14       		.byte	0x14
 1217 0559 09       		.uleb128 0x9
 1218 055a 723600   		.ascii	"r6\000"
 1219 055d 0A       		.byte	0xa
 1220 055e CA       		.byte	0xca
 1221 055f DB040000 		.4byte	0x4db
 1222 0563 18       		.byte	0x18
 1223 0564 09       		.uleb128 0x9
 1224 0565 723700   		.ascii	"r7\000"
 1225 0568 0A       		.byte	0xa
 1226 0569 CB       		.byte	0xcb
 1227 056a DB040000 		.4byte	0x4db
 1228 056e 1C       		.byte	0x1c
 1229 056f 09       		.uleb128 0x9
 1230 0570 6C7200   		.ascii	"lr\000"
 1231 0573 0A       		.byte	0xa
 1232 0574 CC       		.byte	0xcc
 1233 0575 DB040000 		.4byte	0x4db
 1234 0579 20       		.byte	0x20
 1235 057a 00       		.byte	0
 1236 057b 0C       		.uleb128 0xc
 1237 057c 04       		.byte	0x4
 1238 057d 09050000 		.4byte	0x509
 1239 0581 12       		.uleb128 0x12
 1240 0582 04       		.byte	0x4
 1241 0583 07       		.byte	0x7
 1242 0584 D2       		.byte	0xd2
 1243 0585 E4050000 		.4byte	0x5e4
 1244 0589 13       		.uleb128 0x13
 1245 058a D60A0000 		.4byte	.LASF88
ARM GAS  /var/folders/t8/16hdwfmd2fg_d3q6dgx6bpmw0000gn/T//ccQYZpjs.s 			page 23


 1246 058e 07       		.byte	0x7
 1247 058f D9       		.byte	0xd9
 1248 0590 3B010000 		.4byte	0x13b
 1249 0594 13       		.uleb128 0x13
 1250 0595 EC000000 		.4byte	.LASF89
 1251 0599 07       		.byte	0x7
 1252 059a E0       		.byte	0xe0
 1253 059b 3B010000 		.4byte	0x13b
 1254 059f 13       		.uleb128 0x13
 1255 05a0 05040000 		.4byte	.LASF90
 1256 05a4 07       		.byte	0x7
 1257 05a5 E7       		.byte	0xe7
 1258 05a6 49030000 		.4byte	0x349
 1259 05aa 13       		.uleb128 0x13
 1260 05ab 79030000 		.4byte	.LASF91
 1261 05af 07       		.byte	0x7
 1262 05b0 EE       		.byte	0xee
 1263 05b1 E4050000 		.4byte	0x5e4
 1264 05b5 13       		.uleb128 0x13
 1265 05b6 B9070000 		.4byte	.LASF92
 1266 05ba 07       		.byte	0x7
 1267 05bb F3       		.byte	0xf3
 1268 05bc 3B010000 		.4byte	0x13b
 1269 05c0 13       		.uleb128 0x13
 1270 05c1 28000000 		.4byte	.LASF93
 1271 05c5 07       		.byte	0x7
 1272 05c6 FC       		.byte	0xfc
 1273 05c7 0F060000 		.4byte	0x60f
 1274 05cb 14       		.uleb128 0x14
 1275 05cc 9D040000 		.4byte	.LASF94
 1276 05d0 07       		.byte	0x7
 1277 05d1 0501     		.2byte	0x105
 1278 05d3 46060000 		.4byte	0x646
 1279 05d7 14       		.uleb128 0x14
 1280 05d8 30030000 		.4byte	.LASF95
 1281 05dc 07       		.byte	0x7
 1282 05dd 0D01     		.2byte	0x10d
 1283 05df 46010000 		.4byte	0x146
 1284 05e3 00       		.byte	0
 1285 05e4 0C       		.uleb128 0xc
 1286 05e5 04       		.byte	0x4
 1287 05e6 61020000 		.4byte	0x261
 1288 05ea 07       		.uleb128 0x7
 1289 05eb 92050000 		.4byte	.LASF96
 1290 05ef 0C       		.byte	0xc
 1291 05f0 0B       		.byte	0xb
 1292 05f1 34       		.byte	0x34
 1293 05f2 0F060000 		.4byte	0x60f
 1294 05f6 08       		.uleb128 0x8
 1295 05f7 D1080000 		.4byte	.LASF32
 1296 05fb 0B       		.byte	0xb
 1297 05fc 35       		.byte	0x35
 1298 05fd 96020000 		.4byte	0x296
 1299 0601 00       		.byte	0
 1300 0602 09       		.uleb128 0x9
 1301 0603 636E7400 		.ascii	"cnt\000"
 1302 0607 0B       		.byte	0xb
ARM GAS  /var/folders/t8/16hdwfmd2fg_d3q6dgx6bpmw0000gn/T//ccQYZpjs.s 			page 24


 1303 0608 37       		.byte	0x37
 1304 0609 51010000 		.4byte	0x151
 1305 060d 08       		.byte	0x8
 1306 060e 00       		.byte	0
 1307 060f 0C       		.uleb128 0xc
 1308 0610 04       		.byte	0x4
 1309 0611 EA050000 		.4byte	0x5ea
 1310 0615 07       		.uleb128 0x7
 1311 0616 CC090000 		.4byte	.LASF97
 1312 061a 10       		.byte	0x10
 1313 061b 0C       		.byte	0xc
 1314 061c 39       		.byte	0x39
 1315 061d 46060000 		.4byte	0x646
 1316 0621 08       		.uleb128 0x8
 1317 0622 D1080000 		.4byte	.LASF32
 1318 0626 0C       		.byte	0xc
 1319 0627 3A       		.byte	0x3a
 1320 0628 96020000 		.4byte	0x296
 1321 062c 00       		.byte	0
 1322 062d 08       		.uleb128 0x8
 1323 062e 45000000 		.4byte	.LASF98
 1324 0632 0C       		.byte	0xc
 1325 0633 3C       		.byte	0x3c
 1326 0634 6C020000 		.4byte	0x26c
 1327 0638 08       		.byte	0x8
 1328 0639 08       		.uleb128 0x8
 1329 063a 770B0000 		.4byte	.LASF52
 1330 063e 0C       		.byte	0xc
 1331 063f 3E       		.byte	0x3e
 1332 0640 A8070000 		.4byte	0x7a8
 1333 0644 0C       		.byte	0xc
 1334 0645 00       		.byte	0
 1335 0646 0C       		.uleb128 0xc
 1336 0647 04       		.byte	0x4
 1337 0648 15060000 		.4byte	0x615
 1338 064c 0C       		.uleb128 0xc
 1339 064d 04       		.byte	0x4
 1340 064e 5E060000 		.4byte	0x65e
 1341 0652 06       		.uleb128 0x6
 1342 0653 4C060000 		.4byte	0x64c
 1343 0657 03       		.uleb128 0x3
 1344 0658 01       		.byte	0x1
 1345 0659 08       		.byte	0x8
 1346 065a DC030000 		.4byte	.LASF99
 1347 065e 05       		.uleb128 0x5
 1348 065f 57060000 		.4byte	0x657
 1349 0663 0C       		.uleb128 0xc
 1350 0664 04       		.byte	0x4
 1351 0665 E6040000 		.4byte	0x4e6
 1352 0669 0C       		.uleb128 0xc
 1353 066a 04       		.byte	0x4
 1354 066b 4B030000 		.4byte	0x34b
 1355 066f 15       		.uleb128 0x15
 1356 0670 636800   		.ascii	"ch\000"
 1357 0673 07       		.byte	0x7
 1358 0674 D201     		.2byte	0x1d2
 1359 0676 32040000 		.4byte	0x432
ARM GAS  /var/folders/t8/16hdwfmd2fg_d3q6dgx6bpmw0000gn/T//ccQYZpjs.s 			page 25


 1360 067a 16       		.uleb128 0x16
 1361 067b E6040000 		.4byte	0x4e6
 1362 067f 85060000 		.4byte	0x685
 1363 0683 17       		.uleb128 0x17
 1364 0684 00       		.byte	0
 1365 0685 18       		.uleb128 0x18
 1366 0686 C8050000 		.4byte	.LASF100
 1367 068a 0E       		.byte	0xe
 1368 068b 2B01     		.2byte	0x12b
 1369 068d 7A060000 		.4byte	0x67a
 1370 0691 11       		.uleb128 0x11
 1371 0692 16       		.byte	0x16
 1372 0693 0D       		.byte	0xd
 1373 0694 34       		.byte	0x34
 1374 0695 72070000 		.4byte	0x772
 1375 0699 08       		.uleb128 0x8
 1376 069a 880B0000 		.4byte	.LASF101
 1377 069e 0D       		.byte	0xd
 1378 069f 35       		.byte	0x35
 1379 06a0 72070000 		.4byte	0x772
 1380 06a4 00       		.byte	0
 1381 06a5 08       		.uleb128 0x8
 1382 06a6 52010000 		.4byte	.LASF102
 1383 06aa 0D       		.byte	0xd
 1384 06ab 36       		.byte	0x36
 1385 06ac B8000000 		.4byte	0xb8
 1386 06b0 04       		.byte	0x4
 1387 06b1 08       		.uleb128 0x8
 1388 06b2 22080000 		.4byte	.LASF103
 1389 06b6 0D       		.byte	0xd
 1390 06b7 37       		.byte	0x37
 1391 06b8 B8000000 		.4byte	0xb8
 1392 06bc 05       		.byte	0x5
 1393 06bd 08       		.uleb128 0x8
 1394 06be F0080000 		.4byte	.LASF104
 1395 06c2 0D       		.byte	0xd
 1396 06c3 38       		.byte	0x38
 1397 06c4 C8000000 		.4byte	0xc8
 1398 06c8 06       		.byte	0x6
 1399 06c9 08       		.uleb128 0x8
 1400 06ca 52040000 		.4byte	.LASF105
 1401 06ce 0D       		.byte	0xd
 1402 06cf 39       		.byte	0x39
 1403 06d0 B8000000 		.4byte	0xb8
 1404 06d4 08       		.byte	0x8
 1405 06d5 08       		.uleb128 0x8
 1406 06d6 350B0000 		.4byte	.LASF106
 1407 06da 0D       		.byte	0xd
 1408 06db 3A       		.byte	0x3a
 1409 06dc B8000000 		.4byte	0xb8
 1410 06e0 09       		.byte	0x9
 1411 06e1 08       		.uleb128 0x8
 1412 06e2 65050000 		.4byte	.LASF107
 1413 06e6 0D       		.byte	0xd
 1414 06e7 3B       		.byte	0x3b
 1415 06e8 B8000000 		.4byte	0xb8
 1416 06ec 0A       		.byte	0xa
ARM GAS  /var/folders/t8/16hdwfmd2fg_d3q6dgx6bpmw0000gn/T//ccQYZpjs.s 			page 26


 1417 06ed 08       		.uleb128 0x8
 1418 06ee A2000000 		.4byte	.LASF108
 1419 06f2 0D       		.byte	0xd
 1420 06f3 3C       		.byte	0x3c
 1421 06f4 B8000000 		.4byte	0xb8
 1422 06f8 0B       		.byte	0xb
 1423 06f9 08       		.uleb128 0x8
 1424 06fa 00000000 		.4byte	.LASF109
 1425 06fe 0D       		.byte	0xd
 1426 06ff 3D       		.byte	0x3d
 1427 0700 B8000000 		.4byte	0xb8
 1428 0704 0C       		.byte	0xc
 1429 0705 08       		.uleb128 0x8
 1430 0706 F7060000 		.4byte	.LASF110
 1431 070a 0D       		.byte	0xd
 1432 070b 3E       		.byte	0x3e
 1433 070c B8000000 		.4byte	0xb8
 1434 0710 0D       		.byte	0xd
 1435 0711 08       		.uleb128 0x8
 1436 0712 D4000000 		.4byte	.LASF111
 1437 0716 0D       		.byte	0xd
 1438 0717 3F       		.byte	0x3f
 1439 0718 B8000000 		.4byte	0xb8
 1440 071c 0E       		.byte	0xe
 1441 071d 08       		.uleb128 0x8
 1442 071e 5F080000 		.4byte	.LASF112
 1443 0722 0D       		.byte	0xd
 1444 0723 40       		.byte	0x40
 1445 0724 B8000000 		.4byte	0xb8
 1446 0728 0F       		.byte	0xf
 1447 0729 08       		.uleb128 0x8
 1448 072a 19060000 		.4byte	.LASF113
 1449 072e 0D       		.byte	0xd
 1450 072f 41       		.byte	0x41
 1451 0730 B8000000 		.4byte	0xb8
 1452 0734 10       		.byte	0x10
 1453 0735 08       		.uleb128 0x8
 1454 0736 1D050000 		.4byte	.LASF114
 1455 073a 0D       		.byte	0xd
 1456 073b 42       		.byte	0x42
 1457 073c B8000000 		.4byte	0xb8
 1458 0740 11       		.byte	0x11
 1459 0741 08       		.uleb128 0x8
 1460 0742 590B0000 		.4byte	.LASF115
 1461 0746 0D       		.byte	0xd
 1462 0747 43       		.byte	0x43
 1463 0748 B8000000 		.4byte	0xb8
 1464 074c 12       		.byte	0x12
 1465 074d 08       		.uleb128 0x8
 1466 074e 1F040000 		.4byte	.LASF116
 1467 0752 0D       		.byte	0xd
 1468 0753 44       		.byte	0x44
 1469 0754 B8000000 		.4byte	0xb8
 1470 0758 13       		.byte	0x13
 1471 0759 08       		.uleb128 0x8
 1472 075a 39000000 		.4byte	.LASF117
 1473 075e 0D       		.byte	0xd
ARM GAS  /var/folders/t8/16hdwfmd2fg_d3q6dgx6bpmw0000gn/T//ccQYZpjs.s 			page 27


 1474 075f 45       		.byte	0x45
 1475 0760 B8000000 		.4byte	0xb8
 1476 0764 14       		.byte	0x14
 1477 0765 08       		.uleb128 0x8
 1478 0766 7A040000 		.4byte	.LASF118
 1479 076a 0D       		.byte	0xd
 1480 076b 46       		.byte	0x46
 1481 076c B8000000 		.4byte	0xb8
 1482 0770 15       		.byte	0x15
 1483 0771 00       		.byte	0
 1484 0772 16       		.uleb128 0x16
 1485 0773 57060000 		.4byte	0x657
 1486 0777 82070000 		.4byte	0x782
 1487 077b 19       		.uleb128 0x19
 1488 077c A6000000 		.4byte	0xa6
 1489 0780 03       		.byte	0x3
 1490 0781 00       		.byte	0
 1491 0782 02       		.uleb128 0x2
 1492 0783 0E0B0000 		.4byte	.LASF119
 1493 0787 0D       		.byte	0xd
 1494 0788 47       		.byte	0x47
 1495 0789 91060000 		.4byte	0x691
 1496 078d 05       		.uleb128 0x5
 1497 078e 82070000 		.4byte	0x782
 1498 0792 1A       		.uleb128 0x1a
 1499 0793 53000000 		.4byte	.LASF120
 1500 0797 0D       		.byte	0xd
 1501 0798 6C       		.byte	0x6c
 1502 0799 8D070000 		.4byte	0x78d
 1503 079d 02       		.uleb128 0x2
 1504 079e 5F0A0000 		.4byte	.LASF121
 1505 07a2 0C       		.byte	0xc
 1506 07a3 34       		.byte	0x34
 1507 07a4 15060000 		.4byte	0x615
 1508 07a8 0C       		.uleb128 0xc
 1509 07a9 04       		.byte	0x4
 1510 07aa 9D070000 		.4byte	0x79d
 1511 07ae 0C       		.uleb128 0xc
 1512 07af 04       		.byte	0x4
 1513 07b0 C3000000 		.4byte	0xc3
 1514 07b4 0C       		.uleb128 0xc
 1515 07b5 04       		.byte	0x4
 1516 07b6 B8000000 		.4byte	0xb8
 1517 07ba 03       		.uleb128 0x3
 1518 07bb 01       		.byte	0x1
 1519 07bc 02       		.byte	0x2
 1520 07bd CE030000 		.4byte	.LASF122
 1521 07c1 02       		.uleb128 0x2
 1522 07c2 E3000000 		.4byte	.LASF123
 1523 07c6 0F       		.byte	0xf
 1524 07c7 46       		.byte	0x46
 1525 07c8 DE000000 		.4byte	0xde
 1526 07cc 02       		.uleb128 0x2
 1527 07cd 57010000 		.4byte	.LASF124
 1528 07d1 0F       		.byte	0xf
 1529 07d2 53       		.byte	0x53
 1530 07d3 D7070000 		.4byte	0x7d7
ARM GAS  /var/folders/t8/16hdwfmd2fg_d3q6dgx6bpmw0000gn/T//ccQYZpjs.s 			page 28


 1531 07d7 0C       		.uleb128 0xc
 1532 07d8 04       		.byte	0x4
 1533 07d9 D0040000 		.4byte	0x4d0
 1534 07dd 11       		.uleb128 0x11
 1535 07de 84       		.byte	0x84
 1536 07df 0F       		.byte	0xf
 1537 07e0 5A       		.byte	0x5a
 1538 07e1 FE070000 		.4byte	0x7fe
 1539 07e5 08       		.uleb128 0x8
 1540 07e6 AA090000 		.4byte	.LASF125
 1541 07ea 0F       		.byte	0xf
 1542 07eb 5B       		.byte	0x5b
 1543 07ec CC070000 		.4byte	0x7cc
 1544 07f0 00       		.byte	0
 1545 07f1 08       		.uleb128 0x8
 1546 07f2 BD060000 		.4byte	.LASF126
 1547 07f6 0F       		.byte	0xf
 1548 07f7 5C       		.byte	0x5c
 1549 07f8 FE070000 		.4byte	0x7fe
 1550 07fc 04       		.byte	0x4
 1551 07fd 00       		.byte	0
 1552 07fe 16       		.uleb128 0x16
 1553 07ff C1070000 		.4byte	0x7c1
 1554 0803 0E080000 		.4byte	0x80e
 1555 0807 19       		.uleb128 0x19
 1556 0808 A6000000 		.4byte	0xa6
 1557 080c 1F       		.byte	0x1f
 1558 080d 00       		.byte	0
 1559 080e 02       		.uleb128 0x2
 1560 080f 07050000 		.4byte	.LASF127
 1561 0813 0F       		.byte	0xf
 1562 0814 5D       		.byte	0x5d
 1563 0815 DD070000 		.4byte	0x7dd
 1564 0819 1B       		.uleb128 0x1b
 1565 081a 9402     		.2byte	0x294
 1566 081c 0F       		.byte	0xf
 1567 081d 68       		.byte	0x68
 1568 081e 2F080000 		.4byte	0x82f
 1569 0822 08       		.uleb128 0x8
 1570 0823 0D010000 		.4byte	.LASF128
 1571 0827 0F       		.byte	0xf
 1572 0828 69       		.byte	0x69
 1573 0829 2F080000 		.4byte	0x82f
 1574 082d 00       		.byte	0
 1575 082e 00       		.byte	0
 1576 082f 16       		.uleb128 0x16
 1577 0830 0E080000 		.4byte	0x80e
 1578 0834 3F080000 		.4byte	0x83f
 1579 0838 19       		.uleb128 0x19
 1580 0839 A6000000 		.4byte	0xa6
 1581 083d 04       		.byte	0x4
 1582 083e 00       		.byte	0
 1583 083f 02       		.uleb128 0x2
 1584 0840 080A0000 		.4byte	.LASF129
 1585 0844 0F       		.byte	0xf
 1586 0845 6A       		.byte	0x6a
 1587 0846 19080000 		.4byte	0x819
ARM GAS  /var/folders/t8/16hdwfmd2fg_d3q6dgx6bpmw0000gn/T//ccQYZpjs.s 			page 29


 1588 084a 05       		.uleb128 0x5
 1589 084b 3F080000 		.4byte	0x83f
 1590 084f 18       		.uleb128 0x18
 1591 0850 11030000 		.4byte	.LASF130
 1592 0854 0F       		.byte	0xf
 1593 0855 8D01     		.2byte	0x18d
 1594 0857 4A080000 		.4byte	0x84a
 1595 085b 1C       		.uleb128 0x1c
 1596 085c FB030000 		.4byte	.LASF131
 1597 0860 10       		.byte	0x10
 1598 0861 0001     		.2byte	0x100
 1599 0863 67080000 		.4byte	0x867
 1600 0867 0D       		.uleb128 0xd
 1601 0868 FB030000 		.4byte	.LASF131
 1602 086c E8       		.byte	0xe8
 1603 086d 11       		.byte	0x11
 1604 086e 0601     		.2byte	0x106
 1605 0870 52090000 		.4byte	0x952
 1606 0874 0B       		.uleb128 0xb
 1607 0875 B2000000 		.4byte	.LASF38
 1608 0879 11       		.byte	0x11
 1609 087a 0A01     		.2byte	0x10a
 1610 087c 91090000 		.4byte	0x991
 1611 0880 00       		.byte	0
 1612 0881 0B       		.uleb128 0xb
 1613 0882 AB000000 		.4byte	.LASF132
 1614 0886 11       		.byte	0x11
 1615 0887 0E01     		.2byte	0x10e
 1616 0889 C50C0000 		.4byte	0xcc5
 1617 088d 04       		.byte	0x4
 1618 088e 0B       		.uleb128 0xb
 1619 088f 5A040000 		.4byte	.LASF133
 1620 0893 11       		.byte	0x11
 1621 0894 1201     		.2byte	0x112
 1622 0896 C8000000 		.4byte	0xc8
 1623 089a 08       		.byte	0x8
 1624 089b 0B       		.uleb128 0xb
 1625 089c E6030000 		.4byte	.LASF134
 1626 08a0 11       		.byte	0x11
 1627 08a1 1601     		.2byte	0x116
 1628 08a3 C8000000 		.4byte	0xc8
 1629 08a7 0A       		.byte	0xa
 1630 08a8 0A       		.uleb128 0xa
 1631 08a9 65706300 		.ascii	"epc\000"
 1632 08ad 11       		.byte	0x11
 1633 08ae 1A01     		.2byte	0x11a
 1634 08b0 CB0C0000 		.4byte	0xccb
 1635 08b4 0C       		.byte	0xc
 1636 08b5 0B       		.uleb128 0xb
 1637 08b6 8D090000 		.4byte	.LASF135
 1638 08ba 11       		.byte	0x11
 1639 08bb 2101     		.2byte	0x121
 1640 08bd E10C0000 		.4byte	0xce1
 1641 08c1 4C       		.byte	0x4c
 1642 08c2 0B       		.uleb128 0xb
 1643 08c3 2A0B0000 		.4byte	.LASF136
 1644 08c7 11       		.byte	0x11
ARM GAS  /var/folders/t8/16hdwfmd2fg_d3q6dgx6bpmw0000gn/T//ccQYZpjs.s 			page 30


 1645 08c8 2801     		.2byte	0x128
 1646 08ca E10C0000 		.4byte	0xce1
 1647 08ce 88       		.byte	0x88
 1648 08cf 0B       		.uleb128 0xb
 1649 08d0 A5030000 		.4byte	.LASF137
 1650 08d4 11       		.byte	0x11
 1651 08d5 2C01     		.2byte	0x12c
 1652 08d7 D6090000 		.4byte	0x9d6
 1653 08db C4       		.byte	0xc4
 1654 08dc 0B       		.uleb128 0xb
 1655 08dd AA060000 		.4byte	.LASF138
 1656 08e1 11       		.byte	0x11
 1657 08e2 3001     		.2byte	0x130
 1658 08e4 B4070000 		.4byte	0x7b4
 1659 08e8 C8       		.byte	0xc8
 1660 08e9 0B       		.uleb128 0xb
 1661 08ea E1030000 		.4byte	.LASF139
 1662 08ee 11       		.byte	0x11
 1663 08ef 3401     		.2byte	0x134
 1664 08f1 F9000000 		.4byte	0xf9
 1665 08f5 CC       		.byte	0xcc
 1666 08f6 0B       		.uleb128 0xb
 1667 08f7 9F050000 		.4byte	.LASF140
 1668 08fb 11       		.byte	0x11
 1669 08fc 3801     		.2byte	0x138
 1670 08fe 5C0A0000 		.4byte	0xa5c
 1671 0902 D0       		.byte	0xd0
 1672 0903 0B       		.uleb128 0xb
 1673 0904 97040000 		.4byte	.LASF141
 1674 0908 11       		.byte	0x11
 1675 0909 3C01     		.2byte	0x13c
 1676 090b F10C0000 		.4byte	0xcf1
 1677 090f D4       		.byte	0xd4
 1678 0910 0B       		.uleb128 0xb
 1679 0911 70050000 		.4byte	.LASF142
 1680 0915 11       		.byte	0x11
 1681 0916 4001     		.2byte	0x140
 1682 0918 C8000000 		.4byte	0xc8
 1683 091c DC       		.byte	0xdc
 1684 091d 0B       		.uleb128 0xb
 1685 091e 8A050000 		.4byte	.LASF143
 1686 0922 11       		.byte	0x11
 1687 0923 4401     		.2byte	0x144
 1688 0925 B8000000 		.4byte	0xb8
 1689 0929 DE       		.byte	0xde
 1690 092a 0B       		.uleb128 0xb
 1691 092b F9040000 		.4byte	.LASF144
 1692 092f 11       		.byte	0x11
 1693 0930 4801     		.2byte	0x148
 1694 0932 B8000000 		.4byte	0xb8
 1695 0936 DF       		.byte	0xdf
 1696 0937 0B       		.uleb128 0xb
 1697 0938 89080000 		.4byte	.LASF145
 1698 093c 11       		.byte	0x11
 1699 093d 4C01     		.2byte	0x14c
 1700 093f 91090000 		.4byte	0x991
 1701 0943 E0       		.byte	0xe0
ARM GAS  /var/folders/t8/16hdwfmd2fg_d3q6dgx6bpmw0000gn/T//ccQYZpjs.s 			page 31


 1702 0944 0B       		.uleb128 0xb
 1703 0945 7C0B0000 		.4byte	.LASF146
 1704 0949 11       		.byte	0x11
 1705 094a 5401     		.2byte	0x154
 1706 094c DE000000 		.4byte	0xde
 1707 0950 E4       		.byte	0xe4
 1708 0951 00       		.byte	0
 1709 0952 1C       		.uleb128 0x1c
 1710 0953 BE0A0000 		.4byte	.LASF147
 1711 0957 10       		.byte	0x10
 1712 0958 0501     		.2byte	0x105
 1713 095a B8000000 		.4byte	0xb8
 1714 095e 1D       		.uleb128 0x1d
 1715 095f 07       		.byte	0x7
 1716 0960 01       		.byte	0x1
 1717 0961 42000000 		.4byte	0x42
 1718 0965 10       		.byte	0x10
 1719 0966 0A01     		.2byte	0x10a
 1720 0968 91090000 		.4byte	0x991
 1721 096c 1E       		.uleb128 0x1e
 1722 096d E9070000 		.4byte	.LASF148
 1723 0971 00       		.byte	0
 1724 0972 1E       		.uleb128 0x1e
 1725 0973 55070000 		.4byte	.LASF149
 1726 0977 01       		.byte	0x1
 1727 0978 1E       		.uleb128 0x1e
 1728 0979 99060000 		.4byte	.LASF150
 1729 097d 02       		.byte	0x2
 1730 097e 1E       		.uleb128 0x1e
 1731 097f EC040000 		.4byte	.LASF151
 1732 0983 03       		.byte	0x3
 1733 0984 1E       		.uleb128 0x1e
 1734 0985 C9000000 		.4byte	.LASF152
 1735 0989 04       		.byte	0x4
 1736 098a 1E       		.uleb128 0x1e
 1737 098b 03030000 		.4byte	.LASF153
 1738 098f 05       		.byte	0x5
 1739 0990 00       		.byte	0
 1740 0991 1C       		.uleb128 0x1c
 1741 0992 26060000 		.4byte	.LASF154
 1742 0996 10       		.byte	0x10
 1743 0997 1101     		.2byte	0x111
 1744 0999 5E090000 		.4byte	0x95e
 1745 099d 1D       		.uleb128 0x1d
 1746 099e 07       		.byte	0x7
 1747 099f 01       		.byte	0x1
 1748 09a0 42000000 		.4byte	0x42
 1749 09a4 10       		.byte	0x10
 1750 09a5 1F01     		.2byte	0x11f
 1751 09a7 D6090000 		.4byte	0x9d6
 1752 09ab 1E       		.uleb128 0x1e
 1753 09ac DD020000 		.4byte	.LASF155
 1754 09b0 00       		.byte	0
 1755 09b1 1E       		.uleb128 0x1e
 1756 09b2 97000000 		.4byte	.LASF156
 1757 09b6 01       		.byte	0x1
 1758 09b7 1E       		.uleb128 0x1e
ARM GAS  /var/folders/t8/16hdwfmd2fg_d3q6dgx6bpmw0000gn/T//ccQYZpjs.s 			page 32


 1759 09b8 C1070000 		.4byte	.LASF157
 1760 09bc 02       		.byte	0x2
 1761 09bd 1E       		.uleb128 0x1e
 1762 09be 630B0000 		.4byte	.LASF158
 1763 09c2 03       		.byte	0x3
 1764 09c3 1E       		.uleb128 0x1e
 1765 09c4 980B0000 		.4byte	.LASF159
 1766 09c8 04       		.byte	0x4
 1767 09c9 1E       		.uleb128 0x1e
 1768 09ca 46090000 		.4byte	.LASF160
 1769 09ce 05       		.byte	0x5
 1770 09cf 1E       		.uleb128 0x1e
 1771 09d0 8D030000 		.4byte	.LASF161
 1772 09d4 06       		.byte	0x6
 1773 09d5 00       		.byte	0
 1774 09d6 1C       		.uleb128 0x1c
 1775 09d7 F5000000 		.4byte	.LASF162
 1776 09db 10       		.byte	0x10
 1777 09dc 2701     		.2byte	0x127
 1778 09de 9D090000 		.4byte	0x99d
 1779 09e2 1D       		.uleb128 0x1d
 1780 09e3 07       		.byte	0x7
 1781 09e4 01       		.byte	0x1
 1782 09e5 42000000 		.4byte	0x42
 1783 09e9 10       		.byte	0x10
 1784 09ea 2C01     		.2byte	0x12c
 1785 09ec 1B0A0000 		.4byte	0xa1b
 1786 09f0 1E       		.uleb128 0x1e
 1787 09f1 AE080000 		.4byte	.LASF163
 1788 09f5 00       		.byte	0
 1789 09f6 1E       		.uleb128 0x1e
 1790 09f7 2B010000 		.4byte	.LASF164
 1791 09fb 01       		.byte	0x1
 1792 09fc 1E       		.uleb128 0x1e
 1793 09fd 31090000 		.4byte	.LASF165
 1794 0a01 02       		.byte	0x2
 1795 0a02 1E       		.uleb128 0x1e
 1796 0a03 F8080000 		.4byte	.LASF166
 1797 0a07 03       		.byte	0x3
 1798 0a08 1E       		.uleb128 0x1e
 1799 0a09 180B0000 		.4byte	.LASF167
 1800 0a0d 04       		.byte	0x4
 1801 0a0e 1E       		.uleb128 0x1e
 1802 0a0f 59060000 		.4byte	.LASF168
 1803 0a13 05       		.byte	0x5
 1804 0a14 1E       		.uleb128 0x1e
 1805 0a15 3F030000 		.4byte	.LASF169
 1806 0a19 06       		.byte	0x6
 1807 0a1a 00       		.byte	0
 1808 0a1b 1C       		.uleb128 0x1c
 1809 0a1c A4040000 		.4byte	.LASF170
 1810 0a20 10       		.byte	0x10
 1811 0a21 3401     		.2byte	0x134
 1812 0a23 E2090000 		.4byte	0x9e2
 1813 0a27 1F       		.uleb128 0x1f
 1814 0a28 08       		.byte	0x8
 1815 0a29 10       		.byte	0x10
ARM GAS  /var/folders/t8/16hdwfmd2fg_d3q6dgx6bpmw0000gn/T//ccQYZpjs.s 			page 33


 1816 0a2a 3901     		.2byte	0x139
 1817 0a2c 4B0A0000 		.4byte	0xa4b
 1818 0a30 0B       		.uleb128 0xb
 1819 0a31 D7040000 		.4byte	.LASF171
 1820 0a35 10       		.byte	0x10
 1821 0a36 3D01     		.2byte	0x13d
 1822 0a38 F9000000 		.4byte	0xf9
 1823 0a3c 00       		.byte	0
 1824 0a3d 0B       		.uleb128 0xb
 1825 0a3e 15040000 		.4byte	.LASF172
 1826 0a42 10       		.byte	0x10
 1827 0a43 4101     		.2byte	0x141
 1828 0a45 AE070000 		.4byte	0x7ae
 1829 0a49 04       		.byte	0x4
 1830 0a4a 00       		.byte	0
 1831 0a4b 1C       		.uleb128 0x1c
 1832 0a4c 89040000 		.4byte	.LASF173
 1833 0a50 10       		.byte	0x10
 1834 0a51 4201     		.2byte	0x142
 1835 0a53 270A0000 		.4byte	0xa27
 1836 0a57 05       		.uleb128 0x5
 1837 0a58 4B0A0000 		.4byte	0xa4b
 1838 0a5c 1C       		.uleb128 0x1c
 1839 0a5d 120A0000 		.4byte	.LASF174
 1840 0a61 10       		.byte	0x10
 1841 0a62 4A01     		.2byte	0x14a
 1842 0a64 680A0000 		.4byte	0xa68
 1843 0a68 0C       		.uleb128 0xc
 1844 0a69 04       		.byte	0x4
 1845 0a6a 6E0A0000 		.4byte	0xa6e
 1846 0a6e 0E       		.uleb128 0xe
 1847 0a6f 790A0000 		.4byte	0xa79
 1848 0a73 0F       		.uleb128 0xf
 1849 0a74 790A0000 		.4byte	0xa79
 1850 0a78 00       		.byte	0
 1851 0a79 0C       		.uleb128 0xc
 1852 0a7a 04       		.byte	0x4
 1853 0a7b 5B080000 		.4byte	0x85b
 1854 0a7f 1C       		.uleb128 0x1c
 1855 0a80 DC060000 		.4byte	.LASF175
 1856 0a84 10       		.byte	0x10
 1857 0a85 5301     		.2byte	0x153
 1858 0a87 8B0A0000 		.4byte	0xa8b
 1859 0a8b 0C       		.uleb128 0xc
 1860 0a8c 04       		.byte	0x4
 1861 0a8d 910A0000 		.4byte	0xa91
 1862 0a91 0E       		.uleb128 0xe
 1863 0a92 A10A0000 		.4byte	0xaa1
 1864 0a96 0F       		.uleb128 0xf
 1865 0a97 790A0000 		.4byte	0xa79
 1866 0a9b 0F       		.uleb128 0xf
 1867 0a9c 52090000 		.4byte	0x952
 1868 0aa0 00       		.byte	0
 1869 0aa1 1C       		.uleb128 0x1c
 1870 0aa2 45040000 		.4byte	.LASF176
 1871 0aa6 10       		.byte	0x10
 1872 0aa7 5C01     		.2byte	0x15c
ARM GAS  /var/folders/t8/16hdwfmd2fg_d3q6dgx6bpmw0000gn/T//ccQYZpjs.s 			page 34


 1873 0aa9 AD0A0000 		.4byte	0xaad
 1874 0aad 0C       		.uleb128 0xc
 1875 0aae 04       		.byte	0x4
 1876 0aaf B30A0000 		.4byte	0xab3
 1877 0ab3 0E       		.uleb128 0xe
 1878 0ab4 C30A0000 		.4byte	0xac3
 1879 0ab8 0F       		.uleb128 0xf
 1880 0ab9 790A0000 		.4byte	0xa79
 1881 0abd 0F       		.uleb128 0xf
 1882 0abe 1B0A0000 		.4byte	0xa1b
 1883 0ac2 00       		.byte	0
 1884 0ac3 1C       		.uleb128 0x1c
 1885 0ac4 F8090000 		.4byte	.LASF177
 1886 0ac8 10       		.byte	0x10
 1887 0ac9 6801     		.2byte	0x168
 1888 0acb CF0A0000 		.4byte	0xacf
 1889 0acf 0C       		.uleb128 0xc
 1890 0ad0 04       		.byte	0x4
 1891 0ad1 D50A0000 		.4byte	0xad5
 1892 0ad5 20       		.uleb128 0x20
 1893 0ad6 BA070000 		.4byte	0x7ba
 1894 0ada E40A0000 		.4byte	0xae4
 1895 0ade 0F       		.uleb128 0xf
 1896 0adf 790A0000 		.4byte	0xa79
 1897 0ae3 00       		.byte	0
 1898 0ae4 1C       		.uleb128 0x1c
 1899 0ae5 7A090000 		.4byte	.LASF178
 1900 0ae9 10       		.byte	0x10
 1901 0aea 6D01     		.2byte	0x16d
 1902 0aec F00A0000 		.4byte	0xaf0
 1903 0af0 0C       		.uleb128 0xc
 1904 0af1 04       		.byte	0x4
 1905 0af2 F60A0000 		.4byte	0xaf6
 1906 0af6 20       		.uleb128 0x20
 1907 0af7 140B0000 		.4byte	0xb14
 1908 0afb 140B0000 		.4byte	0xb14
 1909 0aff 0F       		.uleb128 0xf
 1910 0b00 790A0000 		.4byte	0xa79
 1911 0b04 0F       		.uleb128 0xf
 1912 0b05 B8000000 		.4byte	0xb8
 1913 0b09 0F       		.uleb128 0xf
 1914 0b0a B8000000 		.4byte	0xb8
 1915 0b0e 0F       		.uleb128 0xf
 1916 0b0f C8000000 		.4byte	0xc8
 1917 0b13 00       		.byte	0
 1918 0b14 0C       		.uleb128 0xc
 1919 0b15 04       		.byte	0x4
 1920 0b16 570A0000 		.4byte	0xa57
 1921 0b1a 11       		.uleb128 0x11
 1922 0b1b 14       		.byte	0x14
 1923 0b1c 11       		.byte	0x11
 1924 0b1d 6B       		.byte	0x6b
 1925 0b1e 6B0B0000 		.4byte	0xb6b
 1926 0b22 08       		.uleb128 0x8
 1927 0b23 02060000 		.4byte	.LASF179
 1928 0b27 11       		.byte	0x11
 1929 0b28 6F       		.byte	0x6f
ARM GAS  /var/folders/t8/16hdwfmd2fg_d3q6dgx6bpmw0000gn/T//ccQYZpjs.s 			page 35


 1930 0b29 F9000000 		.4byte	0xf9
 1931 0b2d 00       		.byte	0
 1932 0b2e 08       		.uleb128 0x8
 1933 0b2f 46010000 		.4byte	.LASF180
 1934 0b33 11       		.byte	0x11
 1935 0b34 73       		.byte	0x73
 1936 0b35 F9000000 		.4byte	0xf9
 1937 0b39 04       		.byte	0x4
 1938 0b3a 08       		.uleb128 0x8
 1939 0b3b 6D020000 		.4byte	.LASF181
 1940 0b3f 11       		.byte	0x11
 1941 0b40 77       		.byte	0x77
 1942 0b41 AE070000 		.4byte	0x7ae
 1943 0b45 08       		.byte	0x8
 1944 0b46 08       		.uleb128 0x8
 1945 0b47 9E090000 		.4byte	.LASF182
 1946 0b4b 11       		.byte	0x11
 1947 0b4c 7C       		.byte	0x7c
 1948 0b4d 61020000 		.4byte	0x261
 1949 0b51 0C       		.byte	0xc
 1950 0b52 08       		.uleb128 0x8
 1951 0b53 41060000 		.4byte	.LASF183
 1952 0b57 11       		.byte	0x11
 1953 0b58 80       		.byte	0x80
 1954 0b59 BA070000 		.4byte	0x7ba
 1955 0b5d 10       		.byte	0x10
 1956 0b5e 08       		.uleb128 0x8
 1957 0b5f 330A0000 		.4byte	.LASF184
 1958 0b63 11       		.byte	0x11
 1959 0b64 82       		.byte	0x82
 1960 0b65 BA070000 		.4byte	0x7ba
 1961 0b69 11       		.byte	0x11
 1962 0b6a 00       		.byte	0
 1963 0b6b 02       		.uleb128 0x2
 1964 0b6c 67040000 		.4byte	.LASF185
 1965 0b70 11       		.byte	0x11
 1966 0b71 83       		.byte	0x83
 1967 0b72 1A0B0000 		.4byte	0xb1a
 1968 0b76 11       		.uleb128 0x11
 1969 0b77 14       		.byte	0x14
 1970 0b78 11       		.byte	0x11
 1971 0b79 88       		.byte	0x88
 1972 0b7a D30B0000 		.4byte	0xbd3
 1973 0b7e 08       		.uleb128 0x8
 1974 0b7f 72030000 		.4byte	.LASF186
 1975 0b83 11       		.byte	0x11
 1976 0b84 8C       		.byte	0x8c
 1977 0b85 F9000000 		.4byte	0xf9
 1978 0b89 00       		.byte	0
 1979 0b8a 08       		.uleb128 0x8
 1980 0b8b 5E070000 		.4byte	.LASF187
 1981 0b8f 11       		.byte	0x11
 1982 0b90 90       		.byte	0x90
 1983 0b91 F9000000 		.4byte	0xf9
 1984 0b95 04       		.byte	0x4
 1985 0b96 08       		.uleb128 0x8
 1986 0b97 4A060000 		.4byte	.LASF188
ARM GAS  /var/folders/t8/16hdwfmd2fg_d3q6dgx6bpmw0000gn/T//ccQYZpjs.s 			page 36


 1987 0b9b 11       		.byte	0x11
 1988 0b9c 94       		.byte	0x94
 1989 0b9d B4070000 		.4byte	0x7b4
 1990 0ba1 08       		.byte	0x8
 1991 0ba2 08       		.uleb128 0x8
 1992 0ba3 9E090000 		.4byte	.LASF182
 1993 0ba7 11       		.byte	0x11
 1994 0ba8 99       		.byte	0x99
 1995 0ba9 61020000 		.4byte	0x261
 1996 0bad 0C       		.byte	0xc
 1997 0bae 08       		.uleb128 0x8
 1998 0baf C60A0000 		.4byte	.LASF189
 1999 0bb3 11       		.byte	0x11
 2000 0bb4 9F       		.byte	0x9f
 2001 0bb5 C8000000 		.4byte	0xc8
 2002 0bb9 10       		.byte	0x10
 2003 0bba 08       		.uleb128 0x8
 2004 0bbb 41060000 		.4byte	.LASF183
 2005 0bbf 11       		.byte	0x11
 2006 0bc0 A1       		.byte	0xa1
 2007 0bc1 BA070000 		.4byte	0x7ba
 2008 0bc5 12       		.byte	0x12
 2009 0bc6 08       		.uleb128 0x8
 2010 0bc7 330A0000 		.4byte	.LASF184
 2011 0bcb 11       		.byte	0x11
 2012 0bcc A3       		.byte	0xa3
 2013 0bcd BA070000 		.4byte	0x7ba
 2014 0bd1 13       		.byte	0x13
 2015 0bd2 00       		.byte	0
 2016 0bd3 02       		.uleb128 0x2
 2017 0bd4 05080000 		.4byte	.LASF190
 2018 0bd8 11       		.byte	0x11
 2019 0bd9 A4       		.byte	0xa4
 2020 0bda 760B0000 		.4byte	0xb76
 2021 0bde 11       		.uleb128 0x11
 2022 0bdf 24       		.byte	0x24
 2023 0be0 11       		.byte	0x11
 2024 0be1 AA       		.byte	0xaa
 2025 0be2 5F0C0000 		.4byte	0xc5f
 2026 0be6 08       		.uleb128 0x8
 2027 0be7 B8000000 		.4byte	.LASF191
 2028 0beb 11       		.byte	0x11
 2029 0bec AE       		.byte	0xae
 2030 0bed DE000000 		.4byte	0xde
 2031 0bf1 00       		.byte	0
 2032 0bf2 08       		.uleb128 0x8
 2033 0bf3 0C040000 		.4byte	.LASF192
 2034 0bf7 11       		.byte	0x11
 2035 0bf8 B9       		.byte	0xb9
 2036 0bf9 7F0A0000 		.4byte	0xa7f
 2037 0bfd 04       		.byte	0x4
 2038 0bfe 08       		.uleb128 0x8
 2039 0bff 2E040000 		.4byte	.LASF193
 2040 0c03 11       		.byte	0x11
 2041 0c04 BE       		.byte	0xbe
 2042 0c05 7F0A0000 		.4byte	0xa7f
 2043 0c09 08       		.byte	0x8
ARM GAS  /var/folders/t8/16hdwfmd2fg_d3q6dgx6bpmw0000gn/T//ccQYZpjs.s 			page 37


 2044 0c0a 08       		.uleb128 0x8
 2045 0c0b 3D070000 		.4byte	.LASF194
 2046 0c0f 11       		.byte	0x11
 2047 0c10 C3       		.byte	0xc3
 2048 0c11 7F0A0000 		.4byte	0xa7f
 2049 0c15 0C       		.byte	0xc
 2050 0c16 08       		.uleb128 0x8
 2051 0c17 64070000 		.4byte	.LASF195
 2052 0c1b 11       		.byte	0x11
 2053 0c1c C8       		.byte	0xc8
 2054 0c1d C8000000 		.4byte	0xc8
 2055 0c21 10       		.byte	0x10
 2056 0c22 08       		.uleb128 0x8
 2057 0c23 0F090000 		.4byte	.LASF196
 2058 0c27 11       		.byte	0x11
 2059 0c28 CD       		.byte	0xcd
 2060 0c29 C8000000 		.4byte	0xc8
 2061 0c2d 12       		.byte	0x12
 2062 0c2e 08       		.uleb128 0x8
 2063 0c2f 50060000 		.4byte	.LASF197
 2064 0c33 11       		.byte	0x11
 2065 0c34 D3       		.byte	0xd3
 2066 0c35 5F0C0000 		.4byte	0xc5f
 2067 0c39 14       		.byte	0x14
 2068 0c3a 08       		.uleb128 0x8
 2069 0c3b 7F070000 		.4byte	.LASF198
 2070 0c3f 11       		.byte	0x11
 2071 0c40 D9       		.byte	0xd9
 2072 0c41 650C0000 		.4byte	0xc65
 2073 0c45 18       		.byte	0x18
 2074 0c46 08       		.uleb128 0x8
 2075 0c47 9B070000 		.4byte	.LASF199
 2076 0c4b 11       		.byte	0x11
 2077 0c4c DF       		.byte	0xdf
 2078 0c4d C8000000 		.4byte	0xc8
 2079 0c51 1C       		.byte	0x1c
 2080 0c52 08       		.uleb128 0x8
 2081 0c53 26070000 		.4byte	.LASF200
 2082 0c57 11       		.byte	0x11
 2083 0c58 E5       		.byte	0xe5
 2084 0c59 B4070000 		.4byte	0x7b4
 2085 0c5d 20       		.byte	0x20
 2086 0c5e 00       		.byte	0
 2087 0c5f 0C       		.uleb128 0xc
 2088 0c60 04       		.byte	0x4
 2089 0c61 6B0B0000 		.4byte	0xb6b
 2090 0c65 0C       		.uleb128 0xc
 2091 0c66 04       		.byte	0x4
 2092 0c67 D30B0000 		.4byte	0xbd3
 2093 0c6b 02       		.uleb128 0x2
 2094 0c6c 5A090000 		.4byte	.LASF201
 2095 0c70 11       		.byte	0x11
 2096 0c71 E6       		.byte	0xe6
 2097 0c72 DE0B0000 		.4byte	0xbde
 2098 0c76 05       		.uleb128 0x5
 2099 0c77 6B0C0000 		.4byte	0xc6b
 2100 0c7b 11       		.uleb128 0x11
ARM GAS  /var/folders/t8/16hdwfmd2fg_d3q6dgx6bpmw0000gn/T//ccQYZpjs.s 			page 38


 2101 0c7c 10       		.byte	0x10
 2102 0c7d 11       		.byte	0x11
 2103 0c7e EB       		.byte	0xeb
 2104 0c7f B40C0000 		.4byte	0xcb4
 2105 0c83 08       		.uleb128 0x8
 2106 0c84 75060000 		.4byte	.LASF202
 2107 0c88 11       		.byte	0x11
 2108 0c89 F0       		.byte	0xf0
 2109 0c8a A10A0000 		.4byte	0xaa1
 2110 0c8e 00       		.byte	0
 2111 0c8f 08       		.uleb128 0x8
 2112 0c90 F00A0000 		.4byte	.LASF203
 2113 0c94 11       		.byte	0x11
 2114 0c95 F5       		.byte	0xf5
 2115 0c96 E40A0000 		.4byte	0xae4
 2116 0c9a 04       		.byte	0x4
 2117 0c9b 08       		.uleb128 0x8
 2118 0c9c BD030000 		.4byte	.LASF204
 2119 0ca0 11       		.byte	0x11
 2120 0ca1 FB       		.byte	0xfb
 2121 0ca2 C30A0000 		.4byte	0xac3
 2122 0ca6 08       		.byte	0x8
 2123 0ca7 08       		.uleb128 0x8
 2124 0ca8 8B0A0000 		.4byte	.LASF205
 2125 0cac 11       		.byte	0x11
 2126 0cad FF       		.byte	0xff
 2127 0cae 5C0A0000 		.4byte	0xa5c
 2128 0cb2 0C       		.byte	0xc
 2129 0cb3 00       		.byte	0
 2130 0cb4 1C       		.uleb128 0x1c
 2131 0cb5 0E070000 		.4byte	.LASF206
 2132 0cb9 11       		.byte	0x11
 2133 0cba 0101     		.2byte	0x101
 2134 0cbc 7B0C0000 		.4byte	0xc7b
 2135 0cc0 05       		.uleb128 0x5
 2136 0cc1 B40C0000 		.4byte	0xcb4
 2137 0cc5 0C       		.uleb128 0xc
 2138 0cc6 04       		.byte	0x4
 2139 0cc7 C00C0000 		.4byte	0xcc0
 2140 0ccb 16       		.uleb128 0x16
 2141 0ccc DB0C0000 		.4byte	0xcdb
 2142 0cd0 DB0C0000 		.4byte	0xcdb
 2143 0cd4 19       		.uleb128 0x19
 2144 0cd5 A6000000 		.4byte	0xa6
 2145 0cd9 0F       		.byte	0xf
 2146 0cda 00       		.byte	0
 2147 0cdb 0C       		.uleb128 0xc
 2148 0cdc 04       		.byte	0x4
 2149 0cdd 760C0000 		.4byte	0xc76
 2150 0ce1 16       		.uleb128 0x16
 2151 0ce2 49030000 		.4byte	0x349
 2152 0ce6 F10C0000 		.4byte	0xcf1
 2153 0cea 19       		.uleb128 0x19
 2154 0ceb A6000000 		.4byte	0xa6
 2155 0cef 0E       		.byte	0xe
 2156 0cf0 00       		.byte	0
 2157 0cf1 16       		.uleb128 0x16
ARM GAS  /var/folders/t8/16hdwfmd2fg_d3q6dgx6bpmw0000gn/T//ccQYZpjs.s 			page 39


 2158 0cf2 B8000000 		.4byte	0xb8
 2159 0cf6 010D0000 		.4byte	0xd01
 2160 0cfa 19       		.uleb128 0x19
 2161 0cfb A6000000 		.4byte	0xa6
 2162 0cff 07       		.byte	0x7
 2163 0d00 00       		.byte	0
 2164 0d01 18       		.uleb128 0x18
 2165 0d02 590A0000 		.4byte	.LASF207
 2166 0d06 11       		.byte	0x11
 2167 0d07 9201     		.2byte	0x192
 2168 0d09 5B080000 		.4byte	0x85b
 2169 0d0d 11       		.uleb128 0x11
 2170 0d0e 10       		.byte	0x10
 2171 0d0f 12       		.byte	0x12
 2172 0d10 7D       		.byte	0x7d
 2173 0d11 3A0D0000 		.4byte	0xd3a
 2174 0d15 08       		.uleb128 0x8
 2175 0d16 D5090000 		.4byte	.LASF208
 2176 0d1a 12       		.byte	0x12
 2177 0d1b 7E       		.byte	0x7e
 2178 0d1c B8000000 		.4byte	0xb8
 2179 0d20 00       		.byte	0
 2180 0d21 08       		.uleb128 0x8
 2181 0d22 CD0A0000 		.4byte	.LASF209
 2182 0d26 12       		.byte	0x12
 2183 0d27 7F       		.byte	0x7f
 2184 0d28 B8000000 		.4byte	0xb8
 2185 0d2c 01       		.byte	0x1
 2186 0d2d 08       		.uleb128 0x8
 2187 0d2e 7E060000 		.4byte	.LASF210
 2188 0d32 12       		.byte	0x12
 2189 0d33 80       		.byte	0x80
 2190 0d34 3A0D0000 		.4byte	0xd3a
 2191 0d38 02       		.byte	0x2
 2192 0d39 00       		.byte	0
 2193 0d3a 16       		.uleb128 0x16
 2194 0d3b B8000000 		.4byte	0xb8
 2195 0d3f 4A0D0000 		.4byte	0xd4a
 2196 0d43 19       		.uleb128 0x19
 2197 0d44 A6000000 		.4byte	0xa6
 2198 0d48 0D       		.byte	0xd
 2199 0d49 00       		.byte	0
 2200 0d4a 11       		.uleb128 0x11
 2201 0d4b 10       		.byte	0x10
 2202 0d4c 12       		.byte	0x12
 2203 0d4d 83       		.byte	0x83
 2204 0d4e 6B0D0000 		.4byte	0xd6b
 2205 0d52 08       		.uleb128 0x8
 2206 0d53 D5090000 		.4byte	.LASF208
 2207 0d57 12       		.byte	0x12
 2208 0d58 84       		.byte	0x84
 2209 0d59 B8000000 		.4byte	0xb8
 2210 0d5d 00       		.byte	0
 2211 0d5e 08       		.uleb128 0x8
 2212 0d5f 30070000 		.4byte	.LASF211
 2213 0d63 12       		.byte	0x12
 2214 0d64 85       		.byte	0x85
ARM GAS  /var/folders/t8/16hdwfmd2fg_d3q6dgx6bpmw0000gn/T//ccQYZpjs.s 			page 40


 2215 0d65 6B0D0000 		.4byte	0xd6b
 2216 0d69 01       		.byte	0x1
 2217 0d6a 00       		.byte	0
 2218 0d6b 16       		.uleb128 0x16
 2219 0d6c B8000000 		.4byte	0xb8
 2220 0d70 7B0D0000 		.4byte	0xd7b
 2221 0d74 19       		.uleb128 0x19
 2222 0d75 A6000000 		.4byte	0xa6
 2223 0d79 0E       		.byte	0xe
 2224 0d7a 00       		.byte	0
 2225 0d7b 12       		.uleb128 0x12
 2226 0d7c 10       		.byte	0x10
 2227 0d7d 12       		.byte	0x12
 2228 0d7e 7B       		.byte	0x7b
 2229 0d7f 9F0D0000 		.4byte	0xd9f
 2230 0d83 21       		.uleb128 0x21
 2231 0d84 72617700 		.ascii	"raw\000"
 2232 0d88 12       		.byte	0x12
 2233 0d89 7C       		.byte	0x7c
 2234 0d8a 9F0D0000 		.4byte	0xd9f
 2235 0d8e 22       		.uleb128 0x22
 2236 0d8f 0D0D0000 		.4byte	0xd0d
 2237 0d93 13       		.uleb128 0x13
 2238 0d94 930B0000 		.4byte	.LASF212
 2239 0d98 12       		.byte	0x12
 2240 0d99 86       		.byte	0x86
 2241 0d9a 4A0D0000 		.4byte	0xd4a
 2242 0d9e 00       		.byte	0
 2243 0d9f 16       		.uleb128 0x16
 2244 0da0 B8000000 		.4byte	0xb8
 2245 0da4 AF0D0000 		.4byte	0xdaf
 2246 0da8 19       		.uleb128 0x19
 2247 0da9 A6000000 		.4byte	0xa6
 2248 0dad 0F       		.byte	0xf
 2249 0dae 00       		.byte	0
 2250 0daf 02       		.uleb128 0x2
 2251 0db0 08000000 		.4byte	.LASF213
 2252 0db4 12       		.byte	0x12
 2253 0db5 88       		.byte	0x88
 2254 0db6 7B0D0000 		.4byte	0xd7b
 2255 0dba 11       		.uleb128 0x11
 2256 0dbb 05       		.byte	0x5
 2257 0dbc 12       		.byte	0x12
 2258 0dbd 91       		.byte	0x91
 2259 0dbe F70D0000 		.4byte	0xdf7
 2260 0dc2 08       		.uleb128 0x8
 2261 0dc3 D4030000 		.4byte	.LASF214
 2262 0dc7 12       		.byte	0x12
 2263 0dc8 92       		.byte	0x92
 2264 0dc9 B8000000 		.4byte	0xb8
 2265 0dcd 00       		.byte	0
 2266 0dce 09       		.uleb128 0x9
 2267 0dcf 7800     		.ascii	"x\000"
 2268 0dd1 12       		.byte	0x12
 2269 0dd2 93       		.byte	0x93
 2270 0dd3 AD000000 		.4byte	0xad
 2271 0dd7 01       		.byte	0x1
ARM GAS  /var/folders/t8/16hdwfmd2fg_d3q6dgx6bpmw0000gn/T//ccQYZpjs.s 			page 41


 2272 0dd8 09       		.uleb128 0x9
 2273 0dd9 7900     		.ascii	"y\000"
 2274 0ddb 12       		.byte	0x12
 2275 0ddc 94       		.byte	0x94
 2276 0ddd AD000000 		.4byte	0xad
 2277 0de1 02       		.byte	0x2
 2278 0de2 09       		.uleb128 0x9
 2279 0de3 7600     		.ascii	"v\000"
 2280 0de5 12       		.byte	0x12
 2281 0de6 95       		.byte	0x95
 2282 0de7 AD000000 		.4byte	0xad
 2283 0deb 03       		.byte	0x3
 2284 0dec 09       		.uleb128 0x9
 2285 0ded 6800     		.ascii	"h\000"
 2286 0def 12       		.byte	0x12
 2287 0df0 96       		.byte	0x96
 2288 0df1 AD000000 		.4byte	0xad
 2289 0df5 04       		.byte	0x4
 2290 0df6 00       		.byte	0
 2291 0df7 02       		.uleb128 0x2
 2292 0df8 1B090000 		.4byte	.LASF215
 2293 0dfc 12       		.byte	0x12
 2294 0dfd 97       		.byte	0x97
 2295 0dfe BA0D0000 		.4byte	0xdba
 2296 0e02 11       		.uleb128 0x11
 2297 0e03 14       		.byte	0x14
 2298 0e04 13       		.byte	0x13
 2299 0e05 19       		.byte	0x19
 2300 0e06 470E0000 		.4byte	0xe47
 2301 0e0a 08       		.uleb128 0x8
 2302 0e0b 72000000 		.4byte	.LASF216
 2303 0e0f 13       		.byte	0x13
 2304 0e10 1A       		.byte	0x1a
 2305 0e11 4C0E0000 		.4byte	0xe4c
 2306 0e15 00       		.byte	0
 2307 0e16 08       		.uleb128 0x8
 2308 0e17 A30B0000 		.4byte	.LASF217
 2309 0e1b 13       		.byte	0x13
 2310 0e1c 1B       		.byte	0x1b
 2311 0e1d 630E0000 		.4byte	0xe63
 2312 0e21 04       		.byte	0x4
 2313 0e22 08       		.uleb128 0x8
 2314 0e23 EC060000 		.4byte	.LASF218
 2315 0e27 13       		.byte	0x13
 2316 0e28 1C       		.byte	0x1c
 2317 0e29 7A0E0000 		.4byte	0xe7a
 2318 0e2d 08       		.byte	0x8
 2319 0e2e 08       		.uleb128 0x8
 2320 0e2f D1020000 		.4byte	.LASF219
 2321 0e33 13       		.byte	0x13
 2322 0e34 1D       		.byte	0x1d
 2323 0e35 8B0E0000 		.4byte	0xe8b
 2324 0e39 0C       		.byte	0xc
 2325 0e3a 08       		.uleb128 0x8
 2326 0e3b D7080000 		.4byte	.LASF220
 2327 0e3f 13       		.byte	0x13
 2328 0e40 1E       		.byte	0x1e
ARM GAS  /var/folders/t8/16hdwfmd2fg_d3q6dgx6bpmw0000gn/T//ccQYZpjs.s 			page 42


 2329 0e41 8B0E0000 		.4byte	0xe8b
 2330 0e45 10       		.byte	0x10
 2331 0e46 00       		.byte	0
 2332 0e47 23       		.uleb128 0x23
 2333 0e48 B8000000 		.4byte	0xb8
 2334 0e4c 0C       		.uleb128 0xc
 2335 0e4d 04       		.byte	0x4
 2336 0e4e 470E0000 		.4byte	0xe47
 2337 0e52 0E       		.uleb128 0xe
 2338 0e53 5D0E0000 		.4byte	0xe5d
 2339 0e57 0F       		.uleb128 0xf
 2340 0e58 5D0E0000 		.4byte	0xe5d
 2341 0e5c 00       		.byte	0
 2342 0e5d 0C       		.uleb128 0xc
 2343 0e5e 04       		.byte	0x4
 2344 0e5f AF0D0000 		.4byte	0xdaf
 2345 0e63 0C       		.uleb128 0xc
 2346 0e64 04       		.byte	0x4
 2347 0e65 520E0000 		.4byte	0xe52
 2348 0e69 0E       		.uleb128 0xe
 2349 0e6a 740E0000 		.4byte	0xe74
 2350 0e6e 0F       		.uleb128 0xf
 2351 0e6f 740E0000 		.4byte	0xe74
 2352 0e73 00       		.byte	0
 2353 0e74 0C       		.uleb128 0xc
 2354 0e75 04       		.byte	0x4
 2355 0e76 F70D0000 		.4byte	0xdf7
 2356 0e7a 0C       		.uleb128 0xc
 2357 0e7b 04       		.byte	0x4
 2358 0e7c 690E0000 		.4byte	0xe69
 2359 0e80 0E       		.uleb128 0xe
 2360 0e81 8B0E0000 		.4byte	0xe8b
 2361 0e85 0F       		.uleb128 0xf
 2362 0e86 C8000000 		.4byte	0xc8
 2363 0e8a 00       		.byte	0
 2364 0e8b 0C       		.uleb128 0xc
 2365 0e8c 04       		.byte	0x4
 2366 0e8d 800E0000 		.4byte	0xe80
 2367 0e91 02       		.uleb128 0x2
 2368 0e92 73020000 		.4byte	.LASF221
 2369 0e96 13       		.byte	0x13
 2370 0e97 1F       		.byte	0x1f
 2371 0e98 020E0000 		.4byte	0xe02
 2372 0e9c 1A       		.uleb128 0x1a
 2373 0e9d BE080000 		.4byte	.LASF222
 2374 0ea1 14       		.byte	0x14
 2375 0ea2 20       		.byte	0x20
 2376 0ea3 BA070000 		.4byte	0x7ba
 2377 0ea7 1A       		.uleb128 0x1a
 2378 0ea8 18070000 		.4byte	.LASF223
 2379 0eac 14       		.byte	0x14
 2380 0ead 23       		.byte	0x23
 2381 0eae B8000000 		.4byte	0xb8
 2382 0eb2 1A       		.uleb128 0x1a
 2383 0eb3 C2060000 		.4byte	.LASF224
 2384 0eb7 14       		.byte	0x14
 2385 0eb8 24       		.byte	0x24
ARM GAS  /var/folders/t8/16hdwfmd2fg_d3q6dgx6bpmw0000gn/T//ccQYZpjs.s 			page 43


 2386 0eb9 B8000000 		.4byte	0xb8
 2387 0ebd 11       		.uleb128 0x11
 2388 0ebe 01       		.byte	0x1
 2389 0ebf 15       		.byte	0x15
 2390 0ec0 21       		.byte	0x21
 2391 0ec1 110F0000 		.4byte	0xf11
 2392 0ec5 24       		.uleb128 0x24
 2393 0ec6 A3060000 		.4byte	.LASF225
 2394 0eca 15       		.byte	0x15
 2395 0ecb 22       		.byte	0x22
 2396 0ecc BA070000 		.4byte	0x7ba
 2397 0ed0 01       		.byte	0x1
 2398 0ed1 01       		.byte	0x1
 2399 0ed2 07       		.byte	0x7
 2400 0ed3 00       		.byte	0
 2401 0ed4 24       		.uleb128 0x24
 2402 0ed5 12060000 		.4byte	.LASF226
 2403 0ed9 15       		.byte	0x15
 2404 0eda 23       		.byte	0x23
 2405 0edb BA070000 		.4byte	0x7ba
 2406 0edf 01       		.byte	0x1
 2407 0ee0 01       		.byte	0x1
 2408 0ee1 06       		.byte	0x6
 2409 0ee2 00       		.byte	0
 2410 0ee3 24       		.uleb128 0x24
 2411 0ee4 89070000 		.4byte	.LASF227
 2412 0ee8 15       		.byte	0x15
 2413 0ee9 24       		.byte	0x24
 2414 0eea BA070000 		.4byte	0x7ba
 2415 0eee 01       		.byte	0x1
 2416 0eef 01       		.byte	0x1
 2417 0ef0 05       		.byte	0x5
 2418 0ef1 00       		.byte	0
 2419 0ef2 24       		.uleb128 0x24
 2420 0ef3 4C010000 		.4byte	.LASF228
 2421 0ef7 15       		.byte	0x15
 2422 0ef8 25       		.byte	0x25
 2423 0ef9 BA070000 		.4byte	0x7ba
 2424 0efd 01       		.byte	0x1
 2425 0efe 01       		.byte	0x1
 2426 0eff 04       		.byte	0x4
 2427 0f00 00       		.byte	0
 2428 0f01 24       		.uleb128 0x24
 2429 0f02 CD0A0000 		.4byte	.LASF209
 2430 0f06 15       		.byte	0x15
 2431 0f07 26       		.byte	0x26
 2432 0f08 B8000000 		.4byte	0xb8
 2433 0f0c 01       		.byte	0x1
 2434 0f0d 04       		.byte	0x4
 2435 0f0e 00       		.byte	0
 2436 0f0f 00       		.byte	0
 2437 0f10 00       		.byte	0
 2438 0f11 12       		.uleb128 0x12
 2439 0f12 01       		.byte	0x1
 2440 0f13 15       		.byte	0x15
 2441 0f14 20       		.byte	0x20
 2442 0f15 2A0F0000 		.4byte	0xf2a
ARM GAS  /var/folders/t8/16hdwfmd2fg_d3q6dgx6bpmw0000gn/T//ccQYZpjs.s 			page 44


 2443 0f19 22       		.uleb128 0x22
 2444 0f1a BD0E0000 		.4byte	0xebd
 2445 0f1e 21       		.uleb128 0x21
 2446 0f1f 72617700 		.ascii	"raw\000"
 2447 0f23 15       		.byte	0x15
 2448 0f24 28       		.byte	0x28
 2449 0f25 B8000000 		.4byte	0xb8
 2450 0f29 00       		.byte	0
 2451 0f2a 02       		.uleb128 0x2
 2452 0f2b 27050000 		.4byte	.LASF229
 2453 0f2f 15       		.byte	0x15
 2454 0f30 29       		.byte	0x29
 2455 0f31 110F0000 		.4byte	0xf11
 2456 0f35 1A       		.uleb128 0x1a
 2457 0f36 DF040000 		.4byte	.LASF230
 2458 0f3a 15       		.byte	0x15
 2459 0f3b 2B       		.byte	0x2b
 2460 0f3c 2A0F0000 		.4byte	0xf2a
 2461 0f40 25       		.uleb128 0x25
 2462 0f41 9C0E0000 		.4byte	0xe9c
 2463 0f45 01       		.byte	0x1
 2464 0f46 1B       		.byte	0x1b
 2465 0f47 05       		.uleb128 0x5
 2466 0f48 03       		.byte	0x3
 2467 0f49 00000000 		.4byte	keyboard_nkro
 2468 0f4d 26       		.uleb128 0x26
 2469 0f4e 97090000 		.4byte	.LASF231
 2470 0f52 01       		.byte	0x1
 2471 0f53 1E       		.byte	0x1e
 2472 0f54 5E0F0000 		.4byte	0xf5e
 2473 0f58 05       		.uleb128 0x5
 2474 0f59 03       		.byte	0x3
 2475 0f5a 00000000 		.4byte	driver
 2476 0f5e 0C       		.uleb128 0xc
 2477 0f5f 04       		.byte	0x4
 2478 0f60 910E0000 		.4byte	0xe91
 2479 0f64 26       		.uleb128 0x26
 2480 0f65 77050000 		.4byte	.LASF232
 2481 0f69 01       		.byte	0x1
 2482 0f6a 1F       		.byte	0x1f
 2483 0f6b C8000000 		.4byte	0xc8
 2484 0f6f 05       		.uleb128 0x5
 2485 0f70 03       		.byte	0x3
 2486 0f71 00000000 		.4byte	last_system_report
 2487 0f75 26       		.uleb128 0x26
 2488 0f76 51030000 		.4byte	.LASF233
 2489 0f7a 01       		.byte	0x1
 2490 0f7b 20       		.byte	0x20
 2491 0f7c C8000000 		.4byte	0xc8
 2492 0f80 05       		.uleb128 0x5
 2493 0f81 03       		.byte	0x3
 2494 0f82 00000000 		.4byte	last_consumer_report
 2495 0f86 27       		.uleb128 0x27
 2496 0f87 BD040000 		.4byte	.LASF234
 2497 0f8b 01       		.byte	0x1
 2498 0f8c 66       		.byte	0x66
 2499 0f8d C8000000 		.4byte	0xc8
ARM GAS  /var/folders/t8/16hdwfmd2fg_d3q6dgx6bpmw0000gn/T//ccQYZpjs.s 			page 45


 2500 0f91 00000000 		.4byte	.LFB182
 2501 0f95 0C000000 		.4byte	.LFE182-.LFB182
 2502 0f99 01       		.uleb128 0x1
 2503 0f9a 9C       		.byte	0x9c
 2504 0f9b 27       		.uleb128 0x27
 2505 0f9c 3E080000 		.4byte	.LASF235
 2506 0fa0 01       		.byte	0x1
 2507 0fa1 61       		.byte	0x61
 2508 0fa2 C8000000 		.4byte	0xc8
 2509 0fa6 00000000 		.4byte	.LFB181
 2510 0faa 0C000000 		.4byte	.LFE181-.LFB181
 2511 0fae 01       		.uleb128 0x1
 2512 0faf 9C       		.byte	0x9c
 2513 0fb0 28       		.uleb128 0x28
 2514 0fb1 A20A0000 		.4byte	.LASF236
 2515 0fb5 01       		.byte	0x1
 2516 0fb6 54       		.byte	0x54
 2517 0fb7 00000000 		.4byte	.LFB180
 2518 0fbb 44000000 		.4byte	.LFE180-.LFB180
 2519 0fbf 01       		.uleb128 0x1
 2520 0fc0 9C       		.byte	0x9c
 2521 0fc1 FE0F0000 		.4byte	0xffe
 2522 0fc5 29       		.uleb128 0x29
 2523 0fc6 44070000 		.4byte	.LASF238
 2524 0fca 01       		.byte	0x1
 2525 0fcb 54       		.byte	0x54
 2526 0fcc C8000000 		.4byte	0xc8
 2527 0fd0 00000000 		.4byte	.LLST4
 2528 0fd4 2A       		.uleb128 0x2a
 2529 0fd5 1A000000 		.4byte	.LVL20
 2530 0fd9 E40F0000 		.4byte	0xfe4
 2531 0fdd 2B       		.uleb128 0x2b
 2532 0fde 01       		.uleb128 0x1
 2533 0fdf 50       		.byte	0x50
 2534 0fe0 02       		.uleb128 0x2
 2535 0fe1 74       		.byte	0x74
 2536 0fe2 00       		.sleb128 0
 2537 0fe3 00       		.byte	0
 2538 0fe4 2C       		.uleb128 0x2c
 2539 0fe5 30000000 		.4byte	.LVL21
 2540 0fe9 53110000 		.4byte	0x1153
 2541 0fed 2B       		.uleb128 0x2b
 2542 0fee 01       		.uleb128 0x1
 2543 0fef 50       		.byte	0x50
 2544 0ff0 05       		.uleb128 0x5
 2545 0ff1 03       		.byte	0x3
 2546 0ff2 00000000 		.4byte	.LC22
 2547 0ff6 2B       		.uleb128 0x2b
 2548 0ff7 01       		.uleb128 0x1
 2549 0ff8 51       		.byte	0x51
 2550 0ff9 02       		.uleb128 0x2
 2551 0ffa 74       		.byte	0x74
 2552 0ffb 00       		.sleb128 0
 2553 0ffc 00       		.byte	0
 2554 0ffd 00       		.byte	0
 2555 0ffe 28       		.uleb128 0x28
 2556 0fff 480B0000 		.4byte	.LASF237
ARM GAS  /var/folders/t8/16hdwfmd2fg_d3q6dgx6bpmw0000gn/T//ccQYZpjs.s 			page 46


 2557 1003 01       		.byte	0x1
 2558 1004 47       		.byte	0x47
 2559 1005 00000000 		.4byte	.LFB179
 2560 1009 44000000 		.4byte	.LFE179-.LFB179
 2561 100d 01       		.uleb128 0x1
 2562 100e 9C       		.byte	0x9c
 2563 100f 4C100000 		.4byte	0x104c
 2564 1013 29       		.uleb128 0x29
 2565 1014 44070000 		.4byte	.LASF238
 2566 1018 01       		.byte	0x1
 2567 1019 47       		.byte	0x47
 2568 101a C8000000 		.4byte	0xc8
 2569 101e 21000000 		.4byte	.LLST3
 2570 1022 2A       		.uleb128 0x2a
 2571 1023 1A000000 		.4byte	.LVL17
 2572 1027 32100000 		.4byte	0x1032
 2573 102b 2B       		.uleb128 0x2b
 2574 102c 01       		.uleb128 0x1
 2575 102d 50       		.byte	0x50
 2576 102e 02       		.uleb128 0x2
 2577 102f 74       		.byte	0x74
 2578 1030 00       		.sleb128 0
 2579 1031 00       		.byte	0
 2580 1032 2C       		.uleb128 0x2c
 2581 1033 30000000 		.4byte	.LVL18
 2582 1037 53110000 		.4byte	0x1153
 2583 103b 2B       		.uleb128 0x2b
 2584 103c 01       		.uleb128 0x1
 2585 103d 50       		.byte	0x50
 2586 103e 05       		.uleb128 0x5
 2587 103f 03       		.byte	0x3
 2588 1040 00000000 		.4byte	.LC17
 2589 1044 2B       		.uleb128 0x2b
 2590 1045 01       		.uleb128 0x1
 2591 1046 51       		.byte	0x51
 2592 1047 02       		.uleb128 0x2
 2593 1048 74       		.byte	0x74
 2594 1049 00       		.sleb128 0
 2595 104a 00       		.byte	0
 2596 104b 00       		.byte	0
 2597 104c 28       		.uleb128 0x28
 2598 104d F3020000 		.4byte	.LASF239
 2599 1051 01       		.byte	0x1
 2600 1052 41       		.byte	0x41
 2601 1053 00000000 		.4byte	.LFB178
 2602 1057 14000000 		.4byte	.LFE178-.LFB178
 2603 105b 01       		.uleb128 0x1
 2604 105c 9C       		.byte	0x9c
 2605 105d 7E100000 		.4byte	0x107e
 2606 1061 29       		.uleb128 0x29
 2607 1062 44070000 		.4byte	.LASF238
 2608 1066 01       		.byte	0x1
 2609 1067 41       		.byte	0x41
 2610 1068 740E0000 		.4byte	0xe74
 2611 106c 42000000 		.4byte	.LLST2
 2612 1070 2D       		.uleb128 0x2d
 2613 1071 0E000000 		.4byte	.LVL15
ARM GAS  /var/folders/t8/16hdwfmd2fg_d3q6dgx6bpmw0000gn/T//ccQYZpjs.s 			page 47


 2614 1075 2B       		.uleb128 0x2b
 2615 1076 01       		.uleb128 0x1
 2616 1077 50       		.byte	0x50
 2617 1078 03       		.uleb128 0x3
 2618 1079 F3       		.byte	0xf3
 2619 107a 01       		.uleb128 0x1
 2620 107b 50       		.byte	0x50
 2621 107c 00       		.byte	0
 2622 107d 00       		.byte	0
 2623 107e 28       		.uleb128 0x28
 2624 107f 9B080000 		.4byte	.LASF240
 2625 1083 01       		.byte	0x1
 2626 1084 33       		.byte	0x33
 2627 1085 00000000 		.4byte	.LFB177
 2628 1089 7C000000 		.4byte	.LFE177-.LFB177
 2629 108d 01       		.uleb128 0x1
 2630 108e 9C       		.byte	0x9c
 2631 108f 08110000 		.4byte	0x1108
 2632 1093 29       		.uleb128 0x29
 2633 1094 44070000 		.4byte	.LASF238
 2634 1098 01       		.byte	0x1
 2635 1099 33       		.byte	0x33
 2636 109a 5D0E0000 		.4byte	0xe5d
 2637 109e 63000000 		.4byte	.LLST0
 2638 10a2 2E       		.uleb128 0x2e
 2639 10a3 22000000 		.4byte	.LBB2
 2640 10a7 2A000000 		.4byte	.LBE2-.LBB2
 2641 10ab CD100000 		.4byte	0x10cd
 2642 10af 2F       		.uleb128 0x2f
 2643 10b0 6900     		.ascii	"i\000"
 2644 10b2 01       		.byte	0x1
 2645 10b3 3A       		.byte	0x3a
 2646 10b4 B8000000 		.4byte	0xb8
 2647 10b8 B4000000 		.4byte	.LLST1
 2648 10bc 2C       		.uleb128 0x2c
 2649 10bd 40000000 		.4byte	.LVL7
 2650 10c1 53110000 		.4byte	0x1153
 2651 10c5 2B       		.uleb128 0x2b
 2652 10c6 01       		.uleb128 0x1
 2653 10c7 50       		.byte	0x50
 2654 10c8 02       		.uleb128 0x2
 2655 10c9 78       		.byte	0x78
 2656 10ca 00       		.sleb128 0
 2657 10cb 00       		.byte	0
 2658 10cc 00       		.byte	0
 2659 10cd 2A       		.uleb128 0x2a
 2660 10ce 14000000 		.4byte	.LVL3
 2661 10d2 DD100000 		.4byte	0x10dd
 2662 10d6 2B       		.uleb128 0x2b
 2663 10d7 01       		.uleb128 0x1
 2664 10d8 50       		.byte	0x50
 2665 10d9 02       		.uleb128 0x2
 2666 10da 74       		.byte	0x74
 2667 10db 00       		.sleb128 0
 2668 10dc 00       		.byte	0
 2669 10dd 30       		.uleb128 0x30
 2670 10de 5C000000 		.4byte	.LVL11
ARM GAS  /var/folders/t8/16hdwfmd2fg_d3q6dgx6bpmw0000gn/T//ccQYZpjs.s 			page 48


 2671 10e2 53110000 		.4byte	0x1153
 2672 10e6 F4100000 		.4byte	0x10f4
 2673 10ea 2B       		.uleb128 0x2b
 2674 10eb 01       		.uleb128 0x1
 2675 10ec 50       		.byte	0x50
 2676 10ed 05       		.uleb128 0x5
 2677 10ee 03       		.byte	0x3
 2678 10ef 14000000 		.4byte	.LC11
 2679 10f3 00       		.byte	0
 2680 10f4 2C       		.uleb128 0x2c
 2681 10f5 64000000 		.4byte	.LVL13
 2682 10f9 53110000 		.4byte	0x1153
 2683 10fd 2B       		.uleb128 0x2b
 2684 10fe 01       		.uleb128 0x1
 2685 10ff 50       		.byte	0x50
 2686 1100 05       		.uleb128 0x5
 2687 1101 03       		.byte	0x3
 2688 1102 00000000 		.4byte	.LC7
 2689 1106 00       		.byte	0
 2690 1107 00       		.byte	0
 2691 1108 31       		.uleb128 0x31
 2692 1109 200A0000 		.4byte	.LASF241
 2693 110d 01       		.byte	0x1
 2694 110e 2D       		.byte	0x2d
 2695 110f B8000000 		.4byte	0xb8
 2696 1113 00000000 		.4byte	.LFB176
 2697 1117 18000000 		.4byte	.LFE176-.LFB176
 2698 111b 01       		.uleb128 0x1
 2699 111c 9C       		.byte	0x9c
 2700 111d 27       		.uleb128 0x27
 2701 111e 6F070000 		.4byte	.LASF242
 2702 1122 01       		.byte	0x1
 2703 1123 28       		.byte	0x28
 2704 1124 5E0F0000 		.4byte	0xf5e
 2705 1128 00000000 		.4byte	.LFB175
 2706 112c 0C000000 		.4byte	.LFE175-.LFB175
 2707 1130 01       		.uleb128 0x1
 2708 1131 9C       		.byte	0x9c
 2709 1132 28       		.uleb128 0x28
 2710 1133 1B010000 		.4byte	.LASF243
 2711 1137 01       		.byte	0x1
 2712 1138 23       		.byte	0x23
 2713 1139 00000000 		.4byte	.LFB174
 2714 113d 0C000000 		.4byte	.LFE174-.LFB174
 2715 1141 01       		.uleb128 0x1
 2716 1142 9C       		.byte	0x9c
 2717 1143 53110000 		.4byte	0x1153
 2718 1147 32       		.uleb128 0x32
 2719 1148 6400     		.ascii	"d\000"
 2720 114a 01       		.byte	0x1
 2721 114b 23       		.byte	0x23
 2722 114c 5E0F0000 		.4byte	0xf5e
 2723 1150 01       		.uleb128 0x1
 2724 1151 50       		.byte	0x50
 2725 1152 00       		.byte	0
 2726 1153 33       		.uleb128 0x33
 2727 1154 B2060000 		.4byte	.LASF247
ARM GAS  /var/folders/t8/16hdwfmd2fg_d3q6dgx6bpmw0000gn/T//ccQYZpjs.s 			page 49


 2728 1158 B2060000 		.4byte	.LASF247
 2729 115c 16       		.byte	0x16
 2730 115d 67       		.byte	0x67
 2731 115e 00       		.byte	0
 2732              		.section	.debug_abbrev,"",%progbits
 2733              	.Ldebug_abbrev0:
 2734 0000 01       		.uleb128 0x1
 2735 0001 11       		.uleb128 0x11
 2736 0002 01       		.byte	0x1
 2737 0003 25       		.uleb128 0x25
 2738 0004 0E       		.uleb128 0xe
 2739 0005 13       		.uleb128 0x13
 2740 0006 0B       		.uleb128 0xb
 2741 0007 03       		.uleb128 0x3
 2742 0008 0E       		.uleb128 0xe
 2743 0009 1B       		.uleb128 0x1b
 2744 000a 0E       		.uleb128 0xe
 2745 000b 55       		.uleb128 0x55
 2746 000c 17       		.uleb128 0x17
 2747 000d 11       		.uleb128 0x11
 2748 000e 01       		.uleb128 0x1
 2749 000f 10       		.uleb128 0x10
 2750 0010 17       		.uleb128 0x17
 2751 0011 00       		.byte	0
 2752 0012 00       		.byte	0
 2753 0013 02       		.uleb128 0x2
 2754 0014 16       		.uleb128 0x16
 2755 0015 00       		.byte	0
 2756 0016 03       		.uleb128 0x3
 2757 0017 0E       		.uleb128 0xe
 2758 0018 3A       		.uleb128 0x3a
 2759 0019 0B       		.uleb128 0xb
 2760 001a 3B       		.uleb128 0x3b
 2761 001b 0B       		.uleb128 0xb
 2762 001c 49       		.uleb128 0x49
 2763 001d 13       		.uleb128 0x13
 2764 001e 00       		.byte	0
 2765 001f 00       		.byte	0
 2766 0020 03       		.uleb128 0x3
 2767 0021 24       		.uleb128 0x24
 2768 0022 00       		.byte	0
 2769 0023 0B       		.uleb128 0xb
 2770 0024 0B       		.uleb128 0xb
 2771 0025 3E       		.uleb128 0x3e
 2772 0026 0B       		.uleb128 0xb
 2773 0027 03       		.uleb128 0x3
 2774 0028 0E       		.uleb128 0xe
 2775 0029 00       		.byte	0
 2776 002a 00       		.byte	0
 2777 002b 04       		.uleb128 0x4
 2778 002c 24       		.uleb128 0x24
 2779 002d 00       		.byte	0
 2780 002e 0B       		.uleb128 0xb
 2781 002f 0B       		.uleb128 0xb
 2782 0030 3E       		.uleb128 0x3e
 2783 0031 0B       		.uleb128 0xb
 2784 0032 03       		.uleb128 0x3
ARM GAS  /var/folders/t8/16hdwfmd2fg_d3q6dgx6bpmw0000gn/T//ccQYZpjs.s 			page 50


 2785 0033 08       		.uleb128 0x8
 2786 0034 00       		.byte	0
 2787 0035 00       		.byte	0
 2788 0036 05       		.uleb128 0x5
 2789 0037 26       		.uleb128 0x26
 2790 0038 00       		.byte	0
 2791 0039 49       		.uleb128 0x49
 2792 003a 13       		.uleb128 0x13
 2793 003b 00       		.byte	0
 2794 003c 00       		.byte	0
 2795 003d 06       		.uleb128 0x6
 2796 003e 35       		.uleb128 0x35
 2797 003f 00       		.byte	0
 2798 0040 49       		.uleb128 0x49
 2799 0041 13       		.uleb128 0x13
 2800 0042 00       		.byte	0
 2801 0043 00       		.byte	0
 2802 0044 07       		.uleb128 0x7
 2803 0045 13       		.uleb128 0x13
 2804 0046 01       		.byte	0x1
 2805 0047 03       		.uleb128 0x3
 2806 0048 0E       		.uleb128 0xe
 2807 0049 0B       		.uleb128 0xb
 2808 004a 0B       		.uleb128 0xb
 2809 004b 3A       		.uleb128 0x3a
 2810 004c 0B       		.uleb128 0xb
 2811 004d 3B       		.uleb128 0x3b
 2812 004e 0B       		.uleb128 0xb
 2813 004f 01       		.uleb128 0x1
 2814 0050 13       		.uleb128 0x13
 2815 0051 00       		.byte	0
 2816 0052 00       		.byte	0
 2817 0053 08       		.uleb128 0x8
 2818 0054 0D       		.uleb128 0xd
 2819 0055 00       		.byte	0
 2820 0056 03       		.uleb128 0x3
 2821 0057 0E       		.uleb128 0xe
 2822 0058 3A       		.uleb128 0x3a
 2823 0059 0B       		.uleb128 0xb
 2824 005a 3B       		.uleb128 0x3b
 2825 005b 0B       		.uleb128 0xb
 2826 005c 49       		.uleb128 0x49
 2827 005d 13       		.uleb128 0x13
 2828 005e 38       		.uleb128 0x38
 2829 005f 0B       		.uleb128 0xb
 2830 0060 00       		.byte	0
 2831 0061 00       		.byte	0
 2832 0062 09       		.uleb128 0x9
 2833 0063 0D       		.uleb128 0xd
 2834 0064 00       		.byte	0
 2835 0065 03       		.uleb128 0x3
 2836 0066 08       		.uleb128 0x8
 2837 0067 3A       		.uleb128 0x3a
 2838 0068 0B       		.uleb128 0xb
 2839 0069 3B       		.uleb128 0x3b
 2840 006a 0B       		.uleb128 0xb
 2841 006b 49       		.uleb128 0x49
ARM GAS  /var/folders/t8/16hdwfmd2fg_d3q6dgx6bpmw0000gn/T//ccQYZpjs.s 			page 51


 2842 006c 13       		.uleb128 0x13
 2843 006d 38       		.uleb128 0x38
 2844 006e 0B       		.uleb128 0xb
 2845 006f 00       		.byte	0
 2846 0070 00       		.byte	0
 2847 0071 0A       		.uleb128 0xa
 2848 0072 0D       		.uleb128 0xd
 2849 0073 00       		.byte	0
 2850 0074 03       		.uleb128 0x3
 2851 0075 08       		.uleb128 0x8
 2852 0076 3A       		.uleb128 0x3a
 2853 0077 0B       		.uleb128 0xb
 2854 0078 3B       		.uleb128 0x3b
 2855 0079 05       		.uleb128 0x5
 2856 007a 49       		.uleb128 0x49
 2857 007b 13       		.uleb128 0x13
 2858 007c 38       		.uleb128 0x38
 2859 007d 0B       		.uleb128 0xb
 2860 007e 00       		.byte	0
 2861 007f 00       		.byte	0
 2862 0080 0B       		.uleb128 0xb
 2863 0081 0D       		.uleb128 0xd
 2864 0082 00       		.byte	0
 2865 0083 03       		.uleb128 0x3
 2866 0084 0E       		.uleb128 0xe
 2867 0085 3A       		.uleb128 0x3a
 2868 0086 0B       		.uleb128 0xb
 2869 0087 3B       		.uleb128 0x3b
 2870 0088 05       		.uleb128 0x5
 2871 0089 49       		.uleb128 0x49
 2872 008a 13       		.uleb128 0x13
 2873 008b 38       		.uleb128 0x38
 2874 008c 0B       		.uleb128 0xb
 2875 008d 00       		.byte	0
 2876 008e 00       		.byte	0
 2877 008f 0C       		.uleb128 0xc
 2878 0090 0F       		.uleb128 0xf
 2879 0091 00       		.byte	0
 2880 0092 0B       		.uleb128 0xb
 2881 0093 0B       		.uleb128 0xb
 2882 0094 49       		.uleb128 0x49
 2883 0095 13       		.uleb128 0x13
 2884 0096 00       		.byte	0
 2885 0097 00       		.byte	0
 2886 0098 0D       		.uleb128 0xd
 2887 0099 13       		.uleb128 0x13
 2888 009a 01       		.byte	0x1
 2889 009b 03       		.uleb128 0x3
 2890 009c 0E       		.uleb128 0xe
 2891 009d 0B       		.uleb128 0xb
 2892 009e 0B       		.uleb128 0xb
 2893 009f 3A       		.uleb128 0x3a
 2894 00a0 0B       		.uleb128 0xb
 2895 00a1 3B       		.uleb128 0x3b
 2896 00a2 05       		.uleb128 0x5
 2897 00a3 01       		.uleb128 0x1
 2898 00a4 13       		.uleb128 0x13
ARM GAS  /var/folders/t8/16hdwfmd2fg_d3q6dgx6bpmw0000gn/T//ccQYZpjs.s 			page 52


 2899 00a5 00       		.byte	0
 2900 00a6 00       		.byte	0
 2901 00a7 0E       		.uleb128 0xe
 2902 00a8 15       		.uleb128 0x15
 2903 00a9 01       		.byte	0x1
 2904 00aa 27       		.uleb128 0x27
 2905 00ab 19       		.uleb128 0x19
 2906 00ac 01       		.uleb128 0x1
 2907 00ad 13       		.uleb128 0x13
 2908 00ae 00       		.byte	0
 2909 00af 00       		.byte	0
 2910 00b0 0F       		.uleb128 0xf
 2911 00b1 05       		.uleb128 0x5
 2912 00b2 00       		.byte	0
 2913 00b3 49       		.uleb128 0x49
 2914 00b4 13       		.uleb128 0x13
 2915 00b5 00       		.byte	0
 2916 00b6 00       		.byte	0
 2917 00b7 10       		.uleb128 0x10
 2918 00b8 0F       		.uleb128 0xf
 2919 00b9 00       		.byte	0
 2920 00ba 0B       		.uleb128 0xb
 2921 00bb 0B       		.uleb128 0xb
 2922 00bc 00       		.byte	0
 2923 00bd 00       		.byte	0
 2924 00be 11       		.uleb128 0x11
 2925 00bf 13       		.uleb128 0x13
 2926 00c0 01       		.byte	0x1
 2927 00c1 0B       		.uleb128 0xb
 2928 00c2 0B       		.uleb128 0xb
 2929 00c3 3A       		.uleb128 0x3a
 2930 00c4 0B       		.uleb128 0xb
 2931 00c5 3B       		.uleb128 0x3b
 2932 00c6 0B       		.uleb128 0xb
 2933 00c7 01       		.uleb128 0x1
 2934 00c8 13       		.uleb128 0x13
 2935 00c9 00       		.byte	0
 2936 00ca 00       		.byte	0
 2937 00cb 12       		.uleb128 0x12
 2938 00cc 17       		.uleb128 0x17
 2939 00cd 01       		.byte	0x1
 2940 00ce 0B       		.uleb128 0xb
 2941 00cf 0B       		.uleb128 0xb
 2942 00d0 3A       		.uleb128 0x3a
 2943 00d1 0B       		.uleb128 0xb
 2944 00d2 3B       		.uleb128 0x3b
 2945 00d3 0B       		.uleb128 0xb
 2946 00d4 01       		.uleb128 0x1
 2947 00d5 13       		.uleb128 0x13
 2948 00d6 00       		.byte	0
 2949 00d7 00       		.byte	0
 2950 00d8 13       		.uleb128 0x13
 2951 00d9 0D       		.uleb128 0xd
 2952 00da 00       		.byte	0
 2953 00db 03       		.uleb128 0x3
 2954 00dc 0E       		.uleb128 0xe
 2955 00dd 3A       		.uleb128 0x3a
ARM GAS  /var/folders/t8/16hdwfmd2fg_d3q6dgx6bpmw0000gn/T//ccQYZpjs.s 			page 53


 2956 00de 0B       		.uleb128 0xb
 2957 00df 3B       		.uleb128 0x3b
 2958 00e0 0B       		.uleb128 0xb
 2959 00e1 49       		.uleb128 0x49
 2960 00e2 13       		.uleb128 0x13
 2961 00e3 00       		.byte	0
 2962 00e4 00       		.byte	0
 2963 00e5 14       		.uleb128 0x14
 2964 00e6 0D       		.uleb128 0xd
 2965 00e7 00       		.byte	0
 2966 00e8 03       		.uleb128 0x3
 2967 00e9 0E       		.uleb128 0xe
 2968 00ea 3A       		.uleb128 0x3a
 2969 00eb 0B       		.uleb128 0xb
 2970 00ec 3B       		.uleb128 0x3b
 2971 00ed 05       		.uleb128 0x5
 2972 00ee 49       		.uleb128 0x49
 2973 00ef 13       		.uleb128 0x13
 2974 00f0 00       		.byte	0
 2975 00f1 00       		.byte	0
 2976 00f2 15       		.uleb128 0x15
 2977 00f3 34       		.uleb128 0x34
 2978 00f4 00       		.byte	0
 2979 00f5 03       		.uleb128 0x3
 2980 00f6 08       		.uleb128 0x8
 2981 00f7 3A       		.uleb128 0x3a
 2982 00f8 0B       		.uleb128 0xb
 2983 00f9 3B       		.uleb128 0x3b
 2984 00fa 05       		.uleb128 0x5
 2985 00fb 49       		.uleb128 0x49
 2986 00fc 13       		.uleb128 0x13
 2987 00fd 3F       		.uleb128 0x3f
 2988 00fe 19       		.uleb128 0x19
 2989 00ff 3C       		.uleb128 0x3c
 2990 0100 19       		.uleb128 0x19
 2991 0101 00       		.byte	0
 2992 0102 00       		.byte	0
 2993 0103 16       		.uleb128 0x16
 2994 0104 01       		.uleb128 0x1
 2995 0105 01       		.byte	0x1
 2996 0106 49       		.uleb128 0x49
 2997 0107 13       		.uleb128 0x13
 2998 0108 01       		.uleb128 0x1
 2999 0109 13       		.uleb128 0x13
 3000 010a 00       		.byte	0
 3001 010b 00       		.byte	0
 3002 010c 17       		.uleb128 0x17
 3003 010d 21       		.uleb128 0x21
 3004 010e 00       		.byte	0
 3005 010f 00       		.byte	0
 3006 0110 00       		.byte	0
 3007 0111 18       		.uleb128 0x18
 3008 0112 34       		.uleb128 0x34
 3009 0113 00       		.byte	0
 3010 0114 03       		.uleb128 0x3
 3011 0115 0E       		.uleb128 0xe
 3012 0116 3A       		.uleb128 0x3a
ARM GAS  /var/folders/t8/16hdwfmd2fg_d3q6dgx6bpmw0000gn/T//ccQYZpjs.s 			page 54


 3013 0117 0B       		.uleb128 0xb
 3014 0118 3B       		.uleb128 0x3b
 3015 0119 05       		.uleb128 0x5
 3016 011a 49       		.uleb128 0x49
 3017 011b 13       		.uleb128 0x13
 3018 011c 3F       		.uleb128 0x3f
 3019 011d 19       		.uleb128 0x19
 3020 011e 3C       		.uleb128 0x3c
 3021 011f 19       		.uleb128 0x19
 3022 0120 00       		.byte	0
 3023 0121 00       		.byte	0
 3024 0122 19       		.uleb128 0x19
 3025 0123 21       		.uleb128 0x21
 3026 0124 00       		.byte	0
 3027 0125 49       		.uleb128 0x49
 3028 0126 13       		.uleb128 0x13
 3029 0127 2F       		.uleb128 0x2f
 3030 0128 0B       		.uleb128 0xb
 3031 0129 00       		.byte	0
 3032 012a 00       		.byte	0
 3033 012b 1A       		.uleb128 0x1a
 3034 012c 34       		.uleb128 0x34
 3035 012d 00       		.byte	0
 3036 012e 03       		.uleb128 0x3
 3037 012f 0E       		.uleb128 0xe
 3038 0130 3A       		.uleb128 0x3a
 3039 0131 0B       		.uleb128 0xb
 3040 0132 3B       		.uleb128 0x3b
 3041 0133 0B       		.uleb128 0xb
 3042 0134 49       		.uleb128 0x49
 3043 0135 13       		.uleb128 0x13
 3044 0136 3F       		.uleb128 0x3f
 3045 0137 19       		.uleb128 0x19
 3046 0138 3C       		.uleb128 0x3c
 3047 0139 19       		.uleb128 0x19
 3048 013a 00       		.byte	0
 3049 013b 00       		.byte	0
 3050 013c 1B       		.uleb128 0x1b
 3051 013d 13       		.uleb128 0x13
 3052 013e 01       		.byte	0x1
 3053 013f 0B       		.uleb128 0xb
 3054 0140 05       		.uleb128 0x5
 3055 0141 3A       		.uleb128 0x3a
 3056 0142 0B       		.uleb128 0xb
 3057 0143 3B       		.uleb128 0x3b
 3058 0144 0B       		.uleb128 0xb
 3059 0145 01       		.uleb128 0x1
 3060 0146 13       		.uleb128 0x13
 3061 0147 00       		.byte	0
 3062 0148 00       		.byte	0
 3063 0149 1C       		.uleb128 0x1c
 3064 014a 16       		.uleb128 0x16
 3065 014b 00       		.byte	0
 3066 014c 03       		.uleb128 0x3
 3067 014d 0E       		.uleb128 0xe
 3068 014e 3A       		.uleb128 0x3a
 3069 014f 0B       		.uleb128 0xb
ARM GAS  /var/folders/t8/16hdwfmd2fg_d3q6dgx6bpmw0000gn/T//ccQYZpjs.s 			page 55


 3070 0150 3B       		.uleb128 0x3b
 3071 0151 05       		.uleb128 0x5
 3072 0152 49       		.uleb128 0x49
 3073 0153 13       		.uleb128 0x13
 3074 0154 00       		.byte	0
 3075 0155 00       		.byte	0
 3076 0156 1D       		.uleb128 0x1d
 3077 0157 04       		.uleb128 0x4
 3078 0158 01       		.byte	0x1
 3079 0159 3E       		.uleb128 0x3e
 3080 015a 0B       		.uleb128 0xb
 3081 015b 0B       		.uleb128 0xb
 3082 015c 0B       		.uleb128 0xb
 3083 015d 49       		.uleb128 0x49
 3084 015e 13       		.uleb128 0x13
 3085 015f 3A       		.uleb128 0x3a
 3086 0160 0B       		.uleb128 0xb
 3087 0161 3B       		.uleb128 0x3b
 3088 0162 05       		.uleb128 0x5
 3089 0163 01       		.uleb128 0x1
 3090 0164 13       		.uleb128 0x13
 3091 0165 00       		.byte	0
 3092 0166 00       		.byte	0
 3093 0167 1E       		.uleb128 0x1e
 3094 0168 28       		.uleb128 0x28
 3095 0169 00       		.byte	0
 3096 016a 03       		.uleb128 0x3
 3097 016b 0E       		.uleb128 0xe
 3098 016c 1C       		.uleb128 0x1c
 3099 016d 0B       		.uleb128 0xb
 3100 016e 00       		.byte	0
 3101 016f 00       		.byte	0
 3102 0170 1F       		.uleb128 0x1f
 3103 0171 13       		.uleb128 0x13
 3104 0172 01       		.byte	0x1
 3105 0173 0B       		.uleb128 0xb
 3106 0174 0B       		.uleb128 0xb
 3107 0175 3A       		.uleb128 0x3a
 3108 0176 0B       		.uleb128 0xb
 3109 0177 3B       		.uleb128 0x3b
 3110 0178 05       		.uleb128 0x5
 3111 0179 01       		.uleb128 0x1
 3112 017a 13       		.uleb128 0x13
 3113 017b 00       		.byte	0
 3114 017c 00       		.byte	0
 3115 017d 20       		.uleb128 0x20
 3116 017e 15       		.uleb128 0x15
 3117 017f 01       		.byte	0x1
 3118 0180 27       		.uleb128 0x27
 3119 0181 19       		.uleb128 0x19
 3120 0182 49       		.uleb128 0x49
 3121 0183 13       		.uleb128 0x13
 3122 0184 01       		.uleb128 0x1
 3123 0185 13       		.uleb128 0x13
 3124 0186 00       		.byte	0
 3125 0187 00       		.byte	0
 3126 0188 21       		.uleb128 0x21
ARM GAS  /var/folders/t8/16hdwfmd2fg_d3q6dgx6bpmw0000gn/T//ccQYZpjs.s 			page 56


 3127 0189 0D       		.uleb128 0xd
 3128 018a 00       		.byte	0
 3129 018b 03       		.uleb128 0x3
 3130 018c 08       		.uleb128 0x8
 3131 018d 3A       		.uleb128 0x3a
 3132 018e 0B       		.uleb128 0xb
 3133 018f 3B       		.uleb128 0x3b
 3134 0190 0B       		.uleb128 0xb
 3135 0191 49       		.uleb128 0x49
 3136 0192 13       		.uleb128 0x13
 3137 0193 00       		.byte	0
 3138 0194 00       		.byte	0
 3139 0195 22       		.uleb128 0x22
 3140 0196 0D       		.uleb128 0xd
 3141 0197 00       		.byte	0
 3142 0198 49       		.uleb128 0x49
 3143 0199 13       		.uleb128 0x13
 3144 019a 00       		.byte	0
 3145 019b 00       		.byte	0
 3146 019c 23       		.uleb128 0x23
 3147 019d 15       		.uleb128 0x15
 3148 019e 00       		.byte	0
 3149 019f 27       		.uleb128 0x27
 3150 01a0 19       		.uleb128 0x19
 3151 01a1 49       		.uleb128 0x49
 3152 01a2 13       		.uleb128 0x13
 3153 01a3 00       		.byte	0
 3154 01a4 00       		.byte	0
 3155 01a5 24       		.uleb128 0x24
 3156 01a6 0D       		.uleb128 0xd
 3157 01a7 00       		.byte	0
 3158 01a8 03       		.uleb128 0x3
 3159 01a9 0E       		.uleb128 0xe
 3160 01aa 3A       		.uleb128 0x3a
 3161 01ab 0B       		.uleb128 0xb
 3162 01ac 3B       		.uleb128 0x3b
 3163 01ad 0B       		.uleb128 0xb
 3164 01ae 49       		.uleb128 0x49
 3165 01af 13       		.uleb128 0x13
 3166 01b0 0B       		.uleb128 0xb
 3167 01b1 0B       		.uleb128 0xb
 3168 01b2 0D       		.uleb128 0xd
 3169 01b3 0B       		.uleb128 0xb
 3170 01b4 0C       		.uleb128 0xc
 3171 01b5 0B       		.uleb128 0xb
 3172 01b6 38       		.uleb128 0x38
 3173 01b7 0B       		.uleb128 0xb
 3174 01b8 00       		.byte	0
 3175 01b9 00       		.byte	0
 3176 01ba 25       		.uleb128 0x25
 3177 01bb 34       		.uleb128 0x34
 3178 01bc 00       		.byte	0
 3179 01bd 47       		.uleb128 0x47
 3180 01be 13       		.uleb128 0x13
 3181 01bf 3A       		.uleb128 0x3a
 3182 01c0 0B       		.uleb128 0xb
 3183 01c1 3B       		.uleb128 0x3b
ARM GAS  /var/folders/t8/16hdwfmd2fg_d3q6dgx6bpmw0000gn/T//ccQYZpjs.s 			page 57


 3184 01c2 0B       		.uleb128 0xb
 3185 01c3 02       		.uleb128 0x2
 3186 01c4 18       		.uleb128 0x18
 3187 01c5 00       		.byte	0
 3188 01c6 00       		.byte	0
 3189 01c7 26       		.uleb128 0x26
 3190 01c8 34       		.uleb128 0x34
 3191 01c9 00       		.byte	0
 3192 01ca 03       		.uleb128 0x3
 3193 01cb 0E       		.uleb128 0xe
 3194 01cc 3A       		.uleb128 0x3a
 3195 01cd 0B       		.uleb128 0xb
 3196 01ce 3B       		.uleb128 0x3b
 3197 01cf 0B       		.uleb128 0xb
 3198 01d0 49       		.uleb128 0x49
 3199 01d1 13       		.uleb128 0x13
 3200 01d2 02       		.uleb128 0x2
 3201 01d3 18       		.uleb128 0x18
 3202 01d4 00       		.byte	0
 3203 01d5 00       		.byte	0
 3204 01d6 27       		.uleb128 0x27
 3205 01d7 2E       		.uleb128 0x2e
 3206 01d8 00       		.byte	0
 3207 01d9 3F       		.uleb128 0x3f
 3208 01da 19       		.uleb128 0x19
 3209 01db 03       		.uleb128 0x3
 3210 01dc 0E       		.uleb128 0xe
 3211 01dd 3A       		.uleb128 0x3a
 3212 01de 0B       		.uleb128 0xb
 3213 01df 3B       		.uleb128 0x3b
 3214 01e0 0B       		.uleb128 0xb
 3215 01e1 27       		.uleb128 0x27
 3216 01e2 19       		.uleb128 0x19
 3217 01e3 49       		.uleb128 0x49
 3218 01e4 13       		.uleb128 0x13
 3219 01e5 11       		.uleb128 0x11
 3220 01e6 01       		.uleb128 0x1
 3221 01e7 12       		.uleb128 0x12
 3222 01e8 06       		.uleb128 0x6
 3223 01e9 40       		.uleb128 0x40
 3224 01ea 18       		.uleb128 0x18
 3225 01eb 9742     		.uleb128 0x2117
 3226 01ed 19       		.uleb128 0x19
 3227 01ee 00       		.byte	0
 3228 01ef 00       		.byte	0
 3229 01f0 28       		.uleb128 0x28
 3230 01f1 2E       		.uleb128 0x2e
 3231 01f2 01       		.byte	0x1
 3232 01f3 3F       		.uleb128 0x3f
 3233 01f4 19       		.uleb128 0x19
 3234 01f5 03       		.uleb128 0x3
 3235 01f6 0E       		.uleb128 0xe
 3236 01f7 3A       		.uleb128 0x3a
 3237 01f8 0B       		.uleb128 0xb
 3238 01f9 3B       		.uleb128 0x3b
 3239 01fa 0B       		.uleb128 0xb
 3240 01fb 27       		.uleb128 0x27
ARM GAS  /var/folders/t8/16hdwfmd2fg_d3q6dgx6bpmw0000gn/T//ccQYZpjs.s 			page 58


 3241 01fc 19       		.uleb128 0x19
 3242 01fd 11       		.uleb128 0x11
 3243 01fe 01       		.uleb128 0x1
 3244 01ff 12       		.uleb128 0x12
 3245 0200 06       		.uleb128 0x6
 3246 0201 40       		.uleb128 0x40
 3247 0202 18       		.uleb128 0x18
 3248 0203 9742     		.uleb128 0x2117
 3249 0205 19       		.uleb128 0x19
 3250 0206 01       		.uleb128 0x1
 3251 0207 13       		.uleb128 0x13
 3252 0208 00       		.byte	0
 3253 0209 00       		.byte	0
 3254 020a 29       		.uleb128 0x29
 3255 020b 05       		.uleb128 0x5
 3256 020c 00       		.byte	0
 3257 020d 03       		.uleb128 0x3
 3258 020e 0E       		.uleb128 0xe
 3259 020f 3A       		.uleb128 0x3a
 3260 0210 0B       		.uleb128 0xb
 3261 0211 3B       		.uleb128 0x3b
 3262 0212 0B       		.uleb128 0xb
 3263 0213 49       		.uleb128 0x49
 3264 0214 13       		.uleb128 0x13
 3265 0215 02       		.uleb128 0x2
 3266 0216 17       		.uleb128 0x17
 3267 0217 00       		.byte	0
 3268 0218 00       		.byte	0
 3269 0219 2A       		.uleb128 0x2a
 3270 021a 898201   		.uleb128 0x4109
 3271 021d 01       		.byte	0x1
 3272 021e 11       		.uleb128 0x11
 3273 021f 01       		.uleb128 0x1
 3274 0220 01       		.uleb128 0x1
 3275 0221 13       		.uleb128 0x13
 3276 0222 00       		.byte	0
 3277 0223 00       		.byte	0
 3278 0224 2B       		.uleb128 0x2b
 3279 0225 8A8201   		.uleb128 0x410a
 3280 0228 00       		.byte	0
 3281 0229 02       		.uleb128 0x2
 3282 022a 18       		.uleb128 0x18
 3283 022b 9142     		.uleb128 0x2111
 3284 022d 18       		.uleb128 0x18
 3285 022e 00       		.byte	0
 3286 022f 00       		.byte	0
 3287 0230 2C       		.uleb128 0x2c
 3288 0231 898201   		.uleb128 0x4109
 3289 0234 01       		.byte	0x1
 3290 0235 11       		.uleb128 0x11
 3291 0236 01       		.uleb128 0x1
 3292 0237 31       		.uleb128 0x31
 3293 0238 13       		.uleb128 0x13
 3294 0239 00       		.byte	0
 3295 023a 00       		.byte	0
 3296 023b 2D       		.uleb128 0x2d
 3297 023c 898201   		.uleb128 0x4109
ARM GAS  /var/folders/t8/16hdwfmd2fg_d3q6dgx6bpmw0000gn/T//ccQYZpjs.s 			page 59


 3298 023f 01       		.byte	0x1
 3299 0240 11       		.uleb128 0x11
 3300 0241 01       		.uleb128 0x1
 3301 0242 00       		.byte	0
 3302 0243 00       		.byte	0
 3303 0244 2E       		.uleb128 0x2e
 3304 0245 0B       		.uleb128 0xb
 3305 0246 01       		.byte	0x1
 3306 0247 11       		.uleb128 0x11
 3307 0248 01       		.uleb128 0x1
 3308 0249 12       		.uleb128 0x12
 3309 024a 06       		.uleb128 0x6
 3310 024b 01       		.uleb128 0x1
 3311 024c 13       		.uleb128 0x13
 3312 024d 00       		.byte	0
 3313 024e 00       		.byte	0
 3314 024f 2F       		.uleb128 0x2f
 3315 0250 34       		.uleb128 0x34
 3316 0251 00       		.byte	0
 3317 0252 03       		.uleb128 0x3
 3318 0253 08       		.uleb128 0x8
 3319 0254 3A       		.uleb128 0x3a
 3320 0255 0B       		.uleb128 0xb
 3321 0256 3B       		.uleb128 0x3b
 3322 0257 0B       		.uleb128 0xb
 3323 0258 49       		.uleb128 0x49
 3324 0259 13       		.uleb128 0x13
 3325 025a 02       		.uleb128 0x2
 3326 025b 17       		.uleb128 0x17
 3327 025c 00       		.byte	0
 3328 025d 00       		.byte	0
 3329 025e 30       		.uleb128 0x30
 3330 025f 898201   		.uleb128 0x4109
 3331 0262 01       		.byte	0x1
 3332 0263 11       		.uleb128 0x11
 3333 0264 01       		.uleb128 0x1
 3334 0265 31       		.uleb128 0x31
 3335 0266 13       		.uleb128 0x13
 3336 0267 01       		.uleb128 0x1
 3337 0268 13       		.uleb128 0x13
 3338 0269 00       		.byte	0
 3339 026a 00       		.byte	0
 3340 026b 31       		.uleb128 0x31
 3341 026c 2E       		.uleb128 0x2e
 3342 026d 00       		.byte	0
 3343 026e 3F       		.uleb128 0x3f
 3344 026f 19       		.uleb128 0x19
 3345 0270 03       		.uleb128 0x3
 3346 0271 0E       		.uleb128 0xe
 3347 0272 3A       		.uleb128 0x3a
 3348 0273 0B       		.uleb128 0xb
 3349 0274 3B       		.uleb128 0x3b
 3350 0275 0B       		.uleb128 0xb
 3351 0276 27       		.uleb128 0x27
 3352 0277 19       		.uleb128 0x19
 3353 0278 49       		.uleb128 0x49
 3354 0279 13       		.uleb128 0x13
ARM GAS  /var/folders/t8/16hdwfmd2fg_d3q6dgx6bpmw0000gn/T//ccQYZpjs.s 			page 60


 3355 027a 11       		.uleb128 0x11
 3356 027b 01       		.uleb128 0x1
 3357 027c 12       		.uleb128 0x12
 3358 027d 06       		.uleb128 0x6
 3359 027e 40       		.uleb128 0x40
 3360 027f 18       		.uleb128 0x18
 3361 0280 9642     		.uleb128 0x2116
 3362 0282 19       		.uleb128 0x19
 3363 0283 00       		.byte	0
 3364 0284 00       		.byte	0
 3365 0285 32       		.uleb128 0x32
 3366 0286 05       		.uleb128 0x5
 3367 0287 00       		.byte	0
 3368 0288 03       		.uleb128 0x3
 3369 0289 08       		.uleb128 0x8
 3370 028a 3A       		.uleb128 0x3a
 3371 028b 0B       		.uleb128 0xb
 3372 028c 3B       		.uleb128 0x3b
 3373 028d 0B       		.uleb128 0xb
 3374 028e 49       		.uleb128 0x49
 3375 028f 13       		.uleb128 0x13
 3376 0290 02       		.uleb128 0x2
 3377 0291 18       		.uleb128 0x18
 3378 0292 00       		.byte	0
 3379 0293 00       		.byte	0
 3380 0294 33       		.uleb128 0x33
 3381 0295 2E       		.uleb128 0x2e
 3382 0296 00       		.byte	0
 3383 0297 3F       		.uleb128 0x3f
 3384 0298 19       		.uleb128 0x19
 3385 0299 3C       		.uleb128 0x3c
 3386 029a 19       		.uleb128 0x19
 3387 029b 6E       		.uleb128 0x6e
 3388 029c 0E       		.uleb128 0xe
 3389 029d 03       		.uleb128 0x3
 3390 029e 0E       		.uleb128 0xe
 3391 029f 3A       		.uleb128 0x3a
 3392 02a0 0B       		.uleb128 0xb
 3393 02a1 3B       		.uleb128 0x3b
 3394 02a2 0B       		.uleb128 0xb
 3395 02a3 00       		.byte	0
 3396 02a4 00       		.byte	0
 3397 02a5 00       		.byte	0
 3398              		.section	.debug_loc,"",%progbits
 3399              	.Ldebug_loc0:
 3400              	.LLST4:
 3401 0000 00000000 		.4byte	.LVL19
 3402 0004 19000000 		.4byte	.LVL20-1
 3403 0008 0100     		.2byte	0x1
 3404 000a 50       		.byte	0x50
 3405 000b 19000000 		.4byte	.LVL20-1
 3406 000f 44000000 		.4byte	.LFE180
 3407 0013 0400     		.2byte	0x4
 3408 0015 F3       		.byte	0xf3
 3409 0016 01       		.uleb128 0x1
 3410 0017 50       		.byte	0x50
 3411 0018 9F       		.byte	0x9f
ARM GAS  /var/folders/t8/16hdwfmd2fg_d3q6dgx6bpmw0000gn/T//ccQYZpjs.s 			page 61


 3412 0019 00000000 		.4byte	0
 3413 001d 00000000 		.4byte	0
 3414              	.LLST3:
 3415 0021 00000000 		.4byte	.LVL16
 3416 0025 19000000 		.4byte	.LVL17-1
 3417 0029 0100     		.2byte	0x1
 3418 002b 50       		.byte	0x50
 3419 002c 19000000 		.4byte	.LVL17-1
 3420 0030 44000000 		.4byte	.LFE179
 3421 0034 0400     		.2byte	0x4
 3422 0036 F3       		.byte	0xf3
 3423 0037 01       		.uleb128 0x1
 3424 0038 50       		.byte	0x50
 3425 0039 9F       		.byte	0x9f
 3426 003a 00000000 		.4byte	0
 3427 003e 00000000 		.4byte	0
 3428              	.LLST2:
 3429 0042 00000000 		.4byte	.LVL14
 3430 0046 0D000000 		.4byte	.LVL15-1
 3431 004a 0100     		.2byte	0x1
 3432 004c 50       		.byte	0x50
 3433 004d 0D000000 		.4byte	.LVL15-1
 3434 0051 14000000 		.4byte	.LFE178
 3435 0055 0400     		.2byte	0x4
 3436 0057 F3       		.byte	0xf3
 3437 0058 01       		.uleb128 0x1
 3438 0059 50       		.byte	0x50
 3439 005a 9F       		.byte	0x9f
 3440 005b 00000000 		.4byte	0
 3441 005f 00000000 		.4byte	0
 3442              	.LLST0:
 3443 0063 00000000 		.4byte	.LVL2
 3444 0067 13000000 		.4byte	.LVL3-1
 3445 006b 0100     		.2byte	0x1
 3446 006d 50       		.byte	0x50
 3447 006e 13000000 		.4byte	.LVL3-1
 3448 0072 2C000000 		.4byte	.LVL4
 3449 0076 0100     		.2byte	0x1
 3450 0078 54       		.byte	0x54
 3451 0079 2C000000 		.4byte	.LVL4
 3452 007d 50000000 		.4byte	.LVL9
 3453 0081 0300     		.2byte	0x3
 3454 0083 76       		.byte	0x76
 3455 0084 70       		.sleb128 -16
 3456 0085 9F       		.byte	0x9f
 3457 0086 50000000 		.4byte	.LVL9
 3458 008a 56000000 		.4byte	.LVL10
 3459 008e 0400     		.2byte	0x4
 3460 0090 F3       		.byte	0xf3
 3461 0091 01       		.uleb128 0x1
 3462 0092 50       		.byte	0x50
 3463 0093 9F       		.byte	0x9f
 3464 0094 56000000 		.4byte	.LVL10
 3465 0098 5E000000 		.4byte	.LVL12
 3466 009c 0300     		.2byte	0x3
 3467 009e 76       		.byte	0x76
 3468 009f 70       		.sleb128 -16
ARM GAS  /var/folders/t8/16hdwfmd2fg_d3q6dgx6bpmw0000gn/T//ccQYZpjs.s 			page 62


 3469 00a0 9F       		.byte	0x9f
 3470 00a1 5E000000 		.4byte	.LVL12
 3471 00a5 7C000000 		.4byte	.LFE177
 3472 00a9 0100     		.2byte	0x1
 3473 00ab 54       		.byte	0x54
 3474 00ac 00000000 		.4byte	0
 3475 00b0 00000000 		.4byte	0
 3476              	.LLST1:
 3477 00b4 2C000000 		.4byte	.LVL4
 3478 00b8 2E000000 		.4byte	.LVL5
 3479 00bc 0800     		.2byte	0x8
 3480 00be 74       		.byte	0x74
 3481 00bf 00       		.sleb128 0
 3482 00c0 76       		.byte	0x76
 3483 00c1 70       		.sleb128 -16
 3484 00c2 1C       		.byte	0x1c
 3485 00c3 23       		.byte	0x23
 3486 00c4 01       		.uleb128 0x1
 3487 00c5 9F       		.byte	0x9f
 3488 00c6 32000000 		.4byte	.LVL6
 3489 00ca 46000000 		.4byte	.LVL8
 3490 00ce 0600     		.2byte	0x6
 3491 00d0 74       		.byte	0x74
 3492 00d1 00       		.sleb128 0
 3493 00d2 76       		.byte	0x76
 3494 00d3 70       		.sleb128 -16
 3495 00d4 1C       		.byte	0x1c
 3496 00d5 9F       		.byte	0x9f
 3497 00d6 00000000 		.4byte	0
 3498 00da 00000000 		.4byte	0
 3499              		.section	.debug_aranges,"",%progbits
 3500 0000 5C000000 		.4byte	0x5c
 3501 0004 0200     		.2byte	0x2
 3502 0006 00000000 		.4byte	.Ldebug_info0
 3503 000a 04       		.byte	0x4
 3504 000b 00       		.byte	0
 3505 000c 0000     		.2byte	0
 3506 000e 0000     		.2byte	0
 3507 0010 00000000 		.4byte	.LFB174
 3508 0014 0C000000 		.4byte	.LFE174-.LFB174
 3509 0018 00000000 		.4byte	.LFB175
 3510 001c 0C000000 		.4byte	.LFE175-.LFB175
 3511 0020 00000000 		.4byte	.LFB176
 3512 0024 18000000 		.4byte	.LFE176-.LFB176
 3513 0028 00000000 		.4byte	.LFB177
 3514 002c 7C000000 		.4byte	.LFE177-.LFB177
 3515 0030 00000000 		.4byte	.LFB178
 3516 0034 14000000 		.4byte	.LFE178-.LFB178
 3517 0038 00000000 		.4byte	.LFB179
 3518 003c 44000000 		.4byte	.LFE179-.LFB179
 3519 0040 00000000 		.4byte	.LFB180
 3520 0044 44000000 		.4byte	.LFE180-.LFB180
 3521 0048 00000000 		.4byte	.LFB181
 3522 004c 0C000000 		.4byte	.LFE181-.LFB181
 3523 0050 00000000 		.4byte	.LFB182
 3524 0054 0C000000 		.4byte	.LFE182-.LFB182
 3525 0058 00000000 		.4byte	0
ARM GAS  /var/folders/t8/16hdwfmd2fg_d3q6dgx6bpmw0000gn/T//ccQYZpjs.s 			page 63


 3526 005c 00000000 		.4byte	0
 3527              		.section	.debug_ranges,"",%progbits
 3528              	.Ldebug_ranges0:
 3529 0000 00000000 		.4byte	.LFB174
 3530 0004 0C000000 		.4byte	.LFE174
 3531 0008 00000000 		.4byte	.LFB175
 3532 000c 0C000000 		.4byte	.LFE175
 3533 0010 00000000 		.4byte	.LFB176
 3534 0014 18000000 		.4byte	.LFE176
 3535 0018 00000000 		.4byte	.LFB177
 3536 001c 7C000000 		.4byte	.LFE177
 3537 0020 00000000 		.4byte	.LFB178
 3538 0024 14000000 		.4byte	.LFE178
 3539 0028 00000000 		.4byte	.LFB179
 3540 002c 44000000 		.4byte	.LFE179
 3541 0030 00000000 		.4byte	.LFB180
 3542 0034 44000000 		.4byte	.LFE180
 3543 0038 00000000 		.4byte	.LFB181
 3544 003c 0C000000 		.4byte	.LFE181
 3545 0040 00000000 		.4byte	.LFB182
 3546 0044 0C000000 		.4byte	.LFE182
 3547 0048 00000000 		.4byte	0
 3548 004c 00000000 		.4byte	0
 3549              		.section	.debug_line,"",%progbits
 3550              	.Ldebug_line0:
 3551 0000 37050000 		.section	.debug_str,"MS",%progbits,1
 3551      02004304 
 3551      00000201 
 3551      FB0E0D00 
 3551      01010101 
 3552              	.LASF109:
 3553 0000 6F66665F 		.ascii	"off_ctx\000"
 3553      63747800 
 3554              	.LASF213:
 3555 0008 7265706F 		.ascii	"report_keyboard_t\000"
 3555      72745F6B 
 3555      6579626F 
 3555      6172645F 
 3555      7400
 3556              	.LASF15:
 3557 001a 696E7438 		.ascii	"int8_t\000"
 3557      5F7400
 3558              	.LASF21:
 3559 0021 73697A65 		.ascii	"size_t\000"
 3559      5F7400
 3560              	.LASF93:
 3561 0028 77747365 		.ascii	"wtsemp\000"
 3561      6D7000
 3562              	.LASF30:
 3563 002f 73797374 		.ascii	"systime_t\000"
 3563      696D655F 
 3563      7400
 3564              	.LASF117:
 3565 0039 6F66665F 		.ascii	"off_preempt\000"
 3565      70726565 
 3565      6D707400 
 3566              	.LASF98:
ARM GAS  /var/folders/t8/16hdwfmd2fg_d3q6dgx6bpmw0000gn/T//ccQYZpjs.s 			page 64


 3567 0045 6F776E65 		.ascii	"owner\000"
 3567      7200
 3568              	.LASF26:
 3569 004b 74707269 		.ascii	"tprio_t\000"
 3569      6F5F7400 
 3570              	.LASF120:
 3571 0053 63685F64 		.ascii	"ch_debug\000"
 3571      65627567 
 3571      00
 3572              	.LASF80:
 3573 005c 50544F52 		.ascii	"PTOR\000"
 3573      00
 3574              	.LASF18:
 3575 0061 696E7433 		.ascii	"int32_t\000"
 3575      325F7400 
 3576              	.LASF59:
 3577 0069 76746675 		.ascii	"vtfunc_t\000"
 3577      6E635F74 
 3577      00
 3578              	.LASF216:
 3579 0072 6B657962 		.ascii	"keyboard_leds\000"
 3579      6F617264 
 3579      5F6C6564 
 3579      7300
 3580              	.LASF65:
 3581 0080 63685F76 		.ascii	"ch_virtual_timers_list\000"
 3581      69727475 
 3581      616C5F74 
 3581      696D6572 
 3581      735F6C69 
 3582              	.LASF156:
 3583 0097 5553425F 		.ascii	"USB_EP0_TX\000"
 3583      4550305F 
 3583      545800
 3584              	.LASF108:
 3585 00a2 6F66665F 		.ascii	"off_prio\000"
 3585      7072696F 
 3585      00
 3586              	.LASF132:
 3587 00ab 636F6E66 		.ascii	"config\000"
 3587      696700
 3588              	.LASF38:
 3589 00b2 73746174 		.ascii	"state\000"
 3589      6500
 3590              	.LASF191:
 3591 00b8 65705F6D 		.ascii	"ep_mode\000"
 3591      6F646500 
 3592              	.LASF71:
 3593 00c0 6C6F636B 		.ascii	"lock_cnt\000"
 3593      5F636E74 
 3593      00
 3594              	.LASF152:
 3595 00c9 5553425F 		.ascii	"USB_ACTIVE\000"
 3595      41435449 
 3595      564500
 3596              	.LASF111:
 3597 00d4 6F66665F 		.ascii	"off_older\000"
ARM GAS  /var/folders/t8/16hdwfmd2fg_d3q6dgx6bpmw0000gn/T//ccQYZpjs.s 			page 65


 3597      6F6C6465 
 3597      7200
 3598              	.LASF33:
 3599 00de 7072696F 		.ascii	"prio\000"
 3599      00
 3600              	.LASF123:
 3601 00e3 696F6D6F 		.ascii	"iomode_t\000"
 3601      64655F74 
 3601      00
 3602              	.LASF89:
 3603 00ec 65786974 		.ascii	"exitcode\000"
 3603      636F6465 
 3603      00
 3604              	.LASF162:
 3605 00f5 75736265 		.ascii	"usbep0state_t\000"
 3605      70307374 
 3605      6174655F 
 3605      7400
 3606              	.LASF1:
 3607 0103 5F5F7569 		.ascii	"__uint8_t\000"
 3607      6E74385F 
 3607      7400
 3608              	.LASF128:
 3609 010d 706F7274 		.ascii	"ports\000"
 3609      7300
 3610              	.LASF66:
 3611 0113 73797374 		.ascii	"systime\000"
 3611      696D6500 
 3612              	.LASF243:
 3613 011b 686F7374 		.ascii	"host_set_driver\000"
 3613      5F736574 
 3613      5F647269 
 3613      76657200 
 3614              	.LASF164:
 3615 012b 5553425F 		.ascii	"USB_EVENT_ADDRESS\000"
 3615      4556454E 
 3615      545F4144 
 3615      44524553 
 3615      5300
 3616              	.LASF8:
 3617 013d 6C6F6E67 		.ascii	"long int\000"
 3617      20696E74 
 3617      00
 3618              	.LASF180:
 3619 0146 7478636E 		.ascii	"txcnt\000"
 3619      7400
 3620              	.LASF228:
 3621 014c 6D6F7573 		.ascii	"mouse\000"
 3621      6500
 3622              	.LASF102:
 3623 0152 7A65726F 		.ascii	"zero\000"
 3623      00
 3624              	.LASF124:
 3625 0157 696F706F 		.ascii	"ioportid_t\000"
 3625      72746964 
 3625      5F7400
 3626              	.LASF23:
ARM GAS  /var/folders/t8/16hdwfmd2fg_d3q6dgx6bpmw0000gn/T//ccQYZpjs.s 			page 66


 3627 0162 74737461 		.ascii	"tstate_t\000"
 3627      74655F74 
 3627      00
 3628              	.LASF44:
 3629 016b 6570656E 		.ascii	"epending\000"
 3629      64696E67 
 3629      00
 3630              	.LASF244:
 3631 0174 474E5520 		.ascii	"GNU C99 7.2.1 20170904 (release) [ARM/embedded-7-br"
 3631      43393920 
 3631      372E322E 
 3631      31203230 
 3631      31373039 
 3632 01a7 616E6368 		.ascii	"anch revision 255204] -mcpu=cortex-m0plus -mno-thum"
 3632      20726576 
 3632      6973696F 
 3632      6E203235 
 3632      35323034 
 3633 01da 622D696E 		.ascii	"b-interwork -mthumb -ggdb -O2 -std=gnu99 -fomit-fra"
 3633      74657277 
 3633      6F726B20 
 3633      2D6D7468 
 3633      756D6220 
 3634 020d 6D652D70 		.ascii	"me-pointer -falign-functions=16 -ffunction-sections"
 3634      6F696E74 
 3634      6572202D 
 3634      66616C69 
 3634      676E2D66 
 3635 0240 202D6664 		.ascii	" -fdata-sections -fno-common\000"
 3635      6174612D 
 3635      73656374 
 3635      696F6E73 
 3635      202D666E 
 3636              	.LASF53:
 3637 025d 74687265 		.ascii	"threads_queue_t\000"
 3637      6164735F 
 3637      71756575 
 3637      655F7400 
 3638              	.LASF181:
 3639 026d 74786275 		.ascii	"txbuf\000"
 3639      6600
 3640              	.LASF221:
 3641 0273 686F7374 		.ascii	"host_driver_t\000"
 3641      5F647269 
 3641      7665725F 
 3641      7400
 3642              	.LASF84:
 3643 0281 72656761 		.ascii	"regarm_t\000"
 3643      726D5F74 
 3643      00
 3644              	.LASF246:
 3645 028a 2F557365 		.ascii	"/Users/jpablobr/tmp/tmk/di0ib-tmk_keyboard/keyboard"
 3645      72732F6A 
 3645      7061626C 
 3645      6F62722F 
 3645      746D702F 
 3646 02bd 2F746565 		.ascii	"/teensy_lc_menelaus\000"
ARM GAS  /var/folders/t8/16hdwfmd2fg_d3q6dgx6bpmw0000gn/T//ccQYZpjs.s 			page 67


 3646      6E73795F 
 3646      6C635F6D 
 3646      656E656C 
 3646      61757300 
 3647              	.LASF219:
 3648 02d1 73656E64 		.ascii	"send_system\000"
 3648      5F737973 
 3648      74656D00 
 3649              	.LASF155:
 3650 02dd 5553425F 		.ascii	"USB_EP0_WAITING_SETUP\000"
 3650      4550305F 
 3650      57414954 
 3650      494E475F 
 3650      53455455 
 3651              	.LASF239:
 3652 02f3 686F7374 		.ascii	"host_mouse_send\000"
 3652      5F6D6F75 
 3652      73655F73 
 3652      656E6400 
 3653              	.LASF153:
 3654 0303 5553425F 		.ascii	"USB_SUSPENDED\000"
 3654      53555350 
 3654      454E4445 
 3654      4400
 3655              	.LASF130:
 3656 0311 70616C5F 		.ascii	"pal_default_config\000"
 3656      64656661 
 3656      756C745F 
 3656      636F6E66 
 3656      696700
 3657              	.LASF2:
 3658 0324 7369676E 		.ascii	"signed char\000"
 3658      65642063 
 3658      68617200 
 3659              	.LASF95:
 3660 0330 65776D61 		.ascii	"ewmask\000"
 3660      736B00
 3661              	.LASF16:
 3662 0337 75696E74 		.ascii	"uint8_t\000"
 3662      385F7400 
 3663              	.LASF169:
 3664 033f 5553425F 		.ascii	"USB_EVENT_STALLED\000"
 3664      4556454E 
 3664      545F5354 
 3664      414C4C45 
 3664      4400
 3665              	.LASF233:
 3666 0351 6C617374 		.ascii	"last_consumer_report\000"
 3666      5F636F6E 
 3666      73756D65 
 3666      725F7265 
 3666      706F7274 
 3667              	.LASF28:
 3668 0366 6576656E 		.ascii	"eventmask_t\000"
 3668      746D6173 
 3668      6B5F7400 
 3669              	.LASF186:
ARM GAS  /var/folders/t8/16hdwfmd2fg_d3q6dgx6bpmw0000gn/T//ccQYZpjs.s 			page 68


 3670 0372 72787369 		.ascii	"rxsize\000"
 3670      7A6500
 3671              	.LASF91:
 3672 0379 77747472 		.ascii	"wttrp\000"
 3672      7000
 3673              	.LASF3:
 3674 037f 756E7369 		.ascii	"unsigned char\000"
 3674      676E6564 
 3674      20636861 
 3674      7200
 3675              	.LASF161:
 3676 038d 5553425F 		.ascii	"USB_EP0_ERROR\000"
 3676      4550305F 
 3676      4552524F 
 3676      5200
 3677              	.LASF69:
 3678 039b 70616E69 		.ascii	"panic_msg\000"
 3678      635F6D73 
 3678      6700
 3679              	.LASF137:
 3680 03a5 65703073 		.ascii	"ep0state\000"
 3680      74617465 
 3680      00
 3681              	.LASF67:
 3682 03ae 73797374 		.ascii	"system_debug_t\000"
 3682      656D5F64 
 3682      65627567 
 3682      5F7400
 3683              	.LASF204:
 3684 03bd 72657175 		.ascii	"requests_hook_cb\000"
 3684      65737473 
 3684      5F686F6F 
 3684      6B5F6362 
 3684      00
 3685              	.LASF122:
 3686 03ce 5F426F6F 		.ascii	"_Bool\000"
 3686      6C00
 3687              	.LASF214:
 3688 03d4 62757474 		.ascii	"buttons\000"
 3688      6F6E7300 
 3689              	.LASF99:
 3690 03dc 63686172 		.ascii	"char\000"
 3690      00
 3691              	.LASF139:
 3692 03e1 6570306E 		.ascii	"ep0n\000"
 3692      00
 3693              	.LASF134:
 3694 03e6 72656365 		.ascii	"receiving\000"
 3694      6976696E 
 3694      6700
 3695              	.LASF5:
 3696 03f0 5F5F7569 		.ascii	"__uint16_t\000"
 3696      6E743136 
 3696      5F7400
 3697              	.LASF131:
 3698 03fb 55534244 		.ascii	"USBDriver\000"
 3698      72697665 
ARM GAS  /var/folders/t8/16hdwfmd2fg_d3q6dgx6bpmw0000gn/T//ccQYZpjs.s 			page 69


 3698      7200
 3699              	.LASF90:
 3700 0405 77746F62 		.ascii	"wtobjp\000"
 3700      6A7000
 3701              	.LASF192:
 3702 040c 73657475 		.ascii	"setup_cb\000"
 3702      705F6362 
 3702      00
 3703              	.LASF172:
 3704 0415 75645F73 		.ascii	"ud_string\000"
 3704      7472696E 
 3704      6700
 3705              	.LASF116:
 3706 041f 6F66665F 		.ascii	"off_refs\000"
 3706      72656673 
 3706      00
 3707              	.LASF39:
 3708 0428 666C6167 		.ascii	"flags\000"
 3708      7300
 3709              	.LASF193:
 3710 042e 696E5F63 		.ascii	"in_cb\000"
 3710      6200
 3711              	.LASF85:
 3712 0434 73746B61 		.ascii	"stkalign_t\000"
 3712      6C69676E 
 3712      5F7400
 3713              	.LASF47:
 3714 043f 6D706F6F 		.ascii	"mpool\000"
 3714      6C00
 3715              	.LASF176:
 3716 0445 75736265 		.ascii	"usbeventcb_t\000"
 3716      76656E74 
 3716      63625F74 
 3716      00
 3717              	.LASF105:
 3718 0452 70747273 		.ascii	"ptrsize\000"
 3718      697A6500 
 3719              	.LASF133:
 3720 045a 7472616E 		.ascii	"transmitting\000"
 3720      736D6974 
 3720      74696E67 
 3720      00
 3721              	.LASF185:
 3722 0467 55534249 		.ascii	"USBInEndpointState\000"
 3722      6E456E64 
 3722      706F696E 
 3722      74537461 
 3722      746500
 3723              	.LASF118:
 3724 047a 6F66665F 		.ascii	"off_time\000"
 3724      74696D65 
 3724      00
 3725              	.LASF29:
 3726 0483 636E745F 		.ascii	"cnt_t\000"
 3726      7400
 3727              	.LASF173:
 3728 0489 55534244 		.ascii	"USBDescriptor\000"
ARM GAS  /var/folders/t8/16hdwfmd2fg_d3q6dgx6bpmw0000gn/T//ccQYZpjs.s 			page 70


 3728      65736372 
 3728      6970746F 
 3728      7200
 3729              	.LASF141:
 3730 0497 73657475 		.ascii	"setup\000"
 3730      7000
 3731              	.LASF94:
 3732 049d 77746D74 		.ascii	"wtmtxp\000"
 3732      787000
 3733              	.LASF170:
 3734 04a4 75736265 		.ascii	"usbevent_t\000"
 3734      76656E74 
 3734      5F7400
 3735              	.LASF57:
 3736 04af 63685F72 		.ascii	"ch_ready_list\000"
 3736      65616479 
 3736      5F6C6973 
 3736      7400
 3737              	.LASF234:
 3738 04bd 686F7374 		.ascii	"host_last_consumer_report\000"
 3738      5F6C6173 
 3738      745F636F 
 3738      6E73756D 
 3738      65725F72 
 3739              	.LASF171:
 3740 04d7 75645F73 		.ascii	"ud_size\000"
 3740      697A6500 
 3741              	.LASF230:
 3742 04df 64656275 		.ascii	"debug_config\000"
 3742      675F636F 
 3742      6E666967 
 3742      00
 3743              	.LASF151:
 3744 04ec 5553425F 		.ascii	"USB_SELECTED\000"
 3744      53454C45 
 3744      43544544 
 3744      00
 3745              	.LASF144:
 3746 04f9 636F6E66 		.ascii	"configuration\000"
 3746      69677572 
 3746      6174696F 
 3746      6E00
 3747              	.LASF127:
 3748 0507 506F7274 		.ascii	"PortConfig\000"
 3748      436F6E66 
 3748      696700
 3749              	.LASF12:
 3750 0512 5F5F7569 		.ascii	"__uint64_t\000"
 3750      6E743634 
 3750      5F7400
 3751              	.LASF114:
 3752 051d 6F66665F 		.ascii	"off_state\000"
 3752      73746174 
 3752      6500
 3753              	.LASF229:
 3754 0527 64656275 		.ascii	"debug_config_t\000"
 3754      675F636F 
ARM GAS  /var/folders/t8/16hdwfmd2fg_d3q6dgx6bpmw0000gn/T//ccQYZpjs.s 			page 71


 3754      6E666967 
 3754      5F7400
 3755              	.LASF245:
 3756 0536 2E2E2F2E 		.ascii	"../../tmk_core/common/host.c\000"
 3756      2E2F746D 
 3756      6B5F636F 
 3756      72652F63 
 3756      6F6D6D6F 
 3757              	.LASF10:
 3758 0553 6C6F6E67 		.ascii	"long unsigned int\000"
 3758      20756E73 
 3758      69676E65 
 3758      6420696E 
 3758      7400
 3759              	.LASF107:
 3760 0565 74687265 		.ascii	"threadsize\000"
 3760      61647369 
 3760      7A6500
 3761              	.LASF142:
 3762 0570 73746174 		.ascii	"status\000"
 3762      757300
 3763              	.LASF232:
 3764 0577 6C617374 		.ascii	"last_system_report\000"
 3764      5F737973 
 3764      74656D5F 
 3764      7265706F 
 3764      727400
 3765              	.LASF143:
 3766 058a 61646472 		.ascii	"address\000"
 3766      65737300 
 3767              	.LASF96:
 3768 0592 63685F73 		.ascii	"ch_semaphore\000"
 3768      656D6170 
 3768      686F7265 
 3768      00
 3769              	.LASF140:
 3770 059f 65703065 		.ascii	"ep0endcb\000"
 3770      6E646362 
 3770      00
 3771              	.LASF50:
 3772 05a8 63685F74 		.ascii	"ch_thread\000"
 3772      68726561 
 3772      6400
 3773              	.LASF64:
 3774 05b2 76697274 		.ascii	"virtual_timers_list_t\000"
 3774      75616C5F 
 3774      74696D65 
 3774      72735F6C 
 3774      6973745F 
 3775              	.LASF100:
 3776 05c8 63685F69 		.ascii	"ch_idle_thread_wa\000"
 3776      646C655F 
 3776      74687265 
 3776      61645F77 
 3776      6100
 3777              	.LASF82:
 3778 05da 50444452 		.ascii	"PDDR\000"
ARM GAS  /var/folders/t8/16hdwfmd2fg_d3q6dgx6bpmw0000gn/T//ccQYZpjs.s 			page 72


 3778      00
 3779              	.LASF60:
 3780 05df 76697274 		.ascii	"virtual_timer_t\000"
 3780      75616C5F 
 3780      74696D65 
 3780      725F7400 
 3781              	.LASF56:
 3782 05ef 72656164 		.ascii	"ready_list_t\000"
 3782      795F6C69 
 3782      73745F74 
 3782      00
 3783              	.LASF35:
 3784 05fc 6F6C6465 		.ascii	"older\000"
 3784      7200
 3785              	.LASF179:
 3786 0602 74787369 		.ascii	"txsize\000"
 3786      7A6500
 3787              	.LASF46:
 3788 0609 7265616C 		.ascii	"realprio\000"
 3788      7072696F 
 3788      00
 3789              	.LASF226:
 3790 0612 6D617472 		.ascii	"matrix\000"
 3790      697800
 3791              	.LASF113:
 3792 0619 6F66665F 		.ascii	"off_stklimit\000"
 3792      73746B6C 
 3792      696D6974 
 3792      00
 3793              	.LASF154:
 3794 0626 75736273 		.ascii	"usbstate_t\000"
 3794      74617465 
 3794      5F7400
 3795              	.LASF51:
 3796 0631 63685F74 		.ascii	"ch_threads_list\000"
 3796      68726561 
 3796      64735F6C 
 3796      69737400 
 3797              	.LASF183:
 3798 0641 6F64645F 		.ascii	"odd_even\000"
 3798      6576656E 
 3798      00
 3799              	.LASF188:
 3800 064a 72786275 		.ascii	"rxbuf\000"
 3800      6600
 3801              	.LASF197:
 3802 0650 696E5F73 		.ascii	"in_state\000"
 3802      74617465 
 3802      00
 3803              	.LASF168:
 3804 0659 5553425F 		.ascii	"USB_EVENT_WAKEUP\000"
 3804      4556454E 
 3804      545F5741 
 3804      4B455550 
 3804      00
 3805              	.LASF9:
 3806 066a 5F5F7569 		.ascii	"__uint32_t\000"
ARM GAS  /var/folders/t8/16hdwfmd2fg_d3q6dgx6bpmw0000gn/T//ccQYZpjs.s 			page 73


 3806      6E743332 
 3806      5F7400
 3807              	.LASF202:
 3808 0675 6576656E 		.ascii	"event_cb\000"
 3808      745F6362 
 3808      00
 3809              	.LASF210:
 3810 067e 6B657973 		.ascii	"keys\000"
 3810      00
 3811              	.LASF45:
 3812 0683 6D74786C 		.ascii	"mtxlist\000"
 3812      69737400 
 3813              	.LASF11:
 3814 068b 6C6F6E67 		.ascii	"long long int\000"
 3814      206C6F6E 
 3814      6720696E 
 3814      7400
 3815              	.LASF150:
 3816 0699 5553425F 		.ascii	"USB_READY\000"
 3816      52454144 
 3816      5900
 3817              	.LASF225:
 3818 06a3 656E6162 		.ascii	"enable\000"
 3818      6C6500
 3819              	.LASF138:
 3820 06aa 6570306E 		.ascii	"ep0next\000"
 3820      65787400 
 3821              	.LASF247:
 3822 06b2 7466705F 		.ascii	"tfp_printf\000"
 3822      7072696E 
 3822      746600
 3823              	.LASF126:
 3824 06bd 70616473 		.ascii	"pads\000"
 3824      00
 3825              	.LASF224:
 3826 06c2 6B657962 		.ascii	"keyboard_protocol\000"
 3826      6F617264 
 3826      5F70726F 
 3826      746F636F 
 3826      6C00
 3827              	.LASF41:
 3828 06d4 70726565 		.ascii	"preempt\000"
 3828      6D707400 
 3829              	.LASF175:
 3830 06dc 75736265 		.ascii	"usbepcallback_t\000"
 3830      7063616C 
 3830      6C626163 
 3830      6B5F7400 
 3831              	.LASF218:
 3832 06ec 73656E64 		.ascii	"send_mouse\000"
 3832      5F6D6F75 
 3832      736500
 3833              	.LASF110:
 3834 06f7 6F66665F 		.ascii	"off_newer\000"
 3834      6E657765 
 3834      7200
 3835              	.LASF14:
ARM GAS  /var/folders/t8/16hdwfmd2fg_d3q6dgx6bpmw0000gn/T//ccQYZpjs.s 			page 74


 3836 0701 756E7369 		.ascii	"unsigned int\000"
 3836      676E6564 
 3836      20696E74 
 3836      00
 3837              	.LASF206:
 3838 070e 55534243 		.ascii	"USBConfig\000"
 3838      6F6E6669 
 3838      6700
 3839              	.LASF223:
 3840 0718 6B657962 		.ascii	"keyboard_idle\000"
 3840      6F617264 
 3840      5F69646C 
 3840      6500
 3841              	.LASF200:
 3842 0726 73657475 		.ascii	"setup_buf\000"
 3842      705F6275 
 3842      6600
 3843              	.LASF211:
 3844 0730 62697473 		.ascii	"bits\000"
 3844      00
 3845              	.LASF58:
 3846 0735 63757272 		.ascii	"current\000"
 3846      656E7400 
 3847              	.LASF194:
 3848 073d 6F75745F 		.ascii	"out_cb\000"
 3848      636200
 3849              	.LASF238:
 3850 0744 7265706F 		.ascii	"report\000"
 3850      727400
 3851              	.LASF79:
 3852 074b 50434F52 		.ascii	"PCOR\000"
 3852      00
 3853              	.LASF81:
 3854 0750 50444952 		.ascii	"PDIR\000"
 3854      00
 3855              	.LASF149:
 3856 0755 5553425F 		.ascii	"USB_STOP\000"
 3856      53544F50 
 3856      00
 3857              	.LASF187:
 3858 075e 7278636E 		.ascii	"rxcnt\000"
 3858      7400
 3859              	.LASF195:
 3860 0764 696E5F6D 		.ascii	"in_maxsize\000"
 3860      61787369 
 3860      7A6500
 3861              	.LASF242:
 3862 076f 686F7374 		.ascii	"host_get_driver\000"
 3862      5F676574 
 3862      5F647269 
 3862      76657200 
 3863              	.LASF198:
 3864 077f 6F75745F 		.ascii	"out_state\000"
 3864      73746174 
 3864      6500
 3865              	.LASF227:
 3866 0789 6B657962 		.ascii	"keyboard\000"
ARM GAS  /var/folders/t8/16hdwfmd2fg_d3q6dgx6bpmw0000gn/T//ccQYZpjs.s 			page 75


 3866      6F617264 
 3866      00
 3867              	.LASF31:
 3868 0792 74687265 		.ascii	"thread_t\000"
 3868      61645F74 
 3868      00
 3869              	.LASF199:
 3870 079b 65705F62 		.ascii	"ep_buffers\000"
 3870      75666665 
 3870      727300
 3871              	.LASF48:
 3872 07a6 74687265 		.ascii	"thread_reference_t\000"
 3872      61645F72 
 3872      65666572 
 3872      656E6365 
 3872      5F7400
 3873              	.LASF92:
 3874 07b9 73656E74 		.ascii	"sentmsg\000"
 3874      6D736700 
 3875              	.LASF157:
 3876 07c1 5553425F 		.ascii	"USB_EP0_WAITING_TX0\000"
 3876      4550305F 
 3876      57414954 
 3876      494E475F 
 3876      54583000 
 3877              	.LASF87:
 3878 07d5 706F7274 		.ascii	"port_intctx\000"
 3878      5F696E74 
 3878      63747800 
 3879              	.LASF70:
 3880 07e1 6973725F 		.ascii	"isr_cnt\000"
 3880      636E7400 
 3881              	.LASF148:
 3882 07e9 5553425F 		.ascii	"USB_UNINIT\000"
 3882      554E494E 
 3882      495400
 3883              	.LASF61:
 3884 07f4 63685F76 		.ascii	"ch_virtual_timer\000"
 3884      69727475 
 3884      616C5F74 
 3884      696D6572 
 3884      00
 3885              	.LASF190:
 3886 0805 5553424F 		.ascii	"USBOutEndpointState\000"
 3886      7574456E 
 3886      64706F69 
 3886      6E745374 
 3886      61746500 
 3887              	.LASF0:
 3888 0819 5F5F696E 		.ascii	"__int8_t\000"
 3888      74385F74 
 3888      00
 3889              	.LASF103:
 3890 0822 73697A65 		.ascii	"size\000"
 3890      00
 3891              	.LASF13:
 3892 0827 6C6F6E67 		.ascii	"long long unsigned int\000"
ARM GAS  /var/folders/t8/16hdwfmd2fg_d3q6dgx6bpmw0000gn/T//ccQYZpjs.s 			page 76


 3892      206C6F6E 
 3892      6720756E 
 3892      7369676E 
 3892      65642069 
 3893              	.LASF235:
 3894 083e 686F7374 		.ascii	"host_last_system_report\000"
 3894      5F6C6173 
 3894      745F7379 
 3894      7374656D 
 3894      5F726570 
 3895              	.LASF17:
 3896 0856 75696E74 		.ascii	"uint16_t\000"
 3896      31365F74 
 3896      00
 3897              	.LASF112:
 3898 085f 6F66665F 		.ascii	"off_name\000"
 3898      6E616D65 
 3898      00
 3899              	.LASF27:
 3900 0868 6D73675F 		.ascii	"msg_t\000"
 3900      7400
 3901              	.LASF54:
 3902 086e 63685F74 		.ascii	"ch_threads_queue\000"
 3902      68726561 
 3902      64735F71 
 3902      75657565 
 3902      00
 3903              	.LASF25:
 3904 087f 74736C69 		.ascii	"tslices_t\000"
 3904      6365735F 
 3904      7400
 3905              	.LASF145:
 3906 0889 73617665 		.ascii	"saved_state\000"
 3906      645F7374 
 3906      61746500 
 3907              	.LASF62:
 3908 0895 64656C74 		.ascii	"delta\000"
 3908      6100
 3909              	.LASF240:
 3910 089b 686F7374 		.ascii	"host_keyboard_send\000"
 3910      5F6B6579 
 3910      626F6172 
 3910      645F7365 
 3910      6E6400
 3911              	.LASF163:
 3912 08ae 5553425F 		.ascii	"USB_EVENT_RESET\000"
 3912      4556454E 
 3912      545F5245 
 3912      53455400 
 3913              	.LASF222:
 3914 08be 6B657962 		.ascii	"keyboard_nkro\000"
 3914      6F617264 
 3914      5F6E6B72 
 3914      6F00
 3915              	.LASF40:
 3916 08cc 72656673 		.ascii	"refs\000"
 3916      00
ARM GAS  /var/folders/t8/16hdwfmd2fg_d3q6dgx6bpmw0000gn/T//ccQYZpjs.s 			page 77


 3917              	.LASF32:
 3918 08d1 71756575 		.ascii	"queue\000"
 3918      6500
 3919              	.LASF220:
 3920 08d7 73656E64 		.ascii	"send_consumer\000"
 3920      5F636F6E 
 3920      73756D65 
 3920      7200
 3921              	.LASF76:
 3922 08e5 6D61696E 		.ascii	"mainthread\000"
 3922      74687265 
 3922      616400
 3923              	.LASF104:
 3924 08f0 76657273 		.ascii	"version\000"
 3924      696F6E00 
 3925              	.LASF166:
 3926 08f8 5553425F 		.ascii	"USB_EVENT_UNCONFIGURED\000"
 3926      4556454E 
 3926      545F554E 
 3926      434F4E46 
 3926      49475552 
 3927              	.LASF196:
 3928 090f 6F75745F 		.ascii	"out_maxsize\000"
 3928      6D617873 
 3928      697A6500 
 3929              	.LASF215:
 3930 091b 7265706F 		.ascii	"report_mouse_t\000"
 3930      72745F6D 
 3930      6F757365 
 3930      5F7400
 3931              	.LASF37:
 3932 092a 77616261 		.ascii	"wabase\000"
 3932      736500
 3933              	.LASF165:
 3934 0931 5553425F 		.ascii	"USB_EVENT_CONFIGURED\000"
 3934      4556454E 
 3934      545F434F 
 3934      4E464947 
 3934      55524544 
 3935              	.LASF160:
 3936 0946 5553425F 		.ascii	"USB_EP0_SENDING_STS\000"
 3936      4550305F 
 3936      53454E44 
 3936      494E475F 
 3936      53545300 
 3937              	.LASF201:
 3938 095a 55534245 		.ascii	"USBEndpointConfig\000"
 3938      6E64706F 
 3938      696E7443 
 3938      6F6E6669 
 3938      6700
 3939              	.LASF74:
 3940 096c 726C6973 		.ascii	"rlist\000"
 3940      7400
 3941              	.LASF22:
 3942 0972 746D6F64 		.ascii	"tmode_t\000"
 3942      655F7400 
ARM GAS  /var/folders/t8/16hdwfmd2fg_d3q6dgx6bpmw0000gn/T//ccQYZpjs.s 			page 78


 3943              	.LASF178:
 3944 097a 75736267 		.ascii	"usbgetdescriptor_t\000"
 3944      65746465 
 3944      73637269 
 3944      70746F72 
 3944      5F7400
 3945              	.LASF135:
 3946 098d 696E5F70 		.ascii	"in_params\000"
 3946      6172616D 
 3946      7300
 3947              	.LASF231:
 3948 0997 64726976 		.ascii	"driver\000"
 3948      657200
 3949              	.LASF182:
 3950 099e 74687265 		.ascii	"thread\000"
 3950      616400
 3951              	.LASF36:
 3952 09a5 6E616D65 		.ascii	"name\000"
 3952      00
 3953              	.LASF125:
 3954 09aa 706F7274 		.ascii	"port\000"
 3954      00
 3955              	.LASF77:
 3956 09af 50444F52 		.ascii	"PDOR\000"
 3956      00
 3957              	.LASF4:
 3958 09b4 73686F72 		.ascii	"short int\000"
 3958      7420696E 
 3958      7400
 3959              	.LASF20:
 3960 09be 75696E74 		.ascii	"uint64_t\000"
 3960      36345F74 
 3960      00
 3961              	.LASF63:
 3962 09c7 66756E63 		.ascii	"func\000"
 3962      00
 3963              	.LASF97:
 3964 09cc 63685F6D 		.ascii	"ch_mutex\000"
 3964      75746578 
 3964      00
 3965              	.LASF208:
 3966 09d5 6D6F6473 		.ascii	"mods\000"
 3966      00
 3967              	.LASF78:
 3968 09da 50534F52 		.ascii	"PSOR\000"
 3968      00
 3969              	.LASF43:
 3970 09df 6D736771 		.ascii	"msgqueue\000"
 3970      75657565 
 3970      00
 3971              	.LASF68:
 3972 09e8 63685F73 		.ascii	"ch_system_debug\000"
 3972      79737465 
 3972      6D5F6465 
 3972      62756700 
 3973              	.LASF177:
 3974 09f8 75736272 		.ascii	"usbreqhandler_t\000"
ARM GAS  /var/folders/t8/16hdwfmd2fg_d3q6dgx6bpmw0000gn/T//ccQYZpjs.s 			page 79


 3974      65716861 
 3974      6E646C65 
 3974      725F7400 
 3975              	.LASF129:
 3976 0a08 50414C43 		.ascii	"PALConfig\000"
 3976      6F6E6669 
 3976      6700
 3977              	.LASF174:
 3978 0a12 75736263 		.ascii	"usbcallback_t\000"
 3978      616C6C62 
 3978      61636B5F 
 3978      7400
 3979              	.LASF241:
 3980 0a20 686F7374 		.ascii	"host_keyboard_leds\000"
 3980      5F6B6579 
 3980      626F6172 
 3980      645F6C65 
 3980      647300
 3981              	.LASF184:
 3982 0a33 64617461 		.ascii	"data_bank\000"
 3982      5F62616E 
 3982      6B00
 3983              	.LASF83:
 3984 0a3d 4750494F 		.ascii	"GPIO_TypeDef\000"
 3984      5F547970 
 3984      65446566 
 3984      00
 3985              	.LASF75:
 3986 0a4a 76746C69 		.ascii	"vtlist\000"
 3986      737400
 3987              	.LASF42:
 3988 0a51 77616974 		.ascii	"waiting\000"
 3988      696E6700 
 3989              	.LASF207:
 3990 0a59 55534244 		.ascii	"USBD1\000"
 3990      3100
 3991              	.LASF121:
 3992 0a5f 6D757465 		.ascii	"mutex_t\000"
 3992      785F7400 
 3993              	.LASF24:
 3994 0a67 74726566 		.ascii	"trefs_t\000"
 3994      735F7400 
 3995              	.LASF86:
 3996 0a6f 706F7274 		.ascii	"port_context\000"
 3996      5F636F6E 
 3996      74657874 
 3996      00
 3997              	.LASF49:
 3998 0a7c 74687265 		.ascii	"threads_list_t\000"
 3998      6164735F 
 3998      6C697374 
 3998      5F7400
 3999              	.LASF205:
 4000 0a8b 736F665F 		.ascii	"sof_cb\000"
 4000      636200
 4001              	.LASF73:
 4002 0a92 63685F73 		.ascii	"ch_system\000"
ARM GAS  /var/folders/t8/16hdwfmd2fg_d3q6dgx6bpmw0000gn/T//ccQYZpjs.s 			page 80


 4002      79737465 
 4002      6D00
 4003              	.LASF34:
 4004 0a9c 6E657765 		.ascii	"newer\000"
 4004      7200
 4005              	.LASF236:
 4006 0aa2 686F7374 		.ascii	"host_consumer_send\000"
 4006      5F636F6E 
 4006      73756D65 
 4006      725F7365 
 4006      6E6400
 4007              	.LASF19:
 4008 0ab5 75696E74 		.ascii	"uint32_t\000"
 4008      33325F74 
 4008      00
 4009              	.LASF147:
 4010 0abe 75736265 		.ascii	"usbep_t\000"
 4010      705F7400 
 4011              	.LASF189:
 4012 0ac6 7278706B 		.ascii	"rxpkts\000"
 4012      747300
 4013              	.LASF209:
 4014 0acd 72657365 		.ascii	"reserved\000"
 4014      72766564 
 4014      00
 4015              	.LASF88:
 4016 0ad6 7264796D 		.ascii	"rdymsg\000"
 4016      736700
 4017              	.LASF6:
 4018 0add 73686F72 		.ascii	"short unsigned int\000"
 4018      7420756E 
 4018      7369676E 
 4018      65642069 
 4018      6E7400
 4019              	.LASF203:
 4020 0af0 6765745F 		.ascii	"get_descriptor_cb\000"
 4020      64657363 
 4020      72697074 
 4020      6F725F63 
 4020      6200
 4021              	.LASF72:
 4022 0b02 63685F73 		.ascii	"ch_system_t\000"
 4022      79737465 
 4022      6D5F7400 
 4023              	.LASF119:
 4024 0b0e 63686465 		.ascii	"chdebug_t\000"
 4024      6275675F 
 4024      7400
 4025              	.LASF167:
 4026 0b18 5553425F 		.ascii	"USB_EVENT_SUSPEND\000"
 4026      4556454E 
 4026      545F5355 
 4026      5350454E 
 4026      4400
 4027              	.LASF136:
 4028 0b2a 6F75745F 		.ascii	"out_params\000"
 4028      70617261 
ARM GAS  /var/folders/t8/16hdwfmd2fg_d3q6dgx6bpmw0000gn/T//ccQYZpjs.s 			page 81


 4028      6D7300
 4029              	.LASF106:
 4030 0b35 74696D65 		.ascii	"timesize\000"
 4030      73697A65 
 4030      00
 4031              	.LASF7:
 4032 0b3e 5F5F696E 		.ascii	"__int32_t\000"
 4032      7433325F 
 4032      7400
 4033              	.LASF237:
 4034 0b48 686F7374 		.ascii	"host_system_send\000"
 4034      5F737973 
 4034      74656D5F 
 4034      73656E64 
 4034      00
 4035              	.LASF115:
 4036 0b59 6F66665F 		.ascii	"off_flags\000"
 4036      666C6167 
 4036      7300
 4037              	.LASF158:
 4038 0b63 5553425F 		.ascii	"USB_EP0_WAITING_STS\000"
 4038      4550305F 
 4038      57414954 
 4038      494E475F 
 4038      53545300 
 4039              	.LASF52:
 4040 0b77 6E657874 		.ascii	"next\000"
 4040      00
 4041              	.LASF146:
 4042 0b7c 706D6E65 		.ascii	"pmnext\000"
 4042      787400
 4043              	.LASF55:
 4044 0b83 70726576 		.ascii	"prev\000"
 4044      00
 4045              	.LASF101:
 4046 0b88 6964656E 		.ascii	"identifier\000"
 4046      74696669 
 4046      657200
 4047              	.LASF212:
 4048 0b93 6E6B726F 		.ascii	"nkro\000"
 4048      00
 4049              	.LASF159:
 4050 0b98 5553425F 		.ascii	"USB_EP0_RX\000"
 4050      4550305F 
 4050      525800
 4051              	.LASF217:
 4052 0ba3 73656E64 		.ascii	"send_keyboard\000"
 4052      5F6B6579 
 4052      626F6172 
 4052      6400
 4053              		.ident	"GCC: (GNU Tools for Arm Embedded Processors 7-2017-q4-major) 7.2.1 20170904 (release) [ARM
ARM GAS  /var/folders/t8/16hdwfmd2fg_d3q6dgx6bpmw0000gn/T//ccQYZpjs.s 			page 82


DEFINED SYMBOLS
                            *ABS*:0000000000000000 host.c
/var/folders/t8/16hdwfmd2fg_d3q6dgx6bpmw0000gn/T//ccQYZpjs.s:16     .text.host_set_driver:0000000000000000 $t
/var/folders/t8/16hdwfmd2fg_d3q6dgx6bpmw0000gn/T//ccQYZpjs.s:24     .text.host_set_driver:0000000000000000 host_set_driver
/var/folders/t8/16hdwfmd2fg_d3q6dgx6bpmw0000gn/T//ccQYZpjs.s:44     .text.host_set_driver:0000000000000008 $d
/var/folders/t8/16hdwfmd2fg_d3q6dgx6bpmw0000gn/T//ccQYZpjs.s:49     .text.host_get_driver:0000000000000000 $t
/var/folders/t8/16hdwfmd2fg_d3q6dgx6bpmw0000gn/T//ccQYZpjs.s:57     .text.host_get_driver:0000000000000000 host_get_driver
/var/folders/t8/16hdwfmd2fg_d3q6dgx6bpmw0000gn/T//ccQYZpjs.s:75     .text.host_get_driver:0000000000000008 $d
/var/folders/t8/16hdwfmd2fg_d3q6dgx6bpmw0000gn/T//ccQYZpjs.s:80     .text.host_keyboard_leds:0000000000000000 $t
/var/folders/t8/16hdwfmd2fg_d3q6dgx6bpmw0000gn/T//ccQYZpjs.s:88     .text.host_keyboard_leds:0000000000000000 host_keyboard_leds
/var/folders/t8/16hdwfmd2fg_d3q6dgx6bpmw0000gn/T//ccQYZpjs.s:120    .text.host_keyboard_leds:0000000000000014 $d
/var/folders/t8/16hdwfmd2fg_d3q6dgx6bpmw0000gn/T//ccQYZpjs.s:125    .text.host_keyboard_send:0000000000000000 $t
/var/folders/t8/16hdwfmd2fg_d3q6dgx6bpmw0000gn/T//ccQYZpjs.s:133    .text.host_keyboard_send:0000000000000000 host_keyboard_send
/var/folders/t8/16hdwfmd2fg_d3q6dgx6bpmw0000gn/T//ccQYZpjs.s:238    .text.host_keyboard_send:0000000000000068 $d
/var/folders/t8/16hdwfmd2fg_d3q6dgx6bpmw0000gn/T//ccQYZpjs.s:247    .text.host_mouse_send:0000000000000000 $t
/var/folders/t8/16hdwfmd2fg_d3q6dgx6bpmw0000gn/T//ccQYZpjs.s:255    .text.host_mouse_send:0000000000000000 host_mouse_send
/var/folders/t8/16hdwfmd2fg_d3q6dgx6bpmw0000gn/T//ccQYZpjs.s:284    .text.host_mouse_send:0000000000000010 $d
/var/folders/t8/16hdwfmd2fg_d3q6dgx6bpmw0000gn/T//ccQYZpjs.s:289    .text.host_system_send:0000000000000000 $t
/var/folders/t8/16hdwfmd2fg_d3q6dgx6bpmw0000gn/T//ccQYZpjs.s:297    .text.host_system_send:0000000000000000 host_system_send
/var/folders/t8/16hdwfmd2fg_d3q6dgx6bpmw0000gn/T//ccQYZpjs.s:351    .text.host_system_send:0000000000000034 $d
/var/folders/t8/16hdwfmd2fg_d3q6dgx6bpmw0000gn/T//ccQYZpjs.s:359    .text.host_consumer_send:0000000000000000 $t
/var/folders/t8/16hdwfmd2fg_d3q6dgx6bpmw0000gn/T//ccQYZpjs.s:367    .text.host_consumer_send:0000000000000000 host_consumer_send
/var/folders/t8/16hdwfmd2fg_d3q6dgx6bpmw0000gn/T//ccQYZpjs.s:421    .text.host_consumer_send:0000000000000034 $d
/var/folders/t8/16hdwfmd2fg_d3q6dgx6bpmw0000gn/T//ccQYZpjs.s:429    .text.host_last_system_report:0000000000000000 $t
/var/folders/t8/16hdwfmd2fg_d3q6dgx6bpmw0000gn/T//ccQYZpjs.s:437    .text.host_last_system_report:0000000000000000 host_last_system_report
/var/folders/t8/16hdwfmd2fg_d3q6dgx6bpmw0000gn/T//ccQYZpjs.s:455    .text.host_last_system_report:0000000000000008 $d
/var/folders/t8/16hdwfmd2fg_d3q6dgx6bpmw0000gn/T//ccQYZpjs.s:460    .text.host_last_consumer_report:0000000000000000 $t
/var/folders/t8/16hdwfmd2fg_d3q6dgx6bpmw0000gn/T//ccQYZpjs.s:468    .text.host_last_consumer_report:0000000000000000 host_last_consumer_report
/var/folders/t8/16hdwfmd2fg_d3q6dgx6bpmw0000gn/T//ccQYZpjs.s:486    .text.host_last_consumer_report:0000000000000008 $d
/var/folders/t8/16hdwfmd2fg_d3q6dgx6bpmw0000gn/T//ccQYZpjs.s:515    .data.keyboard_nkro:0000000000000000 keyboard_nkro
/var/folders/t8/16hdwfmd2fg_d3q6dgx6bpmw0000gn/T//ccQYZpjs.s:492    .bss.driver:0000000000000000 $d
/var/folders/t8/16hdwfmd2fg_d3q6dgx6bpmw0000gn/T//ccQYZpjs.s:496    .bss.driver:0000000000000000 driver
/var/folders/t8/16hdwfmd2fg_d3q6dgx6bpmw0000gn/T//ccQYZpjs.s:499    .bss.last_consumer_report:0000000000000000 $d
/var/folders/t8/16hdwfmd2fg_d3q6dgx6bpmw0000gn/T//ccQYZpjs.s:503    .bss.last_consumer_report:0000000000000000 last_consumer_report
/var/folders/t8/16hdwfmd2fg_d3q6dgx6bpmw0000gn/T//ccQYZpjs.s:506    .bss.last_system_report:0000000000000000 $d
/var/folders/t8/16hdwfmd2fg_d3q6dgx6bpmw0000gn/T//ccQYZpjs.s:510    .bss.last_system_report:0000000000000000 last_system_report
/var/folders/t8/16hdwfmd2fg_d3q6dgx6bpmw0000gn/T//ccQYZpjs.s:518    .rodata.host_consumer_send.str1.4:0000000000000000 $d
/var/folders/t8/16hdwfmd2fg_d3q6dgx6bpmw0000gn/T//ccQYZpjs.s:522    .rodata.host_keyboard_send.str1.4:0000000000000000 $d
/var/folders/t8/16hdwfmd2fg_d3q6dgx6bpmw0000gn/T//ccQYZpjs.s:532    .rodata.host_system_send.str1.4:0000000000000000 $d

UNDEFINED SYMBOLS
tfp_printf
debug_config
