ARM GAS  /var/folders/t8/16hdwfmd2fg_d3q6dgx6bpmw0000gn/T//ccvAsxMg.s 			page 1


   1              		.cpu cortex-m0plus
   2              		.eabi_attribute 20, 1
   3              		.eabi_attribute 21, 1
   4              		.eabi_attribute 23, 3
   5              		.eabi_attribute 24, 1
   6              		.eabi_attribute 25, 1
   7              		.eabi_attribute 26, 1
   8              		.eabi_attribute 30, 2
   9              		.eabi_attribute 34, 0
  10              		.eabi_attribute 18, 4
  11              		.file	"keyboard.c"
  12              		.text
  13              	.Ltext0:
  14              		.cfi_sections	.debug_frame
  15              		.section	.text.keyboard_setup,"ax",%progbits
  16              		.align	1
  17              		.p2align 4,,15
  18              		.global	keyboard_setup
  19              		.syntax unified
  20              		.code	16
  21              		.thumb_func
  22              		.fpu softvfp
  23              		.type	keyboard_setup, %function
  24              	keyboard_setup:
  25              	.LFB177:
  26              		.file 1 "../../tmk_core/common/keyboard.c"
  27              		.loc 1 70 0
  28              		.cfi_startproc
  29              		@ args = 0, pretend = 0, frame = 0
  30              		@ frame_needed = 0, uses_anonymous_args = 0
  31 0000 10B5     		push	{r4, lr}
  32              		.cfi_def_cfa_offset 8
  33              		.cfi_offset 4, -8
  34              		.cfi_offset 14, -4
  35              		.loc 1 71 0
  36 0002 FFF7FEFF 		bl	matrix_setup
  37              	.LVL0:
  38              		.loc 1 72 0
  39              		@ sp needed
  40 0006 10BD     		pop	{r4, pc}
  41              		.cfi_endproc
  42              	.LFE177:
  43              		.size	keyboard_setup, .-keyboard_setup
  44              		.section	.text.keyboard_init,"ax",%progbits
  45              		.align	1
  46              		.p2align 4,,15
  47              		.global	keyboard_init
  48              		.syntax unified
  49              		.code	16
  50              		.thumb_func
  51              		.fpu softvfp
  52              		.type	keyboard_init, %function
  53              	keyboard_init:
  54              	.LFB178:
  55              		.loc 1 75 0
  56              		.cfi_startproc
  57              		@ args = 0, pretend = 0, frame = 0
ARM GAS  /var/folders/t8/16hdwfmd2fg_d3q6dgx6bpmw0000gn/T//ccvAsxMg.s 			page 2


  58              		@ frame_needed = 0, uses_anonymous_args = 0
  59 0000 10B5     		push	{r4, lr}
  60              		.cfi_def_cfa_offset 8
  61              		.cfi_offset 4, -8
  62              		.cfi_offset 14, -4
  63              		.loc 1 76 0
  64 0002 FFF7FEFF 		bl	timer_init
  65              	.LVL1:
  66              		.loc 1 96 0
  67              		@ sp needed
  68              		.loc 1 77 0
  69 0006 FFF7FEFF 		bl	matrix_init
  70              	.LVL2:
  71              		.loc 1 90 0
  72 000a FFF7FEFF 		bl	bootmagic
  73              	.LVL3:
  74              		.loc 1 96 0
  75 000e 10BD     		pop	{r4, pc}
  76              		.cfi_endproc
  77              	.LFE178:
  78              		.size	keyboard_init, .-keyboard_init
  79              		.section	.text.keyboard_task,"ax",%progbits
  80              		.align	1
  81              		.p2align 4,,15
  82              		.global	keyboard_task
  83              		.syntax unified
  84              		.code	16
  85              		.thumb_func
  86              		.fpu softvfp
  87              		.type	keyboard_task, %function
  88              	keyboard_task:
  89              	.LFB179:
  90              		.loc 1 103 0
  91              		.cfi_startproc
  92              		@ args = 0, pretend = 0, frame = 8
  93              		@ frame_needed = 0, uses_anonymous_args = 0
  94              	.LVL4:
  95 0000 F0B5     		push	{r4, r5, r6, r7, lr}
  96              		.cfi_def_cfa_offset 20
  97              		.cfi_offset 4, -20
  98              		.cfi_offset 5, -16
  99              		.cfi_offset 6, -12
 100              		.cfi_offset 7, -8
 101              		.cfi_offset 14, -4
 102 0002 DE46     		mov	lr, fp
 103 0004 5746     		mov	r7, r10
 104 0006 4E46     		mov	r6, r9
 105 0008 4546     		mov	r5, r8
 106 000a E0B5     		push	{r5, r6, r7, lr}
 107              		.cfi_def_cfa_offset 36
 108              		.cfi_offset 8, -36
 109              		.cfi_offset 9, -32
 110              		.cfi_offset 10, -28
 111              		.cfi_offset 11, -24
 112 000c 83B0     		sub	sp, sp, #12
 113              		.cfi_def_cfa_offset 48
 114              		.loc 1 112 0
ARM GAS  /var/folders/t8/16hdwfmd2fg_d3q6dgx6bpmw0000gn/T//ccvAsxMg.s 			page 3


 115 000e FFF7FEFF 		bl	matrix_scan
 116              	.LVL5:
 117 0012 3C4B     		ldr	r3, .L21
 118 0014 0025     		movs	r5, #0
 119 0016 9A46     		mov	r10, r3
 120              	.LBB2:
 121              		.loc 1 131 0
 122 0018 3B4B     		ldr	r3, .L21+4
 123              	.LBB3:
 124              		.loc 1 133 0
 125 001a 0126     		movs	r6, #1
 126              	.LBE3:
 127              		.loc 1 131 0
 128 001c 9B46     		mov	fp, r3
 129              	.LVL6:
 130              	.L10:
 131 001e EBB2     		uxtb	r3, r5
 132              		.loc 1 114 0
 133 0020 1800     		movs	r0, r3
 134 0022 9946     		mov	r9, r3
 135              	.LVL7:
 136 0024 FFF7FEFF 		bl	matrix_get_row
 137              	.LVL8:
 138              		.loc 1 115 0
 139 0028 6B00     		lsls	r3, r5, #1
 140 002a 9846     		mov	r8, r3
 141 002c 5346     		mov	r3, r10
 142 002e 4246     		mov	r2, r8
 143 0030 9C5A     		ldrh	r4, [r3, r2]
 144              		.loc 1 114 0
 145 0032 0700     		movs	r7, r0
 146              	.LVL9:
 147              		.loc 1 116 0
 148 0034 8442     		cmp	r4, r0
 149 0036 0FD0     		beq	.L5
 150              		.loc 1 131 0
 151 0038 5B46     		mov	r3, fp
 152 003a 0222     		movs	r2, #2
 153 003c 1B78     		ldrb	r3, [r3]
 154 003e 1A42     		tst	r2, r3
 155 0040 57D1     		bne	.L18
 156              	.LVL10:
 157              	.L6:
 158              		.loc 1 115 0
 159 0042 0023     		movs	r3, #0
 160 0044 7C40     		eors	r4, r7
 161 0046 A4B2     		uxth	r4, r4
 162              	.LVL11:
 163              	.L9:
 164              	.LBB5:
 165              		.loc 1 133 0
 166 0048 2200     		movs	r2, r4
 167 004a 1A41     		asrs	r2, r2, r3
 168 004c D9B2     		uxtb	r1, r3
 169              	.LVL12:
 170 004e 1642     		tst	r6, r2
 171 0050 31D1     		bne	.L19
ARM GAS  /var/folders/t8/16hdwfmd2fg_d3q6dgx6bpmw0000gn/T//ccvAsxMg.s 			page 4


 172              	.LVL13:
 173 0052 0133     		adds	r3, r3, #1
 174              	.LVL14:
 175              		.loc 1 132 0 discriminator 2
 176 0054 0B2B     		cmp	r3, #11
 177 0056 F7D1     		bne	.L9
 178              	.LVL15:
 179              	.L5:
 180 0058 0135     		adds	r5, r5, #1
 181              	.LVL16:
 182              	.LBE5:
 183              		.loc 1 113 0
 184 005a 042D     		cmp	r5, #4
 185 005c DFD1     		bne	.L10
 186              	.LBE2:
 187              		.loc 1 154 0
 188 005e 0123     		movs	r3, #1
 189 0060 6A46     		mov	r2, sp
 190 0062 5B42     		rsbs	r3, r3, #0
 191 0064 1380     		strh	r3, [r2]
 192 0066 0023     		movs	r3, #0
 193 0068 9370     		strb	r3, [r2, #2]
 194 006a FFF7FEFF 		bl	timer_read
 195              	.LVL17:
 196 006e 0123     		movs	r3, #1
 197 0070 1843     		orrs	r0, r3
 198 0072 6B46     		mov	r3, sp
 199 0074 9880     		strh	r0, [r3, #4]
 200 0076 0199     		ldr	r1, [sp, #4]
 201 0078 0098     		ldr	r0, [sp]
 202 007a FFF7FEFF 		bl	action_exec
 203              	.LVL18:
 204              	.L8:
 205              		.loc 1 158 0
 206 007e FFF7FEFF 		bl	hook_keyboard_loop
 207              	.LVL19:
 208              		.loc 1 162 0
 209 0082 FFF7FEFF 		bl	mousekey_task
 210              	.LVL20:
 211              		.loc 1 178 0
 212 0086 FFF7FEFF 		bl	host_keyboard_leds
 213              	.LVL21:
 214 008a 204C     		ldr	r4, .L21+8
 215 008c 2378     		ldrb	r3, [r4]
 216 008e 8342     		cmp	r3, r0
 217 0090 0AD0     		beq	.L4
 218              		.loc 1 179 0
 219 0092 FFF7FEFF 		bl	host_keyboard_leds
 220              	.LVL22:
 221              		.loc 1 180 0
 222 0096 1C4B     		ldr	r3, .L21+4
 223              		.loc 1 179 0
 224 0098 2070     		strb	r0, [r4]
 225              		.loc 1 180 0
 226 009a 1A78     		ldrb	r2, [r3]
 227 009c 0523     		movs	r3, #5
 228 009e 1340     		ands	r3, r2
ARM GAS  /var/folders/t8/16hdwfmd2fg_d3q6dgx6bpmw0000gn/T//ccvAsxMg.s 			page 5


 229 00a0 052B     		cmp	r3, #5
 230 00a2 29D0     		beq	.L20
 231              	.L12:
 232              		.loc 1 181 0
 233 00a4 FFF7FEFF 		bl	hook_keyboard_leds_change
 234              	.LVL23:
 235              	.L4:
 236              		.loc 1 183 0
 237 00a8 03B0     		add	sp, sp, #12
 238              		@ sp needed
 239 00aa 3CBC     		pop	{r2, r3, r4, r5}
 240 00ac 9046     		mov	r8, r2
 241 00ae 9946     		mov	r9, r3
 242 00b0 A246     		mov	r10, r4
 243 00b2 AB46     		mov	fp, r5
 244 00b4 F0BD     		pop	{r4, r5, r6, r7, pc}
 245              	.LVL24:
 246              	.L19:
 247              	.LBB7:
 248              	.LBB6:
 249              	.LBB4:
 250              		.loc 1 136 0
 251 00b6 9E40     		lsls	r6, r6, r3
 252              		.loc 1 134 0
 253 00b8 6A46     		mov	r2, sp
 254              		.loc 1 136 0
 255 00ba 3740     		ands	r7, r6
 256              		.loc 1 134 0
 257 00bc 1170     		strb	r1, [r2]
 258              		.loc 1 136 0
 259 00be 7B1E     		subs	r3, r7, #1
 260 00c0 9F41     		sbcs	r7, r7, r3
 261              		.loc 1 134 0
 262 00c2 4946     		mov	r1, r9
 263              	.LVL25:
 264 00c4 9770     		strb	r7, [r2, #2]
 265 00c6 5170     		strb	r1, [r2, #1]
 266              		.loc 1 137 0
 267 00c8 FFF7FEFF 		bl	timer_read
 268              	.LVL26:
 269              		.loc 1 134 0
 270 00cc 0123     		movs	r3, #1
 271 00ce 1843     		orrs	r0, r3
 272 00d0 6B46     		mov	r3, sp
 273 00d2 9880     		strh	r0, [r3, #4]
 274              		.loc 1 139 0
 275 00d4 0199     		ldr	r1, [sp, #4]
 276 00d6 0098     		ldr	r0, [sp]
 277 00d8 FFF7FEFF 		bl	action_exec
 278              	.LVL27:
 279              		.loc 1 140 0
 280 00dc 0098     		ldr	r0, [sp]
 281 00de 0199     		ldr	r1, [sp, #4]
 282 00e0 FFF7FEFF 		bl	hook_matrix_change
 283              	.LVL28:
 284              		.loc 1 142 0
 285 00e4 4246     		mov	r2, r8
ARM GAS  /var/folders/t8/16hdwfmd2fg_d3q6dgx6bpmw0000gn/T//ccvAsxMg.s 			page 6


 286 00e6 5346     		mov	r3, r10
 287 00e8 9B5A     		ldrh	r3, [r3, r2]
 288 00ea 5E40     		eors	r6, r3
 289 00ec 5346     		mov	r3, r10
 290 00ee 9E52     		strh	r6, [r3, r2]
 291 00f0 C5E7     		b	.L8
 292              	.LVL29:
 293              	.L18:
 294              	.LBE4:
 295              	.LBE6:
 296              		.loc 1 131 0 discriminator 1
 297 00f2 FFF7FEFF 		bl	matrix_print
 298              	.LVL30:
 299 00f6 A4E7     		b	.L6
 300              	.LVL31:
 301              	.L20:
 302              	.LBE7:
 303              		.loc 1 180 0 discriminator 2
 304 00f8 0100     		movs	r1, r0
 305 00fa 0548     		ldr	r0, .L21+12
 306 00fc FFF7FEFF 		bl	tfp_printf
 307              	.LVL32:
 308 0100 2078     		ldrb	r0, [r4]
 309 0102 CFE7     		b	.L12
 310              	.L22:
 311              		.align	2
 312              	.L21:
 313 0104 00000000 		.word	.LANCHOR0
 314 0108 00000000 		.word	debug_config
 315 010c 00000000 		.word	.LANCHOR1
 316 0110 00000000 		.word	.LC5
 317              		.cfi_endproc
 318              	.LFE179:
 319              		.size	keyboard_task, .-keyboard_task
 320              		.section	.text.keyboard_set_leds,"ax",%progbits
 321              		.align	1
 322              		.p2align 4,,15
 323              		.global	keyboard_set_leds
 324              		.syntax unified
 325              		.code	16
 326              		.thumb_func
 327              		.fpu softvfp
 328              		.type	keyboard_set_leds, %function
 329              	keyboard_set_leds:
 330              	.LFB180:
 331              		.loc 1 186 0
 332              		.cfi_startproc
 333              		@ args = 0, pretend = 0, frame = 0
 334              		@ frame_needed = 0, uses_anonymous_args = 0
 335              	.LVL33:
 336 0000 10B5     		push	{r4, lr}
 337              		.cfi_def_cfa_offset 8
 338              		.cfi_offset 4, -8
 339              		.cfi_offset 14, -4
 340              		.loc 1 187 0
 341 0002 FFF7FEFF 		bl	led_set
 342              	.LVL34:
ARM GAS  /var/folders/t8/16hdwfmd2fg_d3q6dgx6bpmw0000gn/T//ccvAsxMg.s 			page 7


 343              		.loc 1 188 0
 344              		@ sp needed
 345 0006 10BD     		pop	{r4, pc}
 346              		.cfi_endproc
 347              	.LFE180:
 348              		.size	keyboard_set_leds, .-keyboard_set_leds
 349              		.section	.bss.led_status.7206,"aw",%nobits
 350              		.set	.LANCHOR1,. + 0
 351              		.type	led_status.7206, %object
 352              		.size	led_status.7206, 1
 353              	led_status.7206:
 354 0000 00       		.space	1
 355              		.section	.bss.matrix_prev.7205,"aw",%nobits
 356              		.align	2
 357              		.set	.LANCHOR0,. + 0
 358              		.type	matrix_prev.7205, %object
 359              		.size	matrix_prev.7205, 8
 360              	matrix_prev.7205:
 361 0000 00000000 		.space	8
 361      00000000 
 362              		.section	.rodata.keyboard_task.str1.4,"aMS",%progbits,1
 363              		.align	2
 364              	.LC5:
 365 0000 4C45443A 		.ascii	"LED: %02X\012\000"
 365      20253032 
 365      580A00
 366              		.text
 367              	.Letext0:
 368              		.file 2 "/usr/local/Caskroom/gcc-arm-embedded/7-2017-q4-major/gcc-arm-none-eabi-7-2017-q4-major/ar
 369              		.file 3 "/usr/local/Caskroom/gcc-arm-embedded/7-2017-q4-major/gcc-arm-none-eabi-7-2017-q4-major/ar
 370              		.file 4 "../../tmk_core/common/keyboard.h"
 371              		.file 5 "../../tmk_core/common/matrix.h"
 372              		.file 6 "/usr/local/Caskroom/gcc-arm-embedded/7-2017-q4-major/gcc-arm-none-eabi-7-2017-q4-major/li
 373              		.file 7 "../../tmk_core/tool/chibios/ChibiOS/os/common/ports/ARMCMx/compilers/GCC/chtypes.h"
 374              		.file 8 "../../tmk_core/tool/chibios/ChibiOS/os/rt/include/chsystypes.h"
 375              		.file 9 "../../tmk_core/tool/chibios/ChibiOS/os/rt/include/chschd.h"
 376              		.file 10 "../../tmk_core/tool/chibios/ChibiOS-Contrib/os/common/ext/CMSIS/KINETIS/kl2xz.h"
 377              		.file 11 "../../tmk_core/tool/chibios/ChibiOS/os/common/ports/ARMCMx/chcore.h"
 378              		.file 12 "../../tmk_core/tool/chibios/ChibiOS/os/common/ports/ARMCMx/chcore_v6m.h"
 379              		.file 13 "../../tmk_core/tool/chibios/ChibiOS/os/rt/include/chsem.h"
 380              		.file 14 "../../tmk_core/tool/chibios/ChibiOS/os/rt/include/chmtx.h"
 381              		.file 15 "../../tmk_core/tool/chibios/ChibiOS/os/rt/include/chregistry.h"
 382              		.file 16 "../../tmk_core/tool/chibios/ChibiOS/os/rt/include/chsys.h"
 383              		.file 17 "../../tmk_core/tool/chibios/ChibiOS-Contrib/os/hal/ports/KINETIS/LLD/hal_pal_lld.h"
 384              		.file 18 "../../tmk_core/tool/chibios/ChibiOS/os/hal/include/hal_usb.h"
 385              		.file 19 "../../tmk_core/tool/chibios/ChibiOS-Contrib/os/hal/ports/KINETIS/LLD/hal_usb_lld.h"
 386              		.file 20 "../../tmk_core/common/host.h"
 387              		.file 21 "../../tmk_core/common/timer.h"
 388              		.file 22 "../../tmk_core/common/debug.h"
 389              		.file 23 "../../tmk_core/common/command.h"
 390              		.file 24 "../../tmk_core/common/mousekey.h"
 391              		.file 25 "../../tmk_core/common/led.h"
 392              		.file 26 "../../tmk_core/common/action.h"
 393              		.file 27 "../../tmk_core/common/hook.h"
 394              		.file 28 "../../tmk_core/common/chibios/printf.h"
 395              		.file 29 "../../tmk_core/common/bootmagic.h"