ARM GAS  /var/folders/t8/16hdwfmd2fg_d3q6dgx6bpmw0000gn/T//ccvAsxMg.s 			page 1


   1              		.cpu cortex-m0plus
   2              		.eabi_attribute 20, 1
   3              		.eabi_attribute 21, 1
   4              		.eabi_attribute 23, 3
   5              		.eabi_attribute 24, 1
   6              		.eabi_attribute 25, 1
   7              		.eabi_attribute 26, 1
   8              		.eabi_attribute 30, 2
   9              		.eabi_attribute 34, 0
  10              		.eabi_attribute 18, 4
  11              		.file	"keyboard.c"
  12              		.text
  13              	.Ltext0:
  14              		.cfi_sections	.debug_frame
  15              		.section	.text.keyboard_setup,"ax",%progbits
  16              		.align	1
  17              		.p2align 4,,15
  18              		.global	keyboard_setup
  19              		.syntax unified
  20              		.code	16
  21              		.thumb_func
  22              		.fpu softvfp
  23              		.type	keyboard_setup, %function
  24              	keyboard_setup:
  25              	.LFB177:
  26              		.file 1 "../../tmk_core/common/keyboard.c"
  27              		.loc 1 70 0
  28              		.cfi_startproc
  29              		@ args = 0, pretend = 0, frame = 0
  30              		@ frame_needed = 0, uses_anonymous_args = 0
  31 0000 10B5     		push	{r4, lr}
  32              		.cfi_def_cfa_offset 8
  33              		.cfi_offset 4, -8
  34              		.cfi_offset 14, -4
  35              		.loc 1 71 0
  36 0002 FFF7FEFF 		bl	matrix_setup
  37              	.LVL0:
  38              		.loc 1 72 0
  39              		@ sp needed
  40 0006 10BD     		pop	{r4, pc}
  41              		.cfi_endproc
  42              	.LFE177:
  43              		.size	keyboard_setup, .-keyboard_setup
  44              		.section	.text.keyboard_init,"ax",%progbits
  45              		.align	1
  46              		.p2align 4,,15
  47              		.global	keyboard_init
  48              		.syntax unified
  49              		.code	16
  50              		.thumb_func
  51              		.fpu softvfp
  52              		.type	keyboard_init, %function
  53              	keyboard_init:
  54              	.LFB178:
  55              		.loc 1 75 0
  56              		.cfi_startproc
  57              		@ args = 0, pretend = 0, frame = 0
ARM GAS  /var/folders/t8/16hdwfmd2fg_d3q6dgx6bpmw0000gn/T//ccvAsxMg.s 			page 2


  58              		@ frame_needed = 0, uses_anonymous_args = 0
  59 0000 10B5     		push	{r4, lr}
  60              		.cfi_def_cfa_offset 8
  61              		.cfi_offset 4, -8
  62              		.cfi_offset 14, -4
  63              		.loc 1 76 0
  64 0002 FFF7FEFF 		bl	timer_init
  65              	.LVL1:
  66              		.loc 1 96 0
  67              		@ sp needed
  68              		.loc 1 77 0
  69 0006 FFF7FEFF 		bl	matrix_init
  70              	.LVL2:
  71              		.loc 1 90 0
  72 000a FFF7FEFF 		bl	bootmagic
  73              	.LVL3:
  74              		.loc 1 96 0
  75 000e 10BD     		pop	{r4, pc}
  76              		.cfi_endproc
  77              	.LFE178:
  78              		.size	keyboard_init, .-keyboard_init
  79              		.section	.text.keyboard_task,"ax",%progbits
  80              		.align	1
  81              		.p2align 4,,15
  82              		.global	keyboard_task
  83              		.syntax unified
  84              		.code	16
  85              		.thumb_func
  86              		.fpu softvfp
  87              		.type	keyboard_task, %function
  88              	keyboard_task:
  89              	.LFB179:
  90              		.loc 1 103 0
  91              		.cfi_startproc
  92              		@ args = 0, pretend = 0, frame = 8
  93              		@ frame_needed = 0, uses_anonymous_args = 0
  94              	.LVL4:
  95 0000 F0B5     		push	{r4, r5, r6, r7, lr}
  96              		.cfi_def_cfa_offset 20
  97              		.cfi_offset 4, -20
  98              		.cfi_offset 5, -16
  99              		.cfi_offset 6, -12
 100              		.cfi_offset 7, -8
 101              		.cfi_offset 14, -4
 102 0002 DE46     		mov	lr, fp
 103 0004 5746     		mov	r7, r10
 104 0006 4E46     		mov	r6, r9
 105 0008 4546     		mov	r5, r8
 106 000a E0B5     		push	{r5, r6, r7, lr}
 107              		.cfi_def_cfa_offset 36
 108              		.cfi_offset 8, -36
 109              		.cfi_offset 9, -32
 110              		.cfi_offset 10, -28
 111              		.cfi_offset 11, -24
 112 000c 83B0     		sub	sp, sp, #12
 113              		.cfi_def_cfa_offset 48
 114              		.loc 1 112 0
ARM GAS  /var/folders/t8/16hdwfmd2fg_d3q6dgx6bpmw0000gn/T//ccvAsxMg.s 			page 3


 115 000e FFF7FEFF 		bl	matrix_scan
 116              	.LVL5:
 117 0012 3C4B     		ldr	r3, .L21
 118 0014 0025     		movs	r5, #0
 119 0016 9A46     		mov	r10, r3
 120              	.LBB2:
 121              		.loc 1 131 0
 122 0018 3B4B     		ldr	r3, .L21+4
 123              	.LBB3:
 124              		.loc 1 133 0
 125 001a 0126     		movs	r6, #1
 126              	.LBE3:
 127              		.loc 1 131 0
 128 001c 9B46     		mov	fp, r3
 129              	.LVL6:
 130              	.L10:
 131 001e EBB2     		uxtb	r3, r5
 132              		.loc 1 114 0
 133 0020 1800     		movs	r0, r3
 134 0022 9946     		mov	r9, r3
 135              	.LVL7:
 136 0024 FFF7FEFF 		bl	matrix_get_row
 137              	.LVL8:
 138              		.loc 1 115 0
 139 0028 6B00     		lsls	r3, r5, #1
 140 002a 9846     		mov	r8, r3
 141 002c 5346     		mov	r3, r10
 142 002e 4246     		mov	r2, r8
 143 0030 9C5A     		ldrh	r4, [r3, r2]
 144              		.loc 1 114 0
 145 0032 0700     		movs	r7, r0
 146              	.LVL9:
 147              		.loc 1 116 0
 148 0034 8442     		cmp	r4, r0
 149 0036 0FD0     		beq	.L5
 150              		.loc 1 131 0
 151 0038 5B46     		mov	r3, fp
 152 003a 0222     		movs	r2, #2
 153 003c 1B78     		ldrb	r3, [r3]
 154 003e 1A42     		tst	r2, r3
 155 0040 57D1     		bne	.L18
 156              	.LVL10:
 157              	.L6:
 158              		.loc 1 115 0
 159 0042 0023     		movs	r3, #0
 160 0044 7C40     		eors	r4, r7
 161 0046 A4B2     		uxth	r4, r4
 162              	.LVL11:
 163              	.L9:
 164              	.LBB5:
 165              		.loc 1 133 0
 166 0048 2200     		movs	r2, r4
 167 004a 1A41     		asrs	r2, r2, r3
 168 004c D9B2     		uxtb	r1, r3
 169              	.LVL12:
 170 004e 1642     		tst	r6, r2
 171 0050 31D1     		bne	.L19
ARM GAS  /var/folders/t8/16hdwfmd2fg_d3q6dgx6bpmw0000gn/T//ccvAsxMg.s 			page 4


 172              	.LVL13:
 173 0052 0133     		adds	r3, r3, #1
 174              	.LVL14:
 175              		.loc 1 132 0 discriminator 2
 176 0054 0B2B     		cmp	r3, #11
 177 0056 F7D1     		bne	.L9
 178              	.LVL15:
 179              	.L5:
 180 0058 0135     		adds	r5, r5, #1
 181              	.LVL16:
 182              	.LBE5:
 183              		.loc 1 113 0
 184 005a 042D     		cmp	r5, #4
 185 005c DFD1     		bne	.L10
 186              	.LBE2:
 187              		.loc 1 154 0
 188 005e 0123     		movs	r3, #1
 189 0060 6A46     		mov	r2, sp
 190 0062 5B42     		rsbs	r3, r3, #0
 191 0064 1380     		strh	r3, [r2]
 192 0066 0023     		movs	r3, #0
 193 0068 9370     		strb	r3, [r2, #2]
 194 006a FFF7FEFF 		bl	timer_read
 195              	.LVL17:
 196 006e 0123     		movs	r3, #1
 197 0070 1843     		orrs	r0, r3
 198 0072 6B46     		mov	r3, sp
 199 0074 9880     		strh	r0, [r3, #4]
 200 0076 0199     		ldr	r1, [sp, #4]
 201 0078 0098     		ldr	r0, [sp]
 202 007a FFF7FEFF 		bl	action_exec
 203              	.LVL18:
 204              	.L8:
 205              		.loc 1 158 0
 206 007e FFF7FEFF 		bl	hook_keyboard_loop
 207              	.LVL19:
 208              		.loc 1 162 0
 209 0082 FFF7FEFF 		bl	mousekey_task
 210              	.LVL20:
 211              		.loc 1 178 0
 212 0086 FFF7FEFF 		bl	host_keyboard_leds
 213              	.LVL21:
 214 008a 204C     		ldr	r4, .L21+8
 215 008c 2378     		ldrb	r3, [r4]
 216 008e 8342     		cmp	r3, r0
 217 0090 0AD0     		beq	.L4
 218              		.loc 1 179 0
 219 0092 FFF7FEFF 		bl	host_keyboard_leds
 220              	.LVL22:
 221              		.loc 1 180 0
 222 0096 1C4B     		ldr	r3, .L21+4
 223              		.loc 1 179 0
 224 0098 2070     		strb	r0, [r4]
 225              		.loc 1 180 0
 226 009a 1A78     		ldrb	r2, [r3]
 227 009c 0523     		movs	r3, #5
 228 009e 1340     		ands	r3, r2
ARM GAS  /var/folders/t8/16hdwfmd2fg_d3q6dgx6bpmw0000gn/T//ccvAsxMg.s 			page 5


 229 00a0 052B     		cmp	r3, #5
 230 00a2 29D0     		beq	.L20
 231              	.L12:
 232              		.loc 1 181 0
 233 00a4 FFF7FEFF 		bl	hook_keyboard_leds_change
 234              	.LVL23:
 235              	.L4:
 236              		.loc 1 183 0
 237 00a8 03B0     		add	sp, sp, #12
 238              		@ sp needed
 239 00aa 3CBC     		pop	{r2, r3, r4, r5}
 240 00ac 9046     		mov	r8, r2
 241 00ae 9946     		mov	r9, r3
 242 00b0 A246     		mov	r10, r4
 243 00b2 AB46     		mov	fp, r5
 244 00b4 F0BD     		pop	{r4, r5, r6, r7, pc}
 245              	.LVL24:
 246              	.L19:
 247              	.LBB7:
 248              	.LBB6:
 249              	.LBB4:
 250              		.loc 1 136 0
 251 00b6 9E40     		lsls	r6, r6, r3
 252              		.loc 1 134 0
 253 00b8 6A46     		mov	r2, sp
 254              		.loc 1 136 0
 255 00ba 3740     		ands	r7, r6
 256              		.loc 1 134 0
 257 00bc 1170     		strb	r1, [r2]
 258              		.loc 1 136 0
 259 00be 7B1E     		subs	r3, r7, #1
 260 00c0 9F41     		sbcs	r7, r7, r3
 261              		.loc 1 134 0
 262 00c2 4946     		mov	r1, r9
 263              	.LVL25:
 264 00c4 9770     		strb	r7, [r2, #2]
 265 00c6 5170     		strb	r1, [r2, #1]
 266              		.loc 1 137 0
 267 00c8 FFF7FEFF 		bl	timer_read
 268              	.LVL26:
 269              		.loc 1 134 0
 270 00cc 0123     		movs	r3, #1
 271 00ce 1843     		orrs	r0, r3
 272 00d0 6B46     		mov	r3, sp
 273 00d2 9880     		strh	r0, [r3, #4]
 274              		.loc 1 139 0
 275 00d4 0199     		ldr	r1, [sp, #4]
 276 00d6 0098     		ldr	r0, [sp]
 277 00d8 FFF7FEFF 		bl	action_exec
 278              	.LVL27:
 279              		.loc 1 140 0
 280 00dc 0098     		ldr	r0, [sp]
 281 00de 0199     		ldr	r1, [sp, #4]
 282 00e0 FFF7FEFF 		bl	hook_matrix_change
 283              	.LVL28:
 284              		.loc 1 142 0
 285 00e4 4246     		mov	r2, r8
ARM GAS  /var/folders/t8/16hdwfmd2fg_d3q6dgx6bpmw0000gn/T//ccvAsxMg.s 			page 6


 286 00e6 5346     		mov	r3, r10
 287 00e8 9B5A     		ldrh	r3, [r3, r2]
 288 00ea 5E40     		eors	r6, r3
 289 00ec 5346     		mov	r3, r10
 290 00ee 9E52     		strh	r6, [r3, r2]
 291 00f0 C5E7     		b	.L8
 292              	.LVL29:
 293              	.L18:
 294              	.LBE4:
 295              	.LBE6:
 296              		.loc 1 131 0 discriminator 1
 297 00f2 FFF7FEFF 		bl	matrix_print
 298              	.LVL30:
 299 00f6 A4E7     		b	.L6
 300              	.LVL31:
 301              	.L20:
 302              	.LBE7:
 303              		.loc 1 180 0 discriminator 2
 304 00f8 0100     		movs	r1, r0
 305 00fa 0548     		ldr	r0, .L21+12
 306 00fc FFF7FEFF 		bl	tfp_printf
 307              	.LVL32:
 308 0100 2078     		ldrb	r0, [r4]
 309 0102 CFE7     		b	.L12
 310              	.L22:
 311              		.align	2
 312              	.L21:
 313 0104 00000000 		.word	.LANCHOR0
 314 0108 00000000 		.word	debug_config
 315 010c 00000000 		.word	.LANCHOR1
 316 0110 00000000 		.word	.LC5
 317              		.cfi_endproc
 318              	.LFE179:
 319              		.size	keyboard_task, .-keyboard_task
 320              		.section	.text.keyboard_set_leds,"ax",%progbits
 321              		.align	1
 322              		.p2align 4,,15
 323              		.global	keyboard_set_leds
 324              		.syntax unified
 325              		.code	16
 326              		.thumb_func
 327              		.fpu softvfp
 328              		.type	keyboard_set_leds, %function
 329              	keyboard_set_leds:
 330              	.LFB180:
 331              		.loc 1 186 0
 332              		.cfi_startproc
 333              		@ args = 0, pretend = 0, frame = 0
 334              		@ frame_needed = 0, uses_anonymous_args = 0
 335              	.LVL33:
 336 0000 10B5     		push	{r4, lr}
 337              		.cfi_def_cfa_offset 8
 338              		.cfi_offset 4, -8
 339              		.cfi_offset 14, -4
 340              		.loc 1 187 0
 341 0002 FFF7FEFF 		bl	led_set
 342              	.LVL34:
ARM GAS  /var/folders/t8/16hdwfmd2fg_d3q6dgx6bpmw0000gn/T//ccvAsxMg.s 			page 7


 343              		.loc 1 188 0
 344              		@ sp needed
 345 0006 10BD     		pop	{r4, pc}
 346              		.cfi_endproc
 347              	.LFE180:
 348              		.size	keyboard_set_leds, .-keyboard_set_leds
 349              		.section	.bss.led_status.7206,"aw",%nobits
 350              		.set	.LANCHOR1,. + 0
 351              		.type	led_status.7206, %object
 352              		.size	led_status.7206, 1
 353              	led_status.7206:
 354 0000 00       		.space	1
 355              		.section	.bss.matrix_prev.7205,"aw",%nobits
 356              		.align	2
 357              		.set	.LANCHOR0,. + 0
 358              		.type	matrix_prev.7205, %object
 359              		.size	matrix_prev.7205, 8
 360              	matrix_prev.7205:
 361 0000 00000000 		.space	8
 361      00000000 
 362              		.section	.rodata.keyboard_task.str1.4,"aMS",%progbits,1
 363              		.align	2
 364              	.LC5:
 365 0000 4C45443A 		.ascii	"LED: %02X\012\000"
 365      20253032 
 365      580A00
 366              		.text
 367              	.Letext0:
 368              		.file 2 "/usr/local/Caskroom/gcc-arm-embedded/7-2017-q4-major/gcc-arm-none-eabi-7-2017-q4-major/ar
 369              		.file 3 "/usr/local/Caskroom/gcc-arm-embedded/7-2017-q4-major/gcc-arm-none-eabi-7-2017-q4-major/ar
 370              		.file 4 "../../tmk_core/common/keyboard.h"
 371              		.file 5 "../../tmk_core/common/matrix.h"
 372              		.file 6 "/usr/local/Caskroom/gcc-arm-embedded/7-2017-q4-major/gcc-arm-none-eabi-7-2017-q4-major/li
 373              		.file 7 "../../tmk_core/tool/chibios/ChibiOS/os/common/ports/ARMCMx/compilers/GCC/chtypes.h"
 374              		.file 8 "../../tmk_core/tool/chibios/ChibiOS/os/rt/include/chsystypes.h"
 375              		.file 9 "../../tmk_core/tool/chibios/ChibiOS/os/rt/include/chschd.h"
 376              		.file 10 "../../tmk_core/tool/chibios/ChibiOS-Contrib/os/common/ext/CMSIS/KINETIS/kl2xz.h"
 377              		.file 11 "../../tmk_core/tool/chibios/ChibiOS/os/common/ports/ARMCMx/chcore.h"
 378              		.file 12 "../../tmk_core/tool/chibios/ChibiOS/os/common/ports/ARMCMx/chcore_v6m.h"
 379              		.file 13 "../../tmk_core/tool/chibios/ChibiOS/os/rt/include/chsem.h"
 380              		.file 14 "../../tmk_core/tool/chibios/ChibiOS/os/rt/include/chmtx.h"
 381              		.file 15 "../../tmk_core/tool/chibios/ChibiOS/os/rt/include/chregistry.h"
 382              		.file 16 "../../tmk_core/tool/chibios/ChibiOS/os/rt/include/chsys.h"
 383              		.file 17 "../../tmk_core/tool/chibios/ChibiOS-Contrib/os/hal/ports/KINETIS/LLD/hal_pal_lld.h"
 384              		.file 18 "../../tmk_core/tool/chibios/ChibiOS/os/hal/include/hal_usb.h"
 385              		.file 19 "../../tmk_core/tool/chibios/ChibiOS-Contrib/os/hal/ports/KINETIS/LLD/hal_usb_lld.h"
 386              		.file 20 "../../tmk_core/common/host.h"
 387              		.file 21 "../../tmk_core/common/timer.h"
 388              		.file 22 "../../tmk_core/common/debug.h"
 389              		.file 23 "../../tmk_core/common/command.h"
 390              		.file 24 "../../tmk_core/common/mousekey.h"
 391              		.file 25 "../../tmk_core/common/led.h"
 392              		.file 26 "../../tmk_core/common/action.h"
 393              		.file 27 "../../tmk_core/common/hook.h"
 394              		.file 28 "../../tmk_core/common/chibios/printf.h"
 395              		.file 29 "../../tmk_core/common/bootmagic.h"
 396              		.section	.debug_info,"",%progbits
ARM GAS  /var/folders/t8/16hdwfmd2fg_d3q6dgx6bpmw0000gn/T//ccvAsxMg.s 			page 8


 397              	.Ldebug_info0:
 398 0000 00110000 		.4byte	0x1100
 399 0004 0400     		.2byte	0x4
 400 0006 00000000 		.4byte	.Ldebug_abbrev0
 401 000a 04       		.byte	0x4
 402 000b 01       		.uleb128 0x1
 403 000c 48010000 		.4byte	.LASF257
 404 0010 0C       		.byte	0xc
 405 0011 D7030000 		.4byte	.LASF258
 406 0015 50020000 		.4byte	.LASF259
 407 0019 38000000 		.4byte	.Ldebug_ranges0+0x38
 408 001d 00000000 		.4byte	0
 409 0021 00000000 		.4byte	.Ldebug_line0
 410 0025 02       		.uleb128 0x2
 411 0026 01       		.byte	0x1
 412 0027 06       		.byte	0x6
 413 0028 CE020000 		.4byte	.LASF0
 414 002c 03       		.uleb128 0x3
 415 002d F9000000 		.4byte	.LASF3
 416 0031 02       		.byte	0x2
 417 0032 2B       		.byte	0x2b
 418 0033 37000000 		.4byte	0x37
 419 0037 02       		.uleb128 0x2
 420 0038 01       		.byte	0x1
 421 0039 08       		.byte	0x8
 422 003a 27030000 		.4byte	.LASF1
 423 003e 02       		.uleb128 0x2
 424 003f 02       		.byte	0x2
 425 0040 05       		.byte	0x5
 426 0041 FC090000 		.4byte	.LASF2
 427 0045 03       		.uleb128 0x3
 428 0046 BB030000 		.4byte	.LASF4
 429 004a 02       		.byte	0x2
 430 004b 39       		.byte	0x39
 431 004c 50000000 		.4byte	0x50
 432 0050 02       		.uleb128 0x2
 433 0051 02       		.byte	0x2
 434 0052 07       		.byte	0x7
 435 0053 590B0000 		.4byte	.LASF5
 436 0057 03       		.uleb128 0x3
 437 0058 BA0B0000 		.4byte	.LASF6
 438 005c 02       		.byte	0x2
 439 005d 4D       		.byte	0x4d
 440 005e 62000000 		.4byte	0x62
 441 0062 02       		.uleb128 0x2
 442 0063 04       		.byte	0x4
 443 0064 05       		.byte	0x5
 444 0065 11010000 		.4byte	.LASF7
 445 0069 03       		.uleb128 0x3
 446 006a 84060000 		.4byte	.LASF8
 447 006e 02       		.byte	0x2
 448 006f 4F       		.byte	0x4f
 449 0070 74000000 		.4byte	0x74
 450 0074 02       		.uleb128 0x2
 451 0075 04       		.byte	0x4
 452 0076 07       		.byte	0x7
 453 0077 6A050000 		.4byte	.LASF9
ARM GAS  /var/folders/t8/16hdwfmd2fg_d3q6dgx6bpmw0000gn/T//ccvAsxMg.s 			page 9


 454 007b 02       		.uleb128 0x2
 455 007c 08       		.byte	0x8
 456 007d 05       		.byte	0x5
 457 007e A8060000 		.4byte	.LASF10
 458 0082 03       		.uleb128 0x3
 459 0083 3C050000 		.4byte	.LASF11
 460 0087 02       		.byte	0x2
 461 0088 69       		.byte	0x69
 462 0089 8D000000 		.4byte	0x8d
 463 008d 02       		.uleb128 0x2
 464 008e 08       		.byte	0x8
 465 008f 07       		.byte	0x7
 466 0090 50080000 		.4byte	.LASF12
 467 0094 04       		.uleb128 0x4
 468 0095 04       		.byte	0x4
 469 0096 05       		.byte	0x5
 470 0097 696E7400 		.ascii	"int\000"
 471 009b 02       		.uleb128 0x2
 472 009c 04       		.byte	0x4
 473 009d 07       		.byte	0x7
 474 009e 3B070000 		.4byte	.LASF13
 475 00a2 03       		.uleb128 0x3
 476 00a3 E1020000 		.4byte	.LASF14
 477 00a7 03       		.byte	0x3
 478 00a8 18       		.byte	0x18
 479 00a9 2C000000 		.4byte	0x2c
 480 00ad 05       		.uleb128 0x5
 481 00ae A2000000 		.4byte	0xa2
 482 00b2 03       		.uleb128 0x3
 483 00b3 67080000 		.4byte	.LASF15
 484 00b7 03       		.byte	0x3
 485 00b8 24       		.byte	0x24
 486 00b9 45000000 		.4byte	0x45
 487 00bd 03       		.uleb128 0x3
 488 00be 6E000000 		.4byte	.LASF16
 489 00c2 03       		.byte	0x3
 490 00c3 2C       		.byte	0x2c
 491 00c4 57000000 		.4byte	0x57
 492 00c8 03       		.uleb128 0x3
 493 00c9 310B0000 		.4byte	.LASF17
 494 00cd 03       		.byte	0x3
 495 00ce 30       		.byte	0x30
 496 00cf 69000000 		.4byte	0x69
 497 00d3 06       		.uleb128 0x6
 498 00d4 C8000000 		.4byte	0xc8
 499 00d8 03       		.uleb128 0x3
 500 00d9 060A0000 		.4byte	.LASF18
 501 00dd 03       		.byte	0x3
 502 00de 3C       		.byte	0x3c
 503 00df 82000000 		.4byte	0x82
 504 00e3 07       		.uleb128 0x7
 505 00e4 02       		.byte	0x2
 506 00e5 04       		.byte	0x4
 507 00e6 1E       		.byte	0x1e
 508 00e7 04010000 		.4byte	0x104
 509 00eb 08       		.uleb128 0x8
 510 00ec 636F6C00 		.ascii	"col\000"
ARM GAS  /var/folders/t8/16hdwfmd2fg_d3q6dgx6bpmw0000gn/T//ccvAsxMg.s 			page 10


 511 00f0 04       		.byte	0x4
 512 00f1 1F       		.byte	0x1f
 513 00f2 A2000000 		.4byte	0xa2
 514 00f6 00       		.byte	0
 515 00f7 08       		.uleb128 0x8
 516 00f8 726F7700 		.ascii	"row\000"
 517 00fc 04       		.byte	0x4
 518 00fd 20       		.byte	0x20
 519 00fe A2000000 		.4byte	0xa2
 520 0102 01       		.byte	0x1
 521 0103 00       		.byte	0
 522 0104 03       		.uleb128 0x3
 523 0105 DD090000 		.4byte	.LASF19
 524 0109 04       		.byte	0x4
 525 010a 21       		.byte	0x21
 526 010b E3000000 		.4byte	0xe3
 527 010f 07       		.uleb128 0x7
 528 0110 06       		.byte	0x6
 529 0111 04       		.byte	0x4
 530 0112 24       		.byte	0x24
 531 0113 3C010000 		.4byte	0x13c
 532 0117 08       		.uleb128 0x8
 533 0118 6B657900 		.ascii	"key\000"
 534 011c 04       		.byte	0x4
 535 011d 25       		.byte	0x25
 536 011e 04010000 		.4byte	0x104
 537 0122 00       		.byte	0
 538 0123 09       		.uleb128 0x9
 539 0124 F3050000 		.4byte	.LASF20
 540 0128 04       		.byte	0x4
 541 0129 26       		.byte	0x26
 542 012a 3C010000 		.4byte	0x13c
 543 012e 02       		.byte	0x2
 544 012f 09       		.uleb128 0x9
 545 0130 6F090000 		.4byte	.LASF21
 546 0134 04       		.byte	0x4
 547 0135 27       		.byte	0x27
 548 0136 B2000000 		.4byte	0xb2
 549 013a 04       		.byte	0x4
 550 013b 00       		.byte	0
 551 013c 02       		.uleb128 0x2
 552 013d 01       		.byte	0x1
 553 013e 02       		.byte	0x2
 554 013f 7F030000 		.4byte	.LASF22
 555 0143 03       		.uleb128 0x3
 556 0144 08000000 		.4byte	.LASF23
 557 0148 04       		.byte	0x4
 558 0149 28       		.byte	0x28
 559 014a 0F010000 		.4byte	0x10f
 560 014e 03       		.uleb128 0x3
 561 014f A9040000 		.4byte	.LASF24
 562 0153 05       		.byte	0x5
 563 0154 1C       		.byte	0x1c
 564 0155 B2000000 		.4byte	0xb2
 565 0159 03       		.uleb128 0x3
 566 015a 13000000 		.4byte	.LASF25
 567 015e 06       		.byte	0x6
ARM GAS  /var/folders/t8/16hdwfmd2fg_d3q6dgx6bpmw0000gn/T//ccvAsxMg.s 			page 11


 568 015f D8       		.byte	0xd8
 569 0160 9B000000 		.4byte	0x9b
 570 0164 03       		.uleb128 0x3
 571 0165 A8090000 		.4byte	.LASF26
 572 0169 07       		.byte	0x7
 573 016a 3C       		.byte	0x3c
 574 016b A2000000 		.4byte	0xa2
 575 016f 03       		.uleb128 0x3
 576 0170 36010000 		.4byte	.LASF27
 577 0174 07       		.byte	0x7
 578 0175 3D       		.byte	0x3d
 579 0176 A2000000 		.4byte	0xa2
 580 017a 03       		.uleb128 0x3
 581 017b F60A0000 		.4byte	.LASF28
 582 017f 07       		.byte	0x7
 583 0180 3E       		.byte	0x3e
 584 0181 A2000000 		.4byte	0xa2
 585 0185 03       		.uleb128 0x3
 586 0186 AA080000 		.4byte	.LASF29
 587 018a 07       		.byte	0x7
 588 018b 3F       		.byte	0x3f
 589 018c A2000000 		.4byte	0xa2
 590 0190 03       		.uleb128 0x3
 591 0191 46000000 		.4byte	.LASF30
 592 0195 07       		.byte	0x7
 593 0196 40       		.byte	0x40
 594 0197 C8000000 		.4byte	0xc8
 595 019b 03       		.uleb128 0x3
 596 019c 79080000 		.4byte	.LASF31
 597 01a0 07       		.byte	0x7
 598 01a1 41       		.byte	0x41
 599 01a2 BD000000 		.4byte	0xbd
 600 01a6 03       		.uleb128 0x3
 601 01a7 FB020000 		.4byte	.LASF32
 602 01ab 07       		.byte	0x7
 603 01ac 43       		.byte	0x43
 604 01ad C8000000 		.4byte	0xc8
 605 01b1 03       		.uleb128 0x3
 606 01b2 A3040000 		.4byte	.LASF33
 607 01b6 07       		.byte	0x7
 608 01b7 45       		.byte	0x45
 609 01b8 BD000000 		.4byte	0xbd
 610 01bc 03       		.uleb128 0x3
 611 01bd 2A000000 		.4byte	.LASF34
 612 01c1 08       		.byte	0x8
 613 01c2 33       		.byte	0x33
 614 01c3 C8000000 		.4byte	0xc8
 615 01c7 06       		.uleb128 0x6
 616 01c8 BC010000 		.4byte	0x1bc
 617 01cc 03       		.uleb128 0x3
 618 01cd BC070000 		.4byte	.LASF35
 619 01d1 08       		.byte	0x8
 620 01d2 3F       		.byte	0x3f
 621 01d3 D7010000 		.4byte	0x1d7
 622 01d7 0A       		.uleb128 0xa
 623 01d8 B4050000 		.4byte	.LASF54
 624 01dc 44       		.byte	0x44
ARM GAS  /var/folders/t8/16hdwfmd2fg_d3q6dgx6bpmw0000gn/T//ccvAsxMg.s 			page 12


 625 01dd 09       		.byte	0x9
 626 01de 9A       		.byte	0x9a
 627 01df C1020000 		.4byte	0x2c1
 628 01e3 09       		.uleb128 0x9
 629 01e4 E9080000 		.4byte	.LASF36
 630 01e8 09       		.byte	0x9
 631 01e9 9B       		.byte	0x9b
 632 01ea F6020000 		.4byte	0x2f6
 633 01ee 00       		.byte	0
 634 01ef 09       		.uleb128 0x9
 635 01f0 D4000000 		.4byte	.LASF37
 636 01f4 09       		.byte	0x9
 637 01f5 9C       		.byte	0x9c
 638 01f6 90010000 		.4byte	0x190
 639 01fa 08       		.byte	0x8
 640 01fb 08       		.uleb128 0x8
 641 01fc 63747800 		.ascii	"ctx\000"
 642 0200 09       		.byte	0x9
 643 0201 9D       		.byte	0x9d
 644 0202 51050000 		.4byte	0x551
 645 0206 0C       		.byte	0xc
 646 0207 09       		.uleb128 0x9
 647 0208 2B0B0000 		.4byte	.LASF38
 648 020c 09       		.byte	0x9
 649 020d 9F       		.byte	0x9f
 650 020e CC020000 		.4byte	0x2cc
 651 0212 10       		.byte	0x10
 652 0213 09       		.uleb128 0x9
 653 0214 1D060000 		.4byte	.LASF39
 654 0218 09       		.byte	0x9
 655 0219 A0       		.byte	0xa0
 656 021a CC020000 		.4byte	0x2cc
 657 021e 14       		.byte	0x14
 658 021f 09       		.uleb128 0x9
 659 0220 ED090000 		.4byte	.LASF40
 660 0224 09       		.byte	0x9
 661 0225 A7       		.byte	0xa7
 662 0226 AC060000 		.4byte	0x6ac
 663 022a 18       		.byte	0x18
 664 022b 09       		.uleb128 0x9
 665 022c 3F090000 		.4byte	.LASF41
 666 0230 09       		.byte	0x9
 667 0231 B0       		.byte	0xb0
 668 0232 C3060000 		.4byte	0x6c3
 669 0236 1C       		.byte	0x1c
 670 0237 09       		.uleb128 0x9
 671 0238 A8000000 		.4byte	.LASF42
 672 023c 09       		.byte	0x9
 673 023d B5       		.byte	0xb5
 674 023e 6F010000 		.4byte	0x16f
 675 0242 20       		.byte	0x20
 676 0243 09       		.uleb128 0x9
 677 0244 14040000 		.4byte	.LASF43
 678 0248 09       		.byte	0x9
 679 0249 B9       		.byte	0xb9
 680 024a 64010000 		.4byte	0x164
 681 024e 21       		.byte	0x21
ARM GAS  /var/folders/t8/16hdwfmd2fg_d3q6dgx6bpmw0000gn/T//ccvAsxMg.s 			page 13


 682 024f 09       		.uleb128 0x9
 683 0250 E4080000 		.4byte	.LASF44
 684 0254 09       		.byte	0x9
 685 0255 BE       		.byte	0xbe
 686 0256 7A010000 		.4byte	0x17a
 687 025a 22       		.byte	0x22
 688 025b 09       		.uleb128 0x9
 689 025c F1060000 		.4byte	.LASF45
 690 0260 09       		.byte	0x9
 691 0261 C4       		.byte	0xc4
 692 0262 85010000 		.4byte	0x185
 693 0266 23       		.byte	0x23
 694 0267 0B       		.uleb128 0xb
 695 0268 7500     		.ascii	"u\000"
 696 026a 09       		.byte	0x9
 697 026b 0F01     		.2byte	0x10f
 698 026d E1050000 		.4byte	0x5e1
 699 0271 24       		.byte	0x24
 700 0272 0C       		.uleb128 0xc
 701 0273 CD0A0000 		.4byte	.LASF46
 702 0277 09       		.byte	0x9
 703 0278 1401     		.2byte	0x114
 704 027a D2020000 		.4byte	0x2d2
 705 027e 28       		.byte	0x28
 706 027f 0C       		.uleb128 0xc
 707 0280 290A0000 		.4byte	.LASF47
 708 0284 09       		.byte	0x9
 709 0285 1A01     		.2byte	0x11a
 710 0287 F6020000 		.4byte	0x2f6
 711 028b 2C       		.byte	0x2c
 712 028c 0C       		.uleb128 0xc
 713 028d 3F010000 		.4byte	.LASF48
 714 0291 09       		.byte	0x9
 715 0292 2001     		.2byte	0x120
 716 0294 A6010000 		.4byte	0x1a6
 717 0298 34       		.byte	0x34
 718 0299 0C       		.uleb128 0xc
 719 029a 98060000 		.4byte	.LASF49
 720 029e 09       		.byte	0x9
 721 029f 2701     		.2byte	0x127
 722 02a1 A6060000 		.4byte	0x6a6
 723 02a5 38       		.byte	0x38
 724 02a6 0C       		.uleb128 0xc
 725 02a7 2A060000 		.4byte	.LASF50
 726 02ab 09       		.byte	0x9
 727 02ac 2B01     		.2byte	0x12b
 728 02ae 90010000 		.4byte	0x190
 729 02b2 3C       		.byte	0x3c
 730 02b3 0C       		.uleb128 0xc
 731 02b4 51040000 		.4byte	.LASF51
 732 02b8 09       		.byte	0x9
 733 02b9 3201     		.2byte	0x132
 734 02bb A9030000 		.4byte	0x3a9
 735 02bf 40       		.byte	0x40
 736 02c0 00       		.byte	0
 737 02c1 03       		.uleb128 0x3
 738 02c2 D0070000 		.4byte	.LASF52
ARM GAS  /var/folders/t8/16hdwfmd2fg_d3q6dgx6bpmw0000gn/T//ccvAsxMg.s 			page 14


 739 02c6 08       		.byte	0x8
 740 02c7 44       		.byte	0x44
 741 02c8 CC020000 		.4byte	0x2cc
 742 02cc 0D       		.uleb128 0xd
 743 02cd 04       		.byte	0x4
 744 02ce CC010000 		.4byte	0x1cc
 745 02d2 03       		.uleb128 0x3
 746 02d3 0B0B0000 		.4byte	.LASF53
 747 02d7 08       		.byte	0x8
 748 02d8 49       		.byte	0x49
 749 02d9 DD020000 		.4byte	0x2dd
 750 02dd 0A       		.uleb128 0xa
 751 02de 4B060000 		.4byte	.LASF55
 752 02e2 04       		.byte	0x4
 753 02e3 09       		.byte	0x9
 754 02e4 88       		.byte	0x88
 755 02e5 F6020000 		.4byte	0x2f6
 756 02e9 09       		.uleb128 0x9
 757 02ea 220C0000 		.4byte	.LASF56
 758 02ee 09       		.byte	0x9
 759 02ef 89       		.byte	0x89
 760 02f0 CC020000 		.4byte	0x2cc
 761 02f4 00       		.byte	0
 762 02f5 00       		.byte	0
 763 02f6 03       		.uleb128 0x3
 764 02f7 31020000 		.4byte	.LASF57
 765 02fb 08       		.byte	0x8
 766 02fc 50       		.byte	0x50
 767 02fd 01030000 		.4byte	0x301
 768 0301 0A       		.uleb128 0xa
 769 0302 7F080000 		.4byte	.LASF58
 770 0306 08       		.byte	0x8
 771 0307 09       		.byte	0x9
 772 0308 8F       		.byte	0x8f
 773 0309 26030000 		.4byte	0x326
 774 030d 09       		.uleb128 0x9
 775 030e 220C0000 		.4byte	.LASF56
 776 0312 09       		.byte	0x9
 777 0313 90       		.byte	0x90
 778 0314 CC020000 		.4byte	0x2cc
 779 0318 00       		.byte	0
 780 0319 09       		.uleb128 0x9
 781 031a 2E0C0000 		.4byte	.LASF59
 782 031e 09       		.byte	0x9
 783 031f 91       		.byte	0x91
 784 0320 CC020000 		.4byte	0x2cc
 785 0324 04       		.byte	0x4
 786 0325 00       		.byte	0
 787 0326 03       		.uleb128 0x3
 788 0327 10060000 		.4byte	.LASF60
 789 032b 08       		.byte	0x8
 790 032c 57       		.byte	0x57
 791 032d 31030000 		.4byte	0x331
 792 0331 0E       		.uleb128 0xe
 793 0332 DC040000 		.4byte	.LASF61
 794 0336 1C       		.byte	0x1c
 795 0337 09       		.byte	0x9
ARM GAS  /var/folders/t8/16hdwfmd2fg_d3q6dgx6bpmw0000gn/T//ccvAsxMg.s 			page 15


 796 0338 6A01     		.2byte	0x16a
 797 033a 8D030000 		.4byte	0x38d
 798 033e 0C       		.uleb128 0xc
 799 033f E9080000 		.4byte	.LASF36
 800 0343 09       		.byte	0x9
 801 0344 6B01     		.2byte	0x16b
 802 0346 F6020000 		.4byte	0x2f6
 803 034a 00       		.byte	0
 804 034b 0C       		.uleb128 0xc
 805 034c D4000000 		.4byte	.LASF37
 806 0350 09       		.byte	0x9
 807 0351 6C01     		.2byte	0x16c
 808 0353 90010000 		.4byte	0x190
 809 0357 08       		.byte	0x8
 810 0358 0B       		.uleb128 0xb
 811 0359 63747800 		.ascii	"ctx\000"
 812 035d 09       		.byte	0x9
 813 035e 6E01     		.2byte	0x16e
 814 0360 51050000 		.4byte	0x551
 815 0364 0C       		.byte	0xc
 816 0365 0C       		.uleb128 0xc
 817 0366 2B0B0000 		.4byte	.LASF38
 818 036a 09       		.byte	0x9
 819 036b 7101     		.2byte	0x171
 820 036d CC020000 		.4byte	0x2cc
 821 0371 10       		.byte	0x10
 822 0372 0C       		.uleb128 0xc
 823 0373 1D060000 		.4byte	.LASF39
 824 0377 09       		.byte	0x9
 825 0378 7201     		.2byte	0x172
 826 037a CC020000 		.4byte	0x2cc
 827 037e 14       		.byte	0x14
 828 037f 0C       		.uleb128 0xc
 829 0380 76070000 		.4byte	.LASF62
 830 0384 09       		.byte	0x9
 831 0385 7501     		.2byte	0x175
 832 0387 CC020000 		.4byte	0x2cc
 833 038b 18       		.byte	0x18
 834 038c 00       		.byte	0
 835 038d 03       		.uleb128 0x3
 836 038e 76000000 		.4byte	.LASF63
 837 0392 08       		.byte	0x8
 838 0393 5C       		.byte	0x5c
 839 0394 98030000 		.4byte	0x398
 840 0398 0D       		.uleb128 0xd
 841 0399 04       		.byte	0x4
 842 039a 9E030000 		.4byte	0x39e
 843 039e 0F       		.uleb128 0xf
 844 039f A9030000 		.4byte	0x3a9
 845 03a3 10       		.uleb128 0x10
 846 03a4 A9030000 		.4byte	0x3a9
 847 03a8 00       		.byte	0
 848 03a9 11       		.uleb128 0x11
 849 03aa 04       		.byte	0x4
 850 03ab 03       		.uleb128 0x3
 851 03ac 00060000 		.4byte	.LASF64
 852 03b0 08       		.byte	0x8
ARM GAS  /var/folders/t8/16hdwfmd2fg_d3q6dgx6bpmw0000gn/T//ccvAsxMg.s 			page 16


 853 03b1 61       		.byte	0x61
 854 03b2 B6030000 		.4byte	0x3b6
 855 03b6 0E       		.uleb128 0xe
 856 03b7 1E080000 		.4byte	.LASF65
 857 03bb 14       		.byte	0x14
 858 03bc 09       		.byte	0x9
 859 03bd 4501     		.2byte	0x145
 860 03bf 05040000 		.4byte	0x405
 861 03c3 0C       		.uleb128 0xc
 862 03c4 220C0000 		.4byte	.LASF56
 863 03c8 09       		.byte	0x9
 864 03c9 4601     		.2byte	0x146
 865 03cb C9060000 		.4byte	0x6c9
 866 03cf 00       		.byte	0
 867 03d0 0C       		.uleb128 0xc
 868 03d1 2E0C0000 		.4byte	.LASF59
 869 03d5 09       		.byte	0x9
 870 03d6 4701     		.2byte	0x147
 871 03d8 C9060000 		.4byte	0x6c9
 872 03dc 04       		.byte	0x4
 873 03dd 0C       		.uleb128 0xc
 874 03de C0080000 		.4byte	.LASF66
 875 03e2 09       		.byte	0x9
 876 03e3 4801     		.2byte	0x148
 877 03e5 BC010000 		.4byte	0x1bc
 878 03e9 08       		.byte	0x8
 879 03ea 0C       		.uleb128 0xc
 880 03eb 0F0A0000 		.4byte	.LASF67
 881 03ef 09       		.byte	0x9
 882 03f0 4901     		.2byte	0x149
 883 03f2 8D030000 		.4byte	0x38d
 884 03f6 0C       		.byte	0xc
 885 03f7 0B       		.uleb128 0xb
 886 03f8 70617200 		.ascii	"par\000"
 887 03fc 09       		.byte	0x9
 888 03fd 4B01     		.2byte	0x14b
 889 03ff A9030000 		.4byte	0x3a9
 890 0403 10       		.byte	0x10
 891 0404 00       		.byte	0
 892 0405 03       		.uleb128 0x3
 893 0406 CB050000 		.4byte	.LASF68
 894 040a 08       		.byte	0x8
 895 040b 66       		.byte	0x66
 896 040c 10040000 		.4byte	0x410
 897 0410 0E       		.uleb128 0xe
 898 0411 7F000000 		.4byte	.LASF69
 899 0415 10       		.byte	0x10
 900 0416 09       		.byte	0x9
 901 0417 5501     		.2byte	0x155
 902 0419 52040000 		.4byte	0x452
 903 041d 0C       		.uleb128 0xc
 904 041e 220C0000 		.4byte	.LASF56
 905 0422 09       		.byte	0x9
 906 0423 5601     		.2byte	0x156
 907 0425 C9060000 		.4byte	0x6c9
 908 0429 00       		.byte	0
 909 042a 0C       		.uleb128 0xc
ARM GAS  /var/folders/t8/16hdwfmd2fg_d3q6dgx6bpmw0000gn/T//ccvAsxMg.s 			page 17


 910 042b 2E0C0000 		.4byte	.LASF59
 911 042f 09       		.byte	0x9
 912 0430 5801     		.2byte	0x158
 913 0432 C9060000 		.4byte	0x6c9
 914 0436 04       		.byte	0x4
 915 0437 0C       		.uleb128 0xc
 916 0438 C0080000 		.4byte	.LASF66
 917 043c 09       		.byte	0x9
 918 043d 5A01     		.2byte	0x15a
 919 043f BC010000 		.4byte	0x1bc
 920 0443 08       		.byte	0x8
 921 0444 0C       		.uleb128 0xc
 922 0445 09010000 		.4byte	.LASF70
 923 0449 09       		.byte	0x9
 924 044a 5C01     		.2byte	0x15c
 925 044c C7010000 		.4byte	0x1c7
 926 0450 0C       		.byte	0xc
 927 0451 00       		.byte	0
 928 0452 03       		.uleb128 0x3
 929 0453 5F030000 		.4byte	.LASF71
 930 0457 08       		.byte	0x8
 931 0458 6B       		.byte	0x6b
 932 0459 5D040000 		.4byte	0x45d
 933 045d 0E       		.uleb128 0xe
 934 045e 320A0000 		.4byte	.LASF72
 935 0462 0C       		.byte	0xc
 936 0463 09       		.byte	0x9
 937 0464 7C01     		.2byte	0x17c
 938 0466 92040000 		.4byte	0x492
 939 046a 0C       		.uleb128 0xc
 940 046b 4C030000 		.4byte	.LASF73
 941 046f 09       		.byte	0x9
 942 0470 8401     		.2byte	0x184
 943 0472 B2060000 		.4byte	0x6b2
 944 0476 00       		.byte	0
 945 0477 0C       		.uleb128 0xc
 946 0478 0B080000 		.4byte	.LASF74
 947 047c 09       		.byte	0x9
 948 047d 8901     		.2byte	0x189
 949 047f B1010000 		.4byte	0x1b1
 950 0483 04       		.byte	0x4
 951 0484 0C       		.uleb128 0xc
 952 0485 B6000000 		.4byte	.LASF75
 953 0489 09       		.byte	0x9
 954 048a 8D01     		.2byte	0x18d
 955 048c B1010000 		.4byte	0x1b1
 956 0490 08       		.byte	0x8
 957 0491 00       		.byte	0
 958 0492 03       		.uleb128 0x3
 959 0493 7E0B0000 		.4byte	.LASF76
 960 0497 08       		.byte	0x8
 961 0498 70       		.byte	0x70
 962 0499 9D040000 		.4byte	0x49d
 963 049d 0E       		.uleb128 0xe
 964 049e 210B0000 		.4byte	.LASF77
 965 04a2 7C       		.byte	0x7c
 966 04a3 09       		.byte	0x9
ARM GAS  /var/folders/t8/16hdwfmd2fg_d3q6dgx6bpmw0000gn/T//ccvAsxMg.s 			page 18


 967 04a4 9C01     		.2byte	0x19c
 968 04a6 DF040000 		.4byte	0x4df
 969 04aa 0C       		.uleb128 0xc
 970 04ab 94090000 		.4byte	.LASF78
 971 04af 09       		.byte	0x9
 972 04b0 A001     		.2byte	0x1a0
 973 04b2 26030000 		.4byte	0x326
 974 04b6 00       		.byte	0
 975 04b7 0C       		.uleb128 0xc
 976 04b8 C60A0000 		.4byte	.LASF79
 977 04bc 09       		.byte	0x9
 978 04bd A401     		.2byte	0x1a4
 979 04bf 05040000 		.4byte	0x405
 980 04c3 1C       		.byte	0x1c
 981 04c4 0B       		.uleb128 0xb
 982 04c5 64626700 		.ascii	"dbg\000"
 983 04c9 09       		.byte	0x9
 984 04ca A801     		.2byte	0x1a8
 985 04cc 52040000 		.4byte	0x452
 986 04d0 2C       		.byte	0x2c
 987 04d1 0C       		.uleb128 0xc
 988 04d2 EF080000 		.4byte	.LASF80
 989 04d6 09       		.byte	0x9
 990 04d7 AC01     		.2byte	0x1ac
 991 04d9 CC010000 		.4byte	0x1cc
 992 04dd 38       		.byte	0x38
 993 04de 00       		.byte	0
 994 04df 07       		.uleb128 0x7
 995 04e0 18       		.byte	0x18
 996 04e1 0A       		.byte	0xa
 997 04e2 C5       		.byte	0xc5
 998 04e3 30050000 		.4byte	0x530
 999 04e7 09       		.uleb128 0x9
 1000 04e8 F7090000 		.4byte	.LASF81
 1001 04ec 0A       		.byte	0xa
 1002 04ed C7       		.byte	0xc7
 1003 04ee D3000000 		.4byte	0xd3
 1004 04f2 00       		.byte	0
 1005 04f3 09       		.uleb128 0x9
 1006 04f4 240A0000 		.4byte	.LASF82
 1007 04f8 0A       		.byte	0xa
 1008 04f9 C8       		.byte	0xc8
 1009 04fa D3000000 		.4byte	0xd3
 1010 04fe 04       		.byte	0x4
 1011 04ff 09       		.uleb128 0x9
 1012 0500 85070000 		.4byte	.LASF83
 1013 0504 0A       		.byte	0xa
 1014 0505 C9       		.byte	0xc9
 1015 0506 D3000000 		.4byte	0xd3
 1016 050a 08       		.byte	0x8
 1017 050b 09       		.uleb128 0x9
 1018 050c 69000000 		.4byte	.LASF84
 1019 0510 0A       		.byte	0xa
 1020 0511 CA       		.byte	0xca
 1021 0512 D3000000 		.4byte	0xd3
 1022 0516 0C       		.byte	0xc
 1023 0517 09       		.uleb128 0x9
ARM GAS  /var/folders/t8/16hdwfmd2fg_d3q6dgx6bpmw0000gn/T//ccvAsxMg.s 			page 19


 1024 0518 8A070000 		.4byte	.LASF85
 1025 051c 0A       		.byte	0xa
 1026 051d CB       		.byte	0xcb
 1027 051e D3000000 		.4byte	0xd3
 1028 0522 10       		.byte	0x10
 1029 0523 09       		.uleb128 0x9
 1030 0524 FB050000 		.4byte	.LASF86
 1031 0528 0A       		.byte	0xa
 1032 0529 CC       		.byte	0xcc
 1033 052a D3000000 		.4byte	0xd3
 1034 052e 14       		.byte	0x14
 1035 052f 00       		.byte	0
 1036 0530 03       		.uleb128 0x3
 1037 0531 B90A0000 		.4byte	.LASF87
 1038 0535 0A       		.byte	0xa
 1039 0536 CD       		.byte	0xcd
 1040 0537 DF040000 		.4byte	0x4df
 1041 053b 03       		.uleb128 0x3
 1042 053c 47020000 		.4byte	.LASF88
 1043 0540 0B       		.byte	0xb
 1044 0541 65       		.byte	0x65
 1045 0542 A9030000 		.4byte	0x3a9
 1046 0546 03       		.uleb128 0x3
 1047 0547 3A040000 		.4byte	.LASF89
 1048 054b 0B       		.byte	0xb
 1049 054c 6D       		.byte	0x6d
 1050 054d D8000000 		.4byte	0xd8
 1051 0551 0A       		.uleb128 0xa
 1052 0552 FE0A0000 		.4byte	.LASF90
 1053 0556 04       		.byte	0x4
 1054 0557 0B       		.byte	0xb
 1055 0558 89       		.byte	0x89
 1056 0559 69050000 		.4byte	0x569
 1057 055d 08       		.uleb128 0x8
 1058 055e 737000   		.ascii	"sp\000"
 1059 0561 0B       		.byte	0xb
 1060 0562 8A       		.byte	0x8a
 1061 0563 DB050000 		.4byte	0x5db
 1062 0567 00       		.byte	0
 1063 0568 00       		.byte	0
 1064 0569 0A       		.uleb128 0xa
 1065 056a FF070000 		.4byte	.LASF91
 1066 056e 24       		.byte	0x24
 1067 056f 0C       		.byte	0xc
 1068 0570 C3       		.byte	0xc3
 1069 0571 DB050000 		.4byte	0x5db
 1070 0575 08       		.uleb128 0x8
 1071 0576 723800   		.ascii	"r8\000"
 1072 0579 0C       		.byte	0xc
 1073 057a C4       		.byte	0xc4
 1074 057b 3B050000 		.4byte	0x53b
 1075 057f 00       		.byte	0
 1076 0580 08       		.uleb128 0x8
 1077 0581 723900   		.ascii	"r9\000"
 1078 0584 0C       		.byte	0xc
 1079 0585 C5       		.byte	0xc5
 1080 0586 3B050000 		.4byte	0x53b
ARM GAS  /var/folders/t8/16hdwfmd2fg_d3q6dgx6bpmw0000gn/T//ccvAsxMg.s 			page 20


 1081 058a 04       		.byte	0x4
 1082 058b 08       		.uleb128 0x8
 1083 058c 72313000 		.ascii	"r10\000"
 1084 0590 0C       		.byte	0xc
 1085 0591 C6       		.byte	0xc6
 1086 0592 3B050000 		.4byte	0x53b
 1087 0596 08       		.byte	0x8
 1088 0597 08       		.uleb128 0x8
 1089 0598 72313100 		.ascii	"r11\000"
 1090 059c 0C       		.byte	0xc
 1091 059d C7       		.byte	0xc7
 1092 059e 3B050000 		.4byte	0x53b
 1093 05a2 0C       		.byte	0xc
 1094 05a3 08       		.uleb128 0x8
 1095 05a4 723400   		.ascii	"r4\000"
 1096 05a7 0C       		.byte	0xc
 1097 05a8 C8       		.byte	0xc8
 1098 05a9 3B050000 		.4byte	0x53b
 1099 05ad 10       		.byte	0x10
 1100 05ae 08       		.uleb128 0x8
 1101 05af 723500   		.ascii	"r5\000"
 1102 05b2 0C       		.byte	0xc
 1103 05b3 C9       		.byte	0xc9
 1104 05b4 3B050000 		.4byte	0x53b
 1105 05b8 14       		.byte	0x14
 1106 05b9 08       		.uleb128 0x8
 1107 05ba 723600   		.ascii	"r6\000"
 1108 05bd 0C       		.byte	0xc
 1109 05be CA       		.byte	0xca
 1110 05bf 3B050000 		.4byte	0x53b
 1111 05c3 18       		.byte	0x18
 1112 05c4 08       		.uleb128 0x8
 1113 05c5 723700   		.ascii	"r7\000"
 1114 05c8 0C       		.byte	0xc
 1115 05c9 CB       		.byte	0xcb
 1116 05ca 3B050000 		.4byte	0x53b
 1117 05ce 1C       		.byte	0x1c
 1118 05cf 08       		.uleb128 0x8
 1119 05d0 6C7200   		.ascii	"lr\000"
 1120 05d3 0C       		.byte	0xc
 1121 05d4 CC       		.byte	0xcc
 1122 05d5 3B050000 		.4byte	0x53b
 1123 05d9 20       		.byte	0x20
 1124 05da 00       		.byte	0
 1125 05db 0D       		.uleb128 0xd
 1126 05dc 04       		.byte	0x4
 1127 05dd 69050000 		.4byte	0x569
 1128 05e1 12       		.uleb128 0x12
 1129 05e2 04       		.byte	0x4
 1130 05e3 09       		.byte	0x9
 1131 05e4 D2       		.byte	0xd2
 1132 05e5 44060000 		.4byte	0x644
 1133 05e9 13       		.uleb128 0x13
 1134 05ea 520B0000 		.4byte	.LASF92
 1135 05ee 09       		.byte	0x9
 1136 05ef D9       		.byte	0xd9
 1137 05f0 9B010000 		.4byte	0x19b
ARM GAS  /var/folders/t8/16hdwfmd2fg_d3q6dgx6bpmw0000gn/T//ccvAsxMg.s 			page 21


 1138 05f4 13       		.uleb128 0x13
 1139 05f5 E2000000 		.4byte	.LASF93
 1140 05f9 09       		.byte	0x9
 1141 05fa E0       		.byte	0xe0
 1142 05fb 9B010000 		.4byte	0x19b
 1143 05ff 13       		.uleb128 0x13
 1144 0600 D0030000 		.4byte	.LASF94
 1145 0604 09       		.byte	0x9
 1146 0605 E7       		.byte	0xe7
 1147 0606 A9030000 		.4byte	0x3a9
 1148 060a 13       		.uleb128 0x13
 1149 060b 0E030000 		.4byte	.LASF95
 1150 060f 09       		.byte	0x9
 1151 0610 EE       		.byte	0xee
 1152 0611 44060000 		.4byte	0x644
 1153 0615 13       		.uleb128 0x13
 1154 0616 E3070000 		.4byte	.LASF96
 1155 061a 09       		.byte	0x9
 1156 061b F3       		.byte	0xf3
 1157 061c 9B010000 		.4byte	0x19b
 1158 0620 13       		.uleb128 0x13
 1159 0621 23000000 		.4byte	.LASF97
 1160 0625 09       		.byte	0x9
 1161 0626 FC       		.byte	0xfc
 1162 0627 6F060000 		.4byte	0x66f
 1163 062b 14       		.uleb128 0x14
 1164 062c CA040000 		.4byte	.LASF98
 1165 0630 09       		.byte	0x9
 1166 0631 0501     		.2byte	0x105
 1167 0633 A6060000 		.4byte	0x6a6
 1168 0637 14       		.uleb128 0x14
 1169 0638 DA020000 		.4byte	.LASF99
 1170 063c 09       		.byte	0x9
 1171 063d 0D01     		.2byte	0x10d
 1172 063f A6010000 		.4byte	0x1a6
 1173 0643 00       		.byte	0
 1174 0644 0D       		.uleb128 0xd
 1175 0645 04       		.byte	0x4
 1176 0646 C1020000 		.4byte	0x2c1
 1177 064a 0A       		.uleb128 0xa
 1178 064b 9E050000 		.4byte	.LASF100
 1179 064f 0C       		.byte	0xc
 1180 0650 0D       		.byte	0xd
 1181 0651 34       		.byte	0x34
 1182 0652 6F060000 		.4byte	0x66f
 1183 0656 09       		.uleb128 0x9
 1184 0657 E9080000 		.4byte	.LASF36
 1185 065b 0D       		.byte	0xd
 1186 065c 35       		.byte	0x35
 1187 065d F6020000 		.4byte	0x2f6
 1188 0661 00       		.byte	0
 1189 0662 08       		.uleb128 0x8
 1190 0663 636E7400 		.ascii	"cnt\000"
 1191 0667 0D       		.byte	0xd
 1192 0668 37       		.byte	0x37
 1193 0669 B1010000 		.4byte	0x1b1
 1194 066d 08       		.byte	0x8
ARM GAS  /var/folders/t8/16hdwfmd2fg_d3q6dgx6bpmw0000gn/T//ccvAsxMg.s 			page 22


 1195 066e 00       		.byte	0
 1196 066f 0D       		.uleb128 0xd
 1197 0670 04       		.byte	0x4
 1198 0671 4A060000 		.4byte	0x64a
 1199 0675 0A       		.uleb128 0xa
 1200 0676 140A0000 		.4byte	.LASF101
 1201 067a 10       		.byte	0x10
 1202 067b 0E       		.byte	0xe
 1203 067c 39       		.byte	0x39
 1204 067d A6060000 		.4byte	0x6a6
 1205 0681 09       		.uleb128 0x9
 1206 0682 E9080000 		.4byte	.LASF36
 1207 0686 0E       		.byte	0xe
 1208 0687 3A       		.byte	0x3a
 1209 0688 F6020000 		.4byte	0x2f6
 1210 068c 00       		.byte	0
 1211 068d 09       		.uleb128 0x9
 1212 068e 40000000 		.4byte	.LASF102
 1213 0692 0E       		.byte	0xe
 1214 0693 3C       		.byte	0x3c
 1215 0694 CC020000 		.4byte	0x2cc
 1216 0698 08       		.byte	0x8
 1217 0699 09       		.uleb128 0x9
 1218 069a 220C0000 		.4byte	.LASF56
 1219 069e 0E       		.byte	0xe
 1220 069f 3E       		.byte	0x3e
 1221 06a0 08080000 		.4byte	0x808
 1222 06a4 0C       		.byte	0xc
 1223 06a5 00       		.byte	0
 1224 06a6 0D       		.uleb128 0xd
 1225 06a7 04       		.byte	0x4
 1226 06a8 75060000 		.4byte	0x675
 1227 06ac 0D       		.uleb128 0xd
 1228 06ad 04       		.byte	0x4
 1229 06ae BE060000 		.4byte	0x6be
 1230 06b2 06       		.uleb128 0x6
 1231 06b3 AC060000 		.4byte	0x6ac
 1232 06b7 02       		.uleb128 0x2
 1233 06b8 01       		.byte	0x1
 1234 06b9 08       		.byte	0x8
 1235 06ba 92030000 		.4byte	.LASF103
 1236 06be 05       		.uleb128 0x5
 1237 06bf B7060000 		.4byte	0x6b7
 1238 06c3 0D       		.uleb128 0xd
 1239 06c4 04       		.byte	0x4
 1240 06c5 46050000 		.4byte	0x546
 1241 06c9 0D       		.uleb128 0xd
 1242 06ca 04       		.byte	0x4
 1243 06cb AB030000 		.4byte	0x3ab
 1244 06cf 15       		.uleb128 0x15
 1245 06d0 636800   		.ascii	"ch\000"
 1246 06d3 09       		.byte	0x9
 1247 06d4 D201     		.2byte	0x1d2
 1248 06d6 92040000 		.4byte	0x492
 1249 06da 16       		.uleb128 0x16
 1250 06db 46050000 		.4byte	0x546
 1251 06df E5060000 		.4byte	0x6e5
ARM GAS  /var/folders/t8/16hdwfmd2fg_d3q6dgx6bpmw0000gn/T//ccvAsxMg.s 			page 23


 1252 06e3 17       		.uleb128 0x17
 1253 06e4 00       		.byte	0
 1254 06e5 18       		.uleb128 0x18
 1255 06e6 E1050000 		.4byte	.LASF104
 1256 06ea 10       		.byte	0x10
 1257 06eb 2B01     		.2byte	0x12b
 1258 06ed DA060000 		.4byte	0x6da
 1259 06f1 07       		.uleb128 0x7
 1260 06f2 16       		.byte	0x16
 1261 06f3 0F       		.byte	0xf
 1262 06f4 34       		.byte	0x34
 1263 06f5 D2070000 		.4byte	0x7d2
 1264 06f9 09       		.uleb128 0x9
 1265 06fa 330C0000 		.4byte	.LASF105
 1266 06fe 0F       		.byte	0xf
 1267 06ff 35       		.byte	0x35
 1268 0700 D2070000 		.4byte	0x7d2
 1269 0704 00       		.byte	0
 1270 0705 09       		.uleb128 0x9
 1271 0706 26010000 		.4byte	.LASF106
 1272 070a 0F       		.byte	0xf
 1273 070b 36       		.byte	0x36
 1274 070c A2000000 		.4byte	0xa2
 1275 0710 04       		.byte	0x4
 1276 0711 09       		.uleb128 0x9
 1277 0712 4B080000 		.4byte	.LASF107
 1278 0716 0F       		.byte	0xf
 1279 0717 37       		.byte	0x37
 1280 0718 A2000000 		.4byte	0xa2
 1281 071c 05       		.byte	0x5
 1282 071d 09       		.uleb128 0x9
 1283 071e FA080000 		.4byte	.LASF108
 1284 0722 0F       		.byte	0xf
 1285 0723 38       		.byte	0x38
 1286 0724 B2000000 		.4byte	0xb2
 1287 0728 06       		.byte	0x6
 1288 0729 09       		.uleb128 0x9
 1289 072a 64040000 		.4byte	.LASF109
 1290 072e 0F       		.byte	0xf
 1291 072f 39       		.byte	0x39
 1292 0730 A2000000 		.4byte	0xa2
 1293 0734 08       		.byte	0x8
 1294 0735 09       		.uleb128 0x9
 1295 0736 B10B0000 		.4byte	.LASF110
 1296 073a 0F       		.byte	0xf
 1297 073b 3A       		.byte	0x3a
 1298 073c A2000000 		.4byte	0xa2
 1299 0740 09       		.byte	0x9
 1300 0741 09       		.uleb128 0x9
 1301 0742 7C050000 		.4byte	.LASF111
 1302 0746 0F       		.byte	0xf
 1303 0747 3B       		.byte	0x3b
 1304 0748 A2000000 		.4byte	0xa2
 1305 074c 0A       		.byte	0xa
 1306 074d 09       		.uleb128 0x9
 1307 074e 1A000000 		.4byte	.LASF112
 1308 0752 0F       		.byte	0xf
ARM GAS  /var/folders/t8/16hdwfmd2fg_d3q6dgx6bpmw0000gn/T//ccvAsxMg.s 			page 24


 1309 0753 3C       		.byte	0x3c
 1310 0754 A2000000 		.4byte	0xa2
 1311 0758 0B       		.byte	0xb
 1312 0759 09       		.uleb128 0x9
 1313 075a 00000000 		.4byte	.LASF113
 1314 075e 0F       		.byte	0xf
 1315 075f 3D       		.byte	0x3d
 1316 0760 A2000000 		.4byte	0xa2
 1317 0764 0C       		.byte	0xc
 1318 0765 09       		.uleb128 0x9
 1319 0766 31070000 		.4byte	.LASF114
 1320 076a 0F       		.byte	0xf
 1321 076b 3E       		.byte	0x3e
 1322 076c A2000000 		.4byte	0xa2
 1323 0770 0D       		.byte	0xd
 1324 0771 09       		.uleb128 0x9
 1325 0772 CA000000 		.4byte	.LASF115
 1326 0776 0F       		.byte	0xf
 1327 0777 3F       		.byte	0x3f
 1328 0778 A2000000 		.4byte	0xa2
 1329 077c 0E       		.byte	0xe
 1330 077d 09       		.uleb128 0x9
 1331 077e 70080000 		.4byte	.LASF116
 1332 0782 0F       		.byte	0xf
 1333 0783 40       		.byte	0x40
 1334 0784 A2000000 		.4byte	0xa2
 1335 0788 0F       		.byte	0xf
 1336 0789 09       		.uleb128 0x9
 1337 078a 33060000 		.4byte	.LASF117
 1338 078e 0F       		.byte	0xf
 1339 078f 41       		.byte	0x41
 1340 0790 A2000000 		.4byte	0xa2
 1341 0794 10       		.byte	0x10
 1342 0795 09       		.uleb128 0x9
 1343 0796 51050000 		.4byte	.LASF118
 1344 079a 0F       		.byte	0xf
 1345 079b 42       		.byte	0x42
 1346 079c A2000000 		.4byte	0xa2
 1347 07a0 11       		.byte	0x11
 1348 07a1 09       		.uleb128 0x9
 1349 07a2 D00B0000 		.4byte	.LASF119
 1350 07a6 0F       		.byte	0xf
 1351 07a7 43       		.byte	0x43
 1352 07a8 A2000000 		.4byte	0xa2
 1353 07ac 12       		.byte	0x12
 1354 07ad 09       		.uleb128 0x9
 1355 07ae 0B040000 		.4byte	.LASF120
 1356 07b2 0F       		.byte	0xf
 1357 07b3 44       		.byte	0x44
 1358 07b4 A2000000 		.4byte	0xa2
 1359 07b8 13       		.byte	0x13
 1360 07b9 09       		.uleb128 0x9
 1361 07ba 34000000 		.4byte	.LASF121
 1362 07be 0F       		.byte	0xf
 1363 07bf 45       		.byte	0x45
 1364 07c0 A2000000 		.4byte	0xa2
 1365 07c4 14       		.byte	0x14
ARM GAS  /var/folders/t8/16hdwfmd2fg_d3q6dgx6bpmw0000gn/T//ccvAsxMg.s 			page 25


 1366 07c5 09       		.uleb128 0x9
 1367 07c6 9A040000 		.4byte	.LASF122
 1368 07ca 0F       		.byte	0xf
 1369 07cb 46       		.byte	0x46
 1370 07cc A2000000 		.4byte	0xa2
 1371 07d0 15       		.byte	0x15
 1372 07d1 00       		.byte	0
 1373 07d2 16       		.uleb128 0x16
 1374 07d3 B7060000 		.4byte	0x6b7
 1375 07d7 E2070000 		.4byte	0x7e2
 1376 07db 19       		.uleb128 0x19
 1377 07dc 9B000000 		.4byte	0x9b
 1378 07e0 03       		.byte	0x3
 1379 07e1 00       		.byte	0
 1380 07e2 03       		.uleb128 0x3
 1381 07e3 8A0B0000 		.4byte	.LASF123
 1382 07e7 0F       		.byte	0xf
 1383 07e8 47       		.byte	0x47
 1384 07e9 F1060000 		.4byte	0x6f1
 1385 07ed 05       		.uleb128 0x5
 1386 07ee E2070000 		.4byte	0x7e2
 1387 07f2 1A       		.uleb128 0x1a
 1388 07f3 4E000000 		.4byte	.LASF124
 1389 07f7 0F       		.byte	0xf
 1390 07f8 6C       		.byte	0x6c
 1391 07f9 ED070000 		.4byte	0x7ed
 1392 07fd 03       		.uleb128 0x3
 1393 07fe EE0A0000 		.4byte	.LASF125
 1394 0802 0E       		.byte	0xe
 1395 0803 34       		.byte	0x34
 1396 0804 75060000 		.4byte	0x675
 1397 0808 0D       		.uleb128 0xd
 1398 0809 04       		.byte	0x4
 1399 080a FD070000 		.4byte	0x7fd
 1400 080e 0D       		.uleb128 0xd
 1401 080f 04       		.byte	0x4
 1402 0810 AD000000 		.4byte	0xad
 1403 0814 0D       		.uleb128 0xd
 1404 0815 04       		.byte	0x4
 1405 0816 A2000000 		.4byte	0xa2
 1406 081a 03       		.uleb128 0x3
 1407 081b D9000000 		.4byte	.LASF126
 1408 081f 11       		.byte	0x11
 1409 0820 46       		.byte	0x46
 1410 0821 C8000000 		.4byte	0xc8
 1411 0825 03       		.uleb128 0x3
 1412 0826 2B010000 		.4byte	.LASF127
 1413 082a 11       		.byte	0x11
 1414 082b 53       		.byte	0x53
 1415 082c 30080000 		.4byte	0x830
 1416 0830 0D       		.uleb128 0xd
 1417 0831 04       		.byte	0x4
 1418 0832 30050000 		.4byte	0x530
 1419 0836 07       		.uleb128 0x7
 1420 0837 84       		.byte	0x84
 1421 0838 11       		.byte	0x11
 1422 0839 5A       		.byte	0x5a
ARM GAS  /var/folders/t8/16hdwfmd2fg_d3q6dgx6bpmw0000gn/T//ccvAsxMg.s 			page 26


 1423 083a 57080000 		.4byte	0x857
 1424 083e 09       		.uleb128 0x9
 1425 083f F2090000 		.4byte	.LASF128
 1426 0843 11       		.byte	0x11
 1427 0844 5B       		.byte	0x5b
 1428 0845 25080000 		.4byte	0x825
 1429 0849 00       		.byte	0
 1430 084a 09       		.uleb128 0x9
 1431 084b DA060000 		.4byte	.LASF129
 1432 084f 11       		.byte	0x11
 1433 0850 5C       		.byte	0x5c
 1434 0851 57080000 		.4byte	0x857
 1435 0855 04       		.byte	0x4
 1436 0856 00       		.byte	0
 1437 0857 16       		.uleb128 0x16
 1438 0858 1A080000 		.4byte	0x81a
 1439 085c 67080000 		.4byte	0x867
 1440 0860 19       		.uleb128 0x19
 1441 0861 9B000000 		.4byte	0x9b
 1442 0865 1F       		.byte	0x1f
 1443 0866 00       		.byte	0
 1444 0867 03       		.uleb128 0x3
 1445 0868 26050000 		.4byte	.LASF130
 1446 086c 11       		.byte	0x11
 1447 086d 5D       		.byte	0x5d
 1448 086e 36080000 		.4byte	0x836
 1449 0872 1B       		.uleb128 0x1b
 1450 0873 9402     		.2byte	0x294
 1451 0875 11       		.byte	0x11
 1452 0876 68       		.byte	0x68
 1453 0877 88080000 		.4byte	0x888
 1454 087b 09       		.uleb128 0x9
 1455 087c 03010000 		.4byte	.LASF131
 1456 0880 11       		.byte	0x11
 1457 0881 69       		.byte	0x69
 1458 0882 88080000 		.4byte	0x888
 1459 0886 00       		.byte	0
 1460 0887 00       		.byte	0
 1461 0888 16       		.uleb128 0x16
 1462 0889 67080000 		.4byte	0x867
 1463 088d 98080000 		.4byte	0x898
 1464 0891 19       		.uleb128 0x19
 1465 0892 9B000000 		.4byte	0x9b
 1466 0896 04       		.byte	0x4
 1467 0897 00       		.byte	0
 1468 0898 03       		.uleb128 0x3
 1469 0899 790A0000 		.4byte	.LASF132
 1470 089d 11       		.byte	0x11
 1471 089e 6A       		.byte	0x6a
 1472 089f 72080000 		.4byte	0x872
 1473 08a3 05       		.uleb128 0x5
 1474 08a4 98080000 		.4byte	0x898
 1475 08a8 18       		.uleb128 0x18
 1476 08a9 BB020000 		.4byte	.LASF133
 1477 08ad 11       		.byte	0x11
 1478 08ae 8D01     		.2byte	0x18d
 1479 08b0 A3080000 		.4byte	0x8a3
ARM GAS  /var/folders/t8/16hdwfmd2fg_d3q6dgx6bpmw0000gn/T//ccvAsxMg.s 			page 27


 1480 08b4 1C       		.uleb128 0x1c
 1481 08b5 C6030000 		.4byte	.LASF134
 1482 08b9 12       		.byte	0x12
 1483 08ba 0001     		.2byte	0x100
 1484 08bc C0080000 		.4byte	0x8c0
 1485 08c0 0E       		.uleb128 0xe
 1486 08c1 C6030000 		.4byte	.LASF134
 1487 08c5 E8       		.byte	0xe8
 1488 08c6 13       		.byte	0x13
 1489 08c7 0601     		.2byte	0x106
 1490 08c9 AB090000 		.4byte	0x9ab
 1491 08cd 0C       		.uleb128 0xc
 1492 08ce A8000000 		.4byte	.LASF42
 1493 08d2 13       		.byte	0x13
 1494 08d3 0A01     		.2byte	0x10a
 1495 08d5 EA090000 		.4byte	0x9ea
 1496 08d9 00       		.byte	0
 1497 08da 0C       		.uleb128 0xc
 1498 08db A1000000 		.4byte	.LASF135
 1499 08df 13       		.byte	0x13
 1500 08e0 0E01     		.2byte	0x10e
 1501 08e2 1E0D0000 		.4byte	0xd1e
 1502 08e6 04       		.byte	0x4
 1503 08e7 0C       		.uleb128 0xc
 1504 08e8 6C040000 		.4byte	.LASF136
 1505 08ec 13       		.byte	0x13
 1506 08ed 1201     		.2byte	0x112
 1507 08ef B2000000 		.4byte	0xb2
 1508 08f3 08       		.byte	0x8
 1509 08f4 0C       		.uleb128 0xc
 1510 08f5 A8030000 		.4byte	.LASF137
 1511 08f9 13       		.byte	0x13
 1512 08fa 1601     		.2byte	0x116
 1513 08fc B2000000 		.4byte	0xb2
 1514 0900 0A       		.byte	0xa
 1515 0901 0B       		.uleb128 0xb
 1516 0902 65706300 		.ascii	"epc\000"
 1517 0906 13       		.byte	0x13
 1518 0907 1A01     		.2byte	0x11a
 1519 0909 240D0000 		.4byte	0xd24
 1520 090d 0C       		.byte	0xc
 1521 090e 0C       		.uleb128 0xc
 1522 090f D3090000 		.4byte	.LASF138
 1523 0913 13       		.byte	0x13
 1524 0914 2101     		.2byte	0x121
 1525 0916 3A0D0000 		.4byte	0xd3a
 1526 091a 4C       		.byte	0x4c
 1527 091b 0C       		.uleb128 0xc
 1528 091c A60B0000 		.4byte	.LASF139
 1529 0920 13       		.byte	0x13
 1530 0921 2801     		.2byte	0x128
 1531 0923 3A0D0000 		.4byte	0xd3a
 1532 0927 88       		.byte	0x88
 1533 0928 0C       		.uleb128 0xc
 1534 0929 56030000 		.4byte	.LASF140
 1535 092d 13       		.byte	0x13
 1536 092e 2C01     		.2byte	0x12c
ARM GAS  /var/folders/t8/16hdwfmd2fg_d3q6dgx6bpmw0000gn/T//ccvAsxMg.s 			page 28


 1537 0930 2F0A0000 		.4byte	0xa2f
 1538 0934 C4       		.byte	0xc4
 1539 0935 0C       		.uleb128 0xc
 1540 0936 C7060000 		.4byte	.LASF141
 1541 093a 13       		.byte	0x13
 1542 093b 3001     		.2byte	0x130
 1543 093d 14080000 		.4byte	0x814
 1544 0941 C8       		.byte	0xc8
 1545 0942 0C       		.uleb128 0xc
 1546 0943 A3030000 		.4byte	.LASF142
 1547 0947 13       		.byte	0x13
 1548 0948 3401     		.2byte	0x134
 1549 094a 59010000 		.4byte	0x159
 1550 094e CC       		.byte	0xcc
 1551 094f 0C       		.uleb128 0xc
 1552 0950 AB050000 		.4byte	.LASF143
 1553 0954 13       		.byte	0x13
 1554 0955 3801     		.2byte	0x138
 1555 0957 B50A0000 		.4byte	0xab5
 1556 095b D0       		.byte	0xd0
 1557 095c 0C       		.uleb128 0xc
 1558 095d C4040000 		.4byte	.LASF144
 1559 0961 13       		.byte	0x13
 1560 0962 3C01     		.2byte	0x13c
 1561 0964 4A0D0000 		.4byte	0xd4a
 1562 0968 D4       		.byte	0xd4
 1563 0969 0C       		.uleb128 0xc
 1564 096a 8F050000 		.4byte	.LASF145
 1565 096e 13       		.byte	0x13
 1566 096f 4001     		.2byte	0x140
 1567 0971 B2000000 		.4byte	0xb2
 1568 0975 DC       		.byte	0xdc
 1569 0976 0C       		.uleb128 0xc
 1570 0977 96050000 		.4byte	.LASF146
 1571 097b 13       		.byte	0x13
 1572 097c 4401     		.2byte	0x144
 1573 097e A2000000 		.4byte	0xa2
 1574 0982 DE       		.byte	0xde
 1575 0983 0C       		.uleb128 0xc
 1576 0984 18050000 		.4byte	.LASF147
 1577 0988 13       		.byte	0x13
 1578 0989 4801     		.2byte	0x148
 1579 098b A2000000 		.4byte	0xa2
 1580 098f DF       		.byte	0xdf
 1581 0990 0C       		.uleb128 0xc
 1582 0991 B4080000 		.4byte	.LASF148
 1583 0995 13       		.byte	0x13
 1584 0996 4C01     		.2byte	0x14c
 1585 0998 EA090000 		.4byte	0x9ea
 1586 099c E0       		.byte	0xe0
 1587 099d 0C       		.uleb128 0xc
 1588 099e 270C0000 		.4byte	.LASF149
 1589 09a2 13       		.byte	0x13
 1590 09a3 5401     		.2byte	0x154
 1591 09a5 C8000000 		.4byte	0xc8
 1592 09a9 E4       		.byte	0xe4
 1593 09aa 00       		.byte	0
ARM GAS  /var/folders/t8/16hdwfmd2fg_d3q6dgx6bpmw0000gn/T//ccvAsxMg.s 			page 29


 1594 09ab 1C       		.uleb128 0x1c
 1595 09ac 3A0B0000 		.4byte	.LASF150
 1596 09b0 12       		.byte	0x12
 1597 09b1 0501     		.2byte	0x105
 1598 09b3 A2000000 		.4byte	0xa2
 1599 09b7 1D       		.uleb128 0x1d
 1600 09b8 07       		.byte	0x7
 1601 09b9 01       		.byte	0x1
 1602 09ba 37000000 		.4byte	0x37
 1603 09be 12       		.byte	0x12
 1604 09bf 0A01     		.2byte	0x10a
 1605 09c1 EA090000 		.4byte	0x9ea
 1606 09c5 1E       		.uleb128 0x1e
 1607 09c6 13080000 		.4byte	.LASF151
 1608 09ca 00       		.byte	0
 1609 09cb 1E       		.uleb128 0x1e
 1610 09cc 8F070000 		.4byte	.LASF152
 1611 09d0 01       		.byte	0x1
 1612 09d1 1E       		.uleb128 0x1e
 1613 09d2 B6060000 		.4byte	.LASF153
 1614 09d6 02       		.byte	0x2
 1615 09d7 1E       		.uleb128 0x1e
 1616 09d8 FF040000 		.4byte	.LASF154
 1617 09dc 03       		.byte	0x3
 1618 09dd 1E       		.uleb128 0x1e
 1619 09de BF000000 		.4byte	.LASF155
 1620 09e2 04       		.byte	0x4
 1621 09e3 1E       		.uleb128 0x1e
 1622 09e4 AD020000 		.4byte	.LASF156
 1623 09e8 05       		.byte	0x5
 1624 09e9 00       		.byte	0
 1625 09ea 1C       		.uleb128 0x1c
 1626 09eb 40060000 		.4byte	.LASF157
 1627 09ef 12       		.byte	0x12
 1628 09f0 1101     		.2byte	0x111
 1629 09f2 B7090000 		.4byte	0x9b7
 1630 09f6 1D       		.uleb128 0x1d
 1631 09f7 07       		.byte	0x7
 1632 09f8 01       		.byte	0x1
 1633 09f9 37000000 		.4byte	0x37
 1634 09fd 12       		.byte	0x12
 1635 09fe 1F01     		.2byte	0x11f
 1636 0a00 2F0A0000 		.4byte	0xa2f
 1637 0a04 1E       		.uleb128 0x1e
 1638 0a05 97020000 		.4byte	.LASF158
 1639 0a09 00       		.byte	0
 1640 0a0a 1E       		.uleb128 0x1e
 1641 0a0b 96000000 		.4byte	.LASF159
 1642 0a0f 01       		.byte	0x1
 1643 0a10 1E       		.uleb128 0x1e
 1644 0a11 EB070000 		.4byte	.LASF160
 1645 0a15 02       		.byte	0x2
 1646 0a16 1E       		.uleb128 0x1e
 1647 0a17 EC0B0000 		.4byte	.LASF161
 1648 0a1b 03       		.byte	0x3
 1649 0a1c 1E       		.uleb128 0x1e
 1650 0a1d 3E0C0000 		.4byte	.LASF162
ARM GAS  /var/folders/t8/16hdwfmd2fg_d3q6dgx6bpmw0000gn/T//ccvAsxMg.s 			page 30


 1651 0a21 04       		.byte	0x4
 1652 0a22 1E       		.uleb128 0x1e
 1653 0a23 5B090000 		.4byte	.LASF163
 1654 0a27 05       		.byte	0x5
 1655 0a28 1E       		.uleb128 0x1e
 1656 0a29 35030000 		.4byte	.LASF164
 1657 0a2d 06       		.byte	0x6
 1658 0a2e 00       		.byte	0
 1659 0a2f 1C       		.uleb128 0x1c
 1660 0a30 EB000000 		.4byte	.LASF165
 1661 0a34 12       		.byte	0x12
 1662 0a35 2701     		.2byte	0x127
 1663 0a37 F6090000 		.4byte	0x9f6
 1664 0a3b 1D       		.uleb128 0x1d
 1665 0a3c 07       		.byte	0x7
 1666 0a3d 01       		.byte	0x1
 1667 0a3e 37000000 		.4byte	0x37
 1668 0a42 12       		.byte	0x12
 1669 0a43 2C01     		.2byte	0x12c
 1670 0a45 740A0000 		.4byte	0xa74
 1671 0a49 1E       		.uleb128 0x1e
 1672 0a4a C6080000 		.4byte	.LASF166
 1673 0a4e 00       		.byte	0
 1674 0a4f 1E       		.uleb128 0x1e
 1675 0a50 57000000 		.4byte	.LASF167
 1676 0a54 01       		.byte	0x1
 1677 0a55 1E       		.uleb128 0x1e
 1678 0a56 46090000 		.4byte	.LASF168
 1679 0a5a 02       		.byte	0x2
 1680 0a5b 1E       		.uleb128 0x1e
 1681 0a5c 10090000 		.4byte	.LASF169
 1682 0a60 03       		.byte	0x3
 1683 0a61 1E       		.uleb128 0x1e
 1684 0a62 940B0000 		.4byte	.LASF170
 1685 0a66 04       		.byte	0x4
 1686 0a67 1E       		.uleb128 0x1e
 1687 0a68 73060000 		.4byte	.LASF171
 1688 0a6c 05       		.byte	0x5
 1689 0a6d 1E       		.uleb128 0x1e
 1690 0a6e E9020000 		.4byte	.LASF172
 1691 0a72 06       		.byte	0x6
 1692 0a73 00       		.byte	0
 1693 0a74 1C       		.uleb128 0x1c
 1694 0a75 D1040000 		.4byte	.LASF173
 1695 0a79 12       		.byte	0x12
 1696 0a7a 3401     		.2byte	0x134
 1697 0a7c 3B0A0000 		.4byte	0xa3b
 1698 0a80 1F       		.uleb128 0x1f
 1699 0a81 08       		.byte	0x8
 1700 0a82 12       		.byte	0x12
 1701 0a83 3901     		.2byte	0x139
 1702 0a85 A40A0000 		.4byte	0xaa4
 1703 0a89 0C       		.uleb128 0xc
 1704 0a8a EA040000 		.4byte	.LASF174
 1705 0a8e 12       		.byte	0x12
 1706 0a8f 3D01     		.2byte	0x13d
 1707 0a91 59010000 		.4byte	0x159
ARM GAS  /var/folders/t8/16hdwfmd2fg_d3q6dgx6bpmw0000gn/T//ccvAsxMg.s 			page 31


 1708 0a95 00       		.byte	0
 1709 0a96 0C       		.uleb128 0xc
 1710 0a97 01040000 		.4byte	.LASF175
 1711 0a9b 12       		.byte	0x12
 1712 0a9c 4101     		.2byte	0x141
 1713 0a9e 0E080000 		.4byte	0x80e
 1714 0aa2 04       		.byte	0x4
 1715 0aa3 00       		.byte	0
 1716 0aa4 1C       		.uleb128 0x1c
 1717 0aa5 B6040000 		.4byte	.LASF176
 1718 0aa9 12       		.byte	0x12
 1719 0aaa 4201     		.2byte	0x142
 1720 0aac 800A0000 		.4byte	0xa80
 1721 0ab0 05       		.uleb128 0x5
 1722 0ab1 A40A0000 		.4byte	0xaa4
 1723 0ab5 1C       		.uleb128 0x1c
 1724 0ab6 830A0000 		.4byte	.LASF177
 1725 0aba 12       		.byte	0x12
 1726 0abb 4A01     		.2byte	0x14a
 1727 0abd C10A0000 		.4byte	0xac1
 1728 0ac1 0D       		.uleb128 0xd
 1729 0ac2 04       		.byte	0x4
 1730 0ac3 C70A0000 		.4byte	0xac7
 1731 0ac7 0F       		.uleb128 0xf
 1732 0ac8 D20A0000 		.4byte	0xad2
 1733 0acc 10       		.uleb128 0x10
 1734 0acd D20A0000 		.4byte	0xad2
 1735 0ad1 00       		.byte	0
 1736 0ad2 0D       		.uleb128 0xd
 1737 0ad3 04       		.byte	0x4
 1738 0ad4 B4080000 		.4byte	0x8b4
 1739 0ad8 1C       		.uleb128 0x1c
 1740 0ad9 F9060000 		.4byte	.LASF178
 1741 0add 12       		.byte	0x12
 1742 0ade 5301     		.2byte	0x153
 1743 0ae0 E40A0000 		.4byte	0xae4
 1744 0ae4 0D       		.uleb128 0xd
 1745 0ae5 04       		.byte	0x4
 1746 0ae6 EA0A0000 		.4byte	0xaea
 1747 0aea 0F       		.uleb128 0xf
 1748 0aeb FA0A0000 		.4byte	0xafa
 1749 0aef 10       		.uleb128 0x10
 1750 0af0 D20A0000 		.4byte	0xad2
 1751 0af4 10       		.uleb128 0x10
 1752 0af5 AB090000 		.4byte	0x9ab
 1753 0af9 00       		.byte	0
 1754 0afa 1C       		.uleb128 0x1c
 1755 0afb 57040000 		.4byte	.LASF179
 1756 0aff 12       		.byte	0x12
 1757 0b00 5C01     		.2byte	0x15c
 1758 0b02 060B0000 		.4byte	0xb06
 1759 0b06 0D       		.uleb128 0xd
 1760 0b07 04       		.byte	0x4
 1761 0b08 0C0B0000 		.4byte	0xb0c
 1762 0b0c 0F       		.uleb128 0xf
 1763 0b0d 1C0B0000 		.4byte	0xb1c
 1764 0b11 10       		.uleb128 0x10
ARM GAS  /var/folders/t8/16hdwfmd2fg_d3q6dgx6bpmw0000gn/T//ccvAsxMg.s 			page 32


 1765 0b12 D20A0000 		.4byte	0xad2
 1766 0b16 10       		.uleb128 0x10
 1767 0b17 740A0000 		.4byte	0xa74
 1768 0b1b 00       		.byte	0
 1769 0b1c 1C       		.uleb128 0x1c
 1770 0b1d 690A0000 		.4byte	.LASF180
 1771 0b21 12       		.byte	0x12
 1772 0b22 6801     		.2byte	0x168
 1773 0b24 280B0000 		.4byte	0xb28
 1774 0b28 0D       		.uleb128 0xd
 1775 0b29 04       		.byte	0x4
 1776 0b2a 2E0B0000 		.4byte	0xb2e
 1777 0b2e 20       		.uleb128 0x20
 1778 0b2f 3C010000 		.4byte	0x13c
 1779 0b33 3D0B0000 		.4byte	0xb3d
 1780 0b37 10       		.uleb128 0x10
 1781 0b38 D20A0000 		.4byte	0xad2
 1782 0b3c 00       		.byte	0
 1783 0b3d 1C       		.uleb128 0x1c
 1784 0b3e B0090000 		.4byte	.LASF181
 1785 0b42 12       		.byte	0x12
 1786 0b43 6D01     		.2byte	0x16d
 1787 0b45 490B0000 		.4byte	0xb49
 1788 0b49 0D       		.uleb128 0xd
 1789 0b4a 04       		.byte	0x4
 1790 0b4b 4F0B0000 		.4byte	0xb4f
 1791 0b4f 20       		.uleb128 0x20
 1792 0b50 6D0B0000 		.4byte	0xb6d
 1793 0b54 6D0B0000 		.4byte	0xb6d
 1794 0b58 10       		.uleb128 0x10
 1795 0b59 D20A0000 		.4byte	0xad2
 1796 0b5d 10       		.uleb128 0x10
 1797 0b5e A2000000 		.4byte	0xa2
 1798 0b62 10       		.uleb128 0x10
 1799 0b63 A2000000 		.4byte	0xa2
 1800 0b67 10       		.uleb128 0x10
 1801 0b68 B2000000 		.4byte	0xb2
 1802 0b6c 00       		.byte	0
 1803 0b6d 0D       		.uleb128 0xd
 1804 0b6e 04       		.byte	0x4
 1805 0b6f B00A0000 		.4byte	0xab0
 1806 0b73 07       		.uleb128 0x7
 1807 0b74 14       		.byte	0x14
 1808 0b75 13       		.byte	0x13
 1809 0b76 6B       		.byte	0x6b
 1810 0b77 C40B0000 		.4byte	0xbc4
 1811 0b7b 09       		.uleb128 0x9
 1812 0b7c 23060000 		.4byte	.LASF182
 1813 0b80 13       		.byte	0x13
 1814 0b81 6F       		.byte	0x6f
 1815 0b82 59010000 		.4byte	0x159
 1816 0b86 00       		.byte	0
 1817 0b87 09       		.uleb128 0x9
 1818 0b88 1A010000 		.4byte	.LASF183
 1819 0b8c 13       		.byte	0x13
 1820 0b8d 73       		.byte	0x73
 1821 0b8e 59010000 		.4byte	0x159
ARM GAS  /var/folders/t8/16hdwfmd2fg_d3q6dgx6bpmw0000gn/T//ccvAsxMg.s 			page 33


 1822 0b92 04       		.byte	0x4
 1823 0b93 09       		.uleb128 0x9
 1824 0b94 41020000 		.4byte	.LASF184
 1825 0b98 13       		.byte	0x13
 1826 0b99 77       		.byte	0x77
 1827 0b9a 0E080000 		.4byte	0x80e
 1828 0b9e 08       		.byte	0x8
 1829 0b9f 09       		.uleb128 0x9
 1830 0ba0 E6090000 		.4byte	.LASF185
 1831 0ba4 13       		.byte	0x13
 1832 0ba5 7C       		.byte	0x7c
 1833 0ba6 C1020000 		.4byte	0x2c1
 1834 0baa 0C       		.byte	0xc
 1835 0bab 09       		.uleb128 0x9
 1836 0bac 5B060000 		.4byte	.LASF186
 1837 0bb0 13       		.byte	0x13
 1838 0bb1 80       		.byte	0x80
 1839 0bb2 3C010000 		.4byte	0x13c
 1840 0bb6 10       		.byte	0x10
 1841 0bb7 09       		.uleb128 0x9
 1842 0bb8 AF0A0000 		.4byte	.LASF187
 1843 0bbc 13       		.byte	0x13
 1844 0bbd 82       		.byte	0x82
 1845 0bbe 3C010000 		.4byte	0x13c
 1846 0bc2 11       		.byte	0x11
 1847 0bc3 00       		.byte	0
 1848 0bc4 03       		.uleb128 0x3
 1849 0bc5 79040000 		.4byte	.LASF188
 1850 0bc9 13       		.byte	0x13
 1851 0bca 83       		.byte	0x83
 1852 0bcb 730B0000 		.4byte	0xb73
 1853 0bcf 07       		.uleb128 0x7
 1854 0bd0 14       		.byte	0x14
 1855 0bd1 13       		.byte	0x13
 1856 0bd2 88       		.byte	0x88
 1857 0bd3 2C0C0000 		.4byte	0xc2c
 1858 0bd7 09       		.uleb128 0x9
 1859 0bd8 07030000 		.4byte	.LASF189
 1860 0bdc 13       		.byte	0x13
 1861 0bdd 8C       		.byte	0x8c
 1862 0bde 59010000 		.4byte	0x159
 1863 0be2 00       		.byte	0
 1864 0be3 09       		.uleb128 0x9
 1865 0be4 98070000 		.4byte	.LASF190
 1866 0be8 13       		.byte	0x13
 1867 0be9 90       		.byte	0x90
 1868 0bea 59010000 		.4byte	0x159
 1869 0bee 04       		.byte	0x4
 1870 0bef 09       		.uleb128 0x9
 1871 0bf0 64060000 		.4byte	.LASF191
 1872 0bf4 13       		.byte	0x13
 1873 0bf5 94       		.byte	0x94
 1874 0bf6 14080000 		.4byte	0x814
 1875 0bfa 08       		.byte	0x8
 1876 0bfb 09       		.uleb128 0x9
 1877 0bfc E6090000 		.4byte	.LASF185
 1878 0c00 13       		.byte	0x13
ARM GAS  /var/folders/t8/16hdwfmd2fg_d3q6dgx6bpmw0000gn/T//ccvAsxMg.s 			page 34


 1879 0c01 99       		.byte	0x99
 1880 0c02 C1020000 		.4byte	0x2c1
 1881 0c06 0C       		.byte	0xc
 1882 0c07 09       		.uleb128 0x9
 1883 0c08 420B0000 		.4byte	.LASF192
 1884 0c0c 13       		.byte	0x13
 1885 0c0d 9F       		.byte	0x9f
 1886 0c0e B2000000 		.4byte	0xb2
 1887 0c12 10       		.byte	0x10
 1888 0c13 09       		.uleb128 0x9
 1889 0c14 5B060000 		.4byte	.LASF186
 1890 0c18 13       		.byte	0x13
 1891 0c19 A1       		.byte	0xa1
 1892 0c1a 3C010000 		.4byte	0x13c
 1893 0c1e 12       		.byte	0x12
 1894 0c1f 09       		.uleb128 0x9
 1895 0c20 AF0A0000 		.4byte	.LASF187
 1896 0c24 13       		.byte	0x13
 1897 0c25 A3       		.byte	0xa3
 1898 0c26 3C010000 		.4byte	0x13c
 1899 0c2a 13       		.byte	0x13
 1900 0c2b 00       		.byte	0
 1901 0c2c 03       		.uleb128 0x3
 1902 0c2d 37080000 		.4byte	.LASF193
 1903 0c31 13       		.byte	0x13
 1904 0c32 A4       		.byte	0xa4
 1905 0c33 CF0B0000 		.4byte	0xbcf
 1906 0c37 07       		.uleb128 0x7
 1907 0c38 24       		.byte	0x24
 1908 0c39 13       		.byte	0x13
 1909 0c3a AA       		.byte	0xaa
 1910 0c3b B80C0000 		.4byte	0xcb8
 1911 0c3f 09       		.uleb128 0x9
 1912 0c40 AE000000 		.4byte	.LASF194
 1913 0c44 13       		.byte	0x13
 1914 0c45 AE       		.byte	0xae
 1915 0c46 C8000000 		.4byte	0xc8
 1916 0c4a 00       		.byte	0
 1917 0c4b 09       		.uleb128 0x9
 1918 0c4c F8030000 		.4byte	.LASF195
 1919 0c50 13       		.byte	0x13
 1920 0c51 B9       		.byte	0xb9
 1921 0c52 D80A0000 		.4byte	0xad8
 1922 0c56 04       		.byte	0x4
 1923 0c57 09       		.uleb128 0x9
 1924 0c58 1A040000 		.4byte	.LASF196
 1925 0c5c 13       		.byte	0x13
 1926 0c5d BE       		.byte	0xbe
 1927 0c5e D80A0000 		.4byte	0xad8
 1928 0c62 08       		.byte	0x8
 1929 0c63 09       		.uleb128 0x9
 1930 0c64 7E070000 		.4byte	.LASF197
 1931 0c68 13       		.byte	0x13
 1932 0c69 C3       		.byte	0xc3
 1933 0c6a D80A0000 		.4byte	0xad8
 1934 0c6e 0C       		.byte	0xc
 1935 0c6f 09       		.uleb128 0x9
ARM GAS  /var/folders/t8/16hdwfmd2fg_d3q6dgx6bpmw0000gn/T//ccvAsxMg.s 			page 35


 1936 0c70 9E070000 		.4byte	.LASF198
 1937 0c74 13       		.byte	0x13
 1938 0c75 C8       		.byte	0xc8
 1939 0c76 B2000000 		.4byte	0xb2
 1940 0c7a 10       		.byte	0x10
 1941 0c7b 09       		.uleb128 0x9
 1942 0c7c 27090000 		.4byte	.LASF199
 1943 0c80 13       		.byte	0x13
 1944 0c81 CD       		.byte	0xcd
 1945 0c82 B2000000 		.4byte	0xb2
 1946 0c86 12       		.byte	0x12
 1947 0c87 09       		.uleb128 0x9
 1948 0c88 6A060000 		.4byte	.LASF200
 1949 0c8c 13       		.byte	0x13
 1950 0c8d D3       		.byte	0xd3
 1951 0c8e B80C0000 		.4byte	0xcb8
 1952 0c92 14       		.byte	0x14
 1953 0c93 09       		.uleb128 0x9
 1954 0c94 A9070000 		.4byte	.LASF201
 1955 0c98 13       		.byte	0x13
 1956 0c99 D9       		.byte	0xd9
 1957 0c9a BE0C0000 		.4byte	0xcbe
 1958 0c9e 18       		.byte	0x18
 1959 0c9f 09       		.uleb128 0x9
 1960 0ca0 C5070000 		.4byte	.LASF202
 1961 0ca4 13       		.byte	0x13
 1962 0ca5 DF       		.byte	0xdf
 1963 0ca6 B2000000 		.4byte	0xb2
 1964 0caa 1C       		.byte	0x1c
 1965 0cab 09       		.uleb128 0x9
 1966 0cac 60070000 		.4byte	.LASF203
 1967 0cb0 13       		.byte	0x13
 1968 0cb1 E5       		.byte	0xe5
 1969 0cb2 14080000 		.4byte	0x814
 1970 0cb6 20       		.byte	0x20
 1971 0cb7 00       		.byte	0
 1972 0cb8 0D       		.uleb128 0xd
 1973 0cb9 04       		.byte	0x4
 1974 0cba C40B0000 		.4byte	0xbc4
 1975 0cbe 0D       		.uleb128 0xd
 1976 0cbf 04       		.byte	0x4
 1977 0cc0 2C0C0000 		.4byte	0xc2c
 1978 0cc4 03       		.uleb128 0x3
 1979 0cc5 82090000 		.4byte	.LASF204
 1980 0cc9 13       		.byte	0x13
 1981 0cca E6       		.byte	0xe6
 1982 0ccb 370C0000 		.4byte	0xc37
 1983 0ccf 05       		.uleb128 0x5
 1984 0cd0 C40C0000 		.4byte	0xcc4
 1985 0cd4 07       		.uleb128 0x7
 1986 0cd5 10       		.byte	0x10
 1987 0cd6 13       		.byte	0x13
 1988 0cd7 EB       		.byte	0xeb
 1989 0cd8 0D0D0000 		.4byte	0xd0d
 1990 0cdc 09       		.uleb128 0x9
 1991 0cdd 8F060000 		.4byte	.LASF205
 1992 0ce1 13       		.byte	0x13
ARM GAS  /var/folders/t8/16hdwfmd2fg_d3q6dgx6bpmw0000gn/T//ccvAsxMg.s 			page 36


 1993 0ce2 F0       		.byte	0xf0
 1994 0ce3 FA0A0000 		.4byte	0xafa
 1995 0ce7 00       		.byte	0
 1996 0ce8 09       		.uleb128 0x9
 1997 0ce9 6C0B0000 		.4byte	.LASF206
 1998 0ced 13       		.byte	0x13
 1999 0cee F5       		.byte	0xf5
 2000 0cef 3D0B0000 		.4byte	0xb3d
 2001 0cf3 04       		.byte	0x4
 2002 0cf4 09       		.uleb128 0x9
 2003 0cf5 6E030000 		.4byte	.LASF207
 2004 0cf9 13       		.byte	0x13
 2005 0cfa FB       		.byte	0xfb
 2006 0cfb 1C0B0000 		.4byte	0xb1c
 2007 0cff 08       		.byte	0x8
 2008 0d00 09       		.uleb128 0x9
 2009 0d01 1A0B0000 		.4byte	.LASF208
 2010 0d05 13       		.byte	0x13
 2011 0d06 FF       		.byte	0xff
 2012 0d07 B50A0000 		.4byte	0xab5
 2013 0d0b 0C       		.byte	0xc
 2014 0d0c 00       		.byte	0
 2015 0d0d 1C       		.uleb128 0x1c
 2016 0d0e 48070000 		.4byte	.LASF209
 2017 0d12 13       		.byte	0x13
 2018 0d13 0101     		.2byte	0x101
 2019 0d15 D40C0000 		.4byte	0xcd4
 2020 0d19 05       		.uleb128 0x5
 2021 0d1a 0D0D0000 		.4byte	0xd0d
 2022 0d1e 0D       		.uleb128 0xd
 2023 0d1f 04       		.byte	0x4
 2024 0d20 190D0000 		.4byte	0xd19
 2025 0d24 16       		.uleb128 0x16
 2026 0d25 340D0000 		.4byte	0xd34
 2027 0d29 340D0000 		.4byte	0xd34
 2028 0d2d 19       		.uleb128 0x19
 2029 0d2e 9B000000 		.4byte	0x9b
 2030 0d32 0F       		.byte	0xf
 2031 0d33 00       		.byte	0
 2032 0d34 0D       		.uleb128 0xd
 2033 0d35 04       		.byte	0x4
 2034 0d36 CF0C0000 		.4byte	0xccf
 2035 0d3a 16       		.uleb128 0x16
 2036 0d3b A9030000 		.4byte	0x3a9
 2037 0d3f 4A0D0000 		.4byte	0xd4a
 2038 0d43 19       		.uleb128 0x19
 2039 0d44 9B000000 		.4byte	0x9b
 2040 0d48 0E       		.byte	0xe
 2041 0d49 00       		.byte	0
 2042 0d4a 16       		.uleb128 0x16
 2043 0d4b A2000000 		.4byte	0xa2
 2044 0d4f 5A0D0000 		.4byte	0xd5a
 2045 0d53 19       		.uleb128 0x19
 2046 0d54 9B000000 		.4byte	0x9b
 2047 0d58 07       		.byte	0x7
 2048 0d59 00       		.byte	0
 2049 0d5a 18       		.uleb128 0x18
ARM GAS  /var/folders/t8/16hdwfmd2fg_d3q6dgx6bpmw0000gn/T//ccvAsxMg.s 			page 37


 2050 0d5b E80A0000 		.4byte	.LASF210
 2051 0d5f 13       		.byte	0x13
 2052 0d60 9201     		.2byte	0x192
 2053 0d62 B4080000 		.4byte	0x8b4
 2054 0d66 1A       		.uleb128 0x1a
 2055 0d67 D6080000 		.4byte	.LASF211
 2056 0d6b 14       		.byte	0x14
 2057 0d6c 20       		.byte	0x20
 2058 0d6d 3C010000 		.4byte	0x13c
 2059 0d71 1A       		.uleb128 0x1a
 2060 0d72 52070000 		.4byte	.LASF212
 2061 0d76 14       		.byte	0x14
 2062 0d77 23       		.byte	0x23
 2063 0d78 A2000000 		.4byte	0xa2
 2064 0d7c 1A       		.uleb128 0x1a
 2065 0d7d DF060000 		.4byte	.LASF213
 2066 0d81 14       		.byte	0x14
 2067 0d82 24       		.byte	0x24
 2068 0d83 A2000000 		.4byte	0xa2
 2069 0d87 1A       		.uleb128 0x1a
 2070 0d88 33090000 		.4byte	.LASF214
 2071 0d8c 15       		.byte	0x15
 2072 0d8d 27       		.byte	0x27
 2073 0d8e D3000000 		.4byte	0xd3
 2074 0d92 07       		.uleb128 0x7
 2075 0d93 01       		.byte	0x1
 2076 0d94 16       		.byte	0x16
 2077 0d95 21       		.byte	0x21
 2078 0d96 E60D0000 		.4byte	0xde6
 2079 0d9a 21       		.uleb128 0x21
 2080 0d9b C0060000 		.4byte	.LASF215
 2081 0d9f 16       		.byte	0x16
 2082 0da0 22       		.byte	0x22
 2083 0da1 3C010000 		.4byte	0x13c
 2084 0da5 01       		.byte	0x1
 2085 0da6 01       		.byte	0x1
 2086 0da7 07       		.byte	0x7
 2087 0da8 00       		.byte	0
 2088 0da9 21       		.uleb128 0x21
 2089 0daa 1D0A0000 		.4byte	.LASF216
 2090 0dae 16       		.byte	0x16
 2091 0daf 23       		.byte	0x23
 2092 0db0 3C010000 		.4byte	0x13c
 2093 0db4 01       		.byte	0x1
 2094 0db5 01       		.byte	0x1
 2095 0db6 06       		.byte	0x6
 2096 0db7 00       		.byte	0
 2097 0db8 21       		.uleb128 0x21
 2098 0db9 B3070000 		.4byte	.LASF217
 2099 0dbd 16       		.byte	0x16
 2100 0dbe 24       		.byte	0x24
 2101 0dbf 3C010000 		.4byte	0x13c
 2102 0dc3 01       		.byte	0x1
 2103 0dc4 01       		.byte	0x1
 2104 0dc5 05       		.byte	0x5
 2105 0dc6 00       		.byte	0
 2106 0dc7 21       		.uleb128 0x21
ARM GAS  /var/folders/t8/16hdwfmd2fg_d3q6dgx6bpmw0000gn/T//ccvAsxMg.s 			page 38


 2107 0dc8 20010000 		.4byte	.LASF218
 2108 0dcc 16       		.byte	0x16
 2109 0dcd 25       		.byte	0x25
 2110 0dce 3C010000 		.4byte	0x13c
 2111 0dd2 01       		.byte	0x1
 2112 0dd3 01       		.byte	0x1
 2113 0dd4 04       		.byte	0x4
 2114 0dd5 00       		.byte	0
 2115 0dd6 21       		.uleb128 0x21
 2116 0dd7 490B0000 		.4byte	.LASF219
 2117 0ddb 16       		.byte	0x16
 2118 0ddc 26       		.byte	0x26
 2119 0ddd A2000000 		.4byte	0xa2
 2120 0de1 01       		.byte	0x1
 2121 0de2 04       		.byte	0x4
 2122 0de3 00       		.byte	0
 2123 0de4 00       		.byte	0
 2124 0de5 00       		.byte	0
 2125 0de6 12       		.uleb128 0x12
 2126 0de7 01       		.byte	0x1
 2127 0de8 16       		.byte	0x16
 2128 0de9 20       		.byte	0x20
 2129 0dea FF0D0000 		.4byte	0xdff
 2130 0dee 22       		.uleb128 0x22
 2131 0def 920D0000 		.4byte	0xd92
 2132 0df3 23       		.uleb128 0x23
 2133 0df4 72617700 		.ascii	"raw\000"
 2134 0df8 16       		.byte	0x16
 2135 0df9 28       		.byte	0x28
 2136 0dfa A2000000 		.4byte	0xa2
 2137 0dfe 00       		.byte	0
 2138 0dff 03       		.uleb128 0x3
 2139 0e00 5B050000 		.4byte	.LASF220
 2140 0e04 16       		.byte	0x16
 2141 0e05 29       		.byte	0x29
 2142 0e06 E60D0000 		.4byte	0xde6
 2143 0e0a 1A       		.uleb128 0x1a
 2144 0e0b F2040000 		.4byte	.LASF221
 2145 0e0f 16       		.byte	0x16
 2146 0e10 2B       		.byte	0x2b
 2147 0e11 FF0D0000 		.4byte	0xdff
 2148 0e15 24       		.uleb128 0x24
 2149 0e16 07       		.byte	0x7
 2150 0e17 01       		.byte	0x1
 2151 0e18 37000000 		.4byte	0x37
 2152 0e1c 17       		.byte	0x17
 2153 0e1d 16       		.byte	0x16
 2154 0e1e 350E0000 		.4byte	0xe35
 2155 0e22 1E       		.uleb128 0x1e
 2156 0e23 A0060000 		.4byte	.LASF222
 2157 0e27 00       		.byte	0
 2158 0e28 1E       		.uleb128 0x1e
 2159 0e29 87050000 		.4byte	.LASF223
 2160 0e2d 01       		.byte	0x1
 2161 0e2e 1E       		.uleb128 0x1e
 2162 0e2f B2030000 		.4byte	.LASF224
 2163 0e33 02       		.byte	0x2
ARM GAS  /var/folders/t8/16hdwfmd2fg_d3q6dgx6bpmw0000gn/T//ccvAsxMg.s 			page 39


 2164 0e34 00       		.byte	0
 2165 0e35 03       		.uleb128 0x3
 2166 0e36 490C0000 		.4byte	.LASF225
 2167 0e3a 17       		.byte	0x17
 2168 0e3b 16       		.byte	0x16
 2169 0e3c 150E0000 		.4byte	0xe15
 2170 0e40 1A       		.uleb128 0x1a
 2171 0e41 9A090000 		.4byte	.LASF226
 2172 0e45 17       		.byte	0x17
 2173 0e46 17       		.byte	0x17
 2174 0e47 350E0000 		.4byte	0xe35
 2175 0e4b 1A       		.uleb128 0x1a
 2176 0e4c 43030000 		.4byte	.LASF227
 2177 0e50 18       		.byte	0x18
 2178 0e51 3B       		.byte	0x3b
 2179 0e52 A2000000 		.4byte	0xa2
 2180 0e56 1A       		.uleb128 0x1a
 2181 0e57 45040000 		.4byte	.LASF228
 2182 0e5b 18       		.byte	0x18
 2183 0e5c 3C       		.byte	0x3c
 2184 0e5d A2000000 		.4byte	0xa2
 2185 0e61 1A       		.uleb128 0x1a
 2186 0e62 BE050000 		.4byte	.LASF229
 2187 0e66 18       		.byte	0x18
 2188 0e67 3D       		.byte	0x3d
 2189 0e68 A2000000 		.4byte	0xa2
 2190 0e6c 1A       		.uleb128 0x1a
 2191 0e6d 000C0000 		.4byte	.LASF230
 2192 0e71 18       		.byte	0x18
 2193 0e72 3E       		.byte	0x3e
 2194 0e73 A2000000 		.4byte	0xa2
 2195 0e77 1A       		.uleb128 0x1a
 2196 0e78 0F0C0000 		.4byte	.LASF231
 2197 0e7c 18       		.byte	0x18
 2198 0e7d 3F       		.byte	0x3f
 2199 0e7e A2000000 		.4byte	0xa2
 2200 0e82 1A       		.uleb128 0x1a
 2201 0e83 25040000 		.4byte	.LASF232
 2202 0e87 18       		.byte	0x18
 2203 0e88 40       		.byte	0x40
 2204 0e89 A2000000 		.4byte	0xa2
 2205 0e8d 25       		.uleb128 0x25
 2206 0e8e DA0B0000 		.4byte	.LASF233
 2207 0e92 01       		.byte	0x1
 2208 0e93 B9       		.byte	0xb9
 2209 0e94 00000000 		.4byte	.LFB180
 2210 0e98 08000000 		.4byte	.LFE180-.LFB180
 2211 0e9c 01       		.uleb128 0x1
 2212 0e9d 9C       		.byte	0x9c
 2213 0e9e BB0E0000 		.4byte	0xebb
 2214 0ea2 26       		.uleb128 0x26
 2215 0ea3 20040000 		.4byte	.LASF260
 2216 0ea7 01       		.byte	0x1
 2217 0ea8 B9       		.byte	0xb9
 2218 0ea9 A2000000 		.4byte	0xa2
 2219 0ead 00000000 		.4byte	.LLST4
 2220 0eb1 27       		.uleb128 0x27
ARM GAS  /var/folders/t8/16hdwfmd2fg_d3q6dgx6bpmw0000gn/T//ccvAsxMg.s 			page 40


 2221 0eb2 06000000 		.4byte	.LVL34
 2222 0eb6 53100000 		.4byte	0x1053
 2223 0eba 00       		.byte	0
 2224 0ebb 25       		.uleb128 0x25
 2225 0ebc 74090000 		.4byte	.LASF234
 2226 0ec0 01       		.byte	0x1
 2227 0ec1 66       		.byte	0x66
 2228 0ec2 00000000 		.4byte	.LFB179
 2229 0ec6 14010000 		.4byte	.LFE179-.LFB179
 2230 0eca 01       		.uleb128 0x1
 2231 0ecb 9C       		.byte	0x9c
 2232 0ecc F30F0000 		.4byte	0xff3
 2233 0ed0 28       		.uleb128 0x28
 2234 0ed1 6A070000 		.4byte	.LASF235
 2235 0ed5 01       		.byte	0x1
 2236 0ed6 68       		.byte	0x68
 2237 0ed7 F30F0000 		.4byte	0xff3
 2238 0edb 05       		.uleb128 0x5
 2239 0edc 03       		.byte	0x3
 2240 0edd 00000000 		.4byte	matrix_prev.7205
 2241 0ee1 28       		.uleb128 0x28
 2242 0ee2 5E0A0000 		.4byte	.LASF236
 2243 0ee6 01       		.byte	0x1
 2244 0ee7 6C       		.byte	0x6c
 2245 0ee8 A2000000 		.4byte	0xa2
 2246 0eec 05       		.uleb128 0x5
 2247 0eed 03       		.byte	0x3
 2248 0eee 00000000 		.4byte	led_status.7206
 2249 0ef2 29       		.uleb128 0x29
 2250 0ef3 09070000 		.4byte	.LASF237
 2251 0ef7 01       		.byte	0x1
 2252 0ef8 6D       		.byte	0x6d
 2253 0ef9 4E010000 		.4byte	0x14e
 2254 0efd 21000000 		.4byte	.LLST0
 2255 0f01 29       		.uleb128 0x29
 2256 0f02 02090000 		.4byte	.LASF238
 2257 0f06 01       		.byte	0x1
 2258 0f07 6E       		.byte	0x6e
 2259 0f08 4E010000 		.4byte	0x14e
 2260 0f0c 4B000000 		.4byte	.LLST1
 2261 0f10 2A       		.uleb128 0x2a
 2262 0f11 C3090000 		.4byte	.LASF261
 2263 0f15 01       		.byte	0x1
 2264 0f16 9C       		.byte	0x9c
 2265 0f17 7E000000 		.4byte	.L8
 2266 0f1b 2B       		.uleb128 0x2b
 2267 0f1c 00000000 		.4byte	.Ldebug_ranges0+0
 2268 0f20 970F0000 		.4byte	0xf97
 2269 0f24 2C       		.uleb128 0x2c
 2270 0f25 7200     		.ascii	"r\000"
 2271 0f27 01       		.byte	0x1
 2272 0f28 71       		.byte	0x71
 2273 0f29 A2000000 		.4byte	0xa2
 2274 0f2d 7F000000 		.4byte	.LLST2
 2275 0f31 2B       		.uleb128 0x2b
 2276 0f32 18000000 		.4byte	.Ldebug_ranges0+0x18
 2277 0f36 790F0000 		.4byte	0xf79
ARM GAS  /var/folders/t8/16hdwfmd2fg_d3q6dgx6bpmw0000gn/T//ccvAsxMg.s 			page 41


 2278 0f3a 2C       		.uleb128 0x2c
 2279 0f3b 6300     		.ascii	"c\000"
 2280 0f3d 01       		.byte	0x1
 2281 0f3e 84       		.byte	0x84
 2282 0f3f A2000000 		.4byte	0xa2
 2283 0f43 CE000000 		.4byte	.LLST3
 2284 0f47 2D       		.uleb128 0x2d
 2285 0f48 B6000000 		.4byte	.LBB4
 2286 0f4c 3C000000 		.4byte	.LBE4-.LBB4
 2287 0f50 2E       		.uleb128 0x2e
 2288 0f51 6500     		.ascii	"e\000"
 2289 0f53 01       		.byte	0x1
 2290 0f54 86       		.byte	0x86
 2291 0f55 43010000 		.4byte	0x143
 2292 0f59 02       		.uleb128 0x2
 2293 0f5a 91       		.byte	0x91
 2294 0f5b 50       		.sleb128 -48
 2295 0f5c 27       		.uleb128 0x27
 2296 0f5d CC000000 		.4byte	.LVL26
 2297 0f61 5E100000 		.4byte	0x105e
 2298 0f65 27       		.uleb128 0x27
 2299 0f66 DC000000 		.4byte	.LVL27
 2300 0f6a 69100000 		.4byte	0x1069
 2301 0f6e 27       		.uleb128 0x27
 2302 0f6f E4000000 		.4byte	.LVL28
 2303 0f73 74100000 		.4byte	0x1074
 2304 0f77 00       		.byte	0
 2305 0f78 00       		.byte	0
 2306 0f79 2F       		.uleb128 0x2f
 2307 0f7a 28000000 		.4byte	.LVL8
 2308 0f7e 7F100000 		.4byte	0x107f
 2309 0f82 8D0F0000 		.4byte	0xf8d
 2310 0f86 30       		.uleb128 0x30
 2311 0f87 01       		.uleb128 0x1
 2312 0f88 50       		.byte	0x50
 2313 0f89 02       		.uleb128 0x2
 2314 0f8a 79       		.byte	0x79
 2315 0f8b 00       		.sleb128 0
 2316 0f8c 00       		.byte	0
 2317 0f8d 27       		.uleb128 0x27
 2318 0f8e F6000000 		.4byte	.LVL30
 2319 0f92 8A100000 		.4byte	0x108a
 2320 0f96 00       		.byte	0
 2321 0f97 27       		.uleb128 0x27
 2322 0f98 12000000 		.4byte	.LVL5
 2323 0f9c 95100000 		.4byte	0x1095
 2324 0fa0 27       		.uleb128 0x27
 2325 0fa1 6E000000 		.4byte	.LVL17
 2326 0fa5 5E100000 		.4byte	0x105e
 2327 0fa9 27       		.uleb128 0x27
 2328 0faa 7E000000 		.4byte	.LVL18
 2329 0fae 69100000 		.4byte	0x1069
 2330 0fb2 27       		.uleb128 0x27
 2331 0fb3 82000000 		.4byte	.LVL19
 2332 0fb7 A0100000 		.4byte	0x10a0
 2333 0fbb 27       		.uleb128 0x27
 2334 0fbc 86000000 		.4byte	.LVL20
ARM GAS  /var/folders/t8/16hdwfmd2fg_d3q6dgx6bpmw0000gn/T//ccvAsxMg.s 			page 42


 2335 0fc0 AB100000 		.4byte	0x10ab
 2336 0fc4 27       		.uleb128 0x27
 2337 0fc5 8A000000 		.4byte	.LVL21
 2338 0fc9 B6100000 		.4byte	0x10b6
 2339 0fcd 27       		.uleb128 0x27
 2340 0fce 96000000 		.4byte	.LVL22
 2341 0fd2 B6100000 		.4byte	0x10b6
 2342 0fd6 27       		.uleb128 0x27
 2343 0fd7 A8000000 		.4byte	.LVL23
 2344 0fdb C1100000 		.4byte	0x10c1
 2345 0fdf 31       		.uleb128 0x31
 2346 0fe0 00010000 		.4byte	.LVL32
 2347 0fe4 CC100000 		.4byte	0x10cc
 2348 0fe8 30       		.uleb128 0x30
 2349 0fe9 01       		.uleb128 0x1
 2350 0fea 50       		.byte	0x50
 2351 0feb 05       		.uleb128 0x5
 2352 0fec 03       		.byte	0x3
 2353 0fed 00000000 		.4byte	.LC5
 2354 0ff1 00       		.byte	0
 2355 0ff2 00       		.byte	0
 2356 0ff3 16       		.uleb128 0x16
 2357 0ff4 4E010000 		.4byte	0x14e
 2358 0ff8 03100000 		.4byte	0x1003
 2359 0ffc 19       		.uleb128 0x19
 2360 0ffd 9B000000 		.4byte	0x9b
 2361 1001 03       		.byte	0x3
 2362 1002 00       		.byte	0
 2363 1003 25       		.uleb128 0x25
 2364 1004 23070000 		.4byte	.LASF239
 2365 1008 01       		.byte	0x1
 2366 1009 4A       		.byte	0x4a
 2367 100a 00000000 		.4byte	.LFB178
 2368 100e 10000000 		.4byte	.LFE178-.LFB178
 2369 1012 01       		.uleb128 0x1
 2370 1013 9C       		.byte	0x9c
 2371 1014 34100000 		.4byte	0x1034
 2372 1018 27       		.uleb128 0x27
 2373 1019 06000000 		.4byte	.LVL1
 2374 101d D7100000 		.4byte	0x10d7
 2375 1021 27       		.uleb128 0x27
 2376 1022 0A000000 		.4byte	.LVL2
 2377 1026 E2100000 		.4byte	0x10e2
 2378 102a 27       		.uleb128 0x27
 2379 102b 0E000000 		.4byte	.LVL3
 2380 102f ED100000 		.4byte	0x10ed
 2381 1033 00       		.byte	0
 2382 1034 25       		.uleb128 0x25
 2383 1035 14070000 		.4byte	.LASF240
 2384 1039 01       		.byte	0x1
 2385 103a 45       		.byte	0x45
 2386 103b 00000000 		.4byte	.LFB177
 2387 103f 08000000 		.4byte	.LFE177-.LFB177
 2388 1043 01       		.uleb128 0x1
 2389 1044 9C       		.byte	0x9c
 2390 1045 53100000 		.4byte	0x1053
 2391 1049 27       		.uleb128 0x27
ARM GAS  /var/folders/t8/16hdwfmd2fg_d3q6dgx6bpmw0000gn/T//ccvAsxMg.s 			page 43


 2392 104a 06000000 		.4byte	.LVL0
 2393 104e F8100000 		.4byte	0x10f8
 2394 1052 00       		.byte	0
 2395 1053 32       		.uleb128 0x32
 2396 1054 2F080000 		.4byte	.LASF241
 2397 1058 2F080000 		.4byte	.LASF241
 2398 105c 19       		.byte	0x19
 2399 105d 23       		.byte	0x23
 2400 105e 32       		.uleb128 0x32
 2401 105f A40A0000 		.4byte	.LASF242
 2402 1063 A40A0000 		.4byte	.LASF242
 2403 1067 15       		.byte	0x15
 2404 1068 2C       		.byte	0x2c
 2405 1069 32       		.uleb128 0x32
 2406 106a 97030000 		.4byte	.LASF243
 2407 106e 97030000 		.4byte	.LASF243
 2408 1072 1A       		.byte	0x1a
 2409 1073 32       		.byte	0x32
 2410 1074 32       		.uleb128 0x32
 2411 1075 D50A0000 		.4byte	.LASF244
 2412 1079 D50A0000 		.4byte	.LASF244
 2413 107d 1B       		.byte	0x1b
 2414 107e 3D       		.byte	0x3d
 2415 107f 32       		.uleb128 0x32
 2416 1080 4F0A0000 		.4byte	.LASF245
 2417 1084 4F0A0000 		.4byte	.LASF245
 2418 1088 05       		.byte	0x5
 2419 1089 3D       		.byte	0x3d
 2420 108a 32       		.uleb128 0x32
 2421 108b 420A0000 		.4byte	.LASF246
 2422 108f 420A0000 		.4byte	.LASF246
 2423 1093 05       		.byte	0x5
 2424 1094 3F       		.byte	0x3f
 2425 1095 32       		.uleb128 0x32
 2426 1096 C40B0000 		.4byte	.LASF247
 2427 109a C40B0000 		.4byte	.LASF247
 2428 109e 05       		.byte	0x5
 2429 109f 37       		.byte	0x37
 2430 10a0 32       		.uleb128 0x32
 2431 10a1 14030000 		.4byte	.LASF248
 2432 10a5 14030000 		.4byte	.LASF248
 2433 10a9 1B       		.byte	0x1b
 2434 10aa 39       		.byte	0x39
 2435 10ab 32       		.uleb128 0x32
 2436 10ac 8C040000 		.4byte	.LASF249
 2437 10b0 8C040000 		.4byte	.LASF249
 2438 10b4 18       		.byte	0x18
 2439 10b5 43       		.byte	0x43
 2440 10b6 32       		.uleb128 0x32
 2441 10b7 910A0000 		.4byte	.LASF250
 2442 10bb 910A0000 		.4byte	.LASF250
 2443 10bf 14       		.byte	0x14
 2444 10c0 2C       		.byte	0x2c
 2445 10c1 32       		.uleb128 0x32
 2446 10c2 90080000 		.4byte	.LASF251
 2447 10c6 90080000 		.4byte	.LASF251
 2448 10ca 1B       		.byte	0x1b
ARM GAS  /var/folders/t8/16hdwfmd2fg_d3q6dgx6bpmw0000gn/T//ccvAsxMg.s 			page 44


 2449 10cb 49       		.byte	0x49
 2450 10cc 32       		.uleb128 0x32
 2451 10cd CF060000 		.4byte	.LASF252
 2452 10d1 CF060000 		.4byte	.LASF252
 2453 10d5 1C       		.byte	0x1c
 2454 10d6 67       		.byte	0x67
 2455 10d7 32       		.uleb128 0x32
 2456 10d8 31050000 		.4byte	.LASF253
 2457 10dc 31050000 		.4byte	.LASF253
 2458 10e0 15       		.byte	0x15
 2459 10e1 2A       		.byte	0x2a
 2460 10e2 32       		.uleb128 0x32
 2461 10e3 0C050000 		.4byte	.LASF254
 2462 10e7 0C050000 		.4byte	.LASF254
 2463 10eb 05       		.byte	0x5
 2464 10ec 35       		.byte	0x35
 2465 10ed 32       		.uleb128 0x32
 2466 10ee 47050000 		.4byte	.LASF255
 2467 10f2 47050000 		.4byte	.LASF255
 2468 10f6 1D       		.byte	0x1d
 2469 10f7 61       		.byte	0x61
 2470 10f8 32       		.uleb128 0x32
 2471 10f9 85030000 		.4byte	.LASF256
 2472 10fd 85030000 		.4byte	.LASF256
 2473 1101 05       		.byte	0x5
 2474 1102 33       		.byte	0x33
 2475 1103 00       		.byte	0
 2476              		.section	.debug_abbrev,"",%progbits
 2477              	.Ldebug_abbrev0:
 2478 0000 01       		.uleb128 0x1
 2479 0001 11       		.uleb128 0x11
 2480 0002 01       		.byte	0x1
 2481 0003 25       		.uleb128 0x25
 2482 0004 0E       		.uleb128 0xe
 2483 0005 13       		.uleb128 0x13
 2484 0006 0B       		.uleb128 0xb
 2485 0007 03       		.uleb128 0x3
 2486 0008 0E       		.uleb128 0xe
 2487 0009 1B       		.uleb128 0x1b
 2488 000a 0E       		.uleb128 0xe
 2489 000b 55       		.uleb128 0x55
 2490 000c 17       		.uleb128 0x17
 2491 000d 11       		.uleb128 0x11
 2492 000e 01       		.uleb128 0x1
 2493 000f 10       		.uleb128 0x10
 2494 0010 17       		.uleb128 0x17
 2495 0011 00       		.byte	0
 2496 0012 00       		.byte	0
 2497 0013 02       		.uleb128 0x2
 2498 0014 24       		.uleb128 0x24
 2499 0015 00       		.byte	0
 2500 0016 0B       		.uleb128 0xb
 2501 0017 0B       		.uleb128 0xb
 2502 0018 3E       		.uleb128 0x3e
 2503 0019 0B       		.uleb128 0xb
 2504 001a 03       		.uleb128 0x3
 2505 001b 0E       		.uleb128 0xe
ARM GAS  /var/folders/t8/16hdwfmd2fg_d3q6dgx6bpmw0000gn/T//ccvAsxMg.s 			page 45


 2506 001c 00       		.byte	0
 2507 001d 00       		.byte	0
 2508 001e 03       		.uleb128 0x3
 2509 001f 16       		.uleb128 0x16
 2510 0020 00       		.byte	0
 2511 0021 03       		.uleb128 0x3
 2512 0022 0E       		.uleb128 0xe
 2513 0023 3A       		.uleb128 0x3a
 2514 0024 0B       		.uleb128 0xb
 2515 0025 3B       		.uleb128 0x3b
 2516 0026 0B       		.uleb128 0xb
 2517 0027 49       		.uleb128 0x49
 2518 0028 13       		.uleb128 0x13
 2519 0029 00       		.byte	0
 2520 002a 00       		.byte	0
 2521 002b 04       		.uleb128 0x4
 2522 002c 24       		.uleb128 0x24
 2523 002d 00       		.byte	0
 2524 002e 0B       		.uleb128 0xb
 2525 002f 0B       		.uleb128 0xb
 2526 0030 3E       		.uleb128 0x3e
 2527 0031 0B       		.uleb128 0xb
 2528 0032 03       		.uleb128 0x3
 2529 0033 08       		.uleb128 0x8
 2530 0034 00       		.byte	0
 2531 0035 00       		.byte	0
 2532 0036 05       		.uleb128 0x5
 2533 0037 26       		.uleb128 0x26
 2534 0038 00       		.byte	0
 2535 0039 49       		.uleb128 0x49
 2536 003a 13       		.uleb128 0x13
 2537 003b 00       		.byte	0
 2538 003c 00       		.byte	0
 2539 003d 06       		.uleb128 0x6
 2540 003e 35       		.uleb128 0x35
 2541 003f 00       		.byte	0
 2542 0040 49       		.uleb128 0x49
 2543 0041 13       		.uleb128 0x13
 2544 0042 00       		.byte	0
 2545 0043 00       		.byte	0
 2546 0044 07       		.uleb128 0x7
 2547 0045 13       		.uleb128 0x13
 2548 0046 01       		.byte	0x1
 2549 0047 0B       		.uleb128 0xb
 2550 0048 0B       		.uleb128 0xb
 2551 0049 3A       		.uleb128 0x3a
 2552 004a 0B       		.uleb128 0xb
 2553 004b 3B       		.uleb128 0x3b
 2554 004c 0B       		.uleb128 0xb
 2555 004d 01       		.uleb128 0x1
 2556 004e 13       		.uleb128 0x13
 2557 004f 00       		.byte	0
 2558 0050 00       		.byte	0
 2559 0051 08       		.uleb128 0x8
 2560 0052 0D       		.uleb128 0xd
 2561 0053 00       		.byte	0
 2562 0054 03       		.uleb128 0x3
ARM GAS  /var/folders/t8/16hdwfmd2fg_d3q6dgx6bpmw0000gn/T//ccvAsxMg.s 			page 46


 2563 0055 08       		.uleb128 0x8
 2564 0056 3A       		.uleb128 0x3a
 2565 0057 0B       		.uleb128 0xb
 2566 0058 3B       		.uleb128 0x3b
 2567 0059 0B       		.uleb128 0xb
 2568 005a 49       		.uleb128 0x49
 2569 005b 13       		.uleb128 0x13
 2570 005c 38       		.uleb128 0x38
 2571 005d 0B       		.uleb128 0xb
 2572 005e 00       		.byte	0
 2573 005f 00       		.byte	0
 2574 0060 09       		.uleb128 0x9
 2575 0061 0D       		.uleb128 0xd
 2576 0062 00       		.byte	0
 2577 0063 03       		.uleb128 0x3
 2578 0064 0E       		.uleb128 0xe
 2579 0065 3A       		.uleb128 0x3a
 2580 0066 0B       		.uleb128 0xb
 2581 0067 3B       		.uleb128 0x3b
 2582 0068 0B       		.uleb128 0xb
 2583 0069 49       		.uleb128 0x49
 2584 006a 13       		.uleb128 0x13
 2585 006b 38       		.uleb128 0x38
 2586 006c 0B       		.uleb128 0xb
 2587 006d 00       		.byte	0
 2588 006e 00       		.byte	0
 2589 006f 0A       		.uleb128 0xa
 2590 0070 13       		.uleb128 0x13
 2591 0071 01       		.byte	0x1
 2592 0072 03       		.uleb128 0x3
 2593 0073 0E       		.uleb128 0xe
 2594 0074 0B       		.uleb128 0xb
 2595 0075 0B       		.uleb128 0xb
 2596 0076 3A       		.uleb128 0x3a
 2597 0077 0B       		.uleb128 0xb
 2598 0078 3B       		.uleb128 0x3b
 2599 0079 0B       		.uleb128 0xb
 2600 007a 01       		.uleb128 0x1
 2601 007b 13       		.uleb128 0x13
 2602 007c 00       		.byte	0
 2603 007d 00       		.byte	0
 2604 007e 0B       		.uleb128 0xb
 2605 007f 0D       		.uleb128 0xd
 2606 0080 00       		.byte	0
 2607 0081 03       		.uleb128 0x3
 2608 0082 08       		.uleb128 0x8
 2609 0083 3A       		.uleb128 0x3a
 2610 0084 0B       		.uleb128 0xb
 2611 0085 3B       		.uleb128 0x3b
 2612 0086 05       		.uleb128 0x5
 2613 0087 49       		.uleb128 0x49
 2614 0088 13       		.uleb128 0x13
 2615 0089 38       		.uleb128 0x38
 2616 008a 0B       		.uleb128 0xb
 2617 008b 00       		.byte	0
 2618 008c 00       		.byte	0
 2619 008d 0C       		.uleb128 0xc
ARM GAS  /var/folders/t8/16hdwfmd2fg_d3q6dgx6bpmw0000gn/T//ccvAsxMg.s 			page 47


 2620 008e 0D       		.uleb128 0xd
 2621 008f 00       		.byte	0
 2622 0090 03       		.uleb128 0x3
 2623 0091 0E       		.uleb128 0xe
 2624 0092 3A       		.uleb128 0x3a
 2625 0093 0B       		.uleb128 0xb
 2626 0094 3B       		.uleb128 0x3b
 2627 0095 05       		.uleb128 0x5
 2628 0096 49       		.uleb128 0x49
 2629 0097 13       		.uleb128 0x13
 2630 0098 38       		.uleb128 0x38
 2631 0099 0B       		.uleb128 0xb
 2632 009a 00       		.byte	0
 2633 009b 00       		.byte	0
 2634 009c 0D       		.uleb128 0xd
 2635 009d 0F       		.uleb128 0xf
 2636 009e 00       		.byte	0
 2637 009f 0B       		.uleb128 0xb
 2638 00a0 0B       		.uleb128 0xb
 2639 00a1 49       		.uleb128 0x49
 2640 00a2 13       		.uleb128 0x13
 2641 00a3 00       		.byte	0
 2642 00a4 00       		.byte	0
 2643 00a5 0E       		.uleb128 0xe
 2644 00a6 13       		.uleb128 0x13
 2645 00a7 01       		.byte	0x1
 2646 00a8 03       		.uleb128 0x3
 2647 00a9 0E       		.uleb128 0xe
 2648 00aa 0B       		.uleb128 0xb
 2649 00ab 0B       		.uleb128 0xb
 2650 00ac 3A       		.uleb128 0x3a
 2651 00ad 0B       		.uleb128 0xb
 2652 00ae 3B       		.uleb128 0x3b
 2653 00af 05       		.uleb128 0x5
 2654 00b0 01       		.uleb128 0x1
 2655 00b1 13       		.uleb128 0x13
 2656 00b2 00       		.byte	0
 2657 00b3 00       		.byte	0
 2658 00b4 0F       		.uleb128 0xf
 2659 00b5 15       		.uleb128 0x15
 2660 00b6 01       		.byte	0x1
 2661 00b7 27       		.uleb128 0x27
 2662 00b8 19       		.uleb128 0x19
 2663 00b9 01       		.uleb128 0x1
 2664 00ba 13       		.uleb128 0x13
 2665 00bb 00       		.byte	0
 2666 00bc 00       		.byte	0
 2667 00bd 10       		.uleb128 0x10
 2668 00be 05       		.uleb128 0x5
 2669 00bf 00       		.byte	0
 2670 00c0 49       		.uleb128 0x49
 2671 00c1 13       		.uleb128 0x13
 2672 00c2 00       		.byte	0
 2673 00c3 00       		.byte	0
 2674 00c4 11       		.uleb128 0x11
 2675 00c5 0F       		.uleb128 0xf
 2676 00c6 00       		.byte	0
ARM GAS  /var/folders/t8/16hdwfmd2fg_d3q6dgx6bpmw0000gn/T//ccvAsxMg.s 			page 48


 2677 00c7 0B       		.uleb128 0xb
 2678 00c8 0B       		.uleb128 0xb
 2679 00c9 00       		.byte	0
 2680 00ca 00       		.byte	0
 2681 00cb 12       		.uleb128 0x12
 2682 00cc 17       		.uleb128 0x17
 2683 00cd 01       		.byte	0x1
 2684 00ce 0B       		.uleb128 0xb
 2685 00cf 0B       		.uleb128 0xb
 2686 00d0 3A       		.uleb128 0x3a
 2687 00d1 0B       		.uleb128 0xb
 2688 00d2 3B       		.uleb128 0x3b
 2689 00d3 0B       		.uleb128 0xb
 2690 00d4 01       		.uleb128 0x1
 2691 00d5 13       		.uleb128 0x13
 2692 00d6 00       		.byte	0
 2693 00d7 00       		.byte	0
 2694 00d8 13       		.uleb128 0x13
 2695 00d9 0D       		.uleb128 0xd
 2696 00da 00       		.byte	0
 2697 00db 03       		.uleb128 0x3
 2698 00dc 0E       		.uleb128 0xe
 2699 00dd 3A       		.uleb128 0x3a
 2700 00de 0B       		.uleb128 0xb
 2701 00df 3B       		.uleb128 0x3b
 2702 00e0 0B       		.uleb128 0xb
 2703 00e1 49       		.uleb128 0x49
 2704 00e2 13       		.uleb128 0x13
 2705 00e3 00       		.byte	0
 2706 00e4 00       		.byte	0
 2707 00e5 14       		.uleb128 0x14
 2708 00e6 0D       		.uleb128 0xd
 2709 00e7 00       		.byte	0
 2710 00e8 03       		.uleb128 0x3
 2711 00e9 0E       		.uleb128 0xe
 2712 00ea 3A       		.uleb128 0x3a
 2713 00eb 0B       		.uleb128 0xb
 2714 00ec 3B       		.uleb128 0x3b
 2715 00ed 05       		.uleb128 0x5
 2716 00ee 49       		.uleb128 0x49
 2717 00ef 13       		.uleb128 0x13
 2718 00f0 00       		.byte	0
 2719 00f1 00       		.byte	0
 2720 00f2 15       		.uleb128 0x15
 2721 00f3 34       		.uleb128 0x34
 2722 00f4 00       		.byte	0
 2723 00f5 03       		.uleb128 0x3
 2724 00f6 08       		.uleb128 0x8
 2725 00f7 3A       		.uleb128 0x3a
 2726 00f8 0B       		.uleb128 0xb
 2727 00f9 3B       		.uleb128 0x3b
 2728 00fa 05       		.uleb128 0x5
 2729 00fb 49       		.uleb128 0x49
 2730 00fc 13       		.uleb128 0x13
 2731 00fd 3F       		.uleb128 0x3f
 2732 00fe 19       		.uleb128 0x19
 2733 00ff 3C       		.uleb128 0x3c
ARM GAS  /var/folders/t8/16hdwfmd2fg_d3q6dgx6bpmw0000gn/T//ccvAsxMg.s 			page 49


 2734 0100 19       		.uleb128 0x19
 2735 0101 00       		.byte	0
 2736 0102 00       		.byte	0
 2737 0103 16       		.uleb128 0x16
 2738 0104 01       		.uleb128 0x1
 2739 0105 01       		.byte	0x1
 2740 0106 49       		.uleb128 0x49
 2741 0107 13       		.uleb128 0x13
 2742 0108 01       		.uleb128 0x1
 2743 0109 13       		.uleb128 0x13
 2744 010a 00       		.byte	0
 2745 010b 00       		.byte	0
 2746 010c 17       		.uleb128 0x17
 2747 010d 21       		.uleb128 0x21
 2748 010e 00       		.byte	0
 2749 010f 00       		.byte	0
 2750 0110 00       		.byte	0
 2751 0111 18       		.uleb128 0x18
 2752 0112 34       		.uleb128 0x34
 2753 0113 00       		.byte	0
 2754 0114 03       		.uleb128 0x3
 2755 0115 0E       		.uleb128 0xe
 2756 0116 3A       		.uleb128 0x3a
 2757 0117 0B       		.uleb128 0xb
 2758 0118 3B       		.uleb128 0x3b
 2759 0119 05       		.uleb128 0x5
 2760 011a 49       		.uleb128 0x49
 2761 011b 13       		.uleb128 0x13
 2762 011c 3F       		.uleb128 0x3f
 2763 011d 19       		.uleb128 0x19
 2764 011e 3C       		.uleb128 0x3c
 2765 011f 19       		.uleb128 0x19
 2766 0120 00       		.byte	0
 2767 0121 00       		.byte	0
 2768 0122 19       		.uleb128 0x19
 2769 0123 21       		.uleb128 0x21
 2770 0124 00       		.byte	0
 2771 0125 49       		.uleb128 0x49
 2772 0126 13       		.uleb128 0x13
 2773 0127 2F       		.uleb128 0x2f
 2774 0128 0B       		.uleb128 0xb
 2775 0129 00       		.byte	0
 2776 012a 00       		.byte	0
 2777 012b 1A       		.uleb128 0x1a
 2778 012c 34       		.uleb128 0x34
 2779 012d 00       		.byte	0
 2780 012e 03       		.uleb128 0x3
 2781 012f 0E       		.uleb128 0xe
 2782 0130 3A       		.uleb128 0x3a
 2783 0131 0B       		.uleb128 0xb
 2784 0132 3B       		.uleb128 0x3b
 2785 0133 0B       		.uleb128 0xb
 2786 0134 49       		.uleb128 0x49
 2787 0135 13       		.uleb128 0x13
 2788 0136 3F       		.uleb128 0x3f
 2789 0137 19       		.uleb128 0x19
 2790 0138 3C       		.uleb128 0x3c
ARM GAS  /var/folders/t8/16hdwfmd2fg_d3q6dgx6bpmw0000gn/T//ccvAsxMg.s 			page 50


 2791 0139 19       		.uleb128 0x19
 2792 013a 00       		.byte	0
 2793 013b 00       		.byte	0
 2794 013c 1B       		.uleb128 0x1b
 2795 013d 13       		.uleb128 0x13
 2796 013e 01       		.byte	0x1
 2797 013f 0B       		.uleb128 0xb
 2798 0140 05       		.uleb128 0x5
 2799 0141 3A       		.uleb128 0x3a
 2800 0142 0B       		.uleb128 0xb
 2801 0143 3B       		.uleb128 0x3b
 2802 0144 0B       		.uleb128 0xb
 2803 0145 01       		.uleb128 0x1
 2804 0146 13       		.uleb128 0x13
 2805 0147 00       		.byte	0
 2806 0148 00       		.byte	0
 2807 0149 1C       		.uleb128 0x1c
 2808 014a 16       		.uleb128 0x16
 2809 014b 00       		.byte	0
 2810 014c 03       		.uleb128 0x3
 2811 014d 0E       		.uleb128 0xe
 2812 014e 3A       		.uleb128 0x3a
 2813 014f 0B       		.uleb128 0xb
 2814 0150 3B       		.uleb128 0x3b
 2815 0151 05       		.uleb128 0x5
 2816 0152 49       		.uleb128 0x49
 2817 0153 13       		.uleb128 0x13
 2818 0154 00       		.byte	0
 2819 0155 00       		.byte	0
 2820 0156 1D       		.uleb128 0x1d
 2821 0157 04       		.uleb128 0x4
 2822 0158 01       		.byte	0x1
 2823 0159 3E       		.uleb128 0x3e
 2824 015a 0B       		.uleb128 0xb
 2825 015b 0B       		.uleb128 0xb
 2826 015c 0B       		.uleb128 0xb
 2827 015d 49       		.uleb128 0x49
 2828 015e 13       		.uleb128 0x13
 2829 015f 3A       		.uleb128 0x3a
 2830 0160 0B       		.uleb128 0xb
 2831 0161 3B       		.uleb128 0x3b
 2832 0162 05       		.uleb128 0x5
 2833 0163 01       		.uleb128 0x1
 2834 0164 13       		.uleb128 0x13
 2835 0165 00       		.byte	0
 2836 0166 00       		.byte	0
 2837 0167 1E       		.uleb128 0x1e
 2838 0168 28       		.uleb128 0x28
 2839 0169 00       		.byte	0
 2840 016a 03       		.uleb128 0x3
 2841 016b 0E       		.uleb128 0xe
 2842 016c 1C       		.uleb128 0x1c
 2843 016d 0B       		.uleb128 0xb
 2844 016e 00       		.byte	0
 2845 016f 00       		.byte	0
 2846 0170 1F       		.uleb128 0x1f
 2847 0171 13       		.uleb128 0x13
ARM GAS  /var/folders/t8/16hdwfmd2fg_d3q6dgx6bpmw0000gn/T//ccvAsxMg.s 			page 51


 2848 0172 01       		.byte	0x1
 2849 0173 0B       		.uleb128 0xb
 2850 0174 0B       		.uleb128 0xb
 2851 0175 3A       		.uleb128 0x3a
 2852 0176 0B       		.uleb128 0xb
 2853 0177 3B       		.uleb128 0x3b
 2854 0178 05       		.uleb128 0x5
 2855 0179 01       		.uleb128 0x1
 2856 017a 13       		.uleb128 0x13
 2857 017b 00       		.byte	0
 2858 017c 00       		.byte	0
 2859 017d 20       		.uleb128 0x20
 2860 017e 15       		.uleb128 0x15
 2861 017f 01       		.byte	0x1
 2862 0180 27       		.uleb128 0x27
 2863 0181 19       		.uleb128 0x19
 2864 0182 49       		.uleb128 0x49
 2865 0183 13       		.uleb128 0x13
 2866 0184 01       		.uleb128 0x1
 2867 0185 13       		.uleb128 0x13
 2868 0186 00       		.byte	0
 2869 0187 00       		.byte	0
 2870 0188 21       		.uleb128 0x21
 2871 0189 0D       		.uleb128 0xd
 2872 018a 00       		.byte	0
 2873 018b 03       		.uleb128 0x3
 2874 018c 0E       		.uleb128 0xe
 2875 018d 3A       		.uleb128 0x3a
 2876 018e 0B       		.uleb128 0xb
 2877 018f 3B       		.uleb128 0x3b
 2878 0190 0B       		.uleb128 0xb
 2879 0191 49       		.uleb128 0x49
 2880 0192 13       		.uleb128 0x13
 2881 0193 0B       		.uleb128 0xb
 2882 0194 0B       		.uleb128 0xb
 2883 0195 0D       		.uleb128 0xd
 2884 0196 0B       		.uleb128 0xb
 2885 0197 0C       		.uleb128 0xc
 2886 0198 0B       		.uleb128 0xb
 2887 0199 38       		.uleb128 0x38
 2888 019a 0B       		.uleb128 0xb
 2889 019b 00       		.byte	0
 2890 019c 00       		.byte	0
 2891 019d 22       		.uleb128 0x22
 2892 019e 0D       		.uleb128 0xd
 2893 019f 00       		.byte	0
 2894 01a0 49       		.uleb128 0x49
 2895 01a1 13       		.uleb128 0x13
 2896 01a2 00       		.byte	0
 2897 01a3 00       		.byte	0
 2898 01a4 23       		.uleb128 0x23
 2899 01a5 0D       		.uleb128 0xd
 2900 01a6 00       		.byte	0
 2901 01a7 03       		.uleb128 0x3
 2902 01a8 08       		.uleb128 0x8
 2903 01a9 3A       		.uleb128 0x3a
 2904 01aa 0B       		.uleb128 0xb
ARM GAS  /var/folders/t8/16hdwfmd2fg_d3q6dgx6bpmw0000gn/T//ccvAsxMg.s 			page 52


 2905 01ab 3B       		.uleb128 0x3b
 2906 01ac 0B       		.uleb128 0xb
 2907 01ad 49       		.uleb128 0x49
 2908 01ae 13       		.uleb128 0x13
 2909 01af 00       		.byte	0
 2910 01b0 00       		.byte	0
 2911 01b1 24       		.uleb128 0x24
 2912 01b2 04       		.uleb128 0x4
 2913 01b3 01       		.byte	0x1
 2914 01b4 3E       		.uleb128 0x3e
 2915 01b5 0B       		.uleb128 0xb
 2916 01b6 0B       		.uleb128 0xb
 2917 01b7 0B       		.uleb128 0xb
 2918 01b8 49       		.uleb128 0x49
 2919 01b9 13       		.uleb128 0x13
 2920 01ba 3A       		.uleb128 0x3a
 2921 01bb 0B       		.uleb128 0xb
 2922 01bc 3B       		.uleb128 0x3b
 2923 01bd 0B       		.uleb128 0xb
 2924 01be 01       		.uleb128 0x1
 2925 01bf 13       		.uleb128 0x13
 2926 01c0 00       		.byte	0
 2927 01c1 00       		.byte	0
 2928 01c2 25       		.uleb128 0x25
 2929 01c3 2E       		.uleb128 0x2e
 2930 01c4 01       		.byte	0x1
 2931 01c5 3F       		.uleb128 0x3f
 2932 01c6 19       		.uleb128 0x19
 2933 01c7 03       		.uleb128 0x3
 2934 01c8 0E       		.uleb128 0xe
 2935 01c9 3A       		.uleb128 0x3a
 2936 01ca 0B       		.uleb128 0xb
 2937 01cb 3B       		.uleb128 0x3b
 2938 01cc 0B       		.uleb128 0xb
 2939 01cd 27       		.uleb128 0x27
 2940 01ce 19       		.uleb128 0x19
 2941 01cf 11       		.uleb128 0x11
 2942 01d0 01       		.uleb128 0x1
 2943 01d1 12       		.uleb128 0x12
 2944 01d2 06       		.uleb128 0x6
 2945 01d3 40       		.uleb128 0x40
 2946 01d4 18       		.uleb128 0x18
 2947 01d5 9742     		.uleb128 0x2117
 2948 01d7 19       		.uleb128 0x19
 2949 01d8 01       		.uleb128 0x1
 2950 01d9 13       		.uleb128 0x13
 2951 01da 00       		.byte	0
 2952 01db 00       		.byte	0
 2953 01dc 26       		.uleb128 0x26
 2954 01dd 05       		.uleb128 0x5
 2955 01de 00       		.byte	0
 2956 01df 03       		.uleb128 0x3
 2957 01e0 0E       		.uleb128 0xe
 2958 01e1 3A       		.uleb128 0x3a
 2959 01e2 0B       		.uleb128 0xb
 2960 01e3 3B       		.uleb128 0x3b
 2961 01e4 0B       		.uleb128 0xb
ARM GAS  /var/folders/t8/16hdwfmd2fg_d3q6dgx6bpmw0000gn/T//ccvAsxMg.s 			page 53


 2962 01e5 49       		.uleb128 0x49
 2963 01e6 13       		.uleb128 0x13
 2964 01e7 02       		.uleb128 0x2
 2965 01e8 17       		.uleb128 0x17
 2966 01e9 00       		.byte	0
 2967 01ea 00       		.byte	0
 2968 01eb 27       		.uleb128 0x27
 2969 01ec 898201   		.uleb128 0x4109
 2970 01ef 00       		.byte	0
 2971 01f0 11       		.uleb128 0x11
 2972 01f1 01       		.uleb128 0x1
 2973 01f2 31       		.uleb128 0x31
 2974 01f3 13       		.uleb128 0x13
 2975 01f4 00       		.byte	0
 2976 01f5 00       		.byte	0
 2977 01f6 28       		.uleb128 0x28
 2978 01f7 34       		.uleb128 0x34
 2979 01f8 00       		.byte	0
 2980 01f9 03       		.uleb128 0x3
 2981 01fa 0E       		.uleb128 0xe
 2982 01fb 3A       		.uleb128 0x3a
 2983 01fc 0B       		.uleb128 0xb
 2984 01fd 3B       		.uleb128 0x3b
 2985 01fe 0B       		.uleb128 0xb
 2986 01ff 49       		.uleb128 0x49
 2987 0200 13       		.uleb128 0x13
 2988 0201 02       		.uleb128 0x2
 2989 0202 18       		.uleb128 0x18
 2990 0203 00       		.byte	0
 2991 0204 00       		.byte	0
 2992 0205 29       		.uleb128 0x29
 2993 0206 34       		.uleb128 0x34
 2994 0207 00       		.byte	0
 2995 0208 03       		.uleb128 0x3
 2996 0209 0E       		.uleb128 0xe
 2997 020a 3A       		.uleb128 0x3a
 2998 020b 0B       		.uleb128 0xb
 2999 020c 3B       		.uleb128 0x3b
 3000 020d 0B       		.uleb128 0xb
 3001 020e 49       		.uleb128 0x49
 3002 020f 13       		.uleb128 0x13
 3003 0210 02       		.uleb128 0x2
 3004 0211 17       		.uleb128 0x17
 3005 0212 00       		.byte	0
 3006 0213 00       		.byte	0
 3007 0214 2A       		.uleb128 0x2a
 3008 0215 0A       		.uleb128 0xa
 3009 0216 00       		.byte	0
 3010 0217 03       		.uleb128 0x3
 3011 0218 0E       		.uleb128 0xe
 3012 0219 3A       		.uleb128 0x3a
 3013 021a 0B       		.uleb128 0xb
 3014 021b 3B       		.uleb128 0x3b
 3015 021c 0B       		.uleb128 0xb
 3016 021d 11       		.uleb128 0x11
 3017 021e 01       		.uleb128 0x1
 3018 021f 00       		.byte	0
ARM GAS  /var/folders/t8/16hdwfmd2fg_d3q6dgx6bpmw0000gn/T//ccvAsxMg.s 			page 54


 3019 0220 00       		.byte	0
 3020 0221 2B       		.uleb128 0x2b
 3021 0222 0B       		.uleb128 0xb
 3022 0223 01       		.byte	0x1
 3023 0224 55       		.uleb128 0x55
 3024 0225 17       		.uleb128 0x17
 3025 0226 01       		.uleb128 0x1
 3026 0227 13       		.uleb128 0x13
 3027 0228 00       		.byte	0
 3028 0229 00       		.byte	0
 3029 022a 2C       		.uleb128 0x2c
 3030 022b 34       		.uleb128 0x34
 3031 022c 00       		.byte	0
 3032 022d 03       		.uleb128 0x3
 3033 022e 08       		.uleb128 0x8
 3034 022f 3A       		.uleb128 0x3a
 3035 0230 0B       		.uleb128 0xb
 3036 0231 3B       		.uleb128 0x3b
 3037 0232 0B       		.uleb128 0xb
 3038 0233 49       		.uleb128 0x49
 3039 0234 13       		.uleb128 0x13
 3040 0235 02       		.uleb128 0x2
 3041 0236 17       		.uleb128 0x17
 3042 0237 00       		.byte	0
 3043 0238 00       		.byte	0
 3044 0239 2D       		.uleb128 0x2d
 3045 023a 0B       		.uleb128 0xb
 3046 023b 01       		.byte	0x1
 3047 023c 11       		.uleb128 0x11
 3048 023d 01       		.uleb128 0x1
 3049 023e 12       		.uleb128 0x12
 3050 023f 06       		.uleb128 0x6
 3051 0240 00       		.byte	0
 3052 0241 00       		.byte	0
 3053 0242 2E       		.uleb128 0x2e
 3054 0243 34       		.uleb128 0x34
 3055 0244 00       		.byte	0
 3056 0245 03       		.uleb128 0x3
 3057 0246 08       		.uleb128 0x8
 3058 0247 3A       		.uleb128 0x3a
 3059 0248 0B       		.uleb128 0xb
 3060 0249 3B       		.uleb128 0x3b
 3061 024a 0B       		.uleb128 0xb
 3062 024b 49       		.uleb128 0x49
 3063 024c 13       		.uleb128 0x13
 3064 024d 02       		.uleb128 0x2
 3065 024e 18       		.uleb128 0x18
 3066 024f 00       		.byte	0
 3067 0250 00       		.byte	0
 3068 0251 2F       		.uleb128 0x2f
 3069 0252 898201   		.uleb128 0x4109
 3070 0255 01       		.byte	0x1
 3071 0256 11       		.uleb128 0x11
 3072 0257 01       		.uleb128 0x1
 3073 0258 31       		.uleb128 0x31
 3074 0259 13       		.uleb128 0x13
 3075 025a 01       		.uleb128 0x1
ARM GAS  /var/folders/t8/16hdwfmd2fg_d3q6dgx6bpmw0000gn/T//ccvAsxMg.s 			page 55


 3076 025b 13       		.uleb128 0x13
 3077 025c 00       		.byte	0
 3078 025d 00       		.byte	0
 3079 025e 30       		.uleb128 0x30
 3080 025f 8A8201   		.uleb128 0x410a
 3081 0262 00       		.byte	0
 3082 0263 02       		.uleb128 0x2
 3083 0264 18       		.uleb128 0x18
 3084 0265 9142     		.uleb128 0x2111
 3085 0267 18       		.uleb128 0x18
 3086 0268 00       		.byte	0
 3087 0269 00       		.byte	0
 3088 026a 31       		.uleb128 0x31
 3089 026b 898201   		.uleb128 0x4109
 3090 026e 01       		.byte	0x1
 3091 026f 11       		.uleb128 0x11
 3092 0270 01       		.uleb128 0x1
 3093 0271 31       		.uleb128 0x31
 3094 0272 13       		.uleb128 0x13
 3095 0273 00       		.byte	0
 3096 0274 00       		.byte	0
 3097 0275 32       		.uleb128 0x32
 3098 0276 2E       		.uleb128 0x2e
 3099 0277 00       		.byte	0
 3100 0278 3F       		.uleb128 0x3f
 3101 0279 19       		.uleb128 0x19
 3102 027a 3C       		.uleb128 0x3c
 3103 027b 19       		.uleb128 0x19
 3104 027c 6E       		.uleb128 0x6e
 3105 027d 0E       		.uleb128 0xe
 3106 027e 03       		.uleb128 0x3
 3107 027f 0E       		.uleb128 0xe
 3108 0280 3A       		.uleb128 0x3a
 3109 0281 0B       		.uleb128 0xb
 3110 0282 3B       		.uleb128 0x3b
 3111 0283 0B       		.uleb128 0xb
 3112 0284 00       		.byte	0
 3113 0285 00       		.byte	0
 3114 0286 00       		.byte	0
 3115              		.section	.debug_loc,"",%progbits
 3116              	.Ldebug_loc0:
 3117              	.LLST4:
 3118 0000 00000000 		.4byte	.LVL33
 3119 0004 05000000 		.4byte	.LVL34-1
 3120 0008 0100     		.2byte	0x1
 3121 000a 50       		.byte	0x50
 3122 000b 05000000 		.4byte	.LVL34-1
 3123 000f 08000000 		.4byte	.LFE180
 3124 0013 0400     		.2byte	0x4
 3125 0015 F3       		.byte	0xf3
 3126 0016 01       		.uleb128 0x1
 3127 0017 50       		.byte	0x50
 3128 0018 9F       		.byte	0x9f
 3129 0019 00000000 		.4byte	0
 3130 001d 00000000 		.4byte	0
 3131              	.LLST0:
 3132 0021 00000000 		.4byte	.LVL4
ARM GAS  /var/folders/t8/16hdwfmd2fg_d3q6dgx6bpmw0000gn/T//ccvAsxMg.s 			page 56


 3133 0025 1E000000 		.4byte	.LVL6
 3134 0029 0200     		.2byte	0x2
 3135 002b 30       		.byte	0x30
 3136 002c 9F       		.byte	0x9f
 3137 002d 34000000 		.4byte	.LVL9
 3138 0031 42000000 		.4byte	.LVL10
 3139 0035 0100     		.2byte	0x1
 3140 0037 50       		.byte	0x50
 3141 0038 F2000000 		.4byte	.LVL29
 3142 003c F5000000 		.4byte	.LVL30-1
 3143 0040 0100     		.2byte	0x1
 3144 0042 50       		.byte	0x50
 3145 0043 00000000 		.4byte	0
 3146 0047 00000000 		.4byte	0
 3147              	.LLST1:
 3148 004b 00000000 		.4byte	.LVL4
 3149 004f 1E000000 		.4byte	.LVL6
 3150 0053 0200     		.2byte	0x2
 3151 0055 30       		.byte	0x30
 3152 0056 9F       		.byte	0x9f
 3153 0057 34000000 		.4byte	.LVL9
 3154 005b 42000000 		.4byte	.LVL10
 3155 005f 0600     		.2byte	0x6
 3156 0061 74       		.byte	0x74
 3157 0062 00       		.sleb128 0
 3158 0063 70       		.byte	0x70
 3159 0064 00       		.sleb128 0
 3160 0065 27       		.byte	0x27
 3161 0066 9F       		.byte	0x9f
 3162 0067 F2000000 		.4byte	.LVL29
 3163 006b F5000000 		.4byte	.LVL30-1
 3164 006f 0600     		.2byte	0x6
 3165 0071 74       		.byte	0x74
 3166 0072 00       		.sleb128 0
 3167 0073 70       		.byte	0x70
 3168 0074 00       		.sleb128 0
 3169 0075 27       		.byte	0x27
 3170 0076 9F       		.byte	0x9f
 3171 0077 00000000 		.4byte	0
 3172 007b 00000000 		.4byte	0
 3173              	.LLST2:
 3174 007f 12000000 		.4byte	.LVL5
 3175 0083 1E000000 		.4byte	.LVL6
 3176 0087 0200     		.2byte	0x2
 3177 0089 30       		.byte	0x30
 3178 008a 9F       		.byte	0x9f
 3179 008b 24000000 		.4byte	.LVL7
 3180 008f 27000000 		.4byte	.LVL8-1
 3181 0093 0100     		.2byte	0x1
 3182 0095 53       		.byte	0x53
 3183 0096 27000000 		.4byte	.LVL8-1
 3184 009a 58000000 		.4byte	.LVL15
 3185 009e 0100     		.2byte	0x1
 3186 00a0 59       		.byte	0x59
 3187 00a1 58000000 		.4byte	.LVL15
 3188 00a5 5A000000 		.4byte	.LVL16
 3189 00a9 0300     		.2byte	0x3
ARM GAS  /var/folders/t8/16hdwfmd2fg_d3q6dgx6bpmw0000gn/T//ccvAsxMg.s 			page 57


 3190 00ab 75       		.byte	0x75
 3191 00ac 01       		.sleb128 1
 3192 00ad 9F       		.byte	0x9f
 3193 00ae 5A000000 		.4byte	.LVL16
 3194 00b2 7E000000 		.4byte	.LVL18
 3195 00b6 0300     		.2byte	0x3
 3196 00b8 79       		.byte	0x79
 3197 00b9 01       		.sleb128 1
 3198 00ba 9F       		.byte	0x9f
 3199 00bb B6000000 		.4byte	.LVL24
 3200 00bf F8000000 		.4byte	.LVL31
 3201 00c3 0100     		.2byte	0x1
 3202 00c5 59       		.byte	0x59
 3203 00c6 00000000 		.4byte	0
 3204 00ca 00000000 		.4byte	0
 3205              	.LLST3:
 3206 00ce 42000000 		.4byte	.LVL10
 3207 00d2 48000000 		.4byte	.LVL11
 3208 00d6 0200     		.2byte	0x2
 3209 00d8 30       		.byte	0x30
 3210 00d9 9F       		.byte	0x9f
 3211 00da 4E000000 		.4byte	.LVL12
 3212 00de 52000000 		.4byte	.LVL13
 3213 00e2 0100     		.2byte	0x1
 3214 00e4 51       		.byte	0x51
 3215 00e5 52000000 		.4byte	.LVL13
 3216 00e9 54000000 		.4byte	.LVL14
 3217 00ed 0300     		.2byte	0x3
 3218 00ef 73       		.byte	0x73
 3219 00f0 01       		.sleb128 1
 3220 00f1 9F       		.byte	0x9f
 3221 00f2 54000000 		.4byte	.LVL14
 3222 00f6 58000000 		.4byte	.LVL15
 3223 00fa 0300     		.2byte	0x3
 3224 00fc 71       		.byte	0x71
 3225 00fd 01       		.sleb128 1
 3226 00fe 9F       		.byte	0x9f
 3227 00ff B6000000 		.4byte	.LVL24
 3228 0103 C4000000 		.4byte	.LVL25
 3229 0107 0100     		.2byte	0x1
 3230 0109 51       		.byte	0x51
 3231 010a C4000000 		.4byte	.LVL25
 3232 010e CB000000 		.4byte	.LVL26-1
 3233 0112 0200     		.2byte	0x2
 3234 0114 72       		.byte	0x72
 3235 0115 00       		.sleb128 0
 3236 0116 CB000000 		.4byte	.LVL26-1
 3237 011a F2000000 		.4byte	.LVL29
 3238 011e 0200     		.2byte	0x2
 3239 0120 7D       		.byte	0x7d
 3240 0121 00       		.sleb128 0
 3241 0122 00000000 		.4byte	0
 3242 0126 00000000 		.4byte	0
 3243              		.section	.debug_aranges,"",%progbits
 3244 0000 34000000 		.4byte	0x34
 3245 0004 0200     		.2byte	0x2
 3246 0006 00000000 		.4byte	.Ldebug_info0
ARM GAS  /var/folders/t8/16hdwfmd2fg_d3q6dgx6bpmw0000gn/T//ccvAsxMg.s 			page 58


 3247 000a 04       		.byte	0x4
 3248 000b 00       		.byte	0
 3249 000c 0000     		.2byte	0
 3250 000e 0000     		.2byte	0
 3251 0010 00000000 		.4byte	.LFB177
 3252 0014 08000000 		.4byte	.LFE177-.LFB177
 3253 0018 00000000 		.4byte	.LFB178
 3254 001c 10000000 		.4byte	.LFE178-.LFB178
 3255 0020 00000000 		.4byte	.LFB179
 3256 0024 14010000 		.4byte	.LFE179-.LFB179
 3257 0028 00000000 		.4byte	.LFB180
 3258 002c 08000000 		.4byte	.LFE180-.LFB180
 3259 0030 00000000 		.4byte	0
 3260 0034 00000000 		.4byte	0
 3261              		.section	.debug_ranges,"",%progbits
 3262              	.Ldebug_ranges0:
 3263 0000 18000000 		.4byte	.LBB2
 3264 0004 5E000000 		.4byte	.LBE2
 3265 0008 B6000000 		.4byte	.LBB7
 3266 000c F8000000 		.4byte	.LBE7
 3267 0010 00000000 		.4byte	0
 3268 0014 00000000 		.4byte	0
 3269 0018 1A000000 		.4byte	.LBB3
 3270 001c 1C000000 		.4byte	.LBE3
 3271 0020 48000000 		.4byte	.LBB5
 3272 0024 5A000000 		.4byte	.LBE5
 3273 0028 B6000000 		.4byte	.LBB6
 3274 002c F2000000 		.4byte	.LBE6
 3275 0030 00000000 		.4byte	0
 3276 0034 00000000 		.4byte	0
 3277 0038 00000000 		.4byte	.LFB177
 3278 003c 08000000 		.4byte	.LFE177
 3279 0040 00000000 		.4byte	.LFB178
 3280 0044 10000000 		.4byte	.LFE178
 3281 0048 00000000 		.4byte	.LFB179
 3282 004c 14010000 		.4byte	.LFE179
 3283 0050 00000000 		.4byte	.LFB180
 3284 0054 08000000 		.4byte	.LFE180
 3285 0058 00000000 		.4byte	0
 3286 005c 00000000 		.4byte	0
 3287              		.section	.debug_line,"",%progbits
 3288              	.Ldebug_line0:
 3289 0000 35050000 		.section	.debug_str,"MS",%progbits,1
 3289      02009804 
 3289      00000201 
 3289      FB0E0D00 
 3289      01010101 
 3290              	.LASF113:
 3291 0000 6F66665F 		.ascii	"off_ctx\000"
 3291      63747800 
 3292              	.LASF23:
 3293 0008 6B657965 		.ascii	"keyevent_t\000"
 3293      76656E74 
 3293      5F7400
 3294              	.LASF25:
 3295 0013 73697A65 		.ascii	"size_t\000"
 3295      5F7400
ARM GAS  /var/folders/t8/16hdwfmd2fg_d3q6dgx6bpmw0000gn/T//ccvAsxMg.s 			page 59


 3296              	.LASF112:
 3297 001a 6F66665F 		.ascii	"off_prio\000"
 3297      7072696F 
 3297      00
 3298              	.LASF97:
 3299 0023 77747365 		.ascii	"wtsemp\000"
 3299      6D7000
 3300              	.LASF34:
 3301 002a 73797374 		.ascii	"systime_t\000"
 3301      696D655F 
 3301      7400
 3302              	.LASF121:
 3303 0034 6F66665F 		.ascii	"off_preempt\000"
 3303      70726565 
 3303      6D707400 
 3304              	.LASF102:
 3305 0040 6F776E65 		.ascii	"owner\000"
 3305      7200
 3306              	.LASF30:
 3307 0046 74707269 		.ascii	"tprio_t\000"
 3307      6F5F7400 
 3308              	.LASF124:
 3309 004e 63685F64 		.ascii	"ch_debug\000"
 3309      65627567 
 3309      00
 3310              	.LASF167:
 3311 0057 5553425F 		.ascii	"USB_EVENT_ADDRESS\000"
 3311      4556454E 
 3311      545F4144 
 3311      44524553 
 3311      5300
 3312              	.LASF84:
 3313 0069 50544F52 		.ascii	"PTOR\000"
 3313      00
 3314              	.LASF16:
 3315 006e 696E7433 		.ascii	"int32_t\000"
 3315      325F7400 
 3316              	.LASF63:
 3317 0076 76746675 		.ascii	"vtfunc_t\000"
 3317      6E635F74 
 3317      00
 3318              	.LASF69:
 3319 007f 63685F76 		.ascii	"ch_virtual_timers_list\000"
 3319      69727475 
 3319      616C5F74 
 3319      696D6572 
 3319      735F6C69 
 3320              	.LASF159:
 3321 0096 5553425F 		.ascii	"USB_EP0_TX\000"
 3321      4550305F 
 3321      545800
 3322              	.LASF135:
 3323 00a1 636F6E66 		.ascii	"config\000"
 3323      696700
 3324              	.LASF42:
 3325 00a8 73746174 		.ascii	"state\000"
 3325      6500
ARM GAS  /var/folders/t8/16hdwfmd2fg_d3q6dgx6bpmw0000gn/T//ccvAsxMg.s 			page 60


 3326              	.LASF194:
 3327 00ae 65705F6D 		.ascii	"ep_mode\000"
 3327      6F646500 
 3328              	.LASF75:
 3329 00b6 6C6F636B 		.ascii	"lock_cnt\000"
 3329      5F636E74 
 3329      00
 3330              	.LASF155:
 3331 00bf 5553425F 		.ascii	"USB_ACTIVE\000"
 3331      41435449 
 3331      564500
 3332              	.LASF115:
 3333 00ca 6F66665F 		.ascii	"off_older\000"
 3333      6F6C6465 
 3333      7200
 3334              	.LASF37:
 3335 00d4 7072696F 		.ascii	"prio\000"
 3335      00
 3336              	.LASF126:
 3337 00d9 696F6D6F 		.ascii	"iomode_t\000"
 3337      64655F74 
 3337      00
 3338              	.LASF93:
 3339 00e2 65786974 		.ascii	"exitcode\000"
 3339      636F6465 
 3339      00
 3340              	.LASF165:
 3341 00eb 75736265 		.ascii	"usbep0state_t\000"
 3341      70307374 
 3341      6174655F 
 3341      7400
 3342              	.LASF3:
 3343 00f9 5F5F7569 		.ascii	"__uint8_t\000"
 3343      6E74385F 
 3343      7400
 3344              	.LASF131:
 3345 0103 706F7274 		.ascii	"ports\000"
 3345      7300
 3346              	.LASF70:
 3347 0109 73797374 		.ascii	"systime\000"
 3347      696D6500 
 3348              	.LASF7:
 3349 0111 6C6F6E67 		.ascii	"long int\000"
 3349      20696E74 
 3349      00
 3350              	.LASF183:
 3351 011a 7478636E 		.ascii	"txcnt\000"
 3351      7400
 3352              	.LASF218:
 3353 0120 6D6F7573 		.ascii	"mouse\000"
 3353      6500
 3354              	.LASF106:
 3355 0126 7A65726F 		.ascii	"zero\000"
 3355      00
 3356              	.LASF127:
 3357 012b 696F706F 		.ascii	"ioportid_t\000"
 3357      72746964 
ARM GAS  /var/folders/t8/16hdwfmd2fg_d3q6dgx6bpmw0000gn/T//ccvAsxMg.s 			page 61


 3357      5F7400
 3358              	.LASF27:
 3359 0136 74737461 		.ascii	"tstate_t\000"
 3359      74655F74 
 3359      00
 3360              	.LASF48:
 3361 013f 6570656E 		.ascii	"epending\000"
 3361      64696E67 
 3361      00
 3362              	.LASF257:
 3363 0148 474E5520 		.ascii	"GNU C99 7.2.1 20170904 (release) [ARM/embedded-7-br"
 3363      43393920 
 3363      372E322E 
 3363      31203230 
 3363      31373039 
 3364 017b 616E6368 		.ascii	"anch revision 255204] -mcpu=cortex-m0plus -mno-thum"
 3364      20726576 
 3364      6973696F 
 3364      6E203235 
 3364      35323034 
 3365 01ae 622D696E 		.ascii	"b-interwork -mthumb -ggdb -O2 -std=gnu99 -fomit-fra"
 3365      74657277 
 3365      6F726B20 
 3365      2D6D7468 
 3365      756D6220 
 3366 01e1 6D652D70 		.ascii	"me-pointer -falign-functions=16 -ffunction-sections"
 3366      6F696E74 
 3366      6572202D 
 3366      66616C69 
 3366      676E2D66 
 3367 0214 202D6664 		.ascii	" -fdata-sections -fno-common\000"
 3367      6174612D 
 3367      73656374 
 3367      696F6E73 
 3367      202D666E 
 3368              	.LASF57:
 3369 0231 74687265 		.ascii	"threads_queue_t\000"
 3369      6164735F 
 3369      71756575 
 3369      655F7400 
 3370              	.LASF184:
 3371 0241 74786275 		.ascii	"txbuf\000"
 3371      6600
 3372              	.LASF88:
 3373 0247 72656761 		.ascii	"regarm_t\000"
 3373      726D5F74 
 3373      00
 3374              	.LASF259:
 3375 0250 2F557365 		.ascii	"/Users/jpablobr/tmp/tmk/di0ib-tmk_keyboard/keyboard"
 3375      72732F6A 
 3375      7061626C 
 3375      6F62722F 
 3375      746D702F 
 3376 0283 2F746565 		.ascii	"/teensy_lc_menelaus\000"
 3376      6E73795F 
 3376      6C635F6D 
 3376      656E656C 
ARM GAS  /var/folders/t8/16hdwfmd2fg_d3q6dgx6bpmw0000gn/T//ccvAsxMg.s 			page 62


 3376      61757300 
 3377              	.LASF158:
 3378 0297 5553425F 		.ascii	"USB_EP0_WAITING_SETUP\000"
 3378      4550305F 
 3378      57414954 
 3378      494E475F 
 3378      53455455 
 3379              	.LASF156:
 3380 02ad 5553425F 		.ascii	"USB_SUSPENDED\000"
 3380      53555350 
 3380      454E4445 
 3380      4400
 3381              	.LASF133:
 3382 02bb 70616C5F 		.ascii	"pal_default_config\000"
 3382      64656661 
 3382      756C745F 
 3382      636F6E66 
 3382      696700
 3383              	.LASF0:
 3384 02ce 7369676E 		.ascii	"signed char\000"
 3384      65642063 
 3384      68617200 
 3385              	.LASF99:
 3386 02da 65776D61 		.ascii	"ewmask\000"
 3386      736B00
 3387              	.LASF14:
 3388 02e1 75696E74 		.ascii	"uint8_t\000"
 3388      385F7400 
 3389              	.LASF172:
 3390 02e9 5553425F 		.ascii	"USB_EVENT_STALLED\000"
 3390      4556454E 
 3390      545F5354 
 3390      414C4C45 
 3390      4400
 3391              	.LASF32:
 3392 02fb 6576656E 		.ascii	"eventmask_t\000"
 3392      746D6173 
 3392      6B5F7400 
 3393              	.LASF189:
 3394 0307 72787369 		.ascii	"rxsize\000"
 3394      7A6500
 3395              	.LASF95:
 3396 030e 77747472 		.ascii	"wttrp\000"
 3396      7000
 3397              	.LASF248:
 3398 0314 686F6F6B 		.ascii	"hook_keyboard_loop\000"
 3398      5F6B6579 
 3398      626F6172 
 3398      645F6C6F 
 3398      6F7000
 3399              	.LASF1:
 3400 0327 756E7369 		.ascii	"unsigned char\000"
 3400      676E6564 
 3400      20636861 
 3400      7200
 3401              	.LASF164:
 3402 0335 5553425F 		.ascii	"USB_EP0_ERROR\000"
ARM GAS  /var/folders/t8/16hdwfmd2fg_d3q6dgx6bpmw0000gn/T//ccvAsxMg.s 			page 63


 3402      4550305F 
 3402      4552524F 
 3402      5200
 3403              	.LASF227:
 3404 0343 6D6B5F64 		.ascii	"mk_delay\000"
 3404      656C6179 
 3404      00
 3405              	.LASF73:
 3406 034c 70616E69 		.ascii	"panic_msg\000"
 3406      635F6D73 
 3406      6700
 3407              	.LASF140:
 3408 0356 65703073 		.ascii	"ep0state\000"
 3408      74617465 
 3408      00
 3409              	.LASF71:
 3410 035f 73797374 		.ascii	"system_debug_t\000"
 3410      656D5F64 
 3410      65627567 
 3410      5F7400
 3411              	.LASF207:
 3412 036e 72657175 		.ascii	"requests_hook_cb\000"
 3412      65737473 
 3412      5F686F6F 
 3412      6B5F6362 
 3412      00
 3413              	.LASF22:
 3414 037f 5F426F6F 		.ascii	"_Bool\000"
 3414      6C00
 3415              	.LASF256:
 3416 0385 6D617472 		.ascii	"matrix_setup\000"
 3416      69785F73 
 3416      65747570 
 3416      00
 3417              	.LASF103:
 3418 0392 63686172 		.ascii	"char\000"
 3418      00
 3419              	.LASF243:
 3420 0397 61637469 		.ascii	"action_exec\000"
 3420      6F6E5F65 
 3420      78656300 
 3421              	.LASF142:
 3422 03a3 6570306E 		.ascii	"ep0n\000"
 3422      00
 3423              	.LASF137:
 3424 03a8 72656365 		.ascii	"receiving\000"
 3424      6976696E 
 3424      6700
 3425              	.LASF224:
 3426 03b2 4D4F5553 		.ascii	"MOUSEKEY\000"
 3426      454B4559 
 3426      00
 3427              	.LASF4:
 3428 03bb 5F5F7569 		.ascii	"__uint16_t\000"
 3428      6E743136 
 3428      5F7400
 3429              	.LASF134:
ARM GAS  /var/folders/t8/16hdwfmd2fg_d3q6dgx6bpmw0000gn/T//ccvAsxMg.s 			page 64


 3430 03c6 55534244 		.ascii	"USBDriver\000"
 3430      72697665 
 3430      7200
 3431              	.LASF94:
 3432 03d0 77746F62 		.ascii	"wtobjp\000"
 3432      6A7000
 3433              	.LASF258:
 3434 03d7 2E2E2F2E 		.ascii	"../../tmk_core/common/keyboard.c\000"
 3434      2E2F746D 
 3434      6B5F636F 
 3434      72652F63 
 3434      6F6D6D6F 
 3435              	.LASF195:
 3436 03f8 73657475 		.ascii	"setup_cb\000"
 3436      705F6362 
 3436      00
 3437              	.LASF175:
 3438 0401 75645F73 		.ascii	"ud_string\000"
 3438      7472696E 
 3438      6700
 3439              	.LASF120:
 3440 040b 6F66665F 		.ascii	"off_refs\000"
 3440      72656673 
 3440      00
 3441              	.LASF43:
 3442 0414 666C6167 		.ascii	"flags\000"
 3442      7300
 3443              	.LASF196:
 3444 041a 696E5F63 		.ascii	"in_cb\000"
 3444      6200
 3445              	.LASF260:
 3446 0420 6C656473 		.ascii	"leds\000"
 3446      00
 3447              	.LASF232:
 3448 0425 6D6B5F77 		.ascii	"mk_wheel_time_to_max\000"
 3448      6865656C 
 3448      5F74696D 
 3448      655F746F 
 3448      5F6D6178 
 3449              	.LASF89:
 3450 043a 73746B61 		.ascii	"stkalign_t\000"
 3450      6C69676E 
 3450      5F7400
 3451              	.LASF228:
 3452 0445 6D6B5F69 		.ascii	"mk_interval\000"
 3452      6E746572 
 3452      76616C00 
 3453              	.LASF51:
 3454 0451 6D706F6F 		.ascii	"mpool\000"
 3454      6C00
 3455              	.LASF179:
 3456 0457 75736265 		.ascii	"usbeventcb_t\000"
 3456      76656E74 
 3456      63625F74 
 3456      00
 3457              	.LASF109:
 3458 0464 70747273 		.ascii	"ptrsize\000"
ARM GAS  /var/folders/t8/16hdwfmd2fg_d3q6dgx6bpmw0000gn/T//ccvAsxMg.s 			page 65


 3458      697A6500 
 3459              	.LASF136:
 3460 046c 7472616E 		.ascii	"transmitting\000"
 3460      736D6974 
 3460      74696E67 
 3460      00
 3461              	.LASF188:
 3462 0479 55534249 		.ascii	"USBInEndpointState\000"
 3462      6E456E64 
 3462      706F696E 
 3462      74537461 
 3462      746500
 3463              	.LASF249:
 3464 048c 6D6F7573 		.ascii	"mousekey_task\000"
 3464      656B6579 
 3464      5F746173 
 3464      6B00
 3465              	.LASF122:
 3466 049a 6F66665F 		.ascii	"off_time\000"
 3466      74696D65 
 3466      00
 3467              	.LASF33:
 3468 04a3 636E745F 		.ascii	"cnt_t\000"
 3468      7400
 3469              	.LASF24:
 3470 04a9 6D617472 		.ascii	"matrix_row_t\000"
 3470      69785F72 
 3470      6F775F74 
 3470      00
 3471              	.LASF176:
 3472 04b6 55534244 		.ascii	"USBDescriptor\000"
 3472      65736372 
 3472      6970746F 
 3472      7200
 3473              	.LASF144:
 3474 04c4 73657475 		.ascii	"setup\000"
 3474      7000
 3475              	.LASF98:
 3476 04ca 77746D74 		.ascii	"wtmtxp\000"
 3476      787000
 3477              	.LASF173:
 3478 04d1 75736265 		.ascii	"usbevent_t\000"
 3478      76656E74 
 3478      5F7400
 3479              	.LASF61:
 3480 04dc 63685F72 		.ascii	"ch_ready_list\000"
 3480      65616479 
 3480      5F6C6973 
 3480      7400
 3481              	.LASF174:
 3482 04ea 75645F73 		.ascii	"ud_size\000"
 3482      697A6500 
 3483              	.LASF221:
 3484 04f2 64656275 		.ascii	"debug_config\000"
 3484      675F636F 
 3484      6E666967 
 3484      00
ARM GAS  /var/folders/t8/16hdwfmd2fg_d3q6dgx6bpmw0000gn/T//ccvAsxMg.s 			page 66


 3485              	.LASF154:
 3486 04ff 5553425F 		.ascii	"USB_SELECTED\000"
 3486      53454C45 
 3486      43544544 
 3486      00
 3487              	.LASF254:
 3488 050c 6D617472 		.ascii	"matrix_init\000"
 3488      69785F69 
 3488      6E697400 
 3489              	.LASF147:
 3490 0518 636F6E66 		.ascii	"configuration\000"
 3490      69677572 
 3490      6174696F 
 3490      6E00
 3491              	.LASF130:
 3492 0526 506F7274 		.ascii	"PortConfig\000"
 3492      436F6E66 
 3492      696700
 3493              	.LASF253:
 3494 0531 74696D65 		.ascii	"timer_init\000"
 3494      725F696E 
 3494      697400
 3495              	.LASF11:
 3496 053c 5F5F7569 		.ascii	"__uint64_t\000"
 3496      6E743634 
 3496      5F7400
 3497              	.LASF255:
 3498 0547 626F6F74 		.ascii	"bootmagic\000"
 3498      6D616769 
 3498      6300
 3499              	.LASF118:
 3500 0551 6F66665F 		.ascii	"off_state\000"
 3500      73746174 
 3500      6500
 3501              	.LASF220:
 3502 055b 64656275 		.ascii	"debug_config_t\000"
 3502      675F636F 
 3502      6E666967 
 3502      5F7400
 3503              	.LASF9:
 3504 056a 6C6F6E67 		.ascii	"long unsigned int\000"
 3504      20756E73 
 3504      69676E65 
 3504      6420696E 
 3504      7400
 3505              	.LASF111:
 3506 057c 74687265 		.ascii	"threadsize\000"
 3506      61647369 
 3506      7A6500
 3507              	.LASF223:
 3508 0587 434F4E53 		.ascii	"CONSOLE\000"
 3508      4F4C4500 
 3509              	.LASF145:
 3510 058f 73746174 		.ascii	"status\000"
 3510      757300
 3511              	.LASF146:
 3512 0596 61646472 		.ascii	"address\000"
ARM GAS  /var/folders/t8/16hdwfmd2fg_d3q6dgx6bpmw0000gn/T//ccvAsxMg.s 			page 67


 3512      65737300 
 3513              	.LASF100:
 3514 059e 63685F73 		.ascii	"ch_semaphore\000"
 3514      656D6170 
 3514      686F7265 
 3514      00
 3515              	.LASF143:
 3516 05ab 65703065 		.ascii	"ep0endcb\000"
 3516      6E646362 
 3516      00
 3517              	.LASF54:
 3518 05b4 63685F74 		.ascii	"ch_thread\000"
 3518      68726561 
 3518      6400
 3519              	.LASF229:
 3520 05be 6D6B5F6D 		.ascii	"mk_max_speed\000"
 3520      61785F73 
 3520      70656564 
 3520      00
 3521              	.LASF68:
 3522 05cb 76697274 		.ascii	"virtual_timers_list_t\000"
 3522      75616C5F 
 3522      74696D65 
 3522      72735F6C 
 3522      6973745F 
 3523              	.LASF104:
 3524 05e1 63685F69 		.ascii	"ch_idle_thread_wa\000"
 3524      646C655F 
 3524      74687265 
 3524      61645F77 
 3524      6100
 3525              	.LASF20:
 3526 05f3 70726573 		.ascii	"pressed\000"
 3526      73656400 
 3527              	.LASF86:
 3528 05fb 50444452 		.ascii	"PDDR\000"
 3528      00
 3529              	.LASF64:
 3530 0600 76697274 		.ascii	"virtual_timer_t\000"
 3530      75616C5F 
 3530      74696D65 
 3530      725F7400 
 3531              	.LASF60:
 3532 0610 72656164 		.ascii	"ready_list_t\000"
 3532      795F6C69 
 3532      73745F74 
 3532      00
 3533              	.LASF39:
 3534 061d 6F6C6465 		.ascii	"older\000"
 3534      7200
 3535              	.LASF182:
 3536 0623 74787369 		.ascii	"txsize\000"
 3536      7A6500
 3537              	.LASF50:
 3538 062a 7265616C 		.ascii	"realprio\000"
 3538      7072696F 
 3538      00
ARM GAS  /var/folders/t8/16hdwfmd2fg_d3q6dgx6bpmw0000gn/T//ccvAsxMg.s 			page 68


 3539              	.LASF117:
 3540 0633 6F66665F 		.ascii	"off_stklimit\000"
 3540      73746B6C 
 3540      696D6974 
 3540      00
 3541              	.LASF157:
 3542 0640 75736273 		.ascii	"usbstate_t\000"
 3542      74617465 
 3542      5F7400
 3543              	.LASF55:
 3544 064b 63685F74 		.ascii	"ch_threads_list\000"
 3544      68726561 
 3544      64735F6C 
 3544      69737400 
 3545              	.LASF186:
 3546 065b 6F64645F 		.ascii	"odd_even\000"
 3546      6576656E 
 3546      00
 3547              	.LASF191:
 3548 0664 72786275 		.ascii	"rxbuf\000"
 3548      6600
 3549              	.LASF200:
 3550 066a 696E5F73 		.ascii	"in_state\000"
 3550      74617465 
 3550      00
 3551              	.LASF171:
 3552 0673 5553425F 		.ascii	"USB_EVENT_WAKEUP\000"
 3552      4556454E 
 3552      545F5741 
 3552      4B455550 
 3552      00
 3553              	.LASF8:
 3554 0684 5F5F7569 		.ascii	"__uint32_t\000"
 3554      6E743332 
 3554      5F7400
 3555              	.LASF205:
 3556 068f 6576656E 		.ascii	"event_cb\000"
 3556      745F6362 
 3556      00
 3557              	.LASF49:
 3558 0698 6D74786C 		.ascii	"mtxlist\000"
 3558      69737400 
 3559              	.LASF222:
 3560 06a0 4F4E4553 		.ascii	"ONESHOT\000"
 3560      484F5400 
 3561              	.LASF10:
 3562 06a8 6C6F6E67 		.ascii	"long long int\000"
 3562      206C6F6E 
 3562      6720696E 
 3562      7400
 3563              	.LASF153:
 3564 06b6 5553425F 		.ascii	"USB_READY\000"
 3564      52454144 
 3564      5900
 3565              	.LASF215:
 3566 06c0 656E6162 		.ascii	"enable\000"
 3566      6C6500
ARM GAS  /var/folders/t8/16hdwfmd2fg_d3q6dgx6bpmw0000gn/T//ccvAsxMg.s 			page 69


 3567              	.LASF141:
 3568 06c7 6570306E 		.ascii	"ep0next\000"
 3568      65787400 
 3569              	.LASF252:
 3570 06cf 7466705F 		.ascii	"tfp_printf\000"
 3570      7072696E 
 3570      746600
 3571              	.LASF129:
 3572 06da 70616473 		.ascii	"pads\000"
 3572      00
 3573              	.LASF213:
 3574 06df 6B657962 		.ascii	"keyboard_protocol\000"
 3574      6F617264 
 3574      5F70726F 
 3574      746F636F 
 3574      6C00
 3575              	.LASF45:
 3576 06f1 70726565 		.ascii	"preempt\000"
 3576      6D707400 
 3577              	.LASF178:
 3578 06f9 75736265 		.ascii	"usbepcallback_t\000"
 3578      7063616C 
 3578      6C626163 
 3578      6B5F7400 
 3579              	.LASF237:
 3580 0709 6D617472 		.ascii	"matrix_row\000"
 3580      69785F72 
 3580      6F7700
 3581              	.LASF240:
 3582 0714 6B657962 		.ascii	"keyboard_setup\000"
 3582      6F617264 
 3582      5F736574 
 3582      757000
 3583              	.LASF239:
 3584 0723 6B657962 		.ascii	"keyboard_init\000"
 3584      6F617264 
 3584      5F696E69 
 3584      7400
 3585              	.LASF114:
 3586 0731 6F66665F 		.ascii	"off_newer\000"
 3586      6E657765 
 3586      7200
 3587              	.LASF13:
 3588 073b 756E7369 		.ascii	"unsigned int\000"
 3588      676E6564 
 3588      20696E74 
 3588      00
 3589              	.LASF209:
 3590 0748 55534243 		.ascii	"USBConfig\000"
 3590      6F6E6669 
 3590      6700
 3591              	.LASF212:
 3592 0752 6B657962 		.ascii	"keyboard_idle\000"
 3592      6F617264 
 3592      5F69646C 
 3592      6500
 3593              	.LASF203:
ARM GAS  /var/folders/t8/16hdwfmd2fg_d3q6dgx6bpmw0000gn/T//ccvAsxMg.s 			page 70


 3594 0760 73657475 		.ascii	"setup_buf\000"
 3594      705F6275 
 3594      6600
 3595              	.LASF235:
 3596 076a 6D617472 		.ascii	"matrix_prev\000"
 3596      69785F70 
 3596      72657600 
 3597              	.LASF62:
 3598 0776 63757272 		.ascii	"current\000"
 3598      656E7400 
 3599              	.LASF197:
 3600 077e 6F75745F 		.ascii	"out_cb\000"
 3600      636200
 3601              	.LASF83:
 3602 0785 50434F52 		.ascii	"PCOR\000"
 3602      00
 3603              	.LASF85:
 3604 078a 50444952 		.ascii	"PDIR\000"
 3604      00
 3605              	.LASF152:
 3606 078f 5553425F 		.ascii	"USB_STOP\000"
 3606      53544F50 
 3606      00
 3607              	.LASF190:
 3608 0798 7278636E 		.ascii	"rxcnt\000"
 3608      7400
 3609              	.LASF198:
 3610 079e 696E5F6D 		.ascii	"in_maxsize\000"
 3610      61787369 
 3610      7A6500
 3611              	.LASF201:
 3612 07a9 6F75745F 		.ascii	"out_state\000"
 3612      73746174 
 3612      6500
 3613              	.LASF217:
 3614 07b3 6B657962 		.ascii	"keyboard\000"
 3614      6F617264 
 3614      00
 3615              	.LASF35:
 3616 07bc 74687265 		.ascii	"thread_t\000"
 3616      61645F74 
 3616      00
 3617              	.LASF202:
 3618 07c5 65705F62 		.ascii	"ep_buffers\000"
 3618      75666665 
 3618      727300
 3619              	.LASF52:
 3620 07d0 74687265 		.ascii	"thread_reference_t\000"
 3620      61645F72 
 3620      65666572 
 3620      656E6365 
 3620      5F7400
 3621              	.LASF96:
 3622 07e3 73656E74 		.ascii	"sentmsg\000"
 3622      6D736700 
 3623              	.LASF160:
 3624 07eb 5553425F 		.ascii	"USB_EP0_WAITING_TX0\000"
ARM GAS  /var/folders/t8/16hdwfmd2fg_d3q6dgx6bpmw0000gn/T//ccvAsxMg.s 			page 71


 3624      4550305F 
 3624      57414954 
 3624      494E475F 
 3624      54583000 
 3625              	.LASF91:
 3626 07ff 706F7274 		.ascii	"port_intctx\000"
 3626      5F696E74 
 3626      63747800 
 3627              	.LASF74:
 3628 080b 6973725F 		.ascii	"isr_cnt\000"
 3628      636E7400 
 3629              	.LASF151:
 3630 0813 5553425F 		.ascii	"USB_UNINIT\000"
 3630      554E494E 
 3630      495400
 3631              	.LASF65:
 3632 081e 63685F76 		.ascii	"ch_virtual_timer\000"
 3632      69727475 
 3632      616C5F74 
 3632      696D6572 
 3632      00
 3633              	.LASF241:
 3634 082f 6C65645F 		.ascii	"led_set\000"
 3634      73657400 
 3635              	.LASF193:
 3636 0837 5553424F 		.ascii	"USBOutEndpointState\000"
 3636      7574456E 
 3636      64706F69 
 3636      6E745374 
 3636      61746500 
 3637              	.LASF107:
 3638 084b 73697A65 		.ascii	"size\000"
 3638      00
 3639              	.LASF12:
 3640 0850 6C6F6E67 		.ascii	"long long unsigned int\000"
 3640      206C6F6E 
 3640      6720756E 
 3640      7369676E 
 3640      65642069 
 3641              	.LASF15:
 3642 0867 75696E74 		.ascii	"uint16_t\000"
 3642      31365F74 
 3642      00
 3643              	.LASF116:
 3644 0870 6F66665F 		.ascii	"off_name\000"
 3644      6E616D65 
 3644      00
 3645              	.LASF31:
 3646 0879 6D73675F 		.ascii	"msg_t\000"
 3646      7400
 3647              	.LASF58:
 3648 087f 63685F74 		.ascii	"ch_threads_queue\000"
 3648      68726561 
 3648      64735F71 
 3648      75657565 
 3648      00
 3649              	.LASF251:
ARM GAS  /var/folders/t8/16hdwfmd2fg_d3q6dgx6bpmw0000gn/T//ccvAsxMg.s 			page 72


 3650 0890 686F6F6B 		.ascii	"hook_keyboard_leds_change\000"
 3650      5F6B6579 
 3650      626F6172 
 3650      645F6C65 
 3650      64735F63 
 3651              	.LASF29:
 3652 08aa 74736C69 		.ascii	"tslices_t\000"
 3652      6365735F 
 3652      7400
 3653              	.LASF148:
 3654 08b4 73617665 		.ascii	"saved_state\000"
 3654      645F7374 
 3654      61746500 
 3655              	.LASF66:
 3656 08c0 64656C74 		.ascii	"delta\000"
 3656      6100
 3657              	.LASF166:
 3658 08c6 5553425F 		.ascii	"USB_EVENT_RESET\000"
 3658      4556454E 
 3658      545F5245 
 3658      53455400 
 3659              	.LASF211:
 3660 08d6 6B657962 		.ascii	"keyboard_nkro\000"
 3660      6F617264 
 3660      5F6E6B72 
 3660      6F00
 3661              	.LASF44:
 3662 08e4 72656673 		.ascii	"refs\000"
 3662      00
 3663              	.LASF36:
 3664 08e9 71756575 		.ascii	"queue\000"
 3664      6500
 3665              	.LASF80:
 3666 08ef 6D61696E 		.ascii	"mainthread\000"
 3666      74687265 
 3666      616400
 3667              	.LASF108:
 3668 08fa 76657273 		.ascii	"version\000"
 3668      696F6E00 
 3669              	.LASF238:
 3670 0902 6D617472 		.ascii	"matrix_change\000"
 3670      69785F63 
 3670      68616E67 
 3670      6500
 3671              	.LASF169:
 3672 0910 5553425F 		.ascii	"USB_EVENT_UNCONFIGURED\000"
 3672      4556454E 
 3672      545F554E 
 3672      434F4E46 
 3672      49475552 
 3673              	.LASF199:
 3674 0927 6F75745F 		.ascii	"out_maxsize\000"
 3674      6D617873 
 3674      697A6500 
 3675              	.LASF214:
 3676 0933 74696D65 		.ascii	"timer_count\000"
 3676      725F636F 
ARM GAS  /var/folders/t8/16hdwfmd2fg_d3q6dgx6bpmw0000gn/T//ccvAsxMg.s 			page 73


 3676      756E7400 
 3677              	.LASF41:
 3678 093f 77616261 		.ascii	"wabase\000"
 3678      736500
 3679              	.LASF168:
 3680 0946 5553425F 		.ascii	"USB_EVENT_CONFIGURED\000"
 3680      4556454E 
 3680      545F434F 
 3680      4E464947 
 3680      55524544 
 3681              	.LASF163:
 3682 095b 5553425F 		.ascii	"USB_EP0_SENDING_STS\000"
 3682      4550305F 
 3682      53454E44 
 3682      494E475F 
 3682      53545300 
 3683              	.LASF21:
 3684 096f 74696D65 		.ascii	"time\000"
 3684      00
 3685              	.LASF234:
 3686 0974 6B657962 		.ascii	"keyboard_task\000"
 3686      6F617264 
 3686      5F746173 
 3686      6B00
 3687              	.LASF204:
 3688 0982 55534245 		.ascii	"USBEndpointConfig\000"
 3688      6E64706F 
 3688      696E7443 
 3688      6F6E6669 
 3688      6700
 3689              	.LASF78:
 3690 0994 726C6973 		.ascii	"rlist\000"
 3690      7400
 3691              	.LASF226:
 3692 099a 636F6D6D 		.ascii	"command_state\000"
 3692      616E645F 
 3692      73746174 
 3692      6500
 3693              	.LASF26:
 3694 09a8 746D6F64 		.ascii	"tmode_t\000"
 3694      655F7400 
 3695              	.LASF181:
 3696 09b0 75736267 		.ascii	"usbgetdescriptor_t\000"
 3696      65746465 
 3696      73637269 
 3696      70746F72 
 3696      5F7400
 3697              	.LASF261:
 3698 09c3 4D415452 		.ascii	"MATRIX_LOOP_END\000"
 3698      49585F4C 
 3698      4F4F505F 
 3698      454E4400 
 3699              	.LASF138:
 3700 09d3 696E5F70 		.ascii	"in_params\000"
 3700      6172616D 
 3700      7300
 3701              	.LASF19:
ARM GAS  /var/folders/t8/16hdwfmd2fg_d3q6dgx6bpmw0000gn/T//ccvAsxMg.s 			page 74


 3702 09dd 6B657970 		.ascii	"keypos_t\000"
 3702      6F735F74 
 3702      00
 3703              	.LASF185:
 3704 09e6 74687265 		.ascii	"thread\000"
 3704      616400
 3705              	.LASF40:
 3706 09ed 6E616D65 		.ascii	"name\000"
 3706      00
 3707              	.LASF128:
 3708 09f2 706F7274 		.ascii	"port\000"
 3708      00
 3709              	.LASF81:
 3710 09f7 50444F52 		.ascii	"PDOR\000"
 3710      00
 3711              	.LASF2:
 3712 09fc 73686F72 		.ascii	"short int\000"
 3712      7420696E 
 3712      7400
 3713              	.LASF18:
 3714 0a06 75696E74 		.ascii	"uint64_t\000"
 3714      36345F74 
 3714      00
 3715              	.LASF67:
 3716 0a0f 66756E63 		.ascii	"func\000"
 3716      00
 3717              	.LASF101:
 3718 0a14 63685F6D 		.ascii	"ch_mutex\000"
 3718      75746578 
 3718      00
 3719              	.LASF216:
 3720 0a1d 6D617472 		.ascii	"matrix\000"
 3720      697800
 3721              	.LASF82:
 3722 0a24 50534F52 		.ascii	"PSOR\000"
 3722      00
 3723              	.LASF47:
 3724 0a29 6D736771 		.ascii	"msgqueue\000"
 3724      75657565 
 3724      00
 3725              	.LASF72:
 3726 0a32 63685F73 		.ascii	"ch_system_debug\000"
 3726      79737465 
 3726      6D5F6465 
 3726      62756700 
 3727              	.LASF246:
 3728 0a42 6D617472 		.ascii	"matrix_print\000"
 3728      69785F70 
 3728      72696E74 
 3728      00
 3729              	.LASF245:
 3730 0a4f 6D617472 		.ascii	"matrix_get_row\000"
 3730      69785F67 
 3730      65745F72 
 3730      6F7700
 3731              	.LASF236:
 3732 0a5e 6C65645F 		.ascii	"led_status\000"
ARM GAS  /var/folders/t8/16hdwfmd2fg_d3q6dgx6bpmw0000gn/T//ccvAsxMg.s 			page 75


 3732      73746174 
 3732      757300
 3733              	.LASF180:
 3734 0a69 75736272 		.ascii	"usbreqhandler_t\000"
 3734      65716861 
 3734      6E646C65 
 3734      725F7400 
 3735              	.LASF132:
 3736 0a79 50414C43 		.ascii	"PALConfig\000"
 3736      6F6E6669 
 3736      6700
 3737              	.LASF177:
 3738 0a83 75736263 		.ascii	"usbcallback_t\000"
 3738      616C6C62 
 3738      61636B5F 
 3738      7400
 3739              	.LASF250:
 3740 0a91 686F7374 		.ascii	"host_keyboard_leds\000"
 3740      5F6B6579 
 3740      626F6172 
 3740      645F6C65 
 3740      647300
 3741              	.LASF242:
 3742 0aa4 74696D65 		.ascii	"timer_read\000"
 3742      725F7265 
 3742      616400
 3743              	.LASF187:
 3744 0aaf 64617461 		.ascii	"data_bank\000"
 3744      5F62616E 
 3744      6B00
 3745              	.LASF87:
 3746 0ab9 4750494F 		.ascii	"GPIO_TypeDef\000"
 3746      5F547970 
 3746      65446566 
 3746      00
 3747              	.LASF79:
 3748 0ac6 76746C69 		.ascii	"vtlist\000"
 3748      737400
 3749              	.LASF46:
 3750 0acd 77616974 		.ascii	"waiting\000"
 3750      696E6700 
 3751              	.LASF244:
 3752 0ad5 686F6F6B 		.ascii	"hook_matrix_change\000"
 3752      5F6D6174 
 3752      7269785F 
 3752      6368616E 
 3752      676500
 3753              	.LASF210:
 3754 0ae8 55534244 		.ascii	"USBD1\000"
 3754      3100
 3755              	.LASF125:
 3756 0aee 6D757465 		.ascii	"mutex_t\000"
 3756      785F7400 
 3757              	.LASF28:
 3758 0af6 74726566 		.ascii	"trefs_t\000"
 3758      735F7400 
 3759              	.LASF90:
ARM GAS  /var/folders/t8/16hdwfmd2fg_d3q6dgx6bpmw0000gn/T//ccvAsxMg.s 			page 76


 3760 0afe 706F7274 		.ascii	"port_context\000"
 3760      5F636F6E 
 3760      74657874 
 3760      00
 3761              	.LASF53:
 3762 0b0b 74687265 		.ascii	"threads_list_t\000"
 3762      6164735F 
 3762      6C697374 
 3762      5F7400
 3763              	.LASF208:
 3764 0b1a 736F665F 		.ascii	"sof_cb\000"
 3764      636200
 3765              	.LASF77:
 3766 0b21 63685F73 		.ascii	"ch_system\000"
 3766      79737465 
 3766      6D00
 3767              	.LASF38:
 3768 0b2b 6E657765 		.ascii	"newer\000"
 3768      7200
 3769              	.LASF17:
 3770 0b31 75696E74 		.ascii	"uint32_t\000"
 3770      33325F74 
 3770      00
 3771              	.LASF150:
 3772 0b3a 75736265 		.ascii	"usbep_t\000"
 3772      705F7400 
 3773              	.LASF192:
 3774 0b42 7278706B 		.ascii	"rxpkts\000"
 3774      747300
 3775              	.LASF219:
 3776 0b49 72657365 		.ascii	"reserved\000"
 3776      72766564 
 3776      00
 3777              	.LASF92:
 3778 0b52 7264796D 		.ascii	"rdymsg\000"
 3778      736700
 3779              	.LASF5:
 3780 0b59 73686F72 		.ascii	"short unsigned int\000"
 3780      7420756E 
 3780      7369676E 
 3780      65642069 
 3780      6E7400
 3781              	.LASF206:
 3782 0b6c 6765745F 		.ascii	"get_descriptor_cb\000"
 3782      64657363 
 3782      72697074 
 3782      6F725F63 
 3782      6200
 3783              	.LASF76:
 3784 0b7e 63685F73 		.ascii	"ch_system_t\000"
 3784      79737465 
 3784      6D5F7400 
 3785              	.LASF123:
 3786 0b8a 63686465 		.ascii	"chdebug_t\000"
 3786      6275675F 
 3786      7400
 3787              	.LASF170:
ARM GAS  /var/folders/t8/16hdwfmd2fg_d3q6dgx6bpmw0000gn/T//ccvAsxMg.s 			page 77


 3788 0b94 5553425F 		.ascii	"USB_EVENT_SUSPEND\000"
 3788      4556454E 
 3788      545F5355 
 3788      5350454E 
 3788      4400
 3789              	.LASF139:
 3790 0ba6 6F75745F 		.ascii	"out_params\000"
 3790      70617261 
 3790      6D7300
 3791              	.LASF110:
 3792 0bb1 74696D65 		.ascii	"timesize\000"
 3792      73697A65 
 3792      00
 3793              	.LASF6:
 3794 0bba 5F5F696E 		.ascii	"__int32_t\000"
 3794      7433325F 
 3794      7400
 3795              	.LASF247:
 3796 0bc4 6D617472 		.ascii	"matrix_scan\000"
 3796      69785F73 
 3796      63616E00 
 3797              	.LASF119:
 3798 0bd0 6F66665F 		.ascii	"off_flags\000"
 3798      666C6167 
 3798      7300
 3799              	.LASF233:
 3800 0bda 6B657962 		.ascii	"keyboard_set_leds\000"
 3800      6F617264 
 3800      5F736574 
 3800      5F6C6564 
 3800      7300
 3801              	.LASF161:
 3802 0bec 5553425F 		.ascii	"USB_EP0_WAITING_STS\000"
 3802      4550305F 
 3802      57414954 
 3802      494E475F 
 3802      53545300 
 3803              	.LASF230:
 3804 0c00 6D6B5F74 		.ascii	"mk_time_to_max\000"
 3804      696D655F 
 3804      746F5F6D 
 3804      617800
 3805              	.LASF231:
 3806 0c0f 6D6B5F77 		.ascii	"mk_wheel_max_speed\000"
 3806      6865656C 
 3806      5F6D6178 
 3806      5F737065 
 3806      656400
 3807              	.LASF56:
 3808 0c22 6E657874 		.ascii	"next\000"
 3808      00
 3809              	.LASF149:
 3810 0c27 706D6E65 		.ascii	"pmnext\000"
 3810      787400
 3811              	.LASF59:
 3812 0c2e 70726576 		.ascii	"prev\000"
 3812      00
ARM GAS  /var/folders/t8/16hdwfmd2fg_d3q6dgx6bpmw0000gn/T//ccvAsxMg.s 			page 78


 3813              	.LASF105:
 3814 0c33 6964656E 		.ascii	"identifier\000"
 3814      74696669 
 3814      657200
 3815              	.LASF162:
 3816 0c3e 5553425F 		.ascii	"USB_EP0_RX\000"
 3816      4550305F 
 3816      525800
 3817              	.LASF225:
 3818 0c49 636F6D6D 		.ascii	"command_state_t\000"
 3818      616E645F 
 3818      73746174 
 3818      655F7400 
 3819              		.ident	"GCC: (GNU Tools for Arm Embedded Processors 7-2017-q4-major) 7.2.1 20170904 (release) [ARM
ARM GAS  /var/folders/t8/16hdwfmd2fg_d3q6dgx6bpmw0000gn/T//ccvAsxMg.s 			page 79


DEFINED SYMBOLS
                            *ABS*:0000000000000000 keyboard.c
/var/folders/t8/16hdwfmd2fg_d3q6dgx6bpmw0000gn/T//ccvAsxMg.s:16     .text.keyboard_setup:0000000000000000 $t
/var/folders/t8/16hdwfmd2fg_d3q6dgx6bpmw0000gn/T//ccvAsxMg.s:24     .text.keyboard_setup:0000000000000000 keyboard_setup
/var/folders/t8/16hdwfmd2fg_d3q6dgx6bpmw0000gn/T//ccvAsxMg.s:45     .text.keyboard_init:0000000000000000 $t
/var/folders/t8/16hdwfmd2fg_d3q6dgx6bpmw0000gn/T//ccvAsxMg.s:53     .text.keyboard_init:0000000000000000 keyboard_init
/var/folders/t8/16hdwfmd2fg_d3q6dgx6bpmw0000gn/T//ccvAsxMg.s:80     .text.keyboard_task:0000000000000000 $t
/var/folders/t8/16hdwfmd2fg_d3q6dgx6bpmw0000gn/T//ccvAsxMg.s:88     .text.keyboard_task:0000000000000000 keyboard_task
/var/folders/t8/16hdwfmd2fg_d3q6dgx6bpmw0000gn/T//ccvAsxMg.s:313    .text.keyboard_task:0000000000000104 $d
/var/folders/t8/16hdwfmd2fg_d3q6dgx6bpmw0000gn/T//ccvAsxMg.s:321    .text.keyboard_set_leds:0000000000000000 $t
/var/folders/t8/16hdwfmd2fg_d3q6dgx6bpmw0000gn/T//ccvAsxMg.s:329    .text.keyboard_set_leds:0000000000000000 keyboard_set_leds
/var/folders/t8/16hdwfmd2fg_d3q6dgx6bpmw0000gn/T//ccvAsxMg.s:353    .bss.led_status.7206:0000000000000000 led_status.7206
/var/folders/t8/16hdwfmd2fg_d3q6dgx6bpmw0000gn/T//ccvAsxMg.s:354    .bss.led_status.7206:0000000000000000 $d
/var/folders/t8/16hdwfmd2fg_d3q6dgx6bpmw0000gn/T//ccvAsxMg.s:356    .bss.matrix_prev.7205:0000000000000000 $d
/var/folders/t8/16hdwfmd2fg_d3q6dgx6bpmw0000gn/T//ccvAsxMg.s:360    .bss.matrix_prev.7205:0000000000000000 matrix_prev.7205
/var/folders/t8/16hdwfmd2fg_d3q6dgx6bpmw0000gn/T//ccvAsxMg.s:363    .rodata.keyboard_task.str1.4:0000000000000000 $d

UNDEFINED SYMBOLS
matrix_setup
timer_init
matrix_init
bootmagic
matrix_scan
matrix_get_row
timer_read
action_exec
hook_keyboard_loop
mousekey_task
host_keyboard_leds
hook_keyboard_leds_change
hook_matrix_change
matrix_print
tfp_printf
debug_config
led_set
