ARM GAS  /var/folders/t8/16hdwfmd2fg_d3q6dgx6bpmw0000gn/T//cc3Kmn12.s 			page 1


   1              		.cpu cortex-m0plus
   2              		.eabi_attribute 20, 1
   3              		.eabi_attribute 21, 1
   4              		.eabi_attribute 23, 3
   5              		.eabi_attribute 24, 1
   6              		.eabi_attribute 25, 1
   7              		.eabi_attribute 26, 1
   8              		.eabi_attribute 30, 2
   9              		.eabi_attribute 34, 0
  10              		.eabi_attribute 18, 4
  11              		.file	"keymap.c"
  12              		.text
  13              	.Ltext0:
  14              		.cfi_sections	.debug_frame
  15              		.section	.text.keycode_to_action,"ax",%progbits
  16              		.align	1
  17              		.p2align 4,,15
  18              		.syntax unified
  19              		.code	16
  20              		.thumb_func
  21              		.fpu softvfp
  22              		.type	keycode_to_action, %function
  23              	keycode_to_action:
  24              	.LFB180:
  25              		.file 1 "../../tmk_core/common/keymap.c"
  26              		.loc 1 139 0
  27              		.cfi_startproc
  28              		@ args = 0, pretend = 0, frame = 0
  29              		@ frame_needed = 0, uses_anonymous_args = 0
  30              	.LVL0:
  31 0000 10B5     		push	{r4, lr}
  32              		.cfi_def_cfa_offset 8
  33              		.cfi_offset 4, -8
  34              		.cfi_offset 14, -4
  35              		.loc 1 139 0
  36 0002 0300     		movs	r3, r0
  37              		.loc 1 140 0
  38 0004 BC28     		cmp	r0, #188
  39 0006 09D8     		bhi	.L3
  40 0008 A828     		cmp	r0, #168
  41 000a 18D2     		bcs	.L4
  42 000c A428     		cmp	r0, #164
  43 000e 51D8     		bhi	.L5
  44 0010 0428     		cmp	r0, #4
  45 0012 4DD2     		bcs	.L6
  46              		.loc 1 155 0
  47 0014 0120     		movs	r0, #1
  48              	.LVL1:
  49              		.loc 1 140 0
  50 0016 012B     		cmp	r3, #1
  51 0018 0FD1     		bne	.L2
  52              	.L11:
  53              		.loc 1 167 0
  54              		@ sp needed
  55 001a 10BD     		pop	{r4, pc}
  56              	.LVL2:
  57              	.L3:
ARM GAS  /var/folders/t8/16hdwfmd2fg_d3q6dgx6bpmw0000gn/T//cc3Kmn12.s 			page 2


  58              		.loc 1 140 0
  59 001c E728     		cmp	r0, #231
  60 001e 41D8     		bhi	.L8
  61 0020 E028     		cmp	r0, #224
  62 0022 45D2     		bcs	.L6
  63 0024 BF28     		cmp	r0, #191
  64 0026 08D1     		bne	.L2
  65              		.loc 1 158 0
  66 0028 FFF7FEFF 		bl	clear_keyboard
  67              	.LVL3:
  68              		.loc 1 159 0
  69 002c 3220     		movs	r0, #50
  70 002e FFF7FEFF 		bl	chThdSleep
  71              	.LVL4:
  72              		.loc 1 160 0
  73 0032 FFF7FEFF 		bl	bootloader_jump
  74              	.LVL5:
  75              		.loc 1 166 0
  76 0036 0020     		movs	r0, #0
  77 0038 EFE7     		b	.L11
  78              	.L2:
  79              		.loc 1 163 0
  80 003a 0020     		movs	r0, #0
  81 003c EDE7     		b	.L11
  82              	.LVL6:
  83              	.L4:
  84              	.LBB50:
  85              	.LBB51:
  86              		.loc 1 149 0
  87 003e A828     		cmp	r0, #168
  88 0040 42D0     		beq	.L16
  89 0042 A928     		cmp	r0, #169
  90 0044 44D0     		beq	.L17
  91 0046 AA28     		cmp	r0, #170
  92 0048 3CD0     		beq	.L18
  93 004a AB28     		cmp	r0, #171
  94 004c 42D0     		beq	.L19
  95 004e AC28     		cmp	r0, #172
  96 0050 42D0     		beq	.L20
  97 0052 AD28     		cmp	r0, #173
  98 0054 42D0     		beq	.L21
  99 0056 AE28     		cmp	r0, #174
 100 0058 42D0     		beq	.L22
 101 005a AF28     		cmp	r0, #175
 102 005c 42D0     		beq	.L23
 103 005e B128     		cmp	r0, #177
 104 0060 42D0     		beq	.L24
 105 0062 B028     		cmp	r0, #176
 106 0064 42D0     		beq	.L25
 107 0066 B228     		cmp	r0, #178
 108 0068 42D0     		beq	.L26
 109 006a B328     		cmp	r0, #179
 110 006c 42D0     		beq	.L27
 111 006e B428     		cmp	r0, #180
 112 0070 42D0     		beq	.L28
 113 0072 B528     		cmp	r0, #181
 114 0074 42D0     		beq	.L29
ARM GAS  /var/folders/t8/16hdwfmd2fg_d3q6dgx6bpmw0000gn/T//cc3Kmn12.s 			page 3


 115 0076 B628     		cmp	r0, #182
 116 0078 42D0     		beq	.L30
 117 007a B728     		cmp	r0, #183
 118 007c 42D0     		beq	.L31
 119 007e B828     		cmp	r0, #184
 120 0080 42D0     		beq	.L32
 121 0082 B928     		cmp	r0, #185
 122 0084 44D0     		beq	.L33
 123 0086 BA28     		cmp	r0, #186
 124 0088 40D0     		beq	.L34
 125 008a BB28     		cmp	r0, #187
 126 008c 42D0     		beq	.L35
 127 008e BC3B     		subs	r3, r3, #188
 128 0090 5842     		rsbs	r0, r3, #0
 129 0092 4341     		adcs	r3, r3, r0
 130              	.LVL7:
 131 0094 2048     		ldr	r0, .L40
 132 0096 5B42     		rsbs	r3, r3, #0
 133 0098 1840     		ands	r0, r3
 134 009a 8823     		movs	r3, #136
 135 009c DB01     		lsls	r3, r3, #7
 136 009e 9C46     		mov	ip, r3
 137 00a0 6044     		add	r0, r0, ip
 138 00a2 BAE7     		b	.L11
 139              	.LVL8:
 140              	.L8:
 141              	.LBE51:
 142              	.LBE50:
 143              		.loc 1 140 0
 144 00a4 F028     		cmp	r0, #240
 145 00a6 C8D3     		bcc	.L2
 146              		.loc 1 152 0
 147 00a8 A020     		movs	r0, #160
 148              	.LVL9:
 149 00aa C001     		lsls	r0, r0, #7
 150 00ac 1843     		orrs	r0, r3
 151 00ae B4E7     		b	.L11
 152              	.LVL10:
 153              	.L6:
 154              		.loc 1 143 0
 155 00b0 181C     		adds	r0, r3, #0
 156              	.LVL11:
 157 00b2 B2E7     		b	.L11
 158              	.LVL12:
 159              	.L5:
 160              		.loc 1 146 0
 161 00b4 A528     		cmp	r0, #165
 162 00b6 09D0     		beq	.L14
 163              		.loc 1 146 0 is_stmt 0 discriminator 1
 164 00b8 A63B     		subs	r3, r3, #166
 165 00ba 581E     		subs	r0, r3, #1
 166 00bc 8341     		sbcs	r3, r3, r0
 167              	.LVL13:
 168 00be 174A     		ldr	r2, .L40+4
 169 00c0 9818     		adds	r0, r3, r2
 170 00c2 AAE7     		b	.L11
 171              	.LVL14:
ARM GAS  /var/folders/t8/16hdwfmd2fg_d3q6dgx6bpmw0000gn/T//cc3Kmn12.s 			page 4


 172              	.L18:
 173              	.LBB54:
 174              	.LBB52:
 175              		.loc 1 149 0 is_stmt 1
 176 00c4 1648     		ldr	r0, .L40+8
 177              	.LVL15:
 178 00c6 A8E7     		b	.L11
 179              	.LVL16:
 180              	.L16:
 181 00c8 1648     		ldr	r0, .L40+12
 182              	.LVL17:
 183 00ca A6E7     		b	.L11
 184              	.LVL18:
 185              	.L14:
 186              	.LBE52:
 187              	.LBE54:
 188              		.loc 1 146 0
 189 00cc 1648     		ldr	r0, .L40+16
 190              	.LVL19:
 191 00ce A4E7     		b	.L11
 192              	.LVL20:
 193              	.L17:
 194              	.LBB55:
 195              	.LBB53:
 196              		.loc 1 149 0
 197 00d0 1648     		ldr	r0, .L40+20
 198              	.LVL21:
 199 00d2 A2E7     		b	.L11
 200              	.LVL22:
 201              	.L19:
 202 00d4 1648     		ldr	r0, .L40+24
 203              	.LVL23:
 204 00d6 A0E7     		b	.L11
 205              	.LVL24:
 206              	.L20:
 207 00d8 1648     		ldr	r0, .L40+28
 208              	.LVL25:
 209 00da 9EE7     		b	.L11
 210              	.LVL26:
 211              	.L21:
 212 00dc 1648     		ldr	r0, .L40+32
 213              	.LVL27:
 214 00de 9CE7     		b	.L11
 215              	.LVL28:
 216              	.L22:
 217 00e0 1648     		ldr	r0, .L40+36
 218              	.LVL29:
 219 00e2 9AE7     		b	.L11
 220              	.LVL30:
 221              	.L23:
 222 00e4 1648     		ldr	r0, .L40+40
 223              	.LVL31:
 224 00e6 98E7     		b	.L11
 225              	.LVL32:
 226              	.L24:
 227 00e8 1648     		ldr	r0, .L40+44
 228              	.LVL33:
ARM GAS  /var/folders/t8/16hdwfmd2fg_d3q6dgx6bpmw0000gn/T//cc3Kmn12.s 			page 5


 229 00ea 96E7     		b	.L11
 230              	.LVL34:
 231              	.L25:
 232 00ec 1648     		ldr	r0, .L40+48
 233              	.LVL35:
 234 00ee 94E7     		b	.L11
 235              	.LVL36:
 236              	.L26:
 237 00f0 1648     		ldr	r0, .L40+52
 238              	.LVL37:
 239 00f2 92E7     		b	.L11
 240              	.LVL38:
 241              	.L27:
 242 00f4 1648     		ldr	r0, .L40+56
 243              	.LVL39:
 244 00f6 90E7     		b	.L11
 245              	.LVL40:
 246              	.L28:
 247 00f8 1648     		ldr	r0, .L40+60
 248              	.LVL41:
 249 00fa 8EE7     		b	.L11
 250              	.LVL42:
 251              	.L29:
 252 00fc 1648     		ldr	r0, .L40+64
 253              	.LVL43:
 254 00fe 8CE7     		b	.L11
 255              	.LVL44:
 256              	.L30:
 257 0100 1648     		ldr	r0, .L40+68
 258              	.LVL45:
 259 0102 8AE7     		b	.L11
 260              	.LVL46:
 261              	.L31:
 262 0104 1648     		ldr	r0, .L40+72
 263              	.LVL47:
 264 0106 88E7     		b	.L11
 265              	.LVL48:
 266              	.L32:
 267 0108 1648     		ldr	r0, .L40+76
 268              	.LVL49:
 269 010a 86E7     		b	.L11
 270              	.LVL50:
 271              	.L34:
 272 010c 1648     		ldr	r0, .L40+80
 273              	.LVL51:
 274 010e 84E7     		b	.L11
 275              	.LVL52:
 276              	.L33:
 277 0110 1648     		ldr	r0, .L40+84
 278              	.LVL53:
 279 0112 82E7     		b	.L11
 280              	.LVL54:
 281              	.L35:
 282 0114 1648     		ldr	r0, .L40+88
 283              	.LVL55:
 284 0116 80E7     		b	.L11
 285              	.L41:
ARM GAS  /var/folders/t8/16hdwfmd2fg_d3q6dgx6bpmw0000gn/T//cc3Kmn12.s 			page 6


 286              		.align	2
 287              	.L40:
 288 0118 2A020000 		.word	554
 289 011c 82400000 		.word	16514
 290 0120 EA440000 		.word	17642
 291 0124 E2440000 		.word	17634
 292 0128 81400000 		.word	16513
 293 012c E9440000 		.word	17641
 294 0130 B5440000 		.word	17589
 295 0134 B6440000 		.word	17590
 296 0138 B3440000 		.word	17587
 297 013c B4440000 		.word	17588
 298 0140 B7440000 		.word	17591
 299 0144 CC440000 		.word	17612
 300 0148 CD440000 		.word	17613
 301 014c 83450000 		.word	17795
 302 0150 8A450000 		.word	17802
 303 0154 92450000 		.word	17810
 304 0158 94450000 		.word	17812
 305 015c 21460000 		.word	17953
 306 0160 23460000 		.word	17955
 307 0164 24460000 		.word	17956
 308 0168 26460000 		.word	17958
 309 016c 25460000 		.word	17957
 310 0170 27460000 		.word	17959
 311              	.LBE53:
 312              	.LBE55:
 313              		.cfi_endproc
 314              	.LFE180:
 315              		.size	keycode_to_action, .-keycode_to_action
 316              		.section	.text.action_get_macro,"ax",%progbits
 317              		.align	1
 318              		.p2align 4,,15
 319              		.weak	action_get_macro
 320              		.syntax unified
 321              		.code	16
 322              		.thumb_func
 323              		.fpu softvfp
 324              		.type	action_get_macro, %function
 325              	action_get_macro:
 326              	.LFB178:
 327              		.loc 1 119 0
 328              		.cfi_startproc
 329              		@ args = 0, pretend = 0, frame = 0
 330              		@ frame_needed = 0, uses_anonymous_args = 0
 331              		@ link register save eliminated.
 332              	.LVL56:
 333              		.loc 1 124 0
 334 0000 0020     		movs	r0, #0
 335              	.LVL57:
 336              		@ sp needed
 337 0002 7047     		bx	lr
 338              		.cfi_endproc
 339              	.LFE178:
 340              		.size	action_get_macro, .-action_get_macro
 341              		.section	.text.action_function,"ax",%progbits
 342              		.align	1
ARM GAS  /var/folders/t8/16hdwfmd2fg_d3q6dgx6bpmw0000gn/T//cc3Kmn12.s 			page 7


 343              		.p2align 4,,15
 344              		.weak	action_function
 345              		.syntax unified
 346              		.code	16
 347              		.thumb_func
 348              		.fpu softvfp
 349              		.type	action_function, %function
 350              	action_function:
 351              	.LFB179:
 352              		.loc 1 129 0
 353              		.cfi_startproc
 354              		@ args = 0, pretend = 0, frame = 0
 355              		@ frame_needed = 0, uses_anonymous_args = 0
 356              		@ link register save eliminated.
 357              	.LVL58:
 358              		.loc 1 133 0
 359              		@ sp needed
 360 0000 7047     		bx	lr
 361              		.cfi_endproc
 362              	.LFE179:
 363              		.size	action_function, .-action_function
 364 0002 C046     		.section	.text.keymap_key_to_keycode,"ax",%progbits
 365              		.align	1
 366              		.p2align 4,,15
 367              		.weak	keymap_key_to_keycode
 368              		.syntax unified
 369              		.code	16
 370              		.thumb_func
 371              		.fpu softvfp
 372              		.type	keymap_key_to_keycode, %function
 373              	keymap_key_to_keycode:
 374              	.LFB181:
 375              		.loc 1 234 0
 376              		.cfi_startproc
 377              		@ args = 0, pretend = 0, frame = 8
 378              		@ frame_needed = 0, uses_anonymous_args = 0
 379              		@ link register save eliminated.
 380              	.LVL59:
 381 0000 0A04     		lsls	r2, r1, #16
 382              		.loc 1 238 0
 383 0002 120E     		lsrs	r2, r2, #24
 384 0004 9300     		lsls	r3, r2, #2
 385 0006 9B18     		adds	r3, r3, r2
 386 0008 5B00     		lsls	r3, r3, #1
 387 000a 9B18     		adds	r3, r3, r2
 388 000c 2C22     		movs	r2, #44
 389 000e 5043     		muls	r0, r2
 390              	.LVL60:
 391 0010 1818     		adds	r0, r3, r0
 392 0012 034B     		ldr	r3, .L45
 393 0014 C9B2     		uxtb	r1, r1
 394 0016 1818     		adds	r0, r3, r0
 395 0018 405C     		ldrb	r0, [r0, r1]
 396              		.loc 1 234 0
 397 001a 82B0     		sub	sp, sp, #8
 398              		.cfi_def_cfa_offset 8
 399              		.loc 1 240 0
ARM GAS  /var/folders/t8/16hdwfmd2fg_d3q6dgx6bpmw0000gn/T//cc3Kmn12.s 			page 8


 400 001c 02B0     		add	sp, sp, #8
 401              		@ sp needed
 402 001e 7047     		bx	lr
 403              	.L46:
 404              		.align	2
 405              	.L45:
 406 0020 00000000 		.word	keymaps
 407              		.cfi_endproc
 408              	.LFE181:
 409              		.size	keymap_key_to_keycode, .-keymap_key_to_keycode
 410              		.section	.text.keymap_fn_to_action,"ax",%progbits
 411              		.align	1
 412              		.p2align 4,,15
 413              		.weak	keymap_fn_to_action
 414              		.syntax unified
 415              		.code	16
 416              		.thumb_func
 417              		.fpu softvfp
 418              		.type	keymap_fn_to_action, %function
 419              	keymap_fn_to_action:
 420              	.LFB182:
 421              		.loc 1 244 0
 422              		.cfi_startproc
 423              		@ args = 0, pretend = 0, frame = 0
 424              		@ frame_needed = 0, uses_anonymous_args = 0
 425              		@ link register save eliminated.
 426              	.LVL61:
 427              		.loc 1 248 0
 428 0000 024B     		ldr	r3, .L48
 429 0002 C038     		subs	r0, r0, #192
 430              	.LVL62:
 431 0004 4000     		lsls	r0, r0, #1
 432 0006 C05A     		ldrh	r0, [r0, r3]
 433              		.loc 1 250 0
 434              		@ sp needed
 435 0008 7047     		bx	lr
 436              	.L49:
 437 000a C046     		.align	2
 438              	.L48:
 439 000c 00000000 		.word	fn_actions
 440              		.cfi_endproc
 441              	.LFE182:
 442              		.size	keymap_fn_to_action, .-keymap_fn_to_action
 443              		.section	.text.action_for_key,"ax",%progbits
 444              		.align	1
 445              		.p2align 4,,15
 446              		.weak	action_for_key
 447              		.syntax unified
 448              		.code	16
 449              		.thumb_func
 450              		.fpu softvfp
 451              		.type	action_for_key, %function
 452              	action_for_key:
 453              	.LFB177:
 454              		.loc 1 40 0
 455              		.cfi_startproc
 456              		@ args = 0, pretend = 0, frame = 8
ARM GAS  /var/folders/t8/16hdwfmd2fg_d3q6dgx6bpmw0000gn/T//cc3Kmn12.s 			page 9


 457              		@ frame_needed = 0, uses_anonymous_args = 0
 458              	.LVL63:
 459 0000 00B5     		push	{lr}
 460              		.cfi_def_cfa_offset 4
 461              		.cfi_offset 14, -4
 462 0002 83B0     		sub	sp, sp, #12
 463              		.cfi_def_cfa_offset 16
 464              		.loc 1 40 0
 465 0004 01AB     		add	r3, sp, #4
 466 0006 1980     		strh	r1, [r3]
 467              		.loc 1 41 0
 468 0008 0199     		ldr	r1, [sp, #4]
 469 000a FFF7FEFF 		bl	keymap_key_to_keycode
 470              	.LVL64:
 471              		.loc 1 42 0
 472 000e DF28     		cmp	r0, #223
 473 0010 0ED8     		bhi	.L52
 474 0012 C028     		cmp	r0, #192
 475 0014 3AD2     		bcs	.L53
 476 0016 3128     		cmp	r0, #49
 477 0018 42D0     		beq	.L54
 478 001a 18D8     		bhi	.L55
 479 001c 2928     		cmp	r0, #41
 480 001e 2FD0     		beq	.L56
 481 0020 2A28     		cmp	r0, #42
 482 0022 4FD1     		bne	.L51
 483              		.loc 1 105 0
 484 0024 2D4B     		ldr	r3, .L106
 485 0026 1B78     		ldrb	r3, [r3]
 486 0028 5B06     		lsls	r3, r3, #25
 487 002a 3DD5     		bpl	.L77
 488              	.L76:
 489              	.LVL65:
 490 002c 3120     		movs	r0, #49
 491              	.LVL66:
 492 002e 2FE0     		b	.L66
 493              	.LVL67:
 494              	.L52:
 495              		.loc 1 42 0
 496 0030 E328     		cmp	r0, #227
 497 0032 3BD0     		beq	.L60
 498 0034 17D9     		bls	.L104
 499 0036 E628     		cmp	r0, #230
 500 0038 3ED0     		beq	.L64
 501 003a E728     		cmp	r0, #231
 502 003c 42D1     		bne	.L51
 503              		.loc 1 82 0
 504 003e 274B     		ldr	r3, .L106
 505 0040 1B78     		ldrb	r3, [r3]
 506 0042 1A07     		lsls	r2, r3, #28
 507 0044 3CD4     		bmi	.L72
 508              	.L103:
 509              		.loc 1 85 0
 510 0046 DB06     		lsls	r3, r3, #27
 511 0048 46D5     		bpl	.L105
 512              	.LVL68:
 513 004a 0020     		movs	r0, #0
ARM GAS  /var/folders/t8/16hdwfmd2fg_d3q6dgx6bpmw0000gn/T//cc3Kmn12.s 			page 10


 514              	.LVL69:
 515 004c 20E0     		b	.L66
 516              	.LVL70:
 517              	.L55:
 518              		.loc 1 42 0
 519 004e 3928     		cmp	r0, #57
 520 0050 20D0     		beq	.L58
 521 0052 8228     		cmp	r0, #130
 522 0054 1ED0     		beq	.L58
 523 0056 3528     		cmp	r0, #53
 524 0058 34D1     		bne	.L51
 525              		.loc 1 90 0
 526 005a 204B     		ldr	r3, .L106
 527 005c 1B78     		ldrb	r3, [r3]
 528 005e 9B06     		lsls	r3, r3, #26
 529 0060 12D5     		bpl	.L74
 530              	.L75:
 531              	.LVL71:
 532 0062 2920     		movs	r0, #41
 533              	.LVL72:
 534 0064 14E0     		b	.L66
 535              	.LVL73:
 536              	.L104:
 537              		.loc 1 42 0
 538 0066 E028     		cmp	r0, #224
 539 0068 2FD0     		beq	.L62
 540 006a E228     		cmp	r0, #226
 541 006c 2AD1     		bne	.L51
 542              		.loc 1 58 0
 543 006e 1B4B     		ldr	r3, .L106
 544 0070 1B78     		ldrb	r3, [r3]
 545 0072 5A07     		lsls	r2, r3, #29
 546 0074 1ED5     		bpl	.L69
 547              	.L102:
 548 0076 E320     		movs	r0, #227
 549              	.LVL74:
 550              		.loc 1 59 0
 551 0078 DB06     		lsls	r3, r3, #27
 552 007a 09D5     		bpl	.L66
 553              	.LVL75:
 554 007c 0020     		movs	r0, #0
 555 007e 07E0     		b	.L66
 556              	.LVL76:
 557              	.L56:
 558              		.loc 1 95 0
 559 0080 164B     		ldr	r3, .L106
 560 0082 1B78     		ldrb	r3, [r3]
 561 0084 9B06     		lsls	r3, r3, #26
 562 0086 ECD5     		bpl	.L75
 563              	.L74:
 564              	.LVL77:
 565 0088 3520     		movs	r0, #53
 566              	.LVL78:
 567 008a 01E0     		b	.L66
 568              	.LVL79:
 569              	.L53:
 570              		.loc 1 44 0
ARM GAS  /var/folders/t8/16hdwfmd2fg_d3q6dgx6bpmw0000gn/T//cc3Kmn12.s 			page 11


 571 008c FFF7FEFF 		bl	keymap_fn_to_action
 572              	.LVL80:
 573              	.L66:
 574              		.loc 1 113 0
 575 0090 03B0     		add	sp, sp, #12
 576              		@ sp needed
 577 0092 00BD     		pop	{pc}
 578              	.LVL81:
 579              	.L58:
 580              		.loc 1 48 0
 581 0094 114B     		ldr	r3, .L106
 582 0096 1B78     		ldrb	r3, [r3]
 583 0098 9B07     		lsls	r3, r3, #30
 584 009a 13D0     		beq	.L51
 585              	.LVL82:
 586 009c E020     		movs	r0, #224
 587              	.LVL83:
 588 009e F7E7     		b	.L66
 589              	.LVL84:
 590              	.L54:
 591              		.loc 1 100 0
 592 00a0 0E4B     		ldr	r3, .L106
 593 00a2 1B78     		ldrb	r3, [r3]
 594 00a4 5B06     		lsls	r3, r3, #25
 595 00a6 C1D5     		bpl	.L76
 596              	.L77:
 597              	.LVL85:
 598 00a8 2A20     		movs	r0, #42
 599              	.LVL86:
 600 00aa F1E7     		b	.L66
 601              	.LVL87:
 602              	.L60:
 603              		.loc 1 66 0
 604 00ac 0B4B     		ldr	r3, .L106
 605 00ae 1B78     		ldrb	r3, [r3]
 606 00b0 5A07     		lsls	r2, r3, #29
 607 00b2 E0D5     		bpl	.L102
 608              	.L69:
 609              	.LVL88:
 610 00b4 E220     		movs	r0, #226
 611              	.LVL89:
 612 00b6 EBE7     		b	.L66
 613              	.LVL90:
 614              	.L64:
 615              		.loc 1 74 0
 616 00b8 084B     		ldr	r3, .L106
 617 00ba 1B78     		ldrb	r3, [r3]
 618 00bc 1A07     		lsls	r2, r3, #28
 619 00be C2D4     		bmi	.L103
 620              	.L72:
 621              	.LVL91:
 622 00c0 E620     		movs	r0, #230
 623              	.LVL92:
 624 00c2 E5E7     		b	.L66
 625              	.LVL93:
 626              	.L51:
 627              		.loc 1 111 0
ARM GAS  /var/folders/t8/16hdwfmd2fg_d3q6dgx6bpmw0000gn/T//cc3Kmn12.s 			page 12


 628 00c4 FFF7FEFF 		bl	keycode_to_action
 629              	.LVL94:
 630 00c8 E2E7     		b	.L66
 631              	.LVL95:
 632              	.L62:
 633              		.loc 1 53 0
 634 00ca 044B     		ldr	r3, .L106
 635 00cc 3920     		movs	r0, #57
 636              	.LVL96:
 637 00ce 1B78     		ldrb	r3, [r3]
 638 00d0 DB07     		lsls	r3, r3, #31
 639 00d2 DDD4     		bmi	.L66
 640              	.LVL97:
 641 00d4 E020     		movs	r0, #224
 642 00d6 DBE7     		b	.L66
 643              	.LVL98:
 644              	.L105:
 645 00d8 E720     		movs	r0, #231
 646              	.LVL99:
 647 00da D9E7     		b	.L66
 648              	.L107:
 649              		.align	2
 650              	.L106:
 651 00dc 00000000 		.word	keymap_config
 652              		.cfi_endproc
 653              	.LFE177:
 654              		.size	action_for_key, .-action_for_key
 655              		.text
 656              	.Letext0:
 657              		.file 2 "/usr/local/Caskroom/gcc-arm-embedded/7-2017-q4-major/gcc-arm-none-eabi-7-2017-q4-major/ar
 658              		.file 3 "/usr/local/Caskroom/gcc-arm-embedded/7-2017-q4-major/gcc-arm-none-eabi-7-2017-q4-major/ar
 659              		.file 4 "../../tmk_core/common/keyboard.h"
 660              		.file 5 "../../tmk_core/common/keycode.h"
 661              		.file 6 "../../tmk_core/common/action_code.h"
 662              		.file 7 "../../tmk_core/common/action_macro.h"
 663              		.file 8 "../../tmk_core/common/action.h"
 664              		.file 9 "../../tmk_core/common/keymap.h"
 665              		.file 10 "/usr/local/Caskroom/gcc-arm-embedded/7-2017-q4-major/gcc-arm-none-eabi-7-2017-q4-major/l
 666              		.file 11 "../../tmk_core/tool/chibios/ChibiOS/os/common/ports/ARMCMx/compilers/GCC/chtypes.h"
 667              		.file 12 "../../tmk_core/tool/chibios/ChibiOS/os/rt/include/chsystypes.h"
 668              		.file 13 "../../tmk_core/tool/chibios/ChibiOS/os/rt/include/chschd.h"
 669              		.file 14 "../../tmk_core/tool/chibios/ChibiOS-Contrib/os/common/ext/CMSIS/KINETIS/kl2xz.h"
 670              		.file 15 "../../tmk_core/tool/chibios/ChibiOS/os/common/ports/ARMCMx/chcore.h"
 671              		.file 16 "../../tmk_core/tool/chibios/ChibiOS/os/common/ports/ARMCMx/chcore_v6m.h"
 672              		.file 17 "../../tmk_core/tool/chibios/ChibiOS/os/rt/include/chsem.h"
 673              		.file 18 "../../tmk_core/tool/chibios/ChibiOS/os/rt/include/chmtx.h"
 674              		.file 19 "../../tmk_core/tool/chibios/ChibiOS/os/rt/include/chregistry.h"
 675              		.file 20 "../../tmk_core/tool/chibios/ChibiOS/os/rt/include/chsys.h"
 676              		.file 21 "../../tmk_core/tool/chibios/ChibiOS-Contrib/os/hal/ports/KINETIS/LLD/hal_pal_lld.h"
 677              		.file 22 "../../tmk_core/tool/chibios/ChibiOS/os/hal/include/hal_usb.h"
 678              		.file 23 "../../tmk_core/tool/chibios/ChibiOS-Contrib/os/hal/ports/KINETIS/LLD/hal_usb_lld.h"
 679              		.file 24 "../../tmk_core/common/action_layer.h"
 680              		.file 25 "../../tmk_core/common/debug.h"
 681              		.file 26 "../../tmk_core/tool/chibios/ChibiOS/os/rt/include/chthreads.h"
 682              		.file 27 "../../tmk_core/common/bootloader.h"