ARM GAS  /var/folders/t8/16hdwfmd2fg_d3q6dgx6bpmw0000gn/T//ccFguns6.s 			page 1


   1              		.cpu cortex-m0plus
   2              		.eabi_attribute 20, 1
   3              		.eabi_attribute 21, 1
   4              		.eabi_attribute 23, 3
   5              		.eabi_attribute 24, 1
   6              		.eabi_attribute 25, 1
   7              		.eabi_attribute 26, 1
   8              		.eabi_attribute 30, 2
   9              		.eabi_attribute 34, 0
  10              		.eabi_attribute 18, 4
  11              		.file	"memstreams.c"
  12              		.text
  13              	.Ltext0:
  14              		.cfi_sections	.debug_frame
  15              		.section	.text.put,"ax",%progbits
  16              		.align	1
  17              		.p2align 4,,15
  18              		.syntax unified
  19              		.code	16
  20              		.thumb_func
  21              		.fpu softvfp
  22              		.type	put, %function
  23              	put:
  24              	.LFB176:
  25              		.file 1 "../../tmk_core/tool/chibios/ChibiOS/os/hal/lib/streams/memstreams.c"
  26              		.loc 1 66 0
  27              		.cfi_startproc
  28              		@ args = 0, pretend = 0, frame = 0
  29              		@ frame_needed = 0, uses_anonymous_args = 0
  30              		@ link register save eliminated.
  31              	.LVL0:
  32              		.loc 1 69 0
  33 0000 C368     		ldr	r3, [r0, #12]
  34 0002 8268     		ldr	r2, [r0, #8]
  35 0004 9A42     		cmp	r2, r3
  36 0006 06D0     		beq	.L3
  37              		.loc 1 71 0
  38 0008 4268     		ldr	r2, [r0, #4]
  39 000a D154     		strb	r1, [r2, r3]
  40              		.loc 1 72 0
  41 000c C368     		ldr	r3, [r0, #12]
  42 000e 0133     		adds	r3, r3, #1
  43 0010 C360     		str	r3, [r0, #12]
  44              		.loc 1 73 0
  45 0012 0020     		movs	r0, #0
  46              	.LVL1:
  47              	.L1:
  48              		.loc 1 74 0
  49              		@ sp needed
  50 0014 7047     		bx	lr
  51              	.LVL2:
  52              	.L3:
  53              		.loc 1 70 0
  54 0016 0220     		movs	r0, #2
  55              	.LVL3:
  56 0018 4042     		rsbs	r0, r0, #0
  57 001a FBE7     		b	.L1
ARM GAS  /var/folders/t8/16hdwfmd2fg_d3q6dgx6bpmw0000gn/T//ccFguns6.s 			page 2


  58              		.cfi_endproc
  59              	.LFE176:
  60              		.size	put, .-put
  61              		.section	.text.get,"ax",%progbits
  62              		.align	1
  63              		.p2align 4,,15
  64              		.syntax unified
  65              		.code	16
  66              		.thumb_func
  67              		.fpu softvfp
  68              		.type	get, %function
  69              	get:
  70              	.LFB177:
  71              		.loc 1 76 0
  72              		.cfi_startproc
  73              		@ args = 0, pretend = 0, frame = 0
  74              		@ frame_needed = 0, uses_anonymous_args = 0
  75              		@ link register save eliminated.
  76              	.LVL4:
  77              		.loc 1 80 0
  78 0000 0369     		ldr	r3, [r0, #16]
  79 0002 C268     		ldr	r2, [r0, #12]
  80 0004 9A42     		cmp	r2, r3
  81 0006 05D0     		beq	.L7
  82              		.loc 1 82 0
  83 0008 4268     		ldr	r2, [r0, #4]
  84 000a D25C     		ldrb	r2, [r2, r3]
  85              	.LVL5:
  86              		.loc 1 83 0
  87 000c 0133     		adds	r3, r3, #1
  88 000e 0361     		str	r3, [r0, #16]
  89              		.loc 1 84 0
  90 0010 1000     		movs	r0, r2
  91              	.LVL6:
  92              	.L5:
  93              		.loc 1 85 0
  94              		@ sp needed
  95 0012 7047     		bx	lr
  96              	.LVL7:
  97              	.L7:
  98              		.loc 1 81 0
  99 0014 0220     		movs	r0, #2
 100              	.LVL8:
 101 0016 4042     		rsbs	r0, r0, #0
 102 0018 FBE7     		b	.L5
 103              		.cfi_endproc
 104              	.LFE177:
 105              		.size	get, .-get
 106 001a C046     		.section	.text.reads,"ax",%progbits
 107              		.align	1
 108              		.p2align 4,,15
 109              		.syntax unified
 110              		.code	16
 111              		.thumb_func
 112              		.fpu softvfp
 113              		.type	reads, %function
 114              	reads:
ARM GAS  /var/folders/t8/16hdwfmd2fg_d3q6dgx6bpmw0000gn/T//ccFguns6.s 			page 3


 115              	.LFB175:
 116              		.loc 1 56 0
 117              		.cfi_startproc
 118              		@ args = 0, pretend = 0, frame = 0
 119              		@ frame_needed = 0, uses_anonymous_args = 0
 120              	.LVL9:
 121 0000 70B5     		push	{r4, r5, r6, lr}
 122              		.cfi_def_cfa_offset 16
 123              		.cfi_offset 4, -16
 124              		.cfi_offset 5, -12
 125              		.cfi_offset 6, -8
 126              		.cfi_offset 14, -4
 127              		.loc 1 56 0
 128 0002 0500     		movs	r5, r0
 129              	.LVL10:
 130 0004 0800     		movs	r0, r1
 131              	.LVL11:
 132              		.loc 1 59 0
 133 0006 EB68     		ldr	r3, [r5, #12]
 134 0008 2969     		ldr	r1, [r5, #16]
 135              	.LVL12:
 136 000a 5C1A     		subs	r4, r3, r1
 137 000c 9442     		cmp	r4, r2
 138 000e 00D9     		bls	.L9
 139 0010 1400     		movs	r4, r2
 140              	.L9:
 141              	.LVL13:
 142              		.loc 1 61 0
 143 0012 6B68     		ldr	r3, [r5, #4]
 144 0014 2200     		movs	r2, r4
 145 0016 9C46     		mov	ip, r3
 146 0018 6144     		add	r1, r1, ip
 147 001a FFF7FEFF 		bl	memcpy
 148              	.LVL14:
 149              		.loc 1 62 0
 150 001e 2B69     		ldr	r3, [r5, #16]
 151              		.loc 1 64 0
 152 0020 2000     		movs	r0, r4
 153              		.loc 1 62 0
 154 0022 1B19     		adds	r3, r3, r4
 155 0024 2B61     		str	r3, [r5, #16]
 156              		.loc 1 64 0
 157              		@ sp needed
 158              	.LVL15:
 159              	.LVL16:
 160 0026 70BD     		pop	{r4, r5, r6, pc}
 161              		.cfi_endproc
 162              	.LFE175:
 163              		.size	reads, .-reads
 164              		.section	.text.writes,"ax",%progbits
 165              		.align	1
 166              		.p2align 4,,15
 167              		.syntax unified
 168              		.code	16
 169              		.thumb_func
 170              		.fpu softvfp
 171              		.type	writes, %function
ARM GAS  /var/folders/t8/16hdwfmd2fg_d3q6dgx6bpmw0000gn/T//ccFguns6.s 			page 4


 172              	writes:
 173              	.LFB174:
 174              		.loc 1 46 0
 175              		.cfi_startproc
 176              		@ args = 0, pretend = 0, frame = 0
 177              		@ frame_needed = 0, uses_anonymous_args = 0
 178              	.LVL17:
 179 0000 70B5     		push	{r4, r5, r6, lr}
 180              		.cfi_def_cfa_offset 16
 181              		.cfi_offset 4, -16
 182              		.cfi_offset 5, -12
 183              		.cfi_offset 6, -8
 184              		.cfi_offset 14, -4
 185              		.loc 1 46 0
 186 0002 0500     		movs	r5, r0
 187              		.loc 1 49 0
 188 0004 C068     		ldr	r0, [r0, #12]
 189              	.LVL18:
 190 0006 AB68     		ldr	r3, [r5, #8]
 191 0008 1C1A     		subs	r4, r3, r0
 192 000a 9442     		cmp	r4, r2
 193 000c 00D9     		bls	.L11
 194 000e 1400     		movs	r4, r2
 195              	.L11:
 196              	.LVL19:
 197              		.loc 1 51 0
 198 0010 6B68     		ldr	r3, [r5, #4]
 199 0012 2200     		movs	r2, r4
 200 0014 9C46     		mov	ip, r3
 201 0016 6044     		add	r0, r0, ip
 202 0018 FFF7FEFF 		bl	memcpy
 203              	.LVL20:
 204              		.loc 1 52 0
 205 001c EB68     		ldr	r3, [r5, #12]
 206              		.loc 1 54 0
 207 001e 2000     		movs	r0, r4
 208              		.loc 1 52 0
 209 0020 1B19     		adds	r3, r3, r4
 210 0022 EB60     		str	r3, [r5, #12]
 211              		.loc 1 54 0
 212              		@ sp needed
 213              	.LVL21:
 214              	.LVL22:
 215 0024 70BD     		pop	{r4, r5, r6, pc}
 216              		.cfi_endproc
 217              	.LFE174:
 218              		.size	writes, .-writes
 219 0026 C046     		.section	.text.msObjectInit,"ax",%progbits
 220              		.align	1
 221              		.p2align 4,,15
 222              		.global	msObjectInit
 223              		.syntax unified
 224              		.code	16
 225              		.thumb_func
 226              		.fpu softvfp
 227              		.type	msObjectInit, %function
 228              	msObjectInit:
ARM GAS  /var/folders/t8/16hdwfmd2fg_d3q6dgx6bpmw0000gn/T//ccFguns6.s 			page 5


 229              	.LFB178:
 230              		.loc 1 104 0
 231              		.cfi_startproc
 232              		@ args = 0, pretend = 0, frame = 0
 233              		@ frame_needed = 0, uses_anonymous_args = 0
 234              	.LVL23:
 235              		.loc 1 109 0
 236 0000 C360     		str	r3, [r0, #12]
 237              		.loc 1 110 0
 238 0002 0023     		movs	r3, #0
 239              	.LVL24:
 240              		.loc 1 104 0
 241 0004 10B5     		push	{r4, lr}
 242              		.cfi_def_cfa_offset 8
 243              		.cfi_offset 4, -8
 244              		.cfi_offset 14, -4
 245              		.loc 1 106 0
 246 0006 034C     		ldr	r4, .L13
 247              		.loc 1 107 0
 248 0008 4160     		str	r1, [r0, #4]
 249              		.loc 1 106 0
 250 000a 0460     		str	r4, [r0]
 251              		.loc 1 108 0
 252 000c 8260     		str	r2, [r0, #8]
 253              		.loc 1 110 0
 254 000e 0361     		str	r3, [r0, #16]
 255              		.loc 1 111 0
 256              		@ sp needed
 257 0010 10BD     		pop	{r4, pc}
 258              	.L14:
 259 0012 C046     		.align	2
 260              	.L13:
 261 0014 00000000 		.word	.LANCHOR0
 262              		.cfi_endproc
 263              	.LFE178:
 264              		.size	msObjectInit, .-msObjectInit
 265              		.section	.rodata.vmt,"a",%progbits
 266              		.align	2
 267              		.set	.LANCHOR0,. + 0
 268              		.type	vmt, %object
 269              		.size	vmt, 16
 270              	vmt:
 271 0000 00000000 		.word	writes
 272 0004 00000000 		.word	reads
 273 0008 00000000 		.word	put
 274 000c 00000000 		.word	get
 275              		.text
 276              	.Letext0:
 277              		.file 2 "/usr/local/Caskroom/gcc-arm-embedded/7-2017-q4-major/gcc-arm-none-eabi-7-2017-q4-major/li
 278              		.file 3 "/usr/local/Caskroom/gcc-arm-embedded/7-2017-q4-major/gcc-arm-none-eabi-7-2017-q4-major/ar
 279              		.file 4 "/usr/local/Caskroom/gcc-arm-embedded/7-2017-q4-major/gcc-arm-none-eabi-7-2017-q4-major/ar
 280              		.file 5 "/usr/local/Caskroom/gcc-arm-embedded/7-2017-q4-major/gcc-arm-none-eabi-7-2017-q4-major/ar
 281              		.file 6 "/usr/local/Caskroom/gcc-arm-embedded/7-2017-q4-major/gcc-arm-none-eabi-7-2017-q4-major/ar
 282              		.file 7 "/usr/local/Caskroom/gcc-arm-embedded/7-2017-q4-major/gcc-arm-none-eabi-7-2017-q4-major/ar
 283              		.file 8 "../../tmk_core/tool/chibios/ChibiOS/os/common/ports/ARMCMx/compilers/GCC/chtypes.h"
 284              		.file 9 "../../tmk_core/tool/chibios/ChibiOS/os/rt/include/chsystypes.h"
 285              		.file 10 "../../tmk_core/tool/chibios/ChibiOS/os/rt/include/chschd.h"
ARM GAS  /var/folders/t8/16hdwfmd2fg_d3q6dgx6bpmw0000gn/T//ccFguns6.s 			page 6


 286              		.file 11 "../../tmk_core/tool/chibios/ChibiOS-Contrib/os/common/ext/CMSIS/KINETIS/kl2xz.h"
 287              		.file 12 "../../tmk_core/tool/chibios/ChibiOS/os/common/ports/ARMCMx/chcore.h"
 288              		.file 13 "../../tmk_core/tool/chibios/ChibiOS/os/common/ports/ARMCMx/chcore_v6m.h"
 289              		.file 14 "../../tmk_core/tool/chibios/ChibiOS/os/rt/include/chsem.h"
 290              		.file 15 "../../tmk_core/tool/chibios/ChibiOS/os/rt/include/chmtx.h"
 291              		.file 16 "../../tmk_core/tool/chibios/ChibiOS/os/rt/include/chsys.h"
 292              		.file 17 "../../tmk_core/tool/chibios/ChibiOS/os/rt/include/chregistry.h"
 293              		.file 18 "../../tmk_core/tool/chibios/ChibiOS-Contrib/os/hal/ports/KINETIS/LLD/hal_pal_lld.h"
 294              		.file 19 "../../tmk_core/tool/chibios/ChibiOS/os/hal/include/hal_usb.h"
 295              		.file 20 "../../tmk_core/tool/chibios/ChibiOS-Contrib/os/hal/ports/KINETIS/LLD/hal_usb_lld.h"
 296              		.file 21 "../../tmk_core/tool/chibios/ChibiOS/os/hal/lib/streams/memstreams.h"
 297              		.file 22 "<built-in>"
 298              		.section	.debug_info,"",%progbits
 299              	.Ldebug_info0:
 300 0000 C3170000 		.4byte	0x17c3
 301 0004 0400     		.2byte	0x4
 302 0006 00000000 		.4byte	.Ldebug_abbrev0
 303 000a 04       		.byte	0x4
 304 000b 01       		.uleb128 0x1
 305 000c 3F020000 		.4byte	.LASF324
 306 0010 0C       		.byte	0xc
 307 0011 17070000 		.4byte	.LASF325
 308 0015 47030000 		.4byte	.LASF326
 309 0019 00000000 		.4byte	.Ldebug_ranges0+0
 310 001d 00000000 		.4byte	0
 311 0021 00000000 		.4byte	.Ldebug_line0
 312 0025 02       		.uleb128 0x2
 313 0026 04       		.byte	0x4
 314 0027 05       		.byte	0x5
 315 0028 696E7400 		.ascii	"int\000"
 316 002c 03       		.uleb128 0x3
 317 002d 15000000 		.4byte	.LASF2
 318 0031 02       		.byte	0x2
 319 0032 D8       		.byte	0xd8
 320 0033 37000000 		.4byte	0x37
 321 0037 04       		.uleb128 0x4
 322 0038 04       		.byte	0x4
 323 0039 07       		.byte	0x7
 324 003a 93080000 		.4byte	.LASF0
 325 003e 04       		.uleb128 0x4
 326 003f 01       		.byte	0x1
 327 0040 06       		.byte	0x6
 328 0041 E8030000 		.4byte	.LASF1
 329 0045 03       		.uleb128 0x3
 330 0046 84010000 		.4byte	.LASF3
 331 004a 03       		.byte	0x3
 332 004b 2B       		.byte	0x2b
 333 004c 50000000 		.4byte	0x50
 334 0050 04       		.uleb128 0x4
 335 0051 01       		.byte	0x1
 336 0052 08       		.byte	0x8
 337 0053 2E040000 		.4byte	.LASF4
 338 0057 04       		.uleb128 0x4
 339 0058 02       		.byte	0x2
 340 0059 05       		.byte	0x5
 341 005a CC0B0000 		.4byte	.LASF5
 342 005e 03       		.uleb128 0x3
ARM GAS  /var/folders/t8/16hdwfmd2fg_d3q6dgx6bpmw0000gn/T//ccFguns6.s 			page 7


 343 005f D6040000 		.4byte	.LASF6
 344 0063 03       		.byte	0x3
 345 0064 39       		.byte	0x39
 346 0065 69000000 		.4byte	0x69
 347 0069 04       		.uleb128 0x4
 348 006a 02       		.byte	0x2
 349 006b 07       		.byte	0x7
 350 006c 300D0000 		.4byte	.LASF7
 351 0070 03       		.uleb128 0x3
 352 0071 A60D0000 		.4byte	.LASF8
 353 0075 03       		.byte	0x3
 354 0076 4D       		.byte	0x4d
 355 0077 7B000000 		.4byte	0x7b
 356 007b 04       		.uleb128 0x4
 357 007c 04       		.byte	0x4
 358 007d 05       		.byte	0x5
 359 007e D6010000 		.4byte	.LASF9
 360 0082 03       		.uleb128 0x3
 361 0083 C6070000 		.4byte	.LASF10
 362 0087 03       		.byte	0x3
 363 0088 4F       		.byte	0x4f
 364 0089 8D000000 		.4byte	0x8d
 365 008d 04       		.uleb128 0x4
 366 008e 04       		.byte	0x4
 367 008f 07       		.byte	0x7
 368 0090 33060000 		.4byte	.LASF11
 369 0094 04       		.uleb128 0x4
 370 0095 08       		.byte	0x8
 371 0096 05       		.byte	0x5
 372 0097 ED070000 		.4byte	.LASF12
 373 009b 03       		.uleb128 0x3
 374 009c 19060000 		.4byte	.LASF13
 375 00a0 03       		.byte	0x3
 376 00a1 69       		.byte	0x69
 377 00a2 A6000000 		.4byte	0xa6
 378 00a6 04       		.uleb128 0x4
 379 00a7 08       		.byte	0x8
 380 00a8 07       		.byte	0x7
 381 00a9 190A0000 		.4byte	.LASF14
 382 00ad 03       		.uleb128 0x3
 383 00ae 940C0000 		.4byte	.LASF15
 384 00b2 04       		.byte	0x4
 385 00b3 22       		.byte	0x22
 386 00b4 B8000000 		.4byte	0xb8
 387 00b8 05       		.uleb128 0x5
 388 00b9 04       		.byte	0x4
 389 00ba BE000000 		.4byte	0xbe
 390 00be 06       		.uleb128 0x6
 391 00bf CA050000 		.4byte	.LASF122
 392 00c3 03       		.uleb128 0x3
 393 00c4 1D0D0000 		.4byte	.LASF16
 394 00c8 05       		.byte	0x5
 395 00c9 2C       		.byte	0x2c
 396 00ca 7B000000 		.4byte	0x7b
 397 00ce 03       		.uleb128 0x3
 398 00cf DB090000 		.4byte	.LASF17
 399 00d3 05       		.byte	0x5
ARM GAS  /var/folders/t8/16hdwfmd2fg_d3q6dgx6bpmw0000gn/T//ccFguns6.s 			page 8


 400 00d4 72       		.byte	0x72
 401 00d5 7B000000 		.4byte	0x7b
 402 00d9 07       		.uleb128 0x7
 403 00da 250B0000 		.4byte	.LASF18
 404 00de 02       		.byte	0x2
 405 00df 6501     		.2byte	0x165
 406 00e1 37000000 		.4byte	0x37
 407 00e5 08       		.uleb128 0x8
 408 00e6 04       		.byte	0x4
 409 00e7 05       		.byte	0x5
 410 00e8 A6       		.byte	0xa6
 411 00e9 04010000 		.4byte	0x104
 412 00ed 09       		.uleb128 0x9
 413 00ee 67010000 		.4byte	.LASF19
 414 00f2 05       		.byte	0x5
 415 00f3 A8       		.byte	0xa8
 416 00f4 D9000000 		.4byte	0xd9
 417 00f8 09       		.uleb128 0x9
 418 00f9 E3090000 		.4byte	.LASF20
 419 00fd 05       		.byte	0x5
 420 00fe A9       		.byte	0xa9
 421 00ff 04010000 		.4byte	0x104
 422 0103 00       		.byte	0
 423 0104 0A       		.uleb128 0xa
 424 0105 50000000 		.4byte	0x50
 425 0109 14010000 		.4byte	0x114
 426 010d 0B       		.uleb128 0xb
 427 010e 37000000 		.4byte	0x37
 428 0112 03       		.byte	0x3
 429 0113 00       		.byte	0
 430 0114 0C       		.uleb128 0xc
 431 0115 08       		.byte	0x8
 432 0116 05       		.byte	0x5
 433 0117 A3       		.byte	0xa3
 434 0118 35010000 		.4byte	0x135
 435 011c 0D       		.uleb128 0xd
 436 011d 65090000 		.4byte	.LASF21
 437 0121 05       		.byte	0x5
 438 0122 A5       		.byte	0xa5
 439 0123 25000000 		.4byte	0x25
 440 0127 00       		.byte	0
 441 0128 0D       		.uleb128 0xd
 442 0129 30000000 		.4byte	.LASF22
 443 012d 05       		.byte	0x5
 444 012e AA       		.byte	0xaa
 445 012f E5000000 		.4byte	0xe5
 446 0133 04       		.byte	0x4
 447 0134 00       		.byte	0
 448 0135 03       		.uleb128 0x3
 449 0136 070B0000 		.4byte	.LASF23
 450 013a 05       		.byte	0x5
 451 013b AB       		.byte	0xab
 452 013c 14010000 		.4byte	0x114
 453 0140 03       		.uleb128 0x3
 454 0141 D80A0000 		.4byte	.LASF24
 455 0145 05       		.byte	0x5
 456 0146 AF       		.byte	0xaf
ARM GAS  /var/folders/t8/16hdwfmd2fg_d3q6dgx6bpmw0000gn/T//ccFguns6.s 			page 9


 457 0147 AD000000 		.4byte	0xad
 458 014b 0E       		.uleb128 0xe
 459 014c 04       		.byte	0x4
 460 014d 05       		.uleb128 0x5
 461 014e 04       		.byte	0x4
 462 014f 53010000 		.4byte	0x153
 463 0153 04       		.uleb128 0x4
 464 0154 01       		.byte	0x1
 465 0155 08       		.byte	0x8
 466 0156 B6040000 		.4byte	.LASF25
 467 015a 0F       		.uleb128 0xf
 468 015b 53010000 		.4byte	0x153
 469 015f 03       		.uleb128 0x3
 470 0160 EF0C0000 		.4byte	.LASF26
 471 0164 06       		.byte	0x6
 472 0165 16       		.byte	0x16
 473 0166 8D000000 		.4byte	0x8d
 474 016a 10       		.uleb128 0x10
 475 016b 68070000 		.4byte	.LASF31
 476 016f 18       		.byte	0x18
 477 0170 06       		.byte	0x6
 478 0171 2F       		.byte	0x2f
 479 0172 BD010000 		.4byte	0x1bd
 480 0176 0D       		.uleb128 0xd
 481 0177 550B0000 		.4byte	.LASF27
 482 017b 06       		.byte	0x6
 483 017c 31       		.byte	0x31
 484 017d BD010000 		.4byte	0x1bd
 485 0181 00       		.byte	0
 486 0182 11       		.uleb128 0x11
 487 0183 5F6B00   		.ascii	"_k\000"
 488 0186 06       		.byte	0x6
 489 0187 32       		.byte	0x32
 490 0188 25000000 		.4byte	0x25
 491 018c 04       		.byte	0x4
 492 018d 0D       		.uleb128 0xd
 493 018e 8B070000 		.4byte	.LASF28
 494 0192 06       		.byte	0x6
 495 0193 32       		.byte	0x32
 496 0194 25000000 		.4byte	0x25
 497 0198 08       		.byte	0x8
 498 0199 0D       		.uleb128 0xd
 499 019a 7E080000 		.4byte	.LASF29
 500 019e 06       		.byte	0x6
 501 019f 32       		.byte	0x32
 502 01a0 25000000 		.4byte	0x25
 503 01a4 0C       		.byte	0xc
 504 01a5 0D       		.uleb128 0xd
 505 01a6 AC050000 		.4byte	.LASF30
 506 01aa 06       		.byte	0x6
 507 01ab 32       		.byte	0x32
 508 01ac 25000000 		.4byte	0x25
 509 01b0 10       		.byte	0x10
 510 01b1 11       		.uleb128 0x11
 511 01b2 5F7800   		.ascii	"_x\000"
 512 01b5 06       		.byte	0x6
 513 01b6 33       		.byte	0x33
ARM GAS  /var/folders/t8/16hdwfmd2fg_d3q6dgx6bpmw0000gn/T//ccFguns6.s 			page 10


 514 01b7 C3010000 		.4byte	0x1c3
 515 01bb 14       		.byte	0x14
 516 01bc 00       		.byte	0
 517 01bd 05       		.uleb128 0x5
 518 01be 04       		.byte	0x4
 519 01bf 6A010000 		.4byte	0x16a
 520 01c3 0A       		.uleb128 0xa
 521 01c4 5F010000 		.4byte	0x15f
 522 01c8 D3010000 		.4byte	0x1d3
 523 01cc 0B       		.uleb128 0xb
 524 01cd 37000000 		.4byte	0x37
 525 01d1 00       		.byte	0
 526 01d2 00       		.byte	0
 527 01d3 10       		.uleb128 0x10
 528 01d4 C8000000 		.4byte	.LASF32
 529 01d8 24       		.byte	0x24
 530 01d9 06       		.byte	0x6
 531 01da 37       		.byte	0x37
 532 01db 4C020000 		.4byte	0x24c
 533 01df 0D       		.uleb128 0xd
 534 01e0 E4000000 		.4byte	.LASF33
 535 01e4 06       		.byte	0x6
 536 01e5 39       		.byte	0x39
 537 01e6 25000000 		.4byte	0x25
 538 01ea 00       		.byte	0
 539 01eb 0D       		.uleb128 0xd
 540 01ec ED0D0000 		.4byte	.LASF34
 541 01f0 06       		.byte	0x6
 542 01f1 3A       		.byte	0x3a
 543 01f2 25000000 		.4byte	0x25
 544 01f6 04       		.byte	0x4
 545 01f7 0D       		.uleb128 0xd
 546 01f8 430D0000 		.4byte	.LASF35
 547 01fc 06       		.byte	0x6
 548 01fd 3B       		.byte	0x3b
 549 01fe 25000000 		.4byte	0x25
 550 0202 08       		.byte	0x8
 551 0203 0D       		.uleb128 0xd
 552 0204 D1080000 		.4byte	.LASF36
 553 0208 06       		.byte	0x6
 554 0209 3C       		.byte	0x3c
 555 020a 25000000 		.4byte	0x25
 556 020e 0C       		.byte	0xc
 557 020f 0D       		.uleb128 0xd
 558 0210 A4030000 		.4byte	.LASF37
 559 0214 06       		.byte	0x6
 560 0215 3D       		.byte	0x3d
 561 0216 25000000 		.4byte	0x25
 562 021a 10       		.byte	0x10
 563 021b 0D       		.uleb128 0xd
 564 021c 140C0000 		.4byte	.LASF38
 565 0220 06       		.byte	0x6
 566 0221 3E       		.byte	0x3e
 567 0222 25000000 		.4byte	0x25
 568 0226 14       		.byte	0x14
 569 0227 0D       		.uleb128 0xd
 570 0228 77090000 		.4byte	.LASF39
ARM GAS  /var/folders/t8/16hdwfmd2fg_d3q6dgx6bpmw0000gn/T//ccFguns6.s 			page 11


 571 022c 06       		.byte	0x6
 572 022d 3F       		.byte	0x3f
 573 022e 25000000 		.4byte	0x25
 574 0232 18       		.byte	0x18
 575 0233 0D       		.uleb128 0xd
 576 0234 95090000 		.4byte	.LASF40
 577 0238 06       		.byte	0x6
 578 0239 40       		.byte	0x40
 579 023a 25000000 		.4byte	0x25
 580 023e 1C       		.byte	0x1c
 581 023f 0D       		.uleb128 0xd
 582 0240 C20D0000 		.4byte	.LASF41
 583 0244 06       		.byte	0x6
 584 0245 41       		.byte	0x41
 585 0246 25000000 		.4byte	0x25
 586 024a 20       		.byte	0x20
 587 024b 00       		.byte	0
 588 024c 12       		.uleb128 0x12
 589 024d A2010000 		.4byte	.LASF42
 590 0251 0801     		.2byte	0x108
 591 0253 06       		.byte	0x6
 592 0254 4A       		.byte	0x4a
 593 0255 8C020000 		.4byte	0x28c
 594 0259 0D       		.uleb128 0xd
 595 025a BA0D0000 		.4byte	.LASF43
 596 025e 06       		.byte	0x6
 597 025f 4B       		.byte	0x4b
 598 0260 8C020000 		.4byte	0x28c
 599 0264 00       		.byte	0
 600 0265 0D       		.uleb128 0xd
 601 0266 4D0A0000 		.4byte	.LASF44
 602 026a 06       		.byte	0x6
 603 026b 4C       		.byte	0x4c
 604 026c 8C020000 		.4byte	0x28c
 605 0270 80       		.byte	0x80
 606 0271 13       		.uleb128 0x13
 607 0272 FB0B0000 		.4byte	.LASF45
 608 0276 06       		.byte	0x6
 609 0277 4E       		.byte	0x4e
 610 0278 5F010000 		.4byte	0x15f
 611 027c 0001     		.2byte	0x100
 612 027e 13       		.uleb128 0x13
 613 027f 8C0C0000 		.4byte	.LASF46
 614 0283 06       		.byte	0x6
 615 0284 51       		.byte	0x51
 616 0285 5F010000 		.4byte	0x15f
 617 0289 0401     		.2byte	0x104
 618 028b 00       		.byte	0
 619 028c 0A       		.uleb128 0xa
 620 028d 4B010000 		.4byte	0x14b
 621 0291 9C020000 		.4byte	0x29c
 622 0295 0B       		.uleb128 0xb
 623 0296 37000000 		.4byte	0x37
 624 029a 1F       		.byte	0x1f
 625 029b 00       		.byte	0
 626 029c 12       		.uleb128 0x12
 627 029d 43090000 		.4byte	.LASF47
ARM GAS  /var/folders/t8/16hdwfmd2fg_d3q6dgx6bpmw0000gn/T//ccFguns6.s 			page 12


 628 02a1 9001     		.2byte	0x190
 629 02a3 06       		.byte	0x6
 630 02a4 5D       		.byte	0x5d
 631 02a5 DA020000 		.4byte	0x2da
 632 02a9 0D       		.uleb128 0xd
 633 02aa 550B0000 		.4byte	.LASF27
 634 02ae 06       		.byte	0x6
 635 02af 5E       		.byte	0x5e
 636 02b0 DA020000 		.4byte	0x2da
 637 02b4 00       		.byte	0
 638 02b5 0D       		.uleb128 0xd
 639 02b6 720C0000 		.4byte	.LASF48
 640 02ba 06       		.byte	0x6
 641 02bb 5F       		.byte	0x5f
 642 02bc 25000000 		.4byte	0x25
 643 02c0 04       		.byte	0x4
 644 02c1 0D       		.uleb128 0xd
 645 02c2 BB040000 		.4byte	.LASF49
 646 02c6 06       		.byte	0x6
 647 02c7 61       		.byte	0x61
 648 02c8 E0020000 		.4byte	0x2e0
 649 02cc 08       		.byte	0x8
 650 02cd 0D       		.uleb128 0xd
 651 02ce A2010000 		.4byte	.LASF42
 652 02d2 06       		.byte	0x6
 653 02d3 62       		.byte	0x62
 654 02d4 4C020000 		.4byte	0x24c
 655 02d8 88       		.byte	0x88
 656 02d9 00       		.byte	0
 657 02da 05       		.uleb128 0x5
 658 02db 04       		.byte	0x4
 659 02dc 9C020000 		.4byte	0x29c
 660 02e0 0A       		.uleb128 0xa
 661 02e1 F0020000 		.4byte	0x2f0
 662 02e5 F0020000 		.4byte	0x2f0
 663 02e9 0B       		.uleb128 0xb
 664 02ea 37000000 		.4byte	0x37
 665 02ee 1F       		.byte	0x1f
 666 02ef 00       		.byte	0
 667 02f0 05       		.uleb128 0x5
 668 02f1 04       		.byte	0x4
 669 02f2 F6020000 		.4byte	0x2f6
 670 02f6 14       		.uleb128 0x14
 671 02f7 10       		.uleb128 0x10
 672 02f8 7F0C0000 		.4byte	.LASF50
 673 02fc 08       		.byte	0x8
 674 02fd 06       		.byte	0x6
 675 02fe 75       		.byte	0x75
 676 02ff 1C030000 		.4byte	0x31c
 677 0303 0D       		.uleb128 0xd
 678 0304 A50A0000 		.4byte	.LASF51
 679 0308 06       		.byte	0x6
 680 0309 76       		.byte	0x76
 681 030a 1C030000 		.4byte	0x31c
 682 030e 00       		.byte	0
 683 030f 0D       		.uleb128 0xd
 684 0310 FB010000 		.4byte	.LASF52
ARM GAS  /var/folders/t8/16hdwfmd2fg_d3q6dgx6bpmw0000gn/T//ccFguns6.s 			page 13


 685 0314 06       		.byte	0x6
 686 0315 77       		.byte	0x77
 687 0316 25000000 		.4byte	0x25
 688 031a 04       		.byte	0x4
 689 031b 00       		.byte	0
 690 031c 05       		.uleb128 0x5
 691 031d 04       		.byte	0x4
 692 031e 50000000 		.4byte	0x50
 693 0322 10       		.uleb128 0x10
 694 0323 50060000 		.4byte	.LASF53
 695 0327 68       		.byte	0x68
 696 0328 06       		.byte	0x6
 697 0329 B5       		.byte	0xb5
 698 032a 4C040000 		.4byte	0x44c
 699 032e 11       		.uleb128 0x11
 700 032f 5F7000   		.ascii	"_p\000"
 701 0332 06       		.byte	0x6
 702 0333 B6       		.byte	0xb6
 703 0334 1C030000 		.4byte	0x31c
 704 0338 00       		.byte	0
 705 0339 11       		.uleb128 0x11
 706 033a 5F7200   		.ascii	"_r\000"
 707 033d 06       		.byte	0x6
 708 033e B7       		.byte	0xb7
 709 033f 25000000 		.4byte	0x25
 710 0343 04       		.byte	0x4
 711 0344 11       		.uleb128 0x11
 712 0345 5F7700   		.ascii	"_w\000"
 713 0348 06       		.byte	0x6
 714 0349 B8       		.byte	0xb8
 715 034a 25000000 		.4byte	0x25
 716 034e 08       		.byte	0x8
 717 034f 0D       		.uleb128 0xd
 718 0350 1F090000 		.4byte	.LASF54
 719 0354 06       		.byte	0x6
 720 0355 B9       		.byte	0xb9
 721 0356 57000000 		.4byte	0x57
 722 035a 0C       		.byte	0xc
 723 035b 0D       		.uleb128 0xd
 724 035c 94010000 		.4byte	.LASF55
 725 0360 06       		.byte	0x6
 726 0361 BA       		.byte	0xba
 727 0362 57000000 		.4byte	0x57
 728 0366 0E       		.byte	0xe
 729 0367 11       		.uleb128 0x11
 730 0368 5F626600 		.ascii	"_bf\000"
 731 036c 06       		.byte	0x6
 732 036d BB       		.byte	0xbb
 733 036e F7020000 		.4byte	0x2f7
 734 0372 10       		.byte	0x10
 735 0373 0D       		.uleb128 0xd
 736 0374 5D0C0000 		.4byte	.LASF56
 737 0378 06       		.byte	0x6
 738 0379 BC       		.byte	0xbc
 739 037a 25000000 		.4byte	0x25
 740 037e 18       		.byte	0x18
 741 037f 0D       		.uleb128 0xd
ARM GAS  /var/folders/t8/16hdwfmd2fg_d3q6dgx6bpmw0000gn/T//ccFguns6.s 			page 14


 742 0380 97050000 		.4byte	.LASF57
 743 0384 06       		.byte	0x6
 744 0385 C3       		.byte	0xc3
 745 0386 4B010000 		.4byte	0x14b
 746 038a 1C       		.byte	0x1c
 747 038b 0D       		.uleb128 0xd
 748 038c 59000000 		.4byte	.LASF58
 749 0390 06       		.byte	0x6
 750 0391 C5       		.byte	0xc5
 751 0392 A7050000 		.4byte	0x5a7
 752 0396 20       		.byte	0x20
 753 0397 0D       		.uleb128 0xd
 754 0398 75000000 		.4byte	.LASF59
 755 039c 06       		.byte	0x6
 756 039d C7       		.byte	0xc7
 757 039e D6050000 		.4byte	0x5d6
 758 03a2 24       		.byte	0x24
 759 03a3 0D       		.uleb128 0xd
 760 03a4 CD090000 		.4byte	.LASF60
 761 03a8 06       		.byte	0x6
 762 03a9 CA       		.byte	0xca
 763 03aa FA050000 		.4byte	0x5fa
 764 03ae 28       		.byte	0x28
 765 03af 0D       		.uleb128 0xd
 766 03b0 C0040000 		.4byte	.LASF61
 767 03b4 06       		.byte	0x6
 768 03b5 CB       		.byte	0xcb
 769 03b6 14060000 		.4byte	0x614
 770 03ba 2C       		.byte	0x2c
 771 03bb 11       		.uleb128 0x11
 772 03bc 5F756200 		.ascii	"_ub\000"
 773 03c0 06       		.byte	0x6
 774 03c1 CE       		.byte	0xce
 775 03c2 F7020000 		.4byte	0x2f7
 776 03c6 30       		.byte	0x30
 777 03c7 11       		.uleb128 0x11
 778 03c8 5F757000 		.ascii	"_up\000"
 779 03cc 06       		.byte	0x6
 780 03cd CF       		.byte	0xcf
 781 03ce 1C030000 		.4byte	0x31c
 782 03d2 38       		.byte	0x38
 783 03d3 11       		.uleb128 0x11
 784 03d4 5F757200 		.ascii	"_ur\000"
 785 03d8 06       		.byte	0x6
 786 03d9 D0       		.byte	0xd0
 787 03da 25000000 		.4byte	0x25
 788 03de 3C       		.byte	0x3c
 789 03df 0D       		.uleb128 0xd
 790 03e0 E0080000 		.4byte	.LASF62
 791 03e4 06       		.byte	0x6
 792 03e5 D3       		.byte	0xd3
 793 03e6 1A060000 		.4byte	0x61a
 794 03ea 40       		.byte	0x40
 795 03eb 0D       		.uleb128 0xd
 796 03ec DE000000 		.4byte	.LASF63
 797 03f0 06       		.byte	0x6
 798 03f1 D4       		.byte	0xd4
ARM GAS  /var/folders/t8/16hdwfmd2fg_d3q6dgx6bpmw0000gn/T//ccFguns6.s 			page 15


 799 03f2 2A060000 		.4byte	0x62a
 800 03f6 43       		.byte	0x43
 801 03f7 11       		.uleb128 0x11
 802 03f8 5F6C6200 		.ascii	"_lb\000"
 803 03fc 06       		.byte	0x6
 804 03fd D7       		.byte	0xd7
 805 03fe F7020000 		.4byte	0x2f7
 806 0402 44       		.byte	0x44
 807 0403 0D       		.uleb128 0xd
 808 0404 9C0A0000 		.4byte	.LASF64
 809 0408 06       		.byte	0x6
 810 0409 DA       		.byte	0xda
 811 040a 25000000 		.4byte	0x25
 812 040e 4C       		.byte	0x4c
 813 040f 0D       		.uleb128 0xd
 814 0410 E3050000 		.4byte	.LASF65
 815 0414 06       		.byte	0x6
 816 0415 DB       		.byte	0xdb
 817 0416 C3000000 		.4byte	0xc3
 818 041a 50       		.byte	0x50
 819 041b 0D       		.uleb128 0xd
 820 041c 5B0B0000 		.4byte	.LASF66
 821 0420 06       		.byte	0x6
 822 0421 DE       		.byte	0xde
 823 0422 6A040000 		.4byte	0x46a
 824 0426 54       		.byte	0x54
 825 0427 0D       		.uleb128 0xd
 826 0428 15010000 		.4byte	.LASF67
 827 042c 06       		.byte	0x6
 828 042d E2       		.byte	0xe2
 829 042e 40010000 		.4byte	0x140
 830 0432 58       		.byte	0x58
 831 0433 0D       		.uleb128 0xd
 832 0434 FC080000 		.4byte	.LASF68
 833 0438 06       		.byte	0x6
 834 0439 E4       		.byte	0xe4
 835 043a 35010000 		.4byte	0x135
 836 043e 5C       		.byte	0x5c
 837 043f 0D       		.uleb128 0xd
 838 0440 63060000 		.4byte	.LASF69
 839 0444 06       		.byte	0x6
 840 0445 E5       		.byte	0xe5
 841 0446 25000000 		.4byte	0x25
 842 044a 64       		.byte	0x64
 843 044b 00       		.byte	0
 844 044c 15       		.uleb128 0x15
 845 044d 25000000 		.4byte	0x25
 846 0451 6A040000 		.4byte	0x46a
 847 0455 16       		.uleb128 0x16
 848 0456 6A040000 		.4byte	0x46a
 849 045a 16       		.uleb128 0x16
 850 045b 4B010000 		.4byte	0x14b
 851 045f 16       		.uleb128 0x16
 852 0460 4D010000 		.4byte	0x14d
 853 0464 16       		.uleb128 0x16
 854 0465 25000000 		.4byte	0x25
 855 0469 00       		.byte	0
ARM GAS  /var/folders/t8/16hdwfmd2fg_d3q6dgx6bpmw0000gn/T//ccFguns6.s 			page 16


 856 046a 05       		.uleb128 0x5
 857 046b 04       		.byte	0x4
 858 046c 75040000 		.4byte	0x475
 859 0470 0F       		.uleb128 0xf
 860 0471 6A040000 		.4byte	0x46a
 861 0475 17       		.uleb128 0x17
 862 0476 6D040000 		.4byte	.LASF70
 863 047a 2804     		.2byte	0x428
 864 047c 06       		.byte	0x6
 865 047d 3902     		.2byte	0x239
 866 047f A7050000 		.4byte	0x5a7
 867 0483 18       		.uleb128 0x18
 868 0484 C6060000 		.4byte	.LASF71
 869 0488 06       		.byte	0x6
 870 0489 3B02     		.2byte	0x23b
 871 048b 25000000 		.4byte	0x25
 872 048f 00       		.byte	0
 873 0490 18       		.uleb128 0x18
 874 0491 F2040000 		.4byte	.LASF72
 875 0495 06       		.byte	0x6
 876 0496 4002     		.2byte	0x240
 877 0498 81060000 		.4byte	0x681
 878 049c 04       		.byte	0x4
 879 049d 18       		.uleb128 0x18
 880 049e 780A0000 		.4byte	.LASF73
 881 04a2 06       		.byte	0x6
 882 04a3 4002     		.2byte	0x240
 883 04a5 81060000 		.4byte	0x681
 884 04a9 08       		.byte	0x8
 885 04aa 18       		.uleb128 0x18
 886 04ab E6080000 		.4byte	.LASF74
 887 04af 06       		.byte	0x6
 888 04b0 4002     		.2byte	0x240
 889 04b2 81060000 		.4byte	0x681
 890 04b6 0C       		.byte	0xc
 891 04b7 18       		.uleb128 0x18
 892 04b8 6D0C0000 		.4byte	.LASF75
 893 04bc 06       		.byte	0x6
 894 04bd 4202     		.2byte	0x242
 895 04bf 25000000 		.4byte	0x25
 896 04c3 10       		.byte	0x10
 897 04c4 18       		.uleb128 0x18
 898 04c5 D1070000 		.4byte	.LASF76
 899 04c9 06       		.byte	0x6
 900 04ca 4302     		.2byte	0x243
 901 04cc 63080000 		.4byte	0x863
 902 04d0 14       		.byte	0x14
 903 04d1 18       		.uleb128 0x18
 904 04d2 54040000 		.4byte	.LASF77
 905 04d6 06       		.byte	0x6
 906 04d7 4602     		.2byte	0x246
 907 04d9 25000000 		.4byte	0x25
 908 04dd 30       		.byte	0x30
 909 04de 18       		.uleb128 0x18
 910 04df E70C0000 		.4byte	.LASF78
 911 04e3 06       		.byte	0x6
 912 04e4 4702     		.2byte	0x247
ARM GAS  /var/folders/t8/16hdwfmd2fg_d3q6dgx6bpmw0000gn/T//ccFguns6.s 			page 17


 913 04e6 78080000 		.4byte	0x878
 914 04ea 34       		.byte	0x34
 915 04eb 18       		.uleb128 0x18
 916 04ec 58060000 		.4byte	.LASF79
 917 04f0 06       		.byte	0x6
 918 04f1 4902     		.2byte	0x249
 919 04f3 25000000 		.4byte	0x25
 920 04f7 38       		.byte	0x38
 921 04f8 18       		.uleb128 0x18
 922 04f9 93070000 		.4byte	.LASF80
 923 04fd 06       		.byte	0x6
 924 04fe 4B02     		.2byte	0x24b
 925 0500 89080000 		.4byte	0x889
 926 0504 3C       		.byte	0x3c
 927 0505 18       		.uleb128 0x18
 928 0506 0E0D0000 		.4byte	.LASF81
 929 050a 06       		.byte	0x6
 930 050b 4E02     		.2byte	0x24e
 931 050d BD010000 		.4byte	0x1bd
 932 0511 40       		.byte	0x40
 933 0512 18       		.uleb128 0x18
 934 0513 F1010000 		.4byte	.LASF82
 935 0517 06       		.byte	0x6
 936 0518 4F02     		.2byte	0x24f
 937 051a 25000000 		.4byte	0x25
 938 051e 44       		.byte	0x44
 939 051f 18       		.uleb128 0x18
 940 0520 2E060000 		.4byte	.LASF83
 941 0524 06       		.byte	0x6
 942 0525 5002     		.2byte	0x250
 943 0527 BD010000 		.4byte	0x1bd
 944 052b 48       		.byte	0x48
 945 052c 18       		.uleb128 0x18
 946 052d 68080000 		.4byte	.LASF84
 947 0531 06       		.byte	0x6
 948 0532 5102     		.2byte	0x251
 949 0534 8F080000 		.4byte	0x88f
 950 0538 4C       		.byte	0x4c
 951 0539 18       		.uleb128 0x18
 952 053a 98000000 		.4byte	.LASF85
 953 053e 06       		.byte	0x6
 954 053f 5402     		.2byte	0x254
 955 0541 25000000 		.4byte	0x25
 956 0545 50       		.byte	0x50
 957 0546 18       		.uleb128 0x18
 958 0547 F8050000 		.4byte	.LASF86
 959 054b 06       		.byte	0x6
 960 054c 5502     		.2byte	0x255
 961 054e 4D010000 		.4byte	0x14d
 962 0552 54       		.byte	0x54
 963 0553 18       		.uleb128 0x18
 964 0554 DB080000 		.4byte	.LASF87
 965 0558 06       		.byte	0x6
 966 0559 7802     		.2byte	0x278
 967 055b 41080000 		.4byte	0x841
 968 055f 58       		.byte	0x58
 969 0560 19       		.uleb128 0x19
ARM GAS  /var/folders/t8/16hdwfmd2fg_d3q6dgx6bpmw0000gn/T//ccFguns6.s 			page 18


 970 0561 43090000 		.4byte	.LASF47
 971 0565 06       		.byte	0x6
 972 0566 7C02     		.2byte	0x27c
 973 0568 DA020000 		.4byte	0x2da
 974 056c 4801     		.2byte	0x148
 975 056e 19       		.uleb128 0x19
 976 056f 9D070000 		.4byte	.LASF88
 977 0573 06       		.byte	0x6
 978 0574 7D02     		.2byte	0x27d
 979 0576 9C020000 		.4byte	0x29c
 980 057a 4C01     		.2byte	0x14c
 981 057c 19       		.uleb128 0x19
 982 057d D1050000 		.4byte	.LASF89
 983 0581 06       		.byte	0x6
 984 0582 8102     		.2byte	0x281
 985 0584 A0080000 		.4byte	0x8a0
 986 0588 DC02     		.2byte	0x2dc
 987 058a 19       		.uleb128 0x19
 988 058b 1C080000 		.4byte	.LASF90
 989 058f 06       		.byte	0x6
 990 0590 8602     		.2byte	0x286
 991 0592 46060000 		.4byte	0x646
 992 0596 E002     		.2byte	0x2e0
 993 0598 19       		.uleb128 0x19
 994 0599 4E000000 		.4byte	.LASF91
 995 059d 06       		.byte	0x6
 996 059e 8802     		.2byte	0x288
 997 05a0 AC080000 		.4byte	0x8ac
 998 05a4 EC02     		.2byte	0x2ec
 999 05a6 00       		.byte	0
 1000 05a7 05       		.uleb128 0x5
 1001 05a8 04       		.byte	0x4
 1002 05a9 4C040000 		.4byte	0x44c
 1003 05ad 15       		.uleb128 0x15
 1004 05ae 25000000 		.4byte	0x25
 1005 05b2 CB050000 		.4byte	0x5cb
 1006 05b6 16       		.uleb128 0x16
 1007 05b7 6A040000 		.4byte	0x46a
 1008 05bb 16       		.uleb128 0x16
 1009 05bc 4B010000 		.4byte	0x14b
 1010 05c0 16       		.uleb128 0x16
 1011 05c1 CB050000 		.4byte	0x5cb
 1012 05c5 16       		.uleb128 0x16
 1013 05c6 25000000 		.4byte	0x25
 1014 05ca 00       		.byte	0
 1015 05cb 05       		.uleb128 0x5
 1016 05cc 04       		.byte	0x4
 1017 05cd 5A010000 		.4byte	0x15a
 1018 05d1 1A       		.uleb128 0x1a
 1019 05d2 CB050000 		.4byte	0x5cb
 1020 05d6 05       		.uleb128 0x5
 1021 05d7 04       		.byte	0x4
 1022 05d8 AD050000 		.4byte	0x5ad
 1023 05dc 15       		.uleb128 0x15
 1024 05dd CE000000 		.4byte	0xce
 1025 05e1 FA050000 		.4byte	0x5fa
 1026 05e5 16       		.uleb128 0x16
ARM GAS  /var/folders/t8/16hdwfmd2fg_d3q6dgx6bpmw0000gn/T//ccFguns6.s 			page 19


 1027 05e6 6A040000 		.4byte	0x46a
 1028 05ea 16       		.uleb128 0x16
 1029 05eb 4B010000 		.4byte	0x14b
 1030 05ef 16       		.uleb128 0x16
 1031 05f0 CE000000 		.4byte	0xce
 1032 05f4 16       		.uleb128 0x16
 1033 05f5 25000000 		.4byte	0x25
 1034 05f9 00       		.byte	0
 1035 05fa 05       		.uleb128 0x5
 1036 05fb 04       		.byte	0x4
 1037 05fc DC050000 		.4byte	0x5dc
 1038 0600 15       		.uleb128 0x15
 1039 0601 25000000 		.4byte	0x25
 1040 0605 14060000 		.4byte	0x614
 1041 0609 16       		.uleb128 0x16
 1042 060a 6A040000 		.4byte	0x46a
 1043 060e 16       		.uleb128 0x16
 1044 060f 4B010000 		.4byte	0x14b
 1045 0613 00       		.byte	0
 1046 0614 05       		.uleb128 0x5
 1047 0615 04       		.byte	0x4
 1048 0616 00060000 		.4byte	0x600
 1049 061a 0A       		.uleb128 0xa
 1050 061b 50000000 		.4byte	0x50
 1051 061f 2A060000 		.4byte	0x62a
 1052 0623 0B       		.uleb128 0xb
 1053 0624 37000000 		.4byte	0x37
 1054 0628 02       		.byte	0x2
 1055 0629 00       		.byte	0
 1056 062a 0A       		.uleb128 0xa
 1057 062b 50000000 		.4byte	0x50
 1058 062f 3A060000 		.4byte	0x63a
 1059 0633 0B       		.uleb128 0xb
 1060 0634 37000000 		.4byte	0x37
 1061 0638 00       		.byte	0
 1062 0639 00       		.byte	0
 1063 063a 07       		.uleb128 0x7
 1064 063b E90A0000 		.4byte	.LASF92
 1065 063f 06       		.byte	0x6
 1066 0640 1F01     		.2byte	0x11f
 1067 0642 22030000 		.4byte	0x322
 1068 0646 1B       		.uleb128 0x1b
 1069 0647 78080000 		.4byte	.LASF93
 1070 064b 0C       		.byte	0xc
 1071 064c 06       		.byte	0x6
 1072 064d 2301     		.2byte	0x123
 1073 064f 7B060000 		.4byte	0x67b
 1074 0653 18       		.uleb128 0x18
 1075 0654 550B0000 		.4byte	.LASF27
 1076 0658 06       		.byte	0x6
 1077 0659 2501     		.2byte	0x125
 1078 065b 7B060000 		.4byte	0x67b
 1079 065f 00       		.byte	0
 1080 0660 18       		.uleb128 0x18
 1081 0661 15080000 		.4byte	.LASF94
 1082 0665 06       		.byte	0x6
 1083 0666 2601     		.2byte	0x126
ARM GAS  /var/folders/t8/16hdwfmd2fg_d3q6dgx6bpmw0000gn/T//ccFguns6.s 			page 20


 1084 0668 25000000 		.4byte	0x25
 1085 066c 04       		.byte	0x4
 1086 066d 18       		.uleb128 0x18
 1087 066e 72080000 		.4byte	.LASF95
 1088 0672 06       		.byte	0x6
 1089 0673 2701     		.2byte	0x127
 1090 0675 81060000 		.4byte	0x681
 1091 0679 08       		.byte	0x8
 1092 067a 00       		.byte	0
 1093 067b 05       		.uleb128 0x5
 1094 067c 04       		.byte	0x4
 1095 067d 46060000 		.4byte	0x646
 1096 0681 05       		.uleb128 0x5
 1097 0682 04       		.byte	0x4
 1098 0683 3A060000 		.4byte	0x63a
 1099 0687 1B       		.uleb128 0x1b
 1100 0688 700A0000 		.4byte	.LASF96
 1101 068c 0E       		.byte	0xe
 1102 068d 06       		.byte	0x6
 1103 068e 3F01     		.2byte	0x13f
 1104 0690 BC060000 		.4byte	0x6bc
 1105 0694 18       		.uleb128 0x18
 1106 0695 C7090000 		.4byte	.LASF97
 1107 0699 06       		.byte	0x6
 1108 069a 4001     		.2byte	0x140
 1109 069c BC060000 		.4byte	0x6bc
 1110 06a0 00       		.byte	0
 1111 06a1 18       		.uleb128 0x18
 1112 06a2 24010000 		.4byte	.LASF98
 1113 06a6 06       		.byte	0x6
 1114 06a7 4101     		.2byte	0x141
 1115 06a9 BC060000 		.4byte	0x6bc
 1116 06ad 06       		.byte	0x6
 1117 06ae 18       		.uleb128 0x18
 1118 06af 2B0D0000 		.4byte	.LASF99
 1119 06b3 06       		.byte	0x6
 1120 06b4 4201     		.2byte	0x142
 1121 06b6 69000000 		.4byte	0x69
 1122 06ba 0C       		.byte	0xc
 1123 06bb 00       		.byte	0
 1124 06bc 0A       		.uleb128 0xa
 1125 06bd 69000000 		.4byte	0x69
 1126 06c1 CC060000 		.4byte	0x6cc
 1127 06c5 0B       		.uleb128 0xb
 1128 06c6 37000000 		.4byte	0x37
 1129 06ca 02       		.byte	0x2
 1130 06cb 00       		.byte	0
 1131 06cc 1C       		.uleb128 0x1c
 1132 06cd D0       		.byte	0xd0
 1133 06ce 06       		.byte	0x6
 1134 06cf 5902     		.2byte	0x259
 1135 06d1 CD070000 		.4byte	0x7cd
 1136 06d5 18       		.uleb128 0x18
 1137 06d6 DB030000 		.4byte	.LASF100
 1138 06da 06       		.byte	0x6
 1139 06db 5B02     		.2byte	0x25b
 1140 06dd 37000000 		.4byte	0x37
ARM GAS  /var/folders/t8/16hdwfmd2fg_d3q6dgx6bpmw0000gn/T//ccFguns6.s 			page 21


 1141 06e1 00       		.byte	0
 1142 06e2 18       		.uleb128 0x18
 1143 06e3 B10A0000 		.4byte	.LASF101
 1144 06e7 06       		.byte	0x6
 1145 06e8 5C02     		.2byte	0x25c
 1146 06ea 4D010000 		.4byte	0x14d
 1147 06ee 04       		.byte	0x4
 1148 06ef 18       		.uleb128 0x18
 1149 06f0 8B000000 		.4byte	.LASF102
 1150 06f4 06       		.byte	0x6
 1151 06f5 5D02     		.2byte	0x25d
 1152 06f7 CD070000 		.4byte	0x7cd
 1153 06fb 08       		.byte	0x8
 1154 06fc 18       		.uleb128 0x18
 1155 06fd 06020000 		.4byte	.LASF103
 1156 0701 06       		.byte	0x6
 1157 0702 5E02     		.2byte	0x25e
 1158 0704 D3010000 		.4byte	0x1d3
 1159 0708 24       		.byte	0x24
 1160 0709 18       		.uleb128 0x18
 1161 070a 3C080000 		.4byte	.LASF104
 1162 070e 06       		.byte	0x6
 1163 070f 5F02     		.2byte	0x25f
 1164 0711 25000000 		.4byte	0x25
 1165 0715 48       		.byte	0x48
 1166 0716 18       		.uleb128 0x18
 1167 0717 0D090000 		.4byte	.LASF105
 1168 071b 06       		.byte	0x6
 1169 071c 6002     		.2byte	0x260
 1170 071e A6000000 		.4byte	0xa6
 1171 0722 50       		.byte	0x50
 1172 0723 18       		.uleb128 0x18
 1173 0724 190B0000 		.4byte	.LASF106
 1174 0728 06       		.byte	0x6
 1175 0729 6102     		.2byte	0x261
 1176 072b 87060000 		.4byte	0x687
 1177 072f 58       		.byte	0x58
 1178 0730 18       		.uleb128 0x18
 1179 0731 BF0B0000 		.4byte	.LASF107
 1180 0735 06       		.byte	0x6
 1181 0736 6202     		.2byte	0x262
 1182 0738 35010000 		.4byte	0x135
 1183 073c 68       		.byte	0x68
 1184 073d 18       		.uleb128 0x18
 1185 073e 060A0000 		.4byte	.LASF108
 1186 0742 06       		.byte	0x6
 1187 0743 6302     		.2byte	0x263
 1188 0745 35010000 		.4byte	0x135
 1189 0749 70       		.byte	0x70
 1190 074a 18       		.uleb128 0x18
 1191 074b EE080000 		.4byte	.LASF109
 1192 074f 06       		.byte	0x6
 1193 0750 6402     		.2byte	0x264
 1194 0752 35010000 		.4byte	0x135
 1195 0756 78       		.byte	0x78
 1196 0757 18       		.uleb128 0x18
 1197 0758 F6000000 		.4byte	.LASF110
ARM GAS  /var/folders/t8/16hdwfmd2fg_d3q6dgx6bpmw0000gn/T//ccFguns6.s 			page 22


 1198 075c 06       		.byte	0x6
 1199 075d 6502     		.2byte	0x265
 1200 075f DD070000 		.4byte	0x7dd
 1201 0763 80       		.byte	0x80
 1202 0764 18       		.uleb128 0x18
 1203 0765 F5060000 		.4byte	.LASF111
 1204 0769 06       		.byte	0x6
 1205 076a 6602     		.2byte	0x266
 1206 076c ED070000 		.4byte	0x7ed
 1207 0770 88       		.byte	0x88
 1208 0771 18       		.uleb128 0x18
 1209 0772 010E0000 		.4byte	.LASF112
 1210 0776 06       		.byte	0x6
 1211 0777 6702     		.2byte	0x267
 1212 0779 25000000 		.4byte	0x25
 1213 077d A0       		.byte	0xa0
 1214 077e 18       		.uleb128 0x18
 1215 077f C8010000 		.4byte	.LASF113
 1216 0783 06       		.byte	0x6
 1217 0784 6802     		.2byte	0x268
 1218 0786 35010000 		.4byte	0x135
 1219 078a A4       		.byte	0xa4
 1220 078b 18       		.uleb128 0x18
 1221 078c BE0A0000 		.4byte	.LASF114
 1222 0790 06       		.byte	0x6
 1223 0791 6902     		.2byte	0x269
 1224 0793 35010000 		.4byte	0x135
 1225 0797 AC       		.byte	0xac
 1226 0798 18       		.uleb128 0x18
 1227 0799 870D0000 		.4byte	.LASF115
 1228 079d 06       		.byte	0x6
 1229 079e 6A02     		.2byte	0x26a
 1230 07a0 35010000 		.4byte	0x135
 1231 07a4 B4       		.byte	0xb4
 1232 07a5 18       		.uleb128 0x18
 1233 07a6 B8080000 		.4byte	.LASF116
 1234 07aa 06       		.byte	0x6
 1235 07ab 6B02     		.2byte	0x26b
 1236 07ad 35010000 		.4byte	0x135
 1237 07b1 BC       		.byte	0xbc
 1238 07b2 18       		.uleb128 0x18
 1239 07b3 CD000000 		.4byte	.LASF117
 1240 07b7 06       		.byte	0x6
 1241 07b8 6C02     		.2byte	0x26c
 1242 07ba 35010000 		.4byte	0x135
 1243 07be C4       		.byte	0xc4
 1244 07bf 18       		.uleb128 0x18
 1245 07c0 AF080000 		.4byte	.LASF118
 1246 07c4 06       		.byte	0x6
 1247 07c5 6D02     		.2byte	0x26d
 1248 07c7 25000000 		.4byte	0x25
 1249 07cb CC       		.byte	0xcc
 1250 07cc 00       		.byte	0
 1251 07cd 0A       		.uleb128 0xa
 1252 07ce 53010000 		.4byte	0x153
 1253 07d2 DD070000 		.4byte	0x7dd
 1254 07d6 0B       		.uleb128 0xb
ARM GAS  /var/folders/t8/16hdwfmd2fg_d3q6dgx6bpmw0000gn/T//ccFguns6.s 			page 23


 1255 07d7 37000000 		.4byte	0x37
 1256 07db 19       		.byte	0x19
 1257 07dc 00       		.byte	0
 1258 07dd 0A       		.uleb128 0xa
 1259 07de 53010000 		.4byte	0x153
 1260 07e2 ED070000 		.4byte	0x7ed
 1261 07e6 0B       		.uleb128 0xb
 1262 07e7 37000000 		.4byte	0x37
 1263 07eb 07       		.byte	0x7
 1264 07ec 00       		.byte	0
 1265 07ed 0A       		.uleb128 0xa
 1266 07ee 53010000 		.4byte	0x153
 1267 07f2 FD070000 		.4byte	0x7fd
 1268 07f6 0B       		.uleb128 0xb
 1269 07f7 37000000 		.4byte	0x37
 1270 07fb 17       		.byte	0x17
 1271 07fc 00       		.byte	0
 1272 07fd 1C       		.uleb128 0x1c
 1273 07fe F0       		.byte	0xf0
 1274 07ff 06       		.byte	0x6
 1275 0800 7202     		.2byte	0x272
 1276 0802 21080000 		.4byte	0x821
 1277 0806 18       		.uleb128 0x18
 1278 0807 AC0C0000 		.4byte	.LASF119
 1279 080b 06       		.byte	0x6
 1280 080c 7502     		.2byte	0x275
 1281 080e 21080000 		.4byte	0x821
 1282 0812 00       		.byte	0
 1283 0813 18       		.uleb128 0x18
 1284 0814 33080000 		.4byte	.LASF120
 1285 0818 06       		.byte	0x6
 1286 0819 7602     		.2byte	0x276
 1287 081b 31080000 		.4byte	0x831
 1288 081f 78       		.byte	0x78
 1289 0820 00       		.byte	0
 1290 0821 0A       		.uleb128 0xa
 1291 0822 1C030000 		.4byte	0x31c
 1292 0826 31080000 		.4byte	0x831
 1293 082a 0B       		.uleb128 0xb
 1294 082b 37000000 		.4byte	0x37
 1295 082f 1D       		.byte	0x1d
 1296 0830 00       		.byte	0
 1297 0831 0A       		.uleb128 0xa
 1298 0832 37000000 		.4byte	0x37
 1299 0836 41080000 		.4byte	0x841
 1300 083a 0B       		.uleb128 0xb
 1301 083b 37000000 		.4byte	0x37
 1302 083f 1D       		.byte	0x1d
 1303 0840 00       		.byte	0
 1304 0841 1D       		.uleb128 0x1d
 1305 0842 F0       		.byte	0xf0
 1306 0843 06       		.byte	0x6
 1307 0844 5702     		.2byte	0x257
 1308 0846 63080000 		.4byte	0x863
 1309 084a 1E       		.uleb128 0x1e
 1310 084b 6D040000 		.4byte	.LASF70
 1311 084f 06       		.byte	0x6
ARM GAS  /var/folders/t8/16hdwfmd2fg_d3q6dgx6bpmw0000gn/T//ccFguns6.s 			page 24


 1312 0850 6E02     		.2byte	0x26e
 1313 0852 CC060000 		.4byte	0x6cc
 1314 0856 1E       		.uleb128 0x1e
 1315 0857 C0000000 		.4byte	.LASF121
 1316 085b 06       		.byte	0x6
 1317 085c 7702     		.2byte	0x277
 1318 085e FD070000 		.4byte	0x7fd
 1319 0862 00       		.byte	0
 1320 0863 0A       		.uleb128 0xa
 1321 0864 53010000 		.4byte	0x153
 1322 0868 73080000 		.4byte	0x873
 1323 086c 0B       		.uleb128 0xb
 1324 086d 37000000 		.4byte	0x37
 1325 0871 18       		.byte	0x18
 1326 0872 00       		.byte	0
 1327 0873 06       		.uleb128 0x6
 1328 0874 25000000 		.4byte	.LASF123
 1329 0878 05       		.uleb128 0x5
 1330 0879 04       		.byte	0x4
 1331 087a 73080000 		.4byte	0x873
 1332 087e 1F       		.uleb128 0x1f
 1333 087f 89080000 		.4byte	0x889
 1334 0883 16       		.uleb128 0x16
 1335 0884 6A040000 		.4byte	0x46a
 1336 0888 00       		.byte	0
 1337 0889 05       		.uleb128 0x5
 1338 088a 04       		.byte	0x4
 1339 088b 7E080000 		.4byte	0x87e
 1340 088f 05       		.uleb128 0x5
 1341 0890 04       		.byte	0x4
 1342 0891 BD010000 		.4byte	0x1bd
 1343 0895 1F       		.uleb128 0x1f
 1344 0896 A0080000 		.4byte	0x8a0
 1345 089a 16       		.uleb128 0x16
 1346 089b 25000000 		.4byte	0x25
 1347 089f 00       		.byte	0
 1348 08a0 05       		.uleb128 0x5
 1349 08a1 04       		.byte	0x4
 1350 08a2 A6080000 		.4byte	0x8a6
 1351 08a6 05       		.uleb128 0x5
 1352 08a7 04       		.byte	0x4
 1353 08a8 95080000 		.4byte	0x895
 1354 08ac 0A       		.uleb128 0xa
 1355 08ad 3A060000 		.4byte	0x63a
 1356 08b1 BC080000 		.4byte	0x8bc
 1357 08b5 0B       		.uleb128 0xb
 1358 08b6 37000000 		.4byte	0x37
 1359 08ba 02       		.byte	0x2
 1360 08bb 00       		.byte	0
 1361 08bc 20       		.uleb128 0x20
 1362 08bd DF010000 		.4byte	.LASF124
 1363 08c1 06       		.byte	0x6
 1364 08c2 0703     		.2byte	0x307
 1365 08c4 6A040000 		.4byte	0x46a
 1366 08c8 20       		.uleb128 0x20
 1367 08c9 74040000 		.4byte	.LASF125
 1368 08cd 06       		.byte	0x6
ARM GAS  /var/folders/t8/16hdwfmd2fg_d3q6dgx6bpmw0000gn/T//ccFguns6.s 			page 25


 1369 08ce 0803     		.2byte	0x308
 1370 08d0 70040000 		.4byte	0x470
 1371 08d4 03       		.uleb128 0x3
 1372 08d5 FB030000 		.4byte	.LASF126
 1373 08d9 07       		.byte	0x7
 1374 08da 18       		.byte	0x18
 1375 08db 45000000 		.4byte	0x45
 1376 08df 0F       		.uleb128 0xf
 1377 08e0 D4080000 		.4byte	0x8d4
 1378 08e4 03       		.uleb128 0x3
 1379 08e5 3B0A0000 		.4byte	.LASF127
 1380 08e9 07       		.byte	0x7
 1381 08ea 24       		.byte	0x24
 1382 08eb 5E000000 		.4byte	0x5e
 1383 08ef 03       		.uleb128 0x3
 1384 08f0 7C000000 		.4byte	.LASF128
 1385 08f4 07       		.byte	0x7
 1386 08f5 2C       		.byte	0x2c
 1387 08f6 70000000 		.4byte	0x70
 1388 08fa 03       		.uleb128 0x3
 1389 08fb FD0C0000 		.4byte	.LASF129
 1390 08ff 07       		.byte	0x7
 1391 0900 30       		.byte	0x30
 1392 0901 82000000 		.4byte	0x82
 1393 0905 1A       		.uleb128 0x1a
 1394 0906 FA080000 		.4byte	0x8fa
 1395 090a 03       		.uleb128 0x3
 1396 090b D60B0000 		.4byte	.LASF130
 1397 090f 07       		.byte	0x7
 1398 0910 3C       		.byte	0x3c
 1399 0911 9B000000 		.4byte	0x9b
 1400 0915 03       		.uleb128 0x3
 1401 0916 790B0000 		.4byte	.LASF131
 1402 091a 08       		.byte	0x8
 1403 091b 3C       		.byte	0x3c
 1404 091c D4080000 		.4byte	0x8d4
 1405 0920 03       		.uleb128 0x3
 1406 0921 2D020000 		.4byte	.LASF132
 1407 0925 08       		.byte	0x8
 1408 0926 3D       		.byte	0x3d
 1409 0927 D4080000 		.4byte	0x8d4
 1410 092b 03       		.uleb128 0x3
 1411 092c A40C0000 		.4byte	.LASF133
 1412 0930 08       		.byte	0x8
 1413 0931 3E       		.byte	0x3e
 1414 0932 D4080000 		.4byte	0x8d4
 1415 0936 03       		.uleb128 0x3
 1416 0937 800A0000 		.4byte	.LASF134
 1417 093b 08       		.byte	0x8
 1418 093c 3F       		.byte	0x3f
 1419 093d D4080000 		.4byte	0x8d4
 1420 0941 03       		.uleb128 0x3
 1421 0942 5F000000 		.4byte	.LASF135
 1422 0946 08       		.byte	0x8
 1423 0947 40       		.byte	0x40
 1424 0948 FA080000 		.4byte	0x8fa
 1425 094c 03       		.uleb128 0x3
ARM GAS  /var/folders/t8/16hdwfmd2fg_d3q6dgx6bpmw0000gn/T//ccFguns6.s 			page 26


 1426 094d 590A0000 		.4byte	.LASF136
 1427 0951 08       		.byte	0x8
 1428 0952 41       		.byte	0x41
 1429 0953 EF080000 		.4byte	0x8ef
 1430 0957 03       		.uleb128 0x3
 1431 0958 15040000 		.4byte	.LASF137
 1432 095c 08       		.byte	0x8
 1433 095d 43       		.byte	0x43
 1434 095e FA080000 		.4byte	0x8fa
 1435 0962 03       		.uleb128 0x3
 1436 0963 7C050000 		.4byte	.LASF138
 1437 0967 08       		.byte	0x8
 1438 0968 45       		.byte	0x45
 1439 0969 EF080000 		.4byte	0x8ef
 1440 096d 03       		.uleb128 0x3
 1441 096e 38000000 		.4byte	.LASF139
 1442 0972 09       		.byte	0x9
 1443 0973 33       		.byte	0x33
 1444 0974 FA080000 		.4byte	0x8fa
 1445 0978 1A       		.uleb128 0x1a
 1446 0979 6D090000 		.4byte	0x96d
 1447 097d 03       		.uleb128 0x3
 1448 097e 81090000 		.4byte	.LASF140
 1449 0982 09       		.byte	0x9
 1450 0983 3F       		.byte	0x3f
 1451 0984 88090000 		.4byte	0x988
 1452 0988 10       		.uleb128 0x10
 1453 0989 89060000 		.4byte	.LASF141
 1454 098d 44       		.byte	0x44
 1455 098e 0A       		.byte	0xa
 1456 098f 9A       		.byte	0x9a
 1457 0990 720A0000 		.4byte	0xa72
 1458 0994 0D       		.uleb128 0xd
 1459 0995 AB0A0000 		.4byte	.LASF142
 1460 0999 0A       		.byte	0xa
 1461 099a 9B       		.byte	0x9b
 1462 099b A70A0000 		.4byte	0xaa7
 1463 099f 00       		.byte	0
 1464 09a0 0D       		.uleb128 0xd
 1465 09a1 48010000 		.4byte	.LASF143
 1466 09a5 0A       		.byte	0xa
 1467 09a6 9C       		.byte	0x9c
 1468 09a7 41090000 		.4byte	0x941
 1469 09ab 08       		.byte	0x8
 1470 09ac 11       		.uleb128 0x11
 1471 09ad 63747800 		.ascii	"ctx\000"
 1472 09b1 0A       		.byte	0xa
 1473 09b2 9D       		.byte	0x9d
 1474 09b3 000D0000 		.4byte	0xd00
 1475 09b7 0C       		.byte	0xc
 1476 09b8 0D       		.uleb128 0xd
 1477 09b9 F70C0000 		.4byte	.LASF144
 1478 09bd 0A       		.byte	0xa
 1479 09be 9F       		.byte	0x9f
 1480 09bf 7D0A0000 		.4byte	0xa7d
 1481 09c3 10       		.byte	0x10
 1482 09c4 0D       		.uleb128 0xd
ARM GAS  /var/folders/t8/16hdwfmd2fg_d3q6dgx6bpmw0000gn/T//ccFguns6.s 			page 27


 1483 09c5 EF060000 		.4byte	.LASF145
 1484 09c9 0A       		.byte	0xa
 1485 09ca A0       		.byte	0xa0
 1486 09cb 7D0A0000 		.4byte	0xa7d
 1487 09cf 14       		.byte	0x14
 1488 09d0 0D       		.uleb128 0xd
 1489 09d1 B00B0000 		.4byte	.LASF146
 1490 09d5 0A       		.byte	0xa
 1491 09d6 A7       		.byte	0xa7
 1492 09d7 CB050000 		.4byte	0x5cb
 1493 09db 18       		.byte	0x18
 1494 09dc 0D       		.uleb128 0xd
 1495 09dd 1E0B0000 		.4byte	.LASF147
 1496 09e1 0A       		.byte	0xa
 1497 09e2 B0       		.byte	0xb0
 1498 09e3 5B0E0000 		.4byte	0xe5b
 1499 09e7 1C       		.byte	0x1c
 1500 09e8 0D       		.uleb128 0xd
 1501 09e9 07010000 		.4byte	.LASF148
 1502 09ed 0A       		.byte	0xa
 1503 09ee B5       		.byte	0xb5
 1504 09ef 20090000 		.4byte	0x920
 1505 09f3 20       		.byte	0x20
 1506 09f4 0D       		.uleb128 0xd
 1507 09f5 15050000 		.4byte	.LASF149
 1508 09f9 0A       		.byte	0xa
 1509 09fa B9       		.byte	0xb9
 1510 09fb 15090000 		.4byte	0x915
 1511 09ff 21       		.byte	0x21
 1512 0a00 0D       		.uleb128 0xd
 1513 0a01 AA080000 		.4byte	.LASF150
 1514 0a05 0A       		.byte	0xa
 1515 0a06 BE       		.byte	0xbe
 1516 0a07 2B090000 		.4byte	0x92b
 1517 0a0b 22       		.byte	0x22
 1518 0a0c 0D       		.uleb128 0xd
 1519 0a0d 50080000 		.4byte	.LASF151
 1520 0a11 0A       		.byte	0xa
 1521 0a12 C4       		.byte	0xc4
 1522 0a13 36090000 		.4byte	0x936
 1523 0a17 23       		.byte	0x23
 1524 0a18 21       		.uleb128 0x21
 1525 0a19 7500     		.ascii	"u\000"
 1526 0a1b 0A       		.byte	0xa
 1527 0a1c 0F01     		.2byte	0x10f
 1528 0a1e 900D0000 		.4byte	0xd90
 1529 0a22 24       		.byte	0x24
 1530 0a23 18       		.uleb128 0x18
 1531 0a24 770C0000 		.4byte	.LASF152
 1532 0a28 0A       		.byte	0xa
 1533 0a29 1401     		.2byte	0x114
 1534 0a2b 830A0000 		.4byte	0xa83
 1535 0a2f 28       		.byte	0x28
 1536 0a30 18       		.uleb128 0x18
 1537 0a31 F20B0000 		.4byte	.LASF153
 1538 0a35 0A       		.byte	0xa
 1539 0a36 1A01     		.2byte	0x11a
ARM GAS  /var/folders/t8/16hdwfmd2fg_d3q6dgx6bpmw0000gn/T//ccFguns6.s 			page 28


 1540 0a38 A70A0000 		.4byte	0xaa7
 1541 0a3c 2C       		.byte	0x2c
 1542 0a3d 18       		.uleb128 0x18
 1543 0a3e 36020000 		.4byte	.LASF154
 1544 0a42 0A       		.byte	0xa
 1545 0a43 2001     		.2byte	0x120
 1546 0a45 57090000 		.4byte	0x957
 1547 0a49 34       		.byte	0x34
 1548 0a4a 18       		.uleb128 0x18
 1549 0a4b E5070000 		.4byte	.LASF155
 1550 0a4f 0A       		.byte	0xa
 1551 0a50 2701     		.2byte	0x127
 1552 0a52 550E0000 		.4byte	0xe55
 1553 0a56 38       		.byte	0x38
 1554 0a57 18       		.uleb128 0x18
 1555 0a58 08070000 		.4byte	.LASF156
 1556 0a5c 0A       		.byte	0xa
 1557 0a5d 2B01     		.2byte	0x12b
 1558 0a5f 41090000 		.4byte	0x941
 1559 0a63 3C       		.byte	0x3c
 1560 0a64 18       		.uleb128 0x18
 1561 0a65 2C050000 		.4byte	.LASF157
 1562 0a69 0A       		.byte	0xa
 1563 0a6a 3201     		.2byte	0x132
 1564 0a6c 4B010000 		.4byte	0x14b
 1565 0a70 40       		.byte	0x40
 1566 0a71 00       		.byte	0
 1567 0a72 03       		.uleb128 0x3
 1568 0a73 30090000 		.4byte	.LASF158
 1569 0a77 09       		.byte	0x9
 1570 0a78 44       		.byte	0x44
 1571 0a79 7D0A0000 		.4byte	0xa7d
 1572 0a7d 05       		.uleb128 0x5
 1573 0a7e 04       		.byte	0x4
 1574 0a7f 7D090000 		.4byte	0x97d
 1575 0a83 03       		.uleb128 0x3
 1576 0a84 C00C0000 		.4byte	.LASF159
 1577 0a88 09       		.byte	0x9
 1578 0a89 49       		.byte	0x49
 1579 0a8a 8E0A0000 		.4byte	0xa8e
 1580 0a8e 10       		.uleb128 0x10
 1581 0a8f 7B070000 		.4byte	.LASF160
 1582 0a93 04       		.byte	0x4
 1583 0a94 0A       		.byte	0xa
 1584 0a95 88       		.byte	0x88
 1585 0a96 A70A0000 		.4byte	0xaa7
 1586 0a9a 0D       		.uleb128 0xd
 1587 0a9b E10D0000 		.4byte	.LASF161
 1588 0a9f 0A       		.byte	0xa
 1589 0aa0 89       		.byte	0x89
 1590 0aa1 7D0A0000 		.4byte	0xa7d
 1591 0aa5 00       		.byte	0
 1592 0aa6 00       		.byte	0
 1593 0aa7 03       		.uleb128 0x3
 1594 0aa8 28030000 		.4byte	.LASF162
 1595 0aac 09       		.byte	0x9
 1596 0aad 50       		.byte	0x50
ARM GAS  /var/folders/t8/16hdwfmd2fg_d3q6dgx6bpmw0000gn/T//ccFguns6.s 			page 29


 1597 0aae B20A0000 		.4byte	0xab2
 1598 0ab2 10       		.uleb128 0x10
 1599 0ab3 5F0A0000 		.4byte	.LASF163
 1600 0ab7 08       		.byte	0x8
 1601 0ab8 0A       		.byte	0xa
 1602 0ab9 8F       		.byte	0x8f
 1603 0aba D70A0000 		.4byte	0xad7
 1604 0abe 0D       		.uleb128 0xd
 1605 0abf E10D0000 		.4byte	.LASF161
 1606 0ac3 0A       		.byte	0xa
 1607 0ac4 90       		.byte	0x90
 1608 0ac5 7D0A0000 		.4byte	0xa7d
 1609 0ac9 00       		.byte	0
 1610 0aca 0D       		.uleb128 0xd
 1611 0acb 980D0000 		.4byte	.LASF164
 1612 0acf 0A       		.byte	0xa
 1613 0ad0 91       		.byte	0x91
 1614 0ad1 7D0A0000 		.4byte	0xa7d
 1615 0ad5 04       		.byte	0x4
 1616 0ad6 00       		.byte	0
 1617 0ad7 03       		.uleb128 0x3
 1618 0ad8 E2060000 		.4byte	.LASF165
 1619 0adc 09       		.byte	0x9
 1620 0add 57       		.byte	0x57
 1621 0ade E20A0000 		.4byte	0xae2
 1622 0ae2 1B       		.uleb128 0x1b
 1623 0ae3 BC050000 		.4byte	.LASF166
 1624 0ae7 1C       		.byte	0x1c
 1625 0ae8 0A       		.byte	0xa
 1626 0ae9 6A01     		.2byte	0x16a
 1627 0aeb 3E0B0000 		.4byte	0xb3e
 1628 0aef 18       		.uleb128 0x18
 1629 0af0 AB0A0000 		.4byte	.LASF142
 1630 0af4 0A       		.byte	0xa
 1631 0af5 6B01     		.2byte	0x16b
 1632 0af7 A70A0000 		.4byte	0xaa7
 1633 0afb 00       		.byte	0
 1634 0afc 18       		.uleb128 0x18
 1635 0afd 48010000 		.4byte	.LASF143
 1636 0b01 0A       		.byte	0xa
 1637 0b02 6C01     		.2byte	0x16c
 1638 0b04 41090000 		.4byte	0x941
 1639 0b08 08       		.byte	0x8
 1640 0b09 21       		.uleb128 0x21
 1641 0b0a 63747800 		.ascii	"ctx\000"
 1642 0b0e 0A       		.byte	0xa
 1643 0b0f 6E01     		.2byte	0x16e
 1644 0b11 000D0000 		.4byte	0xd00
 1645 0b15 0C       		.byte	0xc
 1646 0b16 18       		.uleb128 0x18
 1647 0b17 F70C0000 		.4byte	.LASF144
 1648 0b1b 0A       		.byte	0xa
 1649 0b1c 7101     		.2byte	0x171
 1650 0b1e 7D0A0000 		.4byte	0xa7d
 1651 0b22 10       		.byte	0x10
 1652 0b23 18       		.uleb128 0x18
 1653 0b24 EF060000 		.4byte	.LASF145
ARM GAS  /var/folders/t8/16hdwfmd2fg_d3q6dgx6bpmw0000gn/T//ccFguns6.s 			page 30


 1654 0b28 0A       		.byte	0xa
 1655 0b29 7201     		.2byte	0x172
 1656 0b2b 7D0A0000 		.4byte	0xa7d
 1657 0b2f 14       		.byte	0x14
 1658 0b30 18       		.uleb128 0x18
 1659 0b31 05090000 		.4byte	.LASF167
 1660 0b35 0A       		.byte	0xa
 1661 0b36 7501     		.2byte	0x175
 1662 0b38 7D0A0000 		.4byte	0xa7d
 1663 0b3c 18       		.byte	0x18
 1664 0b3d 00       		.byte	0
 1665 0b3e 03       		.uleb128 0x3
 1666 0b3f A0000000 		.4byte	.LASF168
 1667 0b43 09       		.byte	0x9
 1668 0b44 5C       		.byte	0x5c
 1669 0b45 490B0000 		.4byte	0xb49
 1670 0b49 05       		.uleb128 0x5
 1671 0b4a 04       		.byte	0x4
 1672 0b4b 4F0B0000 		.4byte	0xb4f
 1673 0b4f 1F       		.uleb128 0x1f
 1674 0b50 5A0B0000 		.4byte	0xb5a
 1675 0b54 16       		.uleb128 0x16
 1676 0b55 4B010000 		.4byte	0x14b
 1677 0b59 00       		.byte	0
 1678 0b5a 03       		.uleb128 0x3
 1679 0b5b D2060000 		.4byte	.LASF169
 1680 0b5f 09       		.byte	0x9
 1681 0b60 61       		.byte	0x61
 1682 0b61 650B0000 		.4byte	0xb65
 1683 0b65 1B       		.uleb128 0x1b
 1684 0b66 F5090000 		.4byte	.LASF170
 1685 0b6a 14       		.byte	0x14
 1686 0b6b 0A       		.byte	0xa
 1687 0b6c 4501     		.2byte	0x145
 1688 0b6e B40B0000 		.4byte	0xbb4
 1689 0b72 18       		.uleb128 0x18
 1690 0b73 E10D0000 		.4byte	.LASF161
 1691 0b77 0A       		.byte	0xa
 1692 0b78 4601     		.2byte	0x146
 1693 0b7a 610E0000 		.4byte	0xe61
 1694 0b7e 00       		.byte	0
 1695 0b7f 18       		.uleb128 0x18
 1696 0b80 980D0000 		.4byte	.LASF164
 1697 0b84 0A       		.byte	0xa
 1698 0b85 4701     		.2byte	0x147
 1699 0b87 610E0000 		.4byte	0xe61
 1700 0b8b 04       		.byte	0x4
 1701 0b8c 18       		.uleb128 0x18
 1702 0b8d 960A0000 		.4byte	.LASF171
 1703 0b91 0A       		.byte	0xa
 1704 0b92 4801     		.2byte	0x148
 1705 0b94 6D090000 		.4byte	0x96d
 1706 0b98 08       		.byte	0x8
 1707 0b99 18       		.uleb128 0x18
 1708 0b9a DF0B0000 		.4byte	.LASF172
 1709 0b9e 0A       		.byte	0xa
 1710 0b9f 4901     		.2byte	0x149
ARM GAS  /var/folders/t8/16hdwfmd2fg_d3q6dgx6bpmw0000gn/T//ccFguns6.s 			page 31


 1711 0ba1 3E0B0000 		.4byte	0xb3e
 1712 0ba5 0C       		.byte	0xc
 1713 0ba6 21       		.uleb128 0x21
 1714 0ba7 70617200 		.ascii	"par\000"
 1715 0bab 0A       		.byte	0xa
 1716 0bac 4B01     		.2byte	0x14b
 1717 0bae 4B010000 		.4byte	0x14b
 1718 0bb2 10       		.byte	0x10
 1719 0bb3 00       		.byte	0
 1720 0bb4 03       		.uleb128 0x3
 1721 0bb5 9E060000 		.4byte	.LASF173
 1722 0bb9 09       		.byte	0x9
 1723 0bba 66       		.byte	0x66
 1724 0bbb BF0B0000 		.4byte	0xbbf
 1725 0bbf 1B       		.uleb128 0x1b
 1726 0bc0 A9000000 		.4byte	.LASF174
 1727 0bc4 10       		.byte	0x10
 1728 0bc5 0A       		.byte	0xa
 1729 0bc6 5501     		.2byte	0x155
 1730 0bc8 010C0000 		.4byte	0xc01
 1731 0bcc 18       		.uleb128 0x18
 1732 0bcd E10D0000 		.4byte	.LASF161
 1733 0bd1 0A       		.byte	0xa
 1734 0bd2 5601     		.2byte	0x156
 1735 0bd4 610E0000 		.4byte	0xe61
 1736 0bd8 00       		.byte	0
 1737 0bd9 18       		.uleb128 0x18
 1738 0bda 980D0000 		.4byte	.LASF164
 1739 0bde 0A       		.byte	0xa
 1740 0bdf 5801     		.2byte	0x158
 1741 0be1 610E0000 		.4byte	0xe61
 1742 0be5 04       		.byte	0x4
 1743 0be6 18       		.uleb128 0x18
 1744 0be7 960A0000 		.4byte	.LASF171
 1745 0beb 0A       		.byte	0xa
 1746 0bec 5A01     		.2byte	0x15a
 1747 0bee 6D090000 		.4byte	0x96d
 1748 0bf2 08       		.byte	0x8
 1749 0bf3 18       		.uleb128 0x18
 1750 0bf4 9A010000 		.4byte	.LASF175
 1751 0bf8 0A       		.byte	0xa
 1752 0bf9 5C01     		.2byte	0x15c
 1753 0bfb 78090000 		.4byte	0x978
 1754 0bff 0C       		.byte	0xc
 1755 0c00 00       		.byte	0
 1756 0c01 03       		.uleb128 0x3
 1757 0c02 90040000 		.4byte	.LASF176
 1758 0c06 09       		.byte	0x9
 1759 0c07 6B       		.byte	0x6b
 1760 0c08 0C0C0000 		.4byte	0xc0c
 1761 0c0c 1B       		.uleb128 0x1b
 1762 0c0d 040C0000 		.4byte	.LASF177
 1763 0c11 0C       		.byte	0xc
 1764 0c12 0A       		.byte	0xa
 1765 0c13 7C01     		.2byte	0x17c
 1766 0c15 410C0000 		.4byte	0xc41
 1767 0c19 18       		.uleb128 0x18
ARM GAS  /var/folders/t8/16hdwfmd2fg_d3q6dgx6bpmw0000gn/T//ccFguns6.s 			page 32


 1768 0c1a 4A040000 		.4byte	.LASF178
 1769 0c1e 0A       		.byte	0xa
 1770 0c1f 8401     		.2byte	0x184
 1771 0c21 D1050000 		.4byte	0x5d1
 1772 0c25 00       		.byte	0
 1773 0c26 18       		.uleb128 0x18
 1774 0c27 D3090000 		.4byte	.LASF179
 1775 0c2b 0A       		.byte	0xa
 1776 0c2c 8901     		.2byte	0x189
 1777 0c2e 62090000 		.4byte	0x962
 1778 0c32 04       		.byte	0x4
 1779 0c33 18       		.uleb128 0x18
 1780 0c34 1B010000 		.4byte	.LASF180
 1781 0c38 0A       		.byte	0xa
 1782 0c39 8D01     		.2byte	0x18d
 1783 0c3b 62090000 		.4byte	0x962
 1784 0c3f 08       		.byte	0x8
 1785 0c40 00       		.byte	0
 1786 0c41 03       		.uleb128 0x3
 1787 0c42 5F0D0000 		.4byte	.LASF181
 1788 0c46 09       		.byte	0x9
 1789 0c47 70       		.byte	0x70
 1790 0c48 4C0C0000 		.4byte	0xc4c
 1791 0c4c 1B       		.uleb128 0x1b
 1792 0c4d DD0C0000 		.4byte	.LASF182
 1793 0c51 7C       		.byte	0x7c
 1794 0c52 0A       		.byte	0xa
 1795 0c53 9C01     		.2byte	0x19c
 1796 0c55 8E0C0000 		.4byte	0xc8e
 1797 0c59 18       		.uleb128 0x18
 1798 0c5a 730B0000 		.4byte	.LASF183
 1799 0c5e 0A       		.byte	0xa
 1800 0c5f A001     		.2byte	0x1a0
 1801 0c61 D70A0000 		.4byte	0xad7
 1802 0c65 00       		.byte	0
 1803 0c66 18       		.uleb128 0x18
 1804 0c67 660C0000 		.4byte	.LASF184
 1805 0c6b 0A       		.byte	0xa
 1806 0c6c A401     		.2byte	0x1a4
 1807 0c6e B40B0000 		.4byte	0xbb4
 1808 0c72 1C       		.byte	0x1c
 1809 0c73 21       		.uleb128 0x21
 1810 0c74 64626700 		.ascii	"dbg\000"
 1811 0c78 0A       		.byte	0xa
 1812 0c79 A801     		.2byte	0x1a8
 1813 0c7b 010C0000 		.4byte	0xc01
 1814 0c7f 2C       		.byte	0x2c
 1815 0c80 18       		.uleb128 0x18
 1816 0c81 CD0A0000 		.4byte	.LASF185
 1817 0c85 0A       		.byte	0xa
 1818 0c86 AC01     		.2byte	0x1ac
 1819 0c88 7D090000 		.4byte	0x97d
 1820 0c8c 38       		.byte	0x38
 1821 0c8d 00       		.byte	0
 1822 0c8e 0C       		.uleb128 0xc
 1823 0c8f 18       		.byte	0x18
 1824 0c90 0B       		.byte	0xb
ARM GAS  /var/folders/t8/16hdwfmd2fg_d3q6dgx6bpmw0000gn/T//ccFguns6.s 			page 33


 1825 0c91 C5       		.byte	0xc5
 1826 0c92 DF0C0000 		.4byte	0xcdf
 1827 0c96 0D       		.uleb128 0xd
 1828 0c97 BA0B0000 		.4byte	.LASF186
 1829 0c9b 0B       		.byte	0xb
 1830 0c9c C7       		.byte	0xc7
 1831 0c9d 05090000 		.4byte	0x905
 1832 0ca1 00       		.byte	0
 1833 0ca2 0D       		.uleb128 0xd
 1834 0ca3 ED0B0000 		.4byte	.LASF187
 1835 0ca7 0B       		.byte	0xb
 1836 0ca8 C8       		.byte	0xc8
 1837 0ca9 05090000 		.4byte	0x905
 1838 0cad 04       		.byte	0x4
 1839 0cae 0D       		.uleb128 0xd
 1840 0caf 26090000 		.4byte	.LASF188
 1841 0cb3 0B       		.byte	0xb
 1842 0cb4 C9       		.byte	0xc9
 1843 0cb5 05090000 		.4byte	0x905
 1844 0cb9 08       		.byte	0x8
 1845 0cba 0D       		.uleb128 0xd
 1846 0cbb 70000000 		.4byte	.LASF189
 1847 0cbf 0B       		.byte	0xb
 1848 0cc0 CA       		.byte	0xca
 1849 0cc1 05090000 		.4byte	0x905
 1850 0cc5 0C       		.byte	0xc
 1851 0cc6 0D       		.uleb128 0xd
 1852 0cc7 2B090000 		.4byte	.LASF190
 1853 0ccb 0B       		.byte	0xb
 1854 0ccc CB       		.byte	0xcb
 1855 0ccd 05090000 		.4byte	0x905
 1856 0cd1 10       		.byte	0x10
 1857 0cd2 0D       		.uleb128 0xd
 1858 0cd3 CD060000 		.4byte	.LASF191
 1859 0cd7 0B       		.byte	0xb
 1860 0cd8 CC       		.byte	0xcc
 1861 0cd9 05090000 		.4byte	0x905
 1862 0cdd 14       		.byte	0x14
 1863 0cde 00       		.byte	0
 1864 0cdf 03       		.uleb128 0x3
 1865 0ce0 500C0000 		.4byte	.LASF192
 1866 0ce4 0B       		.byte	0xb
 1867 0ce5 CD       		.byte	0xcd
 1868 0ce6 8E0C0000 		.4byte	0xc8e
 1869 0cea 03       		.uleb128 0x3
 1870 0ceb 3E030000 		.4byte	.LASF193
 1871 0cef 0C       		.byte	0xc
 1872 0cf0 65       		.byte	0x65
 1873 0cf1 4B010000 		.4byte	0x14b
 1874 0cf5 03       		.uleb128 0x3
 1875 0cf6 21050000 		.4byte	.LASF194
 1876 0cfa 0C       		.byte	0xc
 1877 0cfb 6D       		.byte	0x6d
 1878 0cfc 0A090000 		.4byte	0x90a
 1879 0d00 10       		.uleb128 0x10
 1880 0d01 B30C0000 		.4byte	.LASF195
 1881 0d05 04       		.byte	0x4
ARM GAS  /var/folders/t8/16hdwfmd2fg_d3q6dgx6bpmw0000gn/T//ccFguns6.s 			page 34


 1882 0d06 0C       		.byte	0xc
 1883 0d07 89       		.byte	0x89
 1884 0d08 180D0000 		.4byte	0xd18
 1885 0d0c 11       		.uleb128 0x11
 1886 0d0d 737000   		.ascii	"sp\000"
 1887 0d10 0C       		.byte	0xc
 1888 0d11 8A       		.byte	0x8a
 1889 0d12 8A0D0000 		.4byte	0xd8a
 1890 0d16 00       		.byte	0
 1891 0d17 00       		.byte	0
 1892 0d18 10       		.uleb128 0x10
 1893 0d19 BB090000 		.4byte	.LASF196
 1894 0d1d 24       		.byte	0x24
 1895 0d1e 0D       		.byte	0xd
 1896 0d1f C3       		.byte	0xc3
 1897 0d20 8A0D0000 		.4byte	0xd8a
 1898 0d24 11       		.uleb128 0x11
 1899 0d25 723800   		.ascii	"r8\000"
 1900 0d28 0D       		.byte	0xd
 1901 0d29 C4       		.byte	0xc4
 1902 0d2a EA0C0000 		.4byte	0xcea
 1903 0d2e 00       		.byte	0
 1904 0d2f 11       		.uleb128 0x11
 1905 0d30 723900   		.ascii	"r9\000"
 1906 0d33 0D       		.byte	0xd
 1907 0d34 C5       		.byte	0xc5
 1908 0d35 EA0C0000 		.4byte	0xcea
 1909 0d39 04       		.byte	0x4
 1910 0d3a 11       		.uleb128 0x11
 1911 0d3b 72313000 		.ascii	"r10\000"
 1912 0d3f 0D       		.byte	0xd
 1913 0d40 C6       		.byte	0xc6
 1914 0d41 EA0C0000 		.4byte	0xcea
 1915 0d45 08       		.byte	0x8
 1916 0d46 11       		.uleb128 0x11
 1917 0d47 72313100 		.ascii	"r11\000"
 1918 0d4b 0D       		.byte	0xd
 1919 0d4c C7       		.byte	0xc7
 1920 0d4d EA0C0000 		.4byte	0xcea
 1921 0d51 0C       		.byte	0xc
 1922 0d52 11       		.uleb128 0x11
 1923 0d53 723400   		.ascii	"r4\000"
 1924 0d56 0D       		.byte	0xd
 1925 0d57 C8       		.byte	0xc8
 1926 0d58 EA0C0000 		.4byte	0xcea
 1927 0d5c 10       		.byte	0x10
 1928 0d5d 11       		.uleb128 0x11
 1929 0d5e 723500   		.ascii	"r5\000"
 1930 0d61 0D       		.byte	0xd
 1931 0d62 C9       		.byte	0xc9
 1932 0d63 EA0C0000 		.4byte	0xcea
 1933 0d67 14       		.byte	0x14
 1934 0d68 11       		.uleb128 0x11
 1935 0d69 723600   		.ascii	"r6\000"
 1936 0d6c 0D       		.byte	0xd
 1937 0d6d CA       		.byte	0xca
 1938 0d6e EA0C0000 		.4byte	0xcea
ARM GAS  /var/folders/t8/16hdwfmd2fg_d3q6dgx6bpmw0000gn/T//ccFguns6.s 			page 35


 1939 0d72 18       		.byte	0x18
 1940 0d73 11       		.uleb128 0x11
 1941 0d74 723700   		.ascii	"r7\000"
 1942 0d77 0D       		.byte	0xd
 1943 0d78 CB       		.byte	0xcb
 1944 0d79 EA0C0000 		.4byte	0xcea
 1945 0d7d 1C       		.byte	0x1c
 1946 0d7e 11       		.uleb128 0x11
 1947 0d7f 6C7200   		.ascii	"lr\000"
 1948 0d82 0D       		.byte	0xd
 1949 0d83 CC       		.byte	0xcc
 1950 0d84 EA0C0000 		.4byte	0xcea
 1951 0d88 20       		.byte	0x20
 1952 0d89 00       		.byte	0
 1953 0d8a 05       		.uleb128 0x5
 1954 0d8b 04       		.byte	0x4
 1955 0d8c 180D0000 		.4byte	0xd18
 1956 0d90 08       		.uleb128 0x8
 1957 0d91 04       		.byte	0x4
 1958 0d92 0A       		.byte	0xa
 1959 0d93 D2       		.byte	0xd2
 1960 0d94 F30D0000 		.4byte	0xdf3
 1961 0d98 09       		.uleb128 0x9
 1962 0d99 240D0000 		.4byte	.LASF197
 1963 0d9d 0A       		.byte	0xa
 1964 0d9e D9       		.byte	0xd9
 1965 0d9f 4C090000 		.4byte	0x94c
 1966 0da3 09       		.uleb128 0x9
 1967 0da4 6D010000 		.4byte	.LASF198
 1968 0da8 0A       		.byte	0xa
 1969 0da9 E0       		.byte	0xe0
 1970 0daa 4C090000 		.4byte	0x94c
 1971 0dae 09       		.uleb128 0x9
 1972 0daf EB040000 		.4byte	.LASF199
 1973 0db3 0A       		.byte	0xa
 1974 0db4 E7       		.byte	0xe7
 1975 0db5 4B010000 		.4byte	0x14b
 1976 0db9 09       		.uleb128 0x9
 1977 0dba 28040000 		.4byte	.LASF200
 1978 0dbe 0A       		.byte	0xa
 1979 0dbf EE       		.byte	0xee
 1980 0dc0 F30D0000 		.4byte	0xdf3
 1981 0dc4 09       		.uleb128 0x9
 1982 0dc5 9F090000 		.4byte	.LASF201
 1983 0dc9 0A       		.byte	0xa
 1984 0dca F3       		.byte	0xf3
 1985 0dcb 4C090000 		.4byte	0x94c
 1986 0dcf 09       		.uleb128 0x9
 1987 0dd0 190E0000 		.4byte	.LASF202
 1988 0dd4 0A       		.byte	0xa
 1989 0dd5 FC       		.byte	0xfc
 1990 0dd6 1E0E0000 		.4byte	0xe1e
 1991 0dda 1E       		.uleb128 0x1e
 1992 0ddb A5050000 		.4byte	.LASF203
 1993 0ddf 0A       		.byte	0xa
 1994 0de0 0501     		.2byte	0x105
 1995 0de2 550E0000 		.4byte	0xe55
ARM GAS  /var/folders/t8/16hdwfmd2fg_d3q6dgx6bpmw0000gn/T//ccFguns6.s 			page 36


 1996 0de6 1E       		.uleb128 0x1e
 1997 0de7 F4030000 		.4byte	.LASF204
 1998 0deb 0A       		.byte	0xa
 1999 0dec 0D01     		.2byte	0x10d
 2000 0dee 57090000 		.4byte	0x957
 2001 0df2 00       		.byte	0
 2002 0df3 05       		.uleb128 0x5
 2003 0df4 04       		.byte	0x4
 2004 0df5 720A0000 		.4byte	0xa72
 2005 0df9 10       		.uleb128 0x10
 2006 0dfa 73060000 		.4byte	.LASF205
 2007 0dfe 0C       		.byte	0xc
 2008 0dff 0E       		.byte	0xe
 2009 0e00 34       		.byte	0x34
 2010 0e01 1E0E0000 		.4byte	0xe1e
 2011 0e05 0D       		.uleb128 0xd
 2012 0e06 AB0A0000 		.4byte	.LASF142
 2013 0e0a 0E       		.byte	0xe
 2014 0e0b 35       		.byte	0x35
 2015 0e0c A70A0000 		.4byte	0xaa7
 2016 0e10 00       		.byte	0
 2017 0e11 11       		.uleb128 0x11
 2018 0e12 636E7400 		.ascii	"cnt\000"
 2019 0e16 0E       		.byte	0xe
 2020 0e17 37       		.byte	0x37
 2021 0e18 62090000 		.4byte	0x962
 2022 0e1c 08       		.byte	0x8
 2023 0e1d 00       		.byte	0
 2024 0e1e 05       		.uleb128 0x5
 2025 0e1f 04       		.byte	0x4
 2026 0e20 F90D0000 		.4byte	0xdf9
 2027 0e24 10       		.uleb128 0x10
 2028 0e25 E40B0000 		.4byte	.LASF206
 2029 0e29 10       		.byte	0x10
 2030 0e2a 0F       		.byte	0xf
 2031 0e2b 39       		.byte	0x39
 2032 0e2c 550E0000 		.4byte	0xe55
 2033 0e30 0D       		.uleb128 0xd
 2034 0e31 AB0A0000 		.4byte	.LASF142
 2035 0e35 0F       		.byte	0xf
 2036 0e36 3A       		.byte	0x3a
 2037 0e37 A70A0000 		.4byte	0xaa7
 2038 0e3b 00       		.byte	0
 2039 0e3c 0D       		.uleb128 0xd
 2040 0e3d 53000000 		.4byte	.LASF207
 2041 0e41 0F       		.byte	0xf
 2042 0e42 3C       		.byte	0x3c
 2043 0e43 7D0A0000 		.4byte	0xa7d
 2044 0e47 08       		.byte	0x8
 2045 0e48 0D       		.uleb128 0xd
 2046 0e49 E10D0000 		.4byte	.LASF161
 2047 0e4d 0F       		.byte	0xf
 2048 0e4e 3E       		.byte	0x3e
 2049 0e4f A00F0000 		.4byte	0xfa0
 2050 0e53 0C       		.byte	0xc
 2051 0e54 00       		.byte	0
 2052 0e55 05       		.uleb128 0x5
ARM GAS  /var/folders/t8/16hdwfmd2fg_d3q6dgx6bpmw0000gn/T//ccFguns6.s 			page 37


 2053 0e56 04       		.byte	0x4
 2054 0e57 240E0000 		.4byte	0xe24
 2055 0e5b 05       		.uleb128 0x5
 2056 0e5c 04       		.byte	0x4
 2057 0e5d F50C0000 		.4byte	0xcf5
 2058 0e61 05       		.uleb128 0x5
 2059 0e62 04       		.byte	0x4
 2060 0e63 5A0B0000 		.4byte	0xb5a
 2061 0e67 22       		.uleb128 0x22
 2062 0e68 636800   		.ascii	"ch\000"
 2063 0e6b 0A       		.byte	0xa
 2064 0e6c D201     		.2byte	0x1d2
 2065 0e6e 410C0000 		.4byte	0xc41
 2066 0e72 0A       		.uleb128 0xa
 2067 0e73 F50C0000 		.4byte	0xcf5
 2068 0e77 7D0E0000 		.4byte	0xe7d
 2069 0e7b 23       		.uleb128 0x23
 2070 0e7c 00       		.byte	0
 2071 0e7d 20       		.uleb128 0x20
 2072 0e7e B4060000 		.4byte	.LASF208
 2073 0e82 10       		.byte	0x10
 2074 0e83 2B01     		.2byte	0x12b
 2075 0e85 720E0000 		.4byte	0xe72
 2076 0e89 0C       		.uleb128 0xc
 2077 0e8a 16       		.byte	0x16
 2078 0e8b 11       		.byte	0x11
 2079 0e8c 34       		.byte	0x34
 2080 0e8d 6A0F0000 		.4byte	0xf6a
 2081 0e91 0D       		.uleb128 0xd
 2082 0e92 F60D0000 		.4byte	.LASF209
 2083 0e96 11       		.byte	0x11
 2084 0e97 35       		.byte	0x35
 2085 0e98 6A0F0000 		.4byte	0xf6a
 2086 0e9c 00       		.byte	0
 2087 0e9d 0D       		.uleb128 0xd
 2088 0e9e 01020000 		.4byte	.LASF210
 2089 0ea2 11       		.byte	0x11
 2090 0ea3 36       		.byte	0x36
 2091 0ea4 D4080000 		.4byte	0x8d4
 2092 0ea8 04       		.byte	0x4
 2093 0ea9 0D       		.uleb128 0xd
 2094 0eaa 140A0000 		.4byte	.LASF211
 2095 0eae 11       		.byte	0x11
 2096 0eaf 37       		.byte	0x37
 2097 0eb0 D4080000 		.4byte	0x8d4
 2098 0eb4 05       		.byte	0x5
 2099 0eb5 0D       		.uleb128 0xd
 2100 0eb6 E10A0000 		.4byte	.LASF212
 2101 0eba 11       		.byte	0x11
 2102 0ebb 38       		.byte	0x38
 2103 0ebc E4080000 		.4byte	0x8e4
 2104 0ec0 06       		.byte	0x6
 2105 0ec1 0D       		.uleb128 0xd
 2106 0ec2 4B050000 		.4byte	.LASF213
 2107 0ec6 11       		.byte	0x11
 2108 0ec7 39       		.byte	0x39
 2109 0ec8 D4080000 		.4byte	0x8d4
ARM GAS  /var/folders/t8/16hdwfmd2fg_d3q6dgx6bpmw0000gn/T//ccFguns6.s 			page 38


 2110 0ecc 08       		.byte	0x8
 2111 0ecd 0D       		.uleb128 0xd
 2112 0ece 9D0D0000 		.4byte	.LASF214
 2113 0ed2 11       		.byte	0x11
 2114 0ed3 3A       		.byte	0x3a
 2115 0ed4 D4080000 		.4byte	0x8d4
 2116 0ed8 09       		.byte	0x9
 2117 0ed9 0D       		.uleb128 0xd
 2118 0eda 45060000 		.4byte	.LASF215
 2119 0ede 11       		.byte	0x11
 2120 0edf 3B       		.byte	0x3b
 2121 0ee0 D4080000 		.4byte	0x8d4
 2122 0ee4 0A       		.byte	0xa
 2123 0ee5 0D       		.uleb128 0xd
 2124 0ee6 1C000000 		.4byte	.LASF216
 2125 0eea 11       		.byte	0x11
 2126 0eeb 3C       		.byte	0x3c
 2127 0eec D4080000 		.4byte	0x8d4
 2128 0ef0 0B       		.byte	0xb
 2129 0ef1 0D       		.uleb128 0xd
 2130 0ef2 00000000 		.4byte	.LASF217
 2131 0ef6 11       		.byte	0x11
 2132 0ef7 3D       		.byte	0x3d
 2133 0ef8 D4080000 		.4byte	0x8d4
 2134 0efc 0C       		.byte	0xc
 2135 0efd 0D       		.uleb128 0xd
 2136 0efe 89080000 		.4byte	.LASF218
 2137 0f02 11       		.byte	0x11
 2138 0f03 3E       		.byte	0x3e
 2139 0f04 D4080000 		.4byte	0x8d4
 2140 0f08 0D       		.byte	0xd
 2141 0f09 0D       		.uleb128 0xd
 2142 0f0a 3E010000 		.4byte	.LASF219
 2143 0f0e 11       		.byte	0x11
 2144 0f0f 3F       		.byte	0x3f
 2145 0f10 D4080000 		.4byte	0x8d4
 2146 0f14 0E       		.byte	0xe
 2147 0f15 0D       		.uleb128 0xd
 2148 0f16 440A0000 		.4byte	.LASF220
 2149 0f1a 11       		.byte	0x11
 2150 0f1b 40       		.byte	0x40
 2151 0f1c D4080000 		.4byte	0x8d4
 2152 0f20 0F       		.byte	0xf
 2153 0f21 0D       		.uleb128 0xd
 2154 0f22 5B070000 		.4byte	.LASF221
 2155 0f26 11       		.byte	0x11
 2156 0f27 41       		.byte	0x41
 2157 0f28 D4080000 		.4byte	0x8d4
 2158 0f2c 10       		.byte	0x10
 2159 0f2d 0D       		.uleb128 0xd
 2160 0f2e 24060000 		.4byte	.LASF222
 2161 0f32 11       		.byte	0x11
 2162 0f33 42       		.byte	0x42
 2163 0f34 D4080000 		.4byte	0x8d4
 2164 0f38 11       		.byte	0x11
 2165 0f39 0D       		.uleb128 0xd
 2166 0f3a B00D0000 		.4byte	.LASF223
ARM GAS  /var/folders/t8/16hdwfmd2fg_d3q6dgx6bpmw0000gn/T//ccFguns6.s 			page 39


 2167 0f3e 11       		.byte	0x11
 2168 0f3f 43       		.byte	0x43
 2169 0f40 D4080000 		.4byte	0x8d4
 2170 0f44 12       		.byte	0x12
 2171 0f45 0D       		.uleb128 0xd
 2172 0f46 0C050000 		.4byte	.LASF224
 2173 0f4a 11       		.byte	0x11
 2174 0f4b 44       		.byte	0x44
 2175 0f4c D4080000 		.4byte	0x8d4
 2176 0f50 13       		.byte	0x13
 2177 0f51 0D       		.uleb128 0xd
 2178 0f52 42000000 		.4byte	.LASF225
 2179 0f56 11       		.byte	0x11
 2180 0f57 45       		.byte	0x45
 2181 0f58 D4080000 		.4byte	0x8d4
 2182 0f5c 14       		.byte	0x14
 2183 0f5d 0D       		.uleb128 0xd
 2184 0f5e 73050000 		.4byte	.LASF226
 2185 0f62 11       		.byte	0x11
 2186 0f63 46       		.byte	0x46
 2187 0f64 D4080000 		.4byte	0x8d4
 2188 0f68 15       		.byte	0x15
 2189 0f69 00       		.byte	0
 2190 0f6a 0A       		.uleb128 0xa
 2191 0f6b 53010000 		.4byte	0x153
 2192 0f6f 7A0F0000 		.4byte	0xf7a
 2193 0f73 0B       		.uleb128 0xb
 2194 0f74 37000000 		.4byte	0x37
 2195 0f78 03       		.byte	0x3
 2196 0f79 00       		.byte	0
 2197 0f7a 03       		.uleb128 0x3
 2198 0f7b 6B0D0000 		.4byte	.LASF227
 2199 0f7f 11       		.byte	0x11
 2200 0f80 47       		.byte	0x47
 2201 0f81 890E0000 		.4byte	0xe89
 2202 0f85 0F       		.uleb128 0xf
 2203 0f86 7A0F0000 		.4byte	0xf7a
 2204 0f8a 24       		.uleb128 0x24
 2205 0f8b 67000000 		.4byte	.LASF228
 2206 0f8f 11       		.byte	0x11
 2207 0f90 6C       		.byte	0x6c
 2208 0f91 850F0000 		.4byte	0xf85
 2209 0f95 03       		.uleb128 0x3
 2210 0f96 9C0C0000 		.4byte	.LASF229
 2211 0f9a 0F       		.byte	0xf
 2212 0f9b 34       		.byte	0x34
 2213 0f9c 240E0000 		.4byte	0xe24
 2214 0fa0 05       		.uleb128 0x5
 2215 0fa1 04       		.byte	0x4
 2216 0fa2 950F0000 		.4byte	0xf95
 2217 0fa6 15       		.uleb128 0x15
 2218 0fa7 2C000000 		.4byte	0x2c
 2219 0fab BF0F0000 		.4byte	0xfbf
 2220 0faf 16       		.uleb128 0x16
 2221 0fb0 4B010000 		.4byte	0x14b
 2222 0fb4 16       		.uleb128 0x16
 2223 0fb5 BF0F0000 		.4byte	0xfbf
ARM GAS  /var/folders/t8/16hdwfmd2fg_d3q6dgx6bpmw0000gn/T//ccFguns6.s 			page 40


 2224 0fb9 16       		.uleb128 0x16
 2225 0fba 2C000000 		.4byte	0x2c
 2226 0fbe 00       		.byte	0
 2227 0fbf 05       		.uleb128 0x5
 2228 0fc0 04       		.byte	0x4
 2229 0fc1 DF080000 		.4byte	0x8df
 2230 0fc5 05       		.uleb128 0x5
 2231 0fc6 04       		.byte	0x4
 2232 0fc7 A60F0000 		.4byte	0xfa6
 2233 0fcb 15       		.uleb128 0x15
 2234 0fcc 2C000000 		.4byte	0x2c
 2235 0fd0 E40F0000 		.4byte	0xfe4
 2236 0fd4 16       		.uleb128 0x16
 2237 0fd5 4B010000 		.4byte	0x14b
 2238 0fd9 16       		.uleb128 0x16
 2239 0fda E40F0000 		.4byte	0xfe4
 2240 0fde 16       		.uleb128 0x16
 2241 0fdf 2C000000 		.4byte	0x2c
 2242 0fe3 00       		.byte	0
 2243 0fe4 05       		.uleb128 0x5
 2244 0fe5 04       		.byte	0x4
 2245 0fe6 D4080000 		.4byte	0x8d4
 2246 0fea 05       		.uleb128 0x5
 2247 0feb 04       		.byte	0x4
 2248 0fec CB0F0000 		.4byte	0xfcb
 2249 0ff0 15       		.uleb128 0x15
 2250 0ff1 4C090000 		.4byte	0x94c
 2251 0ff5 04100000 		.4byte	0x1004
 2252 0ff9 16       		.uleb128 0x16
 2253 0ffa 4B010000 		.4byte	0x14b
 2254 0ffe 16       		.uleb128 0x16
 2255 0fff D4080000 		.4byte	0x8d4
 2256 1003 00       		.byte	0
 2257 1004 05       		.uleb128 0x5
 2258 1005 04       		.byte	0x4
 2259 1006 F00F0000 		.4byte	0xff0
 2260 100a 15       		.uleb128 0x15
 2261 100b 4C090000 		.4byte	0x94c
 2262 100f 19100000 		.4byte	0x1019
 2263 1013 16       		.uleb128 0x16
 2264 1014 4B010000 		.4byte	0x14b
 2265 1018 00       		.byte	0
 2266 1019 05       		.uleb128 0x5
 2267 101a 04       		.byte	0x4
 2268 101b 0A100000 		.4byte	0x100a
 2269 101f 04       		.uleb128 0x4
 2270 1020 01       		.byte	0x1
 2271 1021 02       		.byte	0x2
 2272 1022 B0040000 		.4byte	.LASF230
 2273 1026 03       		.uleb128 0x3
 2274 1027 4D010000 		.4byte	.LASF231
 2275 102b 12       		.byte	0x12
 2276 102c 46       		.byte	0x46
 2277 102d FA080000 		.4byte	0x8fa
 2278 1031 03       		.uleb128 0x3
 2279 1032 15020000 		.4byte	.LASF232
 2280 1036 12       		.byte	0x12
ARM GAS  /var/folders/t8/16hdwfmd2fg_d3q6dgx6bpmw0000gn/T//ccFguns6.s 			page 41


 2281 1037 53       		.byte	0x53
 2282 1038 3C100000 		.4byte	0x103c
 2283 103c 05       		.uleb128 0x5
 2284 103d 04       		.byte	0x4
 2285 103e DF0C0000 		.4byte	0xcdf
 2286 1042 0C       		.uleb128 0xc
 2287 1043 84       		.byte	0x84
 2288 1044 12       		.byte	0x12
 2289 1045 5A       		.byte	0x5a
 2290 1046 63100000 		.4byte	0x1063
 2291 104a 0D       		.uleb128 0xd
 2292 104b B50B0000 		.4byte	.LASF233
 2293 104f 12       		.byte	0x12
 2294 1050 5B       		.byte	0x5b
 2295 1051 31100000 		.4byte	0x1031
 2296 1055 00       		.byte	0
 2297 1056 0D       		.uleb128 0xd
 2298 1057 4B080000 		.4byte	.LASF234
 2299 105b 12       		.byte	0x12
 2300 105c 5C       		.byte	0x5c
 2301 105d 63100000 		.4byte	0x1063
 2302 1061 04       		.byte	0x4
 2303 1062 00       		.byte	0
 2304 1063 0A       		.uleb128 0xa
 2305 1064 26100000 		.4byte	0x1026
 2306 1068 73100000 		.4byte	0x1073
 2307 106c 0B       		.uleb128 0xb
 2308 106d 37000000 		.4byte	0x37
 2309 1071 1F       		.byte	0x1f
 2310 1072 00       		.byte	0
 2311 1073 03       		.uleb128 0x3
 2312 1074 0E060000 		.4byte	.LASF235
 2313 1078 12       		.byte	0x12
 2314 1079 5D       		.byte	0x5d
 2315 107a 42100000 		.4byte	0x1042
 2316 107e 25       		.uleb128 0x25
 2317 107f 9402     		.2byte	0x294
 2318 1081 12       		.byte	0x12
 2319 1082 68       		.byte	0x68
 2320 1083 94100000 		.4byte	0x1094
 2321 1087 0D       		.uleb128 0xd
 2322 1088 8E010000 		.4byte	.LASF236
 2323 108c 12       		.byte	0x12
 2324 108d 69       		.byte	0x69
 2325 108e 94100000 		.4byte	0x1094
 2326 1092 00       		.byte	0
 2327 1093 00       		.byte	0
 2328 1094 0A       		.uleb128 0xa
 2329 1095 73100000 		.4byte	0x1073
 2330 1099 A4100000 		.4byte	0x10a4
 2331 109d 0B       		.uleb128 0xb
 2332 109e 37000000 		.4byte	0x37
 2333 10a2 04       		.byte	0x4
 2334 10a3 00       		.byte	0
 2335 10a4 03       		.uleb128 0x3
 2336 10a5 2E0C0000 		.4byte	.LASF237
 2337 10a9 12       		.byte	0x12
ARM GAS  /var/folders/t8/16hdwfmd2fg_d3q6dgx6bpmw0000gn/T//ccFguns6.s 			page 42


 2338 10aa 6A       		.byte	0x6a
 2339 10ab 7E100000 		.4byte	0x107e
 2340 10af 0F       		.uleb128 0xf
 2341 10b0 A4100000 		.4byte	0x10a4
 2342 10b4 20       		.uleb128 0x20
 2343 10b5 C8030000 		.4byte	.LASF238
 2344 10b9 12       		.byte	0x12
 2345 10ba 8D01     		.2byte	0x18d
 2346 10bc AF100000 		.4byte	0x10af
 2347 10c0 07       		.uleb128 0x7
 2348 10c1 E1040000 		.4byte	.LASF239
 2349 10c5 13       		.byte	0x13
 2350 10c6 0001     		.2byte	0x100
 2351 10c8 CC100000 		.4byte	0x10cc
 2352 10cc 1B       		.uleb128 0x1b
 2353 10cd E1040000 		.4byte	.LASF239
 2354 10d1 E8       		.byte	0xe8
 2355 10d2 14       		.byte	0x14
 2356 10d3 0601     		.2byte	0x106
 2357 10d5 B7110000 		.4byte	0x11b7
 2358 10d9 18       		.uleb128 0x18
 2359 10da 07010000 		.4byte	.LASF148
 2360 10de 14       		.byte	0x14
 2361 10df 0A01     		.2byte	0x10a
 2362 10e1 F6110000 		.4byte	0x11f6
 2363 10e5 00       		.byte	0
 2364 10e6 18       		.uleb128 0x18
 2365 10e7 00010000 		.4byte	.LASF240
 2366 10eb 14       		.byte	0x14
 2367 10ec 0E01     		.2byte	0x10e
 2368 10ee 2A150000 		.4byte	0x152a
 2369 10f2 04       		.byte	0x4
 2370 10f3 18       		.uleb128 0x18
 2371 10f4 53050000 		.4byte	.LASF241
 2372 10f8 14       		.byte	0x14
 2373 10f9 1201     		.2byte	0x112
 2374 10fb E4080000 		.4byte	0x8e4
 2375 10ff 08       		.byte	0x8
 2376 1100 18       		.uleb128 0x18
 2377 1101 CC040000 		.4byte	.LASF242
 2378 1105 14       		.byte	0x14
 2379 1106 1601     		.2byte	0x116
 2380 1108 E4080000 		.4byte	0x8e4
 2381 110c 0A       		.byte	0xa
 2382 110d 21       		.uleb128 0x21
 2383 110e 65706300 		.ascii	"epc\000"
 2384 1112 14       		.byte	0x14
 2385 1113 1A01     		.2byte	0x11a
 2386 1115 30150000 		.4byte	0x1530
 2387 1119 0C       		.byte	0xc
 2388 111a 18       		.uleb128 0x18
 2389 111b 9B0B0000 		.4byte	.LASF243
 2390 111f 14       		.byte	0x14
 2391 1120 2101     		.2byte	0x121
 2392 1122 46150000 		.4byte	0x1546
 2393 1126 4C       		.byte	0x4c
 2394 1127 18       		.uleb128 0x18
ARM GAS  /var/folders/t8/16hdwfmd2fg_d3q6dgx6bpmw0000gn/T//ccFguns6.s 			page 43


 2395 1128 93060000 		.4byte	.LASF244
 2396 112c 14       		.byte	0x14
 2397 112d 2801     		.2byte	0x128
 2398 112f 46150000 		.4byte	0x1546
 2399 1133 88       		.byte	0x88
 2400 1134 18       		.uleb128 0x18
 2401 1135 87040000 		.4byte	.LASF245
 2402 1139 14       		.byte	0x14
 2403 113a 2C01     		.2byte	0x12c
 2404 113c 3B120000 		.4byte	0x123b
 2405 1140 C4       		.byte	0xc4
 2406 1141 18       		.uleb128 0x18
 2407 1142 24080000 		.4byte	.LASF246
 2408 1146 14       		.byte	0x14
 2409 1147 3001     		.2byte	0x130
 2410 1149 E40F0000 		.4byte	0xfe4
 2411 114d C8       		.byte	0xc8
 2412 114e 18       		.uleb128 0x18
 2413 114f C7040000 		.4byte	.LASF247
 2414 1153 14       		.byte	0x14
 2415 1154 3401     		.2byte	0x134
 2416 1156 2C000000 		.4byte	0x2c
 2417 115a CC       		.byte	0xcc
 2418 115b 18       		.uleb128 0x18
 2419 115c 80060000 		.4byte	.LASF248
 2420 1160 14       		.byte	0x14
 2421 1161 3801     		.2byte	0x138
 2422 1163 C1120000 		.4byte	0x12c1
 2423 1167 D0       		.byte	0xd0
 2424 1168 18       		.uleb128 0x18
 2425 1169 9F050000 		.4byte	.LASF249
 2426 116d 14       		.byte	0x14
 2427 116e 3C01     		.2byte	0x13c
 2428 1170 56150000 		.4byte	0x1556
 2429 1174 D4       		.byte	0xd4
 2430 1175 18       		.uleb128 0x18
 2431 1176 D60C0000 		.4byte	.LASF250
 2432 117a 14       		.byte	0x14
 2433 117b 4001     		.2byte	0x140
 2434 117d E4080000 		.4byte	0x8e4
 2435 1181 DC       		.byte	0xdc
 2436 1182 18       		.uleb128 0x18
 2437 1183 6B060000 		.4byte	.LASF251
 2438 1187 14       		.byte	0x14
 2439 1188 4401     		.2byte	0x144
 2440 118a D4080000 		.4byte	0x8d4
 2441 118e DE       		.byte	0xde
 2442 118f 18       		.uleb128 0x18
 2443 1190 00060000 		.4byte	.LASF252
 2444 1194 14       		.byte	0x14
 2445 1195 4801     		.2byte	0x148
 2446 1197 D4080000 		.4byte	0x8d4
 2447 119b DF       		.byte	0xdf
 2448 119c 18       		.uleb128 0x18
 2449 119d 8A0A0000 		.4byte	.LASF253
 2450 11a1 14       		.byte	0x14
 2451 11a2 4C01     		.2byte	0x14c
ARM GAS  /var/folders/t8/16hdwfmd2fg_d3q6dgx6bpmw0000gn/T//ccFguns6.s 			page 44


 2452 11a4 F6110000 		.4byte	0x11f6
 2453 11a8 E0       		.byte	0xe0
 2454 11a9 18       		.uleb128 0x18
 2455 11aa E60D0000 		.4byte	.LASF254
 2456 11ae 14       		.byte	0x14
 2457 11af 5401     		.2byte	0x154
 2458 11b1 FA080000 		.4byte	0x8fa
 2459 11b5 E4       		.byte	0xe4
 2460 11b6 00       		.byte	0
 2461 11b7 07       		.uleb128 0x7
 2462 11b8 060D0000 		.4byte	.LASF255
 2463 11bc 13       		.byte	0x13
 2464 11bd 0501     		.2byte	0x105
 2465 11bf D4080000 		.4byte	0x8d4
 2466 11c3 26       		.uleb128 0x26
 2467 11c4 07       		.byte	0x7
 2468 11c5 01       		.byte	0x1
 2469 11c6 50000000 		.4byte	0x50
 2470 11ca 13       		.byte	0x13
 2471 11cb 0A01     		.2byte	0x10a
 2472 11cd F6110000 		.4byte	0x11f6
 2473 11d1 27       		.uleb128 0x27
 2474 11d2 EA090000 		.4byte	.LASF256
 2475 11d6 00       		.byte	0
 2476 11d7 27       		.uleb128 0x27
 2477 11d8 4B090000 		.4byte	.LASF257
 2478 11dc 01       		.byte	0x1
 2479 11dd 27       		.uleb128 0x27
 2480 11de FB070000 		.4byte	.LASF258
 2481 11e2 02       		.byte	0x2
 2482 11e3 27       		.uleb128 0x27
 2483 11e4 EB050000 		.4byte	.LASF259
 2484 11e8 03       		.byte	0x3
 2485 11e9 27       		.uleb128 0x27
 2486 11ea A50B0000 		.4byte	.LASF260
 2487 11ee 04       		.byte	0x4
 2488 11ef 27       		.uleb128 0x27
 2489 11f0 BA030000 		.4byte	.LASF261
 2490 11f4 05       		.byte	0x5
 2491 11f5 00       		.byte	0
 2492 11f6 07       		.uleb128 0x7
 2493 11f7 70070000 		.4byte	.LASF262
 2494 11fb 13       		.byte	0x13
 2495 11fc 1101     		.2byte	0x111
 2496 11fe C3110000 		.4byte	0x11c3
 2497 1202 26       		.uleb128 0x26
 2498 1203 07       		.byte	0x7
 2499 1204 01       		.byte	0x1
 2500 1205 50000000 		.4byte	0x50
 2501 1209 13       		.byte	0x13
 2502 120a 1F01     		.2byte	0x11f
 2503 120c 3B120000 		.4byte	0x123b
 2504 1210 27       		.uleb128 0x27
 2505 1211 8E030000 		.4byte	.LASF263
 2506 1215 00       		.byte	0
 2507 1216 27       		.uleb128 0x27
 2508 1217 300A0000 		.4byte	.LASF264
ARM GAS  /var/folders/t8/16hdwfmd2fg_d3q6dgx6bpmw0000gn/T//ccFguns6.s 			page 45


 2509 121b 01       		.byte	0x1
 2510 121c 27       		.uleb128 0x27
 2511 121d A7090000 		.4byte	.LASF265
 2512 1221 02       		.byte	0x2
 2513 1222 27       		.uleb128 0x27
 2514 1223 CD0D0000 		.4byte	.LASF266
 2515 1227 03       		.byte	0x3
 2516 1228 27       		.uleb128 0x27
 2517 1229 0E0E0000 		.4byte	.LASF267
 2518 122d 04       		.byte	0x4
 2519 122e 27       		.uleb128 0x27
 2520 122f 410B0000 		.4byte	.LASF268
 2521 1233 05       		.byte	0x5
 2522 1234 27       		.uleb128 0x27
 2523 1235 3C040000 		.4byte	.LASF269
 2524 1239 06       		.byte	0x6
 2525 123a 00       		.byte	0
 2526 123b 07       		.uleb128 0x7
 2527 123c 76010000 		.4byte	.LASF270
 2528 1240 13       		.byte	0x13
 2529 1241 2701     		.2byte	0x127
 2530 1243 02120000 		.4byte	0x1202
 2531 1247 26       		.uleb128 0x26
 2532 1248 07       		.byte	0x7
 2533 1249 01       		.byte	0x1
 2534 124a 50000000 		.4byte	0x50
 2535 124e 13       		.byte	0x13
 2536 124f 2C01     		.2byte	0x12c
 2537 1251 80120000 		.4byte	0x1280
 2538 1255 27       		.uleb128 0x27
 2539 1256 05080000 		.4byte	.LASF271
 2540 125a 00       		.byte	0
 2541 125b 27       		.uleb128 0x27
 2542 125c B6010000 		.4byte	.LASF272
 2543 1260 01       		.byte	0x1
 2544 1261 27       		.uleb128 0x27
 2545 1262 2C0B0000 		.4byte	.LASF273
 2546 1266 02       		.byte	0x2
 2547 1267 27       		.uleb128 0x27
 2548 1268 F00A0000 		.4byte	.LASF274
 2549 126c 03       		.byte	0x3
 2550 126d 27       		.uleb128 0x27
 2551 126e 750D0000 		.4byte	.LASF275
 2552 1272 04       		.byte	0x4
 2553 1273 27       		.uleb128 0x27
 2554 1274 B5070000 		.4byte	.LASF276
 2555 1278 05       		.byte	0x5
 2556 1279 27       		.uleb128 0x27
 2557 127a 03040000 		.4byte	.LASF277
 2558 127e 06       		.byte	0x6
 2559 127f 00       		.byte	0
 2560 1280 07       		.uleb128 0x7
 2561 1281 B1050000 		.4byte	.LASF278
 2562 1285 13       		.byte	0x13
 2563 1286 3401     		.2byte	0x134
 2564 1288 47120000 		.4byte	0x1247
 2565 128c 1C       		.uleb128 0x1c
ARM GAS  /var/folders/t8/16hdwfmd2fg_d3q6dgx6bpmw0000gn/T//ccFguns6.s 			page 46


 2566 128d 08       		.byte	0x8
 2567 128e 13       		.byte	0x13
 2568 128f 3901     		.2byte	0x139
 2569 1291 B0120000 		.4byte	0x12b0
 2570 1295 18       		.uleb128 0x18
 2571 1296 DB050000 		.4byte	.LASF279
 2572 129a 13       		.byte	0x13
 2573 129b 3D01     		.2byte	0x13d
 2574 129d 2C000000 		.4byte	0x2c
 2575 12a1 00       		.byte	0
 2576 12a2 18       		.uleb128 0x18
 2577 12a3 02050000 		.4byte	.LASF280
 2578 12a7 13       		.byte	0x13
 2579 12a8 4101     		.2byte	0x141
 2580 12aa BF0F0000 		.4byte	0xfbf
 2581 12ae 04       		.byte	0x4
 2582 12af 00       		.byte	0
 2583 12b0 07       		.uleb128 0x7
 2584 12b1 89050000 		.4byte	.LASF281
 2585 12b5 13       		.byte	0x13
 2586 12b6 4201     		.2byte	0x142
 2587 12b8 8C120000 		.4byte	0x128c
 2588 12bc 0F       		.uleb128 0xf
 2589 12bd B0120000 		.4byte	0x12b0
 2590 12c1 07       		.uleb128 0x7
 2591 12c2 380C0000 		.4byte	.LASF282
 2592 12c6 13       		.byte	0x13
 2593 12c7 4A01     		.2byte	0x14a
 2594 12c9 CD120000 		.4byte	0x12cd
 2595 12cd 05       		.uleb128 0x5
 2596 12ce 04       		.byte	0x4
 2597 12cf D3120000 		.4byte	0x12d3
 2598 12d3 1F       		.uleb128 0x1f
 2599 12d4 DE120000 		.4byte	0x12de
 2600 12d8 16       		.uleb128 0x16
 2601 12d9 DE120000 		.4byte	0x12de
 2602 12dd 00       		.byte	0
 2603 12de 05       		.uleb128 0x5
 2604 12df 04       		.byte	0x4
 2605 12e0 C0100000 		.4byte	0x10c0
 2606 12e4 07       		.uleb128 0x7
 2607 12e5 58080000 		.4byte	.LASF283
 2608 12e9 13       		.byte	0x13
 2609 12ea 5301     		.2byte	0x153
 2610 12ec F0120000 		.4byte	0x12f0
 2611 12f0 05       		.uleb128 0x5
 2612 12f1 04       		.byte	0x4
 2613 12f2 F6120000 		.4byte	0x12f6
 2614 12f6 1F       		.uleb128 0x1f
 2615 12f7 06130000 		.4byte	0x1306
 2616 12fb 16       		.uleb128 0x16
 2617 12fc DE120000 		.4byte	0x12de
 2618 1300 16       		.uleb128 0x16
 2619 1301 B7110000 		.4byte	0x11b7
 2620 1305 00       		.byte	0
 2621 1306 07       		.uleb128 0x7
 2622 1307 32050000 		.4byte	.LASF284
ARM GAS  /var/folders/t8/16hdwfmd2fg_d3q6dgx6bpmw0000gn/T//ccFguns6.s 			page 47


 2623 130b 13       		.byte	0x13
 2624 130c 5C01     		.2byte	0x15c
 2625 130e 12130000 		.4byte	0x1312
 2626 1312 05       		.uleb128 0x5
 2627 1313 04       		.byte	0x4
 2628 1314 18130000 		.4byte	0x1318
 2629 1318 1F       		.uleb128 0x1f
 2630 1319 28130000 		.4byte	0x1328
 2631 131d 16       		.uleb128 0x16
 2632 131e DE120000 		.4byte	0x12de
 2633 1322 16       		.uleb128 0x16
 2634 1323 80120000 		.4byte	0x1280
 2635 1327 00       		.byte	0
 2636 1328 07       		.uleb128 0x7
 2637 1329 1E0C0000 		.4byte	.LASF285
 2638 132d 13       		.byte	0x13
 2639 132e 6801     		.2byte	0x168
 2640 1330 34130000 		.4byte	0x1334
 2641 1334 05       		.uleb128 0x5
 2642 1335 04       		.byte	0x4
 2643 1336 3A130000 		.4byte	0x133a
 2644 133a 15       		.uleb128 0x15
 2645 133b 1F100000 		.4byte	0x101f
 2646 133f 49130000 		.4byte	0x1349
 2647 1343 16       		.uleb128 0x16
 2648 1344 DE120000 		.4byte	0x12de
 2649 1348 00       		.byte	0
 2650 1349 07       		.uleb128 0x7
 2651 134a 810B0000 		.4byte	.LASF286
 2652 134e 13       		.byte	0x13
 2653 134f 6D01     		.2byte	0x16d
 2654 1351 55130000 		.4byte	0x1355
 2655 1355 05       		.uleb128 0x5
 2656 1356 04       		.byte	0x4
 2657 1357 5B130000 		.4byte	0x135b
 2658 135b 15       		.uleb128 0x15
 2659 135c 79130000 		.4byte	0x1379
 2660 1360 79130000 		.4byte	0x1379
 2661 1364 16       		.uleb128 0x16
 2662 1365 DE120000 		.4byte	0x12de
 2663 1369 16       		.uleb128 0x16
 2664 136a D4080000 		.4byte	0x8d4
 2665 136e 16       		.uleb128 0x16
 2666 136f D4080000 		.4byte	0x8d4
 2667 1373 16       		.uleb128 0x16
 2668 1374 E4080000 		.4byte	0x8e4
 2669 1378 00       		.byte	0
 2670 1379 05       		.uleb128 0x5
 2671 137a 04       		.byte	0x4
 2672 137b BC120000 		.4byte	0x12bc
 2673 137f 0C       		.uleb128 0xc
 2674 1380 14       		.byte	0x14
 2675 1381 14       		.byte	0x14
 2676 1382 6B       		.byte	0x6b
 2677 1383 D0130000 		.4byte	0x13d0
 2678 1387 0D       		.uleb128 0xd
 2679 1388 01070000 		.4byte	.LASF287
ARM GAS  /var/folders/t8/16hdwfmd2fg_d3q6dgx6bpmw0000gn/T//ccFguns6.s 			page 48


 2680 138c 14       		.byte	0x14
 2681 138d 6F       		.byte	0x6f
 2682 138e 2C000000 		.4byte	0x2c
 2683 1392 00       		.byte	0
 2684 1393 0D       		.uleb128 0xd
 2685 1394 EB010000 		.4byte	.LASF288
 2686 1398 14       		.byte	0x14
 2687 1399 73       		.byte	0x73
 2688 139a 2C000000 		.4byte	0x2c
 2689 139e 04       		.byte	0x4
 2690 139f 0D       		.uleb128 0xd
 2691 13a0 38030000 		.4byte	.LASF289
 2692 13a4 14       		.byte	0x14
 2693 13a5 77       		.byte	0x77
 2694 13a6 BF0F0000 		.4byte	0xfbf
 2695 13aa 08       		.byte	0x8
 2696 13ab 0D       		.uleb128 0xd
 2697 13ac 120B0000 		.4byte	.LASF290
 2698 13b0 14       		.byte	0x14
 2699 13b1 7C       		.byte	0x7c
 2700 13b2 720A0000 		.4byte	0xa72
 2701 13b6 0C       		.byte	0xc
 2702 13b7 0D       		.uleb128 0xd
 2703 13b8 ED000000 		.4byte	.LASF291
 2704 13bc 14       		.byte	0x14
 2705 13bd 80       		.byte	0x80
 2706 13be 1F100000 		.4byte	0x101f
 2707 13c2 10       		.byte	0x10
 2708 13c3 0D       		.uleb128 0xd
 2709 13c4 460C0000 		.4byte	.LASF292
 2710 13c8 14       		.byte	0x14
 2711 13c9 82       		.byte	0x82
 2712 13ca 1F100000 		.4byte	0x101f
 2713 13ce 11       		.byte	0x11
 2714 13cf 00       		.byte	0
 2715 13d0 03       		.uleb128 0x3
 2716 13d1 60050000 		.4byte	.LASF293
 2717 13d5 14       		.byte	0x14
 2718 13d6 83       		.byte	0x83
 2719 13d7 7F130000 		.4byte	0x137f
 2720 13db 0C       		.uleb128 0xc
 2721 13dc 14       		.byte	0x14
 2722 13dd 14       		.byte	0x14
 2723 13de 88       		.byte	0x88
 2724 13df 38140000 		.4byte	0x1438
 2725 13e3 0D       		.uleb128 0xd
 2726 13e4 21040000 		.4byte	.LASF294
 2727 13e8 14       		.byte	0x14
 2728 13e9 8C       		.byte	0x8c
 2729 13ea 2C000000 		.4byte	0x2c
 2730 13ee 00       		.byte	0
 2731 13ef 0D       		.uleb128 0xd
 2732 13f0 54090000 		.4byte	.LASF295
 2733 13f4 14       		.byte	0x14
 2734 13f5 90       		.byte	0x90
 2735 13f6 2C000000 		.4byte	0x2c
 2736 13fa 04       		.byte	0x4
ARM GAS  /var/folders/t8/16hdwfmd2fg_d3q6dgx6bpmw0000gn/T//ccFguns6.s 			page 49


 2737 13fb 0D       		.uleb128 0xd
 2738 13fc A6070000 		.4byte	.LASF296
 2739 1400 14       		.byte	0x14
 2740 1401 94       		.byte	0x94
 2741 1402 E40F0000 		.4byte	0xfe4
 2742 1406 08       		.byte	0x8
 2743 1407 0D       		.uleb128 0xd
 2744 1408 120B0000 		.4byte	.LASF290
 2745 140c 14       		.byte	0x14
 2746 140d 99       		.byte	0x99
 2747 140e 720A0000 		.4byte	0xa72
 2748 1412 0C       		.byte	0xc
 2749 1413 0D       		.uleb128 0xd
 2750 1414 160D0000 		.4byte	.LASF297
 2751 1418 14       		.byte	0x14
 2752 1419 9F       		.byte	0x9f
 2753 141a E4080000 		.4byte	0x8e4
 2754 141e 10       		.byte	0x10
 2755 141f 0D       		.uleb128 0xd
 2756 1420 ED000000 		.4byte	.LASF291
 2757 1424 14       		.byte	0x14
 2758 1425 A1       		.byte	0xa1
 2759 1426 1F100000 		.4byte	0x101f
 2760 142a 12       		.byte	0x12
 2761 142b 0D       		.uleb128 0xd
 2762 142c 460C0000 		.4byte	.LASF292
 2763 1430 14       		.byte	0x14
 2764 1431 A3       		.byte	0xa3
 2765 1432 1F100000 		.4byte	0x101f
 2766 1436 13       		.byte	0x13
 2767 1437 00       		.byte	0
 2768 1438 03       		.uleb128 0x3
 2769 1439 2A010000 		.4byte	.LASF298
 2770 143d 14       		.byte	0x14
 2771 143e A4       		.byte	0xa4
 2772 143f DB130000 		.4byte	0x13db
 2773 1443 0C       		.uleb128 0xc
 2774 1444 24       		.byte	0x24
 2775 1445 14       		.byte	0x14
 2776 1446 AA       		.byte	0xaa
 2777 1447 C4140000 		.4byte	0x14c4
 2778 144b 0D       		.uleb128 0xd
 2779 144c 0D010000 		.4byte	.LASF299
 2780 1450 14       		.byte	0x14
 2781 1451 AE       		.byte	0xae
 2782 1452 FA080000 		.4byte	0x8fa
 2783 1456 00       		.byte	0
 2784 1457 0D       		.uleb128 0xd
 2785 1458 F9040000 		.4byte	.LASF300
 2786 145c 14       		.byte	0x14
 2787 145d B9       		.byte	0xb9
 2788 145e E4120000 		.4byte	0x12e4
 2789 1462 04       		.byte	0x4
 2790 1463 0D       		.uleb128 0xd
 2791 1464 1B050000 		.4byte	.LASF301
 2792 1468 14       		.byte	0x14
 2793 1469 BE       		.byte	0xbe
ARM GAS  /var/folders/t8/16hdwfmd2fg_d3q6dgx6bpmw0000gn/T//ccFguns6.s 			page 50


 2794 146a E4120000 		.4byte	0x12e4
 2795 146e 08       		.byte	0x8
 2796 146f 0D       		.uleb128 0xd
 2797 1470 18090000 		.4byte	.LASF302
 2798 1474 14       		.byte	0x14
 2799 1475 C3       		.byte	0xc3
 2800 1476 E4120000 		.4byte	0x12e4
 2801 147a 0C       		.byte	0xc
 2802 147b 0D       		.uleb128 0xd
 2803 147c 5A090000 		.4byte	.LASF303
 2804 1480 14       		.byte	0x14
 2805 1481 C8       		.byte	0xc8
 2806 1482 E4080000 		.4byte	0x8e4
 2807 1486 10       		.byte	0x10
 2808 1487 0D       		.uleb128 0xd
 2809 1488 3F050000 		.4byte	.LASF304
 2810 148c 14       		.byte	0x14
 2811 148d CD       		.byte	0xcd
 2812 148e E4080000 		.4byte	0x8e4
 2813 1492 12       		.byte	0x12
 2814 1493 0D       		.uleb128 0xd
 2815 1494 AC070000 		.4byte	.LASF305
 2816 1498 14       		.byte	0x14
 2817 1499 D3       		.byte	0xd3
 2818 149a C4140000 		.4byte	0x14c4
 2819 149e 14       		.byte	0x14
 2820 149f 0D       		.uleb128 0xd
 2821 14a0 6D090000 		.4byte	.LASF306
 2822 14a4 14       		.byte	0x14
 2823 14a5 D9       		.byte	0xd9
 2824 14a6 CA140000 		.4byte	0x14ca
 2825 14aa 18       		.byte	0x18
 2826 14ab 0D       		.uleb128 0xd
 2827 14ac 8A090000 		.4byte	.LASF307
 2828 14b0 14       		.byte	0x14
 2829 14b1 DF       		.byte	0xdf
 2830 14b2 E4080000 		.4byte	0x8e4
 2831 14b6 1C       		.byte	0x1c
 2832 14b7 0D       		.uleb128 0xd
 2833 14b8 C7080000 		.4byte	.LASF308
 2834 14bc 14       		.byte	0x14
 2835 14bd E5       		.byte	0xe5
 2836 14be E40F0000 		.4byte	0xfe4
 2837 14c2 20       		.byte	0x20
 2838 14c3 00       		.byte	0
 2839 14c4 05       		.uleb128 0x5
 2840 14c5 04       		.byte	0x4
 2841 14c6 D0130000 		.4byte	0x13d0
 2842 14ca 05       		.uleb128 0x5
 2843 14cb 04       		.byte	0x4
 2844 14cc 38140000 		.4byte	0x1438
 2845 14d0 03       		.uleb128 0x3
 2846 14d1 610B0000 		.4byte	.LASF309
 2847 14d5 14       		.byte	0x14
 2848 14d6 E6       		.byte	0xe6
 2849 14d7 43140000 		.4byte	0x1443
 2850 14db 0F       		.uleb128 0xf
ARM GAS  /var/folders/t8/16hdwfmd2fg_d3q6dgx6bpmw0000gn/T//ccFguns6.s 			page 51


 2851 14dc D0140000 		.4byte	0x14d0
 2852 14e0 0C       		.uleb128 0xc
 2853 14e1 10       		.byte	0x10
 2854 14e2 14       		.byte	0x14
 2855 14e3 EB       		.byte	0xeb
 2856 14e4 19150000 		.4byte	0x1519
 2857 14e8 0D       		.uleb128 0xd
 2858 14e9 DC070000 		.4byte	.LASF310
 2859 14ed 14       		.byte	0x14
 2860 14ee F0       		.byte	0xf0
 2861 14ef 06130000 		.4byte	0x1306
 2862 14f3 00       		.byte	0
 2863 14f4 0D       		.uleb128 0xd
 2864 14f5 4D0D0000 		.4byte	.LASF311
 2865 14f9 14       		.byte	0x14
 2866 14fa F5       		.byte	0xf5
 2867 14fb 49130000 		.4byte	0x1349
 2868 14ff 04       		.byte	0x4
 2869 1500 0D       		.uleb128 0xd
 2870 1501 9F040000 		.4byte	.LASF312
 2871 1505 14       		.byte	0x14
 2872 1506 FB       		.byte	0xfb
 2873 1507 28130000 		.4byte	0x1328
 2874 150b 08       		.byte	0x8
 2875 150c 0D       		.uleb128 0xd
 2876 150d CF0C0000 		.4byte	.LASF313
 2877 1511 14       		.byte	0x14
 2878 1512 FF       		.byte	0xff
 2879 1513 C1120000 		.4byte	0x12c1
 2880 1517 0C       		.byte	0xc
 2881 1518 00       		.byte	0
 2882 1519 07       		.uleb128 0x7
 2883 151a A0080000 		.4byte	.LASF314
 2884 151e 14       		.byte	0x14
 2885 151f 0101     		.2byte	0x101
 2886 1521 E0140000 		.4byte	0x14e0
 2887 1525 0F       		.uleb128 0xf
 2888 1526 19150000 		.4byte	0x1519
 2889 152a 05       		.uleb128 0x5
 2890 152b 04       		.byte	0x4
 2891 152c 25150000 		.4byte	0x1525
 2892 1530 0A       		.uleb128 0xa
 2893 1531 40150000 		.4byte	0x1540
 2894 1535 40150000 		.4byte	0x1540
 2895 1539 0B       		.uleb128 0xb
 2896 153a 37000000 		.4byte	0x37
 2897 153e 0F       		.byte	0xf
 2898 153f 00       		.byte	0
 2899 1540 05       		.uleb128 0x5
 2900 1541 04       		.byte	0x4
 2901 1542 DB140000 		.4byte	0x14db
 2902 1546 0A       		.uleb128 0xa
 2903 1547 4B010000 		.4byte	0x14b
 2904 154b 56150000 		.4byte	0x1556
 2905 154f 0B       		.uleb128 0xb
 2906 1550 37000000 		.4byte	0x37
 2907 1554 0E       		.byte	0xe
ARM GAS  /var/folders/t8/16hdwfmd2fg_d3q6dgx6bpmw0000gn/T//ccFguns6.s 			page 52


 2908 1555 00       		.byte	0
 2909 1556 0A       		.uleb128 0xa
 2910 1557 D4080000 		.4byte	0x8d4
 2911 155b 66150000 		.4byte	0x1566
 2912 155f 0B       		.uleb128 0xb
 2913 1560 37000000 		.4byte	0x37
 2914 1564 07       		.byte	0x7
 2915 1565 00       		.byte	0
 2916 1566 20       		.uleb128 0x20
 2917 1567 860C0000 		.4byte	.LASF315
 2918 156b 14       		.byte	0x14
 2919 156c 9201     		.2byte	0x192
 2920 156e C0100000 		.4byte	0x10c0
 2921 1572 10       		.uleb128 0x10
 2922 1573 20020000 		.4byte	.LASF316
 2923 1577 10       		.byte	0x10
 2924 1578 15       		.byte	0x15
 2925 1579 3D       		.byte	0x3d
 2926 157a AF150000 		.4byte	0x15af
 2927 157e 0D       		.uleb128 0xd
 2928 157f 11070000 		.4byte	.LASF317
 2929 1583 15       		.byte	0x15
 2930 1584 3E       		.byte	0x3e
 2931 1585 C50F0000 		.4byte	0xfc5
 2932 1589 00       		.byte	0
 2933 158a 0D       		.uleb128 0xd
 2934 158b 84080000 		.4byte	.LASF318
 2935 158f 15       		.byte	0x15
 2936 1590 3E       		.byte	0x3e
 2937 1591 EA0F0000 		.4byte	0xfea
 2938 1595 04       		.byte	0x4
 2939 1596 11       		.uleb128 0x11
 2940 1597 70757400 		.ascii	"put\000"
 2941 159b 15       		.byte	0x15
 2942 159c 3E       		.byte	0x3e
 2943 159d 04100000 		.4byte	0x1004
 2944 15a1 08       		.byte	0x8
 2945 15a2 11       		.uleb128 0x11
 2946 15a3 67657400 		.ascii	"get\000"
 2947 15a7 15       		.byte	0x15
 2948 15a8 3E       		.byte	0x3e
 2949 15a9 19100000 		.4byte	0x1019
 2950 15ad 0C       		.byte	0xc
 2951 15ae 00       		.byte	0
 2952 15af 0F       		.uleb128 0xf
 2953 15b0 72150000 		.4byte	0x1572
 2954 15b4 0C       		.uleb128 0xc
 2955 15b5 14       		.byte	0x14
 2956 15b6 15       		.byte	0x15
 2957 15b7 46       		.byte	0x46
 2958 15b8 F9150000 		.4byte	0x15f9
 2959 15bc 11       		.uleb128 0x11
 2960 15bd 766D7400 		.ascii	"vmt\000"
 2961 15c1 15       		.byte	0x15
 2962 15c2 48       		.byte	0x48
 2963 15c3 F9150000 		.4byte	0x15f9
 2964 15c7 00       		.byte	0
ARM GAS  /var/folders/t8/16hdwfmd2fg_d3q6dgx6bpmw0000gn/T//ccFguns6.s 			page 53


 2965 15c8 0D       		.uleb128 0xd
 2966 15c9 82050000 		.4byte	.LASF319
 2967 15cd 15       		.byte	0x15
 2968 15ce 49       		.byte	0x49
 2969 15cf E40F0000 		.4byte	0xfe4
 2970 15d3 04       		.byte	0x4
 2971 15d4 0D       		.uleb128 0xd
 2972 15d5 140A0000 		.4byte	.LASF211
 2973 15d9 15       		.byte	0x15
 2974 15da 49       		.byte	0x49
 2975 15db 2C000000 		.4byte	0x2c
 2976 15df 08       		.byte	0x8
 2977 15e0 11       		.uleb128 0x11
 2978 15e1 656F7300 		.ascii	"eos\000"
 2979 15e5 15       		.byte	0x15
 2980 15e6 49       		.byte	0x49
 2981 15e7 2C000000 		.4byte	0x2c
 2982 15eb 0C       		.byte	0xc
 2983 15ec 0D       		.uleb128 0xd
 2984 15ed 940B0000 		.4byte	.LASF320
 2985 15f1 15       		.byte	0x15
 2986 15f2 49       		.byte	0x49
 2987 15f3 2C000000 		.4byte	0x2c
 2988 15f7 10       		.byte	0x10
 2989 15f8 00       		.byte	0
 2990 15f9 05       		.uleb128 0x5
 2991 15fa 04       		.byte	0x4
 2992 15fb AF150000 		.4byte	0x15af
 2993 15ff 03       		.uleb128 0x3
 2994 1600 08000000 		.4byte	.LASF321
 2995 1604 15       		.byte	0x15
 2996 1605 4A       		.byte	0x4a
 2997 1606 B4150000 		.4byte	0x15b4
 2998 160a 28       		.uleb128 0x28
 2999 160b 766D7400 		.ascii	"vmt\000"
 3000 160f 01       		.byte	0x1
 3001 1610 57       		.byte	0x57
 3002 1611 AF150000 		.4byte	0x15af
 3003 1615 05       		.uleb128 0x5
 3004 1616 03       		.byte	0x3
 3005 1617 00000000 		.4byte	vmt
 3006 161b 29       		.uleb128 0x29
 3007 161c AD030000 		.4byte	.LASF327
 3008 1620 01       		.byte	0x1
 3009 1621 67       		.byte	0x67
 3010 1622 00000000 		.4byte	.LFB178
 3011 1626 18000000 		.4byte	.LFE178-.LFB178
 3012 162a 01       		.uleb128 0x1
 3013 162b 9C       		.byte	0x9c
 3014 162c 67160000 		.4byte	0x1667
 3015 1630 2A       		.uleb128 0x2a
 3016 1631 6D737000 		.ascii	"msp\000"
 3017 1635 01       		.byte	0x1
 3018 1636 67       		.byte	0x67
 3019 1637 67160000 		.4byte	0x1667
 3020 163b 01       		.uleb128 0x1
 3021 163c 50       		.byte	0x50
ARM GAS  /var/folders/t8/16hdwfmd2fg_d3q6dgx6bpmw0000gn/T//ccFguns6.s 			page 54


 3022 163d 2B       		.uleb128 0x2b
 3023 163e 82050000 		.4byte	.LASF319
 3024 1642 01       		.byte	0x1
 3025 1643 67       		.byte	0x67
 3026 1644 E40F0000 		.4byte	0xfe4
 3027 1648 01       		.uleb128 0x1
 3028 1649 51       		.byte	0x51
 3029 164a 2B       		.uleb128 0x2b
 3030 164b 140A0000 		.4byte	.LASF211
 3031 164f 01       		.byte	0x1
 3032 1650 68       		.byte	0x68
 3033 1651 2C000000 		.4byte	0x2c
 3034 1655 01       		.uleb128 0x1
 3035 1656 52       		.byte	0x52
 3036 1657 2C       		.uleb128 0x2c
 3037 1658 656F7300 		.ascii	"eos\000"
 3038 165c 01       		.byte	0x1
 3039 165d 68       		.byte	0x68
 3040 165e 2C000000 		.4byte	0x2c
 3041 1662 00000000 		.4byte	.LLST13
 3042 1666 00       		.byte	0
 3043 1667 05       		.uleb128 0x5
 3044 1668 04       		.byte	0x4
 3045 1669 FF150000 		.4byte	0x15ff
 3046 166d 2D       		.uleb128 0x2d
 3047 166e 67657400 		.ascii	"get\000"
 3048 1672 01       		.byte	0x1
 3049 1673 4C       		.byte	0x4c
 3050 1674 4C090000 		.4byte	0x94c
 3051 1678 00000000 		.4byte	.LFB177
 3052 167c 1A000000 		.4byte	.LFE177-.LFB177
 3053 1680 01       		.uleb128 0x1
 3054 1681 9C       		.byte	0x9c
 3055 1682 B1160000 		.4byte	0x16b1
 3056 1686 2C       		.uleb128 0x2c
 3057 1687 697000   		.ascii	"ip\000"
 3058 168a 01       		.byte	0x1
 3059 168b 4C       		.byte	0x4c
 3060 168c 4B010000 		.4byte	0x14b
 3061 1690 1F000000 		.4byte	.LLST2
 3062 1694 2E       		.uleb128 0x2e
 3063 1695 6200     		.ascii	"b\000"
 3064 1697 01       		.byte	0x1
 3065 1698 4D       		.byte	0x4d
 3066 1699 D4080000 		.4byte	0x8d4
 3067 169d 59000000 		.4byte	.LLST3
 3068 16a1 2E       		.uleb128 0x2e
 3069 16a2 6D737000 		.ascii	"msp\000"
 3070 16a6 01       		.byte	0x1
 3071 16a7 4E       		.byte	0x4e
 3072 16a8 67160000 		.4byte	0x1667
 3073 16ac 6C000000 		.4byte	.LLST4
 3074 16b0 00       		.byte	0
 3075 16b1 2D       		.uleb128 0x2d
 3076 16b2 70757400 		.ascii	"put\000"
 3077 16b6 01       		.byte	0x1
 3078 16b7 42       		.byte	0x42
ARM GAS  /var/folders/t8/16hdwfmd2fg_d3q6dgx6bpmw0000gn/T//ccFguns6.s 			page 55


 3079 16b8 4C090000 		.4byte	0x94c
 3080 16bc 00000000 		.4byte	.LFB176
 3081 16c0 1C000000 		.4byte	.LFE176-.LFB176
 3082 16c4 01       		.uleb128 0x1
 3083 16c5 9C       		.byte	0x9c
 3084 16c6 F3160000 		.4byte	0x16f3
 3085 16ca 2C       		.uleb128 0x2c
 3086 16cb 697000   		.ascii	"ip\000"
 3087 16ce 01       		.byte	0x1
 3088 16cf 42       		.byte	0x42
 3089 16d0 4B010000 		.4byte	0x14b
 3090 16d4 A6000000 		.4byte	.LLST0
 3091 16d8 2A       		.uleb128 0x2a
 3092 16d9 6200     		.ascii	"b\000"
 3093 16db 01       		.byte	0x1
 3094 16dc 42       		.byte	0x42
 3095 16dd D4080000 		.4byte	0x8d4
 3096 16e1 01       		.uleb128 0x1
 3097 16e2 51       		.byte	0x51
 3098 16e3 2E       		.uleb128 0x2e
 3099 16e4 6D737000 		.ascii	"msp\000"
 3100 16e8 01       		.byte	0x1
 3101 16e9 43       		.byte	0x43
 3102 16ea 67160000 		.4byte	0x1667
 3103 16ee E0000000 		.4byte	.LLST1
 3104 16f2 00       		.byte	0
 3105 16f3 2F       		.uleb128 0x2f
 3106 16f4 B0010000 		.4byte	.LASF322
 3107 16f8 01       		.byte	0x1
 3108 16f9 38       		.byte	0x38
 3109 16fa 2C000000 		.4byte	0x2c
 3110 16fe 00000000 		.4byte	.LFB175
 3111 1702 28000000 		.4byte	.LFE175-.LFB175
 3112 1706 01       		.uleb128 0x1
 3113 1707 9C       		.byte	0x9c
 3114 1708 55170000 		.4byte	0x1755
 3115 170c 2C       		.uleb128 0x2c
 3116 170d 697000   		.ascii	"ip\000"
 3117 1710 01       		.byte	0x1
 3118 1711 38       		.byte	0x38
 3119 1712 4B010000 		.4byte	0x14b
 3120 1716 1A010000 		.4byte	.LLST5
 3121 171a 2C       		.uleb128 0x2c
 3122 171b 627000   		.ascii	"bp\000"
 3123 171e 01       		.byte	0x1
 3124 171f 38       		.byte	0x38
 3125 1720 E40F0000 		.4byte	0xfe4
 3126 1724 46010000 		.4byte	.LLST6
 3127 1728 2C       		.uleb128 0x2c
 3128 1729 6E00     		.ascii	"n\000"
 3129 172b 01       		.byte	0x1
 3130 172c 38       		.byte	0x38
 3131 172d 2C000000 		.4byte	0x2c
 3132 1731 72010000 		.4byte	.LLST7
 3133 1735 2E       		.uleb128 0x2e
 3134 1736 6D737000 		.ascii	"msp\000"
 3135 173a 01       		.byte	0x1
ARM GAS  /var/folders/t8/16hdwfmd2fg_d3q6dgx6bpmw0000gn/T//ccFguns6.s 			page 56


 3136 173b 39       		.byte	0x39
 3137 173c 67160000 		.4byte	0x1667
 3138 1740 9B010000 		.4byte	.LLST8
 3139 1744 30       		.uleb128 0x30
 3140 1745 1E000000 		.4byte	.LVL14
 3141 1749 B7170000 		.4byte	0x17b7
 3142 174d 31       		.uleb128 0x31
 3143 174e 01       		.uleb128 0x1
 3144 174f 52       		.byte	0x52
 3145 1750 02       		.uleb128 0x2
 3146 1751 74       		.byte	0x74
 3147 1752 00       		.sleb128 0
 3148 1753 00       		.byte	0
 3149 1754 00       		.byte	0
 3150 1755 2F       		.uleb128 0x2f
 3151 1756 84000000 		.4byte	.LASF323
 3152 175a 01       		.byte	0x1
 3153 175b 2E       		.byte	0x2e
 3154 175c 2C000000 		.4byte	0x2c
 3155 1760 00000000 		.4byte	.LFB174
 3156 1764 26000000 		.4byte	.LFE174-.LFB174
 3157 1768 01       		.uleb128 0x1
 3158 1769 9C       		.byte	0x9c
 3159 176a B7170000 		.4byte	0x17b7
 3160 176e 2C       		.uleb128 0x2c
 3161 176f 697000   		.ascii	"ip\000"
 3162 1772 01       		.byte	0x1
 3163 1773 2E       		.byte	0x2e
 3164 1774 4B010000 		.4byte	0x14b
 3165 1778 C7010000 		.4byte	.LLST9
 3166 177c 2C       		.uleb128 0x2c
 3167 177d 627000   		.ascii	"bp\000"
 3168 1780 01       		.byte	0x1
 3169 1781 2E       		.byte	0x2e
 3170 1782 BF0F0000 		.4byte	0xfbf
 3171 1786 F3010000 		.4byte	.LLST10
 3172 178a 2C       		.uleb128 0x2c
 3173 178b 6E00     		.ascii	"n\000"
 3174 178d 01       		.byte	0x1
 3175 178e 2E       		.byte	0x2e
 3176 178f 2C000000 		.4byte	0x2c
 3177 1793 14020000 		.4byte	.LLST11
 3178 1797 2E       		.uleb128 0x2e
 3179 1798 6D737000 		.ascii	"msp\000"
 3180 179c 01       		.byte	0x1
 3181 179d 2F       		.byte	0x2f
 3182 179e 67160000 		.4byte	0x1667
 3183 17a2 3D020000 		.4byte	.LLST12
 3184 17a6 30       		.uleb128 0x30
 3185 17a7 1C000000 		.4byte	.LVL20
 3186 17ab B7170000 		.4byte	0x17b7
 3187 17af 31       		.uleb128 0x31
 3188 17b0 01       		.uleb128 0x1
 3189 17b1 52       		.byte	0x52
 3190 17b2 02       		.uleb128 0x2
 3191 17b3 74       		.byte	0x74
 3192 17b4 00       		.sleb128 0
ARM GAS  /var/folders/t8/16hdwfmd2fg_d3q6dgx6bpmw0000gn/T//ccFguns6.s 			page 57


 3193 17b5 00       		.byte	0
 3194 17b6 00       		.byte	0
 3195 17b7 32       		.uleb128 0x32
 3196 17b8 2C080000 		.4byte	.LASF328
 3197 17bc 56010000 		.4byte	.LASF329
 3198 17c0 16       		.byte	0x16
 3199 17c1 00       		.byte	0
 3200 17c2 2C080000 		.4byte	.LASF328
 3201 17c6 00       		.byte	0
 3202              		.section	.debug_abbrev,"",%progbits
 3203              	.Ldebug_abbrev0:
 3204 0000 01       		.uleb128 0x1
 3205 0001 11       		.uleb128 0x11
 3206 0002 01       		.byte	0x1
 3207 0003 25       		.uleb128 0x25
 3208 0004 0E       		.uleb128 0xe
 3209 0005 13       		.uleb128 0x13
 3210 0006 0B       		.uleb128 0xb
 3211 0007 03       		.uleb128 0x3
 3212 0008 0E       		.uleb128 0xe
 3213 0009 1B       		.uleb128 0x1b
 3214 000a 0E       		.uleb128 0xe
 3215 000b 55       		.uleb128 0x55
 3216 000c 17       		.uleb128 0x17
 3217 000d 11       		.uleb128 0x11
 3218 000e 01       		.uleb128 0x1
 3219 000f 10       		.uleb128 0x10
 3220 0010 17       		.uleb128 0x17
 3221 0011 00       		.byte	0
 3222 0012 00       		.byte	0
 3223 0013 02       		.uleb128 0x2
 3224 0014 24       		.uleb128 0x24
 3225 0015 00       		.byte	0
 3226 0016 0B       		.uleb128 0xb
 3227 0017 0B       		.uleb128 0xb
 3228 0018 3E       		.uleb128 0x3e
 3229 0019 0B       		.uleb128 0xb
 3230 001a 03       		.uleb128 0x3
 3231 001b 08       		.uleb128 0x8
 3232 001c 00       		.byte	0
 3233 001d 00       		.byte	0
 3234 001e 03       		.uleb128 0x3
 3235 001f 16       		.uleb128 0x16
 3236 0020 00       		.byte	0
 3237 0021 03       		.uleb128 0x3
 3238 0022 0E       		.uleb128 0xe
 3239 0023 3A       		.uleb128 0x3a
 3240 0024 0B       		.uleb128 0xb
 3241 0025 3B       		.uleb128 0x3b
 3242 0026 0B       		.uleb128 0xb
 3243 0027 49       		.uleb128 0x49
 3244 0028 13       		.uleb128 0x13
 3245 0029 00       		.byte	0
 3246 002a 00       		.byte	0
 3247 002b 04       		.uleb128 0x4
 3248 002c 24       		.uleb128 0x24
 3249 002d 00       		.byte	0
ARM GAS  /var/folders/t8/16hdwfmd2fg_d3q6dgx6bpmw0000gn/T//ccFguns6.s 			page 58


 3250 002e 0B       		.uleb128 0xb
 3251 002f 0B       		.uleb128 0xb
 3252 0030 3E       		.uleb128 0x3e
 3253 0031 0B       		.uleb128 0xb
 3254 0032 03       		.uleb128 0x3
 3255 0033 0E       		.uleb128 0xe
 3256 0034 00       		.byte	0
 3257 0035 00       		.byte	0
 3258 0036 05       		.uleb128 0x5
 3259 0037 0F       		.uleb128 0xf
 3260 0038 00       		.byte	0
 3261 0039 0B       		.uleb128 0xb
 3262 003a 0B       		.uleb128 0xb
 3263 003b 49       		.uleb128 0x49
 3264 003c 13       		.uleb128 0x13
 3265 003d 00       		.byte	0
 3266 003e 00       		.byte	0
 3267 003f 06       		.uleb128 0x6
 3268 0040 13       		.uleb128 0x13
 3269 0041 00       		.byte	0
 3270 0042 03       		.uleb128 0x3
 3271 0043 0E       		.uleb128 0xe
 3272 0044 3C       		.uleb128 0x3c
 3273 0045 19       		.uleb128 0x19
 3274 0046 00       		.byte	0
 3275 0047 00       		.byte	0
 3276 0048 07       		.uleb128 0x7
 3277 0049 16       		.uleb128 0x16
 3278 004a 00       		.byte	0
 3279 004b 03       		.uleb128 0x3
 3280 004c 0E       		.uleb128 0xe
 3281 004d 3A       		.uleb128 0x3a
 3282 004e 0B       		.uleb128 0xb
 3283 004f 3B       		.uleb128 0x3b
 3284 0050 05       		.uleb128 0x5
 3285 0051 49       		.uleb128 0x49
 3286 0052 13       		.uleb128 0x13
 3287 0053 00       		.byte	0
 3288 0054 00       		.byte	0
 3289 0055 08       		.uleb128 0x8
 3290 0056 17       		.uleb128 0x17
 3291 0057 01       		.byte	0x1
 3292 0058 0B       		.uleb128 0xb
 3293 0059 0B       		.uleb128 0xb
 3294 005a 3A       		.uleb128 0x3a
 3295 005b 0B       		.uleb128 0xb
 3296 005c 3B       		.uleb128 0x3b
 3297 005d 0B       		.uleb128 0xb
 3298 005e 01       		.uleb128 0x1
 3299 005f 13       		.uleb128 0x13
 3300 0060 00       		.byte	0
 3301 0061 00       		.byte	0
 3302 0062 09       		.uleb128 0x9
 3303 0063 0D       		.uleb128 0xd
 3304 0064 00       		.byte	0
 3305 0065 03       		.uleb128 0x3
 3306 0066 0E       		.uleb128 0xe
ARM GAS  /var/folders/t8/16hdwfmd2fg_d3q6dgx6bpmw0000gn/T//ccFguns6.s 			page 59


 3307 0067 3A       		.uleb128 0x3a
 3308 0068 0B       		.uleb128 0xb
 3309 0069 3B       		.uleb128 0x3b
 3310 006a 0B       		.uleb128 0xb
 3311 006b 49       		.uleb128 0x49
 3312 006c 13       		.uleb128 0x13
 3313 006d 00       		.byte	0
 3314 006e 00       		.byte	0
 3315 006f 0A       		.uleb128 0xa
 3316 0070 01       		.uleb128 0x1
 3317 0071 01       		.byte	0x1
 3318 0072 49       		.uleb128 0x49
 3319 0073 13       		.uleb128 0x13
 3320 0074 01       		.uleb128 0x1
 3321 0075 13       		.uleb128 0x13
 3322 0076 00       		.byte	0
 3323 0077 00       		.byte	0
 3324 0078 0B       		.uleb128 0xb
 3325 0079 21       		.uleb128 0x21
 3326 007a 00       		.byte	0
 3327 007b 49       		.uleb128 0x49
 3328 007c 13       		.uleb128 0x13
 3329 007d 2F       		.uleb128 0x2f
 3330 007e 0B       		.uleb128 0xb
 3331 007f 00       		.byte	0
 3332 0080 00       		.byte	0
 3333 0081 0C       		.uleb128 0xc
 3334 0082 13       		.uleb128 0x13
 3335 0083 01       		.byte	0x1
 3336 0084 0B       		.uleb128 0xb
 3337 0085 0B       		.uleb128 0xb
 3338 0086 3A       		.uleb128 0x3a
 3339 0087 0B       		.uleb128 0xb
 3340 0088 3B       		.uleb128 0x3b
 3341 0089 0B       		.uleb128 0xb
 3342 008a 01       		.uleb128 0x1
 3343 008b 13       		.uleb128 0x13
 3344 008c 00       		.byte	0
 3345 008d 00       		.byte	0
 3346 008e 0D       		.uleb128 0xd
 3347 008f 0D       		.uleb128 0xd
 3348 0090 00       		.byte	0
 3349 0091 03       		.uleb128 0x3
 3350 0092 0E       		.uleb128 0xe
 3351 0093 3A       		.uleb128 0x3a
 3352 0094 0B       		.uleb128 0xb
 3353 0095 3B       		.uleb128 0x3b
 3354 0096 0B       		.uleb128 0xb
 3355 0097 49       		.uleb128 0x49
 3356 0098 13       		.uleb128 0x13
 3357 0099 38       		.uleb128 0x38
 3358 009a 0B       		.uleb128 0xb
 3359 009b 00       		.byte	0
 3360 009c 00       		.byte	0
 3361 009d 0E       		.uleb128 0xe
 3362 009e 0F       		.uleb128 0xf
 3363 009f 00       		.byte	0
ARM GAS  /var/folders/t8/16hdwfmd2fg_d3q6dgx6bpmw0000gn/T//ccFguns6.s 			page 60


 3364 00a0 0B       		.uleb128 0xb
 3365 00a1 0B       		.uleb128 0xb
 3366 00a2 00       		.byte	0
 3367 00a3 00       		.byte	0
 3368 00a4 0F       		.uleb128 0xf
 3369 00a5 26       		.uleb128 0x26
 3370 00a6 00       		.byte	0
 3371 00a7 49       		.uleb128 0x49
 3372 00a8 13       		.uleb128 0x13
 3373 00a9 00       		.byte	0
 3374 00aa 00       		.byte	0
 3375 00ab 10       		.uleb128 0x10
 3376 00ac 13       		.uleb128 0x13
 3377 00ad 01       		.byte	0x1
 3378 00ae 03       		.uleb128 0x3
 3379 00af 0E       		.uleb128 0xe
 3380 00b0 0B       		.uleb128 0xb
 3381 00b1 0B       		.uleb128 0xb
 3382 00b2 3A       		.uleb128 0x3a
 3383 00b3 0B       		.uleb128 0xb
 3384 00b4 3B       		.uleb128 0x3b
 3385 00b5 0B       		.uleb128 0xb
 3386 00b6 01       		.uleb128 0x1
 3387 00b7 13       		.uleb128 0x13
 3388 00b8 00       		.byte	0
 3389 00b9 00       		.byte	0
 3390 00ba 11       		.uleb128 0x11
 3391 00bb 0D       		.uleb128 0xd
 3392 00bc 00       		.byte	0
 3393 00bd 03       		.uleb128 0x3
 3394 00be 08       		.uleb128 0x8
 3395 00bf 3A       		.uleb128 0x3a
 3396 00c0 0B       		.uleb128 0xb
 3397 00c1 3B       		.uleb128 0x3b
 3398 00c2 0B       		.uleb128 0xb
 3399 00c3 49       		.uleb128 0x49
 3400 00c4 13       		.uleb128 0x13
 3401 00c5 38       		.uleb128 0x38
 3402 00c6 0B       		.uleb128 0xb
 3403 00c7 00       		.byte	0
 3404 00c8 00       		.byte	0
 3405 00c9 12       		.uleb128 0x12
 3406 00ca 13       		.uleb128 0x13
 3407 00cb 01       		.byte	0x1
 3408 00cc 03       		.uleb128 0x3
 3409 00cd 0E       		.uleb128 0xe
 3410 00ce 0B       		.uleb128 0xb
 3411 00cf 05       		.uleb128 0x5
 3412 00d0 3A       		.uleb128 0x3a
 3413 00d1 0B       		.uleb128 0xb
 3414 00d2 3B       		.uleb128 0x3b
 3415 00d3 0B       		.uleb128 0xb
 3416 00d4 01       		.uleb128 0x1
 3417 00d5 13       		.uleb128 0x13
 3418 00d6 00       		.byte	0
 3419 00d7 00       		.byte	0
 3420 00d8 13       		.uleb128 0x13
ARM GAS  /var/folders/t8/16hdwfmd2fg_d3q6dgx6bpmw0000gn/T//ccFguns6.s 			page 61


 3421 00d9 0D       		.uleb128 0xd
 3422 00da 00       		.byte	0
 3423 00db 03       		.uleb128 0x3
 3424 00dc 0E       		.uleb128 0xe
 3425 00dd 3A       		.uleb128 0x3a
 3426 00de 0B       		.uleb128 0xb
 3427 00df 3B       		.uleb128 0x3b
 3428 00e0 0B       		.uleb128 0xb
 3429 00e1 49       		.uleb128 0x49
 3430 00e2 13       		.uleb128 0x13
 3431 00e3 38       		.uleb128 0x38
 3432 00e4 05       		.uleb128 0x5
 3433 00e5 00       		.byte	0
 3434 00e6 00       		.byte	0
 3435 00e7 14       		.uleb128 0x14
 3436 00e8 15       		.uleb128 0x15
 3437 00e9 00       		.byte	0
 3438 00ea 27       		.uleb128 0x27
 3439 00eb 19       		.uleb128 0x19
 3440 00ec 00       		.byte	0
 3441 00ed 00       		.byte	0
 3442 00ee 15       		.uleb128 0x15
 3443 00ef 15       		.uleb128 0x15
 3444 00f0 01       		.byte	0x1
 3445 00f1 27       		.uleb128 0x27
 3446 00f2 19       		.uleb128 0x19
 3447 00f3 49       		.uleb128 0x49
 3448 00f4 13       		.uleb128 0x13
 3449 00f5 01       		.uleb128 0x1
 3450 00f6 13       		.uleb128 0x13
 3451 00f7 00       		.byte	0
 3452 00f8 00       		.byte	0
 3453 00f9 16       		.uleb128 0x16
 3454 00fa 05       		.uleb128 0x5
 3455 00fb 00       		.byte	0
 3456 00fc 49       		.uleb128 0x49
 3457 00fd 13       		.uleb128 0x13
 3458 00fe 00       		.byte	0
 3459 00ff 00       		.byte	0
 3460 0100 17       		.uleb128 0x17
 3461 0101 13       		.uleb128 0x13
 3462 0102 01       		.byte	0x1
 3463 0103 03       		.uleb128 0x3
 3464 0104 0E       		.uleb128 0xe
 3465 0105 0B       		.uleb128 0xb
 3466 0106 05       		.uleb128 0x5
 3467 0107 3A       		.uleb128 0x3a
 3468 0108 0B       		.uleb128 0xb
 3469 0109 3B       		.uleb128 0x3b
 3470 010a 05       		.uleb128 0x5
 3471 010b 01       		.uleb128 0x1
 3472 010c 13       		.uleb128 0x13
 3473 010d 00       		.byte	0
 3474 010e 00       		.byte	0
 3475 010f 18       		.uleb128 0x18
 3476 0110 0D       		.uleb128 0xd
 3477 0111 00       		.byte	0
ARM GAS  /var/folders/t8/16hdwfmd2fg_d3q6dgx6bpmw0000gn/T//ccFguns6.s 			page 62


 3478 0112 03       		.uleb128 0x3
 3479 0113 0E       		.uleb128 0xe
 3480 0114 3A       		.uleb128 0x3a
 3481 0115 0B       		.uleb128 0xb
 3482 0116 3B       		.uleb128 0x3b
 3483 0117 05       		.uleb128 0x5
 3484 0118 49       		.uleb128 0x49
 3485 0119 13       		.uleb128 0x13
 3486 011a 38       		.uleb128 0x38
 3487 011b 0B       		.uleb128 0xb
 3488 011c 00       		.byte	0
 3489 011d 00       		.byte	0
 3490 011e 19       		.uleb128 0x19
 3491 011f 0D       		.uleb128 0xd
 3492 0120 00       		.byte	0
 3493 0121 03       		.uleb128 0x3
 3494 0122 0E       		.uleb128 0xe
 3495 0123 3A       		.uleb128 0x3a
 3496 0124 0B       		.uleb128 0xb
 3497 0125 3B       		.uleb128 0x3b
 3498 0126 05       		.uleb128 0x5
 3499 0127 49       		.uleb128 0x49
 3500 0128 13       		.uleb128 0x13
 3501 0129 38       		.uleb128 0x38
 3502 012a 05       		.uleb128 0x5
 3503 012b 00       		.byte	0
 3504 012c 00       		.byte	0
 3505 012d 1A       		.uleb128 0x1a
 3506 012e 35       		.uleb128 0x35
 3507 012f 00       		.byte	0
 3508 0130 49       		.uleb128 0x49
 3509 0131 13       		.uleb128 0x13
 3510 0132 00       		.byte	0
 3511 0133 00       		.byte	0
 3512 0134 1B       		.uleb128 0x1b
 3513 0135 13       		.uleb128 0x13
 3514 0136 01       		.byte	0x1
 3515 0137 03       		.uleb128 0x3
 3516 0138 0E       		.uleb128 0xe
 3517 0139 0B       		.uleb128 0xb
 3518 013a 0B       		.uleb128 0xb
 3519 013b 3A       		.uleb128 0x3a
 3520 013c 0B       		.uleb128 0xb
 3521 013d 3B       		.uleb128 0x3b
 3522 013e 05       		.uleb128 0x5
 3523 013f 01       		.uleb128 0x1
 3524 0140 13       		.uleb128 0x13
 3525 0141 00       		.byte	0
 3526 0142 00       		.byte	0
 3527 0143 1C       		.uleb128 0x1c
 3528 0144 13       		.uleb128 0x13
 3529 0145 01       		.byte	0x1
 3530 0146 0B       		.uleb128 0xb
 3531 0147 0B       		.uleb128 0xb
 3532 0148 3A       		.uleb128 0x3a
 3533 0149 0B       		.uleb128 0xb
 3534 014a 3B       		.uleb128 0x3b
ARM GAS  /var/folders/t8/16hdwfmd2fg_d3q6dgx6bpmw0000gn/T//ccFguns6.s 			page 63


 3535 014b 05       		.uleb128 0x5
 3536 014c 01       		.uleb128 0x1
 3537 014d 13       		.uleb128 0x13
 3538 014e 00       		.byte	0
 3539 014f 00       		.byte	0
 3540 0150 1D       		.uleb128 0x1d
 3541 0151 17       		.uleb128 0x17
 3542 0152 01       		.byte	0x1
 3543 0153 0B       		.uleb128 0xb
 3544 0154 0B       		.uleb128 0xb
 3545 0155 3A       		.uleb128 0x3a
 3546 0156 0B       		.uleb128 0xb
 3547 0157 3B       		.uleb128 0x3b
 3548 0158 05       		.uleb128 0x5
 3549 0159 01       		.uleb128 0x1
 3550 015a 13       		.uleb128 0x13
 3551 015b 00       		.byte	0
 3552 015c 00       		.byte	0
 3553 015d 1E       		.uleb128 0x1e
 3554 015e 0D       		.uleb128 0xd
 3555 015f 00       		.byte	0
 3556 0160 03       		.uleb128 0x3
 3557 0161 0E       		.uleb128 0xe
 3558 0162 3A       		.uleb128 0x3a
 3559 0163 0B       		.uleb128 0xb
 3560 0164 3B       		.uleb128 0x3b
 3561 0165 05       		.uleb128 0x5
 3562 0166 49       		.uleb128 0x49
 3563 0167 13       		.uleb128 0x13
 3564 0168 00       		.byte	0
 3565 0169 00       		.byte	0
 3566 016a 1F       		.uleb128 0x1f
 3567 016b 15       		.uleb128 0x15
 3568 016c 01       		.byte	0x1
 3569 016d 27       		.uleb128 0x27
 3570 016e 19       		.uleb128 0x19
 3571 016f 01       		.uleb128 0x1
 3572 0170 13       		.uleb128 0x13
 3573 0171 00       		.byte	0
 3574 0172 00       		.byte	0
 3575 0173 20       		.uleb128 0x20
 3576 0174 34       		.uleb128 0x34
 3577 0175 00       		.byte	0
 3578 0176 03       		.uleb128 0x3
 3579 0177 0E       		.uleb128 0xe
 3580 0178 3A       		.uleb128 0x3a
 3581 0179 0B       		.uleb128 0xb
 3582 017a 3B       		.uleb128 0x3b
 3583 017b 05       		.uleb128 0x5
 3584 017c 49       		.uleb128 0x49
 3585 017d 13       		.uleb128 0x13
 3586 017e 3F       		.uleb128 0x3f
 3587 017f 19       		.uleb128 0x19
 3588 0180 3C       		.uleb128 0x3c
 3589 0181 19       		.uleb128 0x19
 3590 0182 00       		.byte	0
 3591 0183 00       		.byte	0
ARM GAS  /var/folders/t8/16hdwfmd2fg_d3q6dgx6bpmw0000gn/T//ccFguns6.s 			page 64


 3592 0184 21       		.uleb128 0x21
 3593 0185 0D       		.uleb128 0xd
 3594 0186 00       		.byte	0
 3595 0187 03       		.uleb128 0x3
 3596 0188 08       		.uleb128 0x8
 3597 0189 3A       		.uleb128 0x3a
 3598 018a 0B       		.uleb128 0xb
 3599 018b 3B       		.uleb128 0x3b
 3600 018c 05       		.uleb128 0x5
 3601 018d 49       		.uleb128 0x49
 3602 018e 13       		.uleb128 0x13
 3603 018f 38       		.uleb128 0x38
 3604 0190 0B       		.uleb128 0xb
 3605 0191 00       		.byte	0
 3606 0192 00       		.byte	0
 3607 0193 22       		.uleb128 0x22
 3608 0194 34       		.uleb128 0x34
 3609 0195 00       		.byte	0
 3610 0196 03       		.uleb128 0x3
 3611 0197 08       		.uleb128 0x8
 3612 0198 3A       		.uleb128 0x3a
 3613 0199 0B       		.uleb128 0xb
 3614 019a 3B       		.uleb128 0x3b
 3615 019b 05       		.uleb128 0x5
 3616 019c 49       		.uleb128 0x49
 3617 019d 13       		.uleb128 0x13
 3618 019e 3F       		.uleb128 0x3f
 3619 019f 19       		.uleb128 0x19
 3620 01a0 3C       		.uleb128 0x3c
 3621 01a1 19       		.uleb128 0x19
 3622 01a2 00       		.byte	0
 3623 01a3 00       		.byte	0
 3624 01a4 23       		.uleb128 0x23
 3625 01a5 21       		.uleb128 0x21
 3626 01a6 00       		.byte	0
 3627 01a7 00       		.byte	0
 3628 01a8 00       		.byte	0
 3629 01a9 24       		.uleb128 0x24
 3630 01aa 34       		.uleb128 0x34
 3631 01ab 00       		.byte	0
 3632 01ac 03       		.uleb128 0x3
 3633 01ad 0E       		.uleb128 0xe
 3634 01ae 3A       		.uleb128 0x3a
 3635 01af 0B       		.uleb128 0xb
 3636 01b0 3B       		.uleb128 0x3b
 3637 01b1 0B       		.uleb128 0xb
 3638 01b2 49       		.uleb128 0x49
 3639 01b3 13       		.uleb128 0x13
 3640 01b4 3F       		.uleb128 0x3f
 3641 01b5 19       		.uleb128 0x19
 3642 01b6 3C       		.uleb128 0x3c
 3643 01b7 19       		.uleb128 0x19
 3644 01b8 00       		.byte	0
 3645 01b9 00       		.byte	0
 3646 01ba 25       		.uleb128 0x25
 3647 01bb 13       		.uleb128 0x13
 3648 01bc 01       		.byte	0x1
ARM GAS  /var/folders/t8/16hdwfmd2fg_d3q6dgx6bpmw0000gn/T//ccFguns6.s 			page 65


 3649 01bd 0B       		.uleb128 0xb
 3650 01be 05       		.uleb128 0x5
 3651 01bf 3A       		.uleb128 0x3a
 3652 01c0 0B       		.uleb128 0xb
 3653 01c1 3B       		.uleb128 0x3b
 3654 01c2 0B       		.uleb128 0xb
 3655 01c3 01       		.uleb128 0x1
 3656 01c4 13       		.uleb128 0x13
 3657 01c5 00       		.byte	0
 3658 01c6 00       		.byte	0
 3659 01c7 26       		.uleb128 0x26
 3660 01c8 04       		.uleb128 0x4
 3661 01c9 01       		.byte	0x1
 3662 01ca 3E       		.uleb128 0x3e
 3663 01cb 0B       		.uleb128 0xb
 3664 01cc 0B       		.uleb128 0xb
 3665 01cd 0B       		.uleb128 0xb
 3666 01ce 49       		.uleb128 0x49
 3667 01cf 13       		.uleb128 0x13
 3668 01d0 3A       		.uleb128 0x3a
 3669 01d1 0B       		.uleb128 0xb
 3670 01d2 3B       		.uleb128 0x3b
 3671 01d3 05       		.uleb128 0x5
 3672 01d4 01       		.uleb128 0x1
 3673 01d5 13       		.uleb128 0x13
 3674 01d6 00       		.byte	0
 3675 01d7 00       		.byte	0
 3676 01d8 27       		.uleb128 0x27
 3677 01d9 28       		.uleb128 0x28
 3678 01da 00       		.byte	0
 3679 01db 03       		.uleb128 0x3
 3680 01dc 0E       		.uleb128 0xe
 3681 01dd 1C       		.uleb128 0x1c
 3682 01de 0B       		.uleb128 0xb
 3683 01df 00       		.byte	0
 3684 01e0 00       		.byte	0
 3685 01e1 28       		.uleb128 0x28
 3686 01e2 34       		.uleb128 0x34
 3687 01e3 00       		.byte	0
 3688 01e4 03       		.uleb128 0x3
 3689 01e5 08       		.uleb128 0x8
 3690 01e6 3A       		.uleb128 0x3a
 3691 01e7 0B       		.uleb128 0xb
 3692 01e8 3B       		.uleb128 0x3b
 3693 01e9 0B       		.uleb128 0xb
 3694 01ea 49       		.uleb128 0x49
 3695 01eb 13       		.uleb128 0x13
 3696 01ec 02       		.uleb128 0x2
 3697 01ed 18       		.uleb128 0x18
 3698 01ee 00       		.byte	0
 3699 01ef 00       		.byte	0
 3700 01f0 29       		.uleb128 0x29
 3701 01f1 2E       		.uleb128 0x2e
 3702 01f2 01       		.byte	0x1
 3703 01f3 3F       		.uleb128 0x3f
 3704 01f4 19       		.uleb128 0x19
 3705 01f5 03       		.uleb128 0x3
ARM GAS  /var/folders/t8/16hdwfmd2fg_d3q6dgx6bpmw0000gn/T//ccFguns6.s 			page 66


 3706 01f6 0E       		.uleb128 0xe
 3707 01f7 3A       		.uleb128 0x3a
 3708 01f8 0B       		.uleb128 0xb
 3709 01f9 3B       		.uleb128 0x3b
 3710 01fa 0B       		.uleb128 0xb
 3711 01fb 27       		.uleb128 0x27
 3712 01fc 19       		.uleb128 0x19
 3713 01fd 11       		.uleb128 0x11
 3714 01fe 01       		.uleb128 0x1
 3715 01ff 12       		.uleb128 0x12
 3716 0200 06       		.uleb128 0x6
 3717 0201 40       		.uleb128 0x40
 3718 0202 18       		.uleb128 0x18
 3719 0203 9742     		.uleb128 0x2117
 3720 0205 19       		.uleb128 0x19
 3721 0206 01       		.uleb128 0x1
 3722 0207 13       		.uleb128 0x13
 3723 0208 00       		.byte	0
 3724 0209 00       		.byte	0
 3725 020a 2A       		.uleb128 0x2a
 3726 020b 05       		.uleb128 0x5
 3727 020c 00       		.byte	0
 3728 020d 03       		.uleb128 0x3
 3729 020e 08       		.uleb128 0x8
 3730 020f 3A       		.uleb128 0x3a
 3731 0210 0B       		.uleb128 0xb
 3732 0211 3B       		.uleb128 0x3b
 3733 0212 0B       		.uleb128 0xb
 3734 0213 49       		.uleb128 0x49
 3735 0214 13       		.uleb128 0x13
 3736 0215 02       		.uleb128 0x2
 3737 0216 18       		.uleb128 0x18
 3738 0217 00       		.byte	0
 3739 0218 00       		.byte	0
 3740 0219 2B       		.uleb128 0x2b
 3741 021a 05       		.uleb128 0x5
 3742 021b 00       		.byte	0
 3743 021c 03       		.uleb128 0x3
 3744 021d 0E       		.uleb128 0xe
 3745 021e 3A       		.uleb128 0x3a
 3746 021f 0B       		.uleb128 0xb
 3747 0220 3B       		.uleb128 0x3b
 3748 0221 0B       		.uleb128 0xb
 3749 0222 49       		.uleb128 0x49
 3750 0223 13       		.uleb128 0x13
 3751 0224 02       		.uleb128 0x2
 3752 0225 18       		.uleb128 0x18
 3753 0226 00       		.byte	0
 3754 0227 00       		.byte	0
 3755 0228 2C       		.uleb128 0x2c
 3756 0229 05       		.uleb128 0x5
 3757 022a 00       		.byte	0
 3758 022b 03       		.uleb128 0x3
 3759 022c 08       		.uleb128 0x8
 3760 022d 3A       		.uleb128 0x3a
 3761 022e 0B       		.uleb128 0xb
 3762 022f 3B       		.uleb128 0x3b
ARM GAS  /var/folders/t8/16hdwfmd2fg_d3q6dgx6bpmw0000gn/T//ccFguns6.s 			page 67


 3763 0230 0B       		.uleb128 0xb
 3764 0231 49       		.uleb128 0x49
 3765 0232 13       		.uleb128 0x13
 3766 0233 02       		.uleb128 0x2
 3767 0234 17       		.uleb128 0x17
 3768 0235 00       		.byte	0
 3769 0236 00       		.byte	0
 3770 0237 2D       		.uleb128 0x2d
 3771 0238 2E       		.uleb128 0x2e
 3772 0239 01       		.byte	0x1
 3773 023a 03       		.uleb128 0x3
 3774 023b 08       		.uleb128 0x8
 3775 023c 3A       		.uleb128 0x3a
 3776 023d 0B       		.uleb128 0xb
 3777 023e 3B       		.uleb128 0x3b
 3778 023f 0B       		.uleb128 0xb
 3779 0240 27       		.uleb128 0x27
 3780 0241 19       		.uleb128 0x19
 3781 0242 49       		.uleb128 0x49
 3782 0243 13       		.uleb128 0x13
 3783 0244 11       		.uleb128 0x11
 3784 0245 01       		.uleb128 0x1
 3785 0246 12       		.uleb128 0x12
 3786 0247 06       		.uleb128 0x6
 3787 0248 40       		.uleb128 0x40
 3788 0249 18       		.uleb128 0x18
 3789 024a 9742     		.uleb128 0x2117
 3790 024c 19       		.uleb128 0x19
 3791 024d 01       		.uleb128 0x1
 3792 024e 13       		.uleb128 0x13
 3793 024f 00       		.byte	0
 3794 0250 00       		.byte	0
 3795 0251 2E       		.uleb128 0x2e
 3796 0252 34       		.uleb128 0x34
 3797 0253 00       		.byte	0
 3798 0254 03       		.uleb128 0x3
 3799 0255 08       		.uleb128 0x8
 3800 0256 3A       		.uleb128 0x3a
 3801 0257 0B       		.uleb128 0xb
 3802 0258 3B       		.uleb128 0x3b
 3803 0259 0B       		.uleb128 0xb
 3804 025a 49       		.uleb128 0x49
 3805 025b 13       		.uleb128 0x13
 3806 025c 02       		.uleb128 0x2
 3807 025d 17       		.uleb128 0x17
 3808 025e 00       		.byte	0
 3809 025f 00       		.byte	0
 3810 0260 2F       		.uleb128 0x2f
 3811 0261 2E       		.uleb128 0x2e
 3812 0262 01       		.byte	0x1
 3813 0263 03       		.uleb128 0x3
 3814 0264 0E       		.uleb128 0xe
 3815 0265 3A       		.uleb128 0x3a
 3816 0266 0B       		.uleb128 0xb
 3817 0267 3B       		.uleb128 0x3b
 3818 0268 0B       		.uleb128 0xb
 3819 0269 27       		.uleb128 0x27
ARM GAS  /var/folders/t8/16hdwfmd2fg_d3q6dgx6bpmw0000gn/T//ccFguns6.s 			page 68


 3820 026a 19       		.uleb128 0x19
 3821 026b 49       		.uleb128 0x49
 3822 026c 13       		.uleb128 0x13
 3823 026d 11       		.uleb128 0x11
 3824 026e 01       		.uleb128 0x1
 3825 026f 12       		.uleb128 0x12
 3826 0270 06       		.uleb128 0x6
 3827 0271 40       		.uleb128 0x40
 3828 0272 18       		.uleb128 0x18
 3829 0273 9742     		.uleb128 0x2117
 3830 0275 19       		.uleb128 0x19
 3831 0276 01       		.uleb128 0x1
 3832 0277 13       		.uleb128 0x13
 3833 0278 00       		.byte	0
 3834 0279 00       		.byte	0
 3835 027a 30       		.uleb128 0x30
 3836 027b 898201   		.uleb128 0x4109
 3837 027e 01       		.byte	0x1
 3838 027f 11       		.uleb128 0x11
 3839 0280 01       		.uleb128 0x1
 3840 0281 31       		.uleb128 0x31
 3841 0282 13       		.uleb128 0x13
 3842 0283 00       		.byte	0
 3843 0284 00       		.byte	0
 3844 0285 31       		.uleb128 0x31
 3845 0286 8A8201   		.uleb128 0x410a
 3846 0289 00       		.byte	0
 3847 028a 02       		.uleb128 0x2
 3848 028b 18       		.uleb128 0x18
 3849 028c 9142     		.uleb128 0x2111
 3850 028e 18       		.uleb128 0x18
 3851 028f 00       		.byte	0
 3852 0290 00       		.byte	0
 3853 0291 32       		.uleb128 0x32
 3854 0292 2E       		.uleb128 0x2e
 3855 0293 00       		.byte	0
 3856 0294 3F       		.uleb128 0x3f
 3857 0295 19       		.uleb128 0x19
 3858 0296 3C       		.uleb128 0x3c
 3859 0297 19       		.uleb128 0x19
 3860 0298 6E       		.uleb128 0x6e
 3861 0299 0E       		.uleb128 0xe
 3862 029a 03       		.uleb128 0x3
 3863 029b 0E       		.uleb128 0xe
 3864 029c 3A       		.uleb128 0x3a
 3865 029d 0B       		.uleb128 0xb
 3866 029e 3B       		.uleb128 0x3b
 3867 029f 0B       		.uleb128 0xb
 3868 02a0 6E       		.uleb128 0x6e
 3869 02a1 0E       		.uleb128 0xe
 3870 02a2 00       		.byte	0
 3871 02a3 00       		.byte	0
 3872 02a4 00       		.byte	0
 3873              		.section	.debug_loc,"",%progbits
 3874              	.Ldebug_loc0:
 3875              	.LLST13:
 3876 0000 00000000 		.4byte	.LVL23
ARM GAS  /var/folders/t8/16hdwfmd2fg_d3q6dgx6bpmw0000gn/T//ccFguns6.s 			page 69


 3877 0004 04000000 		.4byte	.LVL24
 3878 0008 0100     		.2byte	0x1
 3879 000a 53       		.byte	0x53
 3880 000b 04000000 		.4byte	.LVL24
 3881 000f 18000000 		.4byte	.LFE178
 3882 0013 0200     		.2byte	0x2
 3883 0015 70       		.byte	0x70
 3884 0016 0C       		.sleb128 12
 3885 0017 00000000 		.4byte	0
 3886 001b 00000000 		.4byte	0
 3887              	.LLST2:
 3888 001f 00000000 		.4byte	.LVL4
 3889 0023 12000000 		.4byte	.LVL6
 3890 0027 0100     		.2byte	0x1
 3891 0029 50       		.byte	0x50
 3892 002a 12000000 		.4byte	.LVL6
 3893 002e 14000000 		.4byte	.LVL7
 3894 0032 0400     		.2byte	0x4
 3895 0034 F3       		.byte	0xf3
 3896 0035 01       		.uleb128 0x1
 3897 0036 50       		.byte	0x50
 3898 0037 9F       		.byte	0x9f
 3899 0038 14000000 		.4byte	.LVL7
 3900 003c 16000000 		.4byte	.LVL8
 3901 0040 0100     		.2byte	0x1
 3902 0042 50       		.byte	0x50
 3903 0043 16000000 		.4byte	.LVL8
 3904 0047 1A000000 		.4byte	.LFE177
 3905 004b 0400     		.2byte	0x4
 3906 004d F3       		.byte	0xf3
 3907 004e 01       		.uleb128 0x1
 3908 004f 50       		.byte	0x50
 3909 0050 9F       		.byte	0x9f
 3910 0051 00000000 		.4byte	0
 3911 0055 00000000 		.4byte	0
 3912              	.LLST3:
 3913 0059 0C000000 		.4byte	.LVL5
 3914 005d 12000000 		.4byte	.LVL6
 3915 0061 0100     		.2byte	0x1
 3916 0063 52       		.byte	0x52
 3917 0064 00000000 		.4byte	0
 3918 0068 00000000 		.4byte	0
 3919              	.LLST4:
 3920 006c 00000000 		.4byte	.LVL4
 3921 0070 12000000 		.4byte	.LVL6
 3922 0074 0100     		.2byte	0x1
 3923 0076 50       		.byte	0x50
 3924 0077 12000000 		.4byte	.LVL6
 3925 007b 14000000 		.4byte	.LVL7
 3926 007f 0400     		.2byte	0x4
 3927 0081 F3       		.byte	0xf3
 3928 0082 01       		.uleb128 0x1
 3929 0083 50       		.byte	0x50
 3930 0084 9F       		.byte	0x9f
 3931 0085 14000000 		.4byte	.LVL7
 3932 0089 16000000 		.4byte	.LVL8
 3933 008d 0100     		.2byte	0x1
ARM GAS  /var/folders/t8/16hdwfmd2fg_d3q6dgx6bpmw0000gn/T//ccFguns6.s 			page 70


 3934 008f 50       		.byte	0x50
 3935 0090 16000000 		.4byte	.LVL8
 3936 0094 1A000000 		.4byte	.LFE177
 3937 0098 0400     		.2byte	0x4
 3938 009a F3       		.byte	0xf3
 3939 009b 01       		.uleb128 0x1
 3940 009c 50       		.byte	0x50
 3941 009d 9F       		.byte	0x9f
 3942 009e 00000000 		.4byte	0
 3943 00a2 00000000 		.4byte	0
 3944              	.LLST0:
 3945 00a6 00000000 		.4byte	.LVL0
 3946 00aa 14000000 		.4byte	.LVL1
 3947 00ae 0100     		.2byte	0x1
 3948 00b0 50       		.byte	0x50
 3949 00b1 14000000 		.4byte	.LVL1
 3950 00b5 16000000 		.4byte	.LVL2
 3951 00b9 0400     		.2byte	0x4
 3952 00bb F3       		.byte	0xf3
 3953 00bc 01       		.uleb128 0x1
 3954 00bd 50       		.byte	0x50
 3955 00be 9F       		.byte	0x9f
 3956 00bf 16000000 		.4byte	.LVL2
 3957 00c3 18000000 		.4byte	.LVL3
 3958 00c7 0100     		.2byte	0x1
 3959 00c9 50       		.byte	0x50
 3960 00ca 18000000 		.4byte	.LVL3
 3961 00ce 1C000000 		.4byte	.LFE176
 3962 00d2 0400     		.2byte	0x4
 3963 00d4 F3       		.byte	0xf3
 3964 00d5 01       		.uleb128 0x1
 3965 00d6 50       		.byte	0x50
 3966 00d7 9F       		.byte	0x9f
 3967 00d8 00000000 		.4byte	0
 3968 00dc 00000000 		.4byte	0
 3969              	.LLST1:
 3970 00e0 00000000 		.4byte	.LVL0
 3971 00e4 14000000 		.4byte	.LVL1
 3972 00e8 0100     		.2byte	0x1
 3973 00ea 50       		.byte	0x50
 3974 00eb 14000000 		.4byte	.LVL1
 3975 00ef 16000000 		.4byte	.LVL2
 3976 00f3 0400     		.2byte	0x4
 3977 00f5 F3       		.byte	0xf3
 3978 00f6 01       		.uleb128 0x1
 3979 00f7 50       		.byte	0x50
 3980 00f8 9F       		.byte	0x9f
 3981 00f9 16000000 		.4byte	.LVL2
 3982 00fd 18000000 		.4byte	.LVL3
 3983 0101 0100     		.2byte	0x1
 3984 0103 50       		.byte	0x50
 3985 0104 18000000 		.4byte	.LVL3
 3986 0108 1C000000 		.4byte	.LFE176
 3987 010c 0400     		.2byte	0x4
 3988 010e F3       		.byte	0xf3
 3989 010f 01       		.uleb128 0x1
 3990 0110 50       		.byte	0x50
ARM GAS  /var/folders/t8/16hdwfmd2fg_d3q6dgx6bpmw0000gn/T//ccFguns6.s 			page 71


 3991 0111 9F       		.byte	0x9f
 3992 0112 00000000 		.4byte	0
 3993 0116 00000000 		.4byte	0
 3994              	.LLST5:
 3995 011a 00000000 		.4byte	.LVL9
 3996 011e 06000000 		.4byte	.LVL11
 3997 0122 0100     		.2byte	0x1
 3998 0124 50       		.byte	0x50
 3999 0125 06000000 		.4byte	.LVL11
 4000 0129 26000000 		.4byte	.LVL16
 4001 012d 0100     		.2byte	0x1
 4002 012f 55       		.byte	0x55
 4003 0130 26000000 		.4byte	.LVL16
 4004 0134 28000000 		.4byte	.LFE175
 4005 0138 0400     		.2byte	0x4
 4006 013a F3       		.byte	0xf3
 4007 013b 01       		.uleb128 0x1
 4008 013c 50       		.byte	0x50
 4009 013d 9F       		.byte	0x9f
 4010 013e 00000000 		.4byte	0
 4011 0142 00000000 		.4byte	0
 4012              	.LLST6:
 4013 0146 00000000 		.4byte	.LVL9
 4014 014a 0A000000 		.4byte	.LVL12
 4015 014e 0100     		.2byte	0x1
 4016 0150 51       		.byte	0x51
 4017 0151 0A000000 		.4byte	.LVL12
 4018 0155 1D000000 		.4byte	.LVL14-1
 4019 0159 0100     		.2byte	0x1
 4020 015b 50       		.byte	0x50
 4021 015c 1D000000 		.4byte	.LVL14-1
 4022 0160 28000000 		.4byte	.LFE175
 4023 0164 0400     		.2byte	0x4
 4024 0166 F3       		.byte	0xf3
 4025 0167 01       		.uleb128 0x1
 4026 0168 51       		.byte	0x51
 4027 0169 9F       		.byte	0x9f
 4028 016a 00000000 		.4byte	0
 4029 016e 00000000 		.4byte	0
 4030              	.LLST7:
 4031 0172 00000000 		.4byte	.LVL9
 4032 0176 12000000 		.4byte	.LVL13
 4033 017a 0100     		.2byte	0x1
 4034 017c 52       		.byte	0x52
 4035 017d 12000000 		.4byte	.LVL13
 4036 0181 26000000 		.4byte	.LVL15
 4037 0185 0100     		.2byte	0x1
 4038 0187 54       		.byte	0x54
 4039 0188 26000000 		.4byte	.LVL15
 4040 018c 28000000 		.4byte	.LFE175
 4041 0190 0100     		.2byte	0x1
 4042 0192 50       		.byte	0x50
 4043 0193 00000000 		.4byte	0
 4044 0197 00000000 		.4byte	0
 4045              	.LLST8:
 4046 019b 04000000 		.4byte	.LVL10
 4047 019f 06000000 		.4byte	.LVL11
ARM GAS  /var/folders/t8/16hdwfmd2fg_d3q6dgx6bpmw0000gn/T//ccFguns6.s 			page 72


 4048 01a3 0100     		.2byte	0x1
 4049 01a5 50       		.byte	0x50
 4050 01a6 06000000 		.4byte	.LVL11
 4051 01aa 26000000 		.4byte	.LVL16
 4052 01ae 0100     		.2byte	0x1
 4053 01b0 55       		.byte	0x55
 4054 01b1 26000000 		.4byte	.LVL16
 4055 01b5 28000000 		.4byte	.LFE175
 4056 01b9 0400     		.2byte	0x4
 4057 01bb F3       		.byte	0xf3
 4058 01bc 01       		.uleb128 0x1
 4059 01bd 50       		.byte	0x50
 4060 01be 9F       		.byte	0x9f
 4061 01bf 00000000 		.4byte	0
 4062 01c3 00000000 		.4byte	0
 4063              	.LLST9:
 4064 01c7 00000000 		.4byte	.LVL17
 4065 01cb 06000000 		.4byte	.LVL18
 4066 01cf 0100     		.2byte	0x1
 4067 01d1 50       		.byte	0x50
 4068 01d2 06000000 		.4byte	.LVL18
 4069 01d6 24000000 		.4byte	.LVL22
 4070 01da 0100     		.2byte	0x1
 4071 01dc 55       		.byte	0x55
 4072 01dd 24000000 		.4byte	.LVL22
 4073 01e1 26000000 		.4byte	.LFE174
 4074 01e5 0400     		.2byte	0x4
 4075 01e7 F3       		.byte	0xf3
 4076 01e8 01       		.uleb128 0x1
 4077 01e9 50       		.byte	0x50
 4078 01ea 9F       		.byte	0x9f
 4079 01eb 00000000 		.4byte	0
 4080 01ef 00000000 		.4byte	0
 4081              	.LLST10:
 4082 01f3 00000000 		.4byte	.LVL17
 4083 01f7 1B000000 		.4byte	.LVL20-1
 4084 01fb 0100     		.2byte	0x1
 4085 01fd 51       		.byte	0x51
 4086 01fe 1B000000 		.4byte	.LVL20-1
 4087 0202 26000000 		.4byte	.LFE174
 4088 0206 0400     		.2byte	0x4
 4089 0208 F3       		.byte	0xf3
 4090 0209 01       		.uleb128 0x1
 4091 020a 51       		.byte	0x51
 4092 020b 9F       		.byte	0x9f
 4093 020c 00000000 		.4byte	0
 4094 0210 00000000 		.4byte	0
 4095              	.LLST11:
 4096 0214 00000000 		.4byte	.LVL17
 4097 0218 10000000 		.4byte	.LVL19
 4098 021c 0100     		.2byte	0x1
 4099 021e 52       		.byte	0x52
 4100 021f 10000000 		.4byte	.LVL19
 4101 0223 24000000 		.4byte	.LVL21
 4102 0227 0100     		.2byte	0x1
 4103 0229 54       		.byte	0x54
 4104 022a 24000000 		.4byte	.LVL21
ARM GAS  /var/folders/t8/16hdwfmd2fg_d3q6dgx6bpmw0000gn/T//ccFguns6.s 			page 73


 4105 022e 26000000 		.4byte	.LFE174
 4106 0232 0100     		.2byte	0x1
 4107 0234 50       		.byte	0x50
 4108 0235 00000000 		.4byte	0
 4109 0239 00000000 		.4byte	0
 4110              	.LLST12:
 4111 023d 00000000 		.4byte	.LVL17
 4112 0241 06000000 		.4byte	.LVL18
 4113 0245 0100     		.2byte	0x1
 4114 0247 50       		.byte	0x50
 4115 0248 06000000 		.4byte	.LVL18
 4116 024c 24000000 		.4byte	.LVL22
 4117 0250 0100     		.2byte	0x1
 4118 0252 55       		.byte	0x55
 4119 0253 24000000 		.4byte	.LVL22
 4120 0257 26000000 		.4byte	.LFE174
 4121 025b 0400     		.2byte	0x4
 4122 025d F3       		.byte	0xf3
 4123 025e 01       		.uleb128 0x1
 4124 025f 50       		.byte	0x50
 4125 0260 9F       		.byte	0x9f
 4126 0261 00000000 		.4byte	0
 4127 0265 00000000 		.4byte	0
 4128              		.section	.debug_aranges,"",%progbits
 4129 0000 3C000000 		.4byte	0x3c
 4130 0004 0200     		.2byte	0x2
 4131 0006 00000000 		.4byte	.Ldebug_info0
 4132 000a 04       		.byte	0x4
 4133 000b 00       		.byte	0
 4134 000c 0000     		.2byte	0
 4135 000e 0000     		.2byte	0
 4136 0010 00000000 		.4byte	.LFB176
 4137 0014 1C000000 		.4byte	.LFE176-.LFB176
 4138 0018 00000000 		.4byte	.LFB177
 4139 001c 1A000000 		.4byte	.LFE177-.LFB177
 4140 0020 00000000 		.4byte	.LFB175
 4141 0024 28000000 		.4byte	.LFE175-.LFB175
 4142 0028 00000000 		.4byte	.LFB174
 4143 002c 26000000 		.4byte	.LFE174-.LFB174
 4144 0030 00000000 		.4byte	.LFB178
 4145 0034 18000000 		.4byte	.LFE178-.LFB178
 4146 0038 00000000 		.4byte	0
 4147 003c 00000000 		.4byte	0
 4148              		.section	.debug_ranges,"",%progbits
 4149              	.Ldebug_ranges0:
 4150 0000 00000000 		.4byte	.LFB176
 4151 0004 1C000000 		.4byte	.LFE176
 4152 0008 00000000 		.4byte	.LFB177
 4153 000c 1A000000 		.4byte	.LFE177
 4154 0010 00000000 		.4byte	.LFB175
 4155 0014 28000000 		.4byte	.LFE175
 4156 0018 00000000 		.4byte	.LFB174
 4157 001c 26000000 		.4byte	.LFE174
 4158 0020 00000000 		.4byte	.LFB178
 4159 0024 18000000 		.4byte	.LFE178
 4160 0028 00000000 		.4byte	0
 4161 002c 00000000 		.4byte	0
ARM GAS  /var/folders/t8/16hdwfmd2fg_d3q6dgx6bpmw0000gn/T//ccFguns6.s 			page 74


 4162              		.section	.debug_line,"",%progbits
 4163              	.Ldebug_line0:
 4164 0000 C6040000 		.section	.debug_str,"MS",%progbits,1
 4164      02004D04 
 4164      00000201 
 4164      FB0E0D00 
 4164      01010101 
 4165              	.LASF217:
 4166 0000 6F66665F 		.ascii	"off_ctx\000"
 4166      63747800 
 4167              	.LASF321:
 4168 0008 4D656D6F 		.ascii	"MemoryStream\000"
 4168      72795374 
 4168      7265616D 
 4168      00
 4169              	.LASF2:
 4170 0015 73697A65 		.ascii	"size_t\000"
 4170      5F7400
 4171              	.LASF216:
 4172 001c 6F66665F 		.ascii	"off_prio\000"
 4172      7072696F 
 4172      00
 4173              	.LASF123:
 4174 0025 5F5F6C6F 		.ascii	"__locale_t\000"
 4174      63616C65 
 4174      5F7400
 4175              	.LASF22:
 4176 0030 5F5F7661 		.ascii	"__value\000"
 4176      6C756500 
 4177              	.LASF139:
 4178 0038 73797374 		.ascii	"systime_t\000"
 4178      696D655F 
 4178      7400
 4179              	.LASF225:
 4180 0042 6F66665F 		.ascii	"off_preempt\000"
 4180      70726565 
 4180      6D707400 
 4181              	.LASF91:
 4182 004e 5F5F7366 		.ascii	"__sf\000"
 4182      00
 4183              	.LASF207:
 4184 0053 6F776E65 		.ascii	"owner\000"
 4184      7200
 4185              	.LASF58:
 4186 0059 5F726561 		.ascii	"_read\000"
 4186      6400
 4187              	.LASF135:
 4188 005f 74707269 		.ascii	"tprio_t\000"
 4188      6F5F7400 
 4189              	.LASF228:
 4190 0067 63685F64 		.ascii	"ch_debug\000"
 4190      65627567 
 4190      00
 4191              	.LASF189:
 4192 0070 50544F52 		.ascii	"PTOR\000"
 4192      00
 4193              	.LASF59:
ARM GAS  /var/folders/t8/16hdwfmd2fg_d3q6dgx6bpmw0000gn/T//ccFguns6.s 			page 75


 4194 0075 5F777269 		.ascii	"_write\000"
 4194      746500
 4195              	.LASF128:
 4196 007c 696E7433 		.ascii	"int32_t\000"
 4196      325F7400 
 4197              	.LASF323:
 4198 0084 77726974 		.ascii	"writes\000"
 4198      657300
 4199              	.LASF102:
 4200 008b 5F617363 		.ascii	"_asctime_buf\000"
 4200      74696D65 
 4200      5F627566 
 4200      00
 4201              	.LASF85:
 4202 0098 5F637674 		.ascii	"_cvtlen\000"
 4202      6C656E00 
 4203              	.LASF168:
 4204 00a0 76746675 		.ascii	"vtfunc_t\000"
 4204      6E635F74 
 4204      00
 4205              	.LASF174:
 4206 00a9 63685F76 		.ascii	"ch_virtual_timers_list\000"
 4206      69727475 
 4206      616C5F74 
 4206      696D6572 
 4206      735F6C69 
 4207              	.LASF121:
 4208 00c0 5F756E75 		.ascii	"_unused\000"
 4208      73656400 
 4209              	.LASF32:
 4210 00c8 5F5F746D 		.ascii	"__tm\000"
 4210      00
 4211              	.LASF117:
 4212 00cd 5F776373 		.ascii	"_wcsrtombs_state\000"
 4212      72746F6D 
 4212      62735F73 
 4212      74617465 
 4212      00
 4213              	.LASF63:
 4214 00de 5F6E6275 		.ascii	"_nbuf\000"
 4214      6600
 4215              	.LASF33:
 4216 00e4 5F5F746D 		.ascii	"__tm_sec\000"
 4216      5F736563 
 4216      00
 4217              	.LASF291:
 4218 00ed 6F64645F 		.ascii	"odd_even\000"
 4218      6576656E 
 4218      00
 4219              	.LASF110:
 4220 00f6 5F6C3634 		.ascii	"_l64a_buf\000"
 4220      615F6275 
 4220      6600
 4221              	.LASF240:
 4222 0100 636F6E66 		.ascii	"config\000"
 4222      696700
 4223              	.LASF148:
ARM GAS  /var/folders/t8/16hdwfmd2fg_d3q6dgx6bpmw0000gn/T//ccFguns6.s 			page 76


 4224 0107 73746174 		.ascii	"state\000"
 4224      6500
 4225              	.LASF299:
 4226 010d 65705F6D 		.ascii	"ep_mode\000"
 4226      6F646500 
 4227              	.LASF67:
 4228 0115 5F6C6F63 		.ascii	"_lock\000"
 4228      6B00
 4229              	.LASF180:
 4230 011b 6C6F636B 		.ascii	"lock_cnt\000"
 4230      5F636E74 
 4230      00
 4231              	.LASF98:
 4232 0124 5F6D756C 		.ascii	"_mult\000"
 4232      7400
 4233              	.LASF298:
 4234 012a 5553424F 		.ascii	"USBOutEndpointState\000"
 4234      7574456E 
 4234      64706F69 
 4234      6E745374 
 4234      61746500 
 4235              	.LASF219:
 4236 013e 6F66665F 		.ascii	"off_older\000"
 4236      6F6C6465 
 4236      7200
 4237              	.LASF143:
 4238 0148 7072696F 		.ascii	"prio\000"
 4238      00
 4239              	.LASF231:
 4240 014d 696F6D6F 		.ascii	"iomode_t\000"
 4240      64655F74 
 4240      00
 4241              	.LASF329:
 4242 0156 5F5F6275 		.ascii	"__builtin_memcpy\000"
 4242      696C7469 
 4242      6E5F6D65 
 4242      6D637079 
 4242      00
 4243              	.LASF19:
 4244 0167 5F5F7763 		.ascii	"__wch\000"
 4244      6800
 4245              	.LASF198:
 4246 016d 65786974 		.ascii	"exitcode\000"
 4246      636F6465 
 4246      00
 4247              	.LASF270:
 4248 0176 75736265 		.ascii	"usbep0state_t\000"
 4248      70307374 
 4248      6174655F 
 4248      7400
 4249              	.LASF3:
 4250 0184 5F5F7569 		.ascii	"__uint8_t\000"
 4250      6E74385F 
 4250      7400
 4251              	.LASF236:
 4252 018e 706F7274 		.ascii	"ports\000"
 4252      7300
ARM GAS  /var/folders/t8/16hdwfmd2fg_d3q6dgx6bpmw0000gn/T//ccFguns6.s 			page 77


 4253              	.LASF55:
 4254 0194 5F66696C 		.ascii	"_file\000"
 4254      6500
 4255              	.LASF175:
 4256 019a 73797374 		.ascii	"systime\000"
 4256      696D6500 
 4257              	.LASF42:
 4258 01a2 5F6F6E5F 		.ascii	"_on_exit_args\000"
 4258      65786974 
 4258      5F617267 
 4258      7300
 4259              	.LASF322:
 4260 01b0 72656164 		.ascii	"reads\000"
 4260      7300
 4261              	.LASF272:
 4262 01b6 5553425F 		.ascii	"USB_EVENT_ADDRESS\000"
 4262      4556454E 
 4262      545F4144 
 4262      44524553 
 4262      5300
 4263              	.LASF113:
 4264 01c8 5F6D6272 		.ascii	"_mbrlen_state\000"
 4264      6C656E5F 
 4264      73746174 
 4264      6500
 4265              	.LASF9:
 4266 01d6 6C6F6E67 		.ascii	"long int\000"
 4266      20696E74 
 4266      00
 4267              	.LASF124:
 4268 01df 5F696D70 		.ascii	"_impure_ptr\000"
 4268      7572655F 
 4268      70747200 
 4269              	.LASF288:
 4270 01eb 7478636E 		.ascii	"txcnt\000"
 4270      7400
 4271              	.LASF82:
 4272 01f1 5F726573 		.ascii	"_result_k\000"
 4272      756C745F 
 4272      6B00
 4273              	.LASF52:
 4274 01fb 5F73697A 		.ascii	"_size\000"
 4274      6500
 4275              	.LASF210:
 4276 0201 7A65726F 		.ascii	"zero\000"
 4276      00
 4277              	.LASF103:
 4278 0206 5F6C6F63 		.ascii	"_localtime_buf\000"
 4278      616C7469 
 4278      6D655F62 
 4278      756600
 4279              	.LASF232:
 4280 0215 696F706F 		.ascii	"ioportid_t\000"
 4280      72746964 
 4280      5F7400
 4281              	.LASF316:
 4282 0220 4D656D53 		.ascii	"MemStreamVMT\000"
ARM GAS  /var/folders/t8/16hdwfmd2fg_d3q6dgx6bpmw0000gn/T//ccFguns6.s 			page 78


 4282      74726561 
 4282      6D564D54 
 4282      00
 4283              	.LASF132:
 4284 022d 74737461 		.ascii	"tstate_t\000"
 4284      74655F74 
 4284      00
 4285              	.LASF154:
 4286 0236 6570656E 		.ascii	"epending\000"
 4286      64696E67 
 4286      00
 4287              	.LASF324:
 4288 023f 474E5520 		.ascii	"GNU C99 7.2.1 20170904 (release) [ARM/embedded-7-br"
 4288      43393920 
 4288      372E322E 
 4288      31203230 
 4288      31373039 
 4289 0272 616E6368 		.ascii	"anch revision 255204] -mcpu=cortex-m0plus -mno-thum"
 4289      20726576 
 4289      6973696F 
 4289      6E203235 
 4289      35323034 
 4290 02a5 622D696E 		.ascii	"b-interwork -mthumb -ggdb -O2 -std=gnu99 -fomit-fra"
 4290      74657277 
 4290      6F726B20 
 4290      2D6D7468 
 4290      756D6220 
 4291 02d8 6D652D70 		.ascii	"me-pointer -falign-functions=16 -ffunction-sections"
 4291      6F696E74 
 4291      6572202D 
 4291      66616C69 
 4291      676E2D66 
 4292 030b 202D6664 		.ascii	" -fdata-sections -fno-common\000"
 4292      6174612D 
 4292      73656374 
 4292      696F6E73 
 4292      202D666E 
 4293              	.LASF162:
 4294 0328 74687265 		.ascii	"threads_queue_t\000"
 4294      6164735F 
 4294      71756575 
 4294      655F7400 
 4295              	.LASF289:
 4296 0338 74786275 		.ascii	"txbuf\000"
 4296      6600
 4297              	.LASF193:
 4298 033e 72656761 		.ascii	"regarm_t\000"
 4298      726D5F74 
 4298      00
 4299              	.LASF326:
 4300 0347 2F557365 		.ascii	"/Users/jpablobr/tmp/tmk/di0ib-tmk_keyboard/keyboard"
 4300      72732F6A 
 4300      7061626C 
 4300      6F62722F 
 4300      746D702F 
 4301 037a 2F746565 		.ascii	"/teensy_lc_menelaus\000"
 4301      6E73795F 
ARM GAS  /var/folders/t8/16hdwfmd2fg_d3q6dgx6bpmw0000gn/T//ccFguns6.s 			page 79


 4301      6C635F6D 
 4301      656E656C 
 4301      61757300 
 4302              	.LASF263:
 4303 038e 5553425F 		.ascii	"USB_EP0_WAITING_SETUP\000"
 4303      4550305F 
 4303      57414954 
 4303      494E475F 
 4303      53455455 
 4304              	.LASF37:
 4305 03a4 5F5F746D 		.ascii	"__tm_mon\000"
 4305      5F6D6F6E 
 4305      00
 4306              	.LASF327:
 4307 03ad 6D734F62 		.ascii	"msObjectInit\000"
 4307      6A656374 
 4307      496E6974 
 4307      00
 4308              	.LASF261:
 4309 03ba 5553425F 		.ascii	"USB_SUSPENDED\000"
 4309      53555350 
 4309      454E4445 
 4309      4400
 4310              	.LASF238:
 4311 03c8 70616C5F 		.ascii	"pal_default_config\000"
 4311      64656661 
 4311      756C745F 
 4311      636F6E66 
 4311      696700
 4312              	.LASF100:
 4313 03db 5F756E75 		.ascii	"_unused_rand\000"
 4313      7365645F 
 4313      72616E64 
 4313      00
 4314              	.LASF1:
 4315 03e8 7369676E 		.ascii	"signed char\000"
 4315      65642063 
 4315      68617200 
 4316              	.LASF204:
 4317 03f4 65776D61 		.ascii	"ewmask\000"
 4317      736B00
 4318              	.LASF126:
 4319 03fb 75696E74 		.ascii	"uint8_t\000"
 4319      385F7400 
 4320              	.LASF277:
 4321 0403 5553425F 		.ascii	"USB_EVENT_STALLED\000"
 4321      4556454E 
 4321      545F5354 
 4321      414C4C45 
 4321      4400
 4322              	.LASF137:
 4323 0415 6576656E 		.ascii	"eventmask_t\000"
 4323      746D6173 
 4323      6B5F7400 
 4324              	.LASF294:
 4325 0421 72787369 		.ascii	"rxsize\000"
 4325      7A6500
ARM GAS  /var/folders/t8/16hdwfmd2fg_d3q6dgx6bpmw0000gn/T//ccFguns6.s 			page 80


 4326              	.LASF200:
 4327 0428 77747472 		.ascii	"wttrp\000"
 4327      7000
 4328              	.LASF4:
 4329 042e 756E7369 		.ascii	"unsigned char\000"
 4329      676E6564 
 4329      20636861 
 4329      7200
 4330              	.LASF269:
 4331 043c 5553425F 		.ascii	"USB_EP0_ERROR\000"
 4331      4550305F 
 4331      4552524F 
 4331      5200
 4332              	.LASF178:
 4333 044a 70616E69 		.ascii	"panic_msg\000"
 4333      635F6D73 
 4333      6700
 4334              	.LASF77:
 4335 0454 5F756E73 		.ascii	"_unspecified_locale_info\000"
 4335      70656369 
 4335      66696564 
 4335      5F6C6F63 
 4335      616C655F 
 4336              	.LASF70:
 4337 046d 5F726565 		.ascii	"_reent\000"
 4337      6E7400
 4338              	.LASF125:
 4339 0474 5F676C6F 		.ascii	"_global_impure_ptr\000"
 4339      62616C5F 
 4339      696D7075 
 4339      72655F70 
 4339      747200
 4340              	.LASF245:
 4341 0487 65703073 		.ascii	"ep0state\000"
 4341      74617465 
 4341      00
 4342              	.LASF176:
 4343 0490 73797374 		.ascii	"system_debug_t\000"
 4343      656D5F64 
 4343      65627567 
 4343      5F7400
 4344              	.LASF312:
 4345 049f 72657175 		.ascii	"requests_hook_cb\000"
 4345      65737473 
 4345      5F686F6F 
 4345      6B5F6362 
 4345      00
 4346              	.LASF230:
 4347 04b0 5F426F6F 		.ascii	"_Bool\000"
 4347      6C00
 4348              	.LASF25:
 4349 04b6 63686172 		.ascii	"char\000"
 4349      00
 4350              	.LASF49:
 4351 04bb 5F666E73 		.ascii	"_fns\000"
 4351      00
 4352              	.LASF61:
ARM GAS  /var/folders/t8/16hdwfmd2fg_d3q6dgx6bpmw0000gn/T//ccFguns6.s 			page 81


 4353 04c0 5F636C6F 		.ascii	"_close\000"
 4353      736500
 4354              	.LASF247:
 4355 04c7 6570306E 		.ascii	"ep0n\000"
 4355      00
 4356              	.LASF242:
 4357 04cc 72656365 		.ascii	"receiving\000"
 4357      6976696E 
 4357      6700
 4358              	.LASF6:
 4359 04d6 5F5F7569 		.ascii	"__uint16_t\000"
 4359      6E743136 
 4359      5F7400
 4360              	.LASF239:
 4361 04e1 55534244 		.ascii	"USBDriver\000"
 4361      72697665 
 4361      7200
 4362              	.LASF199:
 4363 04eb 77746F62 		.ascii	"wtobjp\000"
 4363      6A7000
 4364              	.LASF72:
 4365 04f2 5F737464 		.ascii	"_stdin\000"
 4365      696E00
 4366              	.LASF300:
 4367 04f9 73657475 		.ascii	"setup_cb\000"
 4367      705F6362 
 4367      00
 4368              	.LASF280:
 4369 0502 75645F73 		.ascii	"ud_string\000"
 4369      7472696E 
 4369      6700
 4370              	.LASF224:
 4371 050c 6F66665F 		.ascii	"off_refs\000"
 4371      72656673 
 4371      00
 4372              	.LASF149:
 4373 0515 666C6167 		.ascii	"flags\000"
 4373      7300
 4374              	.LASF301:
 4375 051b 696E5F63 		.ascii	"in_cb\000"
 4375      6200
 4376              	.LASF194:
 4377 0521 73746B61 		.ascii	"stkalign_t\000"
 4377      6C69676E 
 4377      5F7400
 4378              	.LASF157:
 4379 052c 6D706F6F 		.ascii	"mpool\000"
 4379      6C00
 4380              	.LASF284:
 4381 0532 75736265 		.ascii	"usbeventcb_t\000"
 4381      76656E74 
 4381      63625F74 
 4381      00
 4382              	.LASF304:
 4383 053f 6F75745F 		.ascii	"out_maxsize\000"
 4383      6D617873 
 4383      697A6500 
ARM GAS  /var/folders/t8/16hdwfmd2fg_d3q6dgx6bpmw0000gn/T//ccFguns6.s 			page 82


 4384              	.LASF213:
 4385 054b 70747273 		.ascii	"ptrsize\000"
 4385      697A6500 
 4386              	.LASF241:
 4387 0553 7472616E 		.ascii	"transmitting\000"
 4387      736D6974 
 4387      74696E67 
 4387      00
 4388              	.LASF293:
 4389 0560 55534249 		.ascii	"USBInEndpointState\000"
 4389      6E456E64 
 4389      706F696E 
 4389      74537461 
 4389      746500
 4390              	.LASF226:
 4391 0573 6F66665F 		.ascii	"off_time\000"
 4391      74696D65 
 4391      00
 4392              	.LASF138:
 4393 057c 636E745F 		.ascii	"cnt_t\000"
 4393      7400
 4394              	.LASF319:
 4395 0582 62756666 		.ascii	"buffer\000"
 4395      657200
 4396              	.LASF281:
 4397 0589 55534244 		.ascii	"USBDescriptor\000"
 4397      65736372 
 4397      6970746F 
 4397      7200
 4398              	.LASF57:
 4399 0597 5F636F6F 		.ascii	"_cookie\000"
 4399      6B696500 
 4400              	.LASF249:
 4401 059f 73657475 		.ascii	"setup\000"
 4401      7000
 4402              	.LASF203:
 4403 05a5 77746D74 		.ascii	"wtmtxp\000"
 4403      787000
 4404              	.LASF30:
 4405 05ac 5F776473 		.ascii	"_wds\000"
 4405      00
 4406              	.LASF278:
 4407 05b1 75736265 		.ascii	"usbevent_t\000"
 4407      76656E74 
 4407      5F7400
 4408              	.LASF166:
 4409 05bc 63685F72 		.ascii	"ch_ready_list\000"
 4409      65616479 
 4409      5F6C6973 
 4409      7400
 4410              	.LASF122:
 4411 05ca 5F5F6C6F 		.ascii	"__lock\000"
 4411      636B00
 4412              	.LASF89:
 4413 05d1 5F736967 		.ascii	"_sig_func\000"
 4413      5F66756E 
 4413      6300
ARM GAS  /var/folders/t8/16hdwfmd2fg_d3q6dgx6bpmw0000gn/T//ccFguns6.s 			page 83


 4414              	.LASF279:
 4415 05db 75645F73 		.ascii	"ud_size\000"
 4415      697A6500 
 4416              	.LASF65:
 4417 05e3 5F6F6666 		.ascii	"_offset\000"
 4417      73657400 
 4418              	.LASF259:
 4419 05eb 5553425F 		.ascii	"USB_SELECTED\000"
 4419      53454C45 
 4419      43544544 
 4419      00
 4420              	.LASF86:
 4421 05f8 5F637674 		.ascii	"_cvtbuf\000"
 4421      62756600 
 4422              	.LASF252:
 4423 0600 636F6E66 		.ascii	"configuration\000"
 4423      69677572 
 4423      6174696F 
 4423      6E00
 4424              	.LASF235:
 4425 060e 506F7274 		.ascii	"PortConfig\000"
 4425      436F6E66 
 4425      696700
 4426              	.LASF13:
 4427 0619 5F5F7569 		.ascii	"__uint64_t\000"
 4427      6E743634 
 4427      5F7400
 4428              	.LASF222:
 4429 0624 6F66665F 		.ascii	"off_state\000"
 4429      73746174 
 4429      6500
 4430              	.LASF83:
 4431 062e 5F703573 		.ascii	"_p5s\000"
 4431      00
 4432              	.LASF11:
 4433 0633 6C6F6E67 		.ascii	"long unsigned int\000"
 4433      20756E73 
 4433      69676E65 
 4433      6420696E 
 4433      7400
 4434              	.LASF215:
 4435 0645 74687265 		.ascii	"threadsize\000"
 4435      61647369 
 4435      7A6500
 4436              	.LASF53:
 4437 0650 5F5F7346 		.ascii	"__sFILE\000"
 4437      494C4500 
 4438              	.LASF79:
 4439 0658 5F5F7364 		.ascii	"__sdidinit\000"
 4439      6964696E 
 4439      697400
 4440              	.LASF69:
 4441 0663 5F666C61 		.ascii	"_flags2\000"
 4441      67733200 
 4442              	.LASF251:
 4443 066b 61646472 		.ascii	"address\000"
 4443      65737300 
ARM GAS  /var/folders/t8/16hdwfmd2fg_d3q6dgx6bpmw0000gn/T//ccFguns6.s 			page 84


 4444              	.LASF205:
 4445 0673 63685F73 		.ascii	"ch_semaphore\000"
 4445      656D6170 
 4445      686F7265 
 4445      00
 4446              	.LASF248:
 4447 0680 65703065 		.ascii	"ep0endcb\000"
 4447      6E646362 
 4447      00
 4448              	.LASF141:
 4449 0689 63685F74 		.ascii	"ch_thread\000"
 4449      68726561 
 4449      6400
 4450              	.LASF244:
 4451 0693 6F75745F 		.ascii	"out_params\000"
 4451      70617261 
 4451      6D7300
 4452              	.LASF173:
 4453 069e 76697274 		.ascii	"virtual_timers_list_t\000"
 4453      75616C5F 
 4453      74696D65 
 4453      72735F6C 
 4453      6973745F 
 4454              	.LASF208:
 4455 06b4 63685F69 		.ascii	"ch_idle_thread_wa\000"
 4455      646C655F 
 4455      74687265 
 4455      61645F77 
 4455      6100
 4456              	.LASF71:
 4457 06c6 5F657272 		.ascii	"_errno\000"
 4457      6E6F00
 4458              	.LASF191:
 4459 06cd 50444452 		.ascii	"PDDR\000"
 4459      00
 4460              	.LASF169:
 4461 06d2 76697274 		.ascii	"virtual_timer_t\000"
 4461      75616C5F 
 4461      74696D65 
 4461      725F7400 
 4462              	.LASF165:
 4463 06e2 72656164 		.ascii	"ready_list_t\000"
 4463      795F6C69 
 4463      73745F74 
 4463      00
 4464              	.LASF145:
 4465 06ef 6F6C6465 		.ascii	"older\000"
 4465      7200
 4466              	.LASF111:
 4467 06f5 5F736967 		.ascii	"_signal_buf\000"
 4467      6E616C5F 
 4467      62756600 
 4468              	.LASF287:
 4469 0701 74787369 		.ascii	"txsize\000"
 4469      7A6500
 4470              	.LASF156:
 4471 0708 7265616C 		.ascii	"realprio\000"
ARM GAS  /var/folders/t8/16hdwfmd2fg_d3q6dgx6bpmw0000gn/T//ccFguns6.s 			page 85


 4471      7072696F 
 4471      00
 4472              	.LASF317:
 4473 0711 77726974 		.ascii	"write\000"
 4473      6500
 4474              	.LASF325:
 4475 0717 2E2E2F2E 		.ascii	"../../tmk_core/tool/chibios/ChibiOS/os/hal/lib/stre"
 4475      2E2F746D 
 4475      6B5F636F 
 4475      72652F74 
 4475      6F6F6C2F 
 4476 074a 616D732F 		.ascii	"ams/memstreams.c\000"
 4476      6D656D73 
 4476      74726561 
 4476      6D732E63 
 4476      00
 4477              	.LASF221:
 4478 075b 6F66665F 		.ascii	"off_stklimit\000"
 4478      73746B6C 
 4478      696D6974 
 4478      00
 4479              	.LASF31:
 4480 0768 5F426967 		.ascii	"_Bigint\000"
 4480      696E7400 
 4481              	.LASF262:
 4482 0770 75736273 		.ascii	"usbstate_t\000"
 4482      74617465 
 4482      5F7400
 4483              	.LASF160:
 4484 077b 63685F74 		.ascii	"ch_threads_list\000"
 4484      68726561 
 4484      64735F6C 
 4484      69737400 
 4485              	.LASF28:
 4486 078b 5F6D6178 		.ascii	"_maxwds\000"
 4486      77647300 
 4487              	.LASF80:
 4488 0793 5F5F636C 		.ascii	"__cleanup\000"
 4488      65616E75 
 4488      7000
 4489              	.LASF88:
 4490 079d 5F617465 		.ascii	"_atexit0\000"
 4490      78697430 
 4490      00
 4491              	.LASF296:
 4492 07a6 72786275 		.ascii	"rxbuf\000"
 4492      6600
 4493              	.LASF305:
 4494 07ac 696E5F73 		.ascii	"in_state\000"
 4494      74617465 
 4494      00
 4495              	.LASF276:
 4496 07b5 5553425F 		.ascii	"USB_EVENT_WAKEUP\000"
 4496      4556454E 
 4496      545F5741 
 4496      4B455550 
 4496      00
ARM GAS  /var/folders/t8/16hdwfmd2fg_d3q6dgx6bpmw0000gn/T//ccFguns6.s 			page 86


 4497              	.LASF10:
 4498 07c6 5F5F7569 		.ascii	"__uint32_t\000"
 4498      6E743332 
 4498      5F7400
 4499              	.LASF76:
 4500 07d1 5F656D65 		.ascii	"_emergency\000"
 4500      7267656E 
 4500      637900
 4501              	.LASF310:
 4502 07dc 6576656E 		.ascii	"event_cb\000"
 4502      745F6362 
 4502      00
 4503              	.LASF155:
 4504 07e5 6D74786C 		.ascii	"mtxlist\000"
 4504      69737400 
 4505              	.LASF12:
 4506 07ed 6C6F6E67 		.ascii	"long long int\000"
 4506      206C6F6E 
 4506      6720696E 
 4506      7400
 4507              	.LASF258:
 4508 07fb 5553425F 		.ascii	"USB_READY\000"
 4508      52454144 
 4508      5900
 4509              	.LASF271:
 4510 0805 5553425F 		.ascii	"USB_EVENT_RESET\000"
 4510      4556454E 
 4510      545F5245 
 4510      53455400 
 4511              	.LASF94:
 4512 0815 5F6E696F 		.ascii	"_niobs\000"
 4512      627300
 4513              	.LASF90:
 4514 081c 5F5F7367 		.ascii	"__sglue\000"
 4514      6C756500 
 4515              	.LASF246:
 4516 0824 6570306E 		.ascii	"ep0next\000"
 4516      65787400 
 4517              	.LASF328:
 4518 082c 6D656D63 		.ascii	"memcpy\000"
 4518      707900
 4519              	.LASF120:
 4520 0833 5F6E6D61 		.ascii	"_nmalloc\000"
 4520      6C6C6F63 
 4520      00
 4521              	.LASF104:
 4522 083c 5F67616D 		.ascii	"_gamma_signgam\000"
 4522      6D615F73 
 4522      69676E67 
 4522      616D00
 4523              	.LASF234:
 4524 084b 70616473 		.ascii	"pads\000"
 4524      00
 4525              	.LASF151:
 4526 0850 70726565 		.ascii	"preempt\000"
 4526      6D707400 
 4527              	.LASF283:
ARM GAS  /var/folders/t8/16hdwfmd2fg_d3q6dgx6bpmw0000gn/T//ccFguns6.s 			page 87


 4528 0858 75736265 		.ascii	"usbepcallback_t\000"
 4528      7063616C 
 4528      6C626163 
 4528      6B5F7400 
 4529              	.LASF84:
 4530 0868 5F667265 		.ascii	"_freelist\000"
 4530      656C6973 
 4530      7400
 4531              	.LASF95:
 4532 0872 5F696F62 		.ascii	"_iobs\000"
 4532      7300
 4533              	.LASF93:
 4534 0878 5F676C75 		.ascii	"_glue\000"
 4534      6500
 4535              	.LASF29:
 4536 087e 5F736967 		.ascii	"_sign\000"
 4536      6E00
 4537              	.LASF318:
 4538 0884 72656164 		.ascii	"read\000"
 4538      00
 4539              	.LASF218:
 4540 0889 6F66665F 		.ascii	"off_newer\000"
 4540      6E657765 
 4540      7200
 4541              	.LASF0:
 4542 0893 756E7369 		.ascii	"unsigned int\000"
 4542      676E6564 
 4542      20696E74 
 4542      00
 4543              	.LASF314:
 4544 08a0 55534243 		.ascii	"USBConfig\000"
 4544      6F6E6669 
 4544      6700
 4545              	.LASF150:
 4546 08aa 72656673 		.ascii	"refs\000"
 4546      00
 4547              	.LASF118:
 4548 08af 5F685F65 		.ascii	"_h_errno\000"
 4548      72726E6F 
 4548      00
 4549              	.LASF116:
 4550 08b8 5F776372 		.ascii	"_wcrtomb_state\000"
 4550      746F6D62 
 4550      5F737461 
 4550      746500
 4551              	.LASF308:
 4552 08c7 73657475 		.ascii	"setup_buf\000"
 4552      705F6275 
 4552      6600
 4553              	.LASF36:
 4554 08d1 5F5F746D 		.ascii	"__tm_mday\000"
 4554      5F6D6461 
 4554      7900
 4555              	.LASF87:
 4556 08db 5F6E6577 		.ascii	"_new\000"
 4556      00
 4557              	.LASF62:
ARM GAS  /var/folders/t8/16hdwfmd2fg_d3q6dgx6bpmw0000gn/T//ccFguns6.s 			page 88


 4558 08e0 5F756275 		.ascii	"_ubuf\000"
 4558      6600
 4559              	.LASF74:
 4560 08e6 5F737464 		.ascii	"_stderr\000"
 4560      65727200 
 4561              	.LASF109:
 4562 08ee 5F776374 		.ascii	"_wctomb_state\000"
 4562      6F6D625F 
 4562      73746174 
 4562      6500
 4563              	.LASF68:
 4564 08fc 5F6D6273 		.ascii	"_mbstate\000"
 4564      74617465 
 4564      00
 4565              	.LASF167:
 4566 0905 63757272 		.ascii	"current\000"
 4566      656E7400 
 4567              	.LASF105:
 4568 090d 5F72616E 		.ascii	"_rand_next\000"
 4568      645F6E65 
 4568      787400
 4569              	.LASF302:
 4570 0918 6F75745F 		.ascii	"out_cb\000"
 4570      636200
 4571              	.LASF54:
 4572 091f 5F666C61 		.ascii	"_flags\000"
 4572      677300
 4573              	.LASF188:
 4574 0926 50434F52 		.ascii	"PCOR\000"
 4574      00
 4575              	.LASF190:
 4576 092b 50444952 		.ascii	"PDIR\000"
 4576      00
 4577              	.LASF158:
 4578 0930 74687265 		.ascii	"thread_reference_t\000"
 4578      61645F72 
 4578      65666572 
 4578      656E6365 
 4578      5F7400
 4579              	.LASF47:
 4580 0943 5F617465 		.ascii	"_atexit\000"
 4580      78697400 
 4581              	.LASF257:
 4582 094b 5553425F 		.ascii	"USB_STOP\000"
 4582      53544F50 
 4582      00
 4583              	.LASF295:
 4584 0954 7278636E 		.ascii	"rxcnt\000"
 4584      7400
 4585              	.LASF303:
 4586 095a 696E5F6D 		.ascii	"in_maxsize\000"
 4586      61787369 
 4586      7A6500
 4587              	.LASF21:
 4588 0965 5F5F636F 		.ascii	"__count\000"
 4588      756E7400 
 4589              	.LASF306:
ARM GAS  /var/folders/t8/16hdwfmd2fg_d3q6dgx6bpmw0000gn/T//ccFguns6.s 			page 89


 4590 096d 6F75745F 		.ascii	"out_state\000"
 4590      73746174 
 4590      6500
 4591              	.LASF39:
 4592 0977 5F5F746D 		.ascii	"__tm_wday\000"
 4592      5F776461 
 4592      7900
 4593              	.LASF140:
 4594 0981 74687265 		.ascii	"thread_t\000"
 4594      61645F74 
 4594      00
 4595              	.LASF307:
 4596 098a 65705F62 		.ascii	"ep_buffers\000"
 4596      75666665 
 4596      727300
 4597              	.LASF40:
 4598 0995 5F5F746D 		.ascii	"__tm_yday\000"
 4598      5F796461 
 4598      7900
 4599              	.LASF201:
 4600 099f 73656E74 		.ascii	"sentmsg\000"
 4600      6D736700 
 4601              	.LASF265:
 4602 09a7 5553425F 		.ascii	"USB_EP0_WAITING_TX0\000"
 4602      4550305F 
 4602      57414954 
 4602      494E475F 
 4602      54583000 
 4603              	.LASF196:
 4604 09bb 706F7274 		.ascii	"port_intctx\000"
 4604      5F696E74 
 4604      63747800 
 4605              	.LASF97:
 4606 09c7 5F736565 		.ascii	"_seed\000"
 4606      6400
 4607              	.LASF60:
 4608 09cd 5F736565 		.ascii	"_seek\000"
 4608      6B00
 4609              	.LASF179:
 4610 09d3 6973725F 		.ascii	"isr_cnt\000"
 4610      636E7400 
 4611              	.LASF17:
 4612 09db 5F66706F 		.ascii	"_fpos_t\000"
 4612      735F7400 
 4613              	.LASF20:
 4614 09e3 5F5F7763 		.ascii	"__wchb\000"
 4614      686200
 4615              	.LASF256:
 4616 09ea 5553425F 		.ascii	"USB_UNINIT\000"
 4616      554E494E 
 4616      495400
 4617              	.LASF170:
 4618 09f5 63685F76 		.ascii	"ch_virtual_timer\000"
 4618      69727475 
 4618      616C5F74 
 4618      696D6572 
 4618      00
ARM GAS  /var/folders/t8/16hdwfmd2fg_d3q6dgx6bpmw0000gn/T//ccFguns6.s 			page 90


 4619              	.LASF108:
 4620 0a06 5F6D6274 		.ascii	"_mbtowc_state\000"
 4620      6F77635F 
 4620      73746174 
 4620      6500
 4621              	.LASF211:
 4622 0a14 73697A65 		.ascii	"size\000"
 4622      00
 4623              	.LASF14:
 4624 0a19 6C6F6E67 		.ascii	"long long unsigned int\000"
 4624      206C6F6E 
 4624      6720756E 
 4624      7369676E 
 4624      65642069 
 4625              	.LASF264:
 4626 0a30 5553425F 		.ascii	"USB_EP0_TX\000"
 4626      4550305F 
 4626      545800
 4627              	.LASF127:
 4628 0a3b 75696E74 		.ascii	"uint16_t\000"
 4628      31365F74 
 4628      00
 4629              	.LASF220:
 4630 0a44 6F66665F 		.ascii	"off_name\000"
 4630      6E616D65 
 4630      00
 4631              	.LASF44:
 4632 0a4d 5F64736F 		.ascii	"_dso_handle\000"
 4632      5F68616E 
 4632      646C6500 
 4633              	.LASF136:
 4634 0a59 6D73675F 		.ascii	"msg_t\000"
 4634      7400
 4635              	.LASF163:
 4636 0a5f 63685F74 		.ascii	"ch_threads_queue\000"
 4636      68726561 
 4636      64735F71 
 4636      75657565 
 4636      00
 4637              	.LASF96:
 4638 0a70 5F72616E 		.ascii	"_rand48\000"
 4638      64343800 
 4639              	.LASF73:
 4640 0a78 5F737464 		.ascii	"_stdout\000"
 4640      6F757400 
 4641              	.LASF134:
 4642 0a80 74736C69 		.ascii	"tslices_t\000"
 4642      6365735F 
 4642      7400
 4643              	.LASF253:
 4644 0a8a 73617665 		.ascii	"saved_state\000"
 4644      645F7374 
 4644      61746500 
 4645              	.LASF171:
 4646 0a96 64656C74 		.ascii	"delta\000"
 4646      6100
 4647              	.LASF64:
ARM GAS  /var/folders/t8/16hdwfmd2fg_d3q6dgx6bpmw0000gn/T//ccFguns6.s 			page 91


 4648 0a9c 5F626C6B 		.ascii	"_blksize\000"
 4648      73697A65 
 4648      00
 4649              	.LASF51:
 4650 0aa5 5F626173 		.ascii	"_base\000"
 4650      6500
 4651              	.LASF142:
 4652 0aab 71756575 		.ascii	"queue\000"
 4652      6500
 4653              	.LASF101:
 4654 0ab1 5F737472 		.ascii	"_strtok_last\000"
 4654      746F6B5F 
 4654      6C617374 
 4654      00
 4655              	.LASF114:
 4656 0abe 5F6D6272 		.ascii	"_mbrtowc_state\000"
 4656      746F7763 
 4656      5F737461 
 4656      746500
 4657              	.LASF185:
 4658 0acd 6D61696E 		.ascii	"mainthread\000"
 4658      74687265 
 4658      616400
 4659              	.LASF24:
 4660 0ad8 5F666C6F 		.ascii	"_flock_t\000"
 4660      636B5F74 
 4660      00
 4661              	.LASF212:
 4662 0ae1 76657273 		.ascii	"version\000"
 4662      696F6E00 
 4663              	.LASF92:
 4664 0ae9 5F5F4649 		.ascii	"__FILE\000"
 4664      4C4500
 4665              	.LASF274:
 4666 0af0 5553425F 		.ascii	"USB_EVENT_UNCONFIGURED\000"
 4666      4556454E 
 4666      545F554E 
 4666      434F4E46 
 4666      49475552 
 4667              	.LASF23:
 4668 0b07 5F6D6273 		.ascii	"_mbstate_t\000"
 4668      74617465 
 4668      5F7400
 4669              	.LASF290:
 4670 0b12 74687265 		.ascii	"thread\000"
 4670      616400
 4671              	.LASF106:
 4672 0b19 5F723438 		.ascii	"_r48\000"
 4672      00
 4673              	.LASF147:
 4674 0b1e 77616261 		.ascii	"wabase\000"
 4674      736500
 4675              	.LASF18:
 4676 0b25 77696E74 		.ascii	"wint_t\000"
 4676      5F7400
 4677              	.LASF273:
 4678 0b2c 5553425F 		.ascii	"USB_EVENT_CONFIGURED\000"
ARM GAS  /var/folders/t8/16hdwfmd2fg_d3q6dgx6bpmw0000gn/T//ccFguns6.s 			page 92


 4678      4556454E 
 4678      545F434F 
 4678      4E464947 
 4678      55524544 
 4679              	.LASF268:
 4680 0b41 5553425F 		.ascii	"USB_EP0_SENDING_STS\000"
 4680      4550305F 
 4680      53454E44 
 4680      494E475F 
 4680      53545300 
 4681              	.LASF27:
 4682 0b55 5F6E6578 		.ascii	"_next\000"
 4682      7400
 4683              	.LASF66:
 4684 0b5b 5F646174 		.ascii	"_data\000"
 4684      6100
 4685              	.LASF309:
 4686 0b61 55534245 		.ascii	"USBEndpointConfig\000"
 4686      6E64706F 
 4686      696E7443 
 4686      6F6E6669 
 4686      6700
 4687              	.LASF183:
 4688 0b73 726C6973 		.ascii	"rlist\000"
 4688      7400
 4689              	.LASF131:
 4690 0b79 746D6F64 		.ascii	"tmode_t\000"
 4690      655F7400 
 4691              	.LASF286:
 4692 0b81 75736267 		.ascii	"usbgetdescriptor_t\000"
 4692      65746465 
 4692      73637269 
 4692      70746F72 
 4692      5F7400
 4693              	.LASF320:
 4694 0b94 6F666673 		.ascii	"offset\000"
 4694      657400
 4695              	.LASF243:
 4696 0b9b 696E5F70 		.ascii	"in_params\000"
 4696      6172616D 
 4696      7300
 4697              	.LASF260:
 4698 0ba5 5553425F 		.ascii	"USB_ACTIVE\000"
 4698      41435449 
 4698      564500
 4699              	.LASF146:
 4700 0bb0 6E616D65 		.ascii	"name\000"
 4700      00
 4701              	.LASF233:
 4702 0bb5 706F7274 		.ascii	"port\000"
 4702      00
 4703              	.LASF186:
 4704 0bba 50444F52 		.ascii	"PDOR\000"
 4704      00
 4705              	.LASF107:
 4706 0bbf 5F6D626C 		.ascii	"_mblen_state\000"
 4706      656E5F73 
ARM GAS  /var/folders/t8/16hdwfmd2fg_d3q6dgx6bpmw0000gn/T//ccFguns6.s 			page 93


 4706      74617465 
 4706      00
 4707              	.LASF5:
 4708 0bcc 73686F72 		.ascii	"short int\000"
 4708      7420696E 
 4708      7400
 4709              	.LASF130:
 4710 0bd6 75696E74 		.ascii	"uint64_t\000"
 4710      36345F74 
 4710      00
 4711              	.LASF172:
 4712 0bdf 66756E63 		.ascii	"func\000"
 4712      00
 4713              	.LASF206:
 4714 0be4 63685F6D 		.ascii	"ch_mutex\000"
 4714      75746578 
 4714      00
 4715              	.LASF187:
 4716 0bed 50534F52 		.ascii	"PSOR\000"
 4716      00
 4717              	.LASF153:
 4718 0bf2 6D736771 		.ascii	"msgqueue\000"
 4718      75657565 
 4718      00
 4719              	.LASF45:
 4720 0bfb 5F666E74 		.ascii	"_fntypes\000"
 4720      79706573 
 4720      00
 4721              	.LASF177:
 4722 0c04 63685F73 		.ascii	"ch_system_debug\000"
 4722      79737465 
 4722      6D5F6465 
 4722      62756700 
 4723              	.LASF38:
 4724 0c14 5F5F746D 		.ascii	"__tm_year\000"
 4724      5F796561 
 4724      7200
 4725              	.LASF285:
 4726 0c1e 75736272 		.ascii	"usbreqhandler_t\000"
 4726      65716861 
 4726      6E646C65 
 4726      725F7400 
 4727              	.LASF237:
 4728 0c2e 50414C43 		.ascii	"PALConfig\000"
 4728      6F6E6669 
 4728      6700
 4729              	.LASF282:
 4730 0c38 75736263 		.ascii	"usbcallback_t\000"
 4730      616C6C62 
 4730      61636B5F 
 4730      7400
 4731              	.LASF292:
 4732 0c46 64617461 		.ascii	"data_bank\000"
 4732      5F62616E 
 4732      6B00
 4733              	.LASF192:
 4734 0c50 4750494F 		.ascii	"GPIO_TypeDef\000"
ARM GAS  /var/folders/t8/16hdwfmd2fg_d3q6dgx6bpmw0000gn/T//ccFguns6.s 			page 94


 4734      5F547970 
 4734      65446566 
 4734      00
 4735              	.LASF56:
 4736 0c5d 5F6C6266 		.ascii	"_lbfsize\000"
 4736      73697A65 
 4736      00
 4737              	.LASF184:
 4738 0c66 76746C69 		.ascii	"vtlist\000"
 4738      737400
 4739              	.LASF75:
 4740 0c6d 5F696E63 		.ascii	"_inc\000"
 4740      00
 4741              	.LASF48:
 4742 0c72 5F696E64 		.ascii	"_ind\000"
 4742      00
 4743              	.LASF152:
 4744 0c77 77616974 		.ascii	"waiting\000"
 4744      696E6700 
 4745              	.LASF50:
 4746 0c7f 5F5F7362 		.ascii	"__sbuf\000"
 4746      756600
 4747              	.LASF315:
 4748 0c86 55534244 		.ascii	"USBD1\000"
 4748      3100
 4749              	.LASF46:
 4750 0c8c 5F69735F 		.ascii	"_is_cxa\000"
 4750      63786100 
 4751              	.LASF15:
 4752 0c94 5F4C4F43 		.ascii	"_LOCK_T\000"
 4752      4B5F5400 
 4753              	.LASF229:
 4754 0c9c 6D757465 		.ascii	"mutex_t\000"
 4754      785F7400 
 4755              	.LASF133:
 4756 0ca4 74726566 		.ascii	"trefs_t\000"
 4756      735F7400 
 4757              	.LASF119:
 4758 0cac 5F6E6578 		.ascii	"_nextf\000"
 4758      746600
 4759              	.LASF195:
 4760 0cb3 706F7274 		.ascii	"port_context\000"
 4760      5F636F6E 
 4760      74657874 
 4760      00
 4761              	.LASF159:
 4762 0cc0 74687265 		.ascii	"threads_list_t\000"
 4762      6164735F 
 4762      6C697374 
 4762      5F7400
 4763              	.LASF313:
 4764 0ccf 736F665F 		.ascii	"sof_cb\000"
 4764      636200
 4765              	.LASF250:
 4766 0cd6 73746174 		.ascii	"status\000"
 4766      757300
 4767              	.LASF182:
ARM GAS  /var/folders/t8/16hdwfmd2fg_d3q6dgx6bpmw0000gn/T//ccFguns6.s 			page 95


 4768 0cdd 63685F73 		.ascii	"ch_system\000"
 4768      79737465 
 4768      6D00
 4769              	.LASF78:
 4770 0ce7 5F6C6F63 		.ascii	"_locale\000"
 4770      616C6500 
 4771              	.LASF26:
 4772 0cef 5F5F554C 		.ascii	"__ULong\000"
 4772      6F6E6700 
 4773              	.LASF144:
 4774 0cf7 6E657765 		.ascii	"newer\000"
 4774      7200
 4775              	.LASF129:
 4776 0cfd 75696E74 		.ascii	"uint32_t\000"
 4776      33325F74 
 4776      00
 4777              	.LASF255:
 4778 0d06 75736265 		.ascii	"usbep_t\000"
 4778      705F7400 
 4779              	.LASF81:
 4780 0d0e 5F726573 		.ascii	"_result\000"
 4780      756C7400 
 4781              	.LASF297:
 4782 0d16 7278706B 		.ascii	"rxpkts\000"
 4782      747300
 4783              	.LASF16:
 4784 0d1d 5F6F6666 		.ascii	"_off_t\000"
 4784      5F7400
 4785              	.LASF197:
 4786 0d24 7264796D 		.ascii	"rdymsg\000"
 4786      736700
 4787              	.LASF99:
 4788 0d2b 5F616464 		.ascii	"_add\000"
 4788      00
 4789              	.LASF7:
 4790 0d30 73686F72 		.ascii	"short unsigned int\000"
 4790      7420756E 
 4790      7369676E 
 4790      65642069 
 4790      6E7400
 4791              	.LASF35:
 4792 0d43 5F5F746D 		.ascii	"__tm_hour\000"
 4792      5F686F75 
 4792      7200
 4793              	.LASF311:
 4794 0d4d 6765745F 		.ascii	"get_descriptor_cb\000"
 4794      64657363 
 4794      72697074 
 4794      6F725F63 
 4794      6200
 4795              	.LASF181:
 4796 0d5f 63685F73 		.ascii	"ch_system_t\000"
 4796      79737465 
 4796      6D5F7400 
 4797              	.LASF227:
 4798 0d6b 63686465 		.ascii	"chdebug_t\000"
 4798      6275675F 
ARM GAS  /var/folders/t8/16hdwfmd2fg_d3q6dgx6bpmw0000gn/T//ccFguns6.s 			page 96


 4798      7400
 4799              	.LASF275:
 4800 0d75 5553425F 		.ascii	"USB_EVENT_SUSPEND\000"
 4800      4556454E 
 4800      545F5355 
 4800      5350454E 
 4800      4400
 4801              	.LASF115:
 4802 0d87 5F6D6273 		.ascii	"_mbsrtowcs_state\000"
 4802      72746F77 
 4802      63735F73 
 4802      74617465 
 4802      00
 4803              	.LASF164:
 4804 0d98 70726576 		.ascii	"prev\000"
 4804      00
 4805              	.LASF214:
 4806 0d9d 74696D65 		.ascii	"timesize\000"
 4806      73697A65 
 4806      00
 4807              	.LASF8:
 4808 0da6 5F5F696E 		.ascii	"__int32_t\000"
 4808      7433325F 
 4808      7400
 4809              	.LASF223:
 4810 0db0 6F66665F 		.ascii	"off_flags\000"
 4810      666C6167 
 4810      7300
 4811              	.LASF43:
 4812 0dba 5F666E61 		.ascii	"_fnargs\000"
 4812      72677300 
 4813              	.LASF41:
 4814 0dc2 5F5F746D 		.ascii	"__tm_isdst\000"
 4814      5F697364 
 4814      737400
 4815              	.LASF266:
 4816 0dcd 5553425F 		.ascii	"USB_EP0_WAITING_STS\000"
 4816      4550305F 
 4816      57414954 
 4816      494E475F 
 4816      53545300 
 4817              	.LASF161:
 4818 0de1 6E657874 		.ascii	"next\000"
 4818      00
 4819              	.LASF254:
 4820 0de6 706D6E65 		.ascii	"pmnext\000"
 4820      787400
 4821              	.LASF34:
 4822 0ded 5F5F746D 		.ascii	"__tm_min\000"
 4822      5F6D696E 
 4822      00
 4823              	.LASF209:
 4824 0df6 6964656E 		.ascii	"identifier\000"
 4824      74696669 
 4824      657200
 4825              	.LASF112:
 4826 0e01 5F676574 		.ascii	"_getdate_err\000"
ARM GAS  /var/folders/t8/16hdwfmd2fg_d3q6dgx6bpmw0000gn/T//ccFguns6.s 			page 97


 4826      64617465 
 4826      5F657272 
 4826      00
 4827              	.LASF267:
 4828 0e0e 5553425F 		.ascii	"USB_EP0_RX\000"
 4828      4550305F 
 4828      525800
 4829              	.LASF202:
 4830 0e19 77747365 		.ascii	"wtsemp\000"
 4830      6D7000
 4831              		.ident	"GCC: (GNU Tools for Arm Embedded Processors 7-2017-q4-major) 7.2.1 20170904 (release) [ARM
ARM GAS  /var/folders/t8/16hdwfmd2fg_d3q6dgx6bpmw0000gn/T//ccFguns6.s 			page 98


DEFINED SYMBOLS
                            *ABS*:0000000000000000 memstreams.c
/var/folders/t8/16hdwfmd2fg_d3q6dgx6bpmw0000gn/T//ccFguns6.s:16     .text.put:0000000000000000 $t
/var/folders/t8/16hdwfmd2fg_d3q6dgx6bpmw0000gn/T//ccFguns6.s:23     .text.put:0000000000000000 put
/var/folders/t8/16hdwfmd2fg_d3q6dgx6bpmw0000gn/T//ccFguns6.s:62     .text.get:0000000000000000 $t
/var/folders/t8/16hdwfmd2fg_d3q6dgx6bpmw0000gn/T//ccFguns6.s:69     .text.get:0000000000000000 get
/var/folders/t8/16hdwfmd2fg_d3q6dgx6bpmw0000gn/T//ccFguns6.s:107    .text.reads:0000000000000000 $t
/var/folders/t8/16hdwfmd2fg_d3q6dgx6bpmw0000gn/T//ccFguns6.s:114    .text.reads:0000000000000000 reads
/var/folders/t8/16hdwfmd2fg_d3q6dgx6bpmw0000gn/T//ccFguns6.s:165    .text.writes:0000000000000000 $t
/var/folders/t8/16hdwfmd2fg_d3q6dgx6bpmw0000gn/T//ccFguns6.s:172    .text.writes:0000000000000000 writes
/var/folders/t8/16hdwfmd2fg_d3q6dgx6bpmw0000gn/T//ccFguns6.s:220    .text.msObjectInit:0000000000000000 $t
/var/folders/t8/16hdwfmd2fg_d3q6dgx6bpmw0000gn/T//ccFguns6.s:228    .text.msObjectInit:0000000000000000 msObjectInit
/var/folders/t8/16hdwfmd2fg_d3q6dgx6bpmw0000gn/T//ccFguns6.s:261    .text.msObjectInit:0000000000000014 $d
/var/folders/t8/16hdwfmd2fg_d3q6dgx6bpmw0000gn/T//ccFguns6.s:266    .rodata.vmt:0000000000000000 $d
/var/folders/t8/16hdwfmd2fg_d3q6dgx6bpmw0000gn/T//ccFguns6.s:270    .rodata.vmt:0000000000000000 vmt

UNDEFINED SYMBOLS
memcpy
