ARM GAS  /var/folders/t8/16hdwfmd2fg_d3q6dgx6bpmw0000gn/T//ccFguns6.s 			page 1


   1              		.cpu cortex-m0plus
   2              		.eabi_attribute 20, 1
   3              		.eabi_attribute 21, 1
   4              		.eabi_attribute 23, 3
   5              		.eabi_attribute 24, 1
   6              		.eabi_attribute 25, 1
   7              		.eabi_attribute 26, 1
   8              		.eabi_attribute 30, 2
   9              		.eabi_attribute 34, 0
  10              		.eabi_attribute 18, 4
  11              		.file	"memstreams.c"
  12              		.text
  13              	.Ltext0:
  14              		.cfi_sections	.debug_frame
  15              		.section	.text.put,"ax",%progbits
  16              		.align	1
  17              		.p2align 4,,15
  18              		.syntax unified
  19              		.code	16
  20              		.thumb_func
  21              		.fpu softvfp
  22              		.type	put, %function
  23              	put:
  24              	.LFB176:
  25              		.file 1 "../../tmk_core/tool/chibios/ChibiOS/os/hal/lib/streams/memstreams.c"
  26              		.loc 1 66 0
  27              		.cfi_startproc
  28              		@ args = 0, pretend = 0, frame = 0
  29              		@ frame_needed = 0, uses_anonymous_args = 0
  30              		@ link register save eliminated.
  31              	.LVL0:
  32              		.loc 1 69 0
  33 0000 C368     		ldr	r3, [r0, #12]
  34 0002 8268     		ldr	r2, [r0, #8]
  35 0004 9A42     		cmp	r2, r3
  36 0006 06D0     		beq	.L3
  37              		.loc 1 71 0
  38 0008 4268     		ldr	r2, [r0, #4]
  39 000a D154     		strb	r1, [r2, r3]
  40              		.loc 1 72 0
  41 000c C368     		ldr	r3, [r0, #12]
  42 000e 0133     		adds	r3, r3, #1
  43 0010 C360     		str	r3, [r0, #12]
  44              		.loc 1 73 0
  45 0012 0020     		movs	r0, #0
  46              	.LVL1:
  47              	.L1:
  48              		.loc 1 74 0
  49              		@ sp needed
  50 0014 7047     		bx	lr
  51              	.LVL2:
  52              	.L3:
  53              		.loc 1 70 0
  54 0016 0220     		movs	r0, #2
  55              	.LVL3:
  56 0018 4042     		rsbs	r0, r0, #0
  57 001a FBE7     		b	.L1
ARM GAS  /var/folders/t8/16hdwfmd2fg_d3q6dgx6bpmw0000gn/T//ccFguns6.s 			page 2


  58              		.cfi_endproc
  59              	.LFE176:
  60              		.size	put, .-put
  61              		.section	.text.get,"ax",%progbits
  62              		.align	1
  63              		.p2align 4,,15
  64              		.syntax unified
  65              		.code	16
  66              		.thumb_func
  67              		.fpu softvfp
  68              		.type	get, %function
  69              	get:
  70              	.LFB177:
  71              		.loc 1 76 0
  72              		.cfi_startproc
  73              		@ args = 0, pretend = 0, frame = 0
  74              		@ frame_needed = 0, uses_anonymous_args = 0
  75              		@ link register save eliminated.
  76              	.LVL4:
  77              		.loc 1 80 0
  78 0000 0369     		ldr	r3, [r0, #16]
  79 0002 C268     		ldr	r2, [r0, #12]
  80 0004 9A42     		cmp	r2, r3
  81 0006 05D0     		beq	.L7
  82              		.loc 1 82 0
  83 0008 4268     		ldr	r2, [r0, #4]
  84 000a D25C     		ldrb	r2, [r2, r3]
  85              	.LVL5:
  86              		.loc 1 83 0
  87 000c 0133     		adds	r3, r3, #1
  88 000e 0361     		str	r3, [r0, #16]
  89              		.loc 1 84 0
  90 0010 1000     		movs	r0, r2
  91              	.LVL6:
  92              	.L5:
  93              		.loc 1 85 0
  94              		@ sp needed
  95 0012 7047     		bx	lr
  96              	.LVL7:
  97              	.L7:
  98              		.loc 1 81 0
  99 0014 0220     		movs	r0, #2
 100              	.LVL8:
 101 0016 4042     		rsbs	r0, r0, #0
 102 0018 FBE7     		b	.L5
 103              		.cfi_endproc
 104              	.LFE177:
 105              		.size	get, .-get
 106 001a C046     		.section	.text.reads,"ax",%progbits
 107              		.align	1
 108              		.p2align 4,,15
 109              		.syntax unified
 110              		.code	16
 111              		.thumb_func
 112              		.fpu softvfp
 113              		.type	reads, %function
 114              	reads:
ARM GAS  /var/folders/t8/16hdwfmd2fg_d3q6dgx6bpmw0000gn/T//ccFguns6.s 			page 3


 115              	.LFB175:
 116              		.loc 1 56 0
 117              		.cfi_startproc
 118              		@ args = 0, pretend = 0, frame = 0
 119              		@ frame_needed = 0, uses_anonymous_args = 0
 120              	.LVL9:
 121 0000 70B5     		push	{r4, r5, r6, lr}
 122              		.cfi_def_cfa_offset 16
 123              		.cfi_offset 4, -16
 124              		.cfi_offset 5, -12
 125              		.cfi_offset 6, -8
 126              		.cfi_offset 14, -4
 127              		.loc 1 56 0
 128 0002 0500     		movs	r5, r0
 129              	.LVL10:
 130 0004 0800     		movs	r0, r1
 131              	.LVL11:
 132              		.loc 1 59 0
 133 0006 EB68     		ldr	r3, [r5, #12]
 134 0008 2969     		ldr	r1, [r5, #16]
 135              	.LVL12:
 136 000a 5C1A     		subs	r4, r3, r1
 137 000c 9442     		cmp	r4, r2
 138 000e 00D9     		bls	.L9
 139 0010 1400     		movs	r4, r2
 140              	.L9:
 141              	.LVL13:
 142              		.loc 1 61 0
 143 0012 6B68     		ldr	r3, [r5, #4]
 144 0014 2200     		movs	r2, r4
 145 0016 9C46     		mov	ip, r3
 146 0018 6144     		add	r1, r1, ip
 147 001a FFF7FEFF 		bl	memcpy
 148              	.LVL14:
 149              		.loc 1 62 0
 150 001e 2B69     		ldr	r3, [r5, #16]
 151              		.loc 1 64 0
 152 0020 2000     		movs	r0, r4
 153              		.loc 1 62 0
 154 0022 1B19     		adds	r3, r3, r4
 155 0024 2B61     		str	r3, [r5, #16]
 156              		.loc 1 64 0
 157              		@ sp needed
 158              	.LVL15:
 159              	.LVL16:
 160 0026 70BD     		pop	{r4, r5, r6, pc}
 161              		.cfi_endproc
 162              	.LFE175:
 163              		.size	reads, .-reads
 164              		.section	.text.writes,"ax",%progbits
 165              		.align	1
 166              		.p2align 4,,15
 167              		.syntax unified
 168              		.code	16
 169              		.thumb_func
 170              		.fpu softvfp
 171              		.type	writes, %function
ARM GAS  /var/folders/t8/16hdwfmd2fg_d3q6dgx6bpmw0000gn/T//ccFguns6.s 			page 4


 172              	writes:
 173              	.LFB174:
 174              		.loc 1 46 0
 175              		.cfi_startproc
 176              		@ args = 0, pretend = 0, frame = 0
 177              		@ frame_needed = 0, uses_anonymous_args = 0
 178              	.LVL17:
 179 0000 70B5     		push	{r4, r5, r6, lr}
 180              		.cfi_def_cfa_offset 16
 181              		.cfi_offset 4, -16
 182              		.cfi_offset 5, -12
 183              		.cfi_offset 6, -8
 184              		.cfi_offset 14, -4
 185              		.loc 1 46 0
 186 0002 0500     		movs	r5, r0
 187              		.loc 1 49 0
 188 0004 C068     		ldr	r0, [r0, #12]
 189              	.LVL18:
 190 0006 AB68     		ldr	r3, [r5, #8]
 191 0008 1C1A     		subs	r4, r3, r0
 192 000a 9442     		cmp	r4, r2
 193 000c 00D9     		bls	.L11
 194 000e 1400     		movs	r4, r2
 195              	.L11:
 196              	.LVL19:
 197              		.loc 1 51 0
 198 0010 6B68     		ldr	r3, [r5, #4]
 199 0012 2200     		movs	r2, r4
 200 0014 9C46     		mov	ip, r3
 201 0016 6044     		add	r0, r0, ip
 202 0018 FFF7FEFF 		bl	memcpy
 203              	.LVL20:
 204              		.loc 1 52 0
 205 001c EB68     		ldr	r3, [r5, #12]
 206              		.loc 1 54 0
 207 001e 2000     		movs	r0, r4
 208              		.loc 1 52 0
 209 0020 1B19     		adds	r3, r3, r4
 210 0022 EB60     		str	r3, [r5, #12]
 211              		.loc 1 54 0
 212              		@ sp needed
 213              	.LVL21:
 214              	.LVL22:
 215 0024 70BD     		pop	{r4, r5, r6, pc}
 216              		.cfi_endproc
 217              	.LFE174:
 218              		.size	writes, .-writes
 219 0026 C046     		.section	.text.msObjectInit,"ax",%progbits
 220              		.align	1
 221              		.p2align 4,,15
 222              		.global	msObjectInit
 223              		.syntax unified
 224              		.code	16
 225              		.thumb_func
 226              		.fpu softvfp
 227              		.type	msObjectInit, %function
 228              	msObjectInit:
ARM GAS  /var/folders/t8/16hdwfmd2fg_d3q6dgx6bpmw0000gn/T//ccFguns6.s 			page 5


 229              	.LFB178:
 230              		.loc 1 104 0
 231              		.cfi_startproc
 232              		@ args = 0, pretend = 0, frame = 0
 233              		@ frame_needed = 0, uses_anonymous_args = 0
 234              	.LVL23:
 235              		.loc 1 109 0
 236 0000 C360     		str	r3, [r0, #12]
 237              		.loc 1 110 0
 238 0002 0023     		movs	r3, #0
 239              	.LVL24:
 240              		.loc 1 104 0
 241 0004 10B5     		push	{r4, lr}
 242              		.cfi_def_cfa_offset 8
 243              		.cfi_offset 4, -8
 244              		.cfi_offset 14, -4
 245              		.loc 1 106 0
 246 0006 034C     		ldr	r4, .L13
 247              		.loc 1 107 0
 248 0008 4160     		str	r1, [r0, #4]
 249              		.loc 1 106 0
 250 000a 0460     		str	r4, [r0]
 251              		.loc 1 108 0
 252 000c 8260     		str	r2, [r0, #8]
 253              		.loc 1 110 0
 254 000e 0361     		str	r3, [r0, #16]
 255              		.loc 1 111 0
 256              		@ sp needed
 257 0010 10BD     		pop	{r4, pc}
 258              	.L14:
 259 0012 C046     		.align	2
 260              	.L13:
 261 0014 00000000 		.word	.LANCHOR0
 262              		.cfi_endproc
 263              	.LFE178:
 264              		.size	msObjectInit, .-msObjectInit
 265              		.section	.rodata.vmt,"a",%progbits
 266              		.align	2
 267              		.set	.LANCHOR0,. + 0
 268              		.type	vmt, %object
 269              		.size	vmt, 16
 270              	vmt:
 271 0000 00000000 		.word	writes
 272 0004 00000000 		.word	reads
 273 0008 00000000 		.word	put
 274 000c 00000000 		.word	get
 275              		.text
 276              	.Letext0:
 277              		.file 2 "/usr/local/Caskroom/gcc-arm-embedded/7-2017-q4-major/gcc-arm-none-eabi-7-2017-q4-major/li
 278              		.file 3 "/usr/local/Caskroom/gcc-arm-embedded/7-2017-q4-major/gcc-arm-none-eabi-7-2017-q4-major/ar
 279              		.file 4 "/usr/local/Caskroom/gcc-arm-embedded/7-2017-q4-major/gcc-arm-none-eabi-7-2017-q4-major/ar
 280              		.file 5 "/usr/local/Caskroom/gcc-arm-embedded/7-2017-q4-major/gcc-arm-none-eabi-7-2017-q4-major/ar
 281              		.file 6 "/usr/local/Caskroom/gcc-arm-embedded/7-2017-q4-major/gcc-arm-none-eabi-7-2017-q4-major/ar
 282              		.file 7 "/usr/local/Caskroom/gcc-arm-embedded/7-2017-q4-major/gcc-arm-none-eabi-7-2017-q4-major/ar
 283              		.file 8 "../../tmk_core/tool/chibios/ChibiOS/os/common/ports/ARMCMx/compilers/GCC/chtypes.h"
 284              		.file 9 "../../tmk_core/tool/chibios/ChibiOS/os/rt/include/chsystypes.h"
 285              		.file 10 "../../tmk_core/tool/chibios/ChibiOS/os/rt/include/chschd.h"
ARM GAS  /var/folders/t8/16hdwfmd2fg_d3q6dgx6bpmw0000gn/T//ccFguns6.s 			page 6


 286              		.file 11 "../../tmk_core/tool/chibios/ChibiOS-Contrib/os/common/ext/CMSIS/KINETIS/kl2xz.h"
 287              		.file 12 "../../tmk_core/tool/chibios/ChibiOS/os/common/ports/ARMCMx/chcore.h"
 288              		.file 13 "../../tmk_core/tool/chibios/ChibiOS/os/common/ports/ARMCMx/chcore_v6m.h"
 289              		.file 14 "../../tmk_core/tool/chibios/ChibiOS/os/rt/include/chsem.h"
 290              		.file 15 "../../tmk_core/tool/chibios/ChibiOS/os/rt/include/chmtx.h"
 291              		.file 16 "../../tmk_core/tool/chibios/ChibiOS/os/rt/include/chsys.h"
 292              		.file 17 "../../tmk_core/tool/chibios/ChibiOS/os/rt/include/chregistry.h"
 293              		.file 18 "../../tmk_core/tool/chibios/ChibiOS-Contrib/os/hal/ports/KINETIS/LLD/hal_pal_lld.h"
 294              		.file 19 "../../tmk_core/tool/chibios/ChibiOS/os/hal/include/hal_usb.h"
 295              		.file 20 "../../tmk_core/tool/chibios/ChibiOS-Contrib/os/hal/ports/KINETIS/LLD/hal_usb_lld.h"
 296              		.file 21 "../../tmk_core/tool/chibios/ChibiOS/os/hal/lib/streams/memstreams.h"
 297              		.file 22 "<built-in>"