ARM GAS  /var/folders/t8/16hdwfmd2fg_d3q6dgx6bpmw0000gn/T//ccZMAKnW.s 			page 1


   1              		.cpu cortex-m0plus
   2              		.eabi_attribute 20, 1
   3              		.eabi_attribute 21, 1
   4              		.eabi_attribute 23, 3
   5              		.eabi_attribute 24, 1
   6              		.eabi_attribute 25, 1
   7              		.eabi_attribute 26, 1
   8              		.eabi_attribute 30, 2
   9              		.eabi_attribute 34, 0
  10              		.eabi_attribute 18, 4
  11              		.file	"mousekey.c"
  12              		.text
  13              	.Ltext0:
  14              		.cfi_sections	.debug_frame
  15              		.global	__aeabi_uidiv
  16              		.global	__aeabi_idiv
  17              		.section	.text.move_unit,"ax",%progbits
  18              		.align	1
  19              		.p2align 4,,15
  20              		.syntax unified
  21              		.code	16
  22              		.thumb_func
  23              		.fpu softvfp
  24              		.type	move_unit, %function
  25              	move_unit:
  26              	.LFB174:
  27              		.file 1 "../../tmk_core/common/mousekey.c"
  28              		.loc 1 60 0
  29              		.cfi_startproc
  30              		@ args = 0, pretend = 0, frame = 0
  31              		@ frame_needed = 0, uses_anonymous_args = 0
  32 0000 10B5     		push	{r4, lr}
  33              		.cfi_def_cfa_offset 8
  34              		.cfi_offset 4, -8
  35              		.cfi_offset 14, -4
  36              		.loc 1 62 0
  37 0002 1B4B     		ldr	r3, .L18
  38 0004 1B78     		ldrb	r3, [r3]
  39 0006 DA07     		lsls	r2, r3, #31
  40 0008 0AD5     		bpl	.L2
  41              		.loc 1 63 0
  42 000a 1A4B     		ldr	r3, .L18+4
  43 000c 1878     		ldrb	r0, [r3]
  44 000e 8300     		lsls	r3, r0, #2
  45 0010 1B18     		adds	r3, r3, r0
  46 0012 9B08     		lsrs	r3, r3, #2
  47              	.LVL0:
  48              	.L3:
  49              		.loc 1 75 0
  50 0014 7F2B     		cmp	r3, #127
  51 0016 0CD8     		bhi	.L10
  52              	.L16:
  53              		.loc 1 75 0 is_stmt 0 discriminator 1
  54 0018 0120     		movs	r0, #1
  55 001a 002B     		cmp	r3, #0
  56 001c 0BD1     		bne	.L15
  57              	.LVL1:
ARM GAS  /var/folders/t8/16hdwfmd2fg_d3q6dgx6bpmw0000gn/T//ccZMAKnW.s 			page 2


  58              	.L8:
  59              		.loc 1 76 0 is_stmt 1 discriminator 8
  60              		@ sp needed
  61 001e 10BD     		pop	{r4, pc}
  62              	.L2:
  63              		.loc 1 64 0
  64 0020 9A07     		lsls	r2, r3, #30
  65 0022 0AD5     		bpl	.L4
  66              		.loc 1 65 0
  67 0024 134B     		ldr	r3, .L18+4
  68 0026 1878     		ldrb	r0, [r3]
  69 0028 8300     		lsls	r3, r0, #2
  70 002a 1B18     		adds	r3, r3, r0
  71 002c 5B08     		lsrs	r3, r3, #1
  72              	.LVL2:
  73              		.loc 1 75 0
  74 002e 7F2B     		cmp	r3, #127
  75 0030 F2D9     		bls	.L16
  76              	.L10:
  77 0032 7F20     		movs	r0, #127
  78 0034 F3E7     		b	.L8
  79              	.L15:
  80 0036 D8B2     		uxtb	r0, r3
  81 0038 F1E7     		b	.L8
  82              	.LVL3:
  83              	.L4:
  84              		.loc 1 66 0
  85 003a 5B07     		lsls	r3, r3, #29
  86 003c 0DD4     		bmi	.L17
  87              		.loc 1 68 0
  88 003e 0E4B     		ldr	r3, .L18+8
  89 0040 0520     		movs	r0, #5
  90 0042 1A78     		ldrb	r2, [r3]
  91 0044 002A     		cmp	r2, #0
  92 0046 EAD0     		beq	.L8
  93              		.loc 1 70 0
  94 0048 0C4B     		ldr	r3, .L18+12
  95 004a 1978     		ldrb	r1, [r3]
  96 004c 094B     		ldr	r3, .L18+4
  97 004e 1B78     		ldrb	r3, [r3]
  98              		.loc 1 71 0
  99 0050 9800     		lsls	r0, r3, #2
 100              		.loc 1 70 0
 101 0052 8A42     		cmp	r2, r1
 102 0054 06D3     		bcc	.L7
 103              		.loc 1 71 0
 104 0056 1B18     		adds	r3, r3, r0
 105              	.LVL4:
 106 0058 DCE7     		b	.L3
 107              	.LVL5:
 108              	.L17:
 109              		.loc 1 67 0
 110 005a 064B     		ldr	r3, .L18+4
 111 005c 1B78     		ldrb	r3, [r3]
 112 005e 9800     		lsls	r0, r3, #2
 113 0060 1B18     		adds	r3, r3, r0
 114              	.LVL6:
ARM GAS  /var/folders/t8/16hdwfmd2fg_d3q6dgx6bpmw0000gn/T//ccZMAKnW.s 			page 3


 115 0062 D7E7     		b	.L3
 116              	.LVL7:
 117              	.L7:
 118              		.loc 1 73 0
 119 0064 C018     		adds	r0, r0, r3
 120 0066 5043     		muls	r0, r2
 121 0068 FFF7FEFF 		bl	__aeabi_idiv
 122              	.LVL8:
 123 006c 83B2     		uxth	r3, r0
 124              	.LVL9:
 125 006e D1E7     		b	.L3
 126              	.L19:
 127              		.align	2
 128              	.L18:
 129 0070 00000000 		.word	.LANCHOR0
 130 0074 00000000 		.word	.LANCHOR1
 131 0078 00000000 		.word	.LANCHOR2
 132 007c 00000000 		.word	.LANCHOR3
 133              		.cfi_endproc
 134              	.LFE174:
 135              		.size	move_unit, .-move_unit
 136              		.section	.text.wheel_unit,"ax",%progbits
 137              		.align	1
 138              		.p2align 4,,15
 139              		.syntax unified
 140              		.code	16
 141              		.thumb_func
 142              		.fpu softvfp
 143              		.type	wheel_unit, %function
 144              	wheel_unit:
 145              	.LFB175:
 146              		.loc 1 79 0
 147              		.cfi_startproc
 148              		@ args = 0, pretend = 0, frame = 0
 149              		@ frame_needed = 0, uses_anonymous_args = 0
 150 0000 10B5     		push	{r4, lr}
 151              		.cfi_def_cfa_offset 8
 152              		.cfi_offset 4, -8
 153              		.cfi_offset 14, -4
 154              		.loc 1 81 0
 155 0002 174B     		ldr	r3, .L36
 156 0004 1B78     		ldrb	r3, [r3]
 157 0006 DA07     		lsls	r2, r3, #31
 158 0008 06D5     		bpl	.L21
 159              		.loc 1 82 0
 160 000a 164B     		ldr	r3, .L36+4
 161 000c 1B78     		ldrb	r3, [r3]
 162 000e 9B08     		lsrs	r3, r3, #2
 163              	.LVL10:
 164              	.L22:
 165              		.loc 1 94 0 discriminator 1
 166 0010 0120     		movs	r0, #1
 167 0012 002B     		cmp	r3, #0
 168 0014 07D1     		bne	.L35
 169              	.L28:
 170              		.loc 1 95 0 discriminator 8
 171              		@ sp needed
ARM GAS  /var/folders/t8/16hdwfmd2fg_d3q6dgx6bpmw0000gn/T//ccZMAKnW.s 			page 4


 172 0016 10BD     		pop	{r4, pc}
 173              	.L21:
 174              		.loc 1 83 0
 175 0018 9A07     		lsls	r2, r3, #30
 176 001a 06D5     		bpl	.L23
 177              		.loc 1 84 0
 178 001c 114B     		ldr	r3, .L36+4
 179              		.loc 1 94 0
 180 001e 0120     		movs	r0, #1
 181              		.loc 1 84 0
 182 0020 1B78     		ldrb	r3, [r3]
 183 0022 5B08     		lsrs	r3, r3, #1
 184              	.LVL11:
 185              		.loc 1 94 0
 186 0024 F7D0     		beq	.L28
 187              	.L35:
 188 0026 D8B2     		uxtb	r0, r3
 189 0028 F5E7     		b	.L28
 190              	.L23:
 191              		.loc 1 85 0
 192 002a 5B07     		lsls	r3, r3, #29
 193 002c 05D5     		bpl	.L24
 194              		.loc 1 86 0
 195 002e 0D4B     		ldr	r3, .L36+4
 196 0030 1B78     		ldrb	r3, [r3]
 197              	.LVL12:
 198              	.L25:
 199              		.loc 1 94 0
 200 0032 7F20     		movs	r0, #127
 201 0034 7F2B     		cmp	r3, #127
 202 0036 EED8     		bhi	.L28
 203 0038 EAE7     		b	.L22
 204              	.LVL13:
 205              	.L24:
 206              		.loc 1 87 0
 207 003a 0B4B     		ldr	r3, .L36+8
 208 003c 0120     		movs	r0, #1
 209 003e 1B78     		ldrb	r3, [r3]
 210 0040 002B     		cmp	r3, #0
 211 0042 E8D0     		beq	.L28
 212              		.loc 1 89 0
 213 0044 094A     		ldr	r2, .L36+12
 214 0046 1178     		ldrb	r1, [r2]
 215 0048 064A     		ldr	r2, .L36+4
 216 004a 1078     		ldrb	r0, [r2]
 217 004c 8B42     		cmp	r3, r1
 218 004e 01D3     		bcc	.L27
 219              		.loc 1 92 0
 220 0050 83B2     		uxth	r3, r0
 221              	.LVL14:
 222 0052 EEE7     		b	.L25
 223              	.LVL15:
 224              	.L27:
 225 0054 5843     		muls	r0, r3
 226 0056 FFF7FEFF 		bl	__aeabi_idiv
 227              	.LVL16:
 228 005a 83B2     		uxth	r3, r0
ARM GAS  /var/folders/t8/16hdwfmd2fg_d3q6dgx6bpmw0000gn/T//ccZMAKnW.s 			page 5


 229              	.LVL17:
 230 005c E9E7     		b	.L25
 231              	.L37:
 232 005e C046     		.align	2
 233              	.L36:
 234 0060 00000000 		.word	.LANCHOR0
 235 0064 00000000 		.word	.LANCHOR4
 236 0068 00000000 		.word	.LANCHOR2
 237 006c 00000000 		.word	.LANCHOR5
 238              		.cfi_endproc
 239              	.LFE175:
 240              		.size	wheel_unit, .-wheel_unit
 241              		.section	.text.mousekey_on,"ax",%progbits
 242              		.align	1
 243              		.p2align 4,,15
 244              		.global	mousekey_on
 245              		.syntax unified
 246              		.code	16
 247              		.thumb_func
 248              		.fpu softvfp
 249              		.type	mousekey_on, %function
 250              	mousekey_on:
 251              	.LFB177:
 252              		.loc 1 129 0
 253              		.cfi_startproc
 254              		@ args = 0, pretend = 0, frame = 0
 255              		@ frame_needed = 0, uses_anonymous_args = 0
 256              	.LVL18:
 257 0000 10B5     		push	{r4, lr}
 258              		.cfi_def_cfa_offset 8
 259              		.cfi_offset 4, -8
 260              		.cfi_offset 14, -4
 261              		.loc 1 130 0
 262 0002 F028     		cmp	r0, #240
 263 0004 28D0     		beq	.L55
 264              		.loc 1 131 0
 265 0006 F128     		cmp	r0, #241
 266 0008 21D0     		beq	.L56
 267              		.loc 1 132 0
 268 000a F228     		cmp	r0, #242
 269 000c 2FD0     		beq	.L57
 270              		.loc 1 133 0
 271 000e F328     		cmp	r0, #243
 272 0010 33D0     		beq	.L58
 273              		.loc 1 134 0
 274 0012 F928     		cmp	r0, #249
 275 0014 26D0     		beq	.L59
 276              		.loc 1 135 0
 277 0016 FA28     		cmp	r0, #250
 278 0018 3AD0     		beq	.L60
 279              		.loc 1 136 0
 280 001a FB28     		cmp	r0, #251
 281 001c 3ED0     		beq	.L61
 282              		.loc 1 137 0
 283 001e FC28     		cmp	r0, #252
 284 0020 42D0     		beq	.L62
 285              		.loc 1 138 0
ARM GAS  /var/folders/t8/16hdwfmd2fg_d3q6dgx6bpmw0000gn/T//ccZMAKnW.s 			page 6


 286 0022 F428     		cmp	r0, #244
 287 0024 2ED0     		beq	.L63
 288              		.loc 1 139 0
 289 0026 F528     		cmp	r0, #245
 290 0028 43D0     		beq	.L64
 291              		.loc 1 140 0
 292 002a F628     		cmp	r0, #246
 293 002c 47D0     		beq	.L65
 294              		.loc 1 141 0
 295 002e F728     		cmp	r0, #247
 296 0030 4BD0     		beq	.L66
 297              		.loc 1 142 0
 298 0032 F828     		cmp	r0, #248
 299 0034 4FD0     		beq	.L67
 300              		.loc 1 143 0
 301 0036 FD28     		cmp	r0, #253
 302 0038 53D0     		beq	.L68
 303              		.loc 1 144 0
 304 003a FE28     		cmp	r0, #254
 305 003c 57D0     		beq	.L69
 306              		.loc 1 145 0
 307 003e FF28     		cmp	r0, #255
 308 0040 09D1     		bne	.L38
 309              		.loc 1 145 0 is_stmt 0 discriminator 1
 310 0042 0421     		movs	r1, #4
 311 0044 2D4A     		ldr	r2, .L70
 312 0046 1378     		ldrb	r3, [r2]
 313 0048 0B43     		orrs	r3, r1
 314 004a 1370     		strb	r3, [r2]
 315              		.loc 1 146 0 is_stmt 1 discriminator 1
 316 004c 03E0     		b	.L38
 317              	.L56:
 318              		.loc 1 131 0 discriminator 1
 319 004e FFF7FEFF 		bl	move_unit
 320              	.LVL19:
 321 0052 2B4B     		ldr	r3, .L70+4
 322 0054 9870     		strb	r0, [r3, #2]
 323              	.L38:
 324              		.loc 1 146 0
 325              		@ sp needed
 326 0056 10BD     		pop	{r4, pc}
 327              	.LVL20:
 328              	.L55:
 329              		.loc 1 130 0 discriminator 1
 330 0058 FFF7FEFF 		bl	move_unit
 331              	.LVL21:
 332 005c 284B     		ldr	r3, .L70+4
 333 005e 4042     		rsbs	r0, r0, #0
 334 0060 9870     		strb	r0, [r3, #2]
 335 0062 F8E7     		b	.L38
 336              	.LVL22:
 337              	.L59:
 338              		.loc 1 134 0 discriminator 1
 339 0064 FFF7FEFF 		bl	wheel_unit
 340              	.LVL23:
 341 0068 254B     		ldr	r3, .L70+4
 342 006a D870     		strb	r0, [r3, #3]
ARM GAS  /var/folders/t8/16hdwfmd2fg_d3q6dgx6bpmw0000gn/T//ccZMAKnW.s 			page 7


 343 006c F3E7     		b	.L38
 344              	.LVL24:
 345              	.L57:
 346              		.loc 1 132 0 discriminator 1
 347 006e FFF7FEFF 		bl	move_unit
 348              	.LVL25:
 349 0072 234B     		ldr	r3, .L70+4
 350 0074 4042     		rsbs	r0, r0, #0
 351 0076 5870     		strb	r0, [r3, #1]
 352 0078 EDE7     		b	.L38
 353              	.LVL26:
 354              	.L58:
 355              		.loc 1 133 0 discriminator 1
 356 007a FFF7FEFF 		bl	move_unit
 357              	.LVL27:
 358 007e 204B     		ldr	r3, .L70+4
 359 0080 5870     		strb	r0, [r3, #1]
 360 0082 E8E7     		b	.L38
 361              	.LVL28:
 362              	.L63:
 363              		.loc 1 138 0 discriminator 1
 364 0084 0121     		movs	r1, #1
 365 0086 1E4A     		ldr	r2, .L70+4
 366 0088 1378     		ldrb	r3, [r2]
 367 008a 0B43     		orrs	r3, r1
 368 008c 1370     		strb	r3, [r2]
 369 008e E2E7     		b	.L38
 370              	.L60:
 371              		.loc 1 135 0 discriminator 1
 372 0090 FFF7FEFF 		bl	wheel_unit
 373              	.LVL29:
 374 0094 1A4B     		ldr	r3, .L70+4
 375 0096 4042     		rsbs	r0, r0, #0
 376 0098 D870     		strb	r0, [r3, #3]
 377 009a DCE7     		b	.L38
 378              	.LVL30:
 379              	.L61:
 380              		.loc 1 136 0 discriminator 1
 381 009c FFF7FEFF 		bl	wheel_unit
 382              	.LVL31:
 383 00a0 174B     		ldr	r3, .L70+4
 384 00a2 4042     		rsbs	r0, r0, #0
 385 00a4 1871     		strb	r0, [r3, #4]
 386 00a6 D6E7     		b	.L38
 387              	.LVL32:
 388              	.L62:
 389              		.loc 1 137 0 discriminator 1
 390 00a8 FFF7FEFF 		bl	wheel_unit
 391              	.LVL33:
 392 00ac 144B     		ldr	r3, .L70+4
 393 00ae 1871     		strb	r0, [r3, #4]
 394 00b0 D1E7     		b	.L38
 395              	.LVL34:
 396              	.L64:
 397              		.loc 1 139 0 discriminator 1
 398 00b2 0221     		movs	r1, #2
 399 00b4 124A     		ldr	r2, .L70+4
ARM GAS  /var/folders/t8/16hdwfmd2fg_d3q6dgx6bpmw0000gn/T//ccZMAKnW.s 			page 8


 400 00b6 1378     		ldrb	r3, [r2]
 401 00b8 0B43     		orrs	r3, r1
 402 00ba 1370     		strb	r3, [r2]
 403 00bc CBE7     		b	.L38
 404              	.L65:
 405              		.loc 1 140 0 discriminator 1
 406 00be 0421     		movs	r1, #4
 407 00c0 0F4A     		ldr	r2, .L70+4
 408 00c2 1378     		ldrb	r3, [r2]
 409 00c4 0B43     		orrs	r3, r1
 410 00c6 1370     		strb	r3, [r2]
 411 00c8 C5E7     		b	.L38
 412              	.L66:
 413              		.loc 1 141 0 discriminator 1
 414 00ca 0821     		movs	r1, #8
 415 00cc 0C4A     		ldr	r2, .L70+4
 416 00ce 1378     		ldrb	r3, [r2]
 417 00d0 0B43     		orrs	r3, r1
 418 00d2 1370     		strb	r3, [r2]
 419 00d4 BFE7     		b	.L38
 420              	.L67:
 421              		.loc 1 142 0 discriminator 1
 422 00d6 1021     		movs	r1, #16
 423 00d8 094A     		ldr	r2, .L70+4
 424 00da 1378     		ldrb	r3, [r2]
 425 00dc 0B43     		orrs	r3, r1
 426 00de 1370     		strb	r3, [r2]
 427 00e0 B9E7     		b	.L38
 428              	.L68:
 429              		.loc 1 143 0 discriminator 1
 430 00e2 0121     		movs	r1, #1
 431 00e4 054A     		ldr	r2, .L70
 432 00e6 1378     		ldrb	r3, [r2]
 433 00e8 0B43     		orrs	r3, r1
 434 00ea 1370     		strb	r3, [r2]
 435 00ec B3E7     		b	.L38
 436              	.L69:
 437              		.loc 1 144 0 discriminator 1
 438 00ee 0221     		movs	r1, #2
 439 00f0 024A     		ldr	r2, .L70
 440 00f2 1378     		ldrb	r3, [r2]
 441 00f4 0B43     		orrs	r3, r1
 442 00f6 1370     		strb	r3, [r2]
 443 00f8 ADE7     		b	.L38
 444              	.L71:
 445 00fa C046     		.align	2
 446              	.L70:
 447 00fc 00000000 		.word	.LANCHOR0
 448 0100 00000000 		.word	.LANCHOR6
 449              		.cfi_endproc
 450              	.LFE177:
 451              		.size	mousekey_on, .-mousekey_on
 452              		.section	.text.mousekey_off,"ax",%progbits
 453              		.align	1
 454              		.p2align 4,,15
 455              		.global	mousekey_off
 456              		.syntax unified
ARM GAS  /var/folders/t8/16hdwfmd2fg_d3q6dgx6bpmw0000gn/T//ccZMAKnW.s 			page 9


 457              		.code	16
 458              		.thumb_func
 459              		.fpu softvfp
 460              		.type	mousekey_off, %function
 461              	mousekey_off:
 462              	.LFB178:
 463              		.loc 1 149 0
 464              		.cfi_startproc
 465              		@ args = 0, pretend = 0, frame = 0
 466              		@ frame_needed = 0, uses_anonymous_args = 0
 467              	.LVL35:
 468 0000 0122     		movs	r2, #1
 469 0002 10B5     		push	{r4, lr}
 470              		.cfi_def_cfa_offset 8
 471              		.cfi_offset 4, -8
 472              		.cfi_offset 14, -4
 473 0004 434B     		ldr	r3, .L121
 474 0006 9A56     		ldrsb	r2, [r3, r2]
 475              		.loc 1 150 0
 476 0008 F028     		cmp	r0, #240
 477 000a 3FD0     		beq	.L109
 478              		.loc 1 151 0
 479 000c F128     		cmp	r0, #241
 480 000e 21D0     		beq	.L110
 481              		.loc 1 152 0
 482 0010 F228     		cmp	r0, #242
 483 0012 41D0     		beq	.L111
 484              		.loc 1 153 0
 485 0014 F328     		cmp	r0, #243
 486 0016 30D0     		beq	.L112
 487              		.loc 1 154 0
 488 0018 F928     		cmp	r0, #249
 489 001a 41D0     		beq	.L113
 490              		.loc 1 155 0
 491 001c FA28     		cmp	r0, #250
 492 001e 4DD0     		beq	.L114
 493              		.loc 1 156 0
 494 0020 FB28     		cmp	r0, #251
 495 0022 4FD0     		beq	.L115
 496              		.loc 1 157 0
 497 0024 FC28     		cmp	r0, #252
 498 0026 53D0     		beq	.L116
 499              		.loc 1 158 0
 500 0028 F428     		cmp	r0, #244
 501 002a 42D0     		beq	.L106
 502              		.loc 1 159 0
 503 002c F528     		cmp	r0, #245
 504 002e 40D0     		beq	.L106
 505              		.loc 1 160 0
 506 0030 F628     		cmp	r0, #246
 507 0032 52D0     		beq	.L117
 508              		.loc 1 161 0
 509 0034 F728     		cmp	r0, #247
 510 0036 55D0     		beq	.L118
 511              		.loc 1 162 0
 512 0038 F828     		cmp	r0, #248
 513 003a 58D0     		beq	.L119
ARM GAS  /var/folders/t8/16hdwfmd2fg_d3q6dgx6bpmw0000gn/T//ccZMAKnW.s 			page 10


 514              		.loc 1 163 0
 515 003c FD28     		cmp	r0, #253
 516 003e 5BD0     		beq	.L120
 517              		.loc 1 164 0
 518 0040 FE28     		cmp	r0, #254
 519 0042 5FD1     		bne	.L95
 520              		.loc 1 164 0 is_stmt 0 discriminator 1
 521 0044 0224     		movs	r4, #2
 522 0046 3448     		ldr	r0, .L121+4
 523              	.LVL36:
 524 0048 0178     		ldrb	r1, [r0]
 525 004a A143     		bics	r1, r4
 526 004c 0170     		strb	r1, [r0]
 527              	.L74:
 528              		.loc 1 167 0 is_stmt 1
 529 004e 002A     		cmp	r2, #0
 530 0050 17D0     		beq	.L80
 531              	.L72:
 532              		.loc 1 169 0
 533              		@ sp needed
 534 0052 10BD     		pop	{r4, pc}
 535              	.LVL37:
 536              	.L110:
 537              		.loc 1 151 0 discriminator 1
 538 0054 0221     		movs	r1, #2
 539 0056 5956     		ldrsb	r1, [r3, r1]
 540 0058 0029     		cmp	r1, #0
 541 005a F8DD     		ble	.L74
 542              	.L78:
 543              		.loc 1 150 0 discriminator 2
 544 005c 0021     		movs	r1, #0
 545 005e 9970     		strb	r1, [r3, #2]
 546              		.loc 1 167 0 discriminator 2
 547 0060 002A     		cmp	r2, #0
 548 0062 F6D1     		bne	.L72
 549              	.LVL38:
 550              	.L75:
 551              		.loc 1 167 0 is_stmt 0
 552 0064 0322     		movs	r2, #3
 553 0066 9A56     		ldrsb	r2, [r3, r2]
 554 0068 002A     		cmp	r2, #0
 555 006a F2D1     		bne	.L72
 556              		.loc 1 167 0 discriminator 3
 557 006c 1B79     		ldrb	r3, [r3, #4]
 558 006e 5BB2     		sxtb	r3, r3
 559 0070 002B     		cmp	r3, #0
 560 0072 EED1     		bne	.L72
 561              		.loc 1 168 0 is_stmt 1
 562 0074 294A     		ldr	r2, .L121+8
 563 0076 1370     		strb	r3, [r2]
 564              		.loc 1 169 0
 565 0078 EBE7     		b	.L72
 566              	.LVL39:
 567              	.L112:
 568              		.loc 1 153 0 discriminator 1
 569 007a 002A     		cmp	r2, #0
 570 007c E7DD     		ble	.L74
ARM GAS  /var/folders/t8/16hdwfmd2fg_d3q6dgx6bpmw0000gn/T//ccZMAKnW.s 			page 11


 571              	.L82:
 572              		.loc 1 152 0 discriminator 2
 573 007e 0022     		movs	r2, #0
 574 0080 5A70     		strb	r2, [r3, #1]
 575              	.LVL40:
 576              	.L80:
 577              		.loc 1 167 0
 578 0082 0222     		movs	r2, #2
 579 0084 9A56     		ldrsb	r2, [r3, r2]
 580 0086 002A     		cmp	r2, #0
 581 0088 E3D1     		bne	.L72
 582 008a EBE7     		b	.L75
 583              	.LVL41:
 584              	.L109:
 585              		.loc 1 150 0 discriminator 1
 586 008c 9978     		ldrb	r1, [r3, #2]
 587 008e 7F29     		cmp	r1, #127
 588 0090 E4D8     		bhi	.L78
 589              		.loc 1 167 0
 590 0092 002A     		cmp	r2, #0
 591 0094 DDD1     		bne	.L72
 592 0096 F4E7     		b	.L80
 593              	.L111:
 594              		.loc 1 152 0 discriminator 1
 595 0098 002A     		cmp	r2, #0
 596 009a F0DB     		blt	.L82
 597              		.loc 1 167 0
 598 009c D9D1     		bne	.L72
 599 009e F0E7     		b	.L80
 600              	.L113:
 601              		.loc 1 154 0 discriminator 1
 602 00a0 0321     		movs	r1, #3
 603 00a2 5956     		ldrsb	r1, [r3, r1]
 604 00a4 0029     		cmp	r1, #0
 605 00a6 D2DD     		ble	.L74
 606              	.L85:
 607              		.loc 1 154 0 is_stmt 0 discriminator 2
 608 00a8 0021     		movs	r1, #0
 609 00aa D970     		strb	r1, [r3, #3]
 610              		.loc 1 167 0 is_stmt 1 discriminator 2
 611 00ac 002A     		cmp	r2, #0
 612 00ae D0D1     		bne	.L72
 613 00b0 E7E7     		b	.L80
 614              	.L106:
 615              		.loc 1 159 0 discriminator 1
 616 00b2 1978     		ldrb	r1, [r3]
 617 00b4 F338     		subs	r0, r0, #243
 618              	.LVL42:
 619 00b6 8143     		bics	r1, r0
 620 00b8 1970     		strb	r1, [r3]
 621 00ba C8E7     		b	.L74
 622              	.LVL43:
 623              	.L114:
 624              		.loc 1 155 0 discriminator 1
 625 00bc D978     		ldrb	r1, [r3, #3]
 626 00be 7F29     		cmp	r1, #127
 627 00c0 C5D9     		bls	.L74
ARM GAS  /var/folders/t8/16hdwfmd2fg_d3q6dgx6bpmw0000gn/T//ccZMAKnW.s 			page 12


 628 00c2 F1E7     		b	.L85
 629              	.L115:
 630              		.loc 1 156 0 discriminator 1
 631 00c4 1979     		ldrb	r1, [r3, #4]
 632 00c6 7F29     		cmp	r1, #127
 633 00c8 C1D9     		bls	.L74
 634              	.L88:
 635              		.loc 1 156 0 is_stmt 0 discriminator 2
 636 00ca 0021     		movs	r1, #0
 637 00cc 1971     		strb	r1, [r3, #4]
 638 00ce BEE7     		b	.L74
 639              	.L116:
 640              		.loc 1 157 0 is_stmt 1 discriminator 1
 641 00d0 0421     		movs	r1, #4
 642 00d2 5956     		ldrsb	r1, [r3, r1]
 643 00d4 0029     		cmp	r1, #0
 644 00d6 F8DC     		bgt	.L88
 645 00d8 B9E7     		b	.L74
 646              	.L117:
 647              		.loc 1 160 0 discriminator 1
 648 00da 1978     		ldrb	r1, [r3]
 649 00dc F238     		subs	r0, r0, #242
 650              	.LVL44:
 651 00de 8143     		bics	r1, r0
 652 00e0 1970     		strb	r1, [r3]
 653 00e2 B4E7     		b	.L74
 654              	.LVL45:
 655              	.L118:
 656              		.loc 1 161 0 discriminator 1
 657 00e4 1978     		ldrb	r1, [r3]
 658 00e6 EF38     		subs	r0, r0, #239
 659              	.LVL46:
 660 00e8 8143     		bics	r1, r0
 661 00ea 1970     		strb	r1, [r3]
 662 00ec AFE7     		b	.L74
 663              	.LVL47:
 664              	.L119:
 665              		.loc 1 162 0 discriminator 1
 666 00ee 1978     		ldrb	r1, [r3]
 667 00f0 E838     		subs	r0, r0, #232
 668              	.LVL48:
 669 00f2 8143     		bics	r1, r0
 670 00f4 1970     		strb	r1, [r3]
 671 00f6 AAE7     		b	.L74
 672              	.LVL49:
 673              	.L120:
 674              		.loc 1 163 0 discriminator 1
 675 00f8 0124     		movs	r4, #1
 676 00fa 0748     		ldr	r0, .L121+4
 677              	.LVL50:
 678 00fc 0178     		ldrb	r1, [r0]
 679 00fe A143     		bics	r1, r4
 680 0100 0170     		strb	r1, [r0]
 681 0102 A4E7     		b	.L74
 682              	.LVL51:
 683              	.L95:
 684              		.loc 1 165 0
ARM GAS  /var/folders/t8/16hdwfmd2fg_d3q6dgx6bpmw0000gn/T//ccZMAKnW.s 			page 13


 685 0104 FF28     		cmp	r0, #255
 686 0106 A2D1     		bne	.L74
 687              		.loc 1 165 0 is_stmt 0 discriminator 1
 688 0108 0424     		movs	r4, #4
 689 010a 0348     		ldr	r0, .L121+4
 690              	.LVL52:
 691 010c 0178     		ldrb	r1, [r0]
 692 010e A143     		bics	r1, r4
 693 0110 0170     		strb	r1, [r0]
 694 0112 9CE7     		b	.L74
 695              	.L122:
 696              		.align	2
 697              	.L121:
 698 0114 00000000 		.word	.LANCHOR6
 699 0118 00000000 		.word	.LANCHOR0
 700 011c 00000000 		.word	.LANCHOR2
 701              		.cfi_endproc
 702              	.LFE178:
 703              		.size	mousekey_off, .-mousekey_off
 704              		.section	.text.mousekey_send,"ax",%progbits
 705              		.align	1
 706              		.p2align 4,,15
 707              		.global	mousekey_send
 708              		.syntax unified
 709              		.code	16
 710              		.thumb_func
 711              		.fpu softvfp
 712              		.type	mousekey_send, %function
 713              	mousekey_send:
 714              	.LFB179:
 715              		.loc 1 172 0 is_stmt 1
 716              		.cfi_startproc
 717              		@ args = 0, pretend = 0, frame = 0
 718              		@ frame_needed = 0, uses_anonymous_args = 0
 719              	.LBB4:
 720              	.LBB5:
 721              		.loc 1 187 0
 722 0000 264B     		ldr	r3, .L128
 723              	.LBE5:
 724              	.LBE4:
 725              		.loc 1 172 0
 726 0002 70B5     		push	{r4, r5, r6, lr}
 727              		.cfi_def_cfa_offset 16
 728              		.cfi_offset 4, -16
 729              		.cfi_offset 5, -12
 730              		.cfi_offset 6, -8
 731              		.cfi_offset 14, -4
 732              	.LBB8:
 733              	.LBB6:
 734              		.loc 1 187 0
 735 0004 1B78     		ldrb	r3, [r3]
 736 0006 1B07     		lsls	r3, r3, #28
 737 0008 08D4     		bmi	.L127
 738 000a 254C     		ldr	r4, .L128+4
 739              	.L124:
 740              	.LBE6:
 741              	.LBE8:
ARM GAS  /var/folders/t8/16hdwfmd2fg_d3q6dgx6bpmw0000gn/T//ccZMAKnW.s 			page 14


 742              		.loc 1 174 0
 743 000c 2000     		movs	r0, r4
 744 000e FFF7FEFF 		bl	host_mouse_send
 745              	.LVL53:
 746              		.loc 1 175 0
 747 0012 FFF7FEFF 		bl	timer_read
 748              	.LVL54:
 749 0016 234B     		ldr	r3, .L128+8
 750              		.loc 1 176 0
 751              		@ sp needed
 752              		.loc 1 175 0
 753 0018 1880     		strh	r0, [r3]
 754              		.loc 1 176 0
 755 001a 70BD     		pop	{r4, r5, r6, pc}
 756              	.L127:
 757              	.LBB9:
 758              	.LBB7:
 759              		.loc 1 188 0
 760 001c 2248     		ldr	r0, .L128+12
 761 001e FFF7FEFF 		bl	tfp_printf
 762              	.LVL55:
 763              		.loc 1 189 0
 764 0022 1F4C     		ldr	r4, .L128+4
 765 0024 2148     		ldr	r0, .L128+16
 766 0026 2178     		ldrb	r1, [r4]
 767 0028 FFF7FEFF 		bl	tfp_printf
 768              	.LVL56:
 769 002c 2048     		ldr	r0, .L128+20
 770 002e FFF7FEFF 		bl	tfp_printf
 771              	.LVL57:
 772              		.loc 1 190 0
 773 0032 0121     		movs	r1, #1
 774 0034 1F4D     		ldr	r5, .L128+24
 775 0036 6156     		ldrsb	r1, [r4, r1]
 776 0038 2800     		movs	r0, r5
 777 003a FFF7FEFF 		bl	tfp_printf
 778              	.LVL58:
 779 003e 1E4E     		ldr	r6, .L128+28
 780 0040 3000     		movs	r0, r6
 781 0042 FFF7FEFF 		bl	tfp_printf
 782              	.LVL59:
 783              		.loc 1 191 0
 784 0046 0221     		movs	r1, #2
 785 0048 2800     		movs	r0, r5
 786 004a 6156     		ldrsb	r1, [r4, r1]
 787 004c FFF7FEFF 		bl	tfp_printf
 788              	.LVL60:
 789 0050 3000     		movs	r0, r6
 790 0052 FFF7FEFF 		bl	tfp_printf
 791              	.LVL61:
 792              		.loc 1 192 0
 793 0056 0321     		movs	r1, #3
 794 0058 2800     		movs	r0, r5
 795 005a 6156     		ldrsb	r1, [r4, r1]
 796 005c FFF7FEFF 		bl	tfp_printf
 797              	.LVL62:
 798 0060 3000     		movs	r0, r6
ARM GAS  /var/folders/t8/16hdwfmd2fg_d3q6dgx6bpmw0000gn/T//ccZMAKnW.s 			page 15


 799 0062 FFF7FEFF 		bl	tfp_printf
 800              	.LVL63:
 801              		.loc 1 193 0
 802 0066 0421     		movs	r1, #4
 803 0068 2800     		movs	r0, r5
 804 006a 6156     		ldrsb	r1, [r4, r1]
 805 006c FFF7FEFF 		bl	tfp_printf
 806              	.LVL64:
 807 0070 1248     		ldr	r0, .L128+32
 808 0072 FFF7FEFF 		bl	tfp_printf
 809              	.LVL65:
 810              		.loc 1 194 0
 811 0076 124B     		ldr	r3, .L128+36
 812 0078 124D     		ldr	r5, .L128+40
 813 007a 1978     		ldrb	r1, [r3]
 814 007c 2800     		movs	r0, r5
 815 007e FFF7FEFF 		bl	tfp_printf
 816              	.LVL66:
 817 0082 1148     		ldr	r0, .L128+44
 818 0084 FFF7FEFF 		bl	tfp_printf
 819              	.LVL67:
 820              		.loc 1 195 0
 821 0088 104B     		ldr	r3, .L128+48
 822 008a 2800     		movs	r0, r5
 823 008c 1978     		ldrb	r1, [r3]
 824 008e FFF7FEFF 		bl	tfp_printf
 825              	.LVL68:
 826 0092 0F48     		ldr	r0, .L128+52
 827 0094 FFF7FEFF 		bl	tfp_printf
 828              	.LVL69:
 829 0098 B8E7     		b	.L124
 830              	.L129:
 831 009a C046     		.align	2
 832              	.L128:
 833 009c 00000000 		.word	debug_config
 834 00a0 00000000 		.word	.LANCHOR6
 835 00a4 00000000 		.word	.LANCHOR7
 836 00a8 00000000 		.word	.LC14
 837 00ac 24000000 		.word	.LC17
 838 00b0 2C000000 		.word	.LC19
 839 00b4 30000000 		.word	.LC21
 840 00b8 34000000 		.word	.LC23
 841 00bc 38000000 		.word	.LC25
 842 00c0 00000000 		.word	.LANCHOR2
 843 00c4 3C000000 		.word	.LC28
 844 00c8 40000000 		.word	.LC30
 845 00cc 00000000 		.word	.LANCHOR0
 846 00d0 44000000 		.word	.LC33
 847              	.LBE7:
 848              	.LBE9:
 849              		.cfi_endproc
 850              	.LFE179:
 851              		.size	mousekey_send, .-mousekey_send
 852              		.global	__aeabi_i2d
 853              		.global	__aeabi_dmul
 854              		.global	__aeabi_d2iz
 855              		.section	.text.mousekey_task,"ax",%progbits
ARM GAS  /var/folders/t8/16hdwfmd2fg_d3q6dgx6bpmw0000gn/T//ccZMAKnW.s 			page 16


 856              		.align	1
 857              		.p2align 4,,15
 858              		.global	mousekey_task
 859              		.syntax unified
 860              		.code	16
 861              		.thumb_func
 862              		.fpu softvfp
 863              		.type	mousekey_task, %function
 864              	mousekey_task:
 865              	.LFB176:
 866              		.loc 1 98 0
 867              		.cfi_startproc
 868              		@ args = 0, pretend = 0, frame = 0
 869              		@ frame_needed = 0, uses_anonymous_args = 0
 870 0000 F0B5     		push	{r4, r5, r6, r7, lr}
 871              		.cfi_def_cfa_offset 20
 872              		.cfi_offset 4, -20
 873              		.cfi_offset 5, -16
 874              		.cfi_offset 6, -12
 875              		.cfi_offset 7, -8
 876              		.cfi_offset 14, -4
 877 0002 C646     		mov	lr, r8
 878              		.loc 1 99 0
 879 0004 3F4B     		ldr	r3, .L160
 880              		.loc 1 98 0
 881 0006 00B5     		push	{lr}
 882              		.cfi_def_cfa_offset 24
 883              		.cfi_offset 8, -24
 884              		.loc 1 99 0
 885 0008 1888     		ldrh	r0, [r3]
 886 000a FFF7FEFF 		bl	timer_elapsed
 887              	.LVL70:
 888 000e 3E49     		ldr	r1, .L160+4
 889 0010 0A78     		ldrb	r2, [r1]
 890 0012 002A     		cmp	r2, #0
 891 0014 58D0     		beq	.L131
 892              		.loc 1 99 0 is_stmt 0 discriminator 1
 893 0016 3D4B     		ldr	r3, .L160+8
 894 0018 1B78     		ldrb	r3, [r3]
 895              	.L132:
 896              		.loc 1 99 0 discriminator 4
 897 001a 9842     		cmp	r0, r3
 898 001c 51DB     		blt	.L130
 899              		.loc 1 102 0 is_stmt 1
 900 001e 0125     		movs	r5, #1
 901 0020 0423     		movs	r3, #4
 902 0022 0226     		movs	r6, #2
 903 0024 0327     		movs	r7, #3
 904 0026 3A4C     		ldr	r4, .L160+12
 905 0028 E356     		ldrsb	r3, [r4, r3]
 906 002a 6557     		ldrsb	r5, [r4, r5]
 907 002c A657     		ldrsb	r6, [r4, r6]
 908 002e E757     		ldrsb	r7, [r4, r7]
 909 0030 9846     		mov	r8, r3
 910 0032 002D     		cmp	r5, #0
 911 0034 4ED1     		bne	.L134
 912              		.loc 1 102 0 is_stmt 0 discriminator 1
ARM GAS  /var/folders/t8/16hdwfmd2fg_d3q6dgx6bpmw0000gn/T//ccZMAKnW.s 			page 17


 913 0036 002E     		cmp	r6, #0
 914 0038 03D1     		bne	.L135
 915              		.loc 1 102 0 discriminator 2
 916 003a 002F     		cmp	r7, #0
 917 003c 01D1     		bne	.L135
 918              		.loc 1 102 0 discriminator 3
 919 003e 002B     		cmp	r3, #0
 920 0040 3FD0     		beq	.L130
 921              	.L135:
 922              		.loc 1 105 0 is_stmt 1
 923 0042 FF2A     		cmp	r2, #255
 924 0044 0ED0     		beq	.L138
 925              	.L146:
 926              		.loc 1 106 0
 927 0046 0132     		adds	r2, r2, #1
 928 0048 0A70     		strb	r2, [r1]
 929              	.L136:
 930              		.loc 1 109 0
 931 004a 002D     		cmp	r5, #0
 932 004c 03DD     		ble	.L137
 933              		.loc 1 109 0 is_stmt 0 discriminator 1
 934 004e FFF7FEFF 		bl	move_unit
 935              	.LVL71:
 936 0052 45B2     		sxtb	r5, r0
 937 0054 6570     		strb	r5, [r4, #1]
 938              	.L137:
 939              		.loc 1 110 0 is_stmt 1
 940 0056 002D     		cmp	r5, #0
 941 0058 04DA     		bge	.L138
 942              		.loc 1 110 0 is_stmt 0 discriminator 1
 943 005a FFF7FEFF 		bl	move_unit
 944              	.LVL72:
 945 005e 4542     		rsbs	r5, r0, #0
 946 0060 6DB2     		sxtb	r5, r5
 947 0062 6570     		strb	r5, [r4, #1]
 948              	.L138:
 949              		.loc 1 111 0 is_stmt 1
 950 0064 002E     		cmp	r6, #0
 951 0066 03DD     		ble	.L139
 952              		.loc 1 111 0 is_stmt 0 discriminator 1
 953 0068 FFF7FEFF 		bl	move_unit
 954              	.LVL73:
 955 006c 46B2     		sxtb	r6, r0
 956 006e A670     		strb	r6, [r4, #2]
 957              	.L139:
 958              		.loc 1 112 0 is_stmt 1
 959 0070 002E     		cmp	r6, #0
 960 0072 03DA     		bge	.L140
 961              		.loc 1 112 0 is_stmt 0 discriminator 1
 962 0074 FFF7FEFF 		bl	move_unit
 963              	.LVL74:
 964 0078 4042     		rsbs	r0, r0, #0
 965 007a A070     		strb	r0, [r4, #2]
 966              	.L140:
 967              		.loc 1 115 0 is_stmt 1
 968 007c 002D     		cmp	r5, #0
 969 007e 03D0     		beq	.L141
ARM GAS  /var/folders/t8/16hdwfmd2fg_d3q6dgx6bpmw0000gn/T//ccZMAKnW.s 			page 18


 970              		.loc 1 115 0 is_stmt 0 discriminator 1
 971 0080 0226     		movs	r6, #2
 972 0082 A657     		ldrsb	r6, [r4, r6]
 973 0084 002E     		cmp	r6, #0
 974 0086 28D1     		bne	.L159
 975              	.L141:
 976              		.loc 1 120 0 is_stmt 1
 977 0088 002F     		cmp	r7, #0
 978 008a 03DD     		ble	.L142
 979              		.loc 1 120 0 is_stmt 0 discriminator 1
 980 008c FFF7FEFF 		bl	wheel_unit
 981              	.LVL75:
 982 0090 47B2     		sxtb	r7, r0
 983 0092 E770     		strb	r7, [r4, #3]
 984              	.L142:
 985              		.loc 1 121 0 is_stmt 1
 986 0094 002F     		cmp	r7, #0
 987 0096 03DA     		bge	.L143
 988              		.loc 1 121 0 is_stmt 0 discriminator 1
 989 0098 FFF7FEFF 		bl	wheel_unit
 990              	.LVL76:
 991 009c 4042     		rsbs	r0, r0, #0
 992 009e E070     		strb	r0, [r4, #3]
 993              	.L143:
 994              		.loc 1 122 0 is_stmt 1
 995 00a0 4346     		mov	r3, r8
 996 00a2 002B     		cmp	r3, #0
 997 00a4 04DD     		ble	.L144
 998              		.loc 1 122 0 is_stmt 0 discriminator 1
 999 00a6 FFF7FEFF 		bl	wheel_unit
 1000              	.LVL77:
 1001 00aa 43B2     		sxtb	r3, r0
 1002 00ac 9846     		mov	r8, r3
 1003 00ae 2371     		strb	r3, [r4, #4]
 1004              	.L144:
 1005              		.loc 1 123 0 is_stmt 1
 1006 00b0 4346     		mov	r3, r8
 1007 00b2 002B     		cmp	r3, #0
 1008 00b4 03DA     		bge	.L145
 1009              		.loc 1 123 0 is_stmt 0 discriminator 1
 1010 00b6 FFF7FEFF 		bl	wheel_unit
 1011              	.LVL78:
 1012 00ba 4042     		rsbs	r0, r0, #0
 1013 00bc 2071     		strb	r0, [r4, #4]
 1014              	.L145:
 1015              		.loc 1 125 0 is_stmt 1
 1016 00be FFF7FEFF 		bl	mousekey_send
 1017              	.LVL79:
 1018              	.L130:
 1019              		.loc 1 126 0
 1020              		@ sp needed
 1021 00c2 04BC     		pop	{r2}
 1022 00c4 9046     		mov	r8, r2
 1023 00c6 F0BD     		pop	{r4, r5, r6, r7, pc}
 1024              	.L131:
 1025              		.loc 1 99 0 discriminator 2
 1026 00c8 124B     		ldr	r3, .L160+16
ARM GAS  /var/folders/t8/16hdwfmd2fg_d3q6dgx6bpmw0000gn/T//ccZMAKnW.s 			page 19


 1027 00ca 1C78     		ldrb	r4, [r3]
 1028 00cc A300     		lsls	r3, r4, #2
 1029 00ce 1B19     		adds	r3, r3, r4
 1030 00d0 5B00     		lsls	r3, r3, #1
 1031 00d2 A2E7     		b	.L132
 1032              	.L134:
 1033              		.loc 1 105 0
 1034 00d4 FF2A     		cmp	r2, #255
 1035 00d6 B6D1     		bne	.L146
 1036 00d8 B7E7     		b	.L136
 1037              	.L159:
 1038              		.loc 1 116 0
 1039 00da 2800     		movs	r0, r5
 1040 00dc FFF7FEFF 		bl	__aeabi_i2d
 1041              	.LVL80:
 1042 00e0 0D4A     		ldr	r2, .L160+20
 1043 00e2 0E4B     		ldr	r3, .L160+24
 1044 00e4 FFF7FEFF 		bl	__aeabi_dmul
 1045              	.LVL81:
 1046 00e8 FFF7FEFF 		bl	__aeabi_d2iz
 1047              	.LVL82:
 1048 00ec 6070     		strb	r0, [r4, #1]
 1049              		.loc 1 117 0
 1050 00ee 3000     		movs	r0, r6
 1051 00f0 FFF7FEFF 		bl	__aeabi_i2d
 1052              	.LVL83:
 1053 00f4 084A     		ldr	r2, .L160+20
 1054 00f6 094B     		ldr	r3, .L160+24
 1055 00f8 FFF7FEFF 		bl	__aeabi_dmul
 1056              	.LVL84:
 1057 00fc FFF7FEFF 		bl	__aeabi_d2iz
 1058              	.LVL85:
 1059 0100 A070     		strb	r0, [r4, #2]
 1060 0102 C1E7     		b	.L141
 1061              	.L161:
 1062              		.align	2
 1063              	.L160:
 1064 0104 00000000 		.word	.LANCHOR7
 1065 0108 00000000 		.word	.LANCHOR2
 1066 010c 00000000 		.word	.LANCHOR8
 1067 0110 00000000 		.word	.LANCHOR6
 1068 0114 00000000 		.word	.LANCHOR9
 1069 0118 66666666 		.word	1717986918
 1070 011c 6666E63F 		.word	1072064102
 1071              		.cfi_endproc
 1072              	.LFE176:
 1073              		.size	mousekey_task, .-mousekey_task
 1074              		.section	.text.mousekey_clear,"ax",%progbits
 1075              		.align	1
 1076              		.p2align 4,,15
 1077              		.global	mousekey_clear
 1078              		.syntax unified
 1079              		.code	16
 1080              		.thumb_func
 1081              		.fpu softvfp
 1082              		.type	mousekey_clear, %function
 1083              	mousekey_clear:
ARM GAS  /var/folders/t8/16hdwfmd2fg_d3q6dgx6bpmw0000gn/T//ccZMAKnW.s 			page 20


 1084              	.LFB180:
 1085              		.loc 1 179 0
 1086              		.cfi_startproc
 1087              		@ args = 0, pretend = 0, frame = 0
 1088              		@ frame_needed = 0, uses_anonymous_args = 0
 1089 0000 10B5     		push	{r4, lr}
 1090              		.cfi_def_cfa_offset 8
 1091              		.cfi_offset 4, -8
 1092              		.cfi_offset 14, -4
 1093              		.loc 1 180 0
 1094 0002 0522     		movs	r2, #5
 1095 0004 0021     		movs	r1, #0
 1096 0006 0448     		ldr	r0, .L163
 1097 0008 FFF7FEFF 		bl	memset
 1098              	.LVL86:
 1099              		.loc 1 181 0
 1100 000c 0023     		movs	r3, #0
 1101 000e 034A     		ldr	r2, .L163+4
 1102              		.loc 1 183 0
 1103              		@ sp needed
 1104              		.loc 1 181 0
 1105 0010 1370     		strb	r3, [r2]
 1106              		.loc 1 182 0
 1107 0012 034A     		ldr	r2, .L163+8
 1108 0014 1370     		strb	r3, [r2]
 1109              		.loc 1 183 0
 1110 0016 10BD     		pop	{r4, pc}
 1111              	.L164:
 1112              		.align	2
 1113              	.L163:
 1114 0018 00000000 		.word	.LANCHOR6
 1115 001c 00000000 		.word	.LANCHOR2
 1116 0020 00000000 		.word	.LANCHOR0
 1117              		.cfi_endproc
 1118              	.LFE180:
 1119              		.size	mousekey_clear, .-mousekey_clear
 1120              		.global	mk_wheel_time_to_max
 1121              		.global	mk_wheel_max_speed
 1122              		.global	mk_time_to_max
 1123              		.global	mk_max_speed
 1124              		.global	mk_interval
 1125              		.global	mk_delay
 1126              		.section	.bss.last_timer,"aw",%nobits
 1127              		.align	1
 1128              		.set	.LANCHOR7,. + 0
 1129              		.type	last_timer, %object
 1130              		.size	last_timer, 2
 1131              	last_timer:
 1132 0000 0000     		.space	2
 1133              		.section	.bss.mouse_report,"aw",%nobits
 1134              		.align	2
 1135              		.set	.LANCHOR6,. + 0
 1136              		.type	mouse_report, %object
 1137              		.size	mouse_report, 5
 1138              	mouse_report:
 1139 0000 00000000 		.space	5
 1139      00
ARM GAS  /var/folders/t8/16hdwfmd2fg_d3q6dgx6bpmw0000gn/T//ccZMAKnW.s 			page 21


 1140              		.section	.bss.mousekey_accel,"aw",%nobits
 1141              		.set	.LANCHOR0,. + 0
 1142              		.type	mousekey_accel, %object
 1143              		.size	mousekey_accel, 1
 1144              	mousekey_accel:
 1145 0000 00       		.space	1
 1146              		.section	.bss.mousekey_repeat,"aw",%nobits
 1147              		.set	.LANCHOR2,. + 0
 1148              		.type	mousekey_repeat, %object
 1149              		.size	mousekey_repeat, 1
 1150              	mousekey_repeat:
 1151 0000 00       		.space	1
 1152              		.section	.data.mk_delay,"aw",%progbits
 1153              		.set	.LANCHOR9,. + 0
 1154              		.type	mk_delay, %object
 1155              		.size	mk_delay, 1
 1156              	mk_delay:
 1157 0000 1E       		.byte	30
 1158              		.section	.data.mk_interval,"aw",%progbits
 1159              		.set	.LANCHOR8,. + 0
 1160              		.type	mk_interval, %object
 1161              		.size	mk_interval, 1
 1162              	mk_interval:
 1163 0000 32       		.byte	50
 1164              		.section	.data.mk_max_speed,"aw",%progbits
 1165              		.set	.LANCHOR1,. + 0
 1166              		.type	mk_max_speed, %object
 1167              		.size	mk_max_speed, 1
 1168              	mk_max_speed:
 1169 0000 0A       		.byte	10
 1170              		.section	.data.mk_time_to_max,"aw",%progbits
 1171              		.set	.LANCHOR3,. + 0
 1172              		.type	mk_time_to_max, %object
 1173              		.size	mk_time_to_max, 1
 1174              	mk_time_to_max:
 1175 0000 14       		.byte	20
 1176              		.section	.data.mk_wheel_max_speed,"aw",%progbits
 1177              		.set	.LANCHOR4,. + 0
 1178              		.type	mk_wheel_max_speed, %object
 1179              		.size	mk_wheel_max_speed, 1
 1180              	mk_wheel_max_speed:
 1181 0000 08       		.byte	8
 1182              		.section	.data.mk_wheel_time_to_max,"aw",%progbits
 1183              		.set	.LANCHOR5,. + 0
 1184              		.type	mk_wheel_time_to_max, %object
 1185              		.size	mk_wheel_time_to_max, 1
 1186              	mk_wheel_time_to_max:
 1187 0000 28       		.byte	40
 1188              		.section	.rodata.mousekey_send.str1.4,"aMS",%progbits,1
 1189              		.align	2
 1190              	.LC14:
 1191 0000 6D6F7573 		.ascii	"mousekey [btn|x y v h](rep/acl): [\000"
 1191      656B6579 
 1191      205B6274 
 1191      6E7C7820 
 1191      79207620 
 1192 0023 00       		.space	1
ARM GAS  /var/folders/t8/16hdwfmd2fg_d3q6dgx6bpmw0000gn/T//ccZMAKnW.s 			page 22


 1193              	.LC17:
 1194 0024 25303258 		.ascii	"%02X\000"
 1194      00
 1195 0029 000000   		.space	3
 1196              	.LC19:
 1197 002c 7C00     		.ascii	"|\000"
 1198 002e 0000     		.space	2
 1199              	.LC21:
 1200 0030 256400   		.ascii	"%d\000"
 1201 0033 00       		.space	1
 1202              	.LC23:
 1203 0034 2000     		.ascii	" \000"
 1204 0036 0000     		.space	2
 1205              	.LC25:
 1206 0038 5D2800   		.ascii	"](\000"
 1207 003b 00       		.space	1
 1208              	.LC28:
 1209 003c 257500   		.ascii	"%u\000"
 1210 003f 00       		.space	1
 1211              	.LC30:
 1212 0040 2F00     		.ascii	"/\000"
 1213 0042 0000     		.space	2
 1214              	.LC33:
 1215 0044 290A00   		.ascii	")\012\000"
 1216              		.text
 1217              	.Letext0:
 1218              		.file 2 "/usr/local/Caskroom/gcc-arm-embedded/7-2017-q4-major/gcc-arm-none-eabi-7-2017-q4-major/ar
 1219              		.file 3 "/usr/local/Caskroom/gcc-arm-embedded/7-2017-q4-major/gcc-arm-none-eabi-7-2017-q4-major/ar
 1220              		.file 4 "/usr/local/Caskroom/gcc-arm-embedded/7-2017-q4-major/gcc-arm-none-eabi-7-2017-q4-major/li
 1221              		.file 5 "../../tmk_core/tool/chibios/ChibiOS/os/common/ports/ARMCMx/compilers/GCC/chtypes.h"
 1222              		.file 6 "../../tmk_core/tool/chibios/ChibiOS/os/rt/include/chsystypes.h"
 1223              		.file 7 "../../tmk_core/tool/chibios/ChibiOS/os/rt/include/chschd.h"
 1224              		.file 8 "../../tmk_core/tool/chibios/ChibiOS-Contrib/os/common/ext/CMSIS/KINETIS/kl2xz.h"
 1225              		.file 9 "../../tmk_core/tool/chibios/ChibiOS/os/common/ports/ARMCMx/chcore.h"
 1226              		.file 10 "../../tmk_core/tool/chibios/ChibiOS/os/common/ports/ARMCMx/chcore_v6m.h"
 1227              		.file 11 "../../tmk_core/tool/chibios/ChibiOS/os/rt/include/chsem.h"
 1228              		.file 12 "../../tmk_core/tool/chibios/ChibiOS/os/rt/include/chmtx.h"
 1229              		.file 13 "../../tmk_core/tool/chibios/ChibiOS/os/rt/include/chregistry.h"
 1230              		.file 14 "../../tmk_core/tool/chibios/ChibiOS/os/rt/include/chsys.h"
 1231              		.file 15 "../../tmk_core/tool/chibios/ChibiOS-Contrib/os/hal/ports/KINETIS/LLD/hal_pal_lld.h"
 1232              		.file 16 "../../tmk_core/tool/chibios/ChibiOS/os/hal/include/hal_usb.h"
 1233              		.file 17 "../../tmk_core/tool/chibios/ChibiOS-Contrib/os/hal/ports/KINETIS/LLD/hal_usb_lld.h"
 1234              		.file 18 "../../tmk_core/common/report.h"
 1235              		.file 19 "../../tmk_core/common/host.h"
 1236              		.file 20 "../../tmk_core/common/timer.h"
 1237              		.file 21 "../../tmk_core/common/debug.h"
 1238              		.file 22 "../../tmk_core/common/mousekey.h"
 1239              		.file 23 "../../tmk_core/common/chibios/printf.h"
 1240              		.file 24 "../../tmk_core/common/keycode.h"
 1241              		.file 25 "<built-in>"