ARM GAS  /var/folders/t8/16hdwfmd2fg_d3q6dgx6bpmw0000gn/T//ccm0pgcU.s 			page 1


   1              		.cpu cortex-m0plus
   2              		.eabi_attribute 20, 1
   3              		.eabi_attribute 21, 1
   4              		.eabi_attribute 23, 3
   5              		.eabi_attribute 24, 1
   6              		.eabi_attribute 25, 1
   7              		.eabi_attribute 26, 1
   8              		.eabi_attribute 30, 2
   9              		.eabi_attribute 34, 0
  10              		.eabi_attribute 18, 4
  11              		.file	"nvic.c"
  12              		.text
  13              	.Ltext0:
  14              		.cfi_sections	.debug_frame
  15              		.section	.text.nvicEnableVector,"ax",%progbits
  16              		.align	1
  17              		.p2align 4,,15
  18              		.global	nvicEnableVector
  19              		.syntax unified
  20              		.code	16
  21              		.thumb_func
  22              		.fpu softvfp
  23              		.type	nvicEnableVector, %function
  24              	nvicEnableVector:
  25              	.LFB174:
  26              		.file 1 "../../tmk_core/tool/chibios/ChibiOS/os/hal/ports/common/ARMCMx/nvic.c"
  27              		.loc 1 57 0
  28              		.cfi_startproc
  29              		@ args = 0, pretend = 0, frame = 0
  30              		@ frame_needed = 0, uses_anonymous_args = 0
  31              		@ link register save eliminated.
  32              	.LVL0:
  33              		.loc 1 63 0
  34 0000 0300     		movs	r3, r0
  35 0002 094A     		ldr	r2, .L3
  36 0004 C033     		adds	r3, r3, #192
  37 0006 8901     		lsls	r1, r1, #6
  38              	.LVL1:
  39 0008 9B00     		lsls	r3, r3, #2
  40 000a 9950     		str	r1, [r3, r2]
  41              		.loc 1 65 0
  42 000c 1F22     		movs	r2, #31
  43 000e 0123     		movs	r3, #1
  44 0010 0240     		ands	r2, r0
  45 0012 9340     		lsls	r3, r3, r2
  46 0014 044A     		ldr	r2, .L3
  47 0016 4009     		lsrs	r0, r0, #5
  48              	.LVL2:
  49 0018 9446     		mov	ip, r2
  50 001a C022     		movs	r2, #192
  51 001c 8000     		lsls	r0, r0, #2
  52 001e 6044     		add	r0, r0, ip
  53 0020 5200     		lsls	r2, r2, #1
  54 0022 8350     		str	r3, [r0, r2]
  55              		.loc 1 67 0
  56              		@ sp needed
  57              		.loc 1 66 0
ARM GAS  /var/folders/t8/16hdwfmd2fg_d3q6dgx6bpmw0000gn/T//ccm0pgcU.s 			page 2


  58 0024 0360     		str	r3, [r0]
  59              		.loc 1 67 0
  60 0026 7047     		bx	lr
  61              	.L4:
  62              		.align	2
  63              	.L3:
  64 0028 00E100E0 		.word	-536813312
  65              		.cfi_endproc
  66              	.LFE174:
  67              		.size	nvicEnableVector, .-nvicEnableVector
  68              		.section	.text.nvicDisableVector,"ax",%progbits
  69              		.align	1
  70              		.p2align 4,,15
  71              		.global	nvicDisableVector
  72              		.syntax unified
  73              		.code	16
  74              		.thumb_func
  75              		.fpu softvfp
  76              		.type	nvicDisableVector, %function
  77              	nvicDisableVector:
  78              	.LFB175:
  79              		.loc 1 74 0
  80              		.cfi_startproc
  81              		@ args = 0, pretend = 0, frame = 0
  82              		@ frame_needed = 0, uses_anonymous_args = 0
  83              		@ link register save eliminated.
  84              	.LVL3:
  85              		.loc 1 76 0
  86 0000 1F21     		movs	r1, #31
  87 0002 0122     		movs	r2, #1
  88 0004 0140     		ands	r1, r0
  89 0006 8A40     		lsls	r2, r2, r1
  90 0008 4309     		lsrs	r3, r0, #5
  91 000a 0449     		ldr	r1, .L6
  92 000c 2033     		adds	r3, r3, #32
  93 000e 9B00     		lsls	r3, r3, #2
  94 0010 5A50     		str	r2, [r3, r1]
  95              		.loc 1 80 0
  96 0012 0023     		movs	r3, #0
  97 0014 C030     		adds	r0, r0, #192
  98              	.LVL4:
  99 0016 8000     		lsls	r0, r0, #2
 100              	.LVL5:
 101 0018 4350     		str	r3, [r0, r1]
 102              		.loc 1 82 0
 103              		@ sp needed
 104 001a 7047     		bx	lr
 105              	.L7:
 106              		.align	2
 107              	.L6:
 108 001c 00E100E0 		.word	-536813312
 109              		.cfi_endproc
 110              	.LFE175:
 111              		.size	nvicDisableVector, .-nvicDisableVector
 112              		.section	.text.nvicSetSystemHandlerPriority,"ax",%progbits
 113              		.align	1
 114              		.p2align 4,,15
ARM GAS  /var/folders/t8/16hdwfmd2fg_d3q6dgx6bpmw0000gn/T//ccm0pgcU.s 			page 3


 115              		.global	nvicSetSystemHandlerPriority
 116              		.syntax unified
 117              		.code	16
 118              		.thumb_func
 119              		.fpu softvfp
 120              		.type	nvicSetSystemHandlerPriority, %function
 121              	nvicSetSystemHandlerPriority:
 122              	.LFB176:
 123              		.loc 1 90 0
 124              		.cfi_startproc
 125              		@ args = 0, pretend = 0, frame = 0
 126              		@ frame_needed = 0, uses_anonymous_args = 0
 127              	.LVL6:
 128 0000 70B5     		push	{r4, r5, r6, lr}
 129              		.cfi_def_cfa_offset 16
 130              		.cfi_offset 4, -16
 131              		.cfi_offset 5, -12
 132              		.cfi_offset 6, -8
 133              		.cfi_offset 14, -4
 134              		.loc 1 90 0
 135 0002 0400     		movs	r4, r0
 136 0004 0D00     		movs	r5, r1
 137              		.loc 1 92 0
 138 0006 0B28     		cmp	r0, #11
 139 0008 02D9     		bls	.L9
 140              		.loc 1 92 0 is_stmt 0 discriminator 2
 141 000a 0548     		ldr	r0, .L10
 142              	.LVL7:
 143 000c FFF7FEFF 		bl	chSysHalt
 144              	.LVL8:
 145              	.L9:
 146              		.loc 1 100 0 is_stmt 1
 147 0010 044B     		ldr	r3, .L10+4
 148 0012 A400     		lsls	r4, r4, #2
 149              	.LVL9:
 150 0014 9C46     		mov	ip, r3
 151 0016 AD01     		lsls	r5, r5, #6
 152              	.LVL10:
 153 0018 6444     		add	r4, r4, ip
 154 001a 6560     		str	r5, [r4, #4]
 155              		.loc 1 102 0
 156              		@ sp needed
 157 001c 70BD     		pop	{r4, r5, r6, pc}
 158              	.L11:
 159 001e C046     		.align	2
 160              	.L10:
 161 0020 00000000 		.word	.LANCHOR0
 162 0024 18ED00E0 		.word	-536810216
 163              		.cfi_endproc
 164              	.LFE176:
 165              		.size	nvicSetSystemHandlerPriority, .-nvicSetSystemHandlerPriority
 166              		.section	.text.nvicClearPending,"ax",%progbits
 167              		.align	1
 168              		.p2align 4,,15
 169              		.global	nvicClearPending
 170              		.syntax unified
 171              		.code	16
ARM GAS  /var/folders/t8/16hdwfmd2fg_d3q6dgx6bpmw0000gn/T//ccm0pgcU.s 			page 4


 172              		.thumb_func
 173              		.fpu softvfp
 174              		.type	nvicClearPending, %function
 175              	nvicClearPending:
 176              	.LFB177:
 177              		.loc 1 109 0
 178              		.cfi_startproc
 179              		@ args = 0, pretend = 0, frame = 0
 180              		@ frame_needed = 0, uses_anonymous_args = 0
 181              		@ link register save eliminated.
 182              	.LVL11:
 183              		.loc 1 111 0
 184 0000 1F22     		movs	r2, #31
 185 0002 4309     		lsrs	r3, r0, #5
 186 0004 1040     		ands	r0, r2
 187              	.LVL12:
 188 0006 1E3A     		subs	r2, r2, #30
 189 0008 8240     		lsls	r2, r2, r0
 190 000a 0249     		ldr	r1, .L13
 191 000c 6033     		adds	r3, r3, #96
 192 000e 9B00     		lsls	r3, r3, #2
 193 0010 5A50     		str	r2, [r3, r1]
 194              		.loc 1 112 0
 195              		@ sp needed
 196 0012 7047     		bx	lr
 197              	.L14:
 198              		.align	2
 199              	.L13:
 200 0014 00E100E0 		.word	-536813312
 201              		.cfi_endproc
 202              	.LFE177:
 203              		.size	nvicClearPending, .-nvicClearPending
 204              		.section	.rodata.__func__.6428,"a",%progbits
 205              		.align	2
 206              		.set	.LANCHOR0,. + 0
 207              		.type	__func__.6428, %object
 208              		.size	__func__.6428, 29
 209              	__func__.6428:
 210 0000 6E766963 		.ascii	"nvicSetSystemHandlerPriority\000"
 210      53657453 
 210      79737465 
 210      6D48616E 
 210      646C6572 
 211              		.text
 212              	.Letext0:
 213              		.file 2 "/usr/local/Caskroom/gcc-arm-embedded/7-2017-q4-major/gcc-arm-none-eabi-7-2017-q4-major/li
 214              		.file 3 "/usr/local/Caskroom/gcc-arm-embedded/7-2017-q4-major/gcc-arm-none-eabi-7-2017-q4-major/ar
 215              		.file 4 "/usr/local/Caskroom/gcc-arm-embedded/7-2017-q4-major/gcc-arm-none-eabi-7-2017-q4-major/ar
 216              		.file 5 "../../tmk_core/tool/chibios/ChibiOS/os/common/ports/ARMCMx/compilers/GCC/chtypes.h"
 217              		.file 6 "../../tmk_core/tool/chibios/ChibiOS/os/rt/include/chsystypes.h"
 218              		.file 7 "../../tmk_core/tool/chibios/ChibiOS/os/rt/include/chschd.h"
 219              		.file 8 "../../tmk_core/tool/chibios/ChibiOS/os/common/ext/CMSIS/include/core_cm0plus.h"
 220              		.file 9 "../../tmk_core/tool/chibios/ChibiOS-Contrib/os/common/ext/CMSIS/KINETIS/kl2xz.h"
 221              		.file 10 "../../tmk_core/tool/chibios/ChibiOS/os/common/ports/ARMCMx/chcore.h"
 222              		.file 11 "../../tmk_core/tool/chibios/ChibiOS/os/common/ports/ARMCMx/chcore_v6m.h"
 223              		.file 12 "../../tmk_core/tool/chibios/ChibiOS/os/rt/include/chsem.h"
 224              		.file 13 "../../tmk_core/tool/chibios/ChibiOS/os/rt/include/chmtx.h"
ARM GAS  /var/folders/t8/16hdwfmd2fg_d3q6dgx6bpmw0000gn/T//ccm0pgcU.s 			page 5


 225              		.file 14 "../../tmk_core/tool/chibios/ChibiOS/os/rt/include/chregistry.h"
 226              		.file 15 "../../tmk_core/tool/chibios/ChibiOS/os/rt/include/chsys.h"
 227              		.file 16 "../../tmk_core/tool/chibios/ChibiOS-Contrib/os/hal/ports/KINETIS/LLD/hal_pal_lld.h"
 228              		.file 17 "../../tmk_core/tool/chibios/ChibiOS/os/hal/include/hal_usb.h"
 229              		.file 18 "../../tmk_core/tool/chibios/ChibiOS-Contrib/os/hal/ports/KINETIS/LLD/hal_usb_lld.h"