ARM GAS  /var/folders/t8/16hdwfmd2fg_d3q6dgx6bpmw0000gn/T//ccm0pgcU.s 			page 1


   1              		.cpu cortex-m0plus
   2              		.eabi_attribute 20, 1
   3              		.eabi_attribute 21, 1
   4              		.eabi_attribute 23, 3
   5              		.eabi_attribute 24, 1
   6              		.eabi_attribute 25, 1
   7              		.eabi_attribute 26, 1
   8              		.eabi_attribute 30, 2
   9              		.eabi_attribute 34, 0
  10              		.eabi_attribute 18, 4
  11              		.file	"nvic.c"
  12              		.text
  13              	.Ltext0:
  14              		.cfi_sections	.debug_frame
  15              		.section	.text.nvicEnableVector,"ax",%progbits
  16              		.align	1
  17              		.p2align 4,,15
  18              		.global	nvicEnableVector
  19              		.syntax unified
  20              		.code	16
  21              		.thumb_func
  22              		.fpu softvfp
  23              		.type	nvicEnableVector, %function
  24              	nvicEnableVector:
  25              	.LFB174:
  26              		.file 1 "../../tmk_core/tool/chibios/ChibiOS/os/hal/ports/common/ARMCMx/nvic.c"
  27              		.loc 1 57 0
  28              		.cfi_startproc
  29              		@ args = 0, pretend = 0, frame = 0
  30              		@ frame_needed = 0, uses_anonymous_args = 0
  31              		@ link register save eliminated.
  32              	.LVL0:
  33              		.loc 1 63 0
  34 0000 0300     		movs	r3, r0
  35 0002 094A     		ldr	r2, .L3
  36 0004 C033     		adds	r3, r3, #192
  37 0006 8901     		lsls	r1, r1, #6
  38              	.LVL1:
  39 0008 9B00     		lsls	r3, r3, #2
  40 000a 9950     		str	r1, [r3, r2]
  41              		.loc 1 65 0
  42 000c 1F22     		movs	r2, #31
  43 000e 0123     		movs	r3, #1
  44 0010 0240     		ands	r2, r0
  45 0012 9340     		lsls	r3, r3, r2
  46 0014 044A     		ldr	r2, .L3
  47 0016 4009     		lsrs	r0, r0, #5
  48              	.LVL2:
  49 0018 9446     		mov	ip, r2
  50 001a C022     		movs	r2, #192
  51 001c 8000     		lsls	r0, r0, #2
  52 001e 6044     		add	r0, r0, ip
  53 0020 5200     		lsls	r2, r2, #1
  54 0022 8350     		str	r3, [r0, r2]
  55              		.loc 1 67 0
  56              		@ sp needed
  57              		.loc 1 66 0
ARM GAS  /var/folders/t8/16hdwfmd2fg_d3q6dgx6bpmw0000gn/T//ccm0pgcU.s 			page 2


  58 0024 0360     		str	r3, [r0]
  59              		.loc 1 67 0
  60 0026 7047     		bx	lr
  61              	.L4:
  62              		.align	2
  63              	.L3:
  64 0028 00E100E0 		.word	-536813312
  65              		.cfi_endproc
  66              	.LFE174:
  67              		.size	nvicEnableVector, .-nvicEnableVector
  68              		.section	.text.nvicDisableVector,"ax",%progbits
  69              		.align	1
  70              		.p2align 4,,15
  71              		.global	nvicDisableVector
  72              		.syntax unified
  73              		.code	16
  74              		.thumb_func
  75              		.fpu softvfp
  76              		.type	nvicDisableVector, %function
  77              	nvicDisableVector:
  78              	.LFB175:
  79              		.loc 1 74 0
  80              		.cfi_startproc
  81              		@ args = 0, pretend = 0, frame = 0
  82              		@ frame_needed = 0, uses_anonymous_args = 0
  83              		@ link register save eliminated.
  84              	.LVL3:
  85              		.loc 1 76 0
  86 0000 1F21     		movs	r1, #31
  87 0002 0122     		movs	r2, #1
  88 0004 0140     		ands	r1, r0
  89 0006 8A40     		lsls	r2, r2, r1
  90 0008 4309     		lsrs	r3, r0, #5
  91 000a 0449     		ldr	r1, .L6
  92 000c 2033     		adds	r3, r3, #32
  93 000e 9B00     		lsls	r3, r3, #2
  94 0010 5A50     		str	r2, [r3, r1]
  95              		.loc 1 80 0
  96 0012 0023     		movs	r3, #0
  97 0014 C030     		adds	r0, r0, #192
  98              	.LVL4:
  99 0016 8000     		lsls	r0, r0, #2
 100              	.LVL5:
 101 0018 4350     		str	r3, [r0, r1]
 102              		.loc 1 82 0
 103              		@ sp needed
 104 001a 7047     		bx	lr
 105              	.L7:
 106              		.align	2
 107              	.L6:
 108 001c 00E100E0 		.word	-536813312
 109              		.cfi_endproc
 110              	.LFE175:
 111              		.size	nvicDisableVector, .-nvicDisableVector
 112              		.section	.text.nvicSetSystemHandlerPriority,"ax",%progbits
 113              		.align	1
 114              		.p2align 4,,15
ARM GAS  /var/folders/t8/16hdwfmd2fg_d3q6dgx6bpmw0000gn/T//ccm0pgcU.s 			page 3


 115              		.global	nvicSetSystemHandlerPriority
 116              		.syntax unified
 117              		.code	16
 118              		.thumb_func
 119              		.fpu softvfp
 120              		.type	nvicSetSystemHandlerPriority, %function
 121              	nvicSetSystemHandlerPriority:
 122              	.LFB176:
 123              		.loc 1 90 0
 124              		.cfi_startproc
 125              		@ args = 0, pretend = 0, frame = 0
 126              		@ frame_needed = 0, uses_anonymous_args = 0
 127              	.LVL6:
 128 0000 70B5     		push	{r4, r5, r6, lr}
 129              		.cfi_def_cfa_offset 16
 130              		.cfi_offset 4, -16
 131              		.cfi_offset 5, -12
 132              		.cfi_offset 6, -8
 133              		.cfi_offset 14, -4
 134              		.loc 1 90 0
 135 0002 0400     		movs	r4, r0
 136 0004 0D00     		movs	r5, r1
 137              		.loc 1 92 0
 138 0006 0B28     		cmp	r0, #11
 139 0008 02D9     		bls	.L9
 140              		.loc 1 92 0 is_stmt 0 discriminator 2
 141 000a 0548     		ldr	r0, .L10
 142              	.LVL7:
 143 000c FFF7FEFF 		bl	chSysHalt
 144              	.LVL8:
 145              	.L9:
 146              		.loc 1 100 0 is_stmt 1
 147 0010 044B     		ldr	r3, .L10+4
 148 0012 A400     		lsls	r4, r4, #2
 149              	.LVL9:
 150 0014 9C46     		mov	ip, r3
 151 0016 AD01     		lsls	r5, r5, #6
 152              	.LVL10:
 153 0018 6444     		add	r4, r4, ip
 154 001a 6560     		str	r5, [r4, #4]
 155              		.loc 1 102 0
 156              		@ sp needed
 157 001c 70BD     		pop	{r4, r5, r6, pc}
 158              	.L11:
 159 001e C046     		.align	2
 160              	.L10:
 161 0020 00000000 		.word	.LANCHOR0
 162 0024 18ED00E0 		.word	-536810216
 163              		.cfi_endproc
 164              	.LFE176:
 165              		.size	nvicSetSystemHandlerPriority, .-nvicSetSystemHandlerPriority
 166              		.section	.text.nvicClearPending,"ax",%progbits
 167              		.align	1
 168              		.p2align 4,,15
 169              		.global	nvicClearPending
 170              		.syntax unified
 171              		.code	16
ARM GAS  /var/folders/t8/16hdwfmd2fg_d3q6dgx6bpmw0000gn/T//ccm0pgcU.s 			page 4


 172              		.thumb_func
 173              		.fpu softvfp
 174              		.type	nvicClearPending, %function
 175              	nvicClearPending:
 176              	.LFB177:
 177              		.loc 1 109 0
 178              		.cfi_startproc
 179              		@ args = 0, pretend = 0, frame = 0
 180              		@ frame_needed = 0, uses_anonymous_args = 0
 181              		@ link register save eliminated.
 182              	.LVL11:
 183              		.loc 1 111 0
 184 0000 1F22     		movs	r2, #31
 185 0002 4309     		lsrs	r3, r0, #5
 186 0004 1040     		ands	r0, r2
 187              	.LVL12:
 188 0006 1E3A     		subs	r2, r2, #30
 189 0008 8240     		lsls	r2, r2, r0
 190 000a 0249     		ldr	r1, .L13
 191 000c 6033     		adds	r3, r3, #96
 192 000e 9B00     		lsls	r3, r3, #2
 193 0010 5A50     		str	r2, [r3, r1]
 194              		.loc 1 112 0
 195              		@ sp needed
 196 0012 7047     		bx	lr
 197              	.L14:
 198              		.align	2
 199              	.L13:
 200 0014 00E100E0 		.word	-536813312
 201              		.cfi_endproc
 202              	.LFE177:
 203              		.size	nvicClearPending, .-nvicClearPending
 204              		.section	.rodata.__func__.6428,"a",%progbits
 205              		.align	2
 206              		.set	.LANCHOR0,. + 0
 207              		.type	__func__.6428, %object
 208              		.size	__func__.6428, 29
 209              	__func__.6428:
 210 0000 6E766963 		.ascii	"nvicSetSystemHandlerPriority\000"
 210      53657453 
 210      79737465 
 210      6D48616E 
 210      646C6572 
 211              		.text
 212              	.Letext0:
 213              		.file 2 "/usr/local/Caskroom/gcc-arm-embedded/7-2017-q4-major/gcc-arm-none-eabi-7-2017-q4-major/li
 214              		.file 3 "/usr/local/Caskroom/gcc-arm-embedded/7-2017-q4-major/gcc-arm-none-eabi-7-2017-q4-major/ar
 215              		.file 4 "/usr/local/Caskroom/gcc-arm-embedded/7-2017-q4-major/gcc-arm-none-eabi-7-2017-q4-major/ar
 216              		.file 5 "../../tmk_core/tool/chibios/ChibiOS/os/common/ports/ARMCMx/compilers/GCC/chtypes.h"
 217              		.file 6 "../../tmk_core/tool/chibios/ChibiOS/os/rt/include/chsystypes.h"
 218              		.file 7 "../../tmk_core/tool/chibios/ChibiOS/os/rt/include/chschd.h"
 219              		.file 8 "../../tmk_core/tool/chibios/ChibiOS/os/common/ext/CMSIS/include/core_cm0plus.h"
 220              		.file 9 "../../tmk_core/tool/chibios/ChibiOS-Contrib/os/common/ext/CMSIS/KINETIS/kl2xz.h"
 221              		.file 10 "../../tmk_core/tool/chibios/ChibiOS/os/common/ports/ARMCMx/chcore.h"
 222              		.file 11 "../../tmk_core/tool/chibios/ChibiOS/os/common/ports/ARMCMx/chcore_v6m.h"
 223              		.file 12 "../../tmk_core/tool/chibios/ChibiOS/os/rt/include/chsem.h"
 224              		.file 13 "../../tmk_core/tool/chibios/ChibiOS/os/rt/include/chmtx.h"
ARM GAS  /var/folders/t8/16hdwfmd2fg_d3q6dgx6bpmw0000gn/T//ccm0pgcU.s 			page 5


 225              		.file 14 "../../tmk_core/tool/chibios/ChibiOS/os/rt/include/chregistry.h"
 226              		.file 15 "../../tmk_core/tool/chibios/ChibiOS/os/rt/include/chsys.h"
 227              		.file 16 "../../tmk_core/tool/chibios/ChibiOS-Contrib/os/hal/ports/KINETIS/LLD/hal_pal_lld.h"
 228              		.file 17 "../../tmk_core/tool/chibios/ChibiOS/os/hal/include/hal_usb.h"
 229              		.file 18 "../../tmk_core/tool/chibios/ChibiOS-Contrib/os/hal/ports/KINETIS/LLD/hal_usb_lld.h"
 230              		.section	.debug_info,"",%progbits
 231              	.Ldebug_info0:
 232 0000 700F0000 		.4byte	0xf70
 233 0004 0400     		.2byte	0x4
 234 0006 00000000 		.4byte	.Ldebug_abbrev0
 235 000a 04       		.byte	0x4
 236 000b 01       		.uleb128 0x1
 237 000c 19000000 		.4byte	.LASF228
 238 0010 0C       		.byte	0xc
 239 0011 CA020000 		.4byte	.LASF229
 240 0015 53060000 		.4byte	.LASF230
 241 0019 00000000 		.4byte	.Ldebug_ranges0+0
 242 001d 00000000 		.4byte	0
 243 0021 00000000 		.4byte	.Ldebug_line0
 244 0025 02       		.uleb128 0x2
 245 0026 04       		.byte	0x4
 246 0027 05       		.byte	0x5
 247 0028 696E7400 		.ascii	"int\000"
 248 002c 03       		.uleb128 0x3
 249 002d 5E040000 		.4byte	.LASF2
 250 0031 02       		.byte	0x2
 251 0032 D8       		.byte	0xd8
 252 0033 37000000 		.4byte	0x37
 253 0037 04       		.uleb128 0x4
 254 0038 04       		.byte	0x4
 255 0039 07       		.byte	0x7
 256 003a 73010000 		.4byte	.LASF0
 257 003e 04       		.uleb128 0x4
 258 003f 01       		.byte	0x1
 259 0040 06       		.byte	0x6
 260 0041 A6090000 		.4byte	.LASF1
 261 0045 03       		.uleb128 0x3
 262 0046 1A080000 		.4byte	.LASF3
 263 004a 03       		.byte	0x3
 264 004b 2B       		.byte	0x2b
 265 004c 50000000 		.4byte	0x50
 266 0050 04       		.uleb128 0x4
 267 0051 01       		.byte	0x1
 268 0052 08       		.byte	0x8
 269 0053 E6080000 		.4byte	.LASF4
 270 0057 04       		.uleb128 0x4
 271 0058 02       		.byte	0x2
 272 0059 05       		.byte	0x5
 273 005a 87070000 		.4byte	.LASF5
 274 005e 03       		.uleb128 0x3
 275 005f D4030000 		.4byte	.LASF6
 276 0063 03       		.byte	0x3
 277 0064 39       		.byte	0x39
 278 0065 69000000 		.4byte	0x69
 279 0069 04       		.uleb128 0x4
 280 006a 02       		.byte	0x2
 281 006b 07       		.byte	0x7
ARM GAS  /var/folders/t8/16hdwfmd2fg_d3q6dgx6bpmw0000gn/T//ccm0pgcU.s 			page 6


 282 006c B8090000 		.4byte	.LASF7
 283 0070 03       		.uleb128 0x3
 284 0071 B7010000 		.4byte	.LASF8
 285 0075 03       		.byte	0x3
 286 0076 4D       		.byte	0x4d
 287 0077 7B000000 		.4byte	0x7b
 288 007b 04       		.uleb128 0x4
 289 007c 04       		.byte	0x4
 290 007d 05       		.byte	0x5
 291 007e 9C070000 		.4byte	.LASF9
 292 0082 03       		.uleb128 0x3
 293 0083 01090000 		.4byte	.LASF10
 294 0087 03       		.byte	0x3
 295 0088 4F       		.byte	0x4f
 296 0089 8D000000 		.4byte	0x8d
 297 008d 04       		.uleb128 0x4
 298 008e 04       		.byte	0x4
 299 008f 07       		.byte	0x7
 300 0090 8E080000 		.4byte	.LASF11
 301 0094 04       		.uleb128 0x4
 302 0095 08       		.byte	0x8
 303 0096 05       		.byte	0x5
 304 0097 C3050000 		.4byte	.LASF12
 305 009b 03       		.uleb128 0x3
 306 009c 91040000 		.4byte	.LASF13
 307 00a0 03       		.byte	0x3
 308 00a1 69       		.byte	0x69
 309 00a2 A6000000 		.4byte	0xa6
 310 00a6 04       		.uleb128 0x4
 311 00a7 08       		.byte	0x8
 312 00a8 07       		.byte	0x7
 313 00a9 85030000 		.4byte	.LASF14
 314 00ad 03       		.uleb128 0x3
 315 00ae 83050000 		.4byte	.LASF15
 316 00b2 04       		.byte	0x4
 317 00b3 18       		.byte	0x18
 318 00b4 45000000 		.4byte	0x45
 319 00b8 05       		.uleb128 0x5
 320 00b9 AD000000 		.4byte	0xad
 321 00bd 03       		.uleb128 0x3
 322 00be 18070000 		.4byte	.LASF16
 323 00c2 04       		.byte	0x4
 324 00c3 24       		.byte	0x24
 325 00c4 5E000000 		.4byte	0x5e
 326 00c8 03       		.uleb128 0x3
 327 00c9 C4080000 		.4byte	.LASF17
 328 00cd 04       		.byte	0x4
 329 00ce 2C       		.byte	0x2c
 330 00cf 70000000 		.4byte	0x70
 331 00d3 03       		.uleb128 0x3
 332 00d4 10030000 		.4byte	.LASF18
 333 00d8 04       		.byte	0x4
 334 00d9 30       		.byte	0x30
 335 00da 82000000 		.4byte	0x82
 336 00de 06       		.uleb128 0x6
 337 00df D3000000 		.4byte	0xd3
 338 00e3 05       		.uleb128 0x5
ARM GAS  /var/folders/t8/16hdwfmd2fg_d3q6dgx6bpmw0000gn/T//ccm0pgcU.s 			page 7


 339 00e4 DE000000 		.4byte	0xde
 340 00e8 03       		.uleb128 0x3
 341 00e9 FE070000 		.4byte	.LASF19
 342 00ed 04       		.byte	0x4
 343 00ee 3C       		.byte	0x3c
 344 00ef 9B000000 		.4byte	0x9b
 345 00f3 03       		.uleb128 0x3
 346 00f4 F4060000 		.4byte	.LASF20
 347 00f8 05       		.byte	0x5
 348 00f9 3C       		.byte	0x3c
 349 00fa AD000000 		.4byte	0xad
 350 00fe 03       		.uleb128 0x3
 351 00ff 65050000 		.4byte	.LASF21
 352 0103 05       		.byte	0x5
 353 0104 3D       		.byte	0x3d
 354 0105 AD000000 		.4byte	0xad
 355 0109 03       		.uleb128 0x3
 356 010a 86080000 		.4byte	.LASF22
 357 010e 05       		.byte	0x5
 358 010f 3E       		.byte	0x3e
 359 0110 AD000000 		.4byte	0xad
 360 0114 03       		.uleb128 0x3
 361 0115 49060000 		.4byte	.LASF23
 362 0119 05       		.byte	0x5
 363 011a 3F       		.byte	0x3f
 364 011b AD000000 		.4byte	0xad
 365 011f 03       		.uleb128 0x3
 366 0120 4A030000 		.4byte	.LASF24
 367 0124 05       		.byte	0x5
 368 0125 40       		.byte	0x40
 369 0126 D3000000 		.4byte	0xd3
 370 012a 03       		.uleb128 0x3
 371 012b D7050000 		.4byte	.LASF25
 372 012f 05       		.byte	0x5
 373 0130 41       		.byte	0x41
 374 0131 C8000000 		.4byte	0xc8
 375 0135 03       		.uleb128 0x3
 376 0136 21030000 		.4byte	.LASF26
 377 013a 05       		.byte	0x5
 378 013b 43       		.byte	0x43
 379 013c D3000000 		.4byte	0xd3
 380 0140 03       		.uleb128 0x3
 381 0141 DF030000 		.4byte	.LASF27
 382 0145 05       		.byte	0x5
 383 0146 45       		.byte	0x45
 384 0147 C8000000 		.4byte	0xc8
 385 014b 03       		.uleb128 0x3
 386 014c 46010000 		.4byte	.LASF28
 387 0150 06       		.byte	0x6
 388 0151 33       		.byte	0x33
 389 0152 D3000000 		.4byte	0xd3
 390 0156 06       		.uleb128 0x6
 391 0157 4B010000 		.4byte	0x14b
 392 015b 03       		.uleb128 0x3
 393 015c 41040000 		.4byte	.LASF29
 394 0160 06       		.byte	0x6
 395 0161 3F       		.byte	0x3f
ARM GAS  /var/folders/t8/16hdwfmd2fg_d3q6dgx6bpmw0000gn/T//ccm0pgcU.s 			page 8


 396 0162 66010000 		.4byte	0x166
 397 0166 07       		.uleb128 0x7
 398 0167 A1050000 		.4byte	.LASF48
 399 016b 44       		.byte	0x44
 400 016c 07       		.byte	0x7
 401 016d 9A       		.byte	0x9a
 402 016e 50020000 		.4byte	0x250
 403 0172 08       		.uleb128 0x8
 404 0173 BE080000 		.4byte	.LASF30
 405 0177 07       		.byte	0x7
 406 0178 9B       		.byte	0x9b
 407 0179 85020000 		.4byte	0x285
 408 017d 00       		.byte	0
 409 017e 08       		.uleb128 0x8
 410 017f 0E050000 		.4byte	.LASF31
 411 0183 07       		.byte	0x7
 412 0184 9C       		.byte	0x9c
 413 0185 1F010000 		.4byte	0x11f
 414 0189 08       		.byte	0x8
 415 018a 09       		.uleb128 0x9
 416 018b 63747800 		.ascii	"ctx\000"
 417 018f 07       		.byte	0x7
 418 0190 9D       		.byte	0x9d
 419 0191 68060000 		.4byte	0x668
 420 0195 0C       		.byte	0xc
 421 0196 08       		.uleb128 0x8
 422 0197 E0080000 		.4byte	.LASF32
 423 019b 07       		.byte	0x7
 424 019c 9F       		.byte	0x9f
 425 019d 5B020000 		.4byte	0x25b
 426 01a1 10       		.byte	0x10
 427 01a2 08       		.uleb128 0x8
 428 01a3 7A0A0000 		.4byte	.LASF33
 429 01a7 07       		.byte	0x7
 430 01a8 A0       		.byte	0xa0
 431 01a9 5B020000 		.4byte	0x25b
 432 01ad 14       		.byte	0x14
 433 01ae 08       		.uleb128 0x8
 434 01af 37080000 		.4byte	.LASF34
 435 01b3 07       		.byte	0x7
 436 01b4 A7       		.byte	0xa7
 437 01b5 C3070000 		.4byte	0x7c3
 438 01b9 18       		.byte	0x18
 439 01ba 08       		.uleb128 0x8
 440 01bb 3D050000 		.4byte	.LASF35
 441 01bf 07       		.byte	0x7
 442 01c0 B0       		.byte	0xb0
 443 01c1 DA070000 		.4byte	0x7da
 444 01c5 1C       		.byte	0x1c
 445 01c6 08       		.uleb128 0x8
 446 01c7 69090000 		.4byte	.LASF36
 447 01cb 07       		.byte	0x7
 448 01cc B5       		.byte	0xb5
 449 01cd FE000000 		.4byte	0xfe
 450 01d1 20       		.byte	0x20
 451 01d2 08       		.uleb128 0x8
 452 01d3 40010000 		.4byte	.LASF37
ARM GAS  /var/folders/t8/16hdwfmd2fg_d3q6dgx6bpmw0000gn/T//ccm0pgcU.s 			page 9


 453 01d7 07       		.byte	0x7
 454 01d8 B9       		.byte	0xb9
 455 01d9 F3000000 		.4byte	0xf3
 456 01dd 21       		.byte	0x21
 457 01de 08       		.uleb128 0x8
 458 01df CC010000 		.4byte	.LASF38
 459 01e3 07       		.byte	0x7
 460 01e4 BE       		.byte	0xbe
 461 01e5 09010000 		.4byte	0x109
 462 01e9 22       		.byte	0x22
 463 01ea 08       		.uleb128 0x8
 464 01eb B1070000 		.4byte	.LASF39
 465 01ef 07       		.byte	0x7
 466 01f0 C4       		.byte	0xc4
 467 01f1 14010000 		.4byte	0x114
 468 01f5 23       		.byte	0x23
 469 01f6 0A       		.uleb128 0xa
 470 01f7 7500     		.ascii	"u\000"
 471 01f9 07       		.byte	0x7
 472 01fa 0F01     		.2byte	0x10f
 473 01fc F8060000 		.4byte	0x6f8
 474 0200 24       		.byte	0x24
 475 0201 0B       		.uleb128 0xb
 476 0202 0C090000 		.4byte	.LASF40
 477 0206 07       		.byte	0x7
 478 0207 1401     		.2byte	0x114
 479 0209 61020000 		.4byte	0x261
 480 020d 28       		.byte	0x28
 481 020e 0B       		.uleb128 0xb
 482 020f 98050000 		.4byte	.LASF41
 483 0213 07       		.byte	0x7
 484 0214 1A01     		.2byte	0x11a
 485 0216 85020000 		.4byte	0x285
 486 021a 2C       		.byte	0x2c
 487 021b 0B       		.uleb128 0xb
 488 021c 6A010000 		.4byte	.LASF42
 489 0220 07       		.byte	0x7
 490 0221 2001     		.2byte	0x120
 491 0223 35010000 		.4byte	0x135
 492 0227 34       		.byte	0x34
 493 0228 0B       		.uleb128 0xb
 494 0229 16040000 		.4byte	.LASF43
 495 022d 07       		.byte	0x7
 496 022e 2701     		.2byte	0x127
 497 0230 BD070000 		.4byte	0x7bd
 498 0234 38       		.byte	0x38
 499 0235 0B       		.uleb128 0xb
 500 0236 50010000 		.4byte	.LASF44
 501 023a 07       		.byte	0x7
 502 023b 2B01     		.2byte	0x12b
 503 023d 1F010000 		.4byte	0x11f
 504 0241 3C       		.byte	0x3c
 505 0242 0B       		.uleb128 0xb
 506 0243 980A0000 		.4byte	.LASF45
 507 0247 07       		.byte	0x7
 508 0248 3201     		.2byte	0x132
 509 024a 38030000 		.4byte	0x338
ARM GAS  /var/folders/t8/16hdwfmd2fg_d3q6dgx6bpmw0000gn/T//ccm0pgcU.s 			page 10


 510 024e 40       		.byte	0x40
 511 024f 00       		.byte	0
 512 0250 03       		.uleb128 0x3
 513 0251 2A050000 		.4byte	.LASF46
 514 0255 06       		.byte	0x6
 515 0256 44       		.byte	0x44
 516 0257 5B020000 		.4byte	0x25b
 517 025b 0C       		.uleb128 0xc
 518 025c 04       		.byte	0x4
 519 025d 5B010000 		.4byte	0x15b
 520 0261 03       		.uleb128 0x3
 521 0262 8D010000 		.4byte	.LASF47
 522 0266 06       		.byte	0x6
 523 0267 49       		.byte	0x49
 524 0268 6C020000 		.4byte	0x26c
 525 026c 07       		.uleb128 0x7
 526 026d 00000000 		.4byte	.LASF49
 527 0271 04       		.byte	0x4
 528 0272 07       		.byte	0x7
 529 0273 88       		.byte	0x88
 530 0274 85020000 		.4byte	0x285
 531 0278 08       		.uleb128 0x8
 532 0279 80010000 		.4byte	.LASF50
 533 027d 07       		.byte	0x7
 534 027e 89       		.byte	0x89
 535 027f 5B020000 		.4byte	0x25b
 536 0283 00       		.byte	0
 537 0284 00       		.byte	0
 538 0285 03       		.uleb128 0x3
 539 0286 00040000 		.4byte	.LASF51
 540 028a 06       		.byte	0x6
 541 028b 50       		.byte	0x50
 542 028c 90020000 		.4byte	0x290
 543 0290 07       		.uleb128 0x7
 544 0291 52020000 		.4byte	.LASF52
 545 0295 08       		.byte	0x8
 546 0296 07       		.byte	0x7
 547 0297 8F       		.byte	0x8f
 548 0298 B5020000 		.4byte	0x2b5
 549 029c 08       		.uleb128 0x8
 550 029d 80010000 		.4byte	.LASF50
 551 02a1 07       		.byte	0x7
 552 02a2 90       		.byte	0x90
 553 02a3 5B020000 		.4byte	0x25b
 554 02a7 00       		.byte	0
 555 02a8 08       		.uleb128 0x8
 556 02a9 4D020000 		.4byte	.LASF53
 557 02ad 07       		.byte	0x7
 558 02ae 91       		.byte	0x91
 559 02af 5B020000 		.4byte	0x25b
 560 02b3 04       		.byte	0x4
 561 02b4 00       		.byte	0
 562 02b5 03       		.uleb128 0x3
 563 02b6 A8080000 		.4byte	.LASF54
 564 02ba 06       		.byte	0x6
 565 02bb 57       		.byte	0x57
 566 02bc C0020000 		.4byte	0x2c0
ARM GAS  /var/folders/t8/16hdwfmd2fg_d3q6dgx6bpmw0000gn/T//ccm0pgcU.s 			page 11


 567 02c0 0D       		.uleb128 0xd
 568 02c1 21020000 		.4byte	.LASF55
 569 02c5 1C       		.byte	0x1c
 570 02c6 07       		.byte	0x7
 571 02c7 6A01     		.2byte	0x16a
 572 02c9 1C030000 		.4byte	0x31c
 573 02cd 0B       		.uleb128 0xb
 574 02ce BE080000 		.4byte	.LASF30
 575 02d2 07       		.byte	0x7
 576 02d3 6B01     		.2byte	0x16b
 577 02d5 85020000 		.4byte	0x285
 578 02d9 00       		.byte	0
 579 02da 0B       		.uleb128 0xb
 580 02db 0E050000 		.4byte	.LASF31
 581 02df 07       		.byte	0x7
 582 02e0 6C01     		.2byte	0x16c
 583 02e2 1F010000 		.4byte	0x11f
 584 02e6 08       		.byte	0x8
 585 02e7 0A       		.uleb128 0xa
 586 02e8 63747800 		.ascii	"ctx\000"
 587 02ec 07       		.byte	0x7
 588 02ed 6E01     		.2byte	0x16e
 589 02ef 68060000 		.4byte	0x668
 590 02f3 0C       		.byte	0xc
 591 02f4 0B       		.uleb128 0xb
 592 02f5 E0080000 		.4byte	.LASF32
 593 02f9 07       		.byte	0x7
 594 02fa 7101     		.2byte	0x171
 595 02fc 5B020000 		.4byte	0x25b
 596 0300 10       		.byte	0x10
 597 0301 0B       		.uleb128 0xb
 598 0302 7A0A0000 		.4byte	.LASF33
 599 0306 07       		.byte	0x7
 600 0307 7201     		.2byte	0x172
 601 0309 5B020000 		.4byte	0x25b
 602 030d 14       		.byte	0x14
 603 030e 0B       		.uleb128 0xb
 604 030f DF090000 		.4byte	.LASF56
 605 0313 07       		.byte	0x7
 606 0314 7501     		.2byte	0x175
 607 0316 5B020000 		.4byte	0x25b
 608 031a 18       		.byte	0x18
 609 031b 00       		.byte	0
 610 031c 03       		.uleb128 0x3
 611 031d 88020000 		.4byte	.LASF57
 612 0321 06       		.byte	0x6
 613 0322 5C       		.byte	0x5c
 614 0323 27030000 		.4byte	0x327
 615 0327 0C       		.uleb128 0xc
 616 0328 04       		.byte	0x4
 617 0329 2D030000 		.4byte	0x32d
 618 032d 0E       		.uleb128 0xe
 619 032e 38030000 		.4byte	0x338
 620 0332 0F       		.uleb128 0xf
 621 0333 38030000 		.4byte	0x338
 622 0337 00       		.byte	0
 623 0338 10       		.uleb128 0x10
ARM GAS  /var/folders/t8/16hdwfmd2fg_d3q6dgx6bpmw0000gn/T//ccm0pgcU.s 			page 12


 624 0339 04       		.byte	0x4
 625 033a 03       		.uleb128 0x3
 626 033b EC050000 		.4byte	.LASF58
 627 033f 06       		.byte	0x6
 628 0340 61       		.byte	0x61
 629 0341 45030000 		.4byte	0x345
 630 0345 0D       		.uleb128 0xd
 631 0346 5B030000 		.4byte	.LASF59
 632 034a 14       		.byte	0x14
 633 034b 07       		.byte	0x7
 634 034c 4501     		.2byte	0x145
 635 034e 94030000 		.4byte	0x394
 636 0352 0B       		.uleb128 0xb
 637 0353 80010000 		.4byte	.LASF50
 638 0357 07       		.byte	0x7
 639 0358 4601     		.2byte	0x146
 640 035a E0070000 		.4byte	0x7e0
 641 035e 00       		.byte	0
 642 035f 0B       		.uleb128 0xb
 643 0360 4D020000 		.4byte	.LASF53
 644 0364 07       		.byte	0x7
 645 0365 4701     		.2byte	0x147
 646 0367 E0070000 		.4byte	0x7e0
 647 036b 04       		.byte	0x4
 648 036c 0B       		.uleb128 0xb
 649 036d B2090000 		.4byte	.LASF60
 650 0371 07       		.byte	0x7
 651 0372 4801     		.2byte	0x148
 652 0374 4B010000 		.4byte	0x14b
 653 0378 08       		.byte	0x8
 654 0379 0B       		.uleb128 0xb
 655 037a 2F020000 		.4byte	.LASF61
 656 037e 07       		.byte	0x7
 657 037f 4901     		.2byte	0x149
 658 0381 1C030000 		.4byte	0x31c
 659 0385 0C       		.byte	0xc
 660 0386 0A       		.uleb128 0xa
 661 0387 70617200 		.ascii	"par\000"
 662 038b 07       		.byte	0x7
 663 038c 4B01     		.2byte	0x14b
 664 038e 38030000 		.4byte	0x338
 665 0392 10       		.byte	0x10
 666 0393 00       		.byte	0
 667 0394 03       		.uleb128 0x3
 668 0395 22090000 		.4byte	.LASF62
 669 0399 06       		.byte	0x6
 670 039a 66       		.byte	0x66
 671 039b 9F030000 		.4byte	0x39f
 672 039f 0D       		.uleb128 0xd
 673 03a0 1E040000 		.4byte	.LASF63
 674 03a4 10       		.byte	0x10
 675 03a5 07       		.byte	0x7
 676 03a6 5501     		.2byte	0x155
 677 03a8 E1030000 		.4byte	0x3e1
 678 03ac 0B       		.uleb128 0xb
 679 03ad 80010000 		.4byte	.LASF50
 680 03b1 07       		.byte	0x7
ARM GAS  /var/folders/t8/16hdwfmd2fg_d3q6dgx6bpmw0000gn/T//ccm0pgcU.s 			page 13


 681 03b2 5601     		.2byte	0x156
 682 03b4 E0070000 		.4byte	0x7e0
 683 03b8 00       		.byte	0
 684 03b9 0B       		.uleb128 0xb
 685 03ba 4D020000 		.4byte	.LASF53
 686 03be 07       		.byte	0x7
 687 03bf 5801     		.2byte	0x158
 688 03c1 E0070000 		.4byte	0x7e0
 689 03c5 04       		.byte	0x4
 690 03c6 0B       		.uleb128 0xb
 691 03c7 B2090000 		.4byte	.LASF60
 692 03cb 07       		.byte	0x7
 693 03cc 5A01     		.2byte	0x15a
 694 03ce 4B010000 		.4byte	0x14b
 695 03d2 08       		.byte	0x8
 696 03d3 0B       		.uleb128 0xb
 697 03d4 FC060000 		.4byte	.LASF64
 698 03d8 07       		.byte	0x7
 699 03d9 5C01     		.2byte	0x15c
 700 03db 56010000 		.4byte	0x156
 701 03df 0C       		.byte	0xc
 702 03e0 00       		.byte	0
 703 03e1 03       		.uleb128 0x3
 704 03e2 B4050000 		.4byte	.LASF65
 705 03e6 06       		.byte	0x6
 706 03e7 6B       		.byte	0x6b
 707 03e8 EC030000 		.4byte	0x3ec
 708 03ec 0D       		.uleb128 0xd
 709 03ed BA020000 		.4byte	.LASF66
 710 03f1 0C       		.byte	0xc
 711 03f2 07       		.byte	0x7
 712 03f3 7C01     		.2byte	0x17c
 713 03f5 21040000 		.4byte	0x421
 714 03f9 0B       		.uleb128 0xb
 715 03fa DC060000 		.4byte	.LASF67
 716 03fe 07       		.byte	0x7
 717 03ff 8401     		.2byte	0x184
 718 0401 C9070000 		.4byte	0x7c9
 719 0405 00       		.byte	0
 720 0406 0B       		.uleb128 0xb
 721 0407 F2030000 		.4byte	.LASF68
 722 040b 07       		.byte	0x7
 723 040c 8901     		.2byte	0x189
 724 040e 40010000 		.4byte	0x140
 725 0412 04       		.byte	0x4
 726 0413 0B       		.uleb128 0xb
 727 0414 45070000 		.4byte	.LASF69
 728 0418 07       		.byte	0x7
 729 0419 8D01     		.2byte	0x18d
 730 041b 40010000 		.4byte	0x140
 731 041f 08       		.byte	0x8
 732 0420 00       		.byte	0
 733 0421 03       		.uleb128 0x3
 734 0422 7C090000 		.4byte	.LASF70
 735 0426 06       		.byte	0x6
 736 0427 70       		.byte	0x70
 737 0428 2C040000 		.4byte	0x42c
ARM GAS  /var/folders/t8/16hdwfmd2fg_d3q6dgx6bpmw0000gn/T//ccm0pgcU.s 			page 14


 738 042c 0D       		.uleb128 0xd
 739 042d EC070000 		.4byte	.LASF71
 740 0431 7C       		.byte	0x7c
 741 0432 07       		.byte	0x7
 742 0433 9C01     		.2byte	0x19c
 743 0435 6E040000 		.4byte	0x46e
 744 0439 0B       		.uleb128 0xb
 745 043a 07080000 		.4byte	.LASF72
 746 043e 07       		.byte	0x7
 747 043f A001     		.2byte	0x1a0
 748 0441 B5020000 		.4byte	0x2b5
 749 0445 00       		.byte	0
 750 0446 0B       		.uleb128 0xb
 751 0447 05020000 		.4byte	.LASF73
 752 044b 07       		.byte	0x7
 753 044c A401     		.2byte	0x1a4
 754 044e 94030000 		.4byte	0x394
 755 0452 1C       		.byte	0x1c
 756 0453 0A       		.uleb128 0xa
 757 0454 64626700 		.ascii	"dbg\000"
 758 0458 07       		.byte	0x7
 759 0459 A801     		.2byte	0x1a8
 760 045b E1030000 		.4byte	0x3e1
 761 045f 2C       		.byte	0x2c
 762 0460 0B       		.uleb128 0xb
 763 0461 04070000 		.4byte	.LASF74
 764 0465 07       		.byte	0x7
 765 0466 AC01     		.2byte	0x1ac
 766 0468 5B010000 		.4byte	0x15b
 767 046c 38       		.byte	0x38
 768 046d 00       		.byte	0
 769 046e 11       		.uleb128 0x11
 770 046f 2003     		.2byte	0x320
 771 0471 08       		.byte	0x8
 772 0472 7801     		.2byte	0x178
 773 0474 00050000 		.4byte	0x500
 774 0478 0B       		.uleb128 0xb
 775 0479 2D030000 		.4byte	.LASF75
 776 047d 08       		.byte	0x8
 777 047e 7A01     		.2byte	0x17a
 778 0480 10050000 		.4byte	0x510
 779 0484 00       		.byte	0
 780 0485 0B       		.uleb128 0xb
 781 0486 55070000 		.4byte	.LASF76
 782 048a 08       		.byte	0x8
 783 048b 7B01     		.2byte	0x17b
 784 048d 15050000 		.4byte	0x515
 785 0491 04       		.byte	0x4
 786 0492 0B       		.uleb128 0xb
 787 0493 53090000 		.4byte	.LASF77
 788 0497 08       		.byte	0x8
 789 0498 7C01     		.2byte	0x17c
 790 049a 10050000 		.4byte	0x510
 791 049e 80       		.byte	0x80
 792 049f 0B       		.uleb128 0xb
 793 04a0 52030000 		.4byte	.LASF78
 794 04a4 08       		.byte	0x8
ARM GAS  /var/folders/t8/16hdwfmd2fg_d3q6dgx6bpmw0000gn/T//ccm0pgcU.s 			page 15


 795 04a5 7D01     		.2byte	0x17d
 796 04a7 15050000 		.4byte	0x515
 797 04ab 84       		.byte	0x84
 798 04ac 12       		.uleb128 0x12
 799 04ad F0090000 		.4byte	.LASF79
 800 04b1 08       		.byte	0x8
 801 04b2 7E01     		.2byte	0x17e
 802 04b4 10050000 		.4byte	0x510
 803 04b8 0001     		.2byte	0x100
 804 04ba 12       		.uleb128 0x12
 805 04bb 69070000 		.4byte	.LASF80
 806 04bf 08       		.byte	0x8
 807 04c0 7F01     		.2byte	0x17f
 808 04c2 15050000 		.4byte	0x515
 809 04c6 0401     		.2byte	0x104
 810 04c8 12       		.uleb128 0x12
 811 04c9 C0060000 		.4byte	.LASF81
 812 04cd 08       		.byte	0x8
 813 04ce 8001     		.2byte	0x180
 814 04d0 10050000 		.4byte	0x510
 815 04d4 8001     		.2byte	0x180
 816 04d6 12       		.uleb128 0x12
 817 04d7 73070000 		.4byte	.LASF82
 818 04db 08       		.byte	0x8
 819 04dc 8101     		.2byte	0x181
 820 04de 15050000 		.4byte	0x515
 821 04e2 8401     		.2byte	0x184
 822 04e4 12       		.uleb128 0x12
 823 04e5 7D070000 		.4byte	.LASF83
 824 04e9 08       		.byte	0x8
 825 04ea 8201     		.2byte	0x182
 826 04ec 25050000 		.4byte	0x525
 827 04f0 0002     		.2byte	0x200
 828 04f2 13       		.uleb128 0x13
 829 04f3 495000   		.ascii	"IP\000"
 830 04f6 08       		.byte	0x8
 831 04f7 8301     		.2byte	0x183
 832 04f9 45050000 		.4byte	0x545
 833 04fd 0003     		.2byte	0x300
 834 04ff 00       		.byte	0
 835 0500 14       		.uleb128 0x14
 836 0501 DE000000 		.4byte	0xde
 837 0505 10050000 		.4byte	0x510
 838 0509 15       		.uleb128 0x15
 839 050a 37000000 		.4byte	0x37
 840 050e 00       		.byte	0
 841 050f 00       		.byte	0
 842 0510 06       		.uleb128 0x6
 843 0511 00050000 		.4byte	0x500
 844 0515 14       		.uleb128 0x14
 845 0516 D3000000 		.4byte	0xd3
 846 051a 25050000 		.4byte	0x525
 847 051e 15       		.uleb128 0x15
 848 051f 37000000 		.4byte	0x37
 849 0523 1E       		.byte	0x1e
 850 0524 00       		.byte	0
 851 0525 14       		.uleb128 0x14
ARM GAS  /var/folders/t8/16hdwfmd2fg_d3q6dgx6bpmw0000gn/T//ccm0pgcU.s 			page 16


 852 0526 D3000000 		.4byte	0xd3
 853 052a 35050000 		.4byte	0x535
 854 052e 15       		.uleb128 0x15
 855 052f 37000000 		.4byte	0x37
 856 0533 3F       		.byte	0x3f
 857 0534 00       		.byte	0
 858 0535 14       		.uleb128 0x14
 859 0536 DE000000 		.4byte	0xde
 860 053a 45050000 		.4byte	0x545
 861 053e 15       		.uleb128 0x15
 862 053f 37000000 		.4byte	0x37
 863 0543 07       		.byte	0x7
 864 0544 00       		.byte	0
 865 0545 06       		.uleb128 0x6
 866 0546 35050000 		.4byte	0x535
 867 054a 16       		.uleb128 0x16
 868 054b 24080000 		.4byte	.LASF84
 869 054f 08       		.byte	0x8
 870 0550 8401     		.2byte	0x184
 871 0552 6E040000 		.4byte	0x46e
 872 0556 17       		.uleb128 0x17
 873 0557 28       		.byte	0x28
 874 0558 08       		.byte	0x8
 875 0559 9301     		.2byte	0x193
 876 055b D5050000 		.4byte	0x5d5
 877 055f 0B       		.uleb128 0xb
 878 0560 71040000 		.4byte	.LASF85
 879 0564 08       		.byte	0x8
 880 0565 9501     		.2byte	0x195
 881 0567 E3000000 		.4byte	0xe3
 882 056b 00       		.byte	0
 883 056c 0B       		.uleb128 0xb
 884 056d 56050000 		.4byte	.LASF86
 885 0571 08       		.byte	0x8
 886 0572 9601     		.2byte	0x196
 887 0574 DE000000 		.4byte	0xde
 888 0578 04       		.byte	0x4
 889 0579 0B       		.uleb128 0xb
 890 057a 6B080000 		.4byte	.LASF87
 891 057e 08       		.byte	0x8
 892 057f 9801     		.2byte	0x198
 893 0581 DE000000 		.4byte	0xde
 894 0585 08       		.byte	0x8
 895 0586 0B       		.uleb128 0xb
 896 0587 6E050000 		.4byte	.LASF88
 897 058b 08       		.byte	0x8
 898 058c 9C01     		.2byte	0x19c
 899 058e DE000000 		.4byte	0xde
 900 0592 0C       		.byte	0xc
 901 0593 0A       		.uleb128 0xa
 902 0594 53435200 		.ascii	"SCR\000"
 903 0598 08       		.byte	0x8
 904 0599 9D01     		.2byte	0x19d
 905 059b DE000000 		.4byte	0xde
 906 059f 10       		.byte	0x10
 907 05a0 0A       		.uleb128 0xa
 908 05a1 43435200 		.ascii	"CCR\000"
ARM GAS  /var/folders/t8/16hdwfmd2fg_d3q6dgx6bpmw0000gn/T//ccm0pgcU.s 			page 17


 909 05a5 08       		.byte	0x8
 910 05a6 9E01     		.2byte	0x19e
 911 05a8 DE000000 		.4byte	0xde
 912 05ac 14       		.byte	0x14
 913 05ad 0B       		.uleb128 0xb
 914 05ae 5F070000 		.4byte	.LASF89
 915 05b2 08       		.byte	0x8
 916 05b3 9F01     		.2byte	0x19f
 917 05b5 D3000000 		.4byte	0xd3
 918 05b9 18       		.byte	0x18
 919 05ba 0A       		.uleb128 0xa
 920 05bb 53485000 		.ascii	"SHP\000"
 921 05bf 08       		.byte	0x8
 922 05c0 A001     		.2byte	0x1a0
 923 05c2 E5050000 		.4byte	0x5e5
 924 05c6 1C       		.byte	0x1c
 925 05c7 0B       		.uleb128 0xb
 926 05c8 D1050000 		.4byte	.LASF90
 927 05cc 08       		.byte	0x8
 928 05cd A101     		.2byte	0x1a1
 929 05cf DE000000 		.4byte	0xde
 930 05d3 24       		.byte	0x24
 931 05d4 00       		.byte	0
 932 05d5 14       		.uleb128 0x14
 933 05d6 DE000000 		.4byte	0xde
 934 05da E5050000 		.4byte	0x5e5
 935 05de 15       		.uleb128 0x15
 936 05df 37000000 		.4byte	0x37
 937 05e3 01       		.byte	0x1
 938 05e4 00       		.byte	0
 939 05e5 06       		.uleb128 0x6
 940 05e6 D5050000 		.4byte	0x5d5
 941 05ea 16       		.uleb128 0x16
 942 05eb 2E080000 		.4byte	.LASF91
 943 05ef 08       		.byte	0x8
 944 05f0 A201     		.2byte	0x1a2
 945 05f2 56050000 		.4byte	0x556
 946 05f6 18       		.uleb128 0x18
 947 05f7 18       		.byte	0x18
 948 05f8 09       		.byte	0x9
 949 05f9 C5       		.byte	0xc5
 950 05fa 47060000 		.4byte	0x647
 951 05fe 08       		.uleb128 0x8
 952 05ff 2E0A0000 		.4byte	.LASF92
 953 0603 09       		.byte	0x9
 954 0604 C7       		.byte	0xc7
 955 0605 DE000000 		.4byte	0xde
 956 0609 00       		.byte	0
 957 060a 08       		.uleb128 0x8
 958 060b A1090000 		.4byte	.LASF93
 959 060f 09       		.byte	0x9
 960 0610 C8       		.byte	0xc8
 961 0611 DE000000 		.4byte	0xde
 962 0615 04       		.byte	0x4
 963 0616 08       		.uleb128 0x8
 964 0617 25060000 		.4byte	.LASF94
 965 061b 09       		.byte	0x9
ARM GAS  /var/folders/t8/16hdwfmd2fg_d3q6dgx6bpmw0000gn/T//ccm0pgcU.s 			page 18


 966 061c C9       		.byte	0xc9
 967 061d DE000000 		.4byte	0xde
 968 0621 08       		.byte	0x8
 969 0622 08       		.uleb128 0x8
 970 0623 3C040000 		.4byte	.LASF95
 971 0627 09       		.byte	0x9
 972 0628 CA       		.byte	0xca
 973 0629 DE000000 		.4byte	0xde
 974 062d 0C       		.byte	0xc
 975 062e 08       		.uleb128 0x8
 976 062f 32060000 		.4byte	.LASF96
 977 0633 09       		.byte	0x9
 978 0634 CB       		.byte	0xcb
 979 0635 DE000000 		.4byte	0xde
 980 0639 10       		.byte	0x10
 981 063a 08       		.uleb128 0x8
 982 063b 80030000 		.4byte	.LASF97
 983 063f 09       		.byte	0x9
 984 0640 CC       		.byte	0xcc
 985 0641 DE000000 		.4byte	0xde
 986 0645 14       		.byte	0x14
 987 0646 00       		.byte	0
 988 0647 03       		.uleb128 0x3
 989 0648 53080000 		.4byte	.LASF98
 990 064c 09       		.byte	0x9
 991 064d CD       		.byte	0xcd
 992 064e F6050000 		.4byte	0x5f6
 993 0652 03       		.uleb128 0x3
 994 0653 09010000 		.4byte	.LASF99
 995 0657 0A       		.byte	0xa
 996 0658 65       		.byte	0x65
 997 0659 38030000 		.4byte	0x338
 998 065d 03       		.uleb128 0x3
 999 065e CB090000 		.4byte	.LASF100
 1000 0662 0A       		.byte	0xa
 1001 0663 6D       		.byte	0x6d
 1002 0664 E8000000 		.4byte	0xe8
 1003 0668 07       		.uleb128 0x7
 1004 0669 14020000 		.4byte	.LASF101
 1005 066d 04       		.byte	0x4
 1006 066e 0A       		.byte	0xa
 1007 066f 89       		.byte	0x89
 1008 0670 80060000 		.4byte	0x680
 1009 0674 09       		.uleb128 0x9
 1010 0675 737000   		.ascii	"sp\000"
 1011 0678 0A       		.byte	0xa
 1012 0679 8A       		.byte	0x8a
 1013 067a F2060000 		.4byte	0x6f2
 1014 067e 00       		.byte	0
 1015 067f 00       		.byte	0
 1016 0680 07       		.uleb128 0x7
 1017 0681 A5070000 		.4byte	.LASF102
 1018 0685 24       		.byte	0x24
 1019 0686 0B       		.byte	0xb
 1020 0687 C3       		.byte	0xc3
 1021 0688 F2060000 		.4byte	0x6f2
 1022 068c 09       		.uleb128 0x9
ARM GAS  /var/folders/t8/16hdwfmd2fg_d3q6dgx6bpmw0000gn/T//ccm0pgcU.s 			page 19


 1023 068d 723800   		.ascii	"r8\000"
 1024 0690 0B       		.byte	0xb
 1025 0691 C4       		.byte	0xc4
 1026 0692 52060000 		.4byte	0x652
 1027 0696 00       		.byte	0
 1028 0697 09       		.uleb128 0x9
 1029 0698 723900   		.ascii	"r9\000"
 1030 069b 0B       		.byte	0xb
 1031 069c C5       		.byte	0xc5
 1032 069d 52060000 		.4byte	0x652
 1033 06a1 04       		.byte	0x4
 1034 06a2 09       		.uleb128 0x9
 1035 06a3 72313000 		.ascii	"r10\000"
 1036 06a7 0B       		.byte	0xb
 1037 06a8 C6       		.byte	0xc6
 1038 06a9 52060000 		.4byte	0x652
 1039 06ad 08       		.byte	0x8
 1040 06ae 09       		.uleb128 0x9
 1041 06af 72313100 		.ascii	"r11\000"
 1042 06b3 0B       		.byte	0xb
 1043 06b4 C7       		.byte	0xc7
 1044 06b5 52060000 		.4byte	0x652
 1045 06b9 0C       		.byte	0xc
 1046 06ba 09       		.uleb128 0x9
 1047 06bb 723400   		.ascii	"r4\000"
 1048 06be 0B       		.byte	0xb
 1049 06bf C8       		.byte	0xc8
 1050 06c0 52060000 		.4byte	0x652
 1051 06c4 10       		.byte	0x10
 1052 06c5 09       		.uleb128 0x9
 1053 06c6 723500   		.ascii	"r5\000"
 1054 06c9 0B       		.byte	0xb
 1055 06ca C9       		.byte	0xc9
 1056 06cb 52060000 		.4byte	0x652
 1057 06cf 14       		.byte	0x14
 1058 06d0 09       		.uleb128 0x9
 1059 06d1 723600   		.ascii	"r6\000"
 1060 06d4 0B       		.byte	0xb
 1061 06d5 CA       		.byte	0xca
 1062 06d6 52060000 		.4byte	0x652
 1063 06da 18       		.byte	0x18
 1064 06db 09       		.uleb128 0x9
 1065 06dc 723700   		.ascii	"r7\000"
 1066 06df 0B       		.byte	0xb
 1067 06e0 CB       		.byte	0xcb
 1068 06e1 52060000 		.4byte	0x652
 1069 06e5 1C       		.byte	0x1c
 1070 06e6 09       		.uleb128 0x9
 1071 06e7 6C7200   		.ascii	"lr\000"
 1072 06ea 0B       		.byte	0xb
 1073 06eb CC       		.byte	0xcc
 1074 06ec 52060000 		.4byte	0x652
 1075 06f0 20       		.byte	0x20
 1076 06f1 00       		.byte	0
 1077 06f2 0C       		.uleb128 0xc
 1078 06f3 04       		.byte	0x4
 1079 06f4 80060000 		.4byte	0x680
ARM GAS  /var/folders/t8/16hdwfmd2fg_d3q6dgx6bpmw0000gn/T//ccm0pgcU.s 			page 20


 1080 06f8 19       		.uleb128 0x19
 1081 06f9 04       		.byte	0x4
 1082 06fa 07       		.byte	0x7
 1083 06fb D2       		.byte	0xd2
 1084 06fc 5B070000 		.4byte	0x75b
 1085 0700 1A       		.uleb128 0x1a
 1086 0701 65040000 		.4byte	.LASF103
 1087 0705 07       		.byte	0x7
 1088 0706 D9       		.byte	0xd9
 1089 0707 2A010000 		.4byte	0x12a
 1090 070b 1A       		.uleb128 0x1a
 1091 070c 800A0000 		.4byte	.LASF104
 1092 0710 07       		.byte	0x7
 1093 0711 E0       		.byte	0xe0
 1094 0712 2A010000 		.4byte	0x12a
 1095 0716 1A       		.uleb128 0x1a
 1096 0717 F5010000 		.4byte	.LASF105
 1097 071b 07       		.byte	0x7
 1098 071c E7       		.byte	0xe7
 1099 071d 38030000 		.4byte	0x338
 1100 0721 1A       		.uleb128 0x1a
 1101 0722 8F090000 		.4byte	.LASF106
 1102 0726 07       		.byte	0x7
 1103 0727 EE       		.byte	0xee
 1104 0728 5B070000 		.4byte	0x75b
 1105 072c 1A       		.uleb128 0x1a
 1106 072d 19030000 		.4byte	.LASF107
 1107 0731 07       		.byte	0x7
 1108 0732 F3       		.byte	0xf3
 1109 0733 2A010000 		.4byte	0x12a
 1110 0737 1A       		.uleb128 0x1a
 1111 0738 88090000 		.4byte	.LASF108
 1112 073c 07       		.byte	0x7
 1113 073d FC       		.byte	0xfc
 1114 073e 86070000 		.4byte	0x786
 1115 0742 1B       		.uleb128 0x1b
 1116 0743 02010000 		.4byte	.LASF109
 1117 0747 07       		.byte	0x7
 1118 0748 0501     		.2byte	0x105
 1119 074a BD070000 		.4byte	0x7bd
 1120 074e 1B       		.uleb128 0x1b
 1121 074f 34020000 		.4byte	.LASF110
 1122 0753 07       		.byte	0x7
 1123 0754 0D01     		.2byte	0x10d
 1124 0756 35010000 		.4byte	0x135
 1125 075a 00       		.byte	0
 1126 075b 0C       		.uleb128 0xc
 1127 075c 04       		.byte	0x4
 1128 075d 50020000 		.4byte	0x250
 1129 0761 07       		.uleb128 0x7
 1130 0762 3D030000 		.4byte	.LASF111
 1131 0766 0C       		.byte	0xc
 1132 0767 0C       		.byte	0xc
 1133 0768 34       		.byte	0x34
 1134 0769 86070000 		.4byte	0x786
 1135 076d 08       		.uleb128 0x8
 1136 076e BE080000 		.4byte	.LASF30
ARM GAS  /var/folders/t8/16hdwfmd2fg_d3q6dgx6bpmw0000gn/T//ccm0pgcU.s 			page 21


 1137 0772 0C       		.byte	0xc
 1138 0773 35       		.byte	0x35
 1139 0774 85020000 		.4byte	0x285
 1140 0778 00       		.byte	0
 1141 0779 09       		.uleb128 0x9
 1142 077a 636E7400 		.ascii	"cnt\000"
 1143 077e 0C       		.byte	0xc
 1144 077f 37       		.byte	0x37
 1145 0780 40010000 		.4byte	0x140
 1146 0784 08       		.byte	0x8
 1147 0785 00       		.byte	0
 1148 0786 0C       		.uleb128 0xc
 1149 0787 04       		.byte	0x4
 1150 0788 61070000 		.4byte	0x761
 1151 078c 07       		.uleb128 0x7
 1152 078d 88040000 		.4byte	.LASF112
 1153 0791 10       		.byte	0x10
 1154 0792 0D       		.byte	0xd
 1155 0793 39       		.byte	0x39
 1156 0794 BD070000 		.4byte	0x7bd
 1157 0798 08       		.uleb128 0x8
 1158 0799 BE080000 		.4byte	.LASF30
 1159 079d 0D       		.byte	0xd
 1160 079e 3A       		.byte	0x3a
 1161 079f 85020000 		.4byte	0x285
 1162 07a3 00       		.byte	0
 1163 07a4 08       		.uleb128 0x8
 1164 07a5 FA030000 		.4byte	.LASF113
 1165 07a9 0D       		.byte	0xd
 1166 07aa 3C       		.byte	0x3c
 1167 07ab 5B020000 		.4byte	0x25b
 1168 07af 08       		.byte	0x8
 1169 07b0 08       		.uleb128 0x8
 1170 07b1 80010000 		.4byte	.LASF50
 1171 07b5 0D       		.byte	0xd
 1172 07b6 3E       		.byte	0x3e
 1173 07b7 1F090000 		.4byte	0x91f
 1174 07bb 0C       		.byte	0xc
 1175 07bc 00       		.byte	0
 1176 07bd 0C       		.uleb128 0xc
 1177 07be 04       		.byte	0x4
 1178 07bf 8C070000 		.4byte	0x78c
 1179 07c3 0C       		.uleb128 0xc
 1180 07c4 04       		.byte	0x4
 1181 07c5 D5070000 		.4byte	0x7d5
 1182 07c9 06       		.uleb128 0x6
 1183 07ca C3070000 		.4byte	0x7c3
 1184 07ce 04       		.uleb128 0x4
 1185 07cf 01       		.byte	0x1
 1186 07d0 08       		.byte	0x8
 1187 07d1 25050000 		.4byte	.LASF114
 1188 07d5 05       		.uleb128 0x5
 1189 07d6 CE070000 		.4byte	0x7ce
 1190 07da 0C       		.uleb128 0xc
 1191 07db 04       		.byte	0x4
 1192 07dc 5D060000 		.4byte	0x65d
 1193 07e0 0C       		.uleb128 0xc
ARM GAS  /var/folders/t8/16hdwfmd2fg_d3q6dgx6bpmw0000gn/T//ccm0pgcU.s 			page 22


 1194 07e1 04       		.byte	0x4
 1195 07e2 3A030000 		.4byte	0x33a
 1196 07e6 1C       		.uleb128 0x1c
 1197 07e7 636800   		.ascii	"ch\000"
 1198 07ea 07       		.byte	0x7
 1199 07eb D201     		.2byte	0x1d2
 1200 07ed 21040000 		.4byte	0x421
 1201 07f1 14       		.uleb128 0x14
 1202 07f2 5D060000 		.4byte	0x65d
 1203 07f6 FC070000 		.4byte	0x7fc
 1204 07fa 1D       		.uleb128 0x1d
 1205 07fb 00       		.byte	0
 1206 07fc 1E       		.uleb128 0x1e
 1207 07fd 44050000 		.4byte	.LASF115
 1208 0801 0F       		.byte	0xf
 1209 0802 2B01     		.2byte	0x12b
 1210 0804 F1070000 		.4byte	0x7f1
 1211 0808 18       		.uleb128 0x18
 1212 0809 16       		.byte	0x16
 1213 080a 0E       		.byte	0xe
 1214 080b 34       		.byte	0x34
 1215 080c E9080000 		.4byte	0x8e9
 1216 0810 08       		.uleb128 0x8
 1217 0811 60080000 		.4byte	.LASF116
 1218 0815 0E       		.byte	0xe
 1219 0816 35       		.byte	0x35
 1220 0817 E9080000 		.4byte	0x8e9
 1221 081b 00       		.byte	0
 1222 081c 08       		.uleb128 0x8
 1223 081d A6010000 		.4byte	.LASF117
 1224 0821 0E       		.byte	0xe
 1225 0822 36       		.byte	0x36
 1226 0823 AD000000 		.4byte	0xad
 1227 0827 04       		.byte	0x4
 1228 0828 08       		.uleb128 0x8
 1229 0829 20060000 		.4byte	.LASF118
 1230 082d 0E       		.byte	0xe
 1231 082e 37       		.byte	0x37
 1232 082f AD000000 		.4byte	0xad
 1233 0833 05       		.byte	0x5
 1234 0834 08       		.uleb128 0x8
 1235 0835 85010000 		.4byte	.LASF119
 1236 0839 0E       		.byte	0xe
 1237 083a 38       		.byte	0x38
 1238 083b BD000000 		.4byte	0xbd
 1239 083f 06       		.byte	0x6
 1240 0840 08       		.uleb128 0x8
 1241 0841 2A060000 		.4byte	.LASF120
 1242 0845 0E       		.byte	0xe
 1243 0846 39       		.byte	0x39
 1244 0847 AD000000 		.4byte	0xad
 1245 084b 08       		.byte	0x8
 1246 084c 08       		.uleb128 0x8
 1247 084d 10000000 		.4byte	.LASF121
 1248 0851 0E       		.byte	0xe
 1249 0852 3A       		.byte	0x3a
 1250 0853 AD000000 		.4byte	0xad
ARM GAS  /var/folders/t8/16hdwfmd2fg_d3q6dgx6bpmw0000gn/T//ccm0pgcU.s 			page 23


 1251 0857 09       		.byte	0x9
 1252 0858 08       		.uleb128 0x8
 1253 0859 32030000 		.4byte	.LASF122
 1254 085d 0E       		.byte	0xe
 1255 085e 3B       		.byte	0x3b
 1256 085f AD000000 		.4byte	0xad
 1257 0863 0A       		.byte	0xa
 1258 0864 08       		.uleb128 0x8
 1259 0865 2B070000 		.4byte	.LASF123
 1260 0869 0E       		.byte	0xe
 1261 086a 3C       		.byte	0x3c
 1262 086b AD000000 		.4byte	0xad
 1263 086f 0B       		.byte	0xb
 1264 0870 08       		.uleb128 0x8
 1265 0871 E0040000 		.4byte	.LASF124
 1266 0875 0E       		.byte	0xe
 1267 0876 3D       		.byte	0x3d
 1268 0877 AD000000 		.4byte	0xad
 1269 087b 0C       		.byte	0xc
 1270 087c 08       		.uleb128 0x8
 1271 087d 7E020000 		.4byte	.LASF125
 1272 0881 0E       		.byte	0xe
 1273 0882 3E       		.byte	0x3e
 1274 0883 AD000000 		.4byte	0xad
 1275 0887 0D       		.byte	0xd
 1276 0888 08       		.uleb128 0x8
 1277 0889 4A040000 		.4byte	.LASF126
 1278 088d 0E       		.byte	0xe
 1279 088e 3F       		.byte	0x3f
 1280 088f AD000000 		.4byte	0xad
 1281 0893 0E       		.byte	0xe
 1282 0894 08       		.uleb128 0x8
 1283 0895 AB050000 		.4byte	.LASF127
 1284 0899 0E       		.byte	0xe
 1285 089a 40       		.byte	0x40
 1286 089b AD000000 		.4byte	0xad
 1287 089f 0F       		.byte	0xf
 1288 08a0 08       		.uleb128 0x8
 1289 08a1 E5030000 		.4byte	.LASF128
 1290 08a5 0E       		.byte	0xe
 1291 08a6 41       		.byte	0x41
 1292 08a7 AD000000 		.4byte	0xad
 1293 08ab 10       		.byte	0x10
 1294 08ac 08       		.uleb128 0x8
 1295 08ad 54040000 		.4byte	.LASF129
 1296 08b1 0E       		.byte	0xe
 1297 08b2 42       		.byte	0x42
 1298 08b3 AD000000 		.4byte	0xad
 1299 08b7 11       		.byte	0x11
 1300 08b8 08       		.uleb128 0x8
 1301 08b9 04050000 		.4byte	.LASF130
 1302 08bd 0E       		.byte	0xe
 1303 08be 43       		.byte	0x43
 1304 08bf AD000000 		.4byte	0xad
 1305 08c3 12       		.byte	0x12
 1306 08c4 08       		.uleb128 0x8
 1307 08c5 D6090000 		.4byte	.LASF131
ARM GAS  /var/folders/t8/16hdwfmd2fg_d3q6dgx6bpmw0000gn/T//ccm0pgcU.s 			page 24


 1308 08c9 0E       		.byte	0xe
 1309 08ca 44       		.byte	0x44
 1310 08cb AD000000 		.4byte	0xad
 1311 08cf 13       		.byte	0x13
 1312 08d0 08       		.uleb128 0x8
 1313 08d1 70080000 		.4byte	.LASF132
 1314 08d5 0E       		.byte	0xe
 1315 08d6 45       		.byte	0x45
 1316 08d7 AD000000 		.4byte	0xad
 1317 08db 14       		.byte	0x14
 1318 08dc 08       		.uleb128 0x8
 1319 08dd DA010000 		.4byte	.LASF133
 1320 08e1 0E       		.byte	0xe
 1321 08e2 46       		.byte	0x46
 1322 08e3 AD000000 		.4byte	0xad
 1323 08e7 15       		.byte	0x15
 1324 08e8 00       		.byte	0
 1325 08e9 14       		.uleb128 0x14
 1326 08ea CE070000 		.4byte	0x7ce
 1327 08ee F9080000 		.4byte	0x8f9
 1328 08f2 15       		.uleb128 0x15
 1329 08f3 37000000 		.4byte	0x37
 1330 08f7 03       		.byte	0x3
 1331 08f8 00       		.byte	0
 1332 08f9 03       		.uleb128 0x3
 1333 08fa 21070000 		.4byte	.LASF134
 1334 08fe 0E       		.byte	0xe
 1335 08ff 47       		.byte	0x47
 1336 0900 08080000 		.4byte	0x808
 1337 0904 05       		.uleb128 0x5
 1338 0905 F9080000 		.4byte	0x8f9
 1339 0909 1F       		.uleb128 0x1f
 1340 090a F5090000 		.4byte	.LASF135
 1341 090e 0E       		.byte	0xe
 1342 090f 6C       		.byte	0x6c
 1343 0910 04090000 		.4byte	0x904
 1344 0914 03       		.uleb128 0x3
 1345 0915 D8080000 		.4byte	.LASF136
 1346 0919 0D       		.byte	0xd
 1347 091a 34       		.byte	0x34
 1348 091b 8C070000 		.4byte	0x78c
 1349 091f 0C       		.uleb128 0xc
 1350 0920 04       		.byte	0x4
 1351 0921 14090000 		.4byte	0x914
 1352 0925 0C       		.uleb128 0xc
 1353 0926 04       		.byte	0x4
 1354 0927 B8000000 		.4byte	0xb8
 1355 092b 0C       		.uleb128 0xc
 1356 092c 04       		.byte	0x4
 1357 092d AD000000 		.4byte	0xad
 1358 0931 04       		.uleb128 0x4
 1359 0932 01       		.byte	0x1
 1360 0933 02       		.byte	0x2
 1361 0934 82040000 		.4byte	.LASF137
 1362 0938 03       		.uleb128 0x3
 1363 0939 FC050000 		.4byte	.LASF138
 1364 093d 10       		.byte	0x10
ARM GAS  /var/folders/t8/16hdwfmd2fg_d3q6dgx6bpmw0000gn/T//ccm0pgcU.s 			page 25


 1365 093e 46       		.byte	0x46
 1366 093f D3000000 		.4byte	0xd3
 1367 0943 03       		.uleb128 0x3
 1368 0944 E8040000 		.4byte	.LASF139
 1369 0948 10       		.byte	0x10
 1370 0949 53       		.byte	0x53
 1371 094a 4E090000 		.4byte	0x94e
 1372 094e 0C       		.uleb128 0xc
 1373 094f 04       		.byte	0x4
 1374 0950 47060000 		.4byte	0x647
 1375 0954 18       		.uleb128 0x18
 1376 0955 84       		.byte	0x84
 1377 0956 10       		.byte	0x10
 1378 0957 5A       		.byte	0x5a
 1379 0958 75090000 		.4byte	0x975
 1380 095c 08       		.uleb128 0x8
 1381 095d CC080000 		.4byte	.LASF140
 1382 0961 10       		.byte	0x10
 1383 0962 5B       		.byte	0x5b
 1384 0963 43090000 		.4byte	0x943
 1385 0967 00       		.byte	0
 1386 0968 08       		.uleb128 0x8
 1387 0969 6C040000 		.4byte	.LASF141
 1388 096d 10       		.byte	0x10
 1389 096e 5C       		.byte	0x5c
 1390 096f 75090000 		.4byte	0x975
 1391 0973 04       		.byte	0x4
 1392 0974 00       		.byte	0
 1393 0975 14       		.uleb128 0x14
 1394 0976 38090000 		.4byte	0x938
 1395 097a 85090000 		.4byte	0x985
 1396 097e 15       		.uleb128 0x15
 1397 097f 37000000 		.4byte	0x37
 1398 0983 1F       		.byte	0x1f
 1399 0984 00       		.byte	0
 1400 0985 03       		.uleb128 0x3
 1401 0986 330A0000 		.4byte	.LASF142
 1402 098a 10       		.byte	0x10
 1403 098b 5D       		.byte	0x5d
 1404 098c 54090000 		.4byte	0x954
 1405 0990 20       		.uleb128 0x20
 1406 0991 9402     		.2byte	0x294
 1407 0993 10       		.byte	0x10
 1408 0994 68       		.byte	0x68
 1409 0995 A6090000 		.4byte	0x9a6
 1410 0999 08       		.uleb128 0x8
 1411 099a 95090000 		.4byte	.LASF143
 1412 099e 10       		.byte	0x10
 1413 099f 69       		.byte	0x69
 1414 09a0 A6090000 		.4byte	0x9a6
 1415 09a4 00       		.byte	0
 1416 09a5 00       		.byte	0
 1417 09a6 14       		.uleb128 0x14
 1418 09a7 85090000 		.4byte	0x985
 1419 09ab B6090000 		.4byte	0x9b6
 1420 09af 15       		.uleb128 0x15
 1421 09b0 37000000 		.4byte	0x37
ARM GAS  /var/folders/t8/16hdwfmd2fg_d3q6dgx6bpmw0000gn/T//ccm0pgcU.s 			page 26


 1422 09b4 04       		.byte	0x4
 1423 09b5 00       		.byte	0
 1424 09b6 03       		.uleb128 0x3
 1425 09b7 7C080000 		.4byte	.LASF144
 1426 09bb 10       		.byte	0x10
 1427 09bc 6A       		.byte	0x6a
 1428 09bd 90090000 		.4byte	0x990
 1429 09c1 05       		.uleb128 0x5
 1430 09c2 B6090000 		.4byte	0x9b6
 1431 09c6 1E       		.uleb128 0x1e
 1432 09c7 AE040000 		.4byte	.LASF145
 1433 09cb 10       		.byte	0x10
 1434 09cc 8D01     		.2byte	0x18d
 1435 09ce C1090000 		.4byte	0x9c1
 1436 09d2 16       		.uleb128 0x16
 1437 09d3 9C010000 		.4byte	.LASF146
 1438 09d7 11       		.byte	0x11
 1439 09d8 0001     		.2byte	0x100
 1440 09da DE090000 		.4byte	0x9de
 1441 09de 0D       		.uleb128 0xd
 1442 09df 9C010000 		.4byte	.LASF146
 1443 09e3 E8       		.byte	0xe8
 1444 09e4 12       		.byte	0x12
 1445 09e5 0601     		.2byte	0x106
 1446 09e7 C90A0000 		.4byte	0xac9
 1447 09eb 0B       		.uleb128 0xb
 1448 09ec 69090000 		.4byte	.LASF36
 1449 09f0 12       		.byte	0x12
 1450 09f1 0A01     		.2byte	0x10a
 1451 09f3 080B0000 		.4byte	0xb08
 1452 09f7 00       		.byte	0
 1453 09f8 0B       		.uleb128 0xb
 1454 09f9 4E070000 		.4byte	.LASF147
 1455 09fd 12       		.byte	0x12
 1456 09fe 0E01     		.2byte	0x10e
 1457 0a00 3C0E0000 		.4byte	0xe3c
 1458 0a04 04       		.byte	0x4
 1459 0a05 0B       		.uleb128 0xb
 1460 0a06 A2030000 		.4byte	.LASF148
 1461 0a0a 12       		.byte	0x12
 1462 0a0b 1201     		.2byte	0x112
 1463 0a0d BD000000 		.4byte	0xbd
 1464 0a11 08       		.byte	0x8
 1465 0a12 0B       		.uleb128 0xb
 1466 0a13 C1030000 		.4byte	.LASF149
 1467 0a17 12       		.byte	0x12
 1468 0a18 1601     		.2byte	0x116
 1469 0a1a BD000000 		.4byte	0xbd
 1470 0a1e 0A       		.byte	0xa
 1471 0a1f 0A       		.uleb128 0xa
 1472 0a20 65706300 		.ascii	"epc\000"
 1473 0a24 12       		.byte	0x12
 1474 0a25 1A01     		.2byte	0x11a
 1475 0a27 420E0000 		.4byte	0xe42
 1476 0a2b 0C       		.byte	0xc
 1477 0a2c 0B       		.uleb128 0xb
 1478 0a2d 05060000 		.4byte	.LASF150
ARM GAS  /var/folders/t8/16hdwfmd2fg_d3q6dgx6bpmw0000gn/T//ccm0pgcU.s 			page 27


 1479 0a31 12       		.byte	0x12
 1480 0a32 2101     		.2byte	0x121
 1481 0a34 580E0000 		.4byte	0xe58
 1482 0a38 4C       		.byte	0x4c
 1483 0a39 0B       		.uleb128 0xb
 1484 0a3a 91070000 		.4byte	.LASF151
 1485 0a3e 12       		.byte	0x12
 1486 0a3f 2801     		.2byte	0x128
 1487 0a41 580E0000 		.4byte	0xe58
 1488 0a45 88       		.byte	0x88
 1489 0a46 0B       		.uleb128 0xb
 1490 0a47 0F070000 		.4byte	.LASF152
 1491 0a4b 12       		.byte	0x12
 1492 0a4c 2C01     		.2byte	0x12c
 1493 0a4e 4D0B0000 		.4byte	0xb4d
 1494 0a52 C4       		.byte	0xc4
 1495 0a53 0B       		.uleb128 0xb
 1496 0a54 74050000 		.4byte	.LASF153
 1497 0a58 12       		.byte	0x12
 1498 0a59 3001     		.2byte	0x130
 1499 0a5b 2B090000 		.4byte	0x92b
 1500 0a5f C8       		.byte	0xc8
 1501 0a60 0B       		.uleb128 0xb
 1502 0a61 DD050000 		.4byte	.LASF154
 1503 0a65 12       		.byte	0x12
 1504 0a66 3401     		.2byte	0x134
 1505 0a68 2C000000 		.4byte	0x2c
 1506 0a6c CC       		.byte	0xcc
 1507 0a6d 0B       		.uleb128 0xb
 1508 0a6e FC010000 		.4byte	.LASF155
 1509 0a72 12       		.byte	0x12
 1510 0a73 3801     		.2byte	0x138
 1511 0a75 D30B0000 		.4byte	0xbd3
 1512 0a79 D0       		.byte	0xd0
 1513 0a7a 0B       		.uleb128 0xb
 1514 0a7b F4080000 		.4byte	.LASF156
 1515 0a7f 12       		.byte	0x12
 1516 0a80 3C01     		.2byte	0x13c
 1517 0a82 680E0000 		.4byte	0xe68
 1518 0a86 D4       		.byte	0xd4
 1519 0a87 0B       		.uleb128 0xb
 1520 0a88 8B050000 		.4byte	.LASF157
 1521 0a8c 12       		.byte	0x12
 1522 0a8d 4001     		.2byte	0x140
 1523 0a8f BD000000 		.4byte	0xbd
 1524 0a93 DC       		.byte	0xdc
 1525 0a94 0B       		.uleb128 0xb
 1526 0a95 A0080000 		.4byte	.LASF158
 1527 0a99 12       		.byte	0x12
 1528 0a9a 4401     		.2byte	0x144
 1529 0a9c AD000000 		.4byte	0xad
 1530 0aa0 DE       		.byte	0xde
 1531 0aa1 0B       		.uleb128 0xb
 1532 0aa2 A8060000 		.4byte	.LASF159
 1533 0aa6 12       		.byte	0x12
 1534 0aa7 4801     		.2byte	0x148
 1535 0aa9 AD000000 		.4byte	0xad
ARM GAS  /var/folders/t8/16hdwfmd2fg_d3q6dgx6bpmw0000gn/T//ccm0pgcU.s 			page 28


 1536 0aad DF       		.byte	0xdf
 1537 0aae 0B       		.uleb128 0xb
 1538 0aaf CD070000 		.4byte	.LASF160
 1539 0ab3 12       		.byte	0x12
 1540 0ab4 4C01     		.2byte	0x14c
 1541 0ab6 080B0000 		.4byte	0xb08
 1542 0aba E0       		.byte	0xe0
 1543 0abb 0B       		.uleb128 0xb
 1544 0abc FA080000 		.4byte	.LASF161
 1545 0ac0 12       		.byte	0x12
 1546 0ac1 5401     		.2byte	0x154
 1547 0ac3 D3000000 		.4byte	0xd3
 1548 0ac7 E4       		.byte	0xe4
 1549 0ac8 00       		.byte	0
 1550 0ac9 16       		.uleb128 0x16
 1551 0aca 38090000 		.4byte	.LASF162
 1552 0ace 11       		.byte	0x11
 1553 0acf 0501     		.2byte	0x105
 1554 0ad1 AD000000 		.4byte	0xad
 1555 0ad5 21       		.uleb128 0x21
 1556 0ad6 07       		.byte	0x7
 1557 0ad7 01       		.byte	0x1
 1558 0ad8 50000000 		.4byte	0x50
 1559 0adc 11       		.byte	0x11
 1560 0add 0A01     		.2byte	0x10a
 1561 0adf 080B0000 		.4byte	0xb08
 1562 0ae3 22       		.uleb128 0x22
 1563 0ae4 19010000 		.4byte	.LASF163
 1564 0ae8 00       		.byte	0
 1565 0ae9 22       		.uleb128 0x22
 1566 0aea 890A0000 		.4byte	.LASF164
 1567 0aee 01       		.byte	0x1
 1568 0aef 22       		.uleb128 0x22
 1569 0af0 24010000 		.4byte	.LASF165
 1570 0af4 02       		.byte	0x2
 1571 0af5 22       		.uleb128 0x22
 1572 0af6 0D080000 		.4byte	.LASF166
 1573 0afa 03       		.byte	0x3
 1574 0afb 22       		.uleb128 0x22
 1575 0afc 77040000 		.4byte	.LASF167
 1576 0b00 04       		.byte	0x4
 1577 0b01 22       		.uleb128 0x22
 1578 0b02 9A060000 		.4byte	.LASF168
 1579 0b06 05       		.byte	0x5
 1580 0b07 00       		.byte	0
 1581 0b08 16       		.uleb128 0x16
 1582 0b09 D5040000 		.4byte	.LASF169
 1583 0b0d 11       		.byte	0x11
 1584 0b0e 1101     		.2byte	0x111
 1585 0b10 D50A0000 		.4byte	0xad5
 1586 0b14 21       		.uleb128 0x21
 1587 0b15 07       		.byte	0x7
 1588 0b16 01       		.byte	0x1
 1589 0b17 50000000 		.4byte	0x50
 1590 0b1b 11       		.byte	0x11
 1591 0b1c 1F01     		.2byte	0x11f
 1592 0b1e 4D0B0000 		.4byte	0xb4d
ARM GAS  /var/folders/t8/16hdwfmd2fg_d3q6dgx6bpmw0000gn/T//ccm0pgcU.s 			page 29


 1593 0b22 22       		.uleb128 0x22
 1594 0b23 91020000 		.4byte	.LASF170
 1595 0b27 00       		.byte	0
 1596 0b28 22       		.uleb128 0x22
 1597 0b29 C1010000 		.4byte	.LASF171
 1598 0b2d 01       		.byte	0x1
 1599 0b2e 22       		.uleb128 0x22
 1600 0b2f 6C030000 		.4byte	.LASF172
 1601 0b33 02       		.byte	0x2
 1602 0b34 22       		.uleb128 0x22
 1603 0b35 C1040000 		.4byte	.LASF173
 1604 0b39 03       		.byte	0x3
 1605 0b3a 22       		.uleb128 0x22
 1606 0b3b 3E0A0000 		.4byte	.LASF174
 1607 0b3f 04       		.byte	0x4
 1608 0b40 22       		.uleb128 0x22
 1609 0b41 FE090000 		.4byte	.LASF175
 1610 0b45 05       		.byte	0x5
 1611 0b46 22       		.uleb128 0x22
 1612 0b47 14090000 		.4byte	.LASF176
 1613 0b4b 06       		.byte	0x6
 1614 0b4c 00       		.byte	0
 1615 0b4d 16       		.uleb128 0x16
 1616 0b4e 490A0000 		.4byte	.LASF177
 1617 0b52 11       		.byte	0x11
 1618 0b53 2701     		.2byte	0x127
 1619 0b55 140B0000 		.4byte	0xb14
 1620 0b59 21       		.uleb128 0x21
 1621 0b5a 07       		.byte	0x7
 1622 0b5b 01       		.byte	0x1
 1623 0b5c 50000000 		.4byte	0x50
 1624 0b60 11       		.byte	0x11
 1625 0b61 2C01     		.2byte	0x12c
 1626 0b63 920B0000 		.4byte	0xb92
 1627 0b67 22       		.uleb128 0x22
 1628 0b68 63020000 		.4byte	.LASF178
 1629 0b6c 00       		.byte	0
 1630 0b6d 22       		.uleb128 0x22
 1631 0b6e 13050000 		.4byte	.LASF179
 1632 0b72 01       		.byte	0x1
 1633 0b73 22       		.uleb128 0x22
 1634 0b74 570A0000 		.4byte	.LASF180
 1635 0b78 02       		.byte	0x2
 1636 0b79 22       		.uleb128 0x22
 1637 0b7a C5060000 		.4byte	.LASF181
 1638 0b7e 03       		.byte	0x3
 1639 0b7f 22       		.uleb128 0x22
 1640 0b80 2E010000 		.4byte	.LASF182
 1641 0b84 04       		.byte	0x4
 1642 0b85 22       		.uleb128 0x22
 1643 0b86 58090000 		.4byte	.LASF183
 1644 0b8a 05       		.byte	0x5
 1645 0b8b 22       		.uleb128 0x22
 1646 0b8c 37060000 		.4byte	.LASF184
 1647 0b90 06       		.byte	0x6
 1648 0b91 00       		.byte	0
 1649 0b92 16       		.uleb128 0x16
ARM GAS  /var/folders/t8/16hdwfmd2fg_d3q6dgx6bpmw0000gn/T//ccm0pgcU.s 			page 30


 1650 0b93 230A0000 		.4byte	.LASF185
 1651 0b97 11       		.byte	0x11
 1652 0b98 3401     		.2byte	0x134
 1653 0b9a 590B0000 		.4byte	0xb59
 1654 0b9e 17       		.uleb128 0x17
 1655 0b9f 08       		.byte	0x8
 1656 0ba0 11       		.byte	0x11
 1657 0ba1 3901     		.2byte	0x139
 1658 0ba3 C20B0000 		.4byte	0xbc2
 1659 0ba7 0B       		.uleb128 0xb
 1660 0ba8 0C020000 		.4byte	.LASF186
 1661 0bac 11       		.byte	0x11
 1662 0bad 3D01     		.2byte	0x13d
 1663 0baf 2C000000 		.4byte	0x2c
 1664 0bb3 00       		.byte	0
 1665 0bb4 0B       		.uleb128 0xb
 1666 0bb5 49090000 		.4byte	.LASF187
 1667 0bb9 11       		.byte	0x11
 1668 0bba 4101     		.2byte	0x141
 1669 0bbc 25090000 		.4byte	0x925
 1670 0bc0 04       		.byte	0x4
 1671 0bc1 00       		.byte	0
 1672 0bc2 16       		.uleb128 0x16
 1673 0bc3 E6060000 		.4byte	.LASF188
 1674 0bc7 11       		.byte	0x11
 1675 0bc8 4201     		.2byte	0x142
 1676 0bca 9E0B0000 		.4byte	0xb9e
 1677 0bce 05       		.uleb128 0x5
 1678 0bcf C20B0000 		.4byte	0xbc2
 1679 0bd3 16       		.uleb128 0x16
 1680 0bd4 6C0A0000 		.4byte	.LASF189
 1681 0bd8 11       		.byte	0x11
 1682 0bd9 4A01     		.2byte	0x14a
 1683 0bdb DF0B0000 		.4byte	0xbdf
 1684 0bdf 0C       		.uleb128 0xc
 1685 0be0 04       		.byte	0x4
 1686 0be1 E50B0000 		.4byte	0xbe5
 1687 0be5 0E       		.uleb128 0xe
 1688 0be6 F00B0000 		.4byte	0xbf0
 1689 0bea 0F       		.uleb128 0xf
 1690 0beb F00B0000 		.4byte	0xbf0
 1691 0bef 00       		.byte	0
 1692 0bf0 0C       		.uleb128 0xc
 1693 0bf1 04       		.byte	0x4
 1694 0bf2 D2090000 		.4byte	0x9d2
 1695 0bf6 16       		.uleb128 0x16
 1696 0bf7 3C080000 		.4byte	.LASF190
 1697 0bfb 11       		.byte	0x11
 1698 0bfc 5301     		.2byte	0x153
 1699 0bfe 020C0000 		.4byte	0xc02
 1700 0c02 0C       		.uleb128 0xc
 1701 0c03 04       		.byte	0x4
 1702 0c04 080C0000 		.4byte	0xc08
 1703 0c08 0E       		.uleb128 0xe
 1704 0c09 180C0000 		.4byte	0xc18
 1705 0c0d 0F       		.uleb128 0xf
 1706 0c0e F00B0000 		.4byte	0xbf0
ARM GAS  /var/folders/t8/16hdwfmd2fg_d3q6dgx6bpmw0000gn/T//ccm0pgcU.s 			page 31


 1707 0c12 0F       		.uleb128 0xf
 1708 0c13 C90A0000 		.4byte	0xac9
 1709 0c17 00       		.byte	0
 1710 0c18 16       		.uleb128 0x16
 1711 0c19 6F090000 		.4byte	.LASF191
 1712 0c1d 11       		.byte	0x11
 1713 0c1e 5C01     		.2byte	0x15c
 1714 0c20 240C0000 		.4byte	0xc24
 1715 0c24 0C       		.uleb128 0xc
 1716 0c25 04       		.byte	0x4
 1717 0c26 2A0C0000 		.4byte	0xc2a
 1718 0c2a 0E       		.uleb128 0xe
 1719 0c2b 3A0C0000 		.4byte	0xc3a
 1720 0c2f 0F       		.uleb128 0xf
 1721 0c30 F00B0000 		.4byte	0xbf0
 1722 0c34 0F       		.uleb128 0xf
 1723 0c35 920B0000 		.4byte	0xb92
 1724 0c39 00       		.byte	0
 1725 0c3a 16       		.uleb128 0x16
 1726 0c3b 9E0A0000 		.4byte	.LASF192
 1727 0c3f 11       		.byte	0x11
 1728 0c40 6801     		.2byte	0x168
 1729 0c42 460C0000 		.4byte	0xc46
 1730 0c46 0C       		.uleb128 0xc
 1731 0c47 04       		.byte	0x4
 1732 0c48 4C0C0000 		.4byte	0xc4c
 1733 0c4c 23       		.uleb128 0x23
 1734 0c4d 31090000 		.4byte	0x931
 1735 0c51 5B0C0000 		.4byte	0xc5b
 1736 0c55 0F       		.uleb128 0xf
 1737 0c56 F00B0000 		.4byte	0xbf0
 1738 0c5a 00       		.byte	0
 1739 0c5b 16       		.uleb128 0x16
 1740 0c5c D9070000 		.4byte	.LASF193
 1741 0c60 11       		.byte	0x11
 1742 0c61 6D01     		.2byte	0x16d
 1743 0c63 670C0000 		.4byte	0xc67
 1744 0c67 0C       		.uleb128 0xc
 1745 0c68 04       		.byte	0x4
 1746 0c69 6D0C0000 		.4byte	0xc6d
 1747 0c6d 23       		.uleb128 0x23
 1748 0c6e 8B0C0000 		.4byte	0xc8b
 1749 0c72 8B0C0000 		.4byte	0xc8b
 1750 0c76 0F       		.uleb128 0xf
 1751 0c77 F00B0000 		.4byte	0xbf0
 1752 0c7b 0F       		.uleb128 0xf
 1753 0c7c AD000000 		.4byte	0xad
 1754 0c80 0F       		.uleb128 0xf
 1755 0c81 AD000000 		.4byte	0xad
 1756 0c85 0F       		.uleb128 0xf
 1757 0c86 BD000000 		.4byte	0xbd
 1758 0c8a 00       		.byte	0
 1759 0c8b 0C       		.uleb128 0xc
 1760 0c8c 04       		.byte	0x4
 1761 0c8d CE0B0000 		.4byte	0xbce
 1762 0c91 18       		.uleb128 0x18
 1763 0c92 14       		.byte	0x14
ARM GAS  /var/folders/t8/16hdwfmd2fg_d3q6dgx6bpmw0000gn/T//ccm0pgcU.s 			page 32


 1764 0c93 12       		.byte	0x12
 1765 0c94 6B       		.byte	0x6b
 1766 0c95 E20C0000 		.4byte	0xce2
 1767 0c99 08       		.uleb128 0x8
 1768 0c9a 12010000 		.4byte	.LASF194
 1769 0c9e 12       		.byte	0x12
 1770 0c9f 6F       		.byte	0x6f
 1771 0ca0 2C000000 		.4byte	0x2c
 1772 0ca4 00       		.byte	0
 1773 0ca5 08       		.uleb128 0x8
 1774 0ca6 9C030000 		.4byte	.LASF195
 1775 0caa 12       		.byte	0x12
 1776 0cab 73       		.byte	0x73
 1777 0cac 2C000000 		.4byte	0x2c
 1778 0cb0 04       		.byte	0x4
 1779 0cb1 08       		.uleb128 0x8
 1780 0cb2 10040000 		.4byte	.LASF196
 1781 0cb6 12       		.byte	0x12
 1782 0cb7 77       		.byte	0x77
 1783 0cb8 25090000 		.4byte	0x925
 1784 0cbc 08       		.byte	0x8
 1785 0cbd 08       		.uleb128 0x8
 1786 0cbe D1080000 		.4byte	.LASF197
 1787 0cc2 12       		.byte	0x12
 1788 0cc3 7C       		.byte	0x7c
 1789 0cc4 50020000 		.4byte	0x250
 1790 0cc8 0C       		.byte	0xc
 1791 0cc9 08       		.uleb128 0x8
 1792 0cca B5080000 		.4byte	.LASF198
 1793 0cce 12       		.byte	0x12
 1794 0ccf 80       		.byte	0x80
 1795 0cd0 31090000 		.4byte	0x931
 1796 0cd4 10       		.byte	0x10
 1797 0cd5 08       		.uleb128 0x8
 1798 0cd6 16060000 		.4byte	.LASF199
 1799 0cda 12       		.byte	0x12
 1800 0cdb 82       		.byte	0x82
 1801 0cdc 31090000 		.4byte	0x931
 1802 0ce0 11       		.byte	0x11
 1803 0ce1 00       		.byte	0
 1804 0ce2 03       		.uleb128 0x3
 1805 0ce3 A7020000 		.4byte	.LASF200
 1806 0ce7 12       		.byte	0x12
 1807 0ce8 83       		.byte	0x83
 1808 0ce9 910C0000 		.4byte	0xc91
 1809 0ced 18       		.uleb128 0x18
 1810 0cee 14       		.byte	0x14
 1811 0cef 12       		.byte	0x12
 1812 0cf0 88       		.byte	0x88
 1813 0cf1 4A0D0000 		.4byte	0xd4a
 1814 0cf5 08       		.uleb128 0x8
 1815 0cf6 4C080000 		.4byte	.LASF201
 1816 0cfa 12       		.byte	0x12
 1817 0cfb 8C       		.byte	0x8c
 1818 0cfc 2C000000 		.4byte	0x2c
 1819 0d00 00       		.byte	0
 1820 0d01 08       		.uleb128 0x8
ARM GAS  /var/folders/t8/16hdwfmd2fg_d3q6dgx6bpmw0000gn/T//ccm0pgcU.s 			page 33


 1821 0d02 120A0000 		.4byte	.LASF202
 1822 0d06 12       		.byte	0x12
 1823 0d07 90       		.byte	0x90
 1824 0d08 2C000000 		.4byte	0x2c
 1825 0d0c 04       		.byte	0x4
 1826 0d0d 08       		.uleb128 0x8
 1827 0d0e 920A0000 		.4byte	.LASF203
 1828 0d12 12       		.byte	0x12
 1829 0d13 94       		.byte	0x94
 1830 0d14 2B090000 		.4byte	0x92b
 1831 0d18 08       		.byte	0x8
 1832 0d19 08       		.uleb128 0x8
 1833 0d1a D1080000 		.4byte	.LASF197
 1834 0d1e 12       		.byte	0x12
 1835 0d1f 99       		.byte	0x99
 1836 0d20 50020000 		.4byte	0x250
 1837 0d24 0C       		.byte	0xc
 1838 0d25 08       		.uleb128 0x8
 1839 0d26 7C050000 		.4byte	.LASF204
 1840 0d2a 12       		.byte	0x12
 1841 0d2b 9F       		.byte	0x9f
 1842 0d2c BD000000 		.4byte	0xbd
 1843 0d30 10       		.byte	0x10
 1844 0d31 08       		.uleb128 0x8
 1845 0d32 B5080000 		.4byte	.LASF198
 1846 0d36 12       		.byte	0x12
 1847 0d37 A1       		.byte	0xa1
 1848 0d38 31090000 		.4byte	0x931
 1849 0d3c 12       		.byte	0x12
 1850 0d3d 08       		.uleb128 0x8
 1851 0d3e 16060000 		.4byte	.LASF199
 1852 0d42 12       		.byte	0x12
 1853 0d43 A3       		.byte	0xa3
 1854 0d44 31090000 		.4byte	0x931
 1855 0d48 13       		.byte	0x13
 1856 0d49 00       		.byte	0
 1857 0d4a 03       		.uleb128 0x3
 1858 0d4b B9070000 		.4byte	.LASF205
 1859 0d4f 12       		.byte	0x12
 1860 0d50 A4       		.byte	0xa4
 1861 0d51 ED0C0000 		.4byte	0xced
 1862 0d55 18       		.uleb128 0x18
 1863 0d56 24       		.byte	0x24
 1864 0d57 12       		.byte	0x12
 1865 0d58 AA       		.byte	0xaa
 1866 0d59 D60D0000 		.4byte	0xdd6
 1867 0d5d 08       		.uleb128 0x8
 1868 0d5e ED010000 		.4byte	.LASF206
 1869 0d62 12       		.byte	0x12
 1870 0d63 AE       		.byte	0xae
 1871 0d64 D3000000 		.4byte	0xd3
 1872 0d68 00       		.byte	0
 1873 0d69 08       		.uleb128 0x8
 1874 0d6a 40090000 		.4byte	.LASF207
 1875 0d6e 12       		.byte	0x12
 1876 0d6f B9       		.byte	0xb9
 1877 0d70 F60B0000 		.4byte	0xbf6
ARM GAS  /var/folders/t8/16hdwfmd2fg_d3q6dgx6bpmw0000gn/T//ccm0pgcU.s 			page 34


 1878 0d74 04       		.byte	0x4
 1879 0d75 08       		.uleb128 0x8
 1880 0d76 92050000 		.4byte	.LASF208
 1881 0d7a 12       		.byte	0x12
 1882 0d7b BE       		.byte	0xbe
 1883 0d7c F60B0000 		.4byte	0xbf6
 1884 0d80 08       		.byte	0x8
 1885 0d81 08       		.uleb128 0x8
 1886 0d82 35040000 		.4byte	.LASF209
 1887 0d86 12       		.byte	0x12
 1888 0d87 C3       		.byte	0xc3
 1889 0d88 F60B0000 		.4byte	0xbf6
 1890 0d8c 0C       		.byte	0xc
 1891 0d8d 08       		.uleb128 0x8
 1892 0d8e 180A0000 		.4byte	.LASF210
 1893 0d92 12       		.byte	0x12
 1894 0d93 C8       		.byte	0xc8
 1895 0d94 BD000000 		.4byte	0xbd
 1896 0d98 10       		.byte	0x10
 1897 0d99 08       		.uleb128 0x8
 1898 0d9a AB010000 		.4byte	.LASF211
 1899 0d9e 12       		.byte	0x12
 1900 0d9f CD       		.byte	0xcd
 1901 0da0 BD000000 		.4byte	0xbd
 1902 0da4 12       		.byte	0x12
 1903 0da5 08       		.uleb128 0x8
 1904 0da6 D1010000 		.4byte	.LASF212
 1905 0daa 12       		.byte	0x12
 1906 0dab D3       		.byte	0xd3
 1907 0dac D60D0000 		.4byte	0xdd6
 1908 0db0 14       		.byte	0x14
 1909 0db1 08       		.uleb128 0x8
 1910 0db2 E2050000 		.4byte	.LASF213
 1911 0db6 12       		.byte	0x12
 1912 0db7 D9       		.byte	0xd9
 1913 0db8 DC0D0000 		.4byte	0xddc
 1914 0dbc 18       		.byte	0x18
 1915 0dbd 08       		.uleb128 0x8
 1916 0dbe 73020000 		.4byte	.LASF214
 1917 0dc2 12       		.byte	0x12
 1918 0dc3 DF       		.byte	0xdf
 1919 0dc4 BD000000 		.4byte	0xbd
 1920 0dc8 1C       		.byte	0x1c
 1921 0dc9 08       		.uleb128 0x8
 1922 0dca B6060000 		.4byte	.LASF215
 1923 0dce 12       		.byte	0x12
 1924 0dcf E5       		.byte	0xe5
 1925 0dd0 2B090000 		.4byte	0x92b
 1926 0dd4 20       		.byte	0x20
 1927 0dd5 00       		.byte	0
 1928 0dd6 0C       		.uleb128 0xc
 1929 0dd7 04       		.byte	0x4
 1930 0dd8 E20C0000 		.4byte	0xce2
 1931 0ddc 0C       		.uleb128 0xc
 1932 0ddd 04       		.byte	0x4
 1933 0dde 4A0D0000 		.4byte	0xd4a
 1934 0de2 03       		.uleb128 0x3
ARM GAS  /var/folders/t8/16hdwfmd2fg_d3q6dgx6bpmw0000gn/T//ccm0pgcU.s 			page 35


 1935 0de3 AF030000 		.4byte	.LASF216
 1936 0de7 12       		.byte	0x12
 1937 0de8 E6       		.byte	0xe6
 1938 0de9 550D0000 		.4byte	0xd55
 1939 0ded 05       		.uleb128 0x5
 1940 0dee E20D0000 		.4byte	0xde2
 1941 0df2 18       		.uleb128 0x18
 1942 0df3 10       		.byte	0x10
 1943 0df4 12       		.byte	0x12
 1944 0df5 EB       		.byte	0xeb
 1945 0df6 2B0E0000 		.4byte	0xe2b
 1946 0dfa 08       		.uleb128 0x8
 1947 0dfb CB030000 		.4byte	.LASF217
 1948 0dff 12       		.byte	0x12
 1949 0e00 F0       		.byte	0xf0
 1950 0e01 180C0000 		.4byte	0xc18
 1951 0e05 00       		.byte	0
 1952 0e06 08       		.uleb128 0x8
 1953 0e07 9C040000 		.4byte	.LASF218
 1954 0e0b 12       		.byte	0x12
 1955 0e0c F5       		.byte	0xf5
 1956 0e0d 5B0C0000 		.4byte	0xc5b
 1957 0e11 04       		.byte	0x4
 1958 0e12 08       		.uleb128 0x8
 1959 0e13 59010000 		.4byte	.LASF219
 1960 0e17 12       		.byte	0x12
 1961 0e18 FB       		.byte	0xfb
 1962 0e19 3A0C0000 		.4byte	0xc3a
 1963 0e1d 08       		.byte	0x8
 1964 0e1e 08       		.uleb128 0x8
 1965 0e1f 0F060000 		.4byte	.LASF220
 1966 0e23 12       		.byte	0x12
 1967 0e24 FF       		.byte	0xff
 1968 0e25 D30B0000 		.4byte	0xbd3
 1969 0e29 0C       		.byte	0xc
 1970 0e2a 00       		.byte	0
 1971 0e2b 16       		.uleb128 0x16
 1972 0e2c E3010000 		.4byte	.LASF221
 1973 0e30 12       		.byte	0x12
 1974 0e31 0101     		.2byte	0x101
 1975 0e33 F20D0000 		.4byte	0xdf2
 1976 0e37 05       		.uleb128 0x5
 1977 0e38 2B0E0000 		.4byte	0xe2b
 1978 0e3c 0C       		.uleb128 0xc
 1979 0e3d 04       		.byte	0x4
 1980 0e3e 370E0000 		.4byte	0xe37
 1981 0e42 14       		.uleb128 0x14
 1982 0e43 520E0000 		.4byte	0xe52
 1983 0e47 520E0000 		.4byte	0xe52
 1984 0e4b 15       		.uleb128 0x15
 1985 0e4c 37000000 		.4byte	0x37
 1986 0e50 0F       		.byte	0xf
 1987 0e51 00       		.byte	0
 1988 0e52 0C       		.uleb128 0xc
 1989 0e53 04       		.byte	0x4
 1990 0e54 ED0D0000 		.4byte	0xded
 1991 0e58 14       		.uleb128 0x14
ARM GAS  /var/folders/t8/16hdwfmd2fg_d3q6dgx6bpmw0000gn/T//ccm0pgcU.s 			page 36


 1992 0e59 38030000 		.4byte	0x338
 1993 0e5d 680E0000 		.4byte	0xe68
 1994 0e61 15       		.uleb128 0x15
 1995 0e62 37000000 		.4byte	0x37
 1996 0e66 0E       		.byte	0xe
 1997 0e67 00       		.byte	0
 1998 0e68 14       		.uleb128 0x14
 1999 0e69 AD000000 		.4byte	0xad
 2000 0e6d 780E0000 		.4byte	0xe78
 2001 0e71 15       		.uleb128 0x15
 2002 0e72 37000000 		.4byte	0x37
 2003 0e76 07       		.byte	0x7
 2004 0e77 00       		.byte	0
 2005 0e78 1E       		.uleb128 0x1e
 2006 0e79 9B090000 		.4byte	.LASF222
 2007 0e7d 12       		.byte	0x12
 2008 0e7e 9201     		.2byte	0x192
 2009 0e80 D2090000 		.4byte	0x9d2
 2010 0e84 24       		.uleb128 0x24
 2011 0e85 F3040000 		.4byte	.LASF223
 2012 0e89 01       		.byte	0x1
 2013 0e8a 6D       		.byte	0x6d
 2014 0e8b 00000000 		.4byte	.LFB177
 2015 0e8f 18000000 		.4byte	.LFE177-.LFB177
 2016 0e93 01       		.uleb128 0x1
 2017 0e94 9C       		.byte	0x9c
 2018 0e95 A70E0000 		.4byte	0xea7
 2019 0e99 25       		.uleb128 0x25
 2020 0e9a 6E00     		.ascii	"n\000"
 2021 0e9c 01       		.byte	0x1
 2022 0e9d 6D       		.byte	0x6d
 2023 0e9e D3000000 		.4byte	0xd3
 2024 0ea2 00000000 		.4byte	.LLST5
 2025 0ea6 00       		.byte	0
 2026 0ea7 24       		.uleb128 0x24
 2027 0ea8 AE0A0000 		.4byte	.LASF224
 2028 0eac 01       		.byte	0x1
 2029 0ead 5A       		.byte	0x5a
 2030 0eae 00000000 		.4byte	.LFB176
 2031 0eb2 28000000 		.4byte	.LFE176-.LFB176
 2032 0eb6 01       		.uleb128 0x1
 2033 0eb7 9C       		.byte	0x9c
 2034 0eb8 FD0E0000 		.4byte	0xefd
 2035 0ebc 26       		.uleb128 0x26
 2036 0ebd F6070000 		.4byte	.LASF225
 2037 0ec1 01       		.byte	0x1
 2038 0ec2 5A       		.byte	0x5a
 2039 0ec3 D3000000 		.4byte	0xd3
 2040 0ec7 21000000 		.4byte	.LLST3
 2041 0ecb 26       		.uleb128 0x26
 2042 0ecc 0E050000 		.4byte	.LASF31
 2043 0ed0 01       		.byte	0x1
 2044 0ed1 5A       		.byte	0x5a
 2045 0ed2 D3000000 		.4byte	0xd3
 2046 0ed6 4D000000 		.4byte	.LLST4
 2047 0eda 27       		.uleb128 0x27
 2048 0edb E7090000 		.4byte	.LASF231
ARM GAS  /var/folders/t8/16hdwfmd2fg_d3q6dgx6bpmw0000gn/T//ccm0pgcU.s 			page 37


 2049 0edf 0D0F0000 		.4byte	0xf0d
 2050 0ee3 05       		.uleb128 0x5
 2051 0ee4 03       		.byte	0x3
 2052 0ee5 00000000 		.4byte	__func__.6428
 2053 0ee9 28       		.uleb128 0x28
 2054 0eea 10000000 		.4byte	.LVL8
 2055 0eee 670F0000 		.4byte	0xf67
 2056 0ef2 29       		.uleb128 0x29
 2057 0ef3 01       		.uleb128 0x1
 2058 0ef4 50       		.byte	0x50
 2059 0ef5 05       		.uleb128 0x5
 2060 0ef6 03       		.byte	0x3
 2061 0ef7 00000000 		.4byte	.LANCHOR0
 2062 0efb 00       		.byte	0
 2063 0efc 00       		.byte	0
 2064 0efd 14       		.uleb128 0x14
 2065 0efe D5070000 		.4byte	0x7d5
 2066 0f02 0D0F0000 		.4byte	0xf0d
 2067 0f06 15       		.uleb128 0x15
 2068 0f07 37000000 		.4byte	0x37
 2069 0f0b 1C       		.byte	0x1c
 2070 0f0c 00       		.byte	0
 2071 0f0d 05       		.uleb128 0x5
 2072 0f0e FD0E0000 		.4byte	0xefd
 2073 0f12 24       		.uleb128 0x24
 2074 0f13 3B020000 		.4byte	.LASF226
 2075 0f17 01       		.byte	0x1
 2076 0f18 4A       		.byte	0x4a
 2077 0f19 00000000 		.4byte	.LFB175
 2078 0f1d 20000000 		.4byte	.LFE175-.LFB175
 2079 0f21 01       		.uleb128 0x1
 2080 0f22 9C       		.byte	0x9c
 2081 0f23 350F0000 		.4byte	0xf35
 2082 0f27 25       		.uleb128 0x25
 2083 0f28 6E00     		.ascii	"n\000"
 2084 0f2a 01       		.byte	0x1
 2085 0f2b 4A       		.byte	0x4a
 2086 0f2c D3000000 		.4byte	0xd3
 2087 0f30 79000000 		.4byte	.LLST2
 2088 0f34 00       		.byte	0
 2089 0f35 24       		.uleb128 0x24
 2090 0f36 34070000 		.4byte	.LASF227
 2091 0f3a 01       		.byte	0x1
 2092 0f3b 39       		.byte	0x39
 2093 0f3c 00000000 		.4byte	.LFB174
 2094 0f40 2C000000 		.4byte	.LFE174-.LFB174
 2095 0f44 01       		.uleb128 0x1
 2096 0f45 9C       		.byte	0x9c
 2097 0f46 670F0000 		.4byte	0xf67
 2098 0f4a 25       		.uleb128 0x25
 2099 0f4b 6E00     		.ascii	"n\000"
 2100 0f4d 01       		.byte	0x1
 2101 0f4e 39       		.byte	0x39
 2102 0f4f D3000000 		.4byte	0xd3
 2103 0f53 A8000000 		.4byte	.LLST0
 2104 0f57 26       		.uleb128 0x26
 2105 0f58 0E050000 		.4byte	.LASF31
ARM GAS  /var/folders/t8/16hdwfmd2fg_d3q6dgx6bpmw0000gn/T//ccm0pgcU.s 			page 38


 2106 0f5c 01       		.byte	0x1
 2107 0f5d 39       		.byte	0x39
 2108 0f5e D3000000 		.4byte	0xd3
 2109 0f62 C9000000 		.4byte	.LLST1
 2110 0f66 00       		.byte	0
 2111 0f67 2A       		.uleb128 0x2a
 2112 0f68 5B050000 		.4byte	.LASF232
 2113 0f6c 5B050000 		.4byte	.LASF232
 2114 0f70 0F       		.byte	0xf
 2115 0f71 3201     		.2byte	0x132
 2116 0f73 00       		.byte	0
 2117              		.section	.debug_abbrev,"",%progbits
 2118              	.Ldebug_abbrev0:
 2119 0000 01       		.uleb128 0x1
 2120 0001 11       		.uleb128 0x11
 2121 0002 01       		.byte	0x1
 2122 0003 25       		.uleb128 0x25
 2123 0004 0E       		.uleb128 0xe
 2124 0005 13       		.uleb128 0x13
 2125 0006 0B       		.uleb128 0xb
 2126 0007 03       		.uleb128 0x3
 2127 0008 0E       		.uleb128 0xe
 2128 0009 1B       		.uleb128 0x1b
 2129 000a 0E       		.uleb128 0xe
 2130 000b 55       		.uleb128 0x55
 2131 000c 17       		.uleb128 0x17
 2132 000d 11       		.uleb128 0x11
 2133 000e 01       		.uleb128 0x1
 2134 000f 10       		.uleb128 0x10
 2135 0010 17       		.uleb128 0x17
 2136 0011 00       		.byte	0
 2137 0012 00       		.byte	0
 2138 0013 02       		.uleb128 0x2
 2139 0014 24       		.uleb128 0x24
 2140 0015 00       		.byte	0
 2141 0016 0B       		.uleb128 0xb
 2142 0017 0B       		.uleb128 0xb
 2143 0018 3E       		.uleb128 0x3e
 2144 0019 0B       		.uleb128 0xb
 2145 001a 03       		.uleb128 0x3
 2146 001b 08       		.uleb128 0x8
 2147 001c 00       		.byte	0
 2148 001d 00       		.byte	0
 2149 001e 03       		.uleb128 0x3
 2150 001f 16       		.uleb128 0x16
 2151 0020 00       		.byte	0
 2152 0021 03       		.uleb128 0x3
 2153 0022 0E       		.uleb128 0xe
 2154 0023 3A       		.uleb128 0x3a
 2155 0024 0B       		.uleb128 0xb
 2156 0025 3B       		.uleb128 0x3b
 2157 0026 0B       		.uleb128 0xb
 2158 0027 49       		.uleb128 0x49
 2159 0028 13       		.uleb128 0x13
 2160 0029 00       		.byte	0
 2161 002a 00       		.byte	0
 2162 002b 04       		.uleb128 0x4
ARM GAS  /var/folders/t8/16hdwfmd2fg_d3q6dgx6bpmw0000gn/T//ccm0pgcU.s 			page 39


 2163 002c 24       		.uleb128 0x24
 2164 002d 00       		.byte	0
 2165 002e 0B       		.uleb128 0xb
 2166 002f 0B       		.uleb128 0xb
 2167 0030 3E       		.uleb128 0x3e
 2168 0031 0B       		.uleb128 0xb
 2169 0032 03       		.uleb128 0x3
 2170 0033 0E       		.uleb128 0xe
 2171 0034 00       		.byte	0
 2172 0035 00       		.byte	0
 2173 0036 05       		.uleb128 0x5
 2174 0037 26       		.uleb128 0x26
 2175 0038 00       		.byte	0
 2176 0039 49       		.uleb128 0x49
 2177 003a 13       		.uleb128 0x13
 2178 003b 00       		.byte	0
 2179 003c 00       		.byte	0
 2180 003d 06       		.uleb128 0x6
 2181 003e 35       		.uleb128 0x35
 2182 003f 00       		.byte	0
 2183 0040 49       		.uleb128 0x49
 2184 0041 13       		.uleb128 0x13
 2185 0042 00       		.byte	0
 2186 0043 00       		.byte	0
 2187 0044 07       		.uleb128 0x7
 2188 0045 13       		.uleb128 0x13
 2189 0046 01       		.byte	0x1
 2190 0047 03       		.uleb128 0x3
 2191 0048 0E       		.uleb128 0xe
 2192 0049 0B       		.uleb128 0xb
 2193 004a 0B       		.uleb128 0xb
 2194 004b 3A       		.uleb128 0x3a
 2195 004c 0B       		.uleb128 0xb
 2196 004d 3B       		.uleb128 0x3b
 2197 004e 0B       		.uleb128 0xb
 2198 004f 01       		.uleb128 0x1
 2199 0050 13       		.uleb128 0x13
 2200 0051 00       		.byte	0
 2201 0052 00       		.byte	0
 2202 0053 08       		.uleb128 0x8
 2203 0054 0D       		.uleb128 0xd
 2204 0055 00       		.byte	0
 2205 0056 03       		.uleb128 0x3
 2206 0057 0E       		.uleb128 0xe
 2207 0058 3A       		.uleb128 0x3a
 2208 0059 0B       		.uleb128 0xb
 2209 005a 3B       		.uleb128 0x3b
 2210 005b 0B       		.uleb128 0xb
 2211 005c 49       		.uleb128 0x49
 2212 005d 13       		.uleb128 0x13
 2213 005e 38       		.uleb128 0x38
 2214 005f 0B       		.uleb128 0xb
 2215 0060 00       		.byte	0
 2216 0061 00       		.byte	0
 2217 0062 09       		.uleb128 0x9
 2218 0063 0D       		.uleb128 0xd
 2219 0064 00       		.byte	0
ARM GAS  /var/folders/t8/16hdwfmd2fg_d3q6dgx6bpmw0000gn/T//ccm0pgcU.s 			page 40


 2220 0065 03       		.uleb128 0x3
 2221 0066 08       		.uleb128 0x8
 2222 0067 3A       		.uleb128 0x3a
 2223 0068 0B       		.uleb128 0xb
 2224 0069 3B       		.uleb128 0x3b
 2225 006a 0B       		.uleb128 0xb
 2226 006b 49       		.uleb128 0x49
 2227 006c 13       		.uleb128 0x13
 2228 006d 38       		.uleb128 0x38
 2229 006e 0B       		.uleb128 0xb
 2230 006f 00       		.byte	0
 2231 0070 00       		.byte	0
 2232 0071 0A       		.uleb128 0xa
 2233 0072 0D       		.uleb128 0xd
 2234 0073 00       		.byte	0
 2235 0074 03       		.uleb128 0x3
 2236 0075 08       		.uleb128 0x8
 2237 0076 3A       		.uleb128 0x3a
 2238 0077 0B       		.uleb128 0xb
 2239 0078 3B       		.uleb128 0x3b
 2240 0079 05       		.uleb128 0x5
 2241 007a 49       		.uleb128 0x49
 2242 007b 13       		.uleb128 0x13
 2243 007c 38       		.uleb128 0x38
 2244 007d 0B       		.uleb128 0xb
 2245 007e 00       		.byte	0
 2246 007f 00       		.byte	0
 2247 0080 0B       		.uleb128 0xb
 2248 0081 0D       		.uleb128 0xd
 2249 0082 00       		.byte	0
 2250 0083 03       		.uleb128 0x3
 2251 0084 0E       		.uleb128 0xe
 2252 0085 3A       		.uleb128 0x3a
 2253 0086 0B       		.uleb128 0xb
 2254 0087 3B       		.uleb128 0x3b
 2255 0088 05       		.uleb128 0x5
 2256 0089 49       		.uleb128 0x49
 2257 008a 13       		.uleb128 0x13
 2258 008b 38       		.uleb128 0x38
 2259 008c 0B       		.uleb128 0xb
 2260 008d 00       		.byte	0
 2261 008e 00       		.byte	0
 2262 008f 0C       		.uleb128 0xc
 2263 0090 0F       		.uleb128 0xf
 2264 0091 00       		.byte	0
 2265 0092 0B       		.uleb128 0xb
 2266 0093 0B       		.uleb128 0xb
 2267 0094 49       		.uleb128 0x49
 2268 0095 13       		.uleb128 0x13
 2269 0096 00       		.byte	0
 2270 0097 00       		.byte	0
 2271 0098 0D       		.uleb128 0xd
 2272 0099 13       		.uleb128 0x13
 2273 009a 01       		.byte	0x1
 2274 009b 03       		.uleb128 0x3
 2275 009c 0E       		.uleb128 0xe
 2276 009d 0B       		.uleb128 0xb
ARM GAS  /var/folders/t8/16hdwfmd2fg_d3q6dgx6bpmw0000gn/T//ccm0pgcU.s 			page 41


 2277 009e 0B       		.uleb128 0xb
 2278 009f 3A       		.uleb128 0x3a
 2279 00a0 0B       		.uleb128 0xb
 2280 00a1 3B       		.uleb128 0x3b
 2281 00a2 05       		.uleb128 0x5
 2282 00a3 01       		.uleb128 0x1
 2283 00a4 13       		.uleb128 0x13
 2284 00a5 00       		.byte	0
 2285 00a6 00       		.byte	0
 2286 00a7 0E       		.uleb128 0xe
 2287 00a8 15       		.uleb128 0x15
 2288 00a9 01       		.byte	0x1
 2289 00aa 27       		.uleb128 0x27
 2290 00ab 19       		.uleb128 0x19
 2291 00ac 01       		.uleb128 0x1
 2292 00ad 13       		.uleb128 0x13
 2293 00ae 00       		.byte	0
 2294 00af 00       		.byte	0
 2295 00b0 0F       		.uleb128 0xf
 2296 00b1 05       		.uleb128 0x5
 2297 00b2 00       		.byte	0
 2298 00b3 49       		.uleb128 0x49
 2299 00b4 13       		.uleb128 0x13
 2300 00b5 00       		.byte	0
 2301 00b6 00       		.byte	0
 2302 00b7 10       		.uleb128 0x10
 2303 00b8 0F       		.uleb128 0xf
 2304 00b9 00       		.byte	0
 2305 00ba 0B       		.uleb128 0xb
 2306 00bb 0B       		.uleb128 0xb
 2307 00bc 00       		.byte	0
 2308 00bd 00       		.byte	0
 2309 00be 11       		.uleb128 0x11
 2310 00bf 13       		.uleb128 0x13
 2311 00c0 01       		.byte	0x1
 2312 00c1 0B       		.uleb128 0xb
 2313 00c2 05       		.uleb128 0x5
 2314 00c3 3A       		.uleb128 0x3a
 2315 00c4 0B       		.uleb128 0xb
 2316 00c5 3B       		.uleb128 0x3b
 2317 00c6 05       		.uleb128 0x5
 2318 00c7 01       		.uleb128 0x1
 2319 00c8 13       		.uleb128 0x13
 2320 00c9 00       		.byte	0
 2321 00ca 00       		.byte	0
 2322 00cb 12       		.uleb128 0x12
 2323 00cc 0D       		.uleb128 0xd
 2324 00cd 00       		.byte	0
 2325 00ce 03       		.uleb128 0x3
 2326 00cf 0E       		.uleb128 0xe
 2327 00d0 3A       		.uleb128 0x3a
 2328 00d1 0B       		.uleb128 0xb
 2329 00d2 3B       		.uleb128 0x3b
 2330 00d3 05       		.uleb128 0x5
 2331 00d4 49       		.uleb128 0x49
 2332 00d5 13       		.uleb128 0x13
 2333 00d6 38       		.uleb128 0x38
ARM GAS  /var/folders/t8/16hdwfmd2fg_d3q6dgx6bpmw0000gn/T//ccm0pgcU.s 			page 42


 2334 00d7 05       		.uleb128 0x5
 2335 00d8 00       		.byte	0
 2336 00d9 00       		.byte	0
 2337 00da 13       		.uleb128 0x13
 2338 00db 0D       		.uleb128 0xd
 2339 00dc 00       		.byte	0
 2340 00dd 03       		.uleb128 0x3
 2341 00de 08       		.uleb128 0x8
 2342 00df 3A       		.uleb128 0x3a
 2343 00e0 0B       		.uleb128 0xb
 2344 00e1 3B       		.uleb128 0x3b
 2345 00e2 05       		.uleb128 0x5
 2346 00e3 49       		.uleb128 0x49
 2347 00e4 13       		.uleb128 0x13
 2348 00e5 38       		.uleb128 0x38
 2349 00e6 05       		.uleb128 0x5
 2350 00e7 00       		.byte	0
 2351 00e8 00       		.byte	0
 2352 00e9 14       		.uleb128 0x14
 2353 00ea 01       		.uleb128 0x1
 2354 00eb 01       		.byte	0x1
 2355 00ec 49       		.uleb128 0x49
 2356 00ed 13       		.uleb128 0x13
 2357 00ee 01       		.uleb128 0x1
 2358 00ef 13       		.uleb128 0x13
 2359 00f0 00       		.byte	0
 2360 00f1 00       		.byte	0
 2361 00f2 15       		.uleb128 0x15
 2362 00f3 21       		.uleb128 0x21
 2363 00f4 00       		.byte	0
 2364 00f5 49       		.uleb128 0x49
 2365 00f6 13       		.uleb128 0x13
 2366 00f7 2F       		.uleb128 0x2f
 2367 00f8 0B       		.uleb128 0xb
 2368 00f9 00       		.byte	0
 2369 00fa 00       		.byte	0
 2370 00fb 16       		.uleb128 0x16
 2371 00fc 16       		.uleb128 0x16
 2372 00fd 00       		.byte	0
 2373 00fe 03       		.uleb128 0x3
 2374 00ff 0E       		.uleb128 0xe
 2375 0100 3A       		.uleb128 0x3a
 2376 0101 0B       		.uleb128 0xb
 2377 0102 3B       		.uleb128 0x3b
 2378 0103 05       		.uleb128 0x5
 2379 0104 49       		.uleb128 0x49
 2380 0105 13       		.uleb128 0x13
 2381 0106 00       		.byte	0
 2382 0107 00       		.byte	0
 2383 0108 17       		.uleb128 0x17
 2384 0109 13       		.uleb128 0x13
 2385 010a 01       		.byte	0x1
 2386 010b 0B       		.uleb128 0xb
 2387 010c 0B       		.uleb128 0xb
 2388 010d 3A       		.uleb128 0x3a
 2389 010e 0B       		.uleb128 0xb
 2390 010f 3B       		.uleb128 0x3b
ARM GAS  /var/folders/t8/16hdwfmd2fg_d3q6dgx6bpmw0000gn/T//ccm0pgcU.s 			page 43


 2391 0110 05       		.uleb128 0x5
 2392 0111 01       		.uleb128 0x1
 2393 0112 13       		.uleb128 0x13
 2394 0113 00       		.byte	0
 2395 0114 00       		.byte	0
 2396 0115 18       		.uleb128 0x18
 2397 0116 13       		.uleb128 0x13
 2398 0117 01       		.byte	0x1
 2399 0118 0B       		.uleb128 0xb
 2400 0119 0B       		.uleb128 0xb
 2401 011a 3A       		.uleb128 0x3a
 2402 011b 0B       		.uleb128 0xb
 2403 011c 3B       		.uleb128 0x3b
 2404 011d 0B       		.uleb128 0xb
 2405 011e 01       		.uleb128 0x1
 2406 011f 13       		.uleb128 0x13
 2407 0120 00       		.byte	0
 2408 0121 00       		.byte	0
 2409 0122 19       		.uleb128 0x19
 2410 0123 17       		.uleb128 0x17
 2411 0124 01       		.byte	0x1
 2412 0125 0B       		.uleb128 0xb
 2413 0126 0B       		.uleb128 0xb
 2414 0127 3A       		.uleb128 0x3a
 2415 0128 0B       		.uleb128 0xb
 2416 0129 3B       		.uleb128 0x3b
 2417 012a 0B       		.uleb128 0xb
 2418 012b 01       		.uleb128 0x1
 2419 012c 13       		.uleb128 0x13
 2420 012d 00       		.byte	0
 2421 012e 00       		.byte	0
 2422 012f 1A       		.uleb128 0x1a
 2423 0130 0D       		.uleb128 0xd
 2424 0131 00       		.byte	0
 2425 0132 03       		.uleb128 0x3
 2426 0133 0E       		.uleb128 0xe
 2427 0134 3A       		.uleb128 0x3a
 2428 0135 0B       		.uleb128 0xb
 2429 0136 3B       		.uleb128 0x3b
 2430 0137 0B       		.uleb128 0xb
 2431 0138 49       		.uleb128 0x49
 2432 0139 13       		.uleb128 0x13
 2433 013a 00       		.byte	0
 2434 013b 00       		.byte	0
 2435 013c 1B       		.uleb128 0x1b
 2436 013d 0D       		.uleb128 0xd
 2437 013e 00       		.byte	0
 2438 013f 03       		.uleb128 0x3
 2439 0140 0E       		.uleb128 0xe
 2440 0141 3A       		.uleb128 0x3a
 2441 0142 0B       		.uleb128 0xb
 2442 0143 3B       		.uleb128 0x3b
 2443 0144 05       		.uleb128 0x5
 2444 0145 49       		.uleb128 0x49
 2445 0146 13       		.uleb128 0x13
 2446 0147 00       		.byte	0
 2447 0148 00       		.byte	0
ARM GAS  /var/folders/t8/16hdwfmd2fg_d3q6dgx6bpmw0000gn/T//ccm0pgcU.s 			page 44


 2448 0149 1C       		.uleb128 0x1c
 2449 014a 34       		.uleb128 0x34
 2450 014b 00       		.byte	0
 2451 014c 03       		.uleb128 0x3
 2452 014d 08       		.uleb128 0x8
 2453 014e 3A       		.uleb128 0x3a
 2454 014f 0B       		.uleb128 0xb
 2455 0150 3B       		.uleb128 0x3b
 2456 0151 05       		.uleb128 0x5
 2457 0152 49       		.uleb128 0x49
 2458 0153 13       		.uleb128 0x13
 2459 0154 3F       		.uleb128 0x3f
 2460 0155 19       		.uleb128 0x19
 2461 0156 3C       		.uleb128 0x3c
 2462 0157 19       		.uleb128 0x19
 2463 0158 00       		.byte	0
 2464 0159 00       		.byte	0
 2465 015a 1D       		.uleb128 0x1d
 2466 015b 21       		.uleb128 0x21
 2467 015c 00       		.byte	0
 2468 015d 00       		.byte	0
 2469 015e 00       		.byte	0
 2470 015f 1E       		.uleb128 0x1e
 2471 0160 34       		.uleb128 0x34
 2472 0161 00       		.byte	0
 2473 0162 03       		.uleb128 0x3
 2474 0163 0E       		.uleb128 0xe
 2475 0164 3A       		.uleb128 0x3a
 2476 0165 0B       		.uleb128 0xb
 2477 0166 3B       		.uleb128 0x3b
 2478 0167 05       		.uleb128 0x5
 2479 0168 49       		.uleb128 0x49
 2480 0169 13       		.uleb128 0x13
 2481 016a 3F       		.uleb128 0x3f
 2482 016b 19       		.uleb128 0x19
 2483 016c 3C       		.uleb128 0x3c
 2484 016d 19       		.uleb128 0x19
 2485 016e 00       		.byte	0
 2486 016f 00       		.byte	0
 2487 0170 1F       		.uleb128 0x1f
 2488 0171 34       		.uleb128 0x34
 2489 0172 00       		.byte	0
 2490 0173 03       		.uleb128 0x3
 2491 0174 0E       		.uleb128 0xe
 2492 0175 3A       		.uleb128 0x3a
 2493 0176 0B       		.uleb128 0xb
 2494 0177 3B       		.uleb128 0x3b
 2495 0178 0B       		.uleb128 0xb
 2496 0179 49       		.uleb128 0x49
 2497 017a 13       		.uleb128 0x13
 2498 017b 3F       		.uleb128 0x3f
 2499 017c 19       		.uleb128 0x19
 2500 017d 3C       		.uleb128 0x3c
 2501 017e 19       		.uleb128 0x19
 2502 017f 00       		.byte	0
 2503 0180 00       		.byte	0
 2504 0181 20       		.uleb128 0x20
ARM GAS  /var/folders/t8/16hdwfmd2fg_d3q6dgx6bpmw0000gn/T//ccm0pgcU.s 			page 45


 2505 0182 13       		.uleb128 0x13
 2506 0183 01       		.byte	0x1
 2507 0184 0B       		.uleb128 0xb
 2508 0185 05       		.uleb128 0x5
 2509 0186 3A       		.uleb128 0x3a
 2510 0187 0B       		.uleb128 0xb
 2511 0188 3B       		.uleb128 0x3b
 2512 0189 0B       		.uleb128 0xb
 2513 018a 01       		.uleb128 0x1
 2514 018b 13       		.uleb128 0x13
 2515 018c 00       		.byte	0
 2516 018d 00       		.byte	0
 2517 018e 21       		.uleb128 0x21
 2518 018f 04       		.uleb128 0x4
 2519 0190 01       		.byte	0x1
 2520 0191 3E       		.uleb128 0x3e
 2521 0192 0B       		.uleb128 0xb
 2522 0193 0B       		.uleb128 0xb
 2523 0194 0B       		.uleb128 0xb
 2524 0195 49       		.uleb128 0x49
 2525 0196 13       		.uleb128 0x13
 2526 0197 3A       		.uleb128 0x3a
 2527 0198 0B       		.uleb128 0xb
 2528 0199 3B       		.uleb128 0x3b
 2529 019a 05       		.uleb128 0x5
 2530 019b 01       		.uleb128 0x1
 2531 019c 13       		.uleb128 0x13
 2532 019d 00       		.byte	0
 2533 019e 00       		.byte	0
 2534 019f 22       		.uleb128 0x22
 2535 01a0 28       		.uleb128 0x28
 2536 01a1 00       		.byte	0
 2537 01a2 03       		.uleb128 0x3
 2538 01a3 0E       		.uleb128 0xe
 2539 01a4 1C       		.uleb128 0x1c
 2540 01a5 0B       		.uleb128 0xb
 2541 01a6 00       		.byte	0
 2542 01a7 00       		.byte	0
 2543 01a8 23       		.uleb128 0x23
 2544 01a9 15       		.uleb128 0x15
 2545 01aa 01       		.byte	0x1
 2546 01ab 27       		.uleb128 0x27
 2547 01ac 19       		.uleb128 0x19
 2548 01ad 49       		.uleb128 0x49
 2549 01ae 13       		.uleb128 0x13
 2550 01af 01       		.uleb128 0x1
 2551 01b0 13       		.uleb128 0x13
 2552 01b1 00       		.byte	0
 2553 01b2 00       		.byte	0
 2554 01b3 24       		.uleb128 0x24
 2555 01b4 2E       		.uleb128 0x2e
 2556 01b5 01       		.byte	0x1
 2557 01b6 3F       		.uleb128 0x3f
 2558 01b7 19       		.uleb128 0x19
 2559 01b8 03       		.uleb128 0x3
 2560 01b9 0E       		.uleb128 0xe
 2561 01ba 3A       		.uleb128 0x3a
ARM GAS  /var/folders/t8/16hdwfmd2fg_d3q6dgx6bpmw0000gn/T//ccm0pgcU.s 			page 46


 2562 01bb 0B       		.uleb128 0xb
 2563 01bc 3B       		.uleb128 0x3b
 2564 01bd 0B       		.uleb128 0xb
 2565 01be 27       		.uleb128 0x27
 2566 01bf 19       		.uleb128 0x19
 2567 01c0 11       		.uleb128 0x11
 2568 01c1 01       		.uleb128 0x1
 2569 01c2 12       		.uleb128 0x12
 2570 01c3 06       		.uleb128 0x6
 2571 01c4 40       		.uleb128 0x40
 2572 01c5 18       		.uleb128 0x18
 2573 01c6 9742     		.uleb128 0x2117
 2574 01c8 19       		.uleb128 0x19
 2575 01c9 01       		.uleb128 0x1
 2576 01ca 13       		.uleb128 0x13
 2577 01cb 00       		.byte	0
 2578 01cc 00       		.byte	0
 2579 01cd 25       		.uleb128 0x25
 2580 01ce 05       		.uleb128 0x5
 2581 01cf 00       		.byte	0
 2582 01d0 03       		.uleb128 0x3
 2583 01d1 08       		.uleb128 0x8
 2584 01d2 3A       		.uleb128 0x3a
 2585 01d3 0B       		.uleb128 0xb
 2586 01d4 3B       		.uleb128 0x3b
 2587 01d5 0B       		.uleb128 0xb
 2588 01d6 49       		.uleb128 0x49
 2589 01d7 13       		.uleb128 0x13
 2590 01d8 02       		.uleb128 0x2
 2591 01d9 17       		.uleb128 0x17
 2592 01da 00       		.byte	0
 2593 01db 00       		.byte	0
 2594 01dc 26       		.uleb128 0x26
 2595 01dd 05       		.uleb128 0x5
 2596 01de 00       		.byte	0
 2597 01df 03       		.uleb128 0x3
 2598 01e0 0E       		.uleb128 0xe
 2599 01e1 3A       		.uleb128 0x3a
 2600 01e2 0B       		.uleb128 0xb
 2601 01e3 3B       		.uleb128 0x3b
 2602 01e4 0B       		.uleb128 0xb
 2603 01e5 49       		.uleb128 0x49
 2604 01e6 13       		.uleb128 0x13
 2605 01e7 02       		.uleb128 0x2
 2606 01e8 17       		.uleb128 0x17
 2607 01e9 00       		.byte	0
 2608 01ea 00       		.byte	0
 2609 01eb 27       		.uleb128 0x27
 2610 01ec 34       		.uleb128 0x34
 2611 01ed 00       		.byte	0
 2612 01ee 03       		.uleb128 0x3
 2613 01ef 0E       		.uleb128 0xe
 2614 01f0 49       		.uleb128 0x49
 2615 01f1 13       		.uleb128 0x13
 2616 01f2 34       		.uleb128 0x34
 2617 01f3 19       		.uleb128 0x19
 2618 01f4 02       		.uleb128 0x2
ARM GAS  /var/folders/t8/16hdwfmd2fg_d3q6dgx6bpmw0000gn/T//ccm0pgcU.s 			page 47


 2619 01f5 18       		.uleb128 0x18
 2620 01f6 00       		.byte	0
 2621 01f7 00       		.byte	0
 2622 01f8 28       		.uleb128 0x28
 2623 01f9 898201   		.uleb128 0x4109
 2624 01fc 01       		.byte	0x1
 2625 01fd 11       		.uleb128 0x11
 2626 01fe 01       		.uleb128 0x1
 2627 01ff 31       		.uleb128 0x31
 2628 0200 13       		.uleb128 0x13
 2629 0201 00       		.byte	0
 2630 0202 00       		.byte	0
 2631 0203 29       		.uleb128 0x29
 2632 0204 8A8201   		.uleb128 0x410a
 2633 0207 00       		.byte	0
 2634 0208 02       		.uleb128 0x2
 2635 0209 18       		.uleb128 0x18
 2636 020a 9142     		.uleb128 0x2111
 2637 020c 18       		.uleb128 0x18
 2638 020d 00       		.byte	0
 2639 020e 00       		.byte	0
 2640 020f 2A       		.uleb128 0x2a
 2641 0210 2E       		.uleb128 0x2e
 2642 0211 00       		.byte	0
 2643 0212 3F       		.uleb128 0x3f
 2644 0213 19       		.uleb128 0x19
 2645 0214 3C       		.uleb128 0x3c
 2646 0215 19       		.uleb128 0x19
 2647 0216 6E       		.uleb128 0x6e
 2648 0217 0E       		.uleb128 0xe
 2649 0218 03       		.uleb128 0x3
 2650 0219 0E       		.uleb128 0xe
 2651 021a 3A       		.uleb128 0x3a
 2652 021b 0B       		.uleb128 0xb
 2653 021c 3B       		.uleb128 0x3b
 2654 021d 05       		.uleb128 0x5
 2655 021e 00       		.byte	0
 2656 021f 00       		.byte	0
 2657 0220 00       		.byte	0
 2658              		.section	.debug_loc,"",%progbits
 2659              	.Ldebug_loc0:
 2660              	.LLST5:
 2661 0000 00000000 		.4byte	.LVL11
 2662 0004 06000000 		.4byte	.LVL12
 2663 0008 0100     		.2byte	0x1
 2664 000a 50       		.byte	0x50
 2665 000b 06000000 		.4byte	.LVL12
 2666 000f 18000000 		.4byte	.LFE177
 2667 0013 0400     		.2byte	0x4
 2668 0015 F3       		.byte	0xf3
 2669 0016 01       		.uleb128 0x1
 2670 0017 50       		.byte	0x50
 2671 0018 9F       		.byte	0x9f
 2672 0019 00000000 		.4byte	0
 2673 001d 00000000 		.4byte	0
 2674              	.LLST3:
 2675 0021 00000000 		.4byte	.LVL6
ARM GAS  /var/folders/t8/16hdwfmd2fg_d3q6dgx6bpmw0000gn/T//ccm0pgcU.s 			page 48


 2676 0025 0C000000 		.4byte	.LVL7
 2677 0029 0100     		.2byte	0x1
 2678 002b 50       		.byte	0x50
 2679 002c 0C000000 		.4byte	.LVL7
 2680 0030 14000000 		.4byte	.LVL9
 2681 0034 0100     		.2byte	0x1
 2682 0036 54       		.byte	0x54
 2683 0037 14000000 		.4byte	.LVL9
 2684 003b 28000000 		.4byte	.LFE176
 2685 003f 0400     		.2byte	0x4
 2686 0041 F3       		.byte	0xf3
 2687 0042 01       		.uleb128 0x1
 2688 0043 50       		.byte	0x50
 2689 0044 9F       		.byte	0x9f
 2690 0045 00000000 		.4byte	0
 2691 0049 00000000 		.4byte	0
 2692              	.LLST4:
 2693 004d 00000000 		.4byte	.LVL6
 2694 0051 0F000000 		.4byte	.LVL8-1
 2695 0055 0100     		.2byte	0x1
 2696 0057 51       		.byte	0x51
 2697 0058 0F000000 		.4byte	.LVL8-1
 2698 005c 18000000 		.4byte	.LVL10
 2699 0060 0100     		.2byte	0x1
 2700 0062 55       		.byte	0x55
 2701 0063 18000000 		.4byte	.LVL10
 2702 0067 28000000 		.4byte	.LFE176
 2703 006b 0400     		.2byte	0x4
 2704 006d F3       		.byte	0xf3
 2705 006e 01       		.uleb128 0x1
 2706 006f 51       		.byte	0x51
 2707 0070 9F       		.byte	0x9f
 2708 0071 00000000 		.4byte	0
 2709 0075 00000000 		.4byte	0
 2710              	.LLST2:
 2711 0079 00000000 		.4byte	.LVL3
 2712 007d 16000000 		.4byte	.LVL4
 2713 0081 0100     		.2byte	0x1
 2714 0083 50       		.byte	0x50
 2715 0084 16000000 		.4byte	.LVL4
 2716 0088 18000000 		.4byte	.LVL5
 2717 008c 0400     		.2byte	0x4
 2718 008e 70       		.byte	0x70
 2719 008f C07E     		.sleb128 -192
 2720 0091 9F       		.byte	0x9f
 2721 0092 18000000 		.4byte	.LVL5
 2722 0096 20000000 		.4byte	.LFE175
 2723 009a 0400     		.2byte	0x4
 2724 009c F3       		.byte	0xf3
 2725 009d 01       		.uleb128 0x1
 2726 009e 50       		.byte	0x50
 2727 009f 9F       		.byte	0x9f
 2728 00a0 00000000 		.4byte	0
 2729 00a4 00000000 		.4byte	0
 2730              	.LLST0:
 2731 00a8 00000000 		.4byte	.LVL0
 2732 00ac 18000000 		.4byte	.LVL2
ARM GAS  /var/folders/t8/16hdwfmd2fg_d3q6dgx6bpmw0000gn/T//ccm0pgcU.s 			page 49


 2733 00b0 0100     		.2byte	0x1
 2734 00b2 50       		.byte	0x50
 2735 00b3 18000000 		.4byte	.LVL2
 2736 00b7 2C000000 		.4byte	.LFE174
 2737 00bb 0400     		.2byte	0x4
 2738 00bd F3       		.byte	0xf3
 2739 00be 01       		.uleb128 0x1
 2740 00bf 50       		.byte	0x50
 2741 00c0 9F       		.byte	0x9f
 2742 00c1 00000000 		.4byte	0
 2743 00c5 00000000 		.4byte	0
 2744              	.LLST1:
 2745 00c9 00000000 		.4byte	.LVL0
 2746 00cd 08000000 		.4byte	.LVL1
 2747 00d1 0100     		.2byte	0x1
 2748 00d3 51       		.byte	0x51
 2749 00d4 08000000 		.4byte	.LVL1
 2750 00d8 2C000000 		.4byte	.LFE174
 2751 00dc 0400     		.2byte	0x4
 2752 00de F3       		.byte	0xf3
 2753 00df 01       		.uleb128 0x1
 2754 00e0 51       		.byte	0x51
 2755 00e1 9F       		.byte	0x9f
 2756 00e2 00000000 		.4byte	0
 2757 00e6 00000000 		.4byte	0
 2758              		.section	.debug_aranges,"",%progbits
 2759 0000 34000000 		.4byte	0x34
 2760 0004 0200     		.2byte	0x2
 2761 0006 00000000 		.4byte	.Ldebug_info0
 2762 000a 04       		.byte	0x4
 2763 000b 00       		.byte	0
 2764 000c 0000     		.2byte	0
 2765 000e 0000     		.2byte	0
 2766 0010 00000000 		.4byte	.LFB174
 2767 0014 2C000000 		.4byte	.LFE174-.LFB174
 2768 0018 00000000 		.4byte	.LFB175
 2769 001c 20000000 		.4byte	.LFE175-.LFB175
 2770 0020 00000000 		.4byte	.LFB176
 2771 0024 28000000 		.4byte	.LFE176-.LFB176
 2772 0028 00000000 		.4byte	.LFB177
 2773 002c 18000000 		.4byte	.LFE177-.LFB177
 2774 0030 00000000 		.4byte	0
 2775 0034 00000000 		.4byte	0
 2776              		.section	.debug_ranges,"",%progbits
 2777              	.Ldebug_ranges0:
 2778 0000 00000000 		.4byte	.LFB174
 2779 0004 2C000000 		.4byte	.LFE174
 2780 0008 00000000 		.4byte	.LFB175
 2781 000c 20000000 		.4byte	.LFE175
 2782 0010 00000000 		.4byte	.LFB176
 2783 0014 28000000 		.4byte	.LFE176
 2784 0018 00000000 		.4byte	.LFB177
 2785 001c 18000000 		.4byte	.LFE177
 2786 0020 00000000 		.4byte	0
 2787 0024 00000000 		.4byte	0
 2788              		.section	.debug_line,"",%progbits
 2789              	.Ldebug_line0:
ARM GAS  /var/folders/t8/16hdwfmd2fg_d3q6dgx6bpmw0000gn/T//ccm0pgcU.s 			page 50


 2790 0000 BC040000 		.section	.debug_str,"MS",%progbits,1
 2790      02006204 
 2790      00000201 
 2790      FB0E0D00 
 2790      01010101 
 2791              	.LASF49:
 2792 0000 63685F74 		.ascii	"ch_threads_list\000"
 2792      68726561 
 2792      64735F6C 
 2792      69737400 
 2793              	.LASF121:
 2794 0010 74696D65 		.ascii	"timesize\000"
 2794      73697A65 
 2794      00
 2795              	.LASF228:
 2796 0019 474E5520 		.ascii	"GNU C99 7.2.1 20170904 (release) [ARM/embedded-7-br"
 2796      43393920 
 2796      372E322E 
 2796      31203230 
 2796      31373039 
 2797 004c 616E6368 		.ascii	"anch revision 255204] -mcpu=cortex-m0plus -mno-thum"
 2797      20726576 
 2797      6973696F 
 2797      6E203235 
 2797      35323034 
 2798 007f 622D696E 		.ascii	"b-interwork -mthumb -ggdb -O2 -std=gnu99 -fomit-fra"
 2798      74657277 
 2798      6F726B20 
 2798      2D6D7468 
 2798      756D6220 
 2799 00b2 6D652D70 		.ascii	"me-pointer -falign-functions=16 -ffunction-sections"
 2799      6F696E74 
 2799      6572202D 
 2799      66616C69 
 2799      676E2D66 
 2800 00e5 202D6664 		.ascii	" -fdata-sections -fno-common\000"
 2800      6174612D 
 2800      73656374 
 2800      696F6E73 
 2800      202D666E 
 2801              	.LASF109:
 2802 0102 77746D74 		.ascii	"wtmtxp\000"
 2802      787000
 2803              	.LASF99:
 2804 0109 72656761 		.ascii	"regarm_t\000"
 2804      726D5F74 
 2804      00
 2805              	.LASF194:
 2806 0112 74787369 		.ascii	"txsize\000"
 2806      7A6500
 2807              	.LASF163:
 2808 0119 5553425F 		.ascii	"USB_UNINIT\000"
 2808      554E494E 
 2808      495400
 2809              	.LASF165:
 2810 0124 5553425F 		.ascii	"USB_READY\000"
 2810      52454144 
ARM GAS  /var/folders/t8/16hdwfmd2fg_d3q6dgx6bpmw0000gn/T//ccm0pgcU.s 			page 51


 2810      5900
 2811              	.LASF182:
 2812 012e 5553425F 		.ascii	"USB_EVENT_SUSPEND\000"
 2812      4556454E 
 2812      545F5355 
 2812      5350454E 
 2812      4400
 2813              	.LASF37:
 2814 0140 666C6167 		.ascii	"flags\000"
 2814      7300
 2815              	.LASF28:
 2816 0146 73797374 		.ascii	"systime_t\000"
 2816      696D655F 
 2816      7400
 2817              	.LASF44:
 2818 0150 7265616C 		.ascii	"realprio\000"
 2818      7072696F 
 2818      00
 2819              	.LASF219:
 2820 0159 72657175 		.ascii	"requests_hook_cb\000"
 2820      65737473 
 2820      5F686F6F 
 2820      6B5F6362 
 2820      00
 2821              	.LASF42:
 2822 016a 6570656E 		.ascii	"epending\000"
 2822      64696E67 
 2822      00
 2823              	.LASF0:
 2824 0173 756E7369 		.ascii	"unsigned int\000"
 2824      676E6564 
 2824      20696E74 
 2824      00
 2825              	.LASF50:
 2826 0180 6E657874 		.ascii	"next\000"
 2826      00
 2827              	.LASF119:
 2828 0185 76657273 		.ascii	"version\000"
 2828      696F6E00 
 2829              	.LASF47:
 2830 018d 74687265 		.ascii	"threads_list_t\000"
 2830      6164735F 
 2830      6C697374 
 2830      5F7400
 2831              	.LASF146:
 2832 019c 55534244 		.ascii	"USBDriver\000"
 2832      72697665 
 2832      7200
 2833              	.LASF117:
 2834 01a6 7A65726F 		.ascii	"zero\000"
 2834      00
 2835              	.LASF211:
 2836 01ab 6F75745F 		.ascii	"out_maxsize\000"
 2836      6D617873 
 2836      697A6500 
 2837              	.LASF8:
 2838 01b7 5F5F696E 		.ascii	"__int32_t\000"
ARM GAS  /var/folders/t8/16hdwfmd2fg_d3q6dgx6bpmw0000gn/T//ccm0pgcU.s 			page 52


 2838      7433325F 
 2838      7400
 2839              	.LASF171:
 2840 01c1 5553425F 		.ascii	"USB_EP0_TX\000"
 2840      4550305F 
 2840      545800
 2841              	.LASF38:
 2842 01cc 72656673 		.ascii	"refs\000"
 2842      00
 2843              	.LASF212:
 2844 01d1 696E5F73 		.ascii	"in_state\000"
 2844      74617465 
 2844      00
 2845              	.LASF133:
 2846 01da 6F66665F 		.ascii	"off_time\000"
 2846      74696D65 
 2846      00
 2847              	.LASF221:
 2848 01e3 55534243 		.ascii	"USBConfig\000"
 2848      6F6E6669 
 2848      6700
 2849              	.LASF206:
 2850 01ed 65705F6D 		.ascii	"ep_mode\000"
 2850      6F646500 
 2851              	.LASF105:
 2852 01f5 77746F62 		.ascii	"wtobjp\000"
 2852      6A7000
 2853              	.LASF155:
 2854 01fc 65703065 		.ascii	"ep0endcb\000"
 2854      6E646362 
 2854      00
 2855              	.LASF73:
 2856 0205 76746C69 		.ascii	"vtlist\000"
 2856      737400
 2857              	.LASF186:
 2858 020c 75645F73 		.ascii	"ud_size\000"
 2858      697A6500 
 2859              	.LASF101:
 2860 0214 706F7274 		.ascii	"port_context\000"
 2860      5F636F6E 
 2860      74657874 
 2860      00
 2861              	.LASF55:
 2862 0221 63685F72 		.ascii	"ch_ready_list\000"
 2862      65616479 
 2862      5F6C6973 
 2862      7400
 2863              	.LASF61:
 2864 022f 66756E63 		.ascii	"func\000"
 2864      00
 2865              	.LASF110:
 2866 0234 65776D61 		.ascii	"ewmask\000"
 2866      736B00
 2867              	.LASF226:
 2868 023b 6E766963 		.ascii	"nvicDisableVector\000"
 2868      44697361 
 2868      626C6556 
ARM GAS  /var/folders/t8/16hdwfmd2fg_d3q6dgx6bpmw0000gn/T//ccm0pgcU.s 			page 53


 2868      6563746F 
 2868      7200
 2869              	.LASF53:
 2870 024d 70726576 		.ascii	"prev\000"
 2870      00
 2871              	.LASF52:
 2872 0252 63685F74 		.ascii	"ch_threads_queue\000"
 2872      68726561 
 2872      64735F71 
 2872      75657565 
 2872      00
 2873              	.LASF178:
 2874 0263 5553425F 		.ascii	"USB_EVENT_RESET\000"
 2874      4556454E 
 2874      545F5245 
 2874      53455400 
 2875              	.LASF214:
 2876 0273 65705F62 		.ascii	"ep_buffers\000"
 2876      75666665 
 2876      727300
 2877              	.LASF125:
 2878 027e 6F66665F 		.ascii	"off_newer\000"
 2878      6E657765 
 2878      7200
 2879              	.LASF57:
 2880 0288 76746675 		.ascii	"vtfunc_t\000"
 2880      6E635F74 
 2880      00
 2881              	.LASF170:
 2882 0291 5553425F 		.ascii	"USB_EP0_WAITING_SETUP\000"
 2882      4550305F 
 2882      57414954 
 2882      494E475F 
 2882      53455455 
 2883              	.LASF200:
 2884 02a7 55534249 		.ascii	"USBInEndpointState\000"
 2884      6E456E64 
 2884      706F696E 
 2884      74537461 
 2884      746500
 2885              	.LASF66:
 2886 02ba 63685F73 		.ascii	"ch_system_debug\000"
 2886      79737465 
 2886      6D5F6465 
 2886      62756700 
 2887              	.LASF229:
 2888 02ca 2E2E2F2E 		.ascii	"../../tmk_core/tool/chibios/ChibiOS/os/hal/ports/co"
 2888      2E2F746D 
 2888      6B5F636F 
 2888      72652F74 
 2888      6F6F6C2F 
 2889 02fd 6D6D6F6E 		.ascii	"mmon/ARMCMx/nvic.c\000"
 2889      2F41524D 
 2889      434D782F 
 2889      6E766963 
 2889      2E6300
 2890              	.LASF18:
ARM GAS  /var/folders/t8/16hdwfmd2fg_d3q6dgx6bpmw0000gn/T//ccm0pgcU.s 			page 54


 2891 0310 75696E74 		.ascii	"uint32_t\000"
 2891      33325F74 
 2891      00
 2892              	.LASF107:
 2893 0319 73656E74 		.ascii	"sentmsg\000"
 2893      6D736700 
 2894              	.LASF26:
 2895 0321 6576656E 		.ascii	"eventmask_t\000"
 2895      746D6173 
 2895      6B5F7400 
 2896              	.LASF75:
 2897 032d 49534552 		.ascii	"ISER\000"
 2897      00
 2898              	.LASF122:
 2899 0332 74687265 		.ascii	"threadsize\000"
 2899      61647369 
 2899      7A6500
 2900              	.LASF111:
 2901 033d 63685F73 		.ascii	"ch_semaphore\000"
 2901      656D6170 
 2901      686F7265 
 2901      00
 2902              	.LASF24:
 2903 034a 74707269 		.ascii	"tprio_t\000"
 2903      6F5F7400 
 2904              	.LASF78:
 2905 0352 52534552 		.ascii	"RSERVED1\000"
 2905      56454431 
 2905      00
 2906              	.LASF59:
 2907 035b 63685F76 		.ascii	"ch_virtual_timer\000"
 2907      69727475 
 2907      616C5F74 
 2907      696D6572 
 2907      00
 2908              	.LASF172:
 2909 036c 5553425F 		.ascii	"USB_EP0_WAITING_TX0\000"
 2909      4550305F 
 2909      57414954 
 2909      494E475F 
 2909      54583000 
 2910              	.LASF97:
 2911 0380 50444452 		.ascii	"PDDR\000"
 2911      00
 2912              	.LASF14:
 2913 0385 6C6F6E67 		.ascii	"long long unsigned int\000"
 2913      206C6F6E 
 2913      6720756E 
 2913      7369676E 
 2913      65642069 
 2914              	.LASF195:
 2915 039c 7478636E 		.ascii	"txcnt\000"
 2915      7400
 2916              	.LASF148:
 2917 03a2 7472616E 		.ascii	"transmitting\000"
 2917      736D6974 
 2917      74696E67 
ARM GAS  /var/folders/t8/16hdwfmd2fg_d3q6dgx6bpmw0000gn/T//ccm0pgcU.s 			page 55


 2917      00
 2918              	.LASF216:
 2919 03af 55534245 		.ascii	"USBEndpointConfig\000"
 2919      6E64706F 
 2919      696E7443 
 2919      6F6E6669 
 2919      6700
 2920              	.LASF149:
 2921 03c1 72656365 		.ascii	"receiving\000"
 2921      6976696E 
 2921      6700
 2922              	.LASF217:
 2923 03cb 6576656E 		.ascii	"event_cb\000"
 2923      745F6362 
 2923      00
 2924              	.LASF6:
 2925 03d4 5F5F7569 		.ascii	"__uint16_t\000"
 2925      6E743136 
 2925      5F7400
 2926              	.LASF27:
 2927 03df 636E745F 		.ascii	"cnt_t\000"
 2927      7400
 2928              	.LASF128:
 2929 03e5 6F66665F 		.ascii	"off_stklimit\000"
 2929      73746B6C 
 2929      696D6974 
 2929      00
 2930              	.LASF68:
 2931 03f2 6973725F 		.ascii	"isr_cnt\000"
 2931      636E7400 
 2932              	.LASF113:
 2933 03fa 6F776E65 		.ascii	"owner\000"
 2933      7200
 2934              	.LASF51:
 2935 0400 74687265 		.ascii	"threads_queue_t\000"
 2935      6164735F 
 2935      71756575 
 2935      655F7400 
 2936              	.LASF196:
 2937 0410 74786275 		.ascii	"txbuf\000"
 2937      6600
 2938              	.LASF43:
 2939 0416 6D74786C 		.ascii	"mtxlist\000"
 2939      69737400 
 2940              	.LASF63:
 2941 041e 63685F76 		.ascii	"ch_virtual_timers_list\000"
 2941      69727475 
 2941      616C5F74 
 2941      696D6572 
 2941      735F6C69 
 2942              	.LASF209:
 2943 0435 6F75745F 		.ascii	"out_cb\000"
 2943      636200
 2944              	.LASF95:
 2945 043c 50544F52 		.ascii	"PTOR\000"
 2945      00
 2946              	.LASF29:
ARM GAS  /var/folders/t8/16hdwfmd2fg_d3q6dgx6bpmw0000gn/T//ccm0pgcU.s 			page 56


 2947 0441 74687265 		.ascii	"thread_t\000"
 2947      61645F74 
 2947      00
 2948              	.LASF126:
 2949 044a 6F66665F 		.ascii	"off_older\000"
 2949      6F6C6465 
 2949      7200
 2950              	.LASF129:
 2951 0454 6F66665F 		.ascii	"off_state\000"
 2951      73746174 
 2951      6500
 2952              	.LASF2:
 2953 045e 73697A65 		.ascii	"size_t\000"
 2953      5F7400
 2954              	.LASF103:
 2955 0465 7264796D 		.ascii	"rdymsg\000"
 2955      736700
 2956              	.LASF141:
 2957 046c 70616473 		.ascii	"pads\000"
 2957      00
 2958              	.LASF85:
 2959 0471 43505549 		.ascii	"CPUID\000"
 2959      4400
 2960              	.LASF167:
 2961 0477 5553425F 		.ascii	"USB_ACTIVE\000"
 2961      41435449 
 2961      564500
 2962              	.LASF137:
 2963 0482 5F426F6F 		.ascii	"_Bool\000"
 2963      6C00
 2964              	.LASF112:
 2965 0488 63685F6D 		.ascii	"ch_mutex\000"
 2965      75746578 
 2965      00
 2966              	.LASF13:
 2967 0491 5F5F7569 		.ascii	"__uint64_t\000"
 2967      6E743634 
 2967      5F7400
 2968              	.LASF218:
 2969 049c 6765745F 		.ascii	"get_descriptor_cb\000"
 2969      64657363 
 2969      72697074 
 2969      6F725F63 
 2969      6200
 2970              	.LASF145:
 2971 04ae 70616C5F 		.ascii	"pal_default_config\000"
 2971      64656661 
 2971      756C745F 
 2971      636F6E66 
 2971      696700
 2972              	.LASF173:
 2973 04c1 5553425F 		.ascii	"USB_EP0_WAITING_STS\000"
 2973      4550305F 
 2973      57414954 
 2973      494E475F 
 2973      53545300 
 2974              	.LASF169:
ARM GAS  /var/folders/t8/16hdwfmd2fg_d3q6dgx6bpmw0000gn/T//ccm0pgcU.s 			page 57


 2975 04d5 75736273 		.ascii	"usbstate_t\000"
 2975      74617465 
 2975      5F7400
 2976              	.LASF124:
 2977 04e0 6F66665F 		.ascii	"off_ctx\000"
 2977      63747800 
 2978              	.LASF139:
 2979 04e8 696F706F 		.ascii	"ioportid_t\000"
 2979      72746964 
 2979      5F7400
 2980              	.LASF223:
 2981 04f3 6E766963 		.ascii	"nvicClearPending\000"
 2981      436C6561 
 2981      7250656E 
 2981      64696E67 
 2981      00
 2982              	.LASF130:
 2983 0504 6F66665F 		.ascii	"off_flags\000"
 2983      666C6167 
 2983      7300
 2984              	.LASF31:
 2985 050e 7072696F 		.ascii	"prio\000"
 2985      00
 2986              	.LASF179:
 2987 0513 5553425F 		.ascii	"USB_EVENT_ADDRESS\000"
 2987      4556454E 
 2987      545F4144 
 2987      44524553 
 2987      5300
 2988              	.LASF114:
 2989 0525 63686172 		.ascii	"char\000"
 2989      00
 2990              	.LASF46:
 2991 052a 74687265 		.ascii	"thread_reference_t\000"
 2991      61645F72 
 2991      65666572 
 2991      656E6365 
 2991      5F7400
 2992              	.LASF35:
 2993 053d 77616261 		.ascii	"wabase\000"
 2993      736500
 2994              	.LASF115:
 2995 0544 63685F69 		.ascii	"ch_idle_thread_wa\000"
 2995      646C655F 
 2995      74687265 
 2995      61645F77 
 2995      6100
 2996              	.LASF86:
 2997 0556 49435352 		.ascii	"ICSR\000"
 2997      00
 2998              	.LASF232:
 2999 055b 63685379 		.ascii	"chSysHalt\000"
 2999      7348616C 
 2999      7400
 3000              	.LASF21:
 3001 0565 74737461 		.ascii	"tstate_t\000"
 3001      74655F74 
ARM GAS  /var/folders/t8/16hdwfmd2fg_d3q6dgx6bpmw0000gn/T//ccm0pgcU.s 			page 58


 3001      00
 3002              	.LASF88:
 3003 056e 41495243 		.ascii	"AIRCR\000"
 3003      5200
 3004              	.LASF153:
 3005 0574 6570306E 		.ascii	"ep0next\000"
 3005      65787400 
 3006              	.LASF204:
 3007 057c 7278706B 		.ascii	"rxpkts\000"
 3007      747300
 3008              	.LASF15:
 3009 0583 75696E74 		.ascii	"uint8_t\000"
 3009      385F7400 
 3010              	.LASF157:
 3011 058b 73746174 		.ascii	"status\000"
 3011      757300
 3012              	.LASF208:
 3013 0592 696E5F63 		.ascii	"in_cb\000"
 3013      6200
 3014              	.LASF41:
 3015 0598 6D736771 		.ascii	"msgqueue\000"
 3015      75657565 
 3015      00
 3016              	.LASF48:
 3017 05a1 63685F74 		.ascii	"ch_thread\000"
 3017      68726561 
 3017      6400
 3018              	.LASF127:
 3019 05ab 6F66665F 		.ascii	"off_name\000"
 3019      6E616D65 
 3019      00
 3020              	.LASF65:
 3021 05b4 73797374 		.ascii	"system_debug_t\000"
 3021      656D5F64 
 3021      65627567 
 3021      5F7400
 3022              	.LASF12:
 3023 05c3 6C6F6E67 		.ascii	"long long int\000"
 3023      206C6F6E 
 3023      6720696E 
 3023      7400
 3024              	.LASF90:
 3025 05d1 53484353 		.ascii	"SHCSR\000"
 3025      5200
 3026              	.LASF25:
 3027 05d7 6D73675F 		.ascii	"msg_t\000"
 3027      7400
 3028              	.LASF154:
 3029 05dd 6570306E 		.ascii	"ep0n\000"
 3029      00
 3030              	.LASF213:
 3031 05e2 6F75745F 		.ascii	"out_state\000"
 3031      73746174 
 3031      6500
 3032              	.LASF58:
 3033 05ec 76697274 		.ascii	"virtual_timer_t\000"
 3033      75616C5F 
ARM GAS  /var/folders/t8/16hdwfmd2fg_d3q6dgx6bpmw0000gn/T//ccm0pgcU.s 			page 59


 3033      74696D65 
 3033      725F7400 
 3034              	.LASF138:
 3035 05fc 696F6D6F 		.ascii	"iomode_t\000"
 3035      64655F74 
 3035      00
 3036              	.LASF150:
 3037 0605 696E5F70 		.ascii	"in_params\000"
 3037      6172616D 
 3037      7300
 3038              	.LASF220:
 3039 060f 736F665F 		.ascii	"sof_cb\000"
 3039      636200
 3040              	.LASF199:
 3041 0616 64617461 		.ascii	"data_bank\000"
 3041      5F62616E 
 3041      6B00
 3042              	.LASF118:
 3043 0620 73697A65 		.ascii	"size\000"
 3043      00
 3044              	.LASF94:
 3045 0625 50434F52 		.ascii	"PCOR\000"
 3045      00
 3046              	.LASF120:
 3047 062a 70747273 		.ascii	"ptrsize\000"
 3047      697A6500 
 3048              	.LASF96:
 3049 0632 50444952 		.ascii	"PDIR\000"
 3049      00
 3050              	.LASF184:
 3051 0637 5553425F 		.ascii	"USB_EVENT_STALLED\000"
 3051      4556454E 
 3051      545F5354 
 3051      414C4C45 
 3051      4400
 3052              	.LASF23:
 3053 0649 74736C69 		.ascii	"tslices_t\000"
 3053      6365735F 
 3053      7400
 3054              	.LASF230:
 3055 0653 2F557365 		.ascii	"/Users/jpablobr/tmp/tmk/di0ib-tmk_keyboard/keyboard"
 3055      72732F6A 
 3055      7061626C 
 3055      6F62722F 
 3055      746D702F 
 3056 0686 2F746565 		.ascii	"/teensy_lc_menelaus\000"
 3056      6E73795F 
 3056      6C635F6D 
 3056      656E656C 
 3056      61757300 
 3057              	.LASF168:
 3058 069a 5553425F 		.ascii	"USB_SUSPENDED\000"
 3058      53555350 
 3058      454E4445 
 3058      4400
 3059              	.LASF159:
 3060 06a8 636F6E66 		.ascii	"configuration\000"
ARM GAS  /var/folders/t8/16hdwfmd2fg_d3q6dgx6bpmw0000gn/T//ccm0pgcU.s 			page 60


 3060      69677572 
 3060      6174696F 
 3060      6E00
 3061              	.LASF215:
 3062 06b6 73657475 		.ascii	"setup_buf\000"
 3062      705F6275 
 3062      6600
 3063              	.LASF81:
 3064 06c0 49435052 		.ascii	"ICPR\000"
 3064      00
 3065              	.LASF181:
 3066 06c5 5553425F 		.ascii	"USB_EVENT_UNCONFIGURED\000"
 3066      4556454E 
 3066      545F554E 
 3066      434F4E46 
 3066      49475552 
 3067              	.LASF67:
 3068 06dc 70616E69 		.ascii	"panic_msg\000"
 3068      635F6D73 
 3068      6700
 3069              	.LASF188:
 3070 06e6 55534244 		.ascii	"USBDescriptor\000"
 3070      65736372 
 3070      6970746F 
 3070      7200
 3071              	.LASF20:
 3072 06f4 746D6F64 		.ascii	"tmode_t\000"
 3072      655F7400 
 3073              	.LASF64:
 3074 06fc 73797374 		.ascii	"systime\000"
 3074      696D6500 
 3075              	.LASF74:
 3076 0704 6D61696E 		.ascii	"mainthread\000"
 3076      74687265 
 3076      616400
 3077              	.LASF152:
 3078 070f 65703073 		.ascii	"ep0state\000"
 3078      74617465 
 3078      00
 3079              	.LASF16:
 3080 0718 75696E74 		.ascii	"uint16_t\000"
 3080      31365F74 
 3080      00
 3081              	.LASF134:
 3082 0721 63686465 		.ascii	"chdebug_t\000"
 3082      6275675F 
 3082      7400
 3083              	.LASF123:
 3084 072b 6F66665F 		.ascii	"off_prio\000"
 3084      7072696F 
 3084      00
 3085              	.LASF227:
 3086 0734 6E766963 		.ascii	"nvicEnableVector\000"
 3086      456E6162 
 3086      6C655665 
 3086      63746F72 
 3086      00
ARM GAS  /var/folders/t8/16hdwfmd2fg_d3q6dgx6bpmw0000gn/T//ccm0pgcU.s 			page 61


 3087              	.LASF69:
 3088 0745 6C6F636B 		.ascii	"lock_cnt\000"
 3088      5F636E74 
 3088      00
 3089              	.LASF147:
 3090 074e 636F6E66 		.ascii	"config\000"
 3090      696700
 3091              	.LASF76:
 3092 0755 52455345 		.ascii	"RESERVED0\000"
 3092      52564544 
 3092      3000
 3093              	.LASF89:
 3094 075f 52455345 		.ascii	"RESERVED1\000"
 3094      52564544 
 3094      3100
 3095              	.LASF80:
 3096 0769 52455345 		.ascii	"RESERVED2\000"
 3096      52564544 
 3096      3200
 3097              	.LASF82:
 3098 0773 52455345 		.ascii	"RESERVED3\000"
 3098      52564544 
 3098      3300
 3099              	.LASF83:
 3100 077d 52455345 		.ascii	"RESERVED4\000"
 3100      52564544 
 3100      3400
 3101              	.LASF5:
 3102 0787 73686F72 		.ascii	"short int\000"
 3102      7420696E 
 3102      7400
 3103              	.LASF151:
 3104 0791 6F75745F 		.ascii	"out_params\000"
 3104      70617261 
 3104      6D7300
 3105              	.LASF9:
 3106 079c 6C6F6E67 		.ascii	"long int\000"
 3106      20696E74 
 3106      00
 3107              	.LASF102:
 3108 07a5 706F7274 		.ascii	"port_intctx\000"
 3108      5F696E74 
 3108      63747800 
 3109              	.LASF39:
 3110 07b1 70726565 		.ascii	"preempt\000"
 3110      6D707400 
 3111              	.LASF205:
 3112 07b9 5553424F 		.ascii	"USBOutEndpointState\000"
 3112      7574456E 
 3112      64706F69 
 3112      6E745374 
 3112      61746500 
 3113              	.LASF160:
 3114 07cd 73617665 		.ascii	"saved_state\000"
 3114      645F7374 
 3114      61746500 
 3115              	.LASF193:
ARM GAS  /var/folders/t8/16hdwfmd2fg_d3q6dgx6bpmw0000gn/T//ccm0pgcU.s 			page 62


 3116 07d9 75736267 		.ascii	"usbgetdescriptor_t\000"
 3116      65746465 
 3116      73637269 
 3116      70746F72 
 3116      5F7400
 3117              	.LASF71:
 3118 07ec 63685F73 		.ascii	"ch_system\000"
 3118      79737465 
 3118      6D00
 3119              	.LASF225:
 3120 07f6 68616E64 		.ascii	"handler\000"
 3120      6C657200 
 3121              	.LASF19:
 3122 07fe 75696E74 		.ascii	"uint64_t\000"
 3122      36345F74 
 3122      00
 3123              	.LASF72:
 3124 0807 726C6973 		.ascii	"rlist\000"
 3124      7400
 3125              	.LASF166:
 3126 080d 5553425F 		.ascii	"USB_SELECTED\000"
 3126      53454C45 
 3126      43544544 
 3126      00
 3127              	.LASF3:
 3128 081a 5F5F7569 		.ascii	"__uint8_t\000"
 3128      6E74385F 
 3128      7400
 3129              	.LASF84:
 3130 0824 4E564943 		.ascii	"NVIC_Type\000"
 3130      5F547970 
 3130      6500
 3131              	.LASF91:
 3132 082e 5343425F 		.ascii	"SCB_Type\000"
 3132      54797065 
 3132      00
 3133              	.LASF34:
 3134 0837 6E616D65 		.ascii	"name\000"
 3134      00
 3135              	.LASF190:
 3136 083c 75736265 		.ascii	"usbepcallback_t\000"
 3136      7063616C 
 3136      6C626163 
 3136      6B5F7400 
 3137              	.LASF201:
 3138 084c 72787369 		.ascii	"rxsize\000"
 3138      7A6500
 3139              	.LASF98:
 3140 0853 4750494F 		.ascii	"GPIO_TypeDef\000"
 3140      5F547970 
 3140      65446566 
 3140      00
 3141              	.LASF116:
 3142 0860 6964656E 		.ascii	"identifier\000"
 3142      74696669 
 3142      657200
 3143              	.LASF87:
ARM GAS  /var/folders/t8/16hdwfmd2fg_d3q6dgx6bpmw0000gn/T//ccm0pgcU.s 			page 63


 3144 086b 56544F52 		.ascii	"VTOR\000"
 3144      00
 3145              	.LASF132:
 3146 0870 6F66665F 		.ascii	"off_preempt\000"
 3146      70726565 
 3146      6D707400 
 3147              	.LASF144:
 3148 087c 50414C43 		.ascii	"PALConfig\000"
 3148      6F6E6669 
 3148      6700
 3149              	.LASF22:
 3150 0886 74726566 		.ascii	"trefs_t\000"
 3150      735F7400 
 3151              	.LASF11:
 3152 088e 6C6F6E67 		.ascii	"long unsigned int\000"
 3152      20756E73 
 3152      69676E65 
 3152      6420696E 
 3152      7400
 3153              	.LASF158:
 3154 08a0 61646472 		.ascii	"address\000"
 3154      65737300 
 3155              	.LASF54:
 3156 08a8 72656164 		.ascii	"ready_list_t\000"
 3156      795F6C69 
 3156      73745F74 
 3156      00
 3157              	.LASF198:
 3158 08b5 6F64645F 		.ascii	"odd_even\000"
 3158      6576656E 
 3158      00
 3159              	.LASF30:
 3160 08be 71756575 		.ascii	"queue\000"
 3160      6500
 3161              	.LASF17:
 3162 08c4 696E7433 		.ascii	"int32_t\000"
 3162      325F7400 
 3163              	.LASF140:
 3164 08cc 706F7274 		.ascii	"port\000"
 3164      00
 3165              	.LASF197:
 3166 08d1 74687265 		.ascii	"thread\000"
 3166      616400
 3167              	.LASF136:
 3168 08d8 6D757465 		.ascii	"mutex_t\000"
 3168      785F7400 
 3169              	.LASF32:
 3170 08e0 6E657765 		.ascii	"newer\000"
 3170      7200
 3171              	.LASF4:
 3172 08e6 756E7369 		.ascii	"unsigned char\000"
 3172      676E6564 
 3172      20636861 
 3172      7200
 3173              	.LASF156:
 3174 08f4 73657475 		.ascii	"setup\000"
 3174      7000
ARM GAS  /var/folders/t8/16hdwfmd2fg_d3q6dgx6bpmw0000gn/T//ccm0pgcU.s 			page 64


 3175              	.LASF161:
 3176 08fa 706D6E65 		.ascii	"pmnext\000"
 3176      787400
 3177              	.LASF10:
 3178 0901 5F5F7569 		.ascii	"__uint32_t\000"
 3178      6E743332 
 3178      5F7400
 3179              	.LASF40:
 3180 090c 77616974 		.ascii	"waiting\000"
 3180      696E6700 
 3181              	.LASF176:
 3182 0914 5553425F 		.ascii	"USB_EP0_ERROR\000"
 3182      4550305F 
 3182      4552524F 
 3182      5200
 3183              	.LASF62:
 3184 0922 76697274 		.ascii	"virtual_timers_list_t\000"
 3184      75616C5F 
 3184      74696D65 
 3184      72735F6C 
 3184      6973745F 
 3185              	.LASF162:
 3186 0938 75736265 		.ascii	"usbep_t\000"
 3186      705F7400 
 3187              	.LASF207:
 3188 0940 73657475 		.ascii	"setup_cb\000"
 3188      705F6362 
 3188      00
 3189              	.LASF187:
 3190 0949 75645F73 		.ascii	"ud_string\000"
 3190      7472696E 
 3190      6700
 3191              	.LASF77:
 3192 0953 49434552 		.ascii	"ICER\000"
 3192      00
 3193              	.LASF183:
 3194 0958 5553425F 		.ascii	"USB_EVENT_WAKEUP\000"
 3194      4556454E 
 3194      545F5741 
 3194      4B455550 
 3194      00
 3195              	.LASF36:
 3196 0969 73746174 		.ascii	"state\000"
 3196      6500
 3197              	.LASF191:
 3198 096f 75736265 		.ascii	"usbeventcb_t\000"
 3198      76656E74 
 3198      63625F74 
 3198      00
 3199              	.LASF70:
 3200 097c 63685F73 		.ascii	"ch_system_t\000"
 3200      79737465 
 3200      6D5F7400 
 3201              	.LASF108:
 3202 0988 77747365 		.ascii	"wtsemp\000"
 3202      6D7000
 3203              	.LASF106:
ARM GAS  /var/folders/t8/16hdwfmd2fg_d3q6dgx6bpmw0000gn/T//ccm0pgcU.s 			page 65


 3204 098f 77747472 		.ascii	"wttrp\000"
 3204      7000
 3205              	.LASF143:
 3206 0995 706F7274 		.ascii	"ports\000"
 3206      7300
 3207              	.LASF222:
 3208 099b 55534244 		.ascii	"USBD1\000"
 3208      3100
 3209              	.LASF93:
 3210 09a1 50534F52 		.ascii	"PSOR\000"
 3210      00
 3211              	.LASF1:
 3212 09a6 7369676E 		.ascii	"signed char\000"
 3212      65642063 
 3212      68617200 
 3213              	.LASF60:
 3214 09b2 64656C74 		.ascii	"delta\000"
 3214      6100
 3215              	.LASF7:
 3216 09b8 73686F72 		.ascii	"short unsigned int\000"
 3216      7420756E 
 3216      7369676E 
 3216      65642069 
 3216      6E7400
 3217              	.LASF100:
 3218 09cb 73746B61 		.ascii	"stkalign_t\000"
 3218      6C69676E 
 3218      5F7400
 3219              	.LASF131:
 3220 09d6 6F66665F 		.ascii	"off_refs\000"
 3220      72656673 
 3220      00
 3221              	.LASF56:
 3222 09df 63757272 		.ascii	"current\000"
 3222      656E7400 
 3223              	.LASF231:
 3224 09e7 5F5F6675 		.ascii	"__func__\000"
 3224      6E635F5F 
 3224      00
 3225              	.LASF79:
 3226 09f0 49535052 		.ascii	"ISPR\000"
 3226      00
 3227              	.LASF135:
 3228 09f5 63685F64 		.ascii	"ch_debug\000"
 3228      65627567 
 3228      00
 3229              	.LASF175:
 3230 09fe 5553425F 		.ascii	"USB_EP0_SENDING_STS\000"
 3230      4550305F 
 3230      53454E44 
 3230      494E475F 
 3230      53545300 
 3231              	.LASF202:
 3232 0a12 7278636E 		.ascii	"rxcnt\000"
 3232      7400
 3233              	.LASF210:
 3234 0a18 696E5F6D 		.ascii	"in_maxsize\000"
ARM GAS  /var/folders/t8/16hdwfmd2fg_d3q6dgx6bpmw0000gn/T//ccm0pgcU.s 			page 66


 3234      61787369 
 3234      7A6500
 3235              	.LASF185:
 3236 0a23 75736265 		.ascii	"usbevent_t\000"
 3236      76656E74 
 3236      5F7400
 3237              	.LASF92:
 3238 0a2e 50444F52 		.ascii	"PDOR\000"
 3238      00
 3239              	.LASF142:
 3240 0a33 506F7274 		.ascii	"PortConfig\000"
 3240      436F6E66 
 3240      696700
 3241              	.LASF174:
 3242 0a3e 5553425F 		.ascii	"USB_EP0_RX\000"
 3242      4550305F 
 3242      525800
 3243              	.LASF177:
 3244 0a49 75736265 		.ascii	"usbep0state_t\000"
 3244      70307374 
 3244      6174655F 
 3244      7400
 3245              	.LASF180:
 3246 0a57 5553425F 		.ascii	"USB_EVENT_CONFIGURED\000"
 3246      4556454E 
 3246      545F434F 
 3246      4E464947 
 3246      55524544 
 3247              	.LASF189:
 3248 0a6c 75736263 		.ascii	"usbcallback_t\000"
 3248      616C6C62 
 3248      61636B5F 
 3248      7400
 3249              	.LASF33:
 3250 0a7a 6F6C6465 		.ascii	"older\000"
 3250      7200
 3251              	.LASF104:
 3252 0a80 65786974 		.ascii	"exitcode\000"
 3252      636F6465 
 3252      00
 3253              	.LASF164:
 3254 0a89 5553425F 		.ascii	"USB_STOP\000"
 3254      53544F50 
 3254      00
 3255              	.LASF203:
 3256 0a92 72786275 		.ascii	"rxbuf\000"
 3256      6600
 3257              	.LASF45:
 3258 0a98 6D706F6F 		.ascii	"mpool\000"
 3258      6C00
 3259              	.LASF192:
 3260 0a9e 75736272 		.ascii	"usbreqhandler_t\000"
 3260      65716861 
 3260      6E646C65 
 3260      725F7400 
 3261              	.LASF224:
 3262 0aae 6E766963 		.ascii	"nvicSetSystemHandlerPriority\000"
ARM GAS  /var/folders/t8/16hdwfmd2fg_d3q6dgx6bpmw0000gn/T//ccm0pgcU.s 			page 67


 3262      53657453 
 3262      79737465 
 3262      6D48616E 
 3262      646C6572 
 3263              		.ident	"GCC: (GNU Tools for Arm Embedded Processors 7-2017-q4-major) 7.2.1 20170904 (release) [ARM
ARM GAS  /var/folders/t8/16hdwfmd2fg_d3q6dgx6bpmw0000gn/T//ccm0pgcU.s 			page 68


DEFINED SYMBOLS
                            *ABS*:0000000000000000 nvic.c
/var/folders/t8/16hdwfmd2fg_d3q6dgx6bpmw0000gn/T//ccm0pgcU.s:16     .text.nvicEnableVector:0000000000000000 $t
/var/folders/t8/16hdwfmd2fg_d3q6dgx6bpmw0000gn/T//ccm0pgcU.s:24     .text.nvicEnableVector:0000000000000000 nvicEnableVector
/var/folders/t8/16hdwfmd2fg_d3q6dgx6bpmw0000gn/T//ccm0pgcU.s:64     .text.nvicEnableVector:0000000000000028 $d
/var/folders/t8/16hdwfmd2fg_d3q6dgx6bpmw0000gn/T//ccm0pgcU.s:69     .text.nvicDisableVector:0000000000000000 $t
/var/folders/t8/16hdwfmd2fg_d3q6dgx6bpmw0000gn/T//ccm0pgcU.s:77     .text.nvicDisableVector:0000000000000000 nvicDisableVector
/var/folders/t8/16hdwfmd2fg_d3q6dgx6bpmw0000gn/T//ccm0pgcU.s:108    .text.nvicDisableVector:000000000000001c $d
/var/folders/t8/16hdwfmd2fg_d3q6dgx6bpmw0000gn/T//ccm0pgcU.s:113    .text.nvicSetSystemHandlerPriority:0000000000000000 $t
/var/folders/t8/16hdwfmd2fg_d3q6dgx6bpmw0000gn/T//ccm0pgcU.s:121    .text.nvicSetSystemHandlerPriority:0000000000000000 nvicSetSystemHandlerPriority
/var/folders/t8/16hdwfmd2fg_d3q6dgx6bpmw0000gn/T//ccm0pgcU.s:161    .text.nvicSetSystemHandlerPriority:0000000000000020 $d
/var/folders/t8/16hdwfmd2fg_d3q6dgx6bpmw0000gn/T//ccm0pgcU.s:167    .text.nvicClearPending:0000000000000000 $t
/var/folders/t8/16hdwfmd2fg_d3q6dgx6bpmw0000gn/T//ccm0pgcU.s:175    .text.nvicClearPending:0000000000000000 nvicClearPending
/var/folders/t8/16hdwfmd2fg_d3q6dgx6bpmw0000gn/T//ccm0pgcU.s:200    .text.nvicClearPending:0000000000000014 $d
/var/folders/t8/16hdwfmd2fg_d3q6dgx6bpmw0000gn/T//ccm0pgcU.s:205    .rodata.__func__.6428:0000000000000000 $d
/var/folders/t8/16hdwfmd2fg_d3q6dgx6bpmw0000gn/T//ccm0pgcU.s:209    .rodata.__func__.6428:0000000000000000 __func__.6428

UNDEFINED SYMBOLS
chSysHalt
