ARM GAS  /var/folders/t8/16hdwfmd2fg_d3q6dgx6bpmw0000gn/T//cchN4XO4.s 			page 1


   1              		.cpu cortex-m0plus
   2              		.eabi_attribute 20, 1
   3              		.eabi_attribute 21, 1
   4              		.eabi_attribute 23, 3
   5              		.eabi_attribute 24, 1
   6              		.eabi_attribute 25, 1
   7              		.eabi_attribute 26, 1
   8              		.eabi_attribute 30, 2
   9              		.eabi_attribute 34, 0
  10              		.eabi_attribute 18, 4
  11              		.file	"printf.c"
  12              		.text
  13              	.Ltext0:
  14              		.cfi_sections	.debug_frame
  15              		.global	__aeabi_uidiv
  16              		.global	__aeabi_uidivmod
  17              		.section	.text.uli2a,"ax",%progbits
  18              		.align	1
  19              		.p2align 4,,15
  20              		.syntax unified
  21              		.code	16
  22              		.thumb_func
  23              		.fpu softvfp
  24              		.type	uli2a, %function
  25              	uli2a:
  26              	.LFB0:
  27              		.file 1 "../../tmk_core/common/chibios/printf.c"
  28              		.loc 1 39 0
  29              		.cfi_startproc
  30              		@ args = 0, pretend = 0, frame = 0
  31              		@ frame_needed = 0, uses_anonymous_args = 0
  32              	.LVL0:
  33 0000 F8B5     		push	{r3, r4, r5, r6, r7, lr}
  34              		.cfi_def_cfa_offset 24
  35              		.cfi_offset 3, -24
  36              		.cfi_offset 4, -20
  37              		.cfi_offset 5, -16
  38              		.cfi_offset 6, -12
  39              		.cfi_offset 7, -8
  40              		.cfi_offset 14, -4
  41 0002 4546     		mov	r5, r8
  42 0004 5746     		mov	r7, r10
  43 0006 4E46     		mov	r6, r9
  44 0008 DE46     		mov	lr, fp
  45 000a 9846     		mov	r8, r3
  46 000c E0B5     		push	{r5, r6, r7, lr}
  47              		.cfi_def_cfa_offset 40
  48              		.cfi_offset 8, -40
  49              		.cfi_offset 9, -36
  50              		.cfi_offset 10, -32
  51              		.cfi_offset 11, -28
  52              		.loc 1 41 0
  53 000e 0124     		movs	r4, #1
  54              		.loc 1 39 0
  55 0010 0600     		movs	r6, r0
  56 0012 0F00     		movs	r7, r1
  57 0014 1500     		movs	r5, r2
ARM GAS  /var/folders/t8/16hdwfmd2fg_d3q6dgx6bpmw0000gn/T//cchN4XO4.s 			page 2


  58              		.loc 1 42 0
  59 0016 8842     		cmp	r0, r1
  60 0018 08D3     		bcc	.L2
  61              	.LVL1:
  62              	.L3:
  63              		.loc 1 43 0
  64 001a 7C43     		muls	r4, r7
  65              	.LVL2:
  66              		.loc 1 42 0
  67 001c 3000     		movs	r0, r6
  68 001e 2100     		movs	r1, r4
  69 0020 FFF7FEFF 		bl	__aeabi_uidiv
  70              	.LVL3:
  71 0024 B842     		cmp	r0, r7
  72 0026 F8D2     		bcs	.L3
  73              		.loc 1 44 0
  74 0028 002C     		cmp	r4, #0
  75 002a 2AD0     		beq	.L17
  76              	.LVL4:
  77              	.L2:
  78              	.LBB13:
  79 002c 0023     		movs	r3, #0
  80 002e 9946     		mov	r9, r3
  81              		.loc 1 49 0
  82 0030 6B42     		rsbs	r3, r5, #0
  83 0032 5D41     		adcs	r5, r5, r3
  84              	.LVL5:
  85 0034 6B42     		rsbs	r3, r5, #0
  86 0036 9A46     		mov	r10, r3
  87 0038 2023     		movs	r3, #32
  88 003a 9B46     		mov	fp, r3
  89              	.LVL6:
  90              	.L5:
  91 003c 2100     		movs	r1, r4
  92 003e 3000     		movs	r0, r6
  93 0040 FFF7FEFF 		bl	__aeabi_uidivmod
  94              	.LVL7:
  95 0044 0500     		movs	r5, r0
  96 0046 0E00     		movs	r6, r1
  97              	.LVL8:
  98              		.loc 1 47 0
  99 0048 2000     		movs	r0, r4
 100              	.LVL9:
 101 004a 3900     		movs	r1, r7
 102              	.LVL10:
 103 004c FFF7FEFF 		bl	__aeabi_uidiv
 104              	.LVL11:
 105              		.loc 1 48 0
 106 0050 4B46     		mov	r3, r9
 107              		.loc 1 47 0
 108 0052 0400     		movs	r4, r0
 109              		.loc 1 48 0
 110 0054 002B     		cmp	r3, #0
 111 0056 01D1     		bne	.L6
 112              	.LVL12:
 113              		.loc 1 48 0 is_stmt 0 discriminator 1
 114 0058 002D     		cmp	r5, #0
ARM GAS  /var/folders/t8/16hdwfmd2fg_d3q6dgx6bpmw0000gn/T//cchN4XO4.s 			page 3


 115 005a 1BDD     		ble	.L18
 116              	.LVL13:
 117              	.L6:
 118              		.loc 1 49 0 is_stmt 1
 119 005c 3023     		movs	r3, #48
 120 005e 092D     		cmp	r5, #9
 121 0060 03DD     		ble	.L9
 122              		.loc 1 49 0 is_stmt 0 discriminator 1
 123 0062 5B46     		mov	r3, fp
 124 0064 5246     		mov	r2, r10
 125 0066 1340     		ands	r3, r2
 126 0068 3733     		adds	r3, r3, #55
 127              	.L9:
 128              		.loc 1 49 0 discriminator 8
 129 006a 5D19     		adds	r5, r3, r5
 130              	.LVL14:
 131 006c 4346     		mov	r3, r8
 132 006e 1D70     		strb	r5, [r3]
 133              		.loc 1 50 0 is_stmt 1 discriminator 8
 134 0070 0123     		movs	r3, #1
 135              		.loc 1 49 0 discriminator 8
 136 0072 4246     		mov	r2, r8
 137              		.loc 1 50 0 discriminator 8
 138 0074 9C46     		mov	ip, r3
 139              		.loc 1 49 0 discriminator 8
 140 0076 0132     		adds	r2, r2, #1
 141              	.LVL15:
 142              		.loc 1 50 0 discriminator 8
 143 0078 E144     		add	r9, r9, ip
 144              	.LVL16:
 145              	.LBE13:
 146              		.loc 1 44 0 discriminator 8
 147 007a 002C     		cmp	r4, #0
 148 007c 02D0     		beq	.L4
 149              	.LBB14:
 150 007e 9046     		mov	r8, r2
 151 0080 DCE7     		b	.L5
 152              	.LVL17:
 153              	.L17:
 154              	.LBE14:
 155              		.loc 1 44 0 is_stmt 0
 156 0082 4246     		mov	r2, r8
 157              	.LVL18:
 158              	.L4:
 159              		.loc 1 53 0 is_stmt 1
 160 0084 0023     		movs	r3, #0
 161              		.loc 1 54 0
 162              		@ sp needed
 163              		.loc 1 53 0
 164 0086 1370     		strb	r3, [r2]
 165              	.LVL19:
 166              		.loc 1 54 0
 167 0088 3CBC     		pop	{r2, r3, r4, r5}
 168 008a 9046     		mov	r8, r2
 169 008c 9946     		mov	r9, r3
 170 008e A246     		mov	r10, r4
 171 0090 AB46     		mov	fp, r5
ARM GAS  /var/folders/t8/16hdwfmd2fg_d3q6dgx6bpmw0000gn/T//cchN4XO4.s 			page 4


 172 0092 F8BD     		pop	{r3, r4, r5, r6, r7, pc}
 173              	.LVL20:
 174              	.L18:
 175              	.LBB15:
 176              		.loc 1 48 0 discriminator 2
 177 0094 0028     		cmp	r0, #0
 178 0096 02D0     		beq	.L7
 179 0098 4246     		mov	r2, r8
 180 009a 9046     		mov	r8, r2
 181              	.LVL21:
 182 009c CEE7     		b	.L5
 183              	.LVL22:
 184              	.L7:
 185              		.loc 1 49 0
 186 009e 4346     		mov	r3, r8
 187 00a0 3035     		adds	r5, r5, #48
 188              	.LVL23:
 189 00a2 5A1C     		adds	r2, r3, #1
 190              	.LVL24:
 191 00a4 1D70     		strb	r5, [r3]
 192              	.LVL25:
 193 00a6 EDE7     		b	.L4
 194              	.LBE15:
 195              		.cfi_endproc
 196              	.LFE0:
 197              		.size	uli2a, .-uli2a
 198              		.section	.text.ui2a,"ax",%progbits
 199              		.align	1
 200              		.p2align 4,,15
 201              		.syntax unified
 202              		.code	16
 203              		.thumb_func
 204              		.fpu softvfp
 205              		.type	ui2a, %function
 206              	ui2a:
 207              	.LFB2:
 208              		.loc 1 68 0
 209              		.cfi_startproc
 210              		@ args = 0, pretend = 0, frame = 0
 211              		@ frame_needed = 0, uses_anonymous_args = 0
 212              	.LVL26:
 213 0000 F8B5     		push	{r3, r4, r5, r6, r7, lr}
 214              		.cfi_def_cfa_offset 24
 215              		.cfi_offset 3, -24
 216              		.cfi_offset 4, -20
 217              		.cfi_offset 5, -16
 218              		.cfi_offset 6, -12
 219              		.cfi_offset 7, -8
 220              		.cfi_offset 14, -4
 221 0002 4546     		mov	r5, r8
 222 0004 5746     		mov	r7, r10
 223 0006 4E46     		mov	r6, r9
 224 0008 DE46     		mov	lr, fp
 225 000a 9846     		mov	r8, r3
 226 000c E0B5     		push	{r5, r6, r7, lr}
 227              		.cfi_def_cfa_offset 40
 228              		.cfi_offset 8, -40
ARM GAS  /var/folders/t8/16hdwfmd2fg_d3q6dgx6bpmw0000gn/T//cchN4XO4.s 			page 5


 229              		.cfi_offset 9, -36
 230              		.cfi_offset 10, -32
 231              		.cfi_offset 11, -28
 232              		.loc 1 70 0
 233 000e 0124     		movs	r4, #1
 234              		.loc 1 68 0
 235 0010 0600     		movs	r6, r0
 236 0012 0F00     		movs	r7, r1
 237 0014 1500     		movs	r5, r2
 238              		.loc 1 71 0
 239 0016 8842     		cmp	r0, r1
 240 0018 08D3     		bcc	.L20
 241              	.LVL27:
 242              	.L21:
 243              		.loc 1 72 0
 244 001a 7C43     		muls	r4, r7
 245              	.LVL28:
 246              		.loc 1 71 0
 247 001c 3000     		movs	r0, r6
 248 001e 2100     		movs	r1, r4
 249 0020 FFF7FEFF 		bl	__aeabi_uidiv
 250              	.LVL29:
 251 0024 B842     		cmp	r0, r7
 252 0026 F8D2     		bcs	.L21
 253              		.loc 1 73 0
 254 0028 002C     		cmp	r4, #0
 255 002a 2AD0     		beq	.L34
 256              	.LVL30:
 257              	.L20:
 258              	.LBB16:
 259 002c 0023     		movs	r3, #0
 260 002e 9946     		mov	r9, r3
 261              		.loc 1 78 0
 262 0030 6B42     		rsbs	r3, r5, #0
 263 0032 5D41     		adcs	r5, r5, r3
 264              	.LVL31:
 265 0034 6B42     		rsbs	r3, r5, #0
 266 0036 9A46     		mov	r10, r3
 267 0038 2023     		movs	r3, #32
 268 003a 9B46     		mov	fp, r3
 269              	.LVL32:
 270              	.L23:
 271 003c 2100     		movs	r1, r4
 272 003e 3000     		movs	r0, r6
 273 0040 FFF7FEFF 		bl	__aeabi_uidivmod
 274              	.LVL33:
 275 0044 0500     		movs	r5, r0
 276 0046 0E00     		movs	r6, r1
 277              	.LVL34:
 278              		.loc 1 76 0
 279 0048 2000     		movs	r0, r4
 280              	.LVL35:
 281 004a 3900     		movs	r1, r7
 282              	.LVL36:
 283 004c FFF7FEFF 		bl	__aeabi_uidiv
 284              	.LVL37:
 285              		.loc 1 77 0
ARM GAS  /var/folders/t8/16hdwfmd2fg_d3q6dgx6bpmw0000gn/T//cchN4XO4.s 			page 6


 286 0050 4B46     		mov	r3, r9
 287              		.loc 1 76 0
 288 0052 0400     		movs	r4, r0
 289              		.loc 1 77 0
 290 0054 002B     		cmp	r3, #0
 291 0056 01D1     		bne	.L24
 292              	.LVL38:
 293              		.loc 1 77 0 is_stmt 0 discriminator 1
 294 0058 002D     		cmp	r5, #0
 295 005a 1BDD     		ble	.L35
 296              	.LVL39:
 297              	.L24:
 298              		.loc 1 78 0 is_stmt 1
 299 005c 3023     		movs	r3, #48
 300 005e 092D     		cmp	r5, #9
 301 0060 03DD     		ble	.L27
 302              		.loc 1 78 0 is_stmt 0 discriminator 1
 303 0062 5B46     		mov	r3, fp
 304 0064 5246     		mov	r2, r10
 305 0066 1340     		ands	r3, r2
 306 0068 3733     		adds	r3, r3, #55
 307              	.L27:
 308              		.loc 1 78 0 discriminator 8
 309 006a 5D19     		adds	r5, r3, r5
 310              	.LVL40:
 311 006c 4346     		mov	r3, r8
 312 006e 1D70     		strb	r5, [r3]
 313              		.loc 1 79 0 is_stmt 1 discriminator 8
 314 0070 0123     		movs	r3, #1
 315              		.loc 1 78 0 discriminator 8
 316 0072 4246     		mov	r2, r8
 317              		.loc 1 79 0 discriminator 8
 318 0074 9C46     		mov	ip, r3
 319              		.loc 1 78 0 discriminator 8
 320 0076 0132     		adds	r2, r2, #1
 321              	.LVL41:
 322              		.loc 1 79 0 discriminator 8
 323 0078 E144     		add	r9, r9, ip
 324              	.LVL42:
 325              	.LBE16:
 326              		.loc 1 73 0 discriminator 8
 327 007a 002C     		cmp	r4, #0
 328 007c 02D0     		beq	.L22
 329              	.LBB17:
 330 007e 9046     		mov	r8, r2
 331 0080 DCE7     		b	.L23
 332              	.LVL43:
 333              	.L34:
 334              	.LBE17:
 335              		.loc 1 73 0 is_stmt 0
 336 0082 4246     		mov	r2, r8
 337              	.LVL44:
 338              	.L22:
 339              		.loc 1 82 0 is_stmt 1
 340 0084 0023     		movs	r3, #0
 341              		.loc 1 83 0
 342              		@ sp needed
ARM GAS  /var/folders/t8/16hdwfmd2fg_d3q6dgx6bpmw0000gn/T//cchN4XO4.s 			page 7


 343              		.loc 1 82 0
 344 0086 1370     		strb	r3, [r2]
 345              	.LVL45:
 346              		.loc 1 83 0
 347 0088 3CBC     		pop	{r2, r3, r4, r5}
 348 008a 9046     		mov	r8, r2
 349 008c 9946     		mov	r9, r3
 350 008e A246     		mov	r10, r4
 351 0090 AB46     		mov	fp, r5
 352 0092 F8BD     		pop	{r3, r4, r5, r6, r7, pc}
 353              	.LVL46:
 354              	.L35:
 355              	.LBB18:
 356              		.loc 1 77 0 discriminator 2
 357 0094 0028     		cmp	r0, #0
 358 0096 02D0     		beq	.L25
 359 0098 4246     		mov	r2, r8
 360 009a 9046     		mov	r8, r2
 361              	.LVL47:
 362 009c CEE7     		b	.L23
 363              	.LVL48:
 364              	.L25:
 365              		.loc 1 78 0
 366 009e 4346     		mov	r3, r8
 367 00a0 3035     		adds	r5, r5, #48
 368              	.LVL49:
 369 00a2 5A1C     		adds	r2, r3, #1
 370              	.LVL50:
 371 00a4 1D70     		strb	r5, [r3]
 372              	.LVL51:
 373 00a6 EDE7     		b	.L22
 374              	.LBE18:
 375              		.cfi_endproc
 376              	.LFE2:
 377              		.size	ui2a, .-ui2a
 378              		.section	.text.putchw,"ax",%progbits
 379              		.align	1
 380              		.p2align 4,,15
 381              		.syntax unified
 382              		.code	16
 383              		.thumb_func
 384              		.fpu softvfp
 385              		.type	putchw, %function
 386              	putchw:
 387              	.LFB6:
 388              		.loc 1 121 0
 389              		.cfi_startproc
 390              		@ args = 4, pretend = 0, frame = 0
 391              		@ frame_needed = 0, uses_anonymous_args = 0
 392              	.LVL52:
 393 0000 F0B5     		push	{r4, r5, r6, r7, lr}
 394              		.cfi_def_cfa_offset 20
 395              		.cfi_offset 4, -20
 396              		.cfi_offset 5, -16
 397              		.cfi_offset 6, -12
 398              		.cfi_offset 7, -8
 399              		.cfi_offset 14, -4
ARM GAS  /var/folders/t8/16hdwfmd2fg_d3q6dgx6bpmw0000gn/T//cchN4XO4.s 			page 8


 400 0002 C646     		mov	lr, r8
 401 0004 0E00     		movs	r6, r1
 402              		.loc 1 122 0
 403 0006 5942     		rsbs	r1, r3, #0
 404 0008 4B41     		adcs	r3, r3, r1
 405              	.LVL53:
 406 000a 0F21     		movs	r1, #15
 407              		.loc 1 121 0
 408 000c 00B5     		push	{lr}
 409              		.cfi_def_cfa_offset 24
 410              		.cfi_offset 8, -24
 411              		.loc 1 122 0
 412 000e 5D42     		rsbs	r5, r3, #0
 413              		.loc 1 125 0
 414 0010 069B     		ldr	r3, [sp, #24]
 415              		.loc 1 122 0
 416 0012 8D43     		bics	r5, r1
 417              		.loc 1 125 0
 418 0014 0133     		adds	r3, r3, #1
 419 0016 9846     		mov	r8, r3
 420 0018 069B     		ldr	r3, [sp, #24]
 421              		.loc 1 121 0
 422 001a 0700     		movs	r7, r0
 423              		.loc 1 125 0
 424 001c 1978     		ldrb	r1, [r3]
 425              		.loc 1 122 0
 426 001e 3035     		adds	r5, r5, #48
 427              	.LVL54:
 428              		.loc 1 125 0
 429 0020 0029     		cmp	r1, #0
 430 0022 26D0     		beq	.L38
 431 0024 002A     		cmp	r2, #0
 432 0026 19DD     		ble	.L39
 433 0028 4346     		mov	r3, r8
 434 002a 03E0     		b	.L41
 435              	.LVL55:
 436              	.L52:
 437 002c 6246     		mov	r2, ip
 438 002e 0133     		adds	r3, r3, #1
 439              	.LVL56:
 440              		.loc 1 125 0 is_stmt 0 discriminator 1
 441 0030 002A     		cmp	r2, #0
 442 0032 13D0     		beq	.L39
 443              	.LVL57:
 444              	.L41:
 445              		.loc 1 126 0 is_stmt 1
 446 0034 501E     		subs	r0, r2, #1
 447 0036 8446     		mov	ip, r0
 448              	.LVL58:
 449              		.loc 1 125 0
 450 0038 1878     		ldrb	r0, [r3]
 451              	.LVL59:
 452 003a 0028     		cmp	r0, #0
 453 003c F6D1     		bne	.L52
 454              		.loc 1 127 0
 455 003e 6346     		mov	r3, ip
 456              	.LVL60:
ARM GAS  /var/folders/t8/16hdwfmd2fg_d3q6dgx6bpmw0000gn/T//cchN4XO4.s 			page 9


 457 0040 941E     		subs	r4, r2, #2
 458              	.LVL61:
 459 0042 002B     		cmp	r3, #0
 460 0044 0AD0     		beq	.L39
 461              	.L43:
 462              		.loc 1 128 0
 463 0046 2900     		movs	r1, r5
 464 0048 3800     		movs	r0, r7
 465              		.loc 1 127 0
 466 004a 013C     		subs	r4, r4, #1
 467              	.LVL62:
 468              		.loc 1 128 0
 469 004c B047     		blx	r6
 470              	.LVL63:
 471 004e 631C     		adds	r3, r4, #1
 472              		.loc 1 127 0
 473 0050 002B     		cmp	r3, #0
 474 0052 F8DC     		bgt	.L43
 475              	.LVL64:
 476              		.loc 1 129 0
 477 0054 069B     		ldr	r3, [sp, #24]
 478 0056 1978     		ldrb	r1, [r3]
 479              	.LVL65:
 480 0058 0029     		cmp	r1, #0
 481 005a 07D0     		beq	.L36
 482              	.LVL66:
 483              	.L39:
 484 005c 4446     		mov	r4, r8
 485              	.L45:
 486              	.LVL67:
 487              		.loc 1 130 0
 488 005e 3800     		movs	r0, r7
 489 0060 0134     		adds	r4, r4, #1
 490              	.LVL68:
 491 0062 B047     		blx	r6
 492              	.LVL69:
 493              		.loc 1 129 0
 494 0064 631E     		subs	r3, r4, #1
 495 0066 1978     		ldrb	r1, [r3]
 496              	.LVL70:
 497 0068 0029     		cmp	r1, #0
 498 006a F8D1     		bne	.L45
 499              	.LVL71:
 500              	.L36:
 501              		.loc 1 131 0
 502              		@ sp needed
 503              	.LVL72:
 504              	.LVL73:
 505              	.LVL74:
 506 006c 04BC     		pop	{r2}
 507 006e 9046     		mov	r8, r2
 508 0070 F0BD     		pop	{r4, r5, r6, r7, pc}
 509              	.LVL75:
 510              	.L38:
 511              		.loc 1 127 0
 512 0072 541E     		subs	r4, r2, #1
 513              	.LVL76:
ARM GAS  /var/folders/t8/16hdwfmd2fg_d3q6dgx6bpmw0000gn/T//cchN4XO4.s 			page 10


 514 0074 002A     		cmp	r2, #0
 515 0076 F9DD     		ble	.L36
 516 0078 E5E7     		b	.L43
 517              		.cfi_endproc
 518              	.LFE6:
 519              		.size	putchw, .-putchw
 520 007a C046     		.section	.text.putcp,"ax",%progbits
 521              		.align	1
 522              		.p2align 4,,15
 523              		.syntax unified
 524              		.code	16
 525              		.thumb_func
 526              		.fpu softvfp
 527              		.type	putcp, %function
 528              	putcp:
 529              	.LFB10:
 530              		.loc 1 227 0
 531              		.cfi_startproc
 532              		@ args = 0, pretend = 0, frame = 0
 533              		@ frame_needed = 0, uses_anonymous_args = 0
 534              		@ link register save eliminated.
 535              	.LVL77:
 536              		.loc 1 228 0
 537 0000 0368     		ldr	r3, [r0]
 538              		.loc 1 229 0
 539              		@ sp needed
 540              		.loc 1 228 0
 541 0002 5A1C     		adds	r2, r3, #1
 542 0004 0260     		str	r2, [r0]
 543 0006 1970     		strb	r1, [r3]
 544              		.loc 1 229 0
 545 0008 7047     		bx	lr
 546              		.cfi_endproc
 547              	.LFE10:
 548              		.size	putcp, .-putcp
 549 000a C046     		.section	.text.tfp_format,"ax",%progbits
 550              		.align	1
 551              		.p2align 4,,15
 552              		.global	tfp_format
 553              		.syntax unified
 554              		.code	16
 555              		.thumb_func
 556              		.fpu softvfp
 557              		.type	tfp_format, %function
 558              	tfp_format:
 559              	.LFB7:
 560              		.loc 1 134 0
 561              		.cfi_startproc
 562              		@ args = 0, pretend = 0, frame = 24
 563              		@ frame_needed = 0, uses_anonymous_args = 0
 564              	.LVL78:
 565 0000 F0B5     		push	{r4, r5, r6, r7, lr}
 566              		.cfi_def_cfa_offset 20
 567              		.cfi_offset 4, -20
 568              		.cfi_offset 5, -16
 569              		.cfi_offset 6, -12
 570              		.cfi_offset 7, -8
ARM GAS  /var/folders/t8/16hdwfmd2fg_d3q6dgx6bpmw0000gn/T//cchN4XO4.s 			page 11


 571              		.cfi_offset 14, -4
 572 0002 4E46     		mov	r6, r9
 573 0004 DE46     		mov	lr, fp
 574 0006 4546     		mov	r5, r8
 575 0008 5746     		mov	r7, r10
 576 000a 9946     		mov	r9, r3
 577              	.LVL79:
 578              	.LBB28:
 579              	.LBB29:
 580              	.LBB30:
 581              		.loc 1 89 0
 582 000c 2D23     		movs	r3, #45
 583              	.LVL80:
 584              	.LBE30:
 585              	.LBE29:
 586              	.LBE28:
 587              		.loc 1 134 0
 588 000e E0B5     		push	{r5, r6, r7, lr}
 589              		.cfi_def_cfa_offset 36
 590              		.cfi_offset 8, -36
 591              		.cfi_offset 9, -32
 592              		.cfi_offset 10, -28
 593              		.cfi_offset 11, -24
 594 0010 1400     		movs	r4, r2
 595 0012 89B0     		sub	sp, sp, #36
 596              		.cfi_def_cfa_offset 72
 597              		.loc 1 134 0
 598 0014 0600     		movs	r6, r0
 599 0016 0D00     		movs	r5, r1
 600              	.LBB49:
 601              	.LBB36:
 602              	.LBB31:
 603              		.loc 1 89 0
 604 0018 9B46     		mov	fp, r3
 605              	.LBE31:
 606              	.LBE36:
 607              	.LBE49:
 608              		.loc 1 140 0
 609 001a 04E0     		b	.L55
 610              	.LVL81:
 611              	.L84:
 612              		.loc 1 141 0
 613 001c 2529     		cmp	r1, #37
 614 001e 0DD0     		beq	.L56
 615              		.loc 1 142 0
 616 0020 3000     		movs	r0, r6
 617 0022 A847     		blx	r5
 618              	.LVL82:
 619              		.loc 1 140 0
 620 0024 3C00     		movs	r4, r7
 621              	.LVL83:
 622              	.L55:
 623 0026 2178     		ldrb	r1, [r4]
 624 0028 671C     		adds	r7, r4, #1
 625              	.LVL84:
 626 002a 0029     		cmp	r1, #0
 627 002c F6D1     		bne	.L84
ARM GAS  /var/folders/t8/16hdwfmd2fg_d3q6dgx6bpmw0000gn/T//cchN4XO4.s 			page 12


 628              	.LVL85:
 629              	.L54:
 630              		.loc 1 209 0
 631 002e 09B0     		add	sp, sp, #36
 632              		@ sp needed
 633              	.LVL86:
 634              	.LVL87:
 635              	.LVL88:
 636 0030 3CBC     		pop	{r2, r3, r4, r5}
 637 0032 9046     		mov	r8, r2
 638 0034 9946     		mov	r9, r3
 639 0036 A246     		mov	r10, r4
 640 0038 AB46     		mov	fp, r5
 641 003a F0BD     		pop	{r4, r5, r6, r7, pc}
 642              	.LVL89:
 643              	.L56:
 644              	.LBB50:
 645              		.loc 1 149 0
 646 003c 6278     		ldrb	r2, [r4, #1]
 647              	.LVL90:
 648              		.loc 1 150 0
 649 003e 302A     		cmp	r2, #48
 650 0040 2DD0     		beq	.L58
 651              		.loc 1 149 0
 652 0042 A31C     		adds	r3, r4, #2
 653              	.LVL91:
 654 0044 9846     		mov	r8, r3
 655              		.loc 1 144 0
 656 0046 0023     		movs	r3, #0
 657              	.LVL92:
 658 0048 9A46     		mov	r10, r3
 659              	.LVL93:
 660              		.loc 1 154 0
 661 004a 1300     		movs	r3, r2
 662 004c 303B     		subs	r3, r3, #48
 663 004e D9B2     		uxtb	r1, r3
 664              		.loc 1 148 0
 665 0050 0027     		movs	r7, #0
 666              		.loc 1 154 0
 667 0052 0929     		cmp	r1, #9
 668 0054 2ED9     		bls	.L122
 669              	.LVL94:
 670              	.L60:
 671              		.loc 1 158 0
 672 0056 6C2A     		cmp	r2, #108
 673 0058 47D0     		beq	.L123
 674              	.L66:
 675              		.loc 1 163 0
 676 005a 632A     		cmp	r2, #99
 677 005c 00D1     		bne	.LCB733
 678 005e 82E0     		b	.L67	@long jump
 679              	.LCB733:
 680 0060 5FD9     		bls	.L124
 681 0062 732A     		cmp	r2, #115
 682 0064 00D1     		bne	.LCB739
 683 0066 99E0     		b	.L72	@long jump
 684              	.LCB739:
ARM GAS  /var/folders/t8/16hdwfmd2fg_d3q6dgx6bpmw0000gn/T//cchN4XO4.s 			page 13


 685 0068 6CD9     		bls	.L125
 686 006a 752A     		cmp	r2, #117
 687 006c 00D0     		beq	.LCB743
 688 006e A2E0     		b	.L126	@long jump
 689              	.LCB743:
 690              	.LVL95:
 691              		.loc 1 172 0
 692 0070 4A46     		mov	r2, r9
 693              	.LVL96:
 694 0072 4B46     		mov	r3, r9
 695 0074 1068     		ldr	r0, [r2]
 696 0076 0433     		adds	r3, r3, #4
 697 0078 05AA     		add	r2, sp, #20
 698 007a 0393     		str	r3, [sp, #12]
 699              	.LVL97:
 700 007c 0A21     		movs	r1, #10
 701 007e 1300     		movs	r3, r2
 702 0080 0022     		movs	r2, #0
 703 0082 FFF7FEFF 		bl	ui2a
 704              	.LVL98:
 705 0086 039B     		ldr	r3, [sp, #12]
 706 0088 4446     		mov	r4, r8
 707 008a 9946     		mov	r9, r3
 708              	.LVL99:
 709              	.L82:
 710              		.loc 1 193 0
 711 008c 05AB     		add	r3, sp, #20
 712 008e 0093     		str	r3, [sp]
 713 0090 3A00     		movs	r2, r7
 714 0092 5346     		mov	r3, r10
 715 0094 2900     		movs	r1, r5
 716 0096 3000     		movs	r0, r6
 717 0098 FFF7FEFF 		bl	putchw
 718              	.LVL100:
 719              		.loc 1 194 0
 720 009c C3E7     		b	.L55
 721              	.LVL101:
 722              	.L58:
 723              		.loc 1 151 0
 724 009e E31C     		adds	r3, r4, #3
 725 00a0 9846     		mov	r8, r3
 726              	.LVL102:
 727              		.loc 1 152 0
 728 00a2 0123     		movs	r3, #1
 729              	.LVL103:
 730              		.loc 1 151 0
 731 00a4 A278     		ldrb	r2, [r4, #2]
 732              	.LVL104:
 733              		.loc 1 152 0
 734 00a6 9A46     		mov	r10, r3
 735              	.LVL105:
 736              		.loc 1 154 0
 737 00a8 1300     		movs	r3, r2
 738 00aa 303B     		subs	r3, r3, #48
 739 00ac D9B2     		uxtb	r1, r3
 740              		.loc 1 148 0
 741 00ae 0027     		movs	r7, #0
ARM GAS  /var/folders/t8/16hdwfmd2fg_d3q6dgx6bpmw0000gn/T//cchN4XO4.s 			page 14


 742              		.loc 1 154 0
 743 00b0 0929     		cmp	r1, #9
 744 00b2 D0D8     		bhi	.L60
 745              	.L122:
 746 00b4 4146     		mov	r1, r8
 747 00b6 07E0     		b	.L61
 748              	.LVL106:
 749              	.L63:
 750              	.LBB37:
 751              	.LBB38:
 752              		.loc 1 112 0
 753 00b8 BA00     		lsls	r2, r7, #2
 754              	.LVL107:
 755 00ba D719     		adds	r7, r2, r7
 756              	.LVL108:
 757              		.loc 1 113 0
 758 00bc 0A78     		ldrb	r2, [r1]
 759              		.loc 1 112 0
 760 00be 7F00     		lsls	r7, r7, #1
 761 00c0 FF18     		adds	r7, r7, r3
 762              	.LVL109:
 763 00c2 1300     		movs	r3, r2
 764 00c4 0131     		adds	r1, r1, #1
 765              	.LVL110:
 766 00c6 303B     		subs	r3, r3, #48
 767              	.LVL111:
 768              	.L61:
 769              	.LBB39:
 770              	.LBB40:
 771              		.loc 1 96 0
 772 00c8 D8B2     		uxtb	r0, r3
 773 00ca 8846     		mov	r8, r1
 774              	.LVL112:
 775 00cc 0928     		cmp	r0, #9
 776 00ce F3D9     		bls	.L63
 777              		.loc 1 98 0
 778 00d0 1300     		movs	r3, r2
 779 00d2 613B     		subs	r3, r3, #97
 780 00d4 052B     		cmp	r3, #5
 781 00d6 03D9     		bls	.L121
 782              		.loc 1 100 0
 783 00d8 1300     		movs	r3, r2
 784 00da 413B     		subs	r3, r3, #65
 785 00dc 052B     		cmp	r3, #5
 786 00de BAD8     		bhi	.L60
 787              	.L121:
 788              		.loc 1 101 0
 789 00e0 0A33     		adds	r3, r3, #10
 790              	.LVL113:
 791              	.LBE40:
 792              	.LBE39:
 793              		.loc 1 111 0
 794 00e2 0A2B     		cmp	r3, #10
 795 00e4 E8DD     		ble	.L63
 796              	.L71:
 797              	.LVL114:
 798              	.LBE38:
ARM GAS  /var/folders/t8/16hdwfmd2fg_d3q6dgx6bpmw0000gn/T//cchN4XO4.s 			page 15


 799              	.LBE37:
 800              		.loc 1 158 0
 801 00e6 6C2A     		cmp	r2, #108
 802 00e8 B7D1     		bne	.L66
 803              	.LVL115:
 804              	.L123:
 805              		.loc 1 159 0
 806 00ea 4346     		mov	r3, r8
 807 00ec 5C1C     		adds	r4, r3, #1
 808              	.LVL116:
 809 00ee 1B78     		ldrb	r3, [r3]
 810              	.LVL117:
 811              		.loc 1 163 0
 812 00f0 632B     		cmp	r3, #99
 813 00f2 37D0     		beq	.L91
 814 00f4 1ED9     		bls	.L127
 815 00f6 732B     		cmp	r3, #115
 816 00f8 4FD0     		beq	.L92
 817 00fa 75D9     		bls	.L128
 818 00fc 752B     		cmp	r3, #117
 819 00fe 40D0     		beq	.L75
 820 0100 782B     		cmp	r3, #120
 821 0102 00D0     		beq	.LCB907
 822 0104 8FE7     		b	.L55	@long jump
 823              	.LCB907:
 824              	.L70:
 825              		.loc 1 189 0
 826 0106 0422     		movs	r2, #4
 827 0108 583B     		subs	r3, r3, #88
 828              	.LVL118:
 829 010a 4A44     		add	r2, r2, r9
 830 010c 9046     		mov	r8, r2
 831              	.LVL119:
 832 010e 5A42     		rsbs	r2, r3, #0
 833 0110 5A41     		adcs	r2, r2, r3
 834              	.LVL120:
 835 0112 4B46     		mov	r3, r9
 836 0114 1021     		movs	r1, #16
 837 0116 1868     		ldr	r0, [r3]
 838 0118 05AB     		add	r3, sp, #20
 839 011a FFF7FEFF 		bl	uli2a
 840              	.LVL121:
 841 011e C146     		mov	r9, r8
 842 0120 B4E7     		b	.L82
 843              	.LVL122:
 844              	.L124:
 845              		.loc 1 163 0
 846 0122 252A     		cmp	r2, #37
 847 0124 28D0     		beq	.L69
 848 0126 582A     		cmp	r2, #88
 849 0128 47D0     		beq	.L83
 850 012a 002A     		cmp	r2, #0
 851 012c 00D1     		bne	.LCB941
 852 012e 7EE7     		b	.L54	@long jump
 853              	.LCB941:
 854              	.L93:
 855 0130 4446     		mov	r4, r8
ARM GAS  /var/folders/t8/16hdwfmd2fg_d3q6dgx6bpmw0000gn/T//cchN4XO4.s 			page 16


 856 0132 78E7     		b	.L55
 857              	.LVL123:
 858              	.L127:
 859 0134 252B     		cmp	r3, #37
 860 0136 1ED0     		beq	.L90
 861 0138 582B     		cmp	r3, #88
 862 013a E4D0     		beq	.L70
 863 013c 002B     		cmp	r3, #0
 864 013e 00D0     		beq	.LCB960
 865 0140 71E7     		b	.L55	@long jump
 866              	.LCB960:
 867 0142 74E7     		b	.L54
 868              	.LVL124:
 869              	.L125:
 870 0144 642A     		cmp	r2, #100
 871 0146 F3D1     		bne	.L93
 872              	.LVL125:
 873              		.loc 1 182 0
 874 0148 4B46     		mov	r3, r9
 875 014a 1868     		ldr	r0, [r3]
 876              	.LVL126:
 877              	.LBB41:
 878              	.LBB32:
 879              		.loc 1 87 0
 880 014c 0028     		cmp	r0, #0
 881 014e 42DB     		blt	.L79
 882              	.LVL127:
 883 0150 05AB     		add	r3, sp, #20
 884              	.LVL128:
 885              	.L80:
 886              	.LBE32:
 887              	.LBE41:
 888              		.loc 1 182 0
 889 0152 0422     		movs	r2, #4
 890 0154 9446     		mov	ip, r2
 891              	.LBB42:
 892              	.LBB33:
 893              		.loc 1 91 0
 894 0156 0A21     		movs	r1, #10
 895 0158 0022     		movs	r2, #0
 896              	.LBE33:
 897              	.LBE42:
 898              		.loc 1 182 0
 899 015a E144     		add	r9, r9, ip
 900              	.LVL129:
 901              	.LBB43:
 902              	.LBB34:
 903              		.loc 1 91 0
 904 015c 4446     		mov	r4, r8
 905 015e FFF7FEFF 		bl	ui2a
 906              	.LVL130:
 907 0162 93E7     		b	.L82
 908              	.LVL131:
 909              	.L91:
 910              	.LBE34:
 911              	.LBE43:
 912              		.loc 1 159 0
ARM GAS  /var/folders/t8/16hdwfmd2fg_d3q6dgx6bpmw0000gn/T//cchN4XO4.s 			page 17


 913 0164 A046     		mov	r8, r4
 914              	.LVL132:
 915              	.L67:
 916              		.loc 1 196 0
 917 0166 4B46     		mov	r3, r9
 918 0168 3000     		movs	r0, r6
 919 016a 1C1D     		adds	r4, r3, #4
 920              	.LVL133:
 921 016c 1978     		ldrb	r1, [r3]
 922 016e A146     		mov	r9, r4
 923 0170 A847     		blx	r5
 924              	.LVL134:
 925              		.loc 1 197 0
 926 0172 4446     		mov	r4, r8
 927              	.LVL135:
 928 0174 57E7     		b	.L55
 929              	.LVL136:
 930              	.L90:
 931              		.loc 1 159 0
 932 0176 A046     		mov	r8, r4
 933              	.LVL137:
 934              	.L69:
 935              		.loc 1 202 0
 936 0178 2521     		movs	r1, #37
 937 017a 3000     		movs	r0, r6
 938 017c A847     		blx	r5
 939              	.LVL138:
 940 017e 4446     		mov	r4, r8
 941 0180 51E7     		b	.L55
 942              	.LVL139:
 943              	.L75:
 944              		.loc 1 169 0
 945 0182 0423     		movs	r3, #4
 946              	.LVL140:
 947 0184 4B44     		add	r3, r3, r9
 948 0186 9846     		mov	r8, r3
 949              	.LVL141:
 950 0188 4B46     		mov	r3, r9
 951              	.LVL142:
 952 018a 0022     		movs	r2, #0
 953 018c 1868     		ldr	r0, [r3]
 954 018e 0A21     		movs	r1, #10
 955 0190 05AB     		add	r3, sp, #20
 956 0192 FFF7FEFF 		bl	uli2a
 957              	.LVL143:
 958 0196 C146     		mov	r9, r8
 959 0198 78E7     		b	.L82
 960              	.LVL144:
 961              	.L92:
 962              		.loc 1 159 0
 963 019a A046     		mov	r8, r4
 964              	.LVL145:
 965              	.L72:
 966              		.loc 1 199 0
 967 019c 4B46     		mov	r3, r9
 968 019e 1C1D     		adds	r4, r3, #4
 969              	.LVL146:
ARM GAS  /var/folders/t8/16hdwfmd2fg_d3q6dgx6bpmw0000gn/T//cchN4XO4.s 			page 18


 970 01a0 1B68     		ldr	r3, [r3]
 971 01a2 3A00     		movs	r2, r7
 972 01a4 0093     		str	r3, [sp]
 973 01a6 2900     		movs	r1, r5
 974 01a8 0023     		movs	r3, #0
 975 01aa 3000     		movs	r0, r6
 976 01ac A146     		mov	r9, r4
 977 01ae FFF7FEFF 		bl	putchw
 978              	.LVL147:
 979              		.loc 1 200 0
 980 01b2 4446     		mov	r4, r8
 981              	.LVL148:
 982 01b4 37E7     		b	.L55
 983              	.LVL149:
 984              	.L126:
 985              		.loc 1 163 0
 986 01b6 782A     		cmp	r2, #120
 987 01b8 BAD1     		bne	.L93
 988              	.L83:
 989              		.loc 1 192 0
 990 01ba 4B46     		mov	r3, r9
 991 01bc 583A     		subs	r2, r2, #88
 992              	.LVL150:
 993 01be 1C1D     		adds	r4, r3, #4
 994              	.LVL151:
 995 01c0 5342     		rsbs	r3, r2, #0
 996 01c2 5A41     		adcs	r2, r2, r3
 997 01c4 4B46     		mov	r3, r9
 998 01c6 1021     		movs	r1, #16
 999 01c8 1868     		ldr	r0, [r3]
 1000 01ca 05AB     		add	r3, sp, #20
 1001 01cc A146     		mov	r9, r4
 1002 01ce FFF7FEFF 		bl	ui2a
 1003              	.LVL152:
 1004 01d2 4446     		mov	r4, r8
 1005              	.LVL153:
 1006 01d4 5AE7     		b	.L82
 1007              	.LVL154:
 1008              	.L79:
 1009              	.LBB44:
 1010              	.LBB35:
 1011              		.loc 1 89 0
 1012 01d6 5A46     		mov	r2, fp
 1013              	.LVL155:
 1014 01d8 02AB     		add	r3, sp, #8
 1015              	.LVL156:
 1016 01da 1A73     		strb	r2, [r3, #12]
 1017 01dc 02AA     		add	r2, sp, #8
 1018 01de 0D23     		movs	r3, #13
 1019 01e0 9446     		mov	ip, r2
 1020              		.loc 1 88 0
 1021 01e2 4042     		rsbs	r0, r0, #0
 1022              	.LVL157:
 1023              		.loc 1 89 0
 1024 01e4 6344     		add	r3, r3, ip
 1025 01e6 B4E7     		b	.L80
 1026              	.LVL158:
ARM GAS  /var/folders/t8/16hdwfmd2fg_d3q6dgx6bpmw0000gn/T//cchN4XO4.s 			page 19


 1027              	.L128:
 1028              	.LBE35:
 1029              	.LBE44:
 1030              		.loc 1 163 0
 1031 01e8 642B     		cmp	r3, #100
 1032 01ea 00D0     		beq	.LCB1190
 1033 01ec 1BE7     		b	.L55	@long jump
 1034              	.LCB1190:
 1035              		.loc 1 179 0
 1036 01ee 0423     		movs	r3, #4
 1037              	.LVL159:
 1038 01f0 4B44     		add	r3, r3, r9
 1039 01f2 9846     		mov	r8, r3
 1040              	.LVL160:
 1041 01f4 4B46     		mov	r3, r9
 1042              	.LVL161:
 1043 01f6 1868     		ldr	r0, [r3]
 1044              	.LVL162:
 1045              	.LBB45:
 1046              	.LBB46:
 1047              		.loc 1 58 0
 1048 01f8 0028     		cmp	r0, #0
 1049 01fa 06DB     		blt	.L76
 1050 01fc 05AB     		add	r3, sp, #20
 1051              	.LVL163:
 1052              	.L77:
 1053              		.loc 1 62 0
 1054 01fe 0022     		movs	r2, #0
 1055 0200 0A21     		movs	r1, #10
 1056 0202 FFF7FEFF 		bl	uli2a
 1057              	.LVL164:
 1058              	.LBE46:
 1059              	.LBE45:
 1060              		.loc 1 179 0
 1061 0206 C146     		mov	r9, r8
 1062 0208 40E7     		b	.L82
 1063              	.LVL165:
 1064              	.L76:
 1065              	.LBB48:
 1066              	.LBB47:
 1067              		.loc 1 60 0
 1068 020a 5A46     		mov	r2, fp
 1069 020c 02AB     		add	r3, sp, #8
 1070 020e 1A73     		strb	r2, [r3, #12]
 1071 0210 02AA     		add	r2, sp, #8
 1072 0212 0D23     		movs	r3, #13
 1073 0214 9446     		mov	ip, r2
 1074              		.loc 1 59 0
 1075 0216 4042     		rsbs	r0, r0, #0
 1076              	.LVL166:
 1077              		.loc 1 60 0
 1078 0218 6344     		add	r3, r3, ip
 1079 021a F0E7     		b	.L77
 1080              	.LBE47:
 1081              	.LBE48:
 1082              	.LBE50:
 1083              		.cfi_endproc
ARM GAS  /var/folders/t8/16hdwfmd2fg_d3q6dgx6bpmw0000gn/T//cchN4XO4.s 			page 20


 1084              	.LFE7:
 1085              		.size	tfp_format, .-tfp_format
 1086              		.section	.text.init_printf,"ax",%progbits
 1087              		.align	1
 1088              		.p2align 4,,15
 1089              		.global	init_printf
 1090              		.syntax unified
 1091              		.code	16
 1092              		.thumb_func
 1093              		.fpu softvfp
 1094              		.type	init_printf, %function
 1095              	init_printf:
 1096              	.LFB8:
 1097              		.loc 1 213 0
 1098              		.cfi_startproc
 1099              		@ args = 0, pretend = 0, frame = 0
 1100              		@ frame_needed = 0, uses_anonymous_args = 0
 1101              		@ link register save eliminated.
 1102              	.LVL167:
 1103              		.loc 1 214 0
 1104 0000 024B     		ldr	r3, .L130
 1105              		.loc 1 216 0
 1106              		@ sp needed
 1107              		.loc 1 214 0
 1108 0002 1960     		str	r1, [r3]
 1109              		.loc 1 215 0
 1110 0004 024B     		ldr	r3, .L130+4
 1111 0006 1860     		str	r0, [r3]
 1112              		.loc 1 216 0
 1113 0008 7047     		bx	lr
 1114              	.L131:
 1115 000a C046     		.align	2
 1116              	.L130:
 1117 000c 00000000 		.word	.LANCHOR0
 1118 0010 00000000 		.word	.LANCHOR1
 1119              		.cfi_endproc
 1120              	.LFE8:
 1121              		.size	init_printf, .-init_printf
 1122              		.section	.text.tfp_printf,"ax",%progbits
 1123              		.align	1
 1124              		.p2align 4,,15
 1125              		.global	tfp_printf
 1126              		.syntax unified
 1127              		.code	16
 1128              		.thumb_func
 1129              		.fpu softvfp
 1130              		.type	tfp_printf, %function
 1131              	tfp_printf:
 1132              	.LFB9:
 1133              		.loc 1 219 0
 1134              		.cfi_startproc
 1135              		@ args = 4, pretend = 16, frame = 8
 1136              		@ frame_needed = 0, uses_anonymous_args = 1
 1137              	.LVL168:
 1138 0000 0FB4     		push	{r0, r1, r2, r3}
 1139              		.cfi_def_cfa_offset 16
 1140 0002 00B5     		push	{lr}
ARM GAS  /var/folders/t8/16hdwfmd2fg_d3q6dgx6bpmw0000gn/T//cchN4XO4.s 			page 21


 1141              		.cfi_def_cfa_offset 20
 1142              		.cfi_offset 14, -20
 1143 0004 83B0     		sub	sp, sp, #12
 1144              		.cfi_def_cfa_offset 32
 1145              		.loc 1 219 0
 1146 0006 04AB     		add	r3, sp, #16
 1147              		.loc 1 222 0
 1148 0008 0549     		ldr	r1, .L133
 1149 000a 0648     		ldr	r0, .L133+4
 1150              		.loc 1 219 0
 1151 000c 04CB     		ldmia	r3!, {r2}
 1152              		.loc 1 222 0
 1153 000e 0968     		ldr	r1, [r1]
 1154 0010 0068     		ldr	r0, [r0]
 1155              		.loc 1 221 0
 1156 0012 0193     		str	r3, [sp, #4]
 1157              		.loc 1 222 0
 1158 0014 FFF7FEFF 		bl	tfp_format
 1159              	.LVL169:
 1160              		.loc 1 224 0
 1161 0018 03B0     		add	sp, sp, #12
 1162              		@ sp needed
 1163 001a 08BC     		pop	{r3}
 1164 001c 04B0     		add	sp, sp, #16
 1165 001e 1847     		bx	r3
 1166              	.L134:
 1167              		.align	2
 1168              	.L133:
 1169 0020 00000000 		.word	.LANCHOR0
 1170 0024 00000000 		.word	.LANCHOR1
 1171              		.cfi_endproc
 1172              	.LFE9:
 1173              		.size	tfp_printf, .-tfp_printf
 1174              		.section	.text.tfp_sprintf,"ax",%progbits
 1175              		.align	1
 1176              		.p2align 4,,15
 1177              		.global	tfp_sprintf
 1178              		.syntax unified
 1179              		.code	16
 1180              		.thumb_func
 1181              		.fpu softvfp
 1182              		.type	tfp_sprintf, %function
 1183              	tfp_sprintf:
 1184              	.LFB11:
 1185              		.loc 1 234 0
 1186              		.cfi_startproc
 1187              		@ args = 4, pretend = 12, frame = 16
 1188              		@ frame_needed = 0, uses_anonymous_args = 1
 1189              	.LVL170:
 1190 0000 0EB4     		push	{r1, r2, r3}
 1191              		.cfi_def_cfa_offset 12
 1192 0002 00B5     		push	{lr}
 1193              		.cfi_def_cfa_offset 16
 1194              		.cfi_offset 14, -16
 1195 0004 84B0     		sub	sp, sp, #16
 1196              		.cfi_def_cfa_offset 32
 1197              		.loc 1 234 0
ARM GAS  /var/folders/t8/16hdwfmd2fg_d3q6dgx6bpmw0000gn/T//cchN4XO4.s 			page 22


 1198 0006 05AB     		add	r3, sp, #20
 1199 0008 04CB     		ldmia	r3!, {r2}
 1200 000a 0190     		str	r0, [sp, #4]
 1201              		.loc 1 237 0
 1202 000c 0549     		ldr	r1, .L136
 1203 000e 01A8     		add	r0, sp, #4
 1204              	.LVL171:
 1205              		.loc 1 236 0
 1206 0010 0393     		str	r3, [sp, #12]
 1207              		.loc 1 237 0
 1208 0012 FFF7FEFF 		bl	tfp_format
 1209              	.LVL172:
 1210              	.LBB51:
 1211              	.LBB52:
 1212              		.loc 1 228 0
 1213 0016 0023     		movs	r3, #0
 1214 0018 019A     		ldr	r2, [sp, #4]
 1215 001a 1370     		strb	r3, [r2]
 1216              	.LVL173:
 1217              	.LBE52:
 1218              	.LBE51:
 1219              		.loc 1 240 0
 1220 001c 04B0     		add	sp, sp, #16
 1221              		@ sp needed
 1222 001e 08BC     		pop	{r3}
 1223 0020 03B0     		add	sp, sp, #12
 1224 0022 1847     		bx	r3
 1225              	.L137:
 1226              		.align	2
 1227              	.L136:
 1228 0024 00000000 		.word	putcp
 1229              		.cfi_endproc
 1230              	.LFE11:
 1231              		.size	tfp_sprintf, .-tfp_sprintf
 1232              		.section	.bss.stdout_putf,"aw",%nobits
 1233              		.align	2
 1234              		.set	.LANCHOR0,. + 0
 1235              		.type	stdout_putf, %object
 1236              		.size	stdout_putf, 4
 1237              	stdout_putf:
 1238 0000 00000000 		.space	4
 1239              		.section	.bss.stdout_putp,"aw",%nobits
 1240              		.align	2
 1241              		.set	.LANCHOR1,. + 0
 1242              		.type	stdout_putp, %object
 1243              		.size	stdout_putp, 4
 1244              	stdout_putp:
 1245 0000 00000000 		.space	4
 1246              		.text
 1247              	.Letext0:
 1248              		.file 2 "/usr/local/Caskroom/gcc-arm-embedded/7-2017-q4-major/gcc-arm-none-eabi-7-2017-q4-major/li
 1249              		.file 3 "<built-in>"