ARM GAS  /var/folders/t8/16hdwfmd2fg_d3q6dgx6bpmw0000gn/T//cchN4XO4.s 			page 1


   1              		.cpu cortex-m0plus
   2              		.eabi_attribute 20, 1
   3              		.eabi_attribute 21, 1
   4              		.eabi_attribute 23, 3
   5              		.eabi_attribute 24, 1
   6              		.eabi_attribute 25, 1
   7              		.eabi_attribute 26, 1
   8              		.eabi_attribute 30, 2
   9              		.eabi_attribute 34, 0
  10              		.eabi_attribute 18, 4
  11              		.file	"printf.c"
  12              		.text
  13              	.Ltext0:
  14              		.cfi_sections	.debug_frame
  15              		.global	__aeabi_uidiv
  16              		.global	__aeabi_uidivmod
  17              		.section	.text.uli2a,"ax",%progbits
  18              		.align	1
  19              		.p2align 4,,15
  20              		.syntax unified
  21              		.code	16
  22              		.thumb_func
  23              		.fpu softvfp
  24              		.type	uli2a, %function
  25              	uli2a:
  26              	.LFB0:
  27              		.file 1 "../../tmk_core/common/chibios/printf.c"
  28              		.loc 1 39 0
  29              		.cfi_startproc
  30              		@ args = 0, pretend = 0, frame = 0
  31              		@ frame_needed = 0, uses_anonymous_args = 0
  32              	.LVL0:
  33 0000 F8B5     		push	{r3, r4, r5, r6, r7, lr}
  34              		.cfi_def_cfa_offset 24
  35              		.cfi_offset 3, -24
  36              		.cfi_offset 4, -20
  37              		.cfi_offset 5, -16
  38              		.cfi_offset 6, -12
  39              		.cfi_offset 7, -8
  40              		.cfi_offset 14, -4
  41 0002 4546     		mov	r5, r8
  42 0004 5746     		mov	r7, r10
  43 0006 4E46     		mov	r6, r9
  44 0008 DE46     		mov	lr, fp
  45 000a 9846     		mov	r8, r3
  46 000c E0B5     		push	{r5, r6, r7, lr}
  47              		.cfi_def_cfa_offset 40
  48              		.cfi_offset 8, -40
  49              		.cfi_offset 9, -36
  50              		.cfi_offset 10, -32
  51              		.cfi_offset 11, -28
  52              		.loc 1 41 0
  53 000e 0124     		movs	r4, #1
  54              		.loc 1 39 0
  55 0010 0600     		movs	r6, r0
  56 0012 0F00     		movs	r7, r1
  57 0014 1500     		movs	r5, r2
ARM GAS  /var/folders/t8/16hdwfmd2fg_d3q6dgx6bpmw0000gn/T//cchN4XO4.s 			page 2


  58              		.loc 1 42 0
  59 0016 8842     		cmp	r0, r1
  60 0018 08D3     		bcc	.L2
  61              	.LVL1:
  62              	.L3:
  63              		.loc 1 43 0
  64 001a 7C43     		muls	r4, r7
  65              	.LVL2:
  66              		.loc 1 42 0
  67 001c 3000     		movs	r0, r6
  68 001e 2100     		movs	r1, r4
  69 0020 FFF7FEFF 		bl	__aeabi_uidiv
  70              	.LVL3:
  71 0024 B842     		cmp	r0, r7
  72 0026 F8D2     		bcs	.L3
  73              		.loc 1 44 0
  74 0028 002C     		cmp	r4, #0
  75 002a 2AD0     		beq	.L17
  76              	.LVL4:
  77              	.L2:
  78              	.LBB13:
  79 002c 0023     		movs	r3, #0
  80 002e 9946     		mov	r9, r3
  81              		.loc 1 49 0
  82 0030 6B42     		rsbs	r3, r5, #0
  83 0032 5D41     		adcs	r5, r5, r3
  84              	.LVL5:
  85 0034 6B42     		rsbs	r3, r5, #0
  86 0036 9A46     		mov	r10, r3
  87 0038 2023     		movs	r3, #32
  88 003a 9B46     		mov	fp, r3
  89              	.LVL6:
  90              	.L5:
  91 003c 2100     		movs	r1, r4
  92 003e 3000     		movs	r0, r6
  93 0040 FFF7FEFF 		bl	__aeabi_uidivmod
  94              	.LVL7:
  95 0044 0500     		movs	r5, r0
  96 0046 0E00     		movs	r6, r1
  97              	.LVL8:
  98              		.loc 1 47 0
  99 0048 2000     		movs	r0, r4
 100              	.LVL9:
 101 004a 3900     		movs	r1, r7
 102              	.LVL10:
 103 004c FFF7FEFF 		bl	__aeabi_uidiv
 104              	.LVL11:
 105              		.loc 1 48 0
 106 0050 4B46     		mov	r3, r9
 107              		.loc 1 47 0
 108 0052 0400     		movs	r4, r0
 109              		.loc 1 48 0
 110 0054 002B     		cmp	r3, #0
 111 0056 01D1     		bne	.L6
 112              	.LVL12:
 113              		.loc 1 48 0 is_stmt 0 discriminator 1
 114 0058 002D     		cmp	r5, #0
ARM GAS  /var/folders/t8/16hdwfmd2fg_d3q6dgx6bpmw0000gn/T//cchN4XO4.s 			page 3


 115 005a 1BDD     		ble	.L18
 116              	.LVL13:
 117              	.L6:
 118              		.loc 1 49 0 is_stmt 1
 119 005c 3023     		movs	r3, #48
 120 005e 092D     		cmp	r5, #9
 121 0060 03DD     		ble	.L9
 122              		.loc 1 49 0 is_stmt 0 discriminator 1
 123 0062 5B46     		mov	r3, fp
 124 0064 5246     		mov	r2, r10
 125 0066 1340     		ands	r3, r2
 126 0068 3733     		adds	r3, r3, #55
 127              	.L9:
 128              		.loc 1 49 0 discriminator 8
 129 006a 5D19     		adds	r5, r3, r5
 130              	.LVL14:
 131 006c 4346     		mov	r3, r8
 132 006e 1D70     		strb	r5, [r3]
 133              		.loc 1 50 0 is_stmt 1 discriminator 8
 134 0070 0123     		movs	r3, #1
 135              		.loc 1 49 0 discriminator 8
 136 0072 4246     		mov	r2, r8
 137              		.loc 1 50 0 discriminator 8
 138 0074 9C46     		mov	ip, r3
 139              		.loc 1 49 0 discriminator 8
 140 0076 0132     		adds	r2, r2, #1
 141              	.LVL15:
 142              		.loc 1 50 0 discriminator 8
 143 0078 E144     		add	r9, r9, ip
 144              	.LVL16:
 145              	.LBE13:
 146              		.loc 1 44 0 discriminator 8
 147 007a 002C     		cmp	r4, #0
 148 007c 02D0     		beq	.L4
 149              	.LBB14:
 150 007e 9046     		mov	r8, r2
 151 0080 DCE7     		b	.L5
 152              	.LVL17:
 153              	.L17:
 154              	.LBE14:
 155              		.loc 1 44 0 is_stmt 0
 156 0082 4246     		mov	r2, r8
 157              	.LVL18:
 158              	.L4:
 159              		.loc 1 53 0 is_stmt 1
 160 0084 0023     		movs	r3, #0
 161              		.loc 1 54 0
 162              		@ sp needed
 163              		.loc 1 53 0
 164 0086 1370     		strb	r3, [r2]
 165              	.LVL19:
 166              		.loc 1 54 0
 167 0088 3CBC     		pop	{r2, r3, r4, r5}
 168 008a 9046     		mov	r8, r2
 169 008c 9946     		mov	r9, r3
 170 008e A246     		mov	r10, r4
 171 0090 AB46     		mov	fp, r5
ARM GAS  /var/folders/t8/16hdwfmd2fg_d3q6dgx6bpmw0000gn/T//cchN4XO4.s 			page 4


 172 0092 F8BD     		pop	{r3, r4, r5, r6, r7, pc}
 173              	.LVL20:
 174              	.L18:
 175              	.LBB15:
 176              		.loc 1 48 0 discriminator 2
 177 0094 0028     		cmp	r0, #0
 178 0096 02D0     		beq	.L7
 179 0098 4246     		mov	r2, r8
 180 009a 9046     		mov	r8, r2
 181              	.LVL21:
 182 009c CEE7     		b	.L5
 183              	.LVL22:
 184              	.L7:
 185              		.loc 1 49 0
 186 009e 4346     		mov	r3, r8
 187 00a0 3035     		adds	r5, r5, #48
 188              	.LVL23:
 189 00a2 5A1C     		adds	r2, r3, #1
 190              	.LVL24:
 191 00a4 1D70     		strb	r5, [r3]
 192              	.LVL25:
 193 00a6 EDE7     		b	.L4
 194              	.LBE15:
 195              		.cfi_endproc
 196              	.LFE0:
 197              		.size	uli2a, .-uli2a
 198              		.section	.text.ui2a,"ax",%progbits
 199              		.align	1
 200              		.p2align 4,,15
 201              		.syntax unified
 202              		.code	16
 203              		.thumb_func
 204              		.fpu softvfp
 205              		.type	ui2a, %function
 206              	ui2a:
 207              	.LFB2:
 208              		.loc 1 68 0
 209              		.cfi_startproc
 210              		@ args = 0, pretend = 0, frame = 0
 211              		@ frame_needed = 0, uses_anonymous_args = 0
 212              	.LVL26:
 213 0000 F8B5     		push	{r3, r4, r5, r6, r7, lr}
 214              		.cfi_def_cfa_offset 24
 215              		.cfi_offset 3, -24
 216              		.cfi_offset 4, -20
 217              		.cfi_offset 5, -16
 218              		.cfi_offset 6, -12
 219              		.cfi_offset 7, -8
 220              		.cfi_offset 14, -4
 221 0002 4546     		mov	r5, r8
 222 0004 5746     		mov	r7, r10
 223 0006 4E46     		mov	r6, r9
 224 0008 DE46     		mov	lr, fp
 225 000a 9846     		mov	r8, r3
 226 000c E0B5     		push	{r5, r6, r7, lr}
 227              		.cfi_def_cfa_offset 40
 228              		.cfi_offset 8, -40
ARM GAS  /var/folders/t8/16hdwfmd2fg_d3q6dgx6bpmw0000gn/T//cchN4XO4.s 			page 5


 229              		.cfi_offset 9, -36
 230              		.cfi_offset 10, -32
 231              		.cfi_offset 11, -28
 232              		.loc 1 70 0
 233 000e 0124     		movs	r4, #1
 234              		.loc 1 68 0
 235 0010 0600     		movs	r6, r0
 236 0012 0F00     		movs	r7, r1
 237 0014 1500     		movs	r5, r2
 238              		.loc 1 71 0
 239 0016 8842     		cmp	r0, r1
 240 0018 08D3     		bcc	.L20
 241              	.LVL27:
 242              	.L21:
 243              		.loc 1 72 0
 244 001a 7C43     		muls	r4, r7
 245              	.LVL28:
 246              		.loc 1 71 0
 247 001c 3000     		movs	r0, r6
 248 001e 2100     		movs	r1, r4
 249 0020 FFF7FEFF 		bl	__aeabi_uidiv
 250              	.LVL29:
 251 0024 B842     		cmp	r0, r7
 252 0026 F8D2     		bcs	.L21
 253              		.loc 1 73 0
 254 0028 002C     		cmp	r4, #0
 255 002a 2AD0     		beq	.L34
 256              	.LVL30:
 257              	.L20:
 258              	.LBB16:
 259 002c 0023     		movs	r3, #0
 260 002e 9946     		mov	r9, r3
 261              		.loc 1 78 0
 262 0030 6B42     		rsbs	r3, r5, #0
 263 0032 5D41     		adcs	r5, r5, r3
 264              	.LVL31:
 265 0034 6B42     		rsbs	r3, r5, #0
 266 0036 9A46     		mov	r10, r3
 267 0038 2023     		movs	r3, #32
 268 003a 9B46     		mov	fp, r3
 269              	.LVL32:
 270              	.L23:
 271 003c 2100     		movs	r1, r4
 272 003e 3000     		movs	r0, r6
 273 0040 FFF7FEFF 		bl	__aeabi_uidivmod
 274              	.LVL33:
 275 0044 0500     		movs	r5, r0
 276 0046 0E00     		movs	r6, r1
 277              	.LVL34:
 278              		.loc 1 76 0
 279 0048 2000     		movs	r0, r4
 280              	.LVL35:
 281 004a 3900     		movs	r1, r7
 282              	.LVL36:
 283 004c FFF7FEFF 		bl	__aeabi_uidiv
 284              	.LVL37:
 285              		.loc 1 77 0
ARM GAS  /var/folders/t8/16hdwfmd2fg_d3q6dgx6bpmw0000gn/T//cchN4XO4.s 			page 6


 286 0050 4B46     		mov	r3, r9
 287              		.loc 1 76 0
 288 0052 0400     		movs	r4, r0
 289              		.loc 1 77 0
 290 0054 002B     		cmp	r3, #0
 291 0056 01D1     		bne	.L24
 292              	.LVL38:
 293              		.loc 1 77 0 is_stmt 0 discriminator 1
 294 0058 002D     		cmp	r5, #0
 295 005a 1BDD     		ble	.L35
 296              	.LVL39:
 297              	.L24:
 298              		.loc 1 78 0 is_stmt 1
 299 005c 3023     		movs	r3, #48
 300 005e 092D     		cmp	r5, #9
 301 0060 03DD     		ble	.L27
 302              		.loc 1 78 0 is_stmt 0 discriminator 1
 303 0062 5B46     		mov	r3, fp
 304 0064 5246     		mov	r2, r10
 305 0066 1340     		ands	r3, r2
 306 0068 3733     		adds	r3, r3, #55
 307              	.L27:
 308              		.loc 1 78 0 discriminator 8
 309 006a 5D19     		adds	r5, r3, r5
 310              	.LVL40:
 311 006c 4346     		mov	r3, r8
 312 006e 1D70     		strb	r5, [r3]
 313              		.loc 1 79 0 is_stmt 1 discriminator 8
 314 0070 0123     		movs	r3, #1
 315              		.loc 1 78 0 discriminator 8
 316 0072 4246     		mov	r2, r8
 317              		.loc 1 79 0 discriminator 8
 318 0074 9C46     		mov	ip, r3
 319              		.loc 1 78 0 discriminator 8
 320 0076 0132     		adds	r2, r2, #1
 321              	.LVL41:
 322              		.loc 1 79 0 discriminator 8
 323 0078 E144     		add	r9, r9, ip
 324              	.LVL42:
 325              	.LBE16:
 326              		.loc 1 73 0 discriminator 8
 327 007a 002C     		cmp	r4, #0
 328 007c 02D0     		beq	.L22
 329              	.LBB17:
 330 007e 9046     		mov	r8, r2
 331 0080 DCE7     		b	.L23
 332              	.LVL43:
 333              	.L34:
 334              	.LBE17:
 335              		.loc 1 73 0 is_stmt 0
 336 0082 4246     		mov	r2, r8
 337              	.LVL44:
 338              	.L22:
 339              		.loc 1 82 0 is_stmt 1
 340 0084 0023     		movs	r3, #0
 341              		.loc 1 83 0
 342              		@ sp needed
ARM GAS  /var/folders/t8/16hdwfmd2fg_d3q6dgx6bpmw0000gn/T//cchN4XO4.s 			page 7


 343              		.loc 1 82 0
 344 0086 1370     		strb	r3, [r2]
 345              	.LVL45:
 346              		.loc 1 83 0
 347 0088 3CBC     		pop	{r2, r3, r4, r5}
 348 008a 9046     		mov	r8, r2
 349 008c 9946     		mov	r9, r3
 350 008e A246     		mov	r10, r4
 351 0090 AB46     		mov	fp, r5
 352 0092 F8BD     		pop	{r3, r4, r5, r6, r7, pc}
 353              	.LVL46:
 354              	.L35:
 355              	.LBB18:
 356              		.loc 1 77 0 discriminator 2
 357 0094 0028     		cmp	r0, #0
 358 0096 02D0     		beq	.L25
 359 0098 4246     		mov	r2, r8
 360 009a 9046     		mov	r8, r2
 361              	.LVL47:
 362 009c CEE7     		b	.L23
 363              	.LVL48:
 364              	.L25:
 365              		.loc 1 78 0
 366 009e 4346     		mov	r3, r8
 367 00a0 3035     		adds	r5, r5, #48
 368              	.LVL49:
 369 00a2 5A1C     		adds	r2, r3, #1
 370              	.LVL50:
 371 00a4 1D70     		strb	r5, [r3]
 372              	.LVL51:
 373 00a6 EDE7     		b	.L22
 374              	.LBE18:
 375              		.cfi_endproc
 376              	.LFE2:
 377              		.size	ui2a, .-ui2a
 378              		.section	.text.putchw,"ax",%progbits
 379              		.align	1
 380              		.p2align 4,,15
 381              		.syntax unified
 382              		.code	16
 383              		.thumb_func
 384              		.fpu softvfp
 385              		.type	putchw, %function
 386              	putchw:
 387              	.LFB6:
 388              		.loc 1 121 0
 389              		.cfi_startproc
 390              		@ args = 4, pretend = 0, frame = 0
 391              		@ frame_needed = 0, uses_anonymous_args = 0
 392              	.LVL52:
 393 0000 F0B5     		push	{r4, r5, r6, r7, lr}
 394              		.cfi_def_cfa_offset 20
 395              		.cfi_offset 4, -20
 396              		.cfi_offset 5, -16
 397              		.cfi_offset 6, -12
 398              		.cfi_offset 7, -8
 399              		.cfi_offset 14, -4
ARM GAS  /var/folders/t8/16hdwfmd2fg_d3q6dgx6bpmw0000gn/T//cchN4XO4.s 			page 8


 400 0002 C646     		mov	lr, r8
 401 0004 0E00     		movs	r6, r1
 402              		.loc 1 122 0
 403 0006 5942     		rsbs	r1, r3, #0
 404 0008 4B41     		adcs	r3, r3, r1
 405              	.LVL53:
 406 000a 0F21     		movs	r1, #15
 407              		.loc 1 121 0
 408 000c 00B5     		push	{lr}
 409              		.cfi_def_cfa_offset 24
 410              		.cfi_offset 8, -24
 411              		.loc 1 122 0
 412 000e 5D42     		rsbs	r5, r3, #0
 413              		.loc 1 125 0
 414 0010 069B     		ldr	r3, [sp, #24]
 415              		.loc 1 122 0
 416 0012 8D43     		bics	r5, r1
 417              		.loc 1 125 0
 418 0014 0133     		adds	r3, r3, #1
 419 0016 9846     		mov	r8, r3
 420 0018 069B     		ldr	r3, [sp, #24]
 421              		.loc 1 121 0
 422 001a 0700     		movs	r7, r0
 423              		.loc 1 125 0
 424 001c 1978     		ldrb	r1, [r3]
 425              		.loc 1 122 0
 426 001e 3035     		adds	r5, r5, #48
 427              	.LVL54:
 428              		.loc 1 125 0
 429 0020 0029     		cmp	r1, #0
 430 0022 26D0     		beq	.L38
 431 0024 002A     		cmp	r2, #0
 432 0026 19DD     		ble	.L39
 433 0028 4346     		mov	r3, r8
 434 002a 03E0     		b	.L41
 435              	.LVL55:
 436              	.L52:
 437 002c 6246     		mov	r2, ip
 438 002e 0133     		adds	r3, r3, #1
 439              	.LVL56:
 440              		.loc 1 125 0 is_stmt 0 discriminator 1
 441 0030 002A     		cmp	r2, #0
 442 0032 13D0     		beq	.L39
 443              	.LVL57:
 444              	.L41:
 445              		.loc 1 126 0 is_stmt 1
 446 0034 501E     		subs	r0, r2, #1
 447 0036 8446     		mov	ip, r0
 448              	.LVL58:
 449              		.loc 1 125 0
 450 0038 1878     		ldrb	r0, [r3]
 451              	.LVL59:
 452 003a 0028     		cmp	r0, #0
 453 003c F6D1     		bne	.L52
 454              		.loc 1 127 0
 455 003e 6346     		mov	r3, ip
 456              	.LVL60:
ARM GAS  /var/folders/t8/16hdwfmd2fg_d3q6dgx6bpmw0000gn/T//cchN4XO4.s 			page 9


 457 0040 941E     		subs	r4, r2, #2
 458              	.LVL61:
 459 0042 002B     		cmp	r3, #0
 460 0044 0AD0     		beq	.L39
 461              	.L43:
 462              		.loc 1 128 0
 463 0046 2900     		movs	r1, r5
 464 0048 3800     		movs	r0, r7
 465              		.loc 1 127 0
 466 004a 013C     		subs	r4, r4, #1
 467              	.LVL62:
 468              		.loc 1 128 0
 469 004c B047     		blx	r6
 470              	.LVL63:
 471 004e 631C     		adds	r3, r4, #1
 472              		.loc 1 127 0
 473 0050 002B     		cmp	r3, #0
 474 0052 F8DC     		bgt	.L43
 475              	.LVL64:
 476              		.loc 1 129 0
 477 0054 069B     		ldr	r3, [sp, #24]
 478 0056 1978     		ldrb	r1, [r3]
 479              	.LVL65:
 480 0058 0029     		cmp	r1, #0
 481 005a 07D0     		beq	.L36
 482              	.LVL66:
 483              	.L39:
 484 005c 4446     		mov	r4, r8
 485              	.L45:
 486              	.LVL67:
 487              		.loc 1 130 0
 488 005e 3800     		movs	r0, r7
 489 0060 0134     		adds	r4, r4, #1
 490              	.LVL68:
 491 0062 B047     		blx	r6
 492              	.LVL69:
 493              		.loc 1 129 0
 494 0064 631E     		subs	r3, r4, #1
 495 0066 1978     		ldrb	r1, [r3]
 496              	.LVL70:
 497 0068 0029     		cmp	r1, #0
 498 006a F8D1     		bne	.L45
 499              	.LVL71:
 500              	.L36:
 501              		.loc 1 131 0
 502              		@ sp needed
 503              	.LVL72:
 504              	.LVL73:
 505              	.LVL74:
 506 006c 04BC     		pop	{r2}
 507 006e 9046     		mov	r8, r2
 508 0070 F0BD     		pop	{r4, r5, r6, r7, pc}
 509              	.LVL75:
 510              	.L38:
 511              		.loc 1 127 0
 512 0072 541E     		subs	r4, r2, #1
 513              	.LVL76:
ARM GAS  /var/folders/t8/16hdwfmd2fg_d3q6dgx6bpmw0000gn/T//cchN4XO4.s 			page 10


 514 0074 002A     		cmp	r2, #0
 515 0076 F9DD     		ble	.L36
 516 0078 E5E7     		b	.L43
 517              		.cfi_endproc
 518              	.LFE6:
 519              		.size	putchw, .-putchw
 520 007a C046     		.section	.text.putcp,"ax",%progbits
 521              		.align	1
 522              		.p2align 4,,15
 523              		.syntax unified
 524              		.code	16
 525              		.thumb_func
 526              		.fpu softvfp
 527              		.type	putcp, %function
 528              	putcp:
 529              	.LFB10:
 530              		.loc 1 227 0
 531              		.cfi_startproc
 532              		@ args = 0, pretend = 0, frame = 0
 533              		@ frame_needed = 0, uses_anonymous_args = 0
 534              		@ link register save eliminated.
 535              	.LVL77:
 536              		.loc 1 228 0
 537 0000 0368     		ldr	r3, [r0]
 538              		.loc 1 229 0
 539              		@ sp needed
 540              		.loc 1 228 0
 541 0002 5A1C     		adds	r2, r3, #1
 542 0004 0260     		str	r2, [r0]
 543 0006 1970     		strb	r1, [r3]
 544              		.loc 1 229 0
 545 0008 7047     		bx	lr
 546              		.cfi_endproc
 547              	.LFE10:
 548              		.size	putcp, .-putcp
 549 000a C046     		.section	.text.tfp_format,"ax",%progbits
 550              		.align	1
 551              		.p2align 4,,15
 552              		.global	tfp_format
 553              		.syntax unified
 554              		.code	16
 555              		.thumb_func
 556              		.fpu softvfp
 557              		.type	tfp_format, %function
 558              	tfp_format:
 559              	.LFB7:
 560              		.loc 1 134 0
 561              		.cfi_startproc
 562              		@ args = 0, pretend = 0, frame = 24
 563              		@ frame_needed = 0, uses_anonymous_args = 0
 564              	.LVL78:
 565 0000 F0B5     		push	{r4, r5, r6, r7, lr}
 566              		.cfi_def_cfa_offset 20
 567              		.cfi_offset 4, -20
 568              		.cfi_offset 5, -16
 569              		.cfi_offset 6, -12
 570              		.cfi_offset 7, -8
ARM GAS  /var/folders/t8/16hdwfmd2fg_d3q6dgx6bpmw0000gn/T//cchN4XO4.s 			page 11


 571              		.cfi_offset 14, -4
 572 0002 4E46     		mov	r6, r9
 573 0004 DE46     		mov	lr, fp
 574 0006 4546     		mov	r5, r8
 575 0008 5746     		mov	r7, r10
 576 000a 9946     		mov	r9, r3
 577              	.LVL79:
 578              	.LBB28:
 579              	.LBB29:
 580              	.LBB30:
 581              		.loc 1 89 0
 582 000c 2D23     		movs	r3, #45
 583              	.LVL80:
 584              	.LBE30:
 585              	.LBE29:
 586              	.LBE28:
 587              		.loc 1 134 0
 588 000e E0B5     		push	{r5, r6, r7, lr}
 589              		.cfi_def_cfa_offset 36
 590              		.cfi_offset 8, -36
 591              		.cfi_offset 9, -32
 592              		.cfi_offset 10, -28
 593              		.cfi_offset 11, -24
 594 0010 1400     		movs	r4, r2
 595 0012 89B0     		sub	sp, sp, #36
 596              		.cfi_def_cfa_offset 72
 597              		.loc 1 134 0
 598 0014 0600     		movs	r6, r0
 599 0016 0D00     		movs	r5, r1
 600              	.LBB49:
 601              	.LBB36:
 602              	.LBB31:
 603              		.loc 1 89 0
 604 0018 9B46     		mov	fp, r3
 605              	.LBE31:
 606              	.LBE36:
 607              	.LBE49:
 608              		.loc 1 140 0
 609 001a 04E0     		b	.L55
 610              	.LVL81:
 611              	.L84:
 612              		.loc 1 141 0
 613 001c 2529     		cmp	r1, #37
 614 001e 0DD0     		beq	.L56
 615              		.loc 1 142 0
 616 0020 3000     		movs	r0, r6
 617 0022 A847     		blx	r5
 618              	.LVL82:
 619              		.loc 1 140 0
 620 0024 3C00     		movs	r4, r7
 621              	.LVL83:
 622              	.L55:
 623 0026 2178     		ldrb	r1, [r4]
 624 0028 671C     		adds	r7, r4, #1
 625              	.LVL84:
 626 002a 0029     		cmp	r1, #0
 627 002c F6D1     		bne	.L84
ARM GAS  /var/folders/t8/16hdwfmd2fg_d3q6dgx6bpmw0000gn/T//cchN4XO4.s 			page 12


 628              	.LVL85:
 629              	.L54:
 630              		.loc 1 209 0
 631 002e 09B0     		add	sp, sp, #36
 632              		@ sp needed
 633              	.LVL86:
 634              	.LVL87:
 635              	.LVL88:
 636 0030 3CBC     		pop	{r2, r3, r4, r5}
 637 0032 9046     		mov	r8, r2
 638 0034 9946     		mov	r9, r3
 639 0036 A246     		mov	r10, r4
 640 0038 AB46     		mov	fp, r5
 641 003a F0BD     		pop	{r4, r5, r6, r7, pc}
 642              	.LVL89:
 643              	.L56:
 644              	.LBB50:
 645              		.loc 1 149 0
 646 003c 6278     		ldrb	r2, [r4, #1]
 647              	.LVL90:
 648              		.loc 1 150 0
 649 003e 302A     		cmp	r2, #48
 650 0040 2DD0     		beq	.L58
 651              		.loc 1 149 0
 652 0042 A31C     		adds	r3, r4, #2
 653              	.LVL91:
 654 0044 9846     		mov	r8, r3
 655              		.loc 1 144 0
 656 0046 0023     		movs	r3, #0
 657              	.LVL92:
 658 0048 9A46     		mov	r10, r3
 659              	.LVL93:
 660              		.loc 1 154 0
 661 004a 1300     		movs	r3, r2
 662 004c 303B     		subs	r3, r3, #48
 663 004e D9B2     		uxtb	r1, r3
 664              		.loc 1 148 0
 665 0050 0027     		movs	r7, #0
 666              		.loc 1 154 0
 667 0052 0929     		cmp	r1, #9
 668 0054 2ED9     		bls	.L122
 669              	.LVL94:
 670              	.L60:
 671              		.loc 1 158 0
 672 0056 6C2A     		cmp	r2, #108
 673 0058 47D0     		beq	.L123
 674              	.L66:
 675              		.loc 1 163 0
 676 005a 632A     		cmp	r2, #99
 677 005c 00D1     		bne	.LCB733
 678 005e 82E0     		b	.L67	@long jump
 679              	.LCB733:
 680 0060 5FD9     		bls	.L124
 681 0062 732A     		cmp	r2, #115
 682 0064 00D1     		bne	.LCB739
 683 0066 99E0     		b	.L72	@long jump
 684              	.LCB739:
ARM GAS  /var/folders/t8/16hdwfmd2fg_d3q6dgx6bpmw0000gn/T//cchN4XO4.s 			page 13


 685 0068 6CD9     		bls	.L125
 686 006a 752A     		cmp	r2, #117
 687 006c 00D0     		beq	.LCB743
 688 006e A2E0     		b	.L126	@long jump
 689              	.LCB743:
 690              	.LVL95:
 691              		.loc 1 172 0
 692 0070 4A46     		mov	r2, r9
 693              	.LVL96:
 694 0072 4B46     		mov	r3, r9
 695 0074 1068     		ldr	r0, [r2]
 696 0076 0433     		adds	r3, r3, #4
 697 0078 05AA     		add	r2, sp, #20
 698 007a 0393     		str	r3, [sp, #12]
 699              	.LVL97:
 700 007c 0A21     		movs	r1, #10
 701 007e 1300     		movs	r3, r2
 702 0080 0022     		movs	r2, #0
 703 0082 FFF7FEFF 		bl	ui2a
 704              	.LVL98:
 705 0086 039B     		ldr	r3, [sp, #12]
 706 0088 4446     		mov	r4, r8
 707 008a 9946     		mov	r9, r3
 708              	.LVL99:
 709              	.L82:
 710              		.loc 1 193 0
 711 008c 05AB     		add	r3, sp, #20
 712 008e 0093     		str	r3, [sp]
 713 0090 3A00     		movs	r2, r7
 714 0092 5346     		mov	r3, r10
 715 0094 2900     		movs	r1, r5
 716 0096 3000     		movs	r0, r6
 717 0098 FFF7FEFF 		bl	putchw
 718              	.LVL100:
 719              		.loc 1 194 0
 720 009c C3E7     		b	.L55
 721              	.LVL101:
 722              	.L58:
 723              		.loc 1 151 0
 724 009e E31C     		adds	r3, r4, #3
 725 00a0 9846     		mov	r8, r3
 726              	.LVL102:
 727              		.loc 1 152 0
 728 00a2 0123     		movs	r3, #1
 729              	.LVL103:
 730              		.loc 1 151 0
 731 00a4 A278     		ldrb	r2, [r4, #2]
 732              	.LVL104:
 733              		.loc 1 152 0
 734 00a6 9A46     		mov	r10, r3
 735              	.LVL105:
 736              		.loc 1 154 0
 737 00a8 1300     		movs	r3, r2
 738 00aa 303B     		subs	r3, r3, #48
 739 00ac D9B2     		uxtb	r1, r3
 740              		.loc 1 148 0
 741 00ae 0027     		movs	r7, #0
ARM GAS  /var/folders/t8/16hdwfmd2fg_d3q6dgx6bpmw0000gn/T//cchN4XO4.s 			page 14


 742              		.loc 1 154 0
 743 00b0 0929     		cmp	r1, #9
 744 00b2 D0D8     		bhi	.L60
 745              	.L122:
 746 00b4 4146     		mov	r1, r8
 747 00b6 07E0     		b	.L61
 748              	.LVL106:
 749              	.L63:
 750              	.LBB37:
 751              	.LBB38:
 752              		.loc 1 112 0
 753 00b8 BA00     		lsls	r2, r7, #2
 754              	.LVL107:
 755 00ba D719     		adds	r7, r2, r7
 756              	.LVL108:
 757              		.loc 1 113 0
 758 00bc 0A78     		ldrb	r2, [r1]
 759              		.loc 1 112 0
 760 00be 7F00     		lsls	r7, r7, #1
 761 00c0 FF18     		adds	r7, r7, r3
 762              	.LVL109:
 763 00c2 1300     		movs	r3, r2
 764 00c4 0131     		adds	r1, r1, #1
 765              	.LVL110:
 766 00c6 303B     		subs	r3, r3, #48
 767              	.LVL111:
 768              	.L61:
 769              	.LBB39:
 770              	.LBB40:
 771              		.loc 1 96 0
 772 00c8 D8B2     		uxtb	r0, r3
 773 00ca 8846     		mov	r8, r1
 774              	.LVL112:
 775 00cc 0928     		cmp	r0, #9
 776 00ce F3D9     		bls	.L63
 777              		.loc 1 98 0
 778 00d0 1300     		movs	r3, r2
 779 00d2 613B     		subs	r3, r3, #97
 780 00d4 052B     		cmp	r3, #5
 781 00d6 03D9     		bls	.L121
 782              		.loc 1 100 0
 783 00d8 1300     		movs	r3, r2
 784 00da 413B     		subs	r3, r3, #65
 785 00dc 052B     		cmp	r3, #5
 786 00de BAD8     		bhi	.L60
 787              	.L121:
 788              		.loc 1 101 0
 789 00e0 0A33     		adds	r3, r3, #10
 790              	.LVL113:
 791              	.LBE40:
 792              	.LBE39:
 793              		.loc 1 111 0
 794 00e2 0A2B     		cmp	r3, #10
 795 00e4 E8DD     		ble	.L63
 796              	.L71:
 797              	.LVL114:
 798              	.LBE38:
ARM GAS  /var/folders/t8/16hdwfmd2fg_d3q6dgx6bpmw0000gn/T//cchN4XO4.s 			page 15


 799              	.LBE37:
 800              		.loc 1 158 0
 801 00e6 6C2A     		cmp	r2, #108
 802 00e8 B7D1     		bne	.L66
 803              	.LVL115:
 804              	.L123:
 805              		.loc 1 159 0
 806 00ea 4346     		mov	r3, r8
 807 00ec 5C1C     		adds	r4, r3, #1
 808              	.LVL116:
 809 00ee 1B78     		ldrb	r3, [r3]
 810              	.LVL117:
 811              		.loc 1 163 0
 812 00f0 632B     		cmp	r3, #99
 813 00f2 37D0     		beq	.L91
 814 00f4 1ED9     		bls	.L127
 815 00f6 732B     		cmp	r3, #115
 816 00f8 4FD0     		beq	.L92
 817 00fa 75D9     		bls	.L128
 818 00fc 752B     		cmp	r3, #117
 819 00fe 40D0     		beq	.L75
 820 0100 782B     		cmp	r3, #120
 821 0102 00D0     		beq	.LCB907
 822 0104 8FE7     		b	.L55	@long jump
 823              	.LCB907:
 824              	.L70:
 825              		.loc 1 189 0
 826 0106 0422     		movs	r2, #4
 827 0108 583B     		subs	r3, r3, #88
 828              	.LVL118:
 829 010a 4A44     		add	r2, r2, r9
 830 010c 9046     		mov	r8, r2
 831              	.LVL119:
 832 010e 5A42     		rsbs	r2, r3, #0
 833 0110 5A41     		adcs	r2, r2, r3
 834              	.LVL120:
 835 0112 4B46     		mov	r3, r9
 836 0114 1021     		movs	r1, #16
 837 0116 1868     		ldr	r0, [r3]
 838 0118 05AB     		add	r3, sp, #20
 839 011a FFF7FEFF 		bl	uli2a
 840              	.LVL121:
 841 011e C146     		mov	r9, r8
 842 0120 B4E7     		b	.L82
 843              	.LVL122:
 844              	.L124:
 845              		.loc 1 163 0
 846 0122 252A     		cmp	r2, #37
 847 0124 28D0     		beq	.L69
 848 0126 582A     		cmp	r2, #88
 849 0128 47D0     		beq	.L83
 850 012a 002A     		cmp	r2, #0
 851 012c 00D1     		bne	.LCB941
 852 012e 7EE7     		b	.L54	@long jump
 853              	.LCB941:
 854              	.L93:
 855 0130 4446     		mov	r4, r8
ARM GAS  /var/folders/t8/16hdwfmd2fg_d3q6dgx6bpmw0000gn/T//cchN4XO4.s 			page 16


 856 0132 78E7     		b	.L55
 857              	.LVL123:
 858              	.L127:
 859 0134 252B     		cmp	r3, #37
 860 0136 1ED0     		beq	.L90
 861 0138 582B     		cmp	r3, #88
 862 013a E4D0     		beq	.L70
 863 013c 002B     		cmp	r3, #0
 864 013e 00D0     		beq	.LCB960
 865 0140 71E7     		b	.L55	@long jump
 866              	.LCB960:
 867 0142 74E7     		b	.L54
 868              	.LVL124:
 869              	.L125:
 870 0144 642A     		cmp	r2, #100
 871 0146 F3D1     		bne	.L93
 872              	.LVL125:
 873              		.loc 1 182 0
 874 0148 4B46     		mov	r3, r9
 875 014a 1868     		ldr	r0, [r3]
 876              	.LVL126:
 877              	.LBB41:
 878              	.LBB32:
 879              		.loc 1 87 0
 880 014c 0028     		cmp	r0, #0
 881 014e 42DB     		blt	.L79
 882              	.LVL127:
 883 0150 05AB     		add	r3, sp, #20
 884              	.LVL128:
 885              	.L80:
 886              	.LBE32:
 887              	.LBE41:
 888              		.loc 1 182 0
 889 0152 0422     		movs	r2, #4
 890 0154 9446     		mov	ip, r2
 891              	.LBB42:
 892              	.LBB33:
 893              		.loc 1 91 0
 894 0156 0A21     		movs	r1, #10
 895 0158 0022     		movs	r2, #0
 896              	.LBE33:
 897              	.LBE42:
 898              		.loc 1 182 0
 899 015a E144     		add	r9, r9, ip
 900              	.LVL129:
 901              	.LBB43:
 902              	.LBB34:
 903              		.loc 1 91 0
 904 015c 4446     		mov	r4, r8
 905 015e FFF7FEFF 		bl	ui2a
 906              	.LVL130:
 907 0162 93E7     		b	.L82
 908              	.LVL131:
 909              	.L91:
 910              	.LBE34:
 911              	.LBE43:
 912              		.loc 1 159 0
ARM GAS  /var/folders/t8/16hdwfmd2fg_d3q6dgx6bpmw0000gn/T//cchN4XO4.s 			page 17


 913 0164 A046     		mov	r8, r4
 914              	.LVL132:
 915              	.L67:
 916              		.loc 1 196 0
 917 0166 4B46     		mov	r3, r9
 918 0168 3000     		movs	r0, r6
 919 016a 1C1D     		adds	r4, r3, #4
 920              	.LVL133:
 921 016c 1978     		ldrb	r1, [r3]
 922 016e A146     		mov	r9, r4
 923 0170 A847     		blx	r5
 924              	.LVL134:
 925              		.loc 1 197 0
 926 0172 4446     		mov	r4, r8
 927              	.LVL135:
 928 0174 57E7     		b	.L55
 929              	.LVL136:
 930              	.L90:
 931              		.loc 1 159 0
 932 0176 A046     		mov	r8, r4
 933              	.LVL137:
 934              	.L69:
 935              		.loc 1 202 0
 936 0178 2521     		movs	r1, #37
 937 017a 3000     		movs	r0, r6
 938 017c A847     		blx	r5
 939              	.LVL138:
 940 017e 4446     		mov	r4, r8
 941 0180 51E7     		b	.L55
 942              	.LVL139:
 943              	.L75:
 944              		.loc 1 169 0
 945 0182 0423     		movs	r3, #4
 946              	.LVL140:
 947 0184 4B44     		add	r3, r3, r9
 948 0186 9846     		mov	r8, r3
 949              	.LVL141:
 950 0188 4B46     		mov	r3, r9
 951              	.LVL142:
 952 018a 0022     		movs	r2, #0
 953 018c 1868     		ldr	r0, [r3]
 954 018e 0A21     		movs	r1, #10
 955 0190 05AB     		add	r3, sp, #20
 956 0192 FFF7FEFF 		bl	uli2a
 957              	.LVL143:
 958 0196 C146     		mov	r9, r8
 959 0198 78E7     		b	.L82
 960              	.LVL144:
 961              	.L92:
 962              		.loc 1 159 0
 963 019a A046     		mov	r8, r4
 964              	.LVL145:
 965              	.L72:
 966              		.loc 1 199 0
 967 019c 4B46     		mov	r3, r9
 968 019e 1C1D     		adds	r4, r3, #4
 969              	.LVL146:
ARM GAS  /var/folders/t8/16hdwfmd2fg_d3q6dgx6bpmw0000gn/T//cchN4XO4.s 			page 18


 970 01a0 1B68     		ldr	r3, [r3]
 971 01a2 3A00     		movs	r2, r7
 972 01a4 0093     		str	r3, [sp]
 973 01a6 2900     		movs	r1, r5
 974 01a8 0023     		movs	r3, #0
 975 01aa 3000     		movs	r0, r6
 976 01ac A146     		mov	r9, r4
 977 01ae FFF7FEFF 		bl	putchw
 978              	.LVL147:
 979              		.loc 1 200 0
 980 01b2 4446     		mov	r4, r8
 981              	.LVL148:
 982 01b4 37E7     		b	.L55
 983              	.LVL149:
 984              	.L126:
 985              		.loc 1 163 0
 986 01b6 782A     		cmp	r2, #120
 987 01b8 BAD1     		bne	.L93
 988              	.L83:
 989              		.loc 1 192 0
 990 01ba 4B46     		mov	r3, r9
 991 01bc 583A     		subs	r2, r2, #88
 992              	.LVL150:
 993 01be 1C1D     		adds	r4, r3, #4
 994              	.LVL151:
 995 01c0 5342     		rsbs	r3, r2, #0
 996 01c2 5A41     		adcs	r2, r2, r3
 997 01c4 4B46     		mov	r3, r9
 998 01c6 1021     		movs	r1, #16
 999 01c8 1868     		ldr	r0, [r3]
 1000 01ca 05AB     		add	r3, sp, #20
 1001 01cc A146     		mov	r9, r4
 1002 01ce FFF7FEFF 		bl	ui2a
 1003              	.LVL152:
 1004 01d2 4446     		mov	r4, r8
 1005              	.LVL153:
 1006 01d4 5AE7     		b	.L82
 1007              	.LVL154:
 1008              	.L79:
 1009              	.LBB44:
 1010              	.LBB35:
 1011              		.loc 1 89 0
 1012 01d6 5A46     		mov	r2, fp
 1013              	.LVL155:
 1014 01d8 02AB     		add	r3, sp, #8
 1015              	.LVL156:
 1016 01da 1A73     		strb	r2, [r3, #12]
 1017 01dc 02AA     		add	r2, sp, #8
 1018 01de 0D23     		movs	r3, #13
 1019 01e0 9446     		mov	ip, r2
 1020              		.loc 1 88 0
 1021 01e2 4042     		rsbs	r0, r0, #0
 1022              	.LVL157:
 1023              		.loc 1 89 0
 1024 01e4 6344     		add	r3, r3, ip
 1025 01e6 B4E7     		b	.L80
 1026              	.LVL158:
ARM GAS  /var/folders/t8/16hdwfmd2fg_d3q6dgx6bpmw0000gn/T//cchN4XO4.s 			page 19


 1027              	.L128:
 1028              	.LBE35:
 1029              	.LBE44:
 1030              		.loc 1 163 0
 1031 01e8 642B     		cmp	r3, #100
 1032 01ea 00D0     		beq	.LCB1190
 1033 01ec 1BE7     		b	.L55	@long jump
 1034              	.LCB1190:
 1035              		.loc 1 179 0
 1036 01ee 0423     		movs	r3, #4
 1037              	.LVL159:
 1038 01f0 4B44     		add	r3, r3, r9
 1039 01f2 9846     		mov	r8, r3
 1040              	.LVL160:
 1041 01f4 4B46     		mov	r3, r9
 1042              	.LVL161:
 1043 01f6 1868     		ldr	r0, [r3]
 1044              	.LVL162:
 1045              	.LBB45:
 1046              	.LBB46:
 1047              		.loc 1 58 0
 1048 01f8 0028     		cmp	r0, #0
 1049 01fa 06DB     		blt	.L76
 1050 01fc 05AB     		add	r3, sp, #20
 1051              	.LVL163:
 1052              	.L77:
 1053              		.loc 1 62 0
 1054 01fe 0022     		movs	r2, #0
 1055 0200 0A21     		movs	r1, #10
 1056 0202 FFF7FEFF 		bl	uli2a
 1057              	.LVL164:
 1058              	.LBE46:
 1059              	.LBE45:
 1060              		.loc 1 179 0
 1061 0206 C146     		mov	r9, r8
 1062 0208 40E7     		b	.L82
 1063              	.LVL165:
 1064              	.L76:
 1065              	.LBB48:
 1066              	.LBB47:
 1067              		.loc 1 60 0
 1068 020a 5A46     		mov	r2, fp
 1069 020c 02AB     		add	r3, sp, #8
 1070 020e 1A73     		strb	r2, [r3, #12]
 1071 0210 02AA     		add	r2, sp, #8
 1072 0212 0D23     		movs	r3, #13
 1073 0214 9446     		mov	ip, r2
 1074              		.loc 1 59 0
 1075 0216 4042     		rsbs	r0, r0, #0
 1076              	.LVL166:
 1077              		.loc 1 60 0
 1078 0218 6344     		add	r3, r3, ip
 1079 021a F0E7     		b	.L77
 1080              	.LBE47:
 1081              	.LBE48:
 1082              	.LBE50:
 1083              		.cfi_endproc
ARM GAS  /var/folders/t8/16hdwfmd2fg_d3q6dgx6bpmw0000gn/T//cchN4XO4.s 			page 20


 1084              	.LFE7:
 1085              		.size	tfp_format, .-tfp_format
 1086              		.section	.text.init_printf,"ax",%progbits
 1087              		.align	1
 1088              		.p2align 4,,15
 1089              		.global	init_printf
 1090              		.syntax unified
 1091              		.code	16
 1092              		.thumb_func
 1093              		.fpu softvfp
 1094              		.type	init_printf, %function
 1095              	init_printf:
 1096              	.LFB8:
 1097              		.loc 1 213 0
 1098              		.cfi_startproc
 1099              		@ args = 0, pretend = 0, frame = 0
 1100              		@ frame_needed = 0, uses_anonymous_args = 0
 1101              		@ link register save eliminated.
 1102              	.LVL167:
 1103              		.loc 1 214 0
 1104 0000 024B     		ldr	r3, .L130
 1105              		.loc 1 216 0
 1106              		@ sp needed
 1107              		.loc 1 214 0
 1108 0002 1960     		str	r1, [r3]
 1109              		.loc 1 215 0
 1110 0004 024B     		ldr	r3, .L130+4
 1111 0006 1860     		str	r0, [r3]
 1112              		.loc 1 216 0
 1113 0008 7047     		bx	lr
 1114              	.L131:
 1115 000a C046     		.align	2
 1116              	.L130:
 1117 000c 00000000 		.word	.LANCHOR0
 1118 0010 00000000 		.word	.LANCHOR1
 1119              		.cfi_endproc
 1120              	.LFE8:
 1121              		.size	init_printf, .-init_printf
 1122              		.section	.text.tfp_printf,"ax",%progbits
 1123              		.align	1
 1124              		.p2align 4,,15
 1125              		.global	tfp_printf
 1126              		.syntax unified
 1127              		.code	16
 1128              		.thumb_func
 1129              		.fpu softvfp
 1130              		.type	tfp_printf, %function
 1131              	tfp_printf:
 1132              	.LFB9:
 1133              		.loc 1 219 0
 1134              		.cfi_startproc
 1135              		@ args = 4, pretend = 16, frame = 8
 1136              		@ frame_needed = 0, uses_anonymous_args = 1
 1137              	.LVL168:
 1138 0000 0FB4     		push	{r0, r1, r2, r3}
 1139              		.cfi_def_cfa_offset 16
 1140 0002 00B5     		push	{lr}
ARM GAS  /var/folders/t8/16hdwfmd2fg_d3q6dgx6bpmw0000gn/T//cchN4XO4.s 			page 21


 1141              		.cfi_def_cfa_offset 20
 1142              		.cfi_offset 14, -20
 1143 0004 83B0     		sub	sp, sp, #12
 1144              		.cfi_def_cfa_offset 32
 1145              		.loc 1 219 0
 1146 0006 04AB     		add	r3, sp, #16
 1147              		.loc 1 222 0
 1148 0008 0549     		ldr	r1, .L133
 1149 000a 0648     		ldr	r0, .L133+4
 1150              		.loc 1 219 0
 1151 000c 04CB     		ldmia	r3!, {r2}
 1152              		.loc 1 222 0
 1153 000e 0968     		ldr	r1, [r1]
 1154 0010 0068     		ldr	r0, [r0]
 1155              		.loc 1 221 0
 1156 0012 0193     		str	r3, [sp, #4]
 1157              		.loc 1 222 0
 1158 0014 FFF7FEFF 		bl	tfp_format
 1159              	.LVL169:
 1160              		.loc 1 224 0
 1161 0018 03B0     		add	sp, sp, #12
 1162              		@ sp needed
 1163 001a 08BC     		pop	{r3}
 1164 001c 04B0     		add	sp, sp, #16
 1165 001e 1847     		bx	r3
 1166              	.L134:
 1167              		.align	2
 1168              	.L133:
 1169 0020 00000000 		.word	.LANCHOR0
 1170 0024 00000000 		.word	.LANCHOR1
 1171              		.cfi_endproc
 1172              	.LFE9:
 1173              		.size	tfp_printf, .-tfp_printf
 1174              		.section	.text.tfp_sprintf,"ax",%progbits
 1175              		.align	1
 1176              		.p2align 4,,15
 1177              		.global	tfp_sprintf
 1178              		.syntax unified
 1179              		.code	16
 1180              		.thumb_func
 1181              		.fpu softvfp
 1182              		.type	tfp_sprintf, %function
 1183              	tfp_sprintf:
 1184              	.LFB11:
 1185              		.loc 1 234 0
 1186              		.cfi_startproc
 1187              		@ args = 4, pretend = 12, frame = 16
 1188              		@ frame_needed = 0, uses_anonymous_args = 1
 1189              	.LVL170:
 1190 0000 0EB4     		push	{r1, r2, r3}
 1191              		.cfi_def_cfa_offset 12
 1192 0002 00B5     		push	{lr}
 1193              		.cfi_def_cfa_offset 16
 1194              		.cfi_offset 14, -16
 1195 0004 84B0     		sub	sp, sp, #16
 1196              		.cfi_def_cfa_offset 32
 1197              		.loc 1 234 0
ARM GAS  /var/folders/t8/16hdwfmd2fg_d3q6dgx6bpmw0000gn/T//cchN4XO4.s 			page 22


 1198 0006 05AB     		add	r3, sp, #20
 1199 0008 04CB     		ldmia	r3!, {r2}
 1200 000a 0190     		str	r0, [sp, #4]
 1201              		.loc 1 237 0
 1202 000c 0549     		ldr	r1, .L136
 1203 000e 01A8     		add	r0, sp, #4
 1204              	.LVL171:
 1205              		.loc 1 236 0
 1206 0010 0393     		str	r3, [sp, #12]
 1207              		.loc 1 237 0
 1208 0012 FFF7FEFF 		bl	tfp_format
 1209              	.LVL172:
 1210              	.LBB51:
 1211              	.LBB52:
 1212              		.loc 1 228 0
 1213 0016 0023     		movs	r3, #0
 1214 0018 019A     		ldr	r2, [sp, #4]
 1215 001a 1370     		strb	r3, [r2]
 1216              	.LVL173:
 1217              	.LBE52:
 1218              	.LBE51:
 1219              		.loc 1 240 0
 1220 001c 04B0     		add	sp, sp, #16
 1221              		@ sp needed
 1222 001e 08BC     		pop	{r3}
 1223 0020 03B0     		add	sp, sp, #12
 1224 0022 1847     		bx	r3
 1225              	.L137:
 1226              		.align	2
 1227              	.L136:
 1228 0024 00000000 		.word	putcp
 1229              		.cfi_endproc
 1230              	.LFE11:
 1231              		.size	tfp_sprintf, .-tfp_sprintf
 1232              		.section	.bss.stdout_putf,"aw",%nobits
 1233              		.align	2
 1234              		.set	.LANCHOR0,. + 0
 1235              		.type	stdout_putf, %object
 1236              		.size	stdout_putf, 4
 1237              	stdout_putf:
 1238 0000 00000000 		.space	4
 1239              		.section	.bss.stdout_putp,"aw",%nobits
 1240              		.align	2
 1241              		.set	.LANCHOR1,. + 0
 1242              		.type	stdout_putp, %object
 1243              		.size	stdout_putp, 4
 1244              	stdout_putp:
 1245 0000 00000000 		.space	4
 1246              		.text
 1247              	.Letext0:
 1248              		.file 2 "/usr/local/Caskroom/gcc-arm-embedded/7-2017-q4-major/gcc-arm-none-eabi-7-2017-q4-major/li
 1249              		.file 3 "<built-in>"
 1250              		.section	.debug_info,"",%progbits
 1251              	.Ldebug_info0:
 1252 0000 EC060000 		.4byte	0x6ec
 1253 0004 0400     		.2byte	0x4
 1254 0006 00000000 		.4byte	.Ldebug_abbrev0
ARM GAS  /var/folders/t8/16hdwfmd2fg_d3q6dgx6bpmw0000gn/T//cchN4XO4.s 			page 23


 1255 000a 04       		.byte	0x4
 1256 000b 01       		.uleb128 0x1
 1257 000c D4000000 		.4byte	.LASF23
 1258 0010 0C       		.byte	0xc
 1259 0011 0C000000 		.4byte	.LASF24
 1260 0015 3C000000 		.4byte	.LASF25
 1261 0019 B0000000 		.4byte	.Ldebug_ranges0+0xb0
 1262 001d 00000000 		.4byte	0
 1263 0021 00000000 		.4byte	.Ldebug_line0
 1264 0025 02       		.uleb128 0x2
 1265 0026 8E000000 		.4byte	.LASF0
 1266 002a 02       		.byte	0x2
 1267 002b 28       		.byte	0x28
 1268 002c 30000000 		.4byte	0x30
 1269 0030 03       		.uleb128 0x3
 1270 0031 F1010000 		.4byte	.LASF26
 1271 0035 04       		.byte	0x4
 1272 0036 03       		.byte	0x3
 1273 0037 00       		.byte	0
 1274 0038 47000000 		.4byte	0x47
 1275 003c 04       		.uleb128 0x4
 1276 003d E1010000 		.4byte	.LASF27
 1277 0041 47000000 		.4byte	0x47
 1278 0045 00       		.byte	0
 1279 0046 00       		.byte	0
 1280 0047 05       		.uleb128 0x5
 1281 0048 04       		.byte	0x4
 1282 0049 02       		.uleb128 0x2
 1283 004a AE000000 		.4byte	.LASF1
 1284 004e 02       		.byte	0x2
 1285 004f 63       		.byte	0x63
 1286 0050 25000000 		.4byte	0x25
 1287 0054 02       		.uleb128 0x2
 1288 0055 9D000000 		.4byte	.LASF2
 1289 0059 01       		.byte	0x1
 1290 005a 1D       		.byte	0x1d
 1291 005b 5F000000 		.4byte	0x5f
 1292 005f 06       		.uleb128 0x6
 1293 0060 04       		.byte	0x4
 1294 0061 65000000 		.4byte	0x65
 1295 0065 07       		.uleb128 0x7
 1296 0066 75000000 		.4byte	0x75
 1297 006a 08       		.uleb128 0x8
 1298 006b 47000000 		.4byte	0x47
 1299 006f 08       		.uleb128 0x8
 1300 0070 75000000 		.4byte	0x75
 1301 0074 00       		.byte	0
 1302 0075 09       		.uleb128 0x9
 1303 0076 01       		.byte	0x1
 1304 0077 08       		.byte	0x8
 1305 0078 DC010000 		.4byte	.LASF11
 1306 007c 0A       		.uleb128 0xa
 1307 007d 27020000 		.4byte	.LASF3
 1308 0081 01       		.byte	0x1
 1309 0082 1E       		.byte	0x1e
 1310 0083 54000000 		.4byte	0x54
 1311 0087 05       		.uleb128 0x5
ARM GAS  /var/folders/t8/16hdwfmd2fg_d3q6dgx6bpmw0000gn/T//cchN4XO4.s 			page 24


 1312 0088 03       		.byte	0x3
 1313 0089 00000000 		.4byte	stdout_putf
 1314 008d 0A       		.uleb128 0xa
 1315 008e 00000000 		.4byte	.LASF4
 1316 0092 01       		.byte	0x1
 1317 0093 1F       		.byte	0x1f
 1318 0094 47000000 		.4byte	0x47
 1319 0098 05       		.uleb128 0x5
 1320 0099 03       		.byte	0x3
 1321 009a 00000000 		.4byte	stdout_putp
 1322 009e 0B       		.uleb128 0xb
 1323 009f BD010000 		.4byte	.LASF5
 1324 00a3 01       		.byte	0x1
 1325 00a4 E9       		.byte	0xe9
 1326 00a5 00000000 		.4byte	.LFB11
 1327 00a9 28000000 		.4byte	.LFE11-.LFB11
 1328 00ad 01       		.uleb128 0x1
 1329 00ae 9C       		.byte	0x9c
 1330 00af 29010000 		.4byte	0x129
 1331 00b3 0C       		.uleb128 0xc
 1332 00b4 7300     		.ascii	"s\000"
 1333 00b6 01       		.byte	0x1
 1334 00b7 E9       		.byte	0xe9
 1335 00b8 29010000 		.4byte	0x129
 1336 00bc 00000000 		.4byte	.LLST38
 1337 00c0 0D       		.uleb128 0xd
 1338 00c1 666D7400 		.ascii	"fmt\000"
 1339 00c5 01       		.byte	0x1
 1340 00c6 E9       		.byte	0xe9
 1341 00c7 29010000 		.4byte	0x129
 1342 00cb 02       		.uleb128 0x2
 1343 00cc 91       		.byte	0x91
 1344 00cd 74       		.sleb128 -12
 1345 00ce 0E       		.uleb128 0xe
 1346 00cf 0F       		.uleb128 0xf
 1347 00d0 766100   		.ascii	"va\000"
 1348 00d3 01       		.byte	0x1
 1349 00d4 EB       		.byte	0xeb
 1350 00d5 49000000 		.4byte	0x49
 1351 00d9 02       		.uleb128 0x2
 1352 00da 91       		.byte	0x91
 1353 00db 6C       		.sleb128 -20
 1354 00dc 10       		.uleb128 0x10
 1355 00dd 2F010000 		.4byte	0x12f
 1356 00e1 16000000 		.4byte	.LBB51
 1357 00e5 06000000 		.4byte	.LBE51-.LBB51
 1358 00e9 01       		.byte	0x1
 1359 00ea EE       		.byte	0xee
 1360 00eb 02010000 		.4byte	0x102
 1361 00ef 11       		.uleb128 0x11
 1362 00f0 44010000 		.4byte	0x144
 1363 00f4 1F000000 		.4byte	.LLST39
 1364 00f8 11       		.uleb128 0x11
 1365 00f9 3B010000 		.4byte	0x13b
 1366 00fd 33000000 		.4byte	.LLST40
 1367 0101 00       		.byte	0
 1368 0102 12       		.uleb128 0x12
ARM GAS  /var/folders/t8/16hdwfmd2fg_d3q6dgx6bpmw0000gn/T//cchN4XO4.s 			page 25


 1369 0103 16000000 		.4byte	.LVL172
 1370 0107 C7010000 		.4byte	0x1c7
 1371 010b 13       		.uleb128 0x13
 1372 010c 01       		.uleb128 0x1
 1373 010d 50       		.byte	0x50
 1374 010e 02       		.uleb128 0x2
 1375 010f 91       		.byte	0x91
 1376 0110 4C       		.sleb128 -52
 1377 0111 13       		.uleb128 0x13
 1378 0112 01       		.uleb128 0x1
 1379 0113 51       		.byte	0x51
 1380 0114 05       		.uleb128 0x5
 1381 0115 03       		.byte	0x3
 1382 0116 00000000 		.4byte	putcp
 1383 011a 13       		.uleb128 0x13
 1384 011b 01       		.uleb128 0x1
 1385 011c 52       		.byte	0x52
 1386 011d 03       		.uleb128 0x3
 1387 011e 91       		.byte	0x91
 1388 011f 5C       		.sleb128 -36
 1389 0120 06       		.byte	0x6
 1390 0121 13       		.uleb128 0x13
 1391 0122 01       		.uleb128 0x1
 1392 0123 53       		.byte	0x53
 1393 0124 02       		.uleb128 0x2
 1394 0125 91       		.byte	0x91
 1395 0126 60       		.sleb128 -32
 1396 0127 00       		.byte	0
 1397 0128 00       		.byte	0
 1398 0129 06       		.uleb128 0x6
 1399 012a 04       		.byte	0x4
 1400 012b 75000000 		.4byte	0x75
 1401 012f 14       		.uleb128 0x14
 1402 0130 A8000000 		.4byte	.LASF16
 1403 0134 01       		.byte	0x1
 1404 0135 E2       		.byte	0xe2
 1405 0136 01       		.byte	0x1
 1406 0137 4E010000 		.4byte	0x14e
 1407 013b 15       		.uleb128 0x15
 1408 013c 7000     		.ascii	"p\000"
 1409 013e 01       		.byte	0x1
 1410 013f E2       		.byte	0xe2
 1411 0140 47000000 		.4byte	0x47
 1412 0144 15       		.uleb128 0x15
 1413 0145 6300     		.ascii	"c\000"
 1414 0147 01       		.byte	0x1
 1415 0148 E2       		.byte	0xe2
 1416 0149 75000000 		.4byte	0x75
 1417 014d 00       		.byte	0
 1418 014e 0B       		.uleb128 0xb
 1419 014f E6010000 		.4byte	.LASF6
 1420 0153 01       		.byte	0x1
 1421 0154 DA       		.byte	0xda
 1422 0155 00000000 		.4byte	.LFB9
 1423 0159 28000000 		.4byte	.LFE9-.LFB9
 1424 015d 01       		.uleb128 0x1
 1425 015e 9C       		.byte	0x9c
ARM GAS  /var/folders/t8/16hdwfmd2fg_d3q6dgx6bpmw0000gn/T//cchN4XO4.s 			page 26


 1426 015f 97010000 		.4byte	0x197
 1427 0163 0D       		.uleb128 0xd
 1428 0164 666D7400 		.ascii	"fmt\000"
 1429 0168 01       		.byte	0x1
 1430 0169 DA       		.byte	0xda
 1431 016a 29010000 		.4byte	0x129
 1432 016e 02       		.uleb128 0x2
 1433 016f 91       		.byte	0x91
 1434 0170 70       		.sleb128 -16
 1435 0171 0E       		.uleb128 0xe
 1436 0172 0F       		.uleb128 0xf
 1437 0173 766100   		.ascii	"va\000"
 1438 0176 01       		.byte	0x1
 1439 0177 DC       		.byte	0xdc
 1440 0178 49000000 		.4byte	0x49
 1441 017c 02       		.uleb128 0x2
 1442 017d 91       		.byte	0x91
 1443 017e 64       		.sleb128 -28
 1444 017f 12       		.uleb128 0x12
 1445 0180 18000000 		.4byte	.LVL169
 1446 0184 C7010000 		.4byte	0x1c7
 1447 0188 13       		.uleb128 0x13
 1448 0189 01       		.uleb128 0x1
 1449 018a 52       		.byte	0x52
 1450 018b 03       		.uleb128 0x3
 1451 018c 91       		.byte	0x91
 1452 018d 50       		.sleb128 -48
 1453 018e 06       		.byte	0x6
 1454 018f 13       		.uleb128 0x13
 1455 0190 01       		.uleb128 0x1
 1456 0191 53       		.byte	0x53
 1457 0192 02       		.uleb128 0x2
 1458 0193 91       		.byte	0x91
 1459 0194 54       		.sleb128 -44
 1460 0195 00       		.byte	0
 1461 0196 00       		.byte	0
 1462 0197 0B       		.uleb128 0xb
 1463 0198 B6000000 		.4byte	.LASF7
 1464 019c 01       		.byte	0x1
 1465 019d D4       		.byte	0xd4
 1466 019e 00000000 		.4byte	.LFB8
 1467 01a2 14000000 		.4byte	.LFE8-.LFB8
 1468 01a6 01       		.uleb128 0x1
 1469 01a7 9C       		.byte	0x9c
 1470 01a8 C7010000 		.4byte	0x1c7
 1471 01ac 16       		.uleb128 0x16
 1472 01ad 17020000 		.4byte	.LASF8
 1473 01b1 01       		.byte	0x1
 1474 01b2 D4       		.byte	0xd4
 1475 01b3 47000000 		.4byte	0x47
 1476 01b7 01       		.uleb128 0x1
 1477 01b8 50       		.byte	0x50
 1478 01b9 16       		.uleb128 0x16
 1479 01ba 0B020000 		.4byte	.LASF9
 1480 01be 01       		.byte	0x1
 1481 01bf D4       		.byte	0xd4
 1482 01c0 5F000000 		.4byte	0x5f
ARM GAS  /var/folders/t8/16hdwfmd2fg_d3q6dgx6bpmw0000gn/T//cchN4XO4.s 			page 27


 1483 01c4 01       		.uleb128 0x1
 1484 01c5 51       		.byte	0x51
 1485 01c6 00       		.byte	0
 1486 01c7 0B       		.uleb128 0xb
 1487 01c8 83000000 		.4byte	.LASF10
 1488 01cc 01       		.byte	0x1
 1489 01cd 85       		.byte	0x85
 1490 01ce 00000000 		.4byte	.LFB7
 1491 01d2 1C020000 		.4byte	.LFE7-.LFB7
 1492 01d6 01       		.uleb128 0x1
 1493 01d7 9C       		.byte	0x9c
 1494 01d8 3A040000 		.4byte	0x43a
 1495 01dc 17       		.uleb128 0x17
 1496 01dd 17020000 		.4byte	.LASF8
 1497 01e1 01       		.byte	0x1
 1498 01e2 85       		.byte	0x85
 1499 01e3 47000000 		.4byte	0x47
 1500 01e7 48000000 		.4byte	.LLST22
 1501 01eb 17       		.uleb128 0x17
 1502 01ec 0B020000 		.4byte	.LASF9
 1503 01f0 01       		.byte	0x1
 1504 01f1 85       		.byte	0x85
 1505 01f2 54000000 		.4byte	0x54
 1506 01f6 7F000000 		.4byte	.LLST23
 1507 01fa 0C       		.uleb128 0xc
 1508 01fb 666D7400 		.ascii	"fmt\000"
 1509 01ff 01       		.byte	0x1
 1510 0200 85       		.byte	0x85
 1511 0201 29010000 		.4byte	0x129
 1512 0205 B6000000 		.4byte	.LLST24
 1513 0209 0C       		.uleb128 0xc
 1514 020a 766100   		.ascii	"va\000"
 1515 020d 01       		.byte	0x1
 1516 020e 85       		.byte	0x85
 1517 020f 49000000 		.4byte	0x49
 1518 0213 CA010000 		.4byte	.LLST25
 1519 0217 0F       		.uleb128 0xf
 1520 0218 626600   		.ascii	"bf\000"
 1521 021b 01       		.byte	0x1
 1522 021c 87       		.byte	0x87
 1523 021d 3A040000 		.4byte	0x43a
 1524 0221 02       		.uleb128 0x2
 1525 0222 91       		.byte	0x91
 1526 0223 4C       		.sleb128 -52
 1527 0224 18       		.uleb128 0x18
 1528 0225 636800   		.ascii	"ch\000"
 1529 0228 01       		.byte	0x1
 1530 0229 89       		.byte	0x89
 1531 022a 75000000 		.4byte	0x75
 1532 022e 3A030000 		.4byte	.LLST26
 1533 0232 19       		.uleb128 0x19
 1534 0233 1C020000 		.4byte	.LASF28
 1535 0237 01       		.byte	0x1
 1536 0238 D0       		.byte	0xd0
 1537 0239 E6000000 		.4byte	.L71
 1538 023d 1A       		.uleb128 0x1a
 1539 023e 40000000 		.4byte	.Ldebug_ranges0+0x40
ARM GAS  /var/folders/t8/16hdwfmd2fg_d3q6dgx6bpmw0000gn/T//cchN4XO4.s 			page 28


 1540 0242 2D040000 		.4byte	0x42d
 1541 0246 18       		.uleb128 0x18
 1542 0247 6C7A00   		.ascii	"lz\000"
 1543 024a 01       		.byte	0x1
 1544 024b 90       		.byte	0x90
 1545 024c 75000000 		.4byte	0x75
 1546 0250 53040000 		.4byte	.LLST27
 1547 0254 18       		.uleb128 0x18
 1548 0255 6C6E6700 		.ascii	"lng\000"
 1549 0259 01       		.byte	0x1
 1550 025a 92       		.byte	0x92
 1551 025b 75000000 		.4byte	0x75
 1552 025f 95040000 		.4byte	.LLST28
 1553 0263 18       		.uleb128 0x18
 1554 0264 7700     		.ascii	"w\000"
 1555 0266 01       		.byte	0x1
 1556 0267 94       		.byte	0x94
 1557 0268 51040000 		.4byte	0x451
 1558 026c 21050000 		.4byte	.LLST29
 1559 0270 1B       		.uleb128 0x1b
 1560 0271 81050000 		.4byte	0x581
 1561 0275 0C000000 		.4byte	.LBB29
 1562 0279 60000000 		.4byte	.Ldebug_ranges0+0x60
 1563 027d 01       		.byte	0x1
 1564 027e B6       		.byte	0xb6
 1565 027f AA020000 		.4byte	0x2aa
 1566 0283 11       		.uleb128 0x11
 1567 0284 98050000 		.4byte	0x598
 1568 0288 57050000 		.4byte	.LLST30
 1569 028c 11       		.uleb128 0x11
 1570 028d 8D050000 		.4byte	0x58d
 1571 0291 91050000 		.4byte	.LLST31
 1572 0295 12       		.uleb128 0x12
 1573 0296 62010000 		.4byte	.LVL130
 1574 029a A3050000 		.4byte	0x5a3
 1575 029e 13       		.uleb128 0x13
 1576 029f 01       		.uleb128 0x1
 1577 02a0 51       		.byte	0x51
 1578 02a1 01       		.uleb128 0x1
 1579 02a2 3A       		.byte	0x3a
 1580 02a3 13       		.uleb128 0x13
 1581 02a4 01       		.uleb128 0x1
 1582 02a5 52       		.byte	0x52
 1583 02a6 01       		.uleb128 0x1
 1584 02a7 30       		.byte	0x30
 1585 02a8 00       		.byte	0
 1586 02a9 00       		.byte	0
 1587 02aa 10       		.uleb128 0x10
 1588 02ab FF040000 		.4byte	0x4ff
 1589 02af B8000000 		.4byte	.LBB37
 1590 02b3 2E000000 		.4byte	.LBE37-.LBB37
 1591 02b7 01       		.byte	0x1
 1592 02b8 9B       		.byte	0x9b
 1593 02b9 10030000 		.4byte	0x310
 1594 02bd 1C       		.uleb128 0x1c
 1595 02be 24050000 		.4byte	0x524
 1596 02c2 1C       		.uleb128 0x1c
ARM GAS  /var/folders/t8/16hdwfmd2fg_d3q6dgx6bpmw0000gn/T//cchN4XO4.s 			page 29


 1597 02c3 2F050000 		.4byte	0x52f
 1598 02c7 1C       		.uleb128 0x1c
 1599 02c8 19050000 		.4byte	0x519
 1600 02cc 11       		.uleb128 0x11
 1601 02cd 0F050000 		.4byte	0x50f
 1602 02d1 AF050000 		.4byte	.LLST32
 1603 02d5 1D       		.uleb128 0x1d
 1604 02d6 B8000000 		.4byte	.LBB38
 1605 02da 2E000000 		.4byte	.LBE38-.LBB38
 1606 02de 1E       		.uleb128 0x1e
 1607 02df 3A050000 		.4byte	0x53a
 1608 02e3 D8050000 		.4byte	.LLST33
 1609 02e7 1E       		.uleb128 0x1e
 1610 02e8 43050000 		.4byte	0x543
 1611 02ec 0E060000 		.4byte	.LLST34
 1612 02f0 1F       		.uleb128 0x1f
 1613 02f1 4E050000 		.4byte	0x54e
 1614 02f5 20       		.uleb128 0x20
 1615 02f6 66050000 		.4byte	0x566
 1616 02fa C8000000 		.4byte	.LBB39
 1617 02fe 1A000000 		.4byte	.LBE39-.LBB39
 1618 0302 01       		.byte	0x1
 1619 0303 6E       		.byte	0x6e
 1620 0304 11       		.uleb128 0x11
 1621 0305 76050000 		.4byte	0x576
 1622 0309 37060000 		.4byte	.LLST35
 1623 030d 00       		.byte	0
 1624 030e 00       		.byte	0
 1625 030f 00       		.byte	0
 1626 0310 1B       		.uleb128 0x1b
 1627 0311 22060000 		.4byte	0x622
 1628 0315 F8010000 		.4byte	.LBB45
 1629 0319 98000000 		.4byte	.Ldebug_ranges0+0x98
 1630 031d 01       		.byte	0x1
 1631 031e B3       		.byte	0xb3
 1632 031f 4A030000 		.4byte	0x34a
 1633 0323 11       		.uleb128 0x11
 1634 0324 39060000 		.4byte	0x639
 1635 0328 4A060000 		.4byte	.LLST36
 1636 032c 11       		.uleb128 0x11
 1637 032d 2E060000 		.4byte	0x62e
 1638 0331 84060000 		.4byte	.LLST37
 1639 0335 12       		.uleb128 0x12
 1640 0336 06020000 		.4byte	.LVL164
 1641 033a 4B060000 		.4byte	0x64b
 1642 033e 13       		.uleb128 0x13
 1643 033f 01       		.uleb128 0x1
 1644 0340 51       		.byte	0x51
 1645 0341 01       		.uleb128 0x1
 1646 0342 3A       		.byte	0x3a
 1647 0343 13       		.uleb128 0x13
 1648 0344 01       		.uleb128 0x1
 1649 0345 52       		.byte	0x52
 1650 0346 01       		.uleb128 0x1
 1651 0347 30       		.byte	0x30
 1652 0348 00       		.byte	0
 1653 0349 00       		.byte	0
ARM GAS  /var/folders/t8/16hdwfmd2fg_d3q6dgx6bpmw0000gn/T//cchN4XO4.s 			page 30


 1654 034a 21       		.uleb128 0x21
 1655 034b 86000000 		.4byte	.LVL98
 1656 034f A3050000 		.4byte	0x5a3
 1657 0353 68030000 		.4byte	0x368
 1658 0357 13       		.uleb128 0x13
 1659 0358 01       		.uleb128 0x1
 1660 0359 51       		.byte	0x51
 1661 035a 01       		.uleb128 0x1
 1662 035b 3A       		.byte	0x3a
 1663 035c 13       		.uleb128 0x13
 1664 035d 01       		.uleb128 0x1
 1665 035e 52       		.byte	0x52
 1666 035f 01       		.uleb128 0x1
 1667 0360 30       		.byte	0x30
 1668 0361 13       		.uleb128 0x13
 1669 0362 01       		.uleb128 0x1
 1670 0363 53       		.byte	0x53
 1671 0364 02       		.uleb128 0x2
 1672 0365 91       		.byte	0x91
 1673 0366 4C       		.sleb128 -52
 1674 0367 00       		.byte	0
 1675 0368 21       		.uleb128 0x21
 1676 0369 9C000000 		.4byte	.LVL100
 1677 036d 58040000 		.4byte	0x458
 1678 0371 95030000 		.4byte	0x395
 1679 0375 13       		.uleb128 0x13
 1680 0376 01       		.uleb128 0x1
 1681 0377 50       		.byte	0x50
 1682 0378 02       		.uleb128 0x2
 1683 0379 76       		.byte	0x76
 1684 037a 00       		.sleb128 0
 1685 037b 13       		.uleb128 0x13
 1686 037c 01       		.uleb128 0x1
 1687 037d 51       		.byte	0x51
 1688 037e 02       		.uleb128 0x2
 1689 037f 75       		.byte	0x75
 1690 0380 00       		.sleb128 0
 1691 0381 13       		.uleb128 0x13
 1692 0382 01       		.uleb128 0x1
 1693 0383 52       		.byte	0x52
 1694 0384 02       		.uleb128 0x2
 1695 0385 77       		.byte	0x77
 1696 0386 00       		.sleb128 0
 1697 0387 13       		.uleb128 0x13
 1698 0388 01       		.uleb128 0x1
 1699 0389 53       		.byte	0x53
 1700 038a 02       		.uleb128 0x2
 1701 038b 7A       		.byte	0x7a
 1702 038c 00       		.sleb128 0
 1703 038d 13       		.uleb128 0x13
 1704 038e 02       		.uleb128 0x2
 1705 038f 7D       		.byte	0x7d
 1706 0390 00       		.sleb128 0
 1707 0391 02       		.uleb128 0x2
 1708 0392 91       		.byte	0x91
 1709 0393 4C       		.sleb128 -52
 1710 0394 00       		.byte	0
ARM GAS  /var/folders/t8/16hdwfmd2fg_d3q6dgx6bpmw0000gn/T//cchN4XO4.s 			page 31


 1711 0395 21       		.uleb128 0x21
 1712 0396 1E010000 		.4byte	.LVL121
 1713 039a 4B060000 		.4byte	0x64b
 1714 039e AE030000 		.4byte	0x3ae
 1715 03a2 13       		.uleb128 0x13
 1716 03a3 01       		.uleb128 0x1
 1717 03a4 51       		.byte	0x51
 1718 03a5 01       		.uleb128 0x1
 1719 03a6 40       		.byte	0x40
 1720 03a7 13       		.uleb128 0x13
 1721 03a8 01       		.uleb128 0x1
 1722 03a9 53       		.byte	0x53
 1723 03aa 02       		.uleb128 0x2
 1724 03ab 91       		.byte	0x91
 1725 03ac 4C       		.sleb128 -52
 1726 03ad 00       		.byte	0
 1727 03ae 22       		.uleb128 0x22
 1728 03af 72010000 		.4byte	.LVL134
 1729 03b3 BE030000 		.4byte	0x3be
 1730 03b7 13       		.uleb128 0x13
 1731 03b8 01       		.uleb128 0x1
 1732 03b9 50       		.byte	0x50
 1733 03ba 02       		.uleb128 0x2
 1734 03bb 76       		.byte	0x76
 1735 03bc 00       		.sleb128 0
 1736 03bd 00       		.byte	0
 1737 03be 22       		.uleb128 0x22
 1738 03bf 7E010000 		.4byte	.LVL138
 1739 03c3 D4030000 		.4byte	0x3d4
 1740 03c7 13       		.uleb128 0x13
 1741 03c8 01       		.uleb128 0x1
 1742 03c9 50       		.byte	0x50
 1743 03ca 02       		.uleb128 0x2
 1744 03cb 76       		.byte	0x76
 1745 03cc 00       		.sleb128 0
 1746 03cd 13       		.uleb128 0x13
 1747 03ce 01       		.uleb128 0x1
 1748 03cf 51       		.byte	0x51
 1749 03d0 02       		.uleb128 0x2
 1750 03d1 08       		.byte	0x8
 1751 03d2 25       		.byte	0x25
 1752 03d3 00       		.byte	0
 1753 03d4 21       		.uleb128 0x21
 1754 03d5 96010000 		.4byte	.LVL143
 1755 03d9 4B060000 		.4byte	0x64b
 1756 03dd F2030000 		.4byte	0x3f2
 1757 03e1 13       		.uleb128 0x13
 1758 03e2 01       		.uleb128 0x1
 1759 03e3 51       		.byte	0x51
 1760 03e4 01       		.uleb128 0x1
 1761 03e5 3A       		.byte	0x3a
 1762 03e6 13       		.uleb128 0x13
 1763 03e7 01       		.uleb128 0x1
 1764 03e8 52       		.byte	0x52
 1765 03e9 01       		.uleb128 0x1
 1766 03ea 30       		.byte	0x30
 1767 03eb 13       		.uleb128 0x13
ARM GAS  /var/folders/t8/16hdwfmd2fg_d3q6dgx6bpmw0000gn/T//cchN4XO4.s 			page 32


 1768 03ec 01       		.uleb128 0x1
 1769 03ed 53       		.byte	0x53
 1770 03ee 02       		.uleb128 0x2
 1771 03ef 91       		.byte	0x91
 1772 03f0 4C       		.sleb128 -52
 1773 03f1 00       		.byte	0
 1774 03f2 21       		.uleb128 0x21
 1775 03f3 B2010000 		.4byte	.LVL147
 1776 03f7 58040000 		.4byte	0x458
 1777 03fb 17040000 		.4byte	0x417
 1778 03ff 13       		.uleb128 0x13
 1779 0400 01       		.uleb128 0x1
 1780 0401 50       		.byte	0x50
 1781 0402 02       		.uleb128 0x2
 1782 0403 76       		.byte	0x76
 1783 0404 00       		.sleb128 0
 1784 0405 13       		.uleb128 0x13
 1785 0406 01       		.uleb128 0x1
 1786 0407 51       		.byte	0x51
 1787 0408 02       		.uleb128 0x2
 1788 0409 75       		.byte	0x75
 1789 040a 00       		.sleb128 0
 1790 040b 13       		.uleb128 0x13
 1791 040c 01       		.uleb128 0x1
 1792 040d 52       		.byte	0x52
 1793 040e 02       		.uleb128 0x2
 1794 040f 77       		.byte	0x77
 1795 0410 00       		.sleb128 0
 1796 0411 13       		.uleb128 0x13
 1797 0412 01       		.uleb128 0x1
 1798 0413 53       		.byte	0x53
 1799 0414 01       		.uleb128 0x1
 1800 0415 30       		.byte	0x30
 1801 0416 00       		.byte	0
 1802 0417 12       		.uleb128 0x12
 1803 0418 D2010000 		.4byte	.LVL152
 1804 041c A3050000 		.4byte	0x5a3
 1805 0420 13       		.uleb128 0x13
 1806 0421 01       		.uleb128 0x1
 1807 0422 51       		.byte	0x51
 1808 0423 01       		.uleb128 0x1
 1809 0424 40       		.byte	0x40
 1810 0425 13       		.uleb128 0x13
 1811 0426 01       		.uleb128 0x1
 1812 0427 53       		.byte	0x53
 1813 0428 02       		.uleb128 0x2
 1814 0429 91       		.byte	0x91
 1815 042a 4C       		.sleb128 -52
 1816 042b 00       		.byte	0
 1817 042c 00       		.byte	0
 1818 042d 23       		.uleb128 0x23
 1819 042e 24000000 		.4byte	.LVL82
 1820 0432 13       		.uleb128 0x13
 1821 0433 01       		.uleb128 0x1
 1822 0434 50       		.byte	0x50
 1823 0435 02       		.uleb128 0x2
 1824 0436 76       		.byte	0x76
ARM GAS  /var/folders/t8/16hdwfmd2fg_d3q6dgx6bpmw0000gn/T//cchN4XO4.s 			page 33


 1825 0437 00       		.sleb128 0
 1826 0438 00       		.byte	0
 1827 0439 00       		.byte	0
 1828 043a 24       		.uleb128 0x24
 1829 043b 75000000 		.4byte	0x75
 1830 043f 4A040000 		.4byte	0x44a
 1831 0443 25       		.uleb128 0x25
 1832 0444 4A040000 		.4byte	0x44a
 1833 0448 0B       		.byte	0xb
 1834 0449 00       		.byte	0
 1835 044a 09       		.uleb128 0x9
 1836 044b 04       		.byte	0x4
 1837 044c 07       		.byte	0x7
 1838 044d C9010000 		.4byte	.LASF12
 1839 0451 26       		.uleb128 0x26
 1840 0452 04       		.byte	0x4
 1841 0453 05       		.byte	0x5
 1842 0454 696E7400 		.ascii	"int\000"
 1843 0458 27       		.uleb128 0x27
 1844 0459 10020000 		.4byte	.LASF17
 1845 045d 01       		.byte	0x1
 1846 045e 78       		.byte	0x78
 1847 045f 00000000 		.4byte	.LFB6
 1848 0463 7A000000 		.4byte	.LFE6-.LFB6
 1849 0467 01       		.uleb128 0x1
 1850 0468 9C       		.byte	0x9c
 1851 0469 FF040000 		.4byte	0x4ff
 1852 046d 17       		.uleb128 0x17
 1853 046e 17020000 		.4byte	.LASF8
 1854 0472 01       		.byte	0x1
 1855 0473 78       		.byte	0x78
 1856 0474 47000000 		.4byte	0x47
 1857 0478 A2060000 		.4byte	.LLST14
 1858 047c 17       		.uleb128 0x17
 1859 047d 0B020000 		.4byte	.LASF9
 1860 0481 01       		.byte	0x1
 1861 0482 78       		.byte	0x78
 1862 0483 54000000 		.4byte	0x54
 1863 0487 D9060000 		.4byte	.LLST15
 1864 048b 0C       		.uleb128 0xc
 1865 048c 6E00     		.ascii	"n\000"
 1866 048e 01       		.byte	0x1
 1867 048f 78       		.byte	0x78
 1868 0490 51040000 		.4byte	0x451
 1869 0494 10070000 		.4byte	.LLST16
 1870 0498 0C       		.uleb128 0xc
 1871 0499 7A00     		.ascii	"z\000"
 1872 049b 01       		.byte	0x1
 1873 049c 78       		.byte	0x78
 1874 049d 75000000 		.4byte	0x75
 1875 04a1 8A070000 		.4byte	.LLST17
 1876 04a5 0C       		.uleb128 0xc
 1877 04a6 626600   		.ascii	"bf\000"
 1878 04a9 01       		.byte	0x1
 1879 04aa 78       		.byte	0x78
 1880 04ab 29010000 		.4byte	0x129
 1881 04af AB070000 		.4byte	.LLST18
ARM GAS  /var/folders/t8/16hdwfmd2fg_d3q6dgx6bpmw0000gn/T//cchN4XO4.s 			page 34


 1882 04b3 18       		.uleb128 0x18
 1883 04b4 666300   		.ascii	"fc\000"
 1884 04b7 01       		.byte	0x1
 1885 04b8 7A       		.byte	0x7a
 1886 04b9 75000000 		.4byte	0x75
 1887 04bd EE070000 		.4byte	.LLST19
 1888 04c1 18       		.uleb128 0x18
 1889 04c2 636800   		.ascii	"ch\000"
 1890 04c5 01       		.byte	0x1
 1891 04c6 7B       		.byte	0x7b
 1892 04c7 75000000 		.4byte	0x75
 1893 04cb 0C080000 		.4byte	.LLST20
 1894 04cf 18       		.uleb128 0x18
 1895 04d0 7000     		.ascii	"p\000"
 1896 04d2 01       		.byte	0x1
 1897 04d3 7C       		.byte	0x7c
 1898 04d4 29010000 		.4byte	0x129
 1899 04d8 35080000 		.4byte	.LLST21
 1900 04dc 22       		.uleb128 0x22
 1901 04dd 4E000000 		.4byte	.LVL63
 1902 04e1 F2040000 		.4byte	0x4f2
 1903 04e5 13       		.uleb128 0x13
 1904 04e6 01       		.uleb128 0x1
 1905 04e7 50       		.byte	0x50
 1906 04e8 02       		.uleb128 0x2
 1907 04e9 77       		.byte	0x77
 1908 04ea 00       		.sleb128 0
 1909 04eb 13       		.uleb128 0x13
 1910 04ec 01       		.uleb128 0x1
 1911 04ed 51       		.byte	0x51
 1912 04ee 02       		.uleb128 0x2
 1913 04ef 75       		.byte	0x75
 1914 04f0 00       		.sleb128 0
 1915 04f1 00       		.byte	0
 1916 04f2 23       		.uleb128 0x23
 1917 04f3 64000000 		.4byte	.LVL69
 1918 04f7 13       		.uleb128 0x13
 1919 04f8 01       		.uleb128 0x1
 1920 04f9 50       		.byte	0x50
 1921 04fa 02       		.uleb128 0x2
 1922 04fb 77       		.byte	0x77
 1923 04fc 00       		.sleb128 0
 1924 04fd 00       		.byte	0
 1925 04fe 00       		.byte	0
 1926 04ff 28       		.uleb128 0x28
 1927 0500 61326900 		.ascii	"a2i\000"
 1928 0504 01       		.byte	0x1
 1929 0505 69       		.byte	0x69
 1930 0506 75000000 		.4byte	0x75
 1931 050a 01       		.byte	0x1
 1932 050b 5A050000 		.4byte	0x55a
 1933 050f 15       		.uleb128 0x15
 1934 0510 636800   		.ascii	"ch\000"
 1935 0513 01       		.byte	0x1
 1936 0514 69       		.byte	0x69
 1937 0515 75000000 		.4byte	0x75
 1938 0519 15       		.uleb128 0x15
ARM GAS  /var/folders/t8/16hdwfmd2fg_d3q6dgx6bpmw0000gn/T//cchN4XO4.s 			page 35


 1939 051a 73726300 		.ascii	"src\000"
 1940 051e 01       		.byte	0x1
 1941 051f 69       		.byte	0x69
 1942 0520 5A050000 		.4byte	0x55a
 1943 0524 29       		.uleb128 0x29
 1944 0525 A3000000 		.4byte	.LASF13
 1945 0529 01       		.byte	0x1
 1946 052a 69       		.byte	0x69
 1947 052b 51040000 		.4byte	0x451
 1948 052f 29       		.uleb128 0x29
 1949 0530 00020000 		.4byte	.LASF14
 1950 0534 01       		.byte	0x1
 1951 0535 69       		.byte	0x69
 1952 0536 60050000 		.4byte	0x560
 1953 053a 2A       		.uleb128 0x2a
 1954 053b 7000     		.ascii	"p\000"
 1955 053d 01       		.byte	0x1
 1956 053e 6B       		.byte	0x6b
 1957 053f 29010000 		.4byte	0x129
 1958 0543 2A       		.uleb128 0x2a
 1959 0544 6E756D00 		.ascii	"num\000"
 1960 0548 01       		.byte	0x1
 1961 0549 6C       		.byte	0x6c
 1962 054a 51040000 		.4byte	0x451
 1963 054e 2B       		.uleb128 0x2b
 1964 054f D6010000 		.4byte	.LASF15
 1965 0553 01       		.byte	0x1
 1966 0554 6D       		.byte	0x6d
 1967 0555 51040000 		.4byte	0x451
 1968 0559 00       		.byte	0
 1969 055a 06       		.uleb128 0x6
 1970 055b 04       		.byte	0x4
 1971 055c 29010000 		.4byte	0x129
 1972 0560 06       		.uleb128 0x6
 1973 0561 04       		.byte	0x4
 1974 0562 51040000 		.4byte	0x451
 1975 0566 28       		.uleb128 0x28
 1976 0567 61326400 		.ascii	"a2d\000"
 1977 056b 01       		.byte	0x1
 1978 056c 5E       		.byte	0x5e
 1979 056d 51040000 		.4byte	0x451
 1980 0571 01       		.byte	0x1
 1981 0572 81050000 		.4byte	0x581
 1982 0576 15       		.uleb128 0x15
 1983 0577 636800   		.ascii	"ch\000"
 1984 057a 01       		.byte	0x1
 1985 057b 5E       		.byte	0x5e
 1986 057c 75000000 		.4byte	0x75
 1987 0580 00       		.byte	0
 1988 0581 2C       		.uleb128 0x2c
 1989 0582 69326100 		.ascii	"i2a\000"
 1990 0586 01       		.byte	0x1
 1991 0587 55       		.byte	0x55
 1992 0588 01       		.byte	0x1
 1993 0589 A3050000 		.4byte	0x5a3
 1994 058d 15       		.uleb128 0x15
 1995 058e 6E756D00 		.ascii	"num\000"
ARM GAS  /var/folders/t8/16hdwfmd2fg_d3q6dgx6bpmw0000gn/T//cchN4XO4.s 			page 36


 1996 0592 01       		.byte	0x1
 1997 0593 55       		.byte	0x55
 1998 0594 51040000 		.4byte	0x451
 1999 0598 15       		.uleb128 0x15
 2000 0599 626600   		.ascii	"bf\000"
 2001 059c 01       		.byte	0x1
 2002 059d 55       		.byte	0x55
 2003 059e 29010000 		.4byte	0x129
 2004 05a2 00       		.byte	0
 2005 05a3 2D       		.uleb128 0x2d
 2006 05a4 FB010000 		.4byte	.LASF18
 2007 05a8 01       		.byte	0x1
 2008 05a9 43       		.byte	0x43
 2009 05aa 00000000 		.4byte	.LFB2
 2010 05ae A8000000 		.4byte	.LFE2-.LFB2
 2011 05b2 01       		.uleb128 0x1
 2012 05b3 9C       		.byte	0x9c
 2013 05b4 22060000 		.4byte	0x622
 2014 05b8 0C       		.uleb128 0xc
 2015 05b9 6E756D00 		.ascii	"num\000"
 2016 05bd 01       		.byte	0x1
 2017 05be 43       		.byte	0x43
 2018 05bf 4A040000 		.4byte	0x44a
 2019 05c3 78080000 		.4byte	.LLST7
 2020 05c7 17       		.uleb128 0x17
 2021 05c8 A3000000 		.4byte	.LASF13
 2022 05cc 01       		.byte	0x1
 2023 05cd 43       		.byte	0x43
 2024 05ce 4A040000 		.4byte	0x44a
 2025 05d2 B7080000 		.4byte	.LLST8
 2026 05d6 0C       		.uleb128 0xc
 2027 05d7 756300   		.ascii	"uc\000"
 2028 05da 01       		.byte	0x1
 2029 05db 43       		.byte	0x43
 2030 05dc 51040000 		.4byte	0x451
 2031 05e0 EE080000 		.4byte	.LLST9
 2032 05e4 0C       		.uleb128 0xc
 2033 05e5 626600   		.ascii	"bf\000"
 2034 05e8 01       		.byte	0x1
 2035 05e9 43       		.byte	0x43
 2036 05ea 29010000 		.4byte	0x129
 2037 05ee 33090000 		.4byte	.LLST10
 2038 05f2 18       		.uleb128 0x18
 2039 05f3 6E00     		.ascii	"n\000"
 2040 05f5 01       		.byte	0x1
 2041 05f6 45       		.byte	0x45
 2042 05f7 51040000 		.4byte	0x451
 2043 05fb 9E090000 		.4byte	.LLST11
 2044 05ff 18       		.uleb128 0x18
 2045 0600 6400     		.ascii	"d\000"
 2046 0602 01       		.byte	0x1
 2047 0603 46       		.byte	0x46
 2048 0604 4A040000 		.4byte	0x44a
 2049 0608 F8090000 		.4byte	.LLST12
 2050 060c 2E       		.uleb128 0x2e
 2051 060d 20000000 		.4byte	.Ldebug_ranges0+0x20
 2052 0611 18       		.uleb128 0x18
ARM GAS  /var/folders/t8/16hdwfmd2fg_d3q6dgx6bpmw0000gn/T//cchN4XO4.s 			page 37


 2053 0612 64677400 		.ascii	"dgt\000"
 2054 0616 01       		.byte	0x1
 2055 0617 4A       		.byte	0x4a
 2056 0618 51040000 		.4byte	0x451
 2057 061c 320A0000 		.4byte	.LLST13
 2058 0620 00       		.byte	0
 2059 0621 00       		.byte	0
 2060 0622 14       		.uleb128 0x14
 2061 0623 22020000 		.4byte	.LASF19
 2062 0627 01       		.byte	0x1
 2063 0628 38       		.byte	0x38
 2064 0629 01       		.byte	0x1
 2065 062a 44060000 		.4byte	0x644
 2066 062e 15       		.uleb128 0x15
 2067 062f 6E756D00 		.ascii	"num\000"
 2068 0633 01       		.byte	0x1
 2069 0634 38       		.byte	0x38
 2070 0635 44060000 		.4byte	0x644
 2071 0639 15       		.uleb128 0x15
 2072 063a 626600   		.ascii	"bf\000"
 2073 063d 01       		.byte	0x1
 2074 063e 38       		.byte	0x38
 2075 063f 29010000 		.4byte	0x129
 2076 0643 00       		.byte	0
 2077 0644 09       		.uleb128 0x9
 2078 0645 04       		.byte	0x4
 2079 0646 05       		.byte	0x5
 2080 0647 33000000 		.4byte	.LASF20
 2081 064b 2D       		.uleb128 0x2d
 2082 064c 05020000 		.4byte	.LASF21
 2083 0650 01       		.byte	0x1
 2084 0651 26       		.byte	0x26
 2085 0652 00000000 		.4byte	.LFB0
 2086 0656 A8000000 		.4byte	.LFE0-.LFB0
 2087 065a 01       		.uleb128 0x1
 2088 065b 9C       		.byte	0x9c
 2089 065c CA060000 		.4byte	0x6ca
 2090 0660 0C       		.uleb128 0xc
 2091 0661 6E756D00 		.ascii	"num\000"
 2092 0665 01       		.byte	0x1
 2093 0666 26       		.byte	0x26
 2094 0667 CA060000 		.4byte	0x6ca
 2095 066b 680A0000 		.4byte	.LLST0
 2096 066f 17       		.uleb128 0x17
 2097 0670 A3000000 		.4byte	.LASF13
 2098 0674 01       		.byte	0x1
 2099 0675 26       		.byte	0x26
 2100 0676 4A040000 		.4byte	0x44a
 2101 067a A70A0000 		.4byte	.LLST1
 2102 067e 0C       		.uleb128 0xc
 2103 067f 756300   		.ascii	"uc\000"
 2104 0682 01       		.byte	0x1
 2105 0683 26       		.byte	0x26
 2106 0684 51040000 		.4byte	0x451
 2107 0688 DE0A0000 		.4byte	.LLST2
 2108 068c 0C       		.uleb128 0xc
 2109 068d 626600   		.ascii	"bf\000"
ARM GAS  /var/folders/t8/16hdwfmd2fg_d3q6dgx6bpmw0000gn/T//cchN4XO4.s 			page 38


 2110 0690 01       		.byte	0x1
 2111 0691 26       		.byte	0x26
 2112 0692 29010000 		.4byte	0x129
 2113 0696 230B0000 		.4byte	.LLST3
 2114 069a 18       		.uleb128 0x18
 2115 069b 6E00     		.ascii	"n\000"
 2116 069d 01       		.byte	0x1
 2117 069e 28       		.byte	0x28
 2118 069f 51040000 		.4byte	0x451
 2119 06a3 8E0B0000 		.4byte	.LLST4
 2120 06a7 18       		.uleb128 0x18
 2121 06a8 6400     		.ascii	"d\000"
 2122 06aa 01       		.byte	0x1
 2123 06ab 29       		.byte	0x29
 2124 06ac 4A040000 		.4byte	0x44a
 2125 06b0 E80B0000 		.4byte	.LLST5
 2126 06b4 2E       		.uleb128 0x2e
 2127 06b5 00000000 		.4byte	.Ldebug_ranges0+0
 2128 06b9 18       		.uleb128 0x18
 2129 06ba 64677400 		.ascii	"dgt\000"
 2130 06be 01       		.byte	0x1
 2131 06bf 2D       		.byte	0x2d
 2132 06c0 51040000 		.4byte	0x451
 2133 06c4 220C0000 		.4byte	.LLST6
 2134 06c8 00       		.byte	0
 2135 06c9 00       		.byte	0
 2136 06ca 09       		.uleb128 0x9
 2137 06cb 04       		.byte	0x4
 2138 06cc 07       		.byte	0x7
 2139 06cd C2000000 		.4byte	.LASF22
 2140 06d1 2F       		.uleb128 0x2f
 2141 06d2 2F010000 		.4byte	0x12f
 2142 06d6 00000000 		.4byte	.LFB10
 2143 06da 0A000000 		.4byte	.LFE10-.LFB10
 2144 06de 01       		.uleb128 0x1
 2145 06df 9C       		.byte	0x9c
 2146 06e0 30       		.uleb128 0x30
 2147 06e1 3B010000 		.4byte	0x13b
 2148 06e5 01       		.uleb128 0x1
 2149 06e6 50       		.byte	0x50
 2150 06e7 30       		.uleb128 0x30
 2151 06e8 44010000 		.4byte	0x144
 2152 06ec 01       		.uleb128 0x1
 2153 06ed 51       		.byte	0x51
 2154 06ee 00       		.byte	0
 2155 06ef 00       		.byte	0
 2156              		.section	.debug_abbrev,"",%progbits
 2157              	.Ldebug_abbrev0:
 2158 0000 01       		.uleb128 0x1
 2159 0001 11       		.uleb128 0x11
 2160 0002 01       		.byte	0x1
 2161 0003 25       		.uleb128 0x25
 2162 0004 0E       		.uleb128 0xe
 2163 0005 13       		.uleb128 0x13
 2164 0006 0B       		.uleb128 0xb
 2165 0007 03       		.uleb128 0x3
 2166 0008 0E       		.uleb128 0xe
ARM GAS  /var/folders/t8/16hdwfmd2fg_d3q6dgx6bpmw0000gn/T//cchN4XO4.s 			page 39


 2167 0009 1B       		.uleb128 0x1b
 2168 000a 0E       		.uleb128 0xe
 2169 000b 55       		.uleb128 0x55
 2170 000c 17       		.uleb128 0x17
 2171 000d 11       		.uleb128 0x11
 2172 000e 01       		.uleb128 0x1
 2173 000f 10       		.uleb128 0x10
 2174 0010 17       		.uleb128 0x17
 2175 0011 00       		.byte	0
 2176 0012 00       		.byte	0
 2177 0013 02       		.uleb128 0x2
 2178 0014 16       		.uleb128 0x16
 2179 0015 00       		.byte	0
 2180 0016 03       		.uleb128 0x3
 2181 0017 0E       		.uleb128 0xe
 2182 0018 3A       		.uleb128 0x3a
 2183 0019 0B       		.uleb128 0xb
 2184 001a 3B       		.uleb128 0x3b
 2185 001b 0B       		.uleb128 0xb
 2186 001c 49       		.uleb128 0x49
 2187 001d 13       		.uleb128 0x13
 2188 001e 00       		.byte	0
 2189 001f 00       		.byte	0
 2190 0020 03       		.uleb128 0x3
 2191 0021 13       		.uleb128 0x13
 2192 0022 01       		.byte	0x1
 2193 0023 03       		.uleb128 0x3
 2194 0024 0E       		.uleb128 0xe
 2195 0025 0B       		.uleb128 0xb
 2196 0026 0B       		.uleb128 0xb
 2197 0027 3A       		.uleb128 0x3a
 2198 0028 0B       		.uleb128 0xb
 2199 0029 3B       		.uleb128 0x3b
 2200 002a 0B       		.uleb128 0xb
 2201 002b 01       		.uleb128 0x1
 2202 002c 13       		.uleb128 0x13
 2203 002d 00       		.byte	0
 2204 002e 00       		.byte	0
 2205 002f 04       		.uleb128 0x4
 2206 0030 0D       		.uleb128 0xd
 2207 0031 00       		.byte	0
 2208 0032 03       		.uleb128 0x3
 2209 0033 0E       		.uleb128 0xe
 2210 0034 49       		.uleb128 0x49
 2211 0035 13       		.uleb128 0x13
 2212 0036 38       		.uleb128 0x38
 2213 0037 0B       		.uleb128 0xb
 2214 0038 34       		.uleb128 0x34
 2215 0039 19       		.uleb128 0x19
 2216 003a 00       		.byte	0
 2217 003b 00       		.byte	0
 2218 003c 05       		.uleb128 0x5
 2219 003d 0F       		.uleb128 0xf
 2220 003e 00       		.byte	0
 2221 003f 0B       		.uleb128 0xb
 2222 0040 0B       		.uleb128 0xb
 2223 0041 00       		.byte	0
ARM GAS  /var/folders/t8/16hdwfmd2fg_d3q6dgx6bpmw0000gn/T//cchN4XO4.s 			page 40


 2224 0042 00       		.byte	0
 2225 0043 06       		.uleb128 0x6
 2226 0044 0F       		.uleb128 0xf
 2227 0045 00       		.byte	0
 2228 0046 0B       		.uleb128 0xb
 2229 0047 0B       		.uleb128 0xb
 2230 0048 49       		.uleb128 0x49
 2231 0049 13       		.uleb128 0x13
 2232 004a 00       		.byte	0
 2233 004b 00       		.byte	0
 2234 004c 07       		.uleb128 0x7
 2235 004d 15       		.uleb128 0x15
 2236 004e 01       		.byte	0x1
 2237 004f 27       		.uleb128 0x27
 2238 0050 19       		.uleb128 0x19
 2239 0051 01       		.uleb128 0x1
 2240 0052 13       		.uleb128 0x13
 2241 0053 00       		.byte	0
 2242 0054 00       		.byte	0
 2243 0055 08       		.uleb128 0x8
 2244 0056 05       		.uleb128 0x5
 2245 0057 00       		.byte	0
 2246 0058 49       		.uleb128 0x49
 2247 0059 13       		.uleb128 0x13
 2248 005a 00       		.byte	0
 2249 005b 00       		.byte	0
 2250 005c 09       		.uleb128 0x9
 2251 005d 24       		.uleb128 0x24
 2252 005e 00       		.byte	0
 2253 005f 0B       		.uleb128 0xb
 2254 0060 0B       		.uleb128 0xb
 2255 0061 3E       		.uleb128 0x3e
 2256 0062 0B       		.uleb128 0xb
 2257 0063 03       		.uleb128 0x3
 2258 0064 0E       		.uleb128 0xe
 2259 0065 00       		.byte	0
 2260 0066 00       		.byte	0
 2261 0067 0A       		.uleb128 0xa
 2262 0068 34       		.uleb128 0x34
 2263 0069 00       		.byte	0
 2264 006a 03       		.uleb128 0x3
 2265 006b 0E       		.uleb128 0xe
 2266 006c 3A       		.uleb128 0x3a
 2267 006d 0B       		.uleb128 0xb
 2268 006e 3B       		.uleb128 0x3b
 2269 006f 0B       		.uleb128 0xb
 2270 0070 49       		.uleb128 0x49
 2271 0071 13       		.uleb128 0x13
 2272 0072 02       		.uleb128 0x2
 2273 0073 18       		.uleb128 0x18
 2274 0074 00       		.byte	0
 2275 0075 00       		.byte	0
 2276 0076 0B       		.uleb128 0xb
 2277 0077 2E       		.uleb128 0x2e
 2278 0078 01       		.byte	0x1
 2279 0079 3F       		.uleb128 0x3f
 2280 007a 19       		.uleb128 0x19
ARM GAS  /var/folders/t8/16hdwfmd2fg_d3q6dgx6bpmw0000gn/T//cchN4XO4.s 			page 41


 2281 007b 03       		.uleb128 0x3
 2282 007c 0E       		.uleb128 0xe
 2283 007d 3A       		.uleb128 0x3a
 2284 007e 0B       		.uleb128 0xb
 2285 007f 3B       		.uleb128 0x3b
 2286 0080 0B       		.uleb128 0xb
 2287 0081 27       		.uleb128 0x27
 2288 0082 19       		.uleb128 0x19
 2289 0083 11       		.uleb128 0x11
 2290 0084 01       		.uleb128 0x1
 2291 0085 12       		.uleb128 0x12
 2292 0086 06       		.uleb128 0x6
 2293 0087 40       		.uleb128 0x40
 2294 0088 18       		.uleb128 0x18
 2295 0089 9742     		.uleb128 0x2117
 2296 008b 19       		.uleb128 0x19
 2297 008c 01       		.uleb128 0x1
 2298 008d 13       		.uleb128 0x13
 2299 008e 00       		.byte	0
 2300 008f 00       		.byte	0
 2301 0090 0C       		.uleb128 0xc
 2302 0091 05       		.uleb128 0x5
 2303 0092 00       		.byte	0
 2304 0093 03       		.uleb128 0x3
 2305 0094 08       		.uleb128 0x8
 2306 0095 3A       		.uleb128 0x3a
 2307 0096 0B       		.uleb128 0xb
 2308 0097 3B       		.uleb128 0x3b
 2309 0098 0B       		.uleb128 0xb
 2310 0099 49       		.uleb128 0x49
 2311 009a 13       		.uleb128 0x13
 2312 009b 02       		.uleb128 0x2
 2313 009c 17       		.uleb128 0x17
 2314 009d 00       		.byte	0
 2315 009e 00       		.byte	0
 2316 009f 0D       		.uleb128 0xd
 2317 00a0 05       		.uleb128 0x5
 2318 00a1 00       		.byte	0
 2319 00a2 03       		.uleb128 0x3
 2320 00a3 08       		.uleb128 0x8
 2321 00a4 3A       		.uleb128 0x3a
 2322 00a5 0B       		.uleb128 0xb
 2323 00a6 3B       		.uleb128 0x3b
 2324 00a7 0B       		.uleb128 0xb
 2325 00a8 49       		.uleb128 0x49
 2326 00a9 13       		.uleb128 0x13
 2327 00aa 02       		.uleb128 0x2
 2328 00ab 18       		.uleb128 0x18
 2329 00ac 00       		.byte	0
 2330 00ad 00       		.byte	0
 2331 00ae 0E       		.uleb128 0xe
 2332 00af 18       		.uleb128 0x18
 2333 00b0 00       		.byte	0
 2334 00b1 00       		.byte	0
 2335 00b2 00       		.byte	0
 2336 00b3 0F       		.uleb128 0xf
 2337 00b4 34       		.uleb128 0x34
ARM GAS  /var/folders/t8/16hdwfmd2fg_d3q6dgx6bpmw0000gn/T//cchN4XO4.s 			page 42


 2338 00b5 00       		.byte	0
 2339 00b6 03       		.uleb128 0x3
 2340 00b7 08       		.uleb128 0x8
 2341 00b8 3A       		.uleb128 0x3a
 2342 00b9 0B       		.uleb128 0xb
 2343 00ba 3B       		.uleb128 0x3b
 2344 00bb 0B       		.uleb128 0xb
 2345 00bc 49       		.uleb128 0x49
 2346 00bd 13       		.uleb128 0x13
 2347 00be 02       		.uleb128 0x2
 2348 00bf 18       		.uleb128 0x18
 2349 00c0 00       		.byte	0
 2350 00c1 00       		.byte	0
 2351 00c2 10       		.uleb128 0x10
 2352 00c3 1D       		.uleb128 0x1d
 2353 00c4 01       		.byte	0x1
 2354 00c5 31       		.uleb128 0x31
 2355 00c6 13       		.uleb128 0x13
 2356 00c7 11       		.uleb128 0x11
 2357 00c8 01       		.uleb128 0x1
 2358 00c9 12       		.uleb128 0x12
 2359 00ca 06       		.uleb128 0x6
 2360 00cb 58       		.uleb128 0x58
 2361 00cc 0B       		.uleb128 0xb
 2362 00cd 59       		.uleb128 0x59
 2363 00ce 0B       		.uleb128 0xb
 2364 00cf 01       		.uleb128 0x1
 2365 00d0 13       		.uleb128 0x13
 2366 00d1 00       		.byte	0
 2367 00d2 00       		.byte	0
 2368 00d3 11       		.uleb128 0x11
 2369 00d4 05       		.uleb128 0x5
 2370 00d5 00       		.byte	0
 2371 00d6 31       		.uleb128 0x31
 2372 00d7 13       		.uleb128 0x13
 2373 00d8 02       		.uleb128 0x2
 2374 00d9 17       		.uleb128 0x17
 2375 00da 00       		.byte	0
 2376 00db 00       		.byte	0
 2377 00dc 12       		.uleb128 0x12
 2378 00dd 898201   		.uleb128 0x4109
 2379 00e0 01       		.byte	0x1
 2380 00e1 11       		.uleb128 0x11
 2381 00e2 01       		.uleb128 0x1
 2382 00e3 31       		.uleb128 0x31
 2383 00e4 13       		.uleb128 0x13
 2384 00e5 00       		.byte	0
 2385 00e6 00       		.byte	0
 2386 00e7 13       		.uleb128 0x13
 2387 00e8 8A8201   		.uleb128 0x410a
 2388 00eb 00       		.byte	0
 2389 00ec 02       		.uleb128 0x2
 2390 00ed 18       		.uleb128 0x18
 2391 00ee 9142     		.uleb128 0x2111
 2392 00f0 18       		.uleb128 0x18
 2393 00f1 00       		.byte	0
 2394 00f2 00       		.byte	0
ARM GAS  /var/folders/t8/16hdwfmd2fg_d3q6dgx6bpmw0000gn/T//cchN4XO4.s 			page 43


 2395 00f3 14       		.uleb128 0x14
 2396 00f4 2E       		.uleb128 0x2e
 2397 00f5 01       		.byte	0x1
 2398 00f6 03       		.uleb128 0x3
 2399 00f7 0E       		.uleb128 0xe
 2400 00f8 3A       		.uleb128 0x3a
 2401 00f9 0B       		.uleb128 0xb
 2402 00fa 3B       		.uleb128 0x3b
 2403 00fb 0B       		.uleb128 0xb
 2404 00fc 27       		.uleb128 0x27
 2405 00fd 19       		.uleb128 0x19
 2406 00fe 20       		.uleb128 0x20
 2407 00ff 0B       		.uleb128 0xb
 2408 0100 01       		.uleb128 0x1
 2409 0101 13       		.uleb128 0x13
 2410 0102 00       		.byte	0
 2411 0103 00       		.byte	0
 2412 0104 15       		.uleb128 0x15
 2413 0105 05       		.uleb128 0x5
 2414 0106 00       		.byte	0
 2415 0107 03       		.uleb128 0x3
 2416 0108 08       		.uleb128 0x8
 2417 0109 3A       		.uleb128 0x3a
 2418 010a 0B       		.uleb128 0xb
 2419 010b 3B       		.uleb128 0x3b
 2420 010c 0B       		.uleb128 0xb
 2421 010d 49       		.uleb128 0x49
 2422 010e 13       		.uleb128 0x13
 2423 010f 00       		.byte	0
 2424 0110 00       		.byte	0
 2425 0111 16       		.uleb128 0x16
 2426 0112 05       		.uleb128 0x5
 2427 0113 00       		.byte	0
 2428 0114 03       		.uleb128 0x3
 2429 0115 0E       		.uleb128 0xe
 2430 0116 3A       		.uleb128 0x3a
 2431 0117 0B       		.uleb128 0xb
 2432 0118 3B       		.uleb128 0x3b
 2433 0119 0B       		.uleb128 0xb
 2434 011a 49       		.uleb128 0x49
 2435 011b 13       		.uleb128 0x13
 2436 011c 02       		.uleb128 0x2
 2437 011d 18       		.uleb128 0x18
 2438 011e 00       		.byte	0
 2439 011f 00       		.byte	0
 2440 0120 17       		.uleb128 0x17
 2441 0121 05       		.uleb128 0x5
 2442 0122 00       		.byte	0
 2443 0123 03       		.uleb128 0x3
 2444 0124 0E       		.uleb128 0xe
 2445 0125 3A       		.uleb128 0x3a
 2446 0126 0B       		.uleb128 0xb
 2447 0127 3B       		.uleb128 0x3b
 2448 0128 0B       		.uleb128 0xb
 2449 0129 49       		.uleb128 0x49
 2450 012a 13       		.uleb128 0x13
 2451 012b 02       		.uleb128 0x2
ARM GAS  /var/folders/t8/16hdwfmd2fg_d3q6dgx6bpmw0000gn/T//cchN4XO4.s 			page 44


 2452 012c 17       		.uleb128 0x17
 2453 012d 00       		.byte	0
 2454 012e 00       		.byte	0
 2455 012f 18       		.uleb128 0x18
 2456 0130 34       		.uleb128 0x34
 2457 0131 00       		.byte	0
 2458 0132 03       		.uleb128 0x3
 2459 0133 08       		.uleb128 0x8
 2460 0134 3A       		.uleb128 0x3a
 2461 0135 0B       		.uleb128 0xb
 2462 0136 3B       		.uleb128 0x3b
 2463 0137 0B       		.uleb128 0xb
 2464 0138 49       		.uleb128 0x49
 2465 0139 13       		.uleb128 0x13
 2466 013a 02       		.uleb128 0x2
 2467 013b 17       		.uleb128 0x17
 2468 013c 00       		.byte	0
 2469 013d 00       		.byte	0
 2470 013e 19       		.uleb128 0x19
 2471 013f 0A       		.uleb128 0xa
 2472 0140 00       		.byte	0
 2473 0141 03       		.uleb128 0x3
 2474 0142 0E       		.uleb128 0xe
 2475 0143 3A       		.uleb128 0x3a
 2476 0144 0B       		.uleb128 0xb
 2477 0145 3B       		.uleb128 0x3b
 2478 0146 0B       		.uleb128 0xb
 2479 0147 11       		.uleb128 0x11
 2480 0148 01       		.uleb128 0x1
 2481 0149 00       		.byte	0
 2482 014a 00       		.byte	0
 2483 014b 1A       		.uleb128 0x1a
 2484 014c 0B       		.uleb128 0xb
 2485 014d 01       		.byte	0x1
 2486 014e 55       		.uleb128 0x55
 2487 014f 17       		.uleb128 0x17
 2488 0150 01       		.uleb128 0x1
 2489 0151 13       		.uleb128 0x13
 2490 0152 00       		.byte	0
 2491 0153 00       		.byte	0
 2492 0154 1B       		.uleb128 0x1b
 2493 0155 1D       		.uleb128 0x1d
 2494 0156 01       		.byte	0x1
 2495 0157 31       		.uleb128 0x31
 2496 0158 13       		.uleb128 0x13
 2497 0159 52       		.uleb128 0x52
 2498 015a 01       		.uleb128 0x1
 2499 015b 55       		.uleb128 0x55
 2500 015c 17       		.uleb128 0x17
 2501 015d 58       		.uleb128 0x58
 2502 015e 0B       		.uleb128 0xb
 2503 015f 59       		.uleb128 0x59
 2504 0160 0B       		.uleb128 0xb
 2505 0161 01       		.uleb128 0x1
 2506 0162 13       		.uleb128 0x13
 2507 0163 00       		.byte	0
 2508 0164 00       		.byte	0
ARM GAS  /var/folders/t8/16hdwfmd2fg_d3q6dgx6bpmw0000gn/T//cchN4XO4.s 			page 45


 2509 0165 1C       		.uleb128 0x1c
 2510 0166 05       		.uleb128 0x5
 2511 0167 00       		.byte	0
 2512 0168 31       		.uleb128 0x31
 2513 0169 13       		.uleb128 0x13
 2514 016a 00       		.byte	0
 2515 016b 00       		.byte	0
 2516 016c 1D       		.uleb128 0x1d
 2517 016d 0B       		.uleb128 0xb
 2518 016e 01       		.byte	0x1
 2519 016f 11       		.uleb128 0x11
 2520 0170 01       		.uleb128 0x1
 2521 0171 12       		.uleb128 0x12
 2522 0172 06       		.uleb128 0x6
 2523 0173 00       		.byte	0
 2524 0174 00       		.byte	0
 2525 0175 1E       		.uleb128 0x1e
 2526 0176 34       		.uleb128 0x34
 2527 0177 00       		.byte	0
 2528 0178 31       		.uleb128 0x31
 2529 0179 13       		.uleb128 0x13
 2530 017a 02       		.uleb128 0x2
 2531 017b 17       		.uleb128 0x17
 2532 017c 00       		.byte	0
 2533 017d 00       		.byte	0
 2534 017e 1F       		.uleb128 0x1f
 2535 017f 34       		.uleb128 0x34
 2536 0180 00       		.byte	0
 2537 0181 31       		.uleb128 0x31
 2538 0182 13       		.uleb128 0x13
 2539 0183 00       		.byte	0
 2540 0184 00       		.byte	0
 2541 0185 20       		.uleb128 0x20
 2542 0186 1D       		.uleb128 0x1d
 2543 0187 01       		.byte	0x1
 2544 0188 31       		.uleb128 0x31
 2545 0189 13       		.uleb128 0x13
 2546 018a 11       		.uleb128 0x11
 2547 018b 01       		.uleb128 0x1
 2548 018c 12       		.uleb128 0x12
 2549 018d 06       		.uleb128 0x6
 2550 018e 58       		.uleb128 0x58
 2551 018f 0B       		.uleb128 0xb
 2552 0190 59       		.uleb128 0x59
 2553 0191 0B       		.uleb128 0xb
 2554 0192 00       		.byte	0
 2555 0193 00       		.byte	0
 2556 0194 21       		.uleb128 0x21
 2557 0195 898201   		.uleb128 0x4109
 2558 0198 01       		.byte	0x1
 2559 0199 11       		.uleb128 0x11
 2560 019a 01       		.uleb128 0x1
 2561 019b 31       		.uleb128 0x31
 2562 019c 13       		.uleb128 0x13
 2563 019d 01       		.uleb128 0x1
 2564 019e 13       		.uleb128 0x13
 2565 019f 00       		.byte	0
ARM GAS  /var/folders/t8/16hdwfmd2fg_d3q6dgx6bpmw0000gn/T//cchN4XO4.s 			page 46


 2566 01a0 00       		.byte	0
 2567 01a1 22       		.uleb128 0x22
 2568 01a2 898201   		.uleb128 0x4109
 2569 01a5 01       		.byte	0x1
 2570 01a6 11       		.uleb128 0x11
 2571 01a7 01       		.uleb128 0x1
 2572 01a8 01       		.uleb128 0x1
 2573 01a9 13       		.uleb128 0x13
 2574 01aa 00       		.byte	0
 2575 01ab 00       		.byte	0
 2576 01ac 23       		.uleb128 0x23
 2577 01ad 898201   		.uleb128 0x4109
 2578 01b0 01       		.byte	0x1
 2579 01b1 11       		.uleb128 0x11
 2580 01b2 01       		.uleb128 0x1
 2581 01b3 00       		.byte	0
 2582 01b4 00       		.byte	0
 2583 01b5 24       		.uleb128 0x24
 2584 01b6 01       		.uleb128 0x1
 2585 01b7 01       		.byte	0x1
 2586 01b8 49       		.uleb128 0x49
 2587 01b9 13       		.uleb128 0x13
 2588 01ba 01       		.uleb128 0x1
 2589 01bb 13       		.uleb128 0x13
 2590 01bc 00       		.byte	0
 2591 01bd 00       		.byte	0
 2592 01be 25       		.uleb128 0x25
 2593 01bf 21       		.uleb128 0x21
 2594 01c0 00       		.byte	0
 2595 01c1 49       		.uleb128 0x49
 2596 01c2 13       		.uleb128 0x13
 2597 01c3 2F       		.uleb128 0x2f
 2598 01c4 0B       		.uleb128 0xb
 2599 01c5 00       		.byte	0
 2600 01c6 00       		.byte	0
 2601 01c7 26       		.uleb128 0x26
 2602 01c8 24       		.uleb128 0x24
 2603 01c9 00       		.byte	0
 2604 01ca 0B       		.uleb128 0xb
 2605 01cb 0B       		.uleb128 0xb
 2606 01cc 3E       		.uleb128 0x3e
 2607 01cd 0B       		.uleb128 0xb
 2608 01ce 03       		.uleb128 0x3
 2609 01cf 08       		.uleb128 0x8
 2610 01d0 00       		.byte	0
 2611 01d1 00       		.byte	0
 2612 01d2 27       		.uleb128 0x27
 2613 01d3 2E       		.uleb128 0x2e
 2614 01d4 01       		.byte	0x1
 2615 01d5 03       		.uleb128 0x3
 2616 01d6 0E       		.uleb128 0xe
 2617 01d7 3A       		.uleb128 0x3a
 2618 01d8 0B       		.uleb128 0xb
 2619 01d9 3B       		.uleb128 0x3b
 2620 01da 0B       		.uleb128 0xb
 2621 01db 27       		.uleb128 0x27
 2622 01dc 19       		.uleb128 0x19
ARM GAS  /var/folders/t8/16hdwfmd2fg_d3q6dgx6bpmw0000gn/T//cchN4XO4.s 			page 47


 2623 01dd 11       		.uleb128 0x11
 2624 01de 01       		.uleb128 0x1
 2625 01df 12       		.uleb128 0x12
 2626 01e0 06       		.uleb128 0x6
 2627 01e1 40       		.uleb128 0x40
 2628 01e2 18       		.uleb128 0x18
 2629 01e3 9742     		.uleb128 0x2117
 2630 01e5 19       		.uleb128 0x19
 2631 01e6 01       		.uleb128 0x1
 2632 01e7 13       		.uleb128 0x13
 2633 01e8 00       		.byte	0
 2634 01e9 00       		.byte	0
 2635 01ea 28       		.uleb128 0x28
 2636 01eb 2E       		.uleb128 0x2e
 2637 01ec 01       		.byte	0x1
 2638 01ed 03       		.uleb128 0x3
 2639 01ee 08       		.uleb128 0x8
 2640 01ef 3A       		.uleb128 0x3a
 2641 01f0 0B       		.uleb128 0xb
 2642 01f1 3B       		.uleb128 0x3b
 2643 01f2 0B       		.uleb128 0xb
 2644 01f3 27       		.uleb128 0x27
 2645 01f4 19       		.uleb128 0x19
 2646 01f5 49       		.uleb128 0x49
 2647 01f6 13       		.uleb128 0x13
 2648 01f7 20       		.uleb128 0x20
 2649 01f8 0B       		.uleb128 0xb
 2650 01f9 01       		.uleb128 0x1
 2651 01fa 13       		.uleb128 0x13
 2652 01fb 00       		.byte	0
 2653 01fc 00       		.byte	0
 2654 01fd 29       		.uleb128 0x29
 2655 01fe 05       		.uleb128 0x5
 2656 01ff 00       		.byte	0
 2657 0200 03       		.uleb128 0x3
 2658 0201 0E       		.uleb128 0xe
 2659 0202 3A       		.uleb128 0x3a
 2660 0203 0B       		.uleb128 0xb
 2661 0204 3B       		.uleb128 0x3b
 2662 0205 0B       		.uleb128 0xb
 2663 0206 49       		.uleb128 0x49
 2664 0207 13       		.uleb128 0x13
 2665 0208 00       		.byte	0
 2666 0209 00       		.byte	0
 2667 020a 2A       		.uleb128 0x2a
 2668 020b 34       		.uleb128 0x34
 2669 020c 00       		.byte	0
 2670 020d 03       		.uleb128 0x3
 2671 020e 08       		.uleb128 0x8
 2672 020f 3A       		.uleb128 0x3a
 2673 0210 0B       		.uleb128 0xb
 2674 0211 3B       		.uleb128 0x3b
 2675 0212 0B       		.uleb128 0xb
 2676 0213 49       		.uleb128 0x49
 2677 0214 13       		.uleb128 0x13
 2678 0215 00       		.byte	0
 2679 0216 00       		.byte	0
ARM GAS  /var/folders/t8/16hdwfmd2fg_d3q6dgx6bpmw0000gn/T//cchN4XO4.s 			page 48


 2680 0217 2B       		.uleb128 0x2b
 2681 0218 34       		.uleb128 0x34
 2682 0219 00       		.byte	0
 2683 021a 03       		.uleb128 0x3
 2684 021b 0E       		.uleb128 0xe
 2685 021c 3A       		.uleb128 0x3a
 2686 021d 0B       		.uleb128 0xb
 2687 021e 3B       		.uleb128 0x3b
 2688 021f 0B       		.uleb128 0xb
 2689 0220 49       		.uleb128 0x49
 2690 0221 13       		.uleb128 0x13
 2691 0222 00       		.byte	0
 2692 0223 00       		.byte	0
 2693 0224 2C       		.uleb128 0x2c
 2694 0225 2E       		.uleb128 0x2e
 2695 0226 01       		.byte	0x1
 2696 0227 03       		.uleb128 0x3
 2697 0228 08       		.uleb128 0x8
 2698 0229 3A       		.uleb128 0x3a
 2699 022a 0B       		.uleb128 0xb
 2700 022b 3B       		.uleb128 0x3b
 2701 022c 0B       		.uleb128 0xb
 2702 022d 27       		.uleb128 0x27
 2703 022e 19       		.uleb128 0x19
 2704 022f 20       		.uleb128 0x20
 2705 0230 0B       		.uleb128 0xb
 2706 0231 01       		.uleb128 0x1
 2707 0232 13       		.uleb128 0x13
 2708 0233 00       		.byte	0
 2709 0234 00       		.byte	0
 2710 0235 2D       		.uleb128 0x2d
 2711 0236 2E       		.uleb128 0x2e
 2712 0237 01       		.byte	0x1
 2713 0238 03       		.uleb128 0x3
 2714 0239 0E       		.uleb128 0xe
 2715 023a 3A       		.uleb128 0x3a
 2716 023b 0B       		.uleb128 0xb
 2717 023c 3B       		.uleb128 0x3b
 2718 023d 0B       		.uleb128 0xb
 2719 023e 27       		.uleb128 0x27
 2720 023f 19       		.uleb128 0x19
 2721 0240 11       		.uleb128 0x11
 2722 0241 01       		.uleb128 0x1
 2723 0242 12       		.uleb128 0x12
 2724 0243 06       		.uleb128 0x6
 2725 0244 40       		.uleb128 0x40
 2726 0245 18       		.uleb128 0x18
 2727 0246 9642     		.uleb128 0x2116
 2728 0248 19       		.uleb128 0x19
 2729 0249 01       		.uleb128 0x1
 2730 024a 13       		.uleb128 0x13
 2731 024b 00       		.byte	0
 2732 024c 00       		.byte	0
 2733 024d 2E       		.uleb128 0x2e
 2734 024e 0B       		.uleb128 0xb
 2735 024f 01       		.byte	0x1
 2736 0250 55       		.uleb128 0x55
ARM GAS  /var/folders/t8/16hdwfmd2fg_d3q6dgx6bpmw0000gn/T//cchN4XO4.s 			page 49


 2737 0251 17       		.uleb128 0x17
 2738 0252 00       		.byte	0
 2739 0253 00       		.byte	0
 2740 0254 2F       		.uleb128 0x2f
 2741 0255 2E       		.uleb128 0x2e
 2742 0256 01       		.byte	0x1
 2743 0257 31       		.uleb128 0x31
 2744 0258 13       		.uleb128 0x13
 2745 0259 11       		.uleb128 0x11
 2746 025a 01       		.uleb128 0x1
 2747 025b 12       		.uleb128 0x12
 2748 025c 06       		.uleb128 0x6
 2749 025d 40       		.uleb128 0x40
 2750 025e 18       		.uleb128 0x18
 2751 025f 9742     		.uleb128 0x2117
 2752 0261 19       		.uleb128 0x19
 2753 0262 00       		.byte	0
 2754 0263 00       		.byte	0
 2755 0264 30       		.uleb128 0x30
 2756 0265 05       		.uleb128 0x5
 2757 0266 00       		.byte	0
 2758 0267 31       		.uleb128 0x31
 2759 0268 13       		.uleb128 0x13
 2760 0269 02       		.uleb128 0x2
 2761 026a 18       		.uleb128 0x18
 2762 026b 00       		.byte	0
 2763 026c 00       		.byte	0
 2764 026d 00       		.byte	0
 2765              		.section	.debug_loc,"",%progbits
 2766              	.Ldebug_loc0:
 2767              	.LLST38:
 2768 0000 00000000 		.4byte	.LVL170
 2769 0004 10000000 		.4byte	.LVL171
 2770 0008 0100     		.2byte	0x1
 2771 000a 50       		.byte	0x50
 2772 000b 10000000 		.4byte	.LVL171
 2773 000f 15000000 		.4byte	.LVL172-1
 2774 0013 0200     		.2byte	0x2
 2775 0015 70       		.byte	0x70
 2776 0016 00       		.sleb128 0
 2777 0017 00000000 		.4byte	0
 2778 001b 00000000 		.4byte	0
 2779              	.LLST39:
 2780 001f 16000000 		.4byte	.LVL172
 2781 0023 1C000000 		.4byte	.LVL173
 2782 0027 0200     		.2byte	0x2
 2783 0029 30       		.byte	0x30
 2784 002a 9F       		.byte	0x9f
 2785 002b 00000000 		.4byte	0
 2786 002f 00000000 		.4byte	0
 2787              	.LLST40:
 2788 0033 16000000 		.4byte	.LVL172
 2789 0037 1C000000 		.4byte	.LVL173
 2790 003b 0300     		.2byte	0x3
 2791 003d 91       		.byte	0x91
 2792 003e 4C       		.sleb128 -52
 2793 003f 9F       		.byte	0x9f
ARM GAS  /var/folders/t8/16hdwfmd2fg_d3q6dgx6bpmw0000gn/T//cchN4XO4.s 			page 50


 2794 0040 00000000 		.4byte	0
 2795 0044 00000000 		.4byte	0
 2796              	.LLST22:
 2797 0048 00000000 		.4byte	.LVL78
 2798 004c 1C000000 		.4byte	.LVL81
 2799 0050 0100     		.2byte	0x1
 2800 0052 50       		.byte	0x50
 2801 0053 1C000000 		.4byte	.LVL81
 2802 0057 30000000 		.4byte	.LVL87
 2803 005b 0100     		.2byte	0x1
 2804 005d 56       		.byte	0x56
 2805 005e 30000000 		.4byte	.LVL87
 2806 0062 3C000000 		.4byte	.LVL89
 2807 0066 0400     		.2byte	0x4
 2808 0068 F3       		.byte	0xf3
 2809 0069 01       		.uleb128 0x1
 2810 006a 50       		.byte	0x50
 2811 006b 9F       		.byte	0x9f
 2812 006c 3C000000 		.4byte	.LVL89
 2813 0070 1C020000 		.4byte	.LFE7
 2814 0074 0100     		.2byte	0x1
 2815 0076 56       		.byte	0x56
 2816 0077 00000000 		.4byte	0
 2817 007b 00000000 		.4byte	0
 2818              	.LLST23:
 2819 007f 00000000 		.4byte	.LVL78
 2820 0083 1C000000 		.4byte	.LVL81
 2821 0087 0100     		.2byte	0x1
 2822 0089 51       		.byte	0x51
 2823 008a 1C000000 		.4byte	.LVL81
 2824 008e 30000000 		.4byte	.LVL86
 2825 0092 0100     		.2byte	0x1
 2826 0094 55       		.byte	0x55
 2827 0095 30000000 		.4byte	.LVL86
 2828 0099 3C000000 		.4byte	.LVL89
 2829 009d 0400     		.2byte	0x4
 2830 009f F3       		.byte	0xf3
 2831 00a0 01       		.uleb128 0x1
 2832 00a1 51       		.byte	0x51
 2833 00a2 9F       		.byte	0x9f
 2834 00a3 3C000000 		.4byte	.LVL89
 2835 00a7 1C020000 		.4byte	.LFE7
 2836 00ab 0100     		.2byte	0x1
 2837 00ad 55       		.byte	0x55
 2838 00ae 00000000 		.4byte	0
 2839 00b2 00000000 		.4byte	0
 2840              	.LLST24:
 2841 00b6 00000000 		.4byte	.LVL78
 2842 00ba 1C000000 		.4byte	.LVL81
 2843 00be 0100     		.2byte	0x1
 2844 00c0 52       		.byte	0x52
 2845 00c1 1C000000 		.4byte	.LVL81
 2846 00c5 26000000 		.4byte	.LVL83
 2847 00c9 0100     		.2byte	0x1
 2848 00cb 57       		.byte	0x57
 2849 00cc 26000000 		.4byte	.LVL83
 2850 00d0 2A000000 		.4byte	.LVL84
ARM GAS  /var/folders/t8/16hdwfmd2fg_d3q6dgx6bpmw0000gn/T//cchN4XO4.s 			page 51


 2851 00d4 0100     		.2byte	0x1
 2852 00d6 54       		.byte	0x54
 2853 00d7 2A000000 		.4byte	.LVL84
 2854 00db 2E000000 		.4byte	.LVL85
 2855 00df 0100     		.2byte	0x1
 2856 00e1 57       		.byte	0x57
 2857 00e2 3C000000 		.4byte	.LVL89
 2858 00e6 44000000 		.4byte	.LVL91
 2859 00ea 0300     		.2byte	0x3
 2860 00ec 74       		.byte	0x74
 2861 00ed 02       		.sleb128 2
 2862 00ee 9F       		.byte	0x9f
 2863 00ef 44000000 		.4byte	.LVL91
 2864 00f3 48000000 		.4byte	.LVL92
 2865 00f7 0100     		.2byte	0x1
 2866 00f9 53       		.byte	0x53
 2867 00fa 48000000 		.4byte	.LVL92
 2868 00fe 8C000000 		.4byte	.LVL99
 2869 0102 0100     		.2byte	0x1
 2870 0104 58       		.byte	0x58
 2871 0105 8C000000 		.4byte	.LVL99
 2872 0109 9E000000 		.4byte	.LVL101
 2873 010d 0100     		.2byte	0x1
 2874 010f 54       		.byte	0x54
 2875 0110 9E000000 		.4byte	.LVL101
 2876 0114 A2000000 		.4byte	.LVL102
 2877 0118 0300     		.2byte	0x3
 2878 011a 74       		.byte	0x74
 2879 011b 02       		.sleb128 2
 2880 011c 9F       		.byte	0x9f
 2881 011d A2000000 		.4byte	.LVL102
 2882 0121 A4000000 		.4byte	.LVL103
 2883 0125 0100     		.2byte	0x1
 2884 0127 53       		.byte	0x53
 2885 0128 A4000000 		.4byte	.LVL103
 2886 012c B8000000 		.4byte	.LVL106
 2887 0130 0100     		.2byte	0x1
 2888 0132 58       		.byte	0x58
 2889 0133 E6000000 		.4byte	.LVL114
 2890 0137 EA000000 		.4byte	.LVL115
 2891 013b 0100     		.2byte	0x1
 2892 013d 51       		.byte	0x51
 2893 013e EA000000 		.4byte	.LVL115
 2894 0142 EE000000 		.4byte	.LVL116
 2895 0146 0100     		.2byte	0x1
 2896 0148 58       		.byte	0x58
 2897 0149 EE000000 		.4byte	.LVL116
 2898 014d 22010000 		.4byte	.LVL122
 2899 0151 0100     		.2byte	0x1
 2900 0153 54       		.byte	0x54
 2901 0154 22010000 		.4byte	.LVL122
 2902 0158 34010000 		.4byte	.LVL123
 2903 015c 0100     		.2byte	0x1
 2904 015e 58       		.byte	0x58
 2905 015f 34010000 		.4byte	.LVL123
 2906 0163 44010000 		.4byte	.LVL124
 2907 0167 0100     		.2byte	0x1
ARM GAS  /var/folders/t8/16hdwfmd2fg_d3q6dgx6bpmw0000gn/T//cchN4XO4.s 			page 52


 2908 0169 54       		.byte	0x54
 2909 016a 44010000 		.4byte	.LVL124
 2910 016e 64010000 		.4byte	.LVL131
 2911 0172 0100     		.2byte	0x1
 2912 0174 58       		.byte	0x58
 2913 0175 64010000 		.4byte	.LVL131
 2914 0179 66010000 		.4byte	.LVL132
 2915 017d 0100     		.2byte	0x1
 2916 017f 54       		.byte	0x54
 2917 0180 66010000 		.4byte	.LVL132
 2918 0184 76010000 		.4byte	.LVL136
 2919 0188 0100     		.2byte	0x1
 2920 018a 58       		.byte	0x58
 2921 018b 76010000 		.4byte	.LVL136
 2922 018f 78010000 		.4byte	.LVL137
 2923 0193 0100     		.2byte	0x1
 2924 0195 54       		.byte	0x54
 2925 0196 78010000 		.4byte	.LVL137
 2926 019a 82010000 		.4byte	.LVL139
 2927 019e 0100     		.2byte	0x1
 2928 01a0 58       		.byte	0x58
 2929 01a1 82010000 		.4byte	.LVL139
 2930 01a5 9C010000 		.4byte	.LVL145
 2931 01a9 0100     		.2byte	0x1
 2932 01ab 54       		.byte	0x54
 2933 01ac 9C010000 		.4byte	.LVL145
 2934 01b0 E8010000 		.4byte	.LVL158
 2935 01b4 0100     		.2byte	0x1
 2936 01b6 58       		.byte	0x58
 2937 01b7 E8010000 		.4byte	.LVL158
 2938 01bb 1C020000 		.4byte	.LFE7
 2939 01bf 0100     		.2byte	0x1
 2940 01c1 54       		.byte	0x54
 2941 01c2 00000000 		.4byte	0
 2942 01c6 00000000 		.4byte	0
 2943              	.LLST25:
 2944 01ca 00000000 		.4byte	.LVL78
 2945 01ce 0C000000 		.4byte	.LVL79
 2946 01d2 0100     		.2byte	0x1
 2947 01d4 53       		.byte	0x53
 2948 01d5 0C000000 		.4byte	.LVL79
 2949 01d9 0E000000 		.4byte	.LVL80
 2950 01dd 0300     		.2byte	0x3
 2951 01df 53       		.byte	0x53
 2952 01e0 93       		.byte	0x93
 2953 01e1 04       		.uleb128 0x4
 2954 01e2 1C000000 		.4byte	.LVL81
 2955 01e6 30000000 		.4byte	.LVL88
 2956 01ea 0300     		.2byte	0x3
 2957 01ec 59       		.byte	0x59
 2958 01ed 93       		.byte	0x93
 2959 01ee 04       		.uleb128 0x4
 2960 01ef 3C000000 		.4byte	.LVL89
 2961 01f3 70000000 		.4byte	.LVL95
 2962 01f7 0300     		.2byte	0x3
 2963 01f9 59       		.byte	0x59
 2964 01fa 93       		.byte	0x93
ARM GAS  /var/folders/t8/16hdwfmd2fg_d3q6dgx6bpmw0000gn/T//cchN4XO4.s 			page 53


 2965 01fb 04       		.uleb128 0x4
 2966 01fc 70000000 		.4byte	.LVL95
 2967 0200 7C000000 		.4byte	.LVL97
 2968 0204 0400     		.2byte	0x4
 2969 0206 91       		.byte	0x91
 2970 0207 44       		.sleb128 -60
 2971 0208 93       		.byte	0x93
 2972 0209 04       		.uleb128 0x4
 2973 020a 8C000000 		.4byte	.LVL99
 2974 020e 0E010000 		.4byte	.LVL119
 2975 0212 0300     		.2byte	0x3
 2976 0214 59       		.byte	0x59
 2977 0215 93       		.byte	0x93
 2978 0216 04       		.uleb128 0x4
 2979 0217 0E010000 		.4byte	.LVL119
 2980 021b 12010000 		.4byte	.LVL120
 2981 021f 0300     		.2byte	0x3
 2982 0221 52       		.byte	0x52
 2983 0222 93       		.byte	0x93
 2984 0223 04       		.uleb128 0x4
 2985 0224 12010000 		.4byte	.LVL120
 2986 0228 22010000 		.4byte	.LVL122
 2987 022c 0300     		.2byte	0x3
 2988 022e 58       		.byte	0x58
 2989 022f 93       		.byte	0x93
 2990 0230 04       		.uleb128 0x4
 2991 0231 22010000 		.4byte	.LVL122
 2992 0235 48010000 		.4byte	.LVL125
 2993 0239 0300     		.2byte	0x3
 2994 023b 59       		.byte	0x59
 2995 023c 93       		.byte	0x93
 2996 023d 04       		.uleb128 0x4
 2997 023e 48010000 		.4byte	.LVL125
 2998 0242 50010000 		.4byte	.LVL127
 2999 0246 0500     		.2byte	0x5
 3000 0248 79       		.byte	0x79
 3001 0249 04       		.sleb128 4
 3002 024a 9F       		.byte	0x9f
 3003 024b 93       		.byte	0x93
 3004 024c 04       		.uleb128 0x4
 3005 024d 50010000 		.4byte	.LVL127
 3006 0251 52010000 		.4byte	.LVL128
 3007 0255 0500     		.2byte	0x5
 3008 0257 73       		.byte	0x73
 3009 0258 04       		.sleb128 4
 3010 0259 9F       		.byte	0x9f
 3011 025a 93       		.byte	0x93
 3012 025b 04       		.uleb128 0x4
 3013 025c 52010000 		.4byte	.LVL128
 3014 0260 5C010000 		.4byte	.LVL129
 3015 0264 0500     		.2byte	0x5
 3016 0266 79       		.byte	0x79
 3017 0267 04       		.sleb128 4
 3018 0268 9F       		.byte	0x9f
 3019 0269 93       		.byte	0x93
 3020 026a 04       		.uleb128 0x4
 3021 026b 5C010000 		.4byte	.LVL129
ARM GAS  /var/folders/t8/16hdwfmd2fg_d3q6dgx6bpmw0000gn/T//cchN4XO4.s 			page 54


 3022 026f 6C010000 		.4byte	.LVL133
 3023 0273 0300     		.2byte	0x3
 3024 0275 59       		.byte	0x59
 3025 0276 93       		.byte	0x93
 3026 0277 04       		.uleb128 0x4
 3027 0278 6C010000 		.4byte	.LVL133
 3028 027c 74010000 		.4byte	.LVL135
 3029 0280 0300     		.2byte	0x3
 3030 0282 54       		.byte	0x54
 3031 0283 93       		.byte	0x93
 3032 0284 04       		.uleb128 0x4
 3033 0285 74010000 		.4byte	.LVL135
 3034 0289 88010000 		.4byte	.LVL141
 3035 028d 0300     		.2byte	0x3
 3036 028f 59       		.byte	0x59
 3037 0290 93       		.byte	0x93
 3038 0291 04       		.uleb128 0x4
 3039 0292 88010000 		.4byte	.LVL141
 3040 0296 8A010000 		.4byte	.LVL142
 3041 029a 0300     		.2byte	0x3
 3042 029c 53       		.byte	0x53
 3043 029d 93       		.byte	0x93
 3044 029e 04       		.uleb128 0x4
 3045 029f 8A010000 		.4byte	.LVL142
 3046 02a3 9A010000 		.4byte	.LVL144
 3047 02a7 0300     		.2byte	0x3
 3048 02a9 58       		.byte	0x58
 3049 02aa 93       		.byte	0x93
 3050 02ab 04       		.uleb128 0x4
 3051 02ac 9A010000 		.4byte	.LVL144
 3052 02b0 A0010000 		.4byte	.LVL146
 3053 02b4 0300     		.2byte	0x3
 3054 02b6 59       		.byte	0x59
 3055 02b7 93       		.byte	0x93
 3056 02b8 04       		.uleb128 0x4
 3057 02b9 A0010000 		.4byte	.LVL146
 3058 02bd B4010000 		.4byte	.LVL148
 3059 02c1 0300     		.2byte	0x3
 3060 02c3 54       		.byte	0x54
 3061 02c4 93       		.byte	0x93
 3062 02c5 04       		.uleb128 0x4
 3063 02c6 B4010000 		.4byte	.LVL148
 3064 02ca C0010000 		.4byte	.LVL151
 3065 02ce 0300     		.2byte	0x3
 3066 02d0 59       		.byte	0x59
 3067 02d1 93       		.byte	0x93
 3068 02d2 04       		.uleb128 0x4
 3069 02d3 C0010000 		.4byte	.LVL151
 3070 02d7 D4010000 		.4byte	.LVL153
 3071 02db 0300     		.2byte	0x3
 3072 02dd 54       		.byte	0x54
 3073 02de 93       		.byte	0x93
 3074 02df 04       		.uleb128 0x4
 3075 02e0 D4010000 		.4byte	.LVL153
 3076 02e4 D6010000 		.4byte	.LVL154
 3077 02e8 0300     		.2byte	0x3
 3078 02ea 59       		.byte	0x59
ARM GAS  /var/folders/t8/16hdwfmd2fg_d3q6dgx6bpmw0000gn/T//cchN4XO4.s 			page 55


 3079 02eb 93       		.byte	0x93
 3080 02ec 04       		.uleb128 0x4
 3081 02ed D6010000 		.4byte	.LVL154
 3082 02f1 DA010000 		.4byte	.LVL156
 3083 02f5 0500     		.2byte	0x5
 3084 02f7 73       		.byte	0x73
 3085 02f8 04       		.sleb128 4
 3086 02f9 9F       		.byte	0x9f
 3087 02fa 93       		.byte	0x93
 3088 02fb 04       		.uleb128 0x4
 3089 02fc DA010000 		.4byte	.LVL156
 3090 0300 E8010000 		.4byte	.LVL158
 3091 0304 0500     		.2byte	0x5
 3092 0306 79       		.byte	0x79
 3093 0307 04       		.sleb128 4
 3094 0308 9F       		.byte	0x9f
 3095 0309 93       		.byte	0x93
 3096 030a 04       		.uleb128 0x4
 3097 030b E8010000 		.4byte	.LVL158
 3098 030f F4010000 		.4byte	.LVL160
 3099 0313 0300     		.2byte	0x3
 3100 0315 59       		.byte	0x59
 3101 0316 93       		.byte	0x93
 3102 0317 04       		.uleb128 0x4
 3103 0318 F4010000 		.4byte	.LVL160
 3104 031c F6010000 		.4byte	.LVL161
 3105 0320 0300     		.2byte	0x3
 3106 0322 53       		.byte	0x53
 3107 0323 93       		.byte	0x93
 3108 0324 04       		.uleb128 0x4
 3109 0325 F6010000 		.4byte	.LVL161
 3110 0329 1C020000 		.4byte	.LFE7
 3111 032d 0300     		.2byte	0x3
 3112 032f 58       		.byte	0x58
 3113 0330 93       		.byte	0x93
 3114 0331 04       		.uleb128 0x4
 3115 0332 00000000 		.4byte	0
 3116 0336 00000000 		.4byte	0
 3117              	.LLST26:
 3118 033a 1C000000 		.4byte	.LVL81
 3119 033e 23000000 		.4byte	.LVL82-1
 3120 0342 0100     		.2byte	0x1
 3121 0344 51       		.byte	0x51
 3122 0345 2A000000 		.4byte	.LVL84
 3123 0349 2E000000 		.4byte	.LVL85
 3124 034d 0100     		.2byte	0x1
 3125 034f 51       		.byte	0x51
 3126 0350 3C000000 		.4byte	.LVL89
 3127 0354 3E000000 		.4byte	.LVL90
 3128 0358 0100     		.2byte	0x1
 3129 035a 51       		.byte	0x51
 3130 035b 3E000000 		.4byte	.LVL90
 3131 035f 72000000 		.4byte	.LVL96
 3132 0363 0100     		.2byte	0x1
 3133 0365 52       		.byte	0x52
 3134 0366 9E000000 		.4byte	.LVL101
 3135 036a B8000000 		.4byte	.LVL106
ARM GAS  /var/folders/t8/16hdwfmd2fg_d3q6dgx6bpmw0000gn/T//cchN4XO4.s 			page 56


 3136 036e 0100     		.2byte	0x1
 3137 0370 52       		.byte	0x52
 3138 0371 E6000000 		.4byte	.LVL114
 3139 0375 F0000000 		.4byte	.LVL117
 3140 0379 0100     		.2byte	0x1
 3141 037b 52       		.byte	0x52
 3142 037c F0000000 		.4byte	.LVL117
 3143 0380 0A010000 		.4byte	.LVL118
 3144 0384 0100     		.2byte	0x1
 3145 0386 53       		.byte	0x53
 3146 0387 0A010000 		.4byte	.LVL118
 3147 038b 12010000 		.4byte	.LVL120
 3148 038f 0400     		.2byte	0x4
 3149 0391 73       		.byte	0x73
 3150 0392 D800     		.sleb128 88
 3151 0394 9F       		.byte	0x9f
 3152 0395 12010000 		.4byte	.LVL120
 3153 0399 1D010000 		.4byte	.LVL121-1
 3154 039d 0200     		.2byte	0x2
 3155 039f 74       		.byte	0x74
 3156 03a0 7F       		.sleb128 -1
 3157 03a1 22010000 		.4byte	.LVL122
 3158 03a5 34010000 		.4byte	.LVL123
 3159 03a9 0100     		.2byte	0x1
 3160 03ab 52       		.byte	0x52
 3161 03ac 34010000 		.4byte	.LVL123
 3162 03b0 44010000 		.4byte	.LVL124
 3163 03b4 0100     		.2byte	0x1
 3164 03b6 53       		.byte	0x53
 3165 03b7 44010000 		.4byte	.LVL124
 3166 03bb 52010000 		.4byte	.LVL128
 3167 03bf 0100     		.2byte	0x1
 3168 03c1 52       		.byte	0x52
 3169 03c2 64010000 		.4byte	.LVL131
 3170 03c6 66010000 		.4byte	.LVL132
 3171 03ca 0100     		.2byte	0x1
 3172 03cc 53       		.byte	0x53
 3173 03cd 76010000 		.4byte	.LVL136
 3174 03d1 78010000 		.4byte	.LVL137
 3175 03d5 0100     		.2byte	0x1
 3176 03d7 53       		.byte	0x53
 3177 03d8 82010000 		.4byte	.LVL139
 3178 03dc 84010000 		.4byte	.LVL140
 3179 03e0 0100     		.2byte	0x1
 3180 03e2 53       		.byte	0x53
 3181 03e3 84010000 		.4byte	.LVL140
 3182 03e7 88010000 		.4byte	.LVL141
 3183 03eb 0200     		.2byte	0x2
 3184 03ed 78       		.byte	0x78
 3185 03ee 00       		.sleb128 0
 3186 03ef 88010000 		.4byte	.LVL141
 3187 03f3 95010000 		.4byte	.LVL143-1
 3188 03f7 0200     		.2byte	0x2
 3189 03f9 74       		.byte	0x74
 3190 03fa 7F       		.sleb128 -1
 3191 03fb 9A010000 		.4byte	.LVL144
 3192 03ff 9C010000 		.4byte	.LVL145
ARM GAS  /var/folders/t8/16hdwfmd2fg_d3q6dgx6bpmw0000gn/T//cchN4XO4.s 			page 57


 3193 0403 0100     		.2byte	0x1
 3194 0405 53       		.byte	0x53
 3195 0406 B6010000 		.4byte	.LVL149
 3196 040a BE010000 		.4byte	.LVL150
 3197 040e 0100     		.2byte	0x1
 3198 0410 52       		.byte	0x52
 3199 0411 D6010000 		.4byte	.LVL154
 3200 0415 D8010000 		.4byte	.LVL155
 3201 0419 0100     		.2byte	0x1
 3202 041b 52       		.byte	0x52
 3203 041c E8010000 		.4byte	.LVL158
 3204 0420 F0010000 		.4byte	.LVL159
 3205 0424 0100     		.2byte	0x1
 3206 0426 53       		.byte	0x53
 3207 0427 F0010000 		.4byte	.LVL159
 3208 042b F4010000 		.4byte	.LVL160
 3209 042f 0200     		.2byte	0x2
 3210 0431 78       		.byte	0x78
 3211 0432 00       		.sleb128 0
 3212 0433 F4010000 		.4byte	.LVL160
 3213 0437 05020000 		.4byte	.LVL164-1
 3214 043b 0200     		.2byte	0x2
 3215 043d 74       		.byte	0x74
 3216 043e 7F       		.sleb128 -1
 3217 043f 0A020000 		.4byte	.LVL165
 3218 0443 1C020000 		.4byte	.LFE7
 3219 0447 0200     		.2byte	0x2
 3220 0449 74       		.byte	0x74
 3221 044a 7F       		.sleb128 -1
 3222 044b 00000000 		.4byte	0
 3223 044f 00000000 		.4byte	0
 3224              	.LLST27:
 3225 0453 3C000000 		.4byte	.LVL89
 3226 0457 4A000000 		.4byte	.LVL93
 3227 045b 0200     		.2byte	0x2
 3228 045d 30       		.byte	0x30
 3229 045e 9F       		.byte	0x9f
 3230 045f 4A000000 		.4byte	.LVL93
 3231 0463 9E000000 		.4byte	.LVL101
 3232 0467 0100     		.2byte	0x1
 3233 0469 5A       		.byte	0x5a
 3234 046a 9E000000 		.4byte	.LVL101
 3235 046e A6000000 		.4byte	.LVL104
 3236 0472 0200     		.2byte	0x2
 3237 0474 30       		.byte	0x30
 3238 0475 9F       		.byte	0x9f
 3239 0476 A6000000 		.4byte	.LVL104
 3240 047a A8000000 		.4byte	.LVL105
 3241 047e 0200     		.2byte	0x2
 3242 0480 31       		.byte	0x31
 3243 0481 9F       		.byte	0x9f
 3244 0482 A8000000 		.4byte	.LVL105
 3245 0486 1C020000 		.4byte	.LFE7
 3246 048a 0100     		.2byte	0x1
 3247 048c 5A       		.byte	0x5a
 3248 048d 00000000 		.4byte	0
 3249 0491 00000000 		.4byte	0
ARM GAS  /var/folders/t8/16hdwfmd2fg_d3q6dgx6bpmw0000gn/T//cchN4XO4.s 			page 58


 3250              	.LLST28:
 3251 0495 3C000000 		.4byte	.LVL89
 3252 0499 8C000000 		.4byte	.LVL99
 3253 049d 0200     		.2byte	0x2
 3254 049f 30       		.byte	0x30
 3255 04a0 9F       		.byte	0x9f
 3256 04a1 9E000000 		.4byte	.LVL101
 3257 04a5 F0000000 		.4byte	.LVL117
 3258 04a9 0200     		.2byte	0x2
 3259 04ab 30       		.byte	0x30
 3260 04ac 9F       		.byte	0x9f
 3261 04ad F0000000 		.4byte	.LVL117
 3262 04b1 22010000 		.4byte	.LVL122
 3263 04b5 0200     		.2byte	0x2
 3264 04b7 31       		.byte	0x31
 3265 04b8 9F       		.byte	0x9f
 3266 04b9 22010000 		.4byte	.LVL122
 3267 04bd 34010000 		.4byte	.LVL123
 3268 04c1 0200     		.2byte	0x2
 3269 04c3 30       		.byte	0x30
 3270 04c4 9F       		.byte	0x9f
 3271 04c5 34010000 		.4byte	.LVL123
 3272 04c9 44010000 		.4byte	.LVL124
 3273 04cd 0200     		.2byte	0x2
 3274 04cf 31       		.byte	0x31
 3275 04d0 9F       		.byte	0x9f
 3276 04d1 44010000 		.4byte	.LVL124
 3277 04d5 64010000 		.4byte	.LVL131
 3278 04d9 0200     		.2byte	0x2
 3279 04db 30       		.byte	0x30
 3280 04dc 9F       		.byte	0x9f
 3281 04dd 64010000 		.4byte	.LVL131
 3282 04e1 66010000 		.4byte	.LVL132
 3283 04e5 0200     		.2byte	0x2
 3284 04e7 31       		.byte	0x31
 3285 04e8 9F       		.byte	0x9f
 3286 04e9 76010000 		.4byte	.LVL136
 3287 04ed 78010000 		.4byte	.LVL137
 3288 04f1 0200     		.2byte	0x2
 3289 04f3 31       		.byte	0x31
 3290 04f4 9F       		.byte	0x9f
 3291 04f5 82010000 		.4byte	.LVL139
 3292 04f9 9C010000 		.4byte	.LVL145
 3293 04fd 0200     		.2byte	0x2
 3294 04ff 31       		.byte	0x31
 3295 0500 9F       		.byte	0x9f
 3296 0501 B6010000 		.4byte	.LVL149
 3297 0505 E8010000 		.4byte	.LVL158
 3298 0509 0200     		.2byte	0x2
 3299 050b 30       		.byte	0x30
 3300 050c 9F       		.byte	0x9f
 3301 050d E8010000 		.4byte	.LVL158
 3302 0511 1C020000 		.4byte	.LFE7
 3303 0515 0200     		.2byte	0x2
 3304 0517 31       		.byte	0x31
 3305 0518 9F       		.byte	0x9f
 3306 0519 00000000 		.4byte	0
ARM GAS  /var/folders/t8/16hdwfmd2fg_d3q6dgx6bpmw0000gn/T//cchN4XO4.s 			page 59


 3307 051d 00000000 		.4byte	0
 3308              	.LLST29:
 3309 0521 3C000000 		.4byte	.LVL89
 3310 0525 56000000 		.4byte	.LVL94
 3311 0529 0200     		.2byte	0x2
 3312 052b 30       		.byte	0x30
 3313 052c 9F       		.byte	0x9f
 3314 052d 56000000 		.4byte	.LVL94
 3315 0531 9E000000 		.4byte	.LVL101
 3316 0535 0100     		.2byte	0x1
 3317 0537 57       		.byte	0x57
 3318 0538 9E000000 		.4byte	.LVL101
 3319 053c E6000000 		.4byte	.LVL114
 3320 0540 0200     		.2byte	0x2
 3321 0542 30       		.byte	0x30
 3322 0543 9F       		.byte	0x9f
 3323 0544 E6000000 		.4byte	.LVL114
 3324 0548 1C020000 		.4byte	.LFE7
 3325 054c 0100     		.2byte	0x1
 3326 054e 57       		.byte	0x57
 3327 054f 00000000 		.4byte	0
 3328 0553 00000000 		.4byte	0
 3329              	.LLST30:
 3330 0557 4C010000 		.4byte	.LVL126
 3331 055b 52010000 		.4byte	.LVL128
 3332 055f 0300     		.2byte	0x3
 3333 0561 91       		.byte	0x91
 3334 0562 4C       		.sleb128 -52
 3335 0563 9F       		.byte	0x9f
 3336 0564 5C010000 		.4byte	.LVL129
 3337 0568 61010000 		.4byte	.LVL130-1
 3338 056c 0100     		.2byte	0x1
 3339 056e 53       		.byte	0x53
 3340 056f D6010000 		.4byte	.LVL154
 3341 0573 E4010000 		.4byte	.LVL157
 3342 0577 0300     		.2byte	0x3
 3343 0579 91       		.byte	0x91
 3344 057a 4C       		.sleb128 -52
 3345 057b 9F       		.byte	0x9f
 3346 057c E4010000 		.4byte	.LVL157
 3347 0580 E8010000 		.4byte	.LVL158
 3348 0584 0300     		.2byte	0x3
 3349 0586 91       		.byte	0x91
 3350 0587 4D       		.sleb128 -51
 3351 0588 9F       		.byte	0x9f
 3352 0589 00000000 		.4byte	0
 3353 058d 00000000 		.4byte	0
 3354              	.LLST31:
 3355 0591 5C010000 		.4byte	.LVL129
 3356 0595 61010000 		.4byte	.LVL130-1
 3357 0599 0100     		.2byte	0x1
 3358 059b 50       		.byte	0x50
 3359 059c E4010000 		.4byte	.LVL157
 3360 05a0 E8010000 		.4byte	.LVL158
 3361 05a4 0100     		.2byte	0x1
 3362 05a6 50       		.byte	0x50
 3363 05a7 00000000 		.4byte	0
ARM GAS  /var/folders/t8/16hdwfmd2fg_d3q6dgx6bpmw0000gn/T//cchN4XO4.s 			page 60


 3364 05ab 00000000 		.4byte	0
 3365              	.LLST32:
 3366 05af B8000000 		.4byte	.LVL106
 3367 05b3 BA000000 		.4byte	.LVL107
 3368 05b7 0100     		.2byte	0x1
 3369 05b9 52       		.byte	0x52
 3370 05ba C2000000 		.4byte	.LVL109
 3371 05be C8000000 		.4byte	.LVL111
 3372 05c2 0100     		.2byte	0x1
 3373 05c4 52       		.byte	0x52
 3374 05c5 CC000000 		.4byte	.LVL112
 3375 05c9 EA000000 		.4byte	.LVL115
 3376 05cd 0100     		.2byte	0x1
 3377 05cf 52       		.byte	0x52
 3378 05d0 00000000 		.4byte	0
 3379 05d4 00000000 		.4byte	0
 3380              	.LLST33:
 3381 05d8 B8000000 		.4byte	.LVL106
 3382 05dc C2000000 		.4byte	.LVL109
 3383 05e0 0100     		.2byte	0x1
 3384 05e2 51       		.byte	0x51
 3385 05e3 C2000000 		.4byte	.LVL109
 3386 05e7 C6000000 		.4byte	.LVL110
 3387 05eb 0300     		.2byte	0x3
 3388 05ed 71       		.byte	0x71
 3389 05ee 01       		.sleb128 1
 3390 05ef 9F       		.byte	0x9f
 3391 05f0 C6000000 		.4byte	.LVL110
 3392 05f4 C8000000 		.4byte	.LVL111
 3393 05f8 0100     		.2byte	0x1
 3394 05fa 51       		.byte	0x51
 3395 05fb CC000000 		.4byte	.LVL112
 3396 05ff EA000000 		.4byte	.LVL115
 3397 0603 0100     		.2byte	0x1
 3398 0605 51       		.byte	0x51
 3399 0606 00000000 		.4byte	0
 3400 060a 00000000 		.4byte	0
 3401              	.LLST34:
 3402 060e B8000000 		.4byte	.LVL106
 3403 0612 BC000000 		.4byte	.LVL108
 3404 0616 0100     		.2byte	0x1
 3405 0618 57       		.byte	0x57
 3406 0619 C2000000 		.4byte	.LVL109
 3407 061d C8000000 		.4byte	.LVL111
 3408 0621 0100     		.2byte	0x1
 3409 0623 57       		.byte	0x57
 3410 0624 CC000000 		.4byte	.LVL112
 3411 0628 EA000000 		.4byte	.LVL115
 3412 062c 0100     		.2byte	0x1
 3413 062e 57       		.byte	0x57
 3414 062f 00000000 		.4byte	0
 3415 0633 00000000 		.4byte	0
 3416              	.LLST35:
 3417 0637 CC000000 		.4byte	.LVL112
 3418 063b E2000000 		.4byte	.LVL113
 3419 063f 0100     		.2byte	0x1
 3420 0641 52       		.byte	0x52
ARM GAS  /var/folders/t8/16hdwfmd2fg_d3q6dgx6bpmw0000gn/T//cchN4XO4.s 			page 61


 3421 0642 00000000 		.4byte	0
 3422 0646 00000000 		.4byte	0
 3423              	.LLST36:
 3424 064a F8010000 		.4byte	.LVL162
 3425 064e FE010000 		.4byte	.LVL163
 3426 0652 0300     		.2byte	0x3
 3427 0654 91       		.byte	0x91
 3428 0655 4C       		.sleb128 -52
 3429 0656 9F       		.byte	0x9f
 3430 0657 FE010000 		.4byte	.LVL163
 3431 065b 05020000 		.4byte	.LVL164-1
 3432 065f 0100     		.2byte	0x1
 3433 0661 53       		.byte	0x53
 3434 0662 0A020000 		.4byte	.LVL165
 3435 0666 18020000 		.4byte	.LVL166
 3436 066a 0300     		.2byte	0x3
 3437 066c 91       		.byte	0x91
 3438 066d 4C       		.sleb128 -52
 3439 066e 9F       		.byte	0x9f
 3440 066f 18020000 		.4byte	.LVL166
 3441 0673 1C020000 		.4byte	.LFE7
 3442 0677 0300     		.2byte	0x3
 3443 0679 91       		.byte	0x91
 3444 067a 4D       		.sleb128 -51
 3445 067b 9F       		.byte	0x9f
 3446 067c 00000000 		.4byte	0
 3447 0680 00000000 		.4byte	0
 3448              	.LLST37:
 3449 0684 F8010000 		.4byte	.LVL162
 3450 0688 05020000 		.4byte	.LVL164-1
 3451 068c 0100     		.2byte	0x1
 3452 068e 50       		.byte	0x50
 3453 068f 0A020000 		.4byte	.LVL165
 3454 0693 1C020000 		.4byte	.LFE7
 3455 0697 0100     		.2byte	0x1
 3456 0699 50       		.byte	0x50
 3457 069a 00000000 		.4byte	0
 3458 069e 00000000 		.4byte	0
 3459              	.LLST14:
 3460 06a2 00000000 		.4byte	.LVL52
 3461 06a6 2C000000 		.4byte	.LVL55
 3462 06aa 0100     		.2byte	0x1
 3463 06ac 50       		.byte	0x50
 3464 06ad 2C000000 		.4byte	.LVL55
 3465 06b1 6C000000 		.4byte	.LVL74
 3466 06b5 0100     		.2byte	0x1
 3467 06b7 57       		.byte	0x57
 3468 06b8 6C000000 		.4byte	.LVL74
 3469 06bc 72000000 		.4byte	.LVL75
 3470 06c0 0400     		.2byte	0x4
 3471 06c2 F3       		.byte	0xf3
 3472 06c3 01       		.uleb128 0x1
 3473 06c4 50       		.byte	0x50
 3474 06c5 9F       		.byte	0x9f
 3475 06c6 72000000 		.4byte	.LVL75
 3476 06ca 7A000000 		.4byte	.LFE6
 3477 06ce 0100     		.2byte	0x1
ARM GAS  /var/folders/t8/16hdwfmd2fg_d3q6dgx6bpmw0000gn/T//cchN4XO4.s 			page 62


 3478 06d0 50       		.byte	0x50
 3479 06d1 00000000 		.4byte	0
 3480 06d5 00000000 		.4byte	0
 3481              	.LLST15:
 3482 06d9 00000000 		.4byte	.LVL52
 3483 06dd 0A000000 		.4byte	.LVL53
 3484 06e1 0100     		.2byte	0x1
 3485 06e3 51       		.byte	0x51
 3486 06e4 0A000000 		.4byte	.LVL53
 3487 06e8 6C000000 		.4byte	.LVL73
 3488 06ec 0100     		.2byte	0x1
 3489 06ee 56       		.byte	0x56
 3490 06ef 6C000000 		.4byte	.LVL73
 3491 06f3 72000000 		.4byte	.LVL75
 3492 06f7 0400     		.2byte	0x4
 3493 06f9 F3       		.byte	0xf3
 3494 06fa 01       		.uleb128 0x1
 3495 06fb 51       		.byte	0x51
 3496 06fc 9F       		.byte	0x9f
 3497 06fd 72000000 		.4byte	.LVL75
 3498 0701 7A000000 		.4byte	.LFE6
 3499 0705 0100     		.2byte	0x1
 3500 0707 56       		.byte	0x56
 3501 0708 00000000 		.4byte	0
 3502 070c 00000000 		.4byte	0
 3503              	.LLST16:
 3504 0710 00000000 		.4byte	.LVL52
 3505 0714 2C000000 		.4byte	.LVL55
 3506 0718 0100     		.2byte	0x1
 3507 071a 52       		.byte	0x52
 3508 071b 2C000000 		.4byte	.LVL55
 3509 071f 34000000 		.4byte	.LVL57
 3510 0723 0100     		.2byte	0x1
 3511 0725 5C       		.byte	0x5c
 3512 0726 34000000 		.4byte	.LVL57
 3513 072a 38000000 		.4byte	.LVL58
 3514 072e 0100     		.2byte	0x1
 3515 0730 52       		.byte	0x52
 3516 0731 38000000 		.4byte	.LVL58
 3517 0735 3A000000 		.4byte	.LVL59
 3518 0739 0100     		.2byte	0x1
 3519 073b 50       		.byte	0x50
 3520 073c 3A000000 		.4byte	.LVL59
 3521 0740 42000000 		.4byte	.LVL61
 3522 0744 0100     		.2byte	0x1
 3523 0746 5C       		.byte	0x5c
 3524 0747 42000000 		.4byte	.LVL61
 3525 074b 4C000000 		.4byte	.LVL62
 3526 074f 0100     		.2byte	0x1
 3527 0751 54       		.byte	0x54
 3528 0752 4C000000 		.4byte	.LVL62
 3529 0756 4E000000 		.4byte	.LVL63
 3530 075a 0300     		.2byte	0x3
 3531 075c 74       		.byte	0x74
 3532 075d 01       		.sleb128 1
 3533 075e 9F       		.byte	0x9f
 3534 075f 4E000000 		.4byte	.LVL63
ARM GAS  /var/folders/t8/16hdwfmd2fg_d3q6dgx6bpmw0000gn/T//cchN4XO4.s 			page 63


 3535 0763 5C000000 		.4byte	.LVL66
 3536 0767 0100     		.2byte	0x1
 3537 0769 54       		.byte	0x54
 3538 076a 72000000 		.4byte	.LVL75
 3539 076e 74000000 		.4byte	.LVL76
 3540 0772 0300     		.2byte	0x3
 3541 0774 72       		.byte	0x72
 3542 0775 7F       		.sleb128 -1
 3543 0776 9F       		.byte	0x9f
 3544 0777 74000000 		.4byte	.LVL76
 3545 077b 7A000000 		.4byte	.LFE6
 3546 077f 0100     		.2byte	0x1
 3547 0781 54       		.byte	0x54
 3548 0782 00000000 		.4byte	0
 3549 0786 00000000 		.4byte	0
 3550              	.LLST17:
 3551 078a 00000000 		.4byte	.LVL52
 3552 078e 0A000000 		.4byte	.LVL53
 3553 0792 0100     		.2byte	0x1
 3554 0794 53       		.byte	0x53
 3555 0795 0A000000 		.4byte	.LVL53
 3556 0799 7A000000 		.4byte	.LFE6
 3557 079d 0400     		.2byte	0x4
 3558 079f F3       		.byte	0xf3
 3559 07a0 01       		.uleb128 0x1
 3560 07a1 53       		.byte	0x53
 3561 07a2 9F       		.byte	0x9f
 3562 07a3 00000000 		.4byte	0
 3563 07a7 00000000 		.4byte	0
 3564              	.LLST18:
 3565 07ab 00000000 		.4byte	.LVL52
 3566 07af 54000000 		.4byte	.LVL64
 3567 07b3 0200     		.2byte	0x2
 3568 07b5 91       		.byte	0x91
 3569 07b6 00       		.sleb128 0
 3570 07b7 54000000 		.4byte	.LVL64
 3571 07bb 5C000000 		.4byte	.LVL66
 3572 07bf 0100     		.2byte	0x1
 3573 07c1 58       		.byte	0x58
 3574 07c2 5E000000 		.4byte	.LVL67
 3575 07c6 62000000 		.4byte	.LVL68
 3576 07ca 0100     		.2byte	0x1
 3577 07cc 54       		.byte	0x54
 3578 07cd 62000000 		.4byte	.LVL68
 3579 07d1 64000000 		.4byte	.LVL69
 3580 07d5 0300     		.2byte	0x3
 3581 07d7 74       		.byte	0x74
 3582 07d8 7F       		.sleb128 -1
 3583 07d9 9F       		.byte	0x9f
 3584 07da 72000000 		.4byte	.LVL75
 3585 07de 7A000000 		.4byte	.LFE6
 3586 07e2 0200     		.2byte	0x2
 3587 07e4 91       		.byte	0x91
 3588 07e5 00       		.sleb128 0
 3589 07e6 00000000 		.4byte	0
 3590 07ea 00000000 		.4byte	0
 3591              	.LLST19:
ARM GAS  /var/folders/t8/16hdwfmd2fg_d3q6dgx6bpmw0000gn/T//cchN4XO4.s 			page 64


 3592 07ee 20000000 		.4byte	.LVL54
 3593 07f2 6C000000 		.4byte	.LVL72
 3594 07f6 0100     		.2byte	0x1
 3595 07f8 55       		.byte	0x55
 3596 07f9 72000000 		.4byte	.LVL75
 3597 07fd 7A000000 		.4byte	.LFE6
 3598 0801 0100     		.2byte	0x1
 3599 0803 55       		.byte	0x55
 3600 0804 00000000 		.4byte	0
 3601 0808 00000000 		.4byte	0
 3602              	.LLST20:
 3603 080c 58000000 		.4byte	.LVL65
 3604 0810 5C000000 		.4byte	.LVL66
 3605 0814 0100     		.2byte	0x1
 3606 0816 51       		.byte	0x51
 3607 0817 5E000000 		.4byte	.LVL67
 3608 081b 63000000 		.4byte	.LVL69-1
 3609 081f 0100     		.2byte	0x1
 3610 0821 51       		.byte	0x51
 3611 0822 68000000 		.4byte	.LVL70
 3612 0826 6C000000 		.4byte	.LVL71
 3613 082a 0100     		.2byte	0x1
 3614 082c 51       		.byte	0x51
 3615 082d 00000000 		.4byte	0
 3616 0831 00000000 		.4byte	0
 3617              	.LLST21:
 3618 0835 20000000 		.4byte	.LVL54
 3619 0839 2C000000 		.4byte	.LVL55
 3620 083d 0100     		.2byte	0x1
 3621 083f 58       		.byte	0x58
 3622 0840 2C000000 		.4byte	.LVL55
 3623 0844 30000000 		.4byte	.LVL56
 3624 0848 0300     		.2byte	0x3
 3625 084a 73       		.byte	0x73
 3626 084b 01       		.sleb128 1
 3627 084c 9F       		.byte	0x9f
 3628 084d 30000000 		.4byte	.LVL56
 3629 0851 38000000 		.4byte	.LVL58
 3630 0855 0100     		.2byte	0x1
 3631 0857 53       		.byte	0x53
 3632 0858 38000000 		.4byte	.LVL58
 3633 085c 40000000 		.4byte	.LVL60
 3634 0860 0300     		.2byte	0x3
 3635 0862 73       		.byte	0x73
 3636 0863 01       		.sleb128 1
 3637 0864 9F       		.byte	0x9f
 3638 0865 72000000 		.4byte	.LVL75
 3639 0869 7A000000 		.4byte	.LFE6
 3640 086d 0100     		.2byte	0x1
 3641 086f 58       		.byte	0x58
 3642 0870 00000000 		.4byte	0
 3643 0874 00000000 		.4byte	0
 3644              	.LLST7:
 3645 0878 00000000 		.4byte	.LVL26
 3646 087c 1A000000 		.4byte	.LVL27
 3647 0880 0100     		.2byte	0x1
 3648 0882 50       		.byte	0x50
ARM GAS  /var/folders/t8/16hdwfmd2fg_d3q6dgx6bpmw0000gn/T//cchN4XO4.s 			page 65


 3649 0883 1A000000 		.4byte	.LVL27
 3650 0887 2C000000 		.4byte	.LVL30
 3651 088b 0100     		.2byte	0x1
 3652 088d 56       		.byte	0x56
 3653 088e 48000000 		.4byte	.LVL34
 3654 0892 4C000000 		.4byte	.LVL36
 3655 0896 0100     		.2byte	0x1
 3656 0898 51       		.byte	0x51
 3657 0899 4C000000 		.4byte	.LVL36
 3658 089d 84000000 		.4byte	.LVL44
 3659 08a1 0100     		.2byte	0x1
 3660 08a3 56       		.byte	0x56
 3661 08a4 94000000 		.4byte	.LVL46
 3662 08a8 A8000000 		.4byte	.LFE2
 3663 08ac 0100     		.2byte	0x1
 3664 08ae 56       		.byte	0x56
 3665 08af 00000000 		.4byte	0
 3666 08b3 00000000 		.4byte	0
 3667              	.LLST8:
 3668 08b7 00000000 		.4byte	.LVL26
 3669 08bb 1A000000 		.4byte	.LVL27
 3670 08bf 0100     		.2byte	0x1
 3671 08c1 51       		.byte	0x51
 3672 08c2 1A000000 		.4byte	.LVL27
 3673 08c6 88000000 		.4byte	.LVL45
 3674 08ca 0100     		.2byte	0x1
 3675 08cc 57       		.byte	0x57
 3676 08cd 88000000 		.4byte	.LVL45
 3677 08d1 94000000 		.4byte	.LVL46
 3678 08d5 0400     		.2byte	0x4
 3679 08d7 F3       		.byte	0xf3
 3680 08d8 01       		.uleb128 0x1
 3681 08d9 51       		.byte	0x51
 3682 08da 9F       		.byte	0x9f
 3683 08db 94000000 		.4byte	.LVL46
 3684 08df A8000000 		.4byte	.LFE2
 3685 08e3 0100     		.2byte	0x1
 3686 08e5 57       		.byte	0x57
 3687 08e6 00000000 		.4byte	0
 3688 08ea 00000000 		.4byte	0
 3689              	.LLST9:
 3690 08ee 00000000 		.4byte	.LVL26
 3691 08f2 1A000000 		.4byte	.LVL27
 3692 08f6 0100     		.2byte	0x1
 3693 08f8 52       		.byte	0x52
 3694 08f9 1A000000 		.4byte	.LVL27
 3695 08fd 34000000 		.4byte	.LVL31
 3696 0901 0100     		.2byte	0x1
 3697 0903 55       		.byte	0x55
 3698 0904 34000000 		.4byte	.LVL31
 3699 0908 82000000 		.4byte	.LVL43
 3700 090c 0400     		.2byte	0x4
 3701 090e F3       		.byte	0xf3
 3702 090f 01       		.uleb128 0x1
 3703 0910 52       		.byte	0x52
 3704 0911 9F       		.byte	0x9f
 3705 0912 82000000 		.4byte	.LVL43
ARM GAS  /var/folders/t8/16hdwfmd2fg_d3q6dgx6bpmw0000gn/T//cchN4XO4.s 			page 66


 3706 0916 84000000 		.4byte	.LVL44
 3707 091a 0100     		.2byte	0x1
 3708 091c 55       		.byte	0x55
 3709 091d 84000000 		.4byte	.LVL44
 3710 0921 A8000000 		.4byte	.LFE2
 3711 0925 0400     		.2byte	0x4
 3712 0927 F3       		.byte	0xf3
 3713 0928 01       		.uleb128 0x1
 3714 0929 52       		.byte	0x52
 3715 092a 9F       		.byte	0x9f
 3716 092b 00000000 		.4byte	0
 3717 092f 00000000 		.4byte	0
 3718              	.LLST10:
 3719 0933 00000000 		.4byte	.LVL26
 3720 0937 1A000000 		.4byte	.LVL27
 3721 093b 0100     		.2byte	0x1
 3722 093d 53       		.byte	0x53
 3723 093e 1A000000 		.4byte	.LVL27
 3724 0942 78000000 		.4byte	.LVL41
 3725 0946 0100     		.2byte	0x1
 3726 0948 58       		.byte	0x58
 3727 0949 78000000 		.4byte	.LVL41
 3728 094d 82000000 		.4byte	.LVL43
 3729 0951 0100     		.2byte	0x1
 3730 0953 52       		.byte	0x52
 3731 0954 82000000 		.4byte	.LVL43
 3732 0958 84000000 		.4byte	.LVL44
 3733 095c 0100     		.2byte	0x1
 3734 095e 58       		.byte	0x58
 3735 095f 84000000 		.4byte	.LVL44
 3736 0963 94000000 		.4byte	.LVL46
 3737 0967 0100     		.2byte	0x1
 3738 0969 52       		.byte	0x52
 3739 096a 94000000 		.4byte	.LVL46
 3740 096e 9C000000 		.4byte	.LVL47
 3741 0972 0100     		.2byte	0x1
 3742 0974 58       		.byte	0x58
 3743 0975 9C000000 		.4byte	.LVL47
 3744 0979 9E000000 		.4byte	.LVL48
 3745 097d 0100     		.2byte	0x1
 3746 097f 52       		.byte	0x52
 3747 0980 9E000000 		.4byte	.LVL48
 3748 0984 A4000000 		.4byte	.LVL50
 3749 0988 0100     		.2byte	0x1
 3750 098a 58       		.byte	0x58
 3751 098b A4000000 		.4byte	.LVL50
 3752 098f A8000000 		.4byte	.LFE2
 3753 0993 0100     		.2byte	0x1
 3754 0995 52       		.byte	0x52
 3755 0996 00000000 		.4byte	0
 3756 099a 00000000 		.4byte	0
 3757              	.LLST11:
 3758 099e 00000000 		.4byte	.LVL26
 3759 09a2 3C000000 		.4byte	.LVL32
 3760 09a6 0200     		.2byte	0x2
 3761 09a8 30       		.byte	0x30
 3762 09a9 9F       		.byte	0x9f
ARM GAS  /var/folders/t8/16hdwfmd2fg_d3q6dgx6bpmw0000gn/T//cchN4XO4.s 			page 67


 3763 09aa 3C000000 		.4byte	.LVL32
 3764 09ae 58000000 		.4byte	.LVL38
 3765 09b2 0100     		.2byte	0x1
 3766 09b4 59       		.byte	0x59
 3767 09b5 58000000 		.4byte	.LVL38
 3768 09b9 5C000000 		.4byte	.LVL39
 3769 09bd 0200     		.2byte	0x2
 3770 09bf 30       		.byte	0x30
 3771 09c0 9F       		.byte	0x9f
 3772 09c1 7A000000 		.4byte	.LVL42
 3773 09c5 82000000 		.4byte	.LVL43
 3774 09c9 0100     		.2byte	0x1
 3775 09cb 59       		.byte	0x59
 3776 09cc 82000000 		.4byte	.LVL43
 3777 09d0 84000000 		.4byte	.LVL44
 3778 09d4 0200     		.2byte	0x2
 3779 09d6 30       		.byte	0x30
 3780 09d7 9F       		.byte	0x9f
 3781 09d8 94000000 		.4byte	.LVL46
 3782 09dc A6000000 		.4byte	.LVL51
 3783 09e0 0200     		.2byte	0x2
 3784 09e2 30       		.byte	0x30
 3785 09e3 9F       		.byte	0x9f
 3786 09e4 A6000000 		.4byte	.LVL51
 3787 09e8 A8000000 		.4byte	.LFE2
 3788 09ec 0200     		.2byte	0x2
 3789 09ee 31       		.byte	0x31
 3790 09ef 9F       		.byte	0x9f
 3791 09f0 00000000 		.4byte	0
 3792 09f4 00000000 		.4byte	0
 3793              	.LLST12:
 3794 09f8 00000000 		.4byte	.LVL26
 3795 09fc 1A000000 		.4byte	.LVL27
 3796 0a00 0200     		.2byte	0x2
 3797 0a02 31       		.byte	0x31
 3798 0a03 9F       		.byte	0x9f
 3799 0a04 1A000000 		.4byte	.LVL27
 3800 0a08 1C000000 		.4byte	.LVL28
 3801 0a0c 0600     		.2byte	0x6
 3802 0a0e 77       		.byte	0x77
 3803 0a0f 00       		.sleb128 0
 3804 0a10 74       		.byte	0x74
 3805 0a11 00       		.sleb128 0
 3806 0a12 1E       		.byte	0x1e
 3807 0a13 9F       		.byte	0x9f
 3808 0a14 1C000000 		.4byte	.LVL28
 3809 0a18 2C000000 		.4byte	.LVL30
 3810 0a1c 0100     		.2byte	0x1
 3811 0a1e 54       		.byte	0x54
 3812 0a1f 82000000 		.4byte	.LVL43
 3813 0a23 84000000 		.4byte	.LVL44
 3814 0a27 0100     		.2byte	0x1
 3815 0a29 54       		.byte	0x54
 3816 0a2a 00000000 		.4byte	0
 3817 0a2e 00000000 		.4byte	0
 3818              	.LLST13:
 3819 0a32 48000000 		.4byte	.LVL34
ARM GAS  /var/folders/t8/16hdwfmd2fg_d3q6dgx6bpmw0000gn/T//cchN4XO4.s 			page 68


 3820 0a36 4A000000 		.4byte	.LVL35
 3821 0a3a 0100     		.2byte	0x1
 3822 0a3c 50       		.byte	0x50
 3823 0a3d 4A000000 		.4byte	.LVL35
 3824 0a41 6C000000 		.4byte	.LVL40
 3825 0a45 0100     		.2byte	0x1
 3826 0a47 55       		.byte	0x55
 3827 0a48 94000000 		.4byte	.LVL46
 3828 0a4c A2000000 		.4byte	.LVL49
 3829 0a50 0100     		.2byte	0x1
 3830 0a52 55       		.byte	0x55
 3831 0a53 A2000000 		.4byte	.LVL49
 3832 0a57 A8000000 		.4byte	.LFE2
 3833 0a5b 0300     		.2byte	0x3
 3834 0a5d 75       		.byte	0x75
 3835 0a5e 50       		.sleb128 -48
 3836 0a5f 9F       		.byte	0x9f
 3837 0a60 00000000 		.4byte	0
 3838 0a64 00000000 		.4byte	0
 3839              	.LLST0:
 3840 0a68 00000000 		.4byte	.LVL0
 3841 0a6c 1A000000 		.4byte	.LVL1
 3842 0a70 0100     		.2byte	0x1
 3843 0a72 50       		.byte	0x50
 3844 0a73 1A000000 		.4byte	.LVL1
 3845 0a77 2C000000 		.4byte	.LVL4
 3846 0a7b 0100     		.2byte	0x1
 3847 0a7d 56       		.byte	0x56
 3848 0a7e 48000000 		.4byte	.LVL8
 3849 0a82 4C000000 		.4byte	.LVL10
 3850 0a86 0100     		.2byte	0x1
 3851 0a88 51       		.byte	0x51
 3852 0a89 4C000000 		.4byte	.LVL10
 3853 0a8d 84000000 		.4byte	.LVL18
 3854 0a91 0100     		.2byte	0x1
 3855 0a93 56       		.byte	0x56
 3856 0a94 94000000 		.4byte	.LVL20
 3857 0a98 A8000000 		.4byte	.LFE0
 3858 0a9c 0100     		.2byte	0x1
 3859 0a9e 56       		.byte	0x56
 3860 0a9f 00000000 		.4byte	0
 3861 0aa3 00000000 		.4byte	0
 3862              	.LLST1:
 3863 0aa7 00000000 		.4byte	.LVL0
 3864 0aab 1A000000 		.4byte	.LVL1
 3865 0aaf 0100     		.2byte	0x1
 3866 0ab1 51       		.byte	0x51
 3867 0ab2 1A000000 		.4byte	.LVL1
 3868 0ab6 88000000 		.4byte	.LVL19
 3869 0aba 0100     		.2byte	0x1
 3870 0abc 57       		.byte	0x57
 3871 0abd 88000000 		.4byte	.LVL19
 3872 0ac1 94000000 		.4byte	.LVL20
 3873 0ac5 0400     		.2byte	0x4
 3874 0ac7 F3       		.byte	0xf3
 3875 0ac8 01       		.uleb128 0x1
 3876 0ac9 51       		.byte	0x51
ARM GAS  /var/folders/t8/16hdwfmd2fg_d3q6dgx6bpmw0000gn/T//cchN4XO4.s 			page 69


 3877 0aca 9F       		.byte	0x9f
 3878 0acb 94000000 		.4byte	.LVL20
 3879 0acf A8000000 		.4byte	.LFE0
 3880 0ad3 0100     		.2byte	0x1
 3881 0ad5 57       		.byte	0x57
 3882 0ad6 00000000 		.4byte	0
 3883 0ada 00000000 		.4byte	0
 3884              	.LLST2:
 3885 0ade 00000000 		.4byte	.LVL0
 3886 0ae2 1A000000 		.4byte	.LVL1
 3887 0ae6 0100     		.2byte	0x1
 3888 0ae8 52       		.byte	0x52
 3889 0ae9 1A000000 		.4byte	.LVL1
 3890 0aed 34000000 		.4byte	.LVL5
 3891 0af1 0100     		.2byte	0x1
 3892 0af3 55       		.byte	0x55
 3893 0af4 34000000 		.4byte	.LVL5
 3894 0af8 82000000 		.4byte	.LVL17
 3895 0afc 0400     		.2byte	0x4
 3896 0afe F3       		.byte	0xf3
 3897 0aff 01       		.uleb128 0x1
 3898 0b00 52       		.byte	0x52
 3899 0b01 9F       		.byte	0x9f
 3900 0b02 82000000 		.4byte	.LVL17
 3901 0b06 84000000 		.4byte	.LVL18
 3902 0b0a 0100     		.2byte	0x1
 3903 0b0c 55       		.byte	0x55
 3904 0b0d 84000000 		.4byte	.LVL18
 3905 0b11 A8000000 		.4byte	.LFE0
 3906 0b15 0400     		.2byte	0x4
 3907 0b17 F3       		.byte	0xf3
 3908 0b18 01       		.uleb128 0x1
 3909 0b19 52       		.byte	0x52
 3910 0b1a 9F       		.byte	0x9f
 3911 0b1b 00000000 		.4byte	0
 3912 0b1f 00000000 		.4byte	0
 3913              	.LLST3:
 3914 0b23 00000000 		.4byte	.LVL0
 3915 0b27 1A000000 		.4byte	.LVL1
 3916 0b2b 0100     		.2byte	0x1
 3917 0b2d 53       		.byte	0x53
 3918 0b2e 1A000000 		.4byte	.LVL1
 3919 0b32 78000000 		.4byte	.LVL15
 3920 0b36 0100     		.2byte	0x1
 3921 0b38 58       		.byte	0x58
 3922 0b39 78000000 		.4byte	.LVL15
 3923 0b3d 82000000 		.4byte	.LVL17
 3924 0b41 0100     		.2byte	0x1
 3925 0b43 52       		.byte	0x52
 3926 0b44 82000000 		.4byte	.LVL17
 3927 0b48 84000000 		.4byte	.LVL18
 3928 0b4c 0100     		.2byte	0x1
 3929 0b4e 58       		.byte	0x58
 3930 0b4f 84000000 		.4byte	.LVL18
 3931 0b53 94000000 		.4byte	.LVL20
 3932 0b57 0100     		.2byte	0x1
 3933 0b59 52       		.byte	0x52
ARM GAS  /var/folders/t8/16hdwfmd2fg_d3q6dgx6bpmw0000gn/T//cchN4XO4.s 			page 70


 3934 0b5a 94000000 		.4byte	.LVL20
 3935 0b5e 9C000000 		.4byte	.LVL21
 3936 0b62 0100     		.2byte	0x1
 3937 0b64 58       		.byte	0x58
 3938 0b65 9C000000 		.4byte	.LVL21
 3939 0b69 9E000000 		.4byte	.LVL22
 3940 0b6d 0100     		.2byte	0x1
 3941 0b6f 52       		.byte	0x52
 3942 0b70 9E000000 		.4byte	.LVL22
 3943 0b74 A4000000 		.4byte	.LVL24
 3944 0b78 0100     		.2byte	0x1
 3945 0b7a 58       		.byte	0x58
 3946 0b7b A4000000 		.4byte	.LVL24
 3947 0b7f A8000000 		.4byte	.LFE0
 3948 0b83 0100     		.2byte	0x1
 3949 0b85 52       		.byte	0x52
 3950 0b86 00000000 		.4byte	0
 3951 0b8a 00000000 		.4byte	0
 3952              	.LLST4:
 3953 0b8e 00000000 		.4byte	.LVL0
 3954 0b92 3C000000 		.4byte	.LVL6
 3955 0b96 0200     		.2byte	0x2
 3956 0b98 30       		.byte	0x30
 3957 0b99 9F       		.byte	0x9f
 3958 0b9a 3C000000 		.4byte	.LVL6
 3959 0b9e 58000000 		.4byte	.LVL12
 3960 0ba2 0100     		.2byte	0x1
 3961 0ba4 59       		.byte	0x59
 3962 0ba5 58000000 		.4byte	.LVL12
 3963 0ba9 5C000000 		.4byte	.LVL13
 3964 0bad 0200     		.2byte	0x2
 3965 0baf 30       		.byte	0x30
 3966 0bb0 9F       		.byte	0x9f
 3967 0bb1 7A000000 		.4byte	.LVL16
 3968 0bb5 82000000 		.4byte	.LVL17
 3969 0bb9 0100     		.2byte	0x1
 3970 0bbb 59       		.byte	0x59
 3971 0bbc 82000000 		.4byte	.LVL17
 3972 0bc0 84000000 		.4byte	.LVL18
 3973 0bc4 0200     		.2byte	0x2
 3974 0bc6 30       		.byte	0x30
 3975 0bc7 9F       		.byte	0x9f
 3976 0bc8 94000000 		.4byte	.LVL20
 3977 0bcc A6000000 		.4byte	.LVL25
 3978 0bd0 0200     		.2byte	0x2
 3979 0bd2 30       		.byte	0x30
 3980 0bd3 9F       		.byte	0x9f
 3981 0bd4 A6000000 		.4byte	.LVL25
 3982 0bd8 A8000000 		.4byte	.LFE0
 3983 0bdc 0200     		.2byte	0x2
 3984 0bde 31       		.byte	0x31
 3985 0bdf 9F       		.byte	0x9f
 3986 0be0 00000000 		.4byte	0
 3987 0be4 00000000 		.4byte	0
 3988              	.LLST5:
 3989 0be8 00000000 		.4byte	.LVL0
 3990 0bec 1A000000 		.4byte	.LVL1
ARM GAS  /var/folders/t8/16hdwfmd2fg_d3q6dgx6bpmw0000gn/T//cchN4XO4.s 			page 71


 3991 0bf0 0200     		.2byte	0x2
 3992 0bf2 31       		.byte	0x31
 3993 0bf3 9F       		.byte	0x9f
 3994 0bf4 1A000000 		.4byte	.LVL1
 3995 0bf8 1C000000 		.4byte	.LVL2
 3996 0bfc 0600     		.2byte	0x6
 3997 0bfe 77       		.byte	0x77
 3998 0bff 00       		.sleb128 0
 3999 0c00 74       		.byte	0x74
 4000 0c01 00       		.sleb128 0
 4001 0c02 1E       		.byte	0x1e
 4002 0c03 9F       		.byte	0x9f
 4003 0c04 1C000000 		.4byte	.LVL2
 4004 0c08 2C000000 		.4byte	.LVL4
 4005 0c0c 0100     		.2byte	0x1
 4006 0c0e 54       		.byte	0x54
 4007 0c0f 82000000 		.4byte	.LVL17
 4008 0c13 84000000 		.4byte	.LVL18
 4009 0c17 0100     		.2byte	0x1
 4010 0c19 54       		.byte	0x54
 4011 0c1a 00000000 		.4byte	0
 4012 0c1e 00000000 		.4byte	0
 4013              	.LLST6:
 4014 0c22 48000000 		.4byte	.LVL8
 4015 0c26 4A000000 		.4byte	.LVL9
 4016 0c2a 0100     		.2byte	0x1
 4017 0c2c 50       		.byte	0x50
 4018 0c2d 4A000000 		.4byte	.LVL9
 4019 0c31 6C000000 		.4byte	.LVL14
 4020 0c35 0100     		.2byte	0x1
 4021 0c37 55       		.byte	0x55
 4022 0c38 94000000 		.4byte	.LVL20
 4023 0c3c A2000000 		.4byte	.LVL23
 4024 0c40 0100     		.2byte	0x1
 4025 0c42 55       		.byte	0x55
 4026 0c43 A2000000 		.4byte	.LVL23
 4027 0c47 A8000000 		.4byte	.LFE0
 4028 0c4b 0300     		.2byte	0x3
 4029 0c4d 75       		.byte	0x75
 4030 0c4e 50       		.sleb128 -48
 4031 0c4f 9F       		.byte	0x9f
 4032 0c50 00000000 		.4byte	0
 4033 0c54 00000000 		.4byte	0
 4034              		.section	.debug_aranges,"",%progbits
 4035 0000 54000000 		.4byte	0x54
 4036 0004 0200     		.2byte	0x2
 4037 0006 00000000 		.4byte	.Ldebug_info0
 4038 000a 04       		.byte	0x4
 4039 000b 00       		.byte	0
 4040 000c 0000     		.2byte	0
 4041 000e 0000     		.2byte	0
 4042 0010 00000000 		.4byte	.LFB0
 4043 0014 A8000000 		.4byte	.LFE0-.LFB0
 4044 0018 00000000 		.4byte	.LFB2
 4045 001c A8000000 		.4byte	.LFE2-.LFB2
 4046 0020 00000000 		.4byte	.LFB6
 4047 0024 7A000000 		.4byte	.LFE6-.LFB6
ARM GAS  /var/folders/t8/16hdwfmd2fg_d3q6dgx6bpmw0000gn/T//cchN4XO4.s 			page 72


 4048 0028 00000000 		.4byte	.LFB10
 4049 002c 0A000000 		.4byte	.LFE10-.LFB10
 4050 0030 00000000 		.4byte	.LFB7
 4051 0034 1C020000 		.4byte	.LFE7-.LFB7
 4052 0038 00000000 		.4byte	.LFB8
 4053 003c 14000000 		.4byte	.LFE8-.LFB8
 4054 0040 00000000 		.4byte	.LFB9
 4055 0044 28000000 		.4byte	.LFE9-.LFB9
 4056 0048 00000000 		.4byte	.LFB11
 4057 004c 28000000 		.4byte	.LFE11-.LFB11
 4058 0050 00000000 		.4byte	0
 4059 0054 00000000 		.4byte	0
 4060              		.section	.debug_ranges,"",%progbits
 4061              	.Ldebug_ranges0:
 4062 0000 2C000000 		.4byte	.LBB13
 4063 0004 7A000000 		.4byte	.LBE13
 4064 0008 7E000000 		.4byte	.LBB14
 4065 000c 82000000 		.4byte	.LBE14
 4066 0010 94000000 		.4byte	.LBB15
 4067 0014 A8000000 		.4byte	.LBE15
 4068 0018 00000000 		.4byte	0
 4069 001c 00000000 		.4byte	0
 4070 0020 2C000000 		.4byte	.LBB16
 4071 0024 7A000000 		.4byte	.LBE16
 4072 0028 7E000000 		.4byte	.LBB17
 4073 002c 82000000 		.4byte	.LBE17
 4074 0030 94000000 		.4byte	.LBB18
 4075 0034 A8000000 		.4byte	.LBE18
 4076 0038 00000000 		.4byte	0
 4077 003c 00000000 		.4byte	0
 4078 0040 0C000000 		.4byte	.LBB28
 4079 0044 0E000000 		.4byte	.LBE28
 4080 0048 18000000 		.4byte	.LBB49
 4081 004c 1A000000 		.4byte	.LBE49
 4082 0050 3C000000 		.4byte	.LBB50
 4083 0054 1C020000 		.4byte	.LBE50
 4084 0058 00000000 		.4byte	0
 4085 005c 00000000 		.4byte	0
 4086 0060 0C000000 		.4byte	.LBB29
 4087 0064 0E000000 		.4byte	.LBE29
 4088 0068 18000000 		.4byte	.LBB36
 4089 006c 1A000000 		.4byte	.LBE36
 4090 0070 4C010000 		.4byte	.LBB41
 4091 0074 52010000 		.4byte	.LBE41
 4092 0078 56010000 		.4byte	.LBB42
 4093 007c 5A010000 		.4byte	.LBE42
 4094 0080 5C010000 		.4byte	.LBB43
 4095 0084 64010000 		.4byte	.LBE43
 4096 0088 D6010000 		.4byte	.LBB44
 4097 008c E8010000 		.4byte	.LBE44
 4098 0090 00000000 		.4byte	0
 4099 0094 00000000 		.4byte	0
 4100 0098 F8010000 		.4byte	.LBB45
 4101 009c 06020000 		.4byte	.LBE45
 4102 00a0 0A020000 		.4byte	.LBB48
 4103 00a4 1C020000 		.4byte	.LBE48
 4104 00a8 00000000 		.4byte	0
ARM GAS  /var/folders/t8/16hdwfmd2fg_d3q6dgx6bpmw0000gn/T//cchN4XO4.s 			page 73


 4105 00ac 00000000 		.4byte	0
 4106 00b0 00000000 		.4byte	.LFB0
 4107 00b4 A8000000 		.4byte	.LFE0
 4108 00b8 00000000 		.4byte	.LFB2
 4109 00bc A8000000 		.4byte	.LFE2
 4110 00c0 00000000 		.4byte	.LFB6
 4111 00c4 7A000000 		.4byte	.LFE6
 4112 00c8 00000000 		.4byte	.LFB10
 4113 00cc 0A000000 		.4byte	.LFE10
 4114 00d0 00000000 		.4byte	.LFB7
 4115 00d4 1C020000 		.4byte	.LFE7
 4116 00d8 00000000 		.4byte	.LFB8
 4117 00dc 14000000 		.4byte	.LFE8
 4118 00e0 00000000 		.4byte	.LFB9
 4119 00e4 28000000 		.4byte	.LFE9
 4120 00e8 00000000 		.4byte	.LFB11
 4121 00ec 28000000 		.4byte	.LFE11
 4122 00f0 00000000 		.4byte	0
 4123 00f4 00000000 		.4byte	0
 4124              		.section	.debug_line,"",%progbits
 4125              	.Ldebug_line0:
 4126 0000 CE020000 		.section	.debug_str,"MS",%progbits,1
 4126      0200D200 
 4126      00000201 
 4126      FB0E0D00 
 4126      01010101 
 4127              	.LASF4:
 4128 0000 7374646F 		.ascii	"stdout_putp\000"
 4128      75745F70 
 4128      75747000 
 4129              	.LASF24:
 4130 000c 2E2E2F2E 		.ascii	"../../tmk_core/common/chibios/printf.c\000"
 4130      2E2F746D 
 4130      6B5F636F 
 4130      72652F63 
 4130      6F6D6D6F 
 4131              	.LASF20:
 4132 0033 6C6F6E67 		.ascii	"long int\000"
 4132      20696E74 
 4132      00
 4133              	.LASF25:
 4134 003c 2F557365 		.ascii	"/Users/jpablobr/tmp/tmk/di0ib-tmk_keyboard/keyboard"
 4134      72732F6A 
 4134      7061626C 
 4134      6F62722F 
 4134      746D702F 
 4135 006f 2F746565 		.ascii	"/teensy_lc_menelaus\000"
 4135      6E73795F 
 4135      6C635F6D 
 4135      656E656C 
 4135      61757300 
 4136              	.LASF10:
 4137 0083 7466705F 		.ascii	"tfp_format\000"
 4137      666F726D 
 4137      617400
 4138              	.LASF0:
 4139 008e 5F5F676E 		.ascii	"__gnuc_va_list\000"
ARM GAS  /var/folders/t8/16hdwfmd2fg_d3q6dgx6bpmw0000gn/T//cchN4XO4.s 			page 74


 4139      75635F76 
 4139      615F6C69 
 4139      737400
 4140              	.LASF2:
 4141 009d 70757463 		.ascii	"putcf\000"
 4141      6600
 4142              	.LASF13:
 4143 00a3 62617365 		.ascii	"base\000"
 4143      00
 4144              	.LASF16:
 4145 00a8 70757463 		.ascii	"putcp\000"
 4145      7000
 4146              	.LASF1:
 4147 00ae 76615F6C 		.ascii	"va_list\000"
 4147      69737400 
 4148              	.LASF7:
 4149 00b6 696E6974 		.ascii	"init_printf\000"
 4149      5F707269 
 4149      6E746600 
 4150              	.LASF22:
 4151 00c2 6C6F6E67 		.ascii	"long unsigned int\000"
 4151      20756E73 
 4151      69676E65 
 4151      6420696E 
 4151      7400
 4152              	.LASF23:
 4153 00d4 474E5520 		.ascii	"GNU C99 7.2.1 20170904 (release) [ARM/embedded-7-br"
 4153      43393920 
 4153      372E322E 
 4153      31203230 
 4153      31373039 
 4154 0107 616E6368 		.ascii	"anch revision 255204] -mcpu=cortex-m0plus -mno-thum"
 4154      20726576 
 4154      6973696F 
 4154      6E203235 
 4154      35323034 
 4155 013a 622D696E 		.ascii	"b-interwork -mthumb -ggdb -O2 -std=gnu99 -fomit-fra"
 4155      74657277 
 4155      6F726B20 
 4155      2D6D7468 
 4155      756D6220 
 4156 016d 6D652D70 		.ascii	"me-pointer -falign-functions=16 -ffunction-sections"
 4156      6F696E74 
 4156      6572202D 
 4156      66616C69 
 4156      676E2D66 
 4157 01a0 202D6664 		.ascii	" -fdata-sections -fno-common\000"
 4157      6174612D 
 4157      73656374 
 4157      696F6E73 
 4157      202D666E 
 4158              	.LASF5:
 4159 01bd 7466705F 		.ascii	"tfp_sprintf\000"
 4159      73707269 
 4159      6E746600 
 4160              	.LASF12:
 4161 01c9 756E7369 		.ascii	"unsigned int\000"
ARM GAS  /var/folders/t8/16hdwfmd2fg_d3q6dgx6bpmw0000gn/T//cchN4XO4.s 			page 75


 4161      676E6564 
 4161      20696E74 
 4161      00
 4162              	.LASF15:
 4163 01d6 64696769 		.ascii	"digit\000"
 4163      7400
 4164              	.LASF11:
 4165 01dc 63686172 		.ascii	"char\000"
 4165      00
 4166              	.LASF27:
 4167 01e1 5F5F6170 		.ascii	"__ap\000"
 4167      00
 4168              	.LASF6:
 4169 01e6 7466705F 		.ascii	"tfp_printf\000"
 4169      7072696E 
 4169      746600
 4170              	.LASF26:
 4171 01f1 5F5F7661 		.ascii	"__va_list\000"
 4171      5F6C6973 
 4171      7400
 4172              	.LASF18:
 4173 01fb 75693261 		.ascii	"ui2a\000"
 4173      00
 4174              	.LASF14:
 4175 0200 6E756D70 		.ascii	"nump\000"
 4175      00
 4176              	.LASF21:
 4177 0205 756C6932 		.ascii	"uli2a\000"
 4177      6100
 4178              	.LASF9:
 4179 020b 70757466 		.ascii	"putf\000"
 4179      00
 4180              	.LASF17:
 4181 0210 70757463 		.ascii	"putchw\000"
 4181      687700
 4182              	.LASF8:
 4183 0217 70757470 		.ascii	"putp\000"
 4183      00
 4184              	.LASF28:
 4185 021c 61626F72 		.ascii	"abort\000"
 4185      7400
 4186              	.LASF19:
 4187 0222 6C693261 		.ascii	"li2a\000"
 4187      00
 4188              	.LASF3:
 4189 0227 7374646F 		.ascii	"stdout_putf\000"
 4189      75745F70 
 4189      75746600 
 4190              		.ident	"GCC: (GNU Tools for Arm Embedded Processors 7-2017-q4-major) 7.2.1 20170904 (release) [ARM
ARM GAS  /var/folders/t8/16hdwfmd2fg_d3q6dgx6bpmw0000gn/T//cchN4XO4.s 			page 76


DEFINED SYMBOLS
                            *ABS*:0000000000000000 printf.c
/var/folders/t8/16hdwfmd2fg_d3q6dgx6bpmw0000gn/T//cchN4XO4.s:18     .text.uli2a:0000000000000000 $t
/var/folders/t8/16hdwfmd2fg_d3q6dgx6bpmw0000gn/T//cchN4XO4.s:25     .text.uli2a:0000000000000000 uli2a
/var/folders/t8/16hdwfmd2fg_d3q6dgx6bpmw0000gn/T//cchN4XO4.s:199    .text.ui2a:0000000000000000 $t
/var/folders/t8/16hdwfmd2fg_d3q6dgx6bpmw0000gn/T//cchN4XO4.s:206    .text.ui2a:0000000000000000 ui2a
/var/folders/t8/16hdwfmd2fg_d3q6dgx6bpmw0000gn/T//cchN4XO4.s:379    .text.putchw:0000000000000000 $t
/var/folders/t8/16hdwfmd2fg_d3q6dgx6bpmw0000gn/T//cchN4XO4.s:386    .text.putchw:0000000000000000 putchw
/var/folders/t8/16hdwfmd2fg_d3q6dgx6bpmw0000gn/T//cchN4XO4.s:521    .text.putcp:0000000000000000 $t
/var/folders/t8/16hdwfmd2fg_d3q6dgx6bpmw0000gn/T//cchN4XO4.s:528    .text.putcp:0000000000000000 putcp
/var/folders/t8/16hdwfmd2fg_d3q6dgx6bpmw0000gn/T//cchN4XO4.s:550    .text.tfp_format:0000000000000000 $t
/var/folders/t8/16hdwfmd2fg_d3q6dgx6bpmw0000gn/T//cchN4XO4.s:558    .text.tfp_format:0000000000000000 tfp_format
/var/folders/t8/16hdwfmd2fg_d3q6dgx6bpmw0000gn/T//cchN4XO4.s:1087   .text.init_printf:0000000000000000 $t
/var/folders/t8/16hdwfmd2fg_d3q6dgx6bpmw0000gn/T//cchN4XO4.s:1095   .text.init_printf:0000000000000000 init_printf
/var/folders/t8/16hdwfmd2fg_d3q6dgx6bpmw0000gn/T//cchN4XO4.s:1117   .text.init_printf:000000000000000c $d
/var/folders/t8/16hdwfmd2fg_d3q6dgx6bpmw0000gn/T//cchN4XO4.s:1123   .text.tfp_printf:0000000000000000 $t
/var/folders/t8/16hdwfmd2fg_d3q6dgx6bpmw0000gn/T//cchN4XO4.s:1131   .text.tfp_printf:0000000000000000 tfp_printf
/var/folders/t8/16hdwfmd2fg_d3q6dgx6bpmw0000gn/T//cchN4XO4.s:1169   .text.tfp_printf:0000000000000020 $d
/var/folders/t8/16hdwfmd2fg_d3q6dgx6bpmw0000gn/T//cchN4XO4.s:1175   .text.tfp_sprintf:0000000000000000 $t
/var/folders/t8/16hdwfmd2fg_d3q6dgx6bpmw0000gn/T//cchN4XO4.s:1183   .text.tfp_sprintf:0000000000000000 tfp_sprintf
/var/folders/t8/16hdwfmd2fg_d3q6dgx6bpmw0000gn/T//cchN4XO4.s:1228   .text.tfp_sprintf:0000000000000024 $d
/var/folders/t8/16hdwfmd2fg_d3q6dgx6bpmw0000gn/T//cchN4XO4.s:1233   .bss.stdout_putf:0000000000000000 $d
/var/folders/t8/16hdwfmd2fg_d3q6dgx6bpmw0000gn/T//cchN4XO4.s:1237   .bss.stdout_putf:0000000000000000 stdout_putf
/var/folders/t8/16hdwfmd2fg_d3q6dgx6bpmw0000gn/T//cchN4XO4.s:1240   .bss.stdout_putp:0000000000000000 $d
/var/folders/t8/16hdwfmd2fg_d3q6dgx6bpmw0000gn/T//cchN4XO4.s:1244   .bss.stdout_putp:0000000000000000 stdout_putp

UNDEFINED SYMBOLS
__aeabi_uidiv
__aeabi_uidivmod
