ARM GAS  /var/folders/t8/16hdwfmd2fg_d3q6dgx6bpmw0000gn/T//ccKd7QwK.s 			page 1


   1              		.cpu cortex-m0plus
   2              		.eabi_attribute 20, 1
   3              		.eabi_attribute 21, 1
   4              		.eabi_attribute 23, 3
   5              		.eabi_attribute 24, 1
   6              		.eabi_attribute 25, 1
   7              		.eabi_attribute 26, 1
   8              		.eabi_attribute 30, 2
   9              		.eabi_attribute 34, 0
  10              		.eabi_attribute 18, 4
  11              		.file	"suspend.c"
  12              		.text
  13              	.Ltext0:
  14              		.cfi_sections	.debug_frame
  15              		.global	__aeabi_uidiv
  16              		.global	__aeabi_idiv
  17              		.section	.text.suspend_idle,"ax",%progbits
  18              		.align	1
  19              		.p2align 4,,15
  20              		.global	suspend_idle
  21              		.syntax unified
  22              		.code	16
  23              		.thumb_func
  24              		.fpu softvfp
  25              		.type	suspend_idle, %function
  26              	suspend_idle:
  27              	.LFB177:
  28              		.file 1 "../../tmk_core/common/chibios/suspend.c"
  29              		.loc 1 14 0
  30              		.cfi_startproc
  31              		@ args = 0, pretend = 0, frame = 0
  32              		@ frame_needed = 0, uses_anonymous_args = 0
  33              	.LVL0:
  34 0000 0200     		movs	r2, r0
  35              		.loc 1 16 0
  36 0002 084B     		ldr	r3, .L3
  37 0004 FA21     		movs	r1, #250
  38 0006 9C46     		mov	ip, r3
  39 0008 4001     		lsls	r0, r0, #5
  40              	.LVL1:
  41 000a 801A     		subs	r0, r0, r2
  42              		.loc 1 14 0
  43 000c 10B5     		push	{r4, lr}
  44              		.cfi_def_cfa_offset 8
  45              		.cfi_offset 4, -8
  46              		.cfi_offset 14, -4
  47              		.loc 1 16 0
  48 000e 8000     		lsls	r0, r0, #2
  49 0010 8018     		adds	r0, r0, r2
  50 0012 C000     		lsls	r0, r0, #3
  51 0014 6044     		add	r0, r0, ip
  52 0016 8900     		lsls	r1, r1, #2
  53 0018 FFF7FEFF 		bl	__aeabi_uidiv
  54              	.LVL2:
  55 001c FFF7FEFF 		bl	chThdSleep
  56              	.LVL3:
  57              		.loc 1 17 0
ARM GAS  /var/folders/t8/16hdwfmd2fg_d3q6dgx6bpmw0000gn/T//ccKd7QwK.s 			page 2


  58              		@ sp needed
  59 0020 10BD     		pop	{r4, pc}
  60              	.L4:
  61 0022 C046     		.align	2
  62              	.L3:
  63 0024 E7030000 		.word	999
  64              		.cfi_endproc
  65              	.LFE177:
  66              		.size	suspend_idle, .-suspend_idle
  67              		.section	.text.suspend_power_down,"ax",%progbits
  68              		.align	1
  69              		.p2align 4,,15
  70              		.global	suspend_power_down
  71              		.syntax unified
  72              		.code	16
  73              		.thumb_func
  74              		.fpu softvfp
  75              		.type	suspend_power_down, %function
  76              	suspend_power_down:
  77              	.LFB178:
  78              		.loc 1 19 0
  79              		.cfi_startproc
  80              		@ args = 0, pretend = 0, frame = 0
  81              		@ frame_needed = 0, uses_anonymous_args = 0
  82 0000 10B5     		push	{r4, lr}
  83              		.cfi_def_cfa_offset 8
  84              		.cfi_offset 4, -8
  85              		.cfi_offset 14, -4
  86              		.loc 1 27 0
  87 0002 1120     		movs	r0, #17
  88 0004 FFF7FEFF 		bl	chThdSleep
  89              	.LVL4:
  90              		.loc 1 28 0
  91              		@ sp needed
  92 0008 10BD     		pop	{r4, pc}
  93              		.cfi_endproc
  94              	.LFE178:
  95              		.size	suspend_power_down, .-suspend_power_down
  96 000a C046     		.section	.text.matrix_power_up,"ax",%progbits
  97              		.align	1
  98              		.p2align 4,,15
  99              		.weak	matrix_power_up
 100              		.syntax unified
 101              		.code	16
 102              		.thumb_func
 103              		.fpu softvfp
 104              		.type	matrix_power_up, %function
 105              	matrix_power_up:
 106              	.LFB179:
 107              		.loc 1 30 0
 108              		.cfi_startproc
 109              		@ args = 0, pretend = 0, frame = 0
 110              		@ frame_needed = 0, uses_anonymous_args = 0
 111              		@ link register save eliminated.
 112              		.loc 1 30 0
 113              		@ sp needed
 114 0000 7047     		bx	lr
ARM GAS  /var/folders/t8/16hdwfmd2fg_d3q6dgx6bpmw0000gn/T//ccKd7QwK.s 			page 3


 115              		.cfi_endproc
 116              	.LFE179:
 117              		.size	matrix_power_up, .-matrix_power_up
 118 0002 C046     		.section	.text.matrix_power_down,"ax",%progbits
 119              		.align	1
 120              		.p2align 4,,15
 121              		.weak	matrix_power_down
 122              		.syntax unified
 123              		.code	16
 124              		.thumb_func
 125              		.fpu softvfp
 126              		.type	matrix_power_down, %function
 127              	matrix_power_down:
 128              	.LFB184:
 129              		.cfi_startproc
 130              		@ args = 0, pretend = 0, frame = 0
 131              		@ frame_needed = 0, uses_anonymous_args = 0
 132              		@ link register save eliminated.
 133              		@ sp needed
 134 0000 7047     		bx	lr
 135              		.cfi_endproc
 136              	.LFE184:
 137              		.size	matrix_power_down, .-matrix_power_down
 138 0002 C046     		.section	.text.suspend_wakeup_condition,"ax",%progbits
 139              		.align	1
 140              		.p2align 4,,15
 141              		.global	suspend_wakeup_condition
 142              		.syntax unified
 143              		.code	16
 144              		.thumb_func
 145              		.fpu softvfp
 146              		.type	suspend_wakeup_condition, %function
 147              	suspend_wakeup_condition:
 148              	.LFB181:
 149              		.loc 1 33 0
 150              		.cfi_startproc
 151              		@ args = 0, pretend = 0, frame = 0
 152              		@ frame_needed = 0, uses_anonymous_args = 0
 153              		.loc 1 33 0
 154 0000 10B5     		push	{r4, lr}
 155              		.cfi_def_cfa_offset 8
 156              		.cfi_offset 4, -8
 157              		.cfi_offset 14, -4
 158              		.loc 1 34 0
 159 0002 FFF7FEFF 		bl	matrix_power_up
 160              	.LVL5:
 161              	.LBB2:
 162              		.loc 1 37 0
 163 0006 0024     		movs	r4, #0
 164              	.LBE2:
 165              		.loc 1 35 0
 166 0008 FFF7FEFF 		bl	matrix_scan
 167              	.LVL6:
 168              		.loc 1 36 0
 169 000c FFF7FEFF 		bl	matrix_power_down
 170              	.LVL7:
 171              	.L10:
ARM GAS  /var/folders/t8/16hdwfmd2fg_d3q6dgx6bpmw0000gn/T//ccKd7QwK.s 			page 4


 172              	.LBB3:
 173              		.loc 1 38 0
 174 0010 2000     		movs	r0, r4
 175 0012 FFF7FEFF 		bl	matrix_get_row
 176              	.LVL8:
 177 0016 0028     		cmp	r0, #0
 178 0018 04D1     		bne	.L11
 179              		.loc 1 37 0 discriminator 2
 180 001a 0134     		adds	r4, r4, #1
 181              	.LVL9:
 182 001c E4B2     		uxtb	r4, r4
 183              	.LVL10:
 184 001e 042C     		cmp	r4, #4
 185 0020 F6D1     		bne	.L10
 186              	.L9:
 187              	.LBE3:
 188              		.loc 1 41 0
 189              		@ sp needed
 190              	.LVL11:
 191 0022 10BD     		pop	{r4, pc}
 192              	.LVL12:
 193              	.L11:
 194              	.LBB4:
 195              		.loc 1 38 0
 196 0024 0120     		movs	r0, #1
 197 0026 FCE7     		b	.L9
 198              	.LBE4:
 199              		.cfi_endproc
 200              	.LFE181:
 201              		.size	suspend_wakeup_condition, .-suspend_wakeup_condition
 202              		.section	.text.suspend_wakeup_init,"ax",%progbits
 203              		.align	1
 204              		.p2align 4,,15
 205              		.global	suspend_wakeup_init
 206              		.syntax unified
 207              		.code	16
 208              		.thumb_func
 209              		.fpu softvfp
 210              		.type	suspend_wakeup_init, %function
 211              	suspend_wakeup_init:
 212              	.LFB182:
 213              		.loc 1 45 0
 214              		.cfi_startproc
 215              		@ args = 0, pretend = 0, frame = 0
 216              		@ frame_needed = 0, uses_anonymous_args = 0
 217 0000 10B5     		push	{r4, lr}
 218              		.cfi_def_cfa_offset 8
 219              		.cfi_offset 4, -8
 220              		.cfi_offset 14, -4
 221              		.loc 1 52 0
 222 0002 FFF7FEFF 		bl	clear_mods
 223              	.LVL13:
 224              		.loc 1 53 0
 225 0006 FFF7FEFF 		bl	clear_weak_mods
 226              	.LVL14:
 227              		.loc 1 54 0
 228 000a FFF7FEFF 		bl	clear_keys
ARM GAS  /var/folders/t8/16hdwfmd2fg_d3q6dgx6bpmw0000gn/T//ccKd7QwK.s 			page 5


 229              	.LVL15:
 230              		.loc 1 56 0
 231 000e FFF7FEFF 		bl	mousekey_clear
 232              	.LVL16:
 233              		.loc 1 59 0
 234 0012 0020     		movs	r0, #0
 235 0014 FFF7FEFF 		bl	host_system_send
 236              	.LVL17:
 237              		.loc 1 60 0
 238 0018 0020     		movs	r0, #0
 239 001a FFF7FEFF 		bl	host_consumer_send
 240              	.LVL18:
 241              		.loc 1 65 0
 242              		@ sp needed
 243 001e 10BD     		pop	{r4, pc}
 244              		.cfi_endproc
 245              	.LFE182:
 246              		.size	suspend_wakeup_init, .-suspend_wakeup_init
 247              		.text
 248              	.Letext0:
 249              		.file 2 "/usr/local/Caskroom/gcc-arm-embedded/7-2017-q4-major/gcc-arm-none-eabi-7-2017-q4-major/li
 250              		.file 3 "/usr/local/Caskroom/gcc-arm-embedded/7-2017-q4-major/gcc-arm-none-eabi-7-2017-q4-major/ar
 251              		.file 4 "/usr/local/Caskroom/gcc-arm-embedded/7-2017-q4-major/gcc-arm-none-eabi-7-2017-q4-major/ar
 252              		.file 5 "../../tmk_core/tool/chibios/ChibiOS/os/common/ports/ARMCMx/compilers/GCC/chtypes.h"
 253              		.file 6 "../../tmk_core/tool/chibios/ChibiOS/os/rt/include/chsystypes.h"
 254              		.file 7 "../../tmk_core/tool/chibios/ChibiOS/os/rt/include/chschd.h"
 255              		.file 8 "../../tmk_core/tool/chibios/ChibiOS-Contrib/os/common/ext/CMSIS/KINETIS/kl2xz.h"
 256              		.file 9 "../../tmk_core/tool/chibios/ChibiOS/os/common/ports/ARMCMx/chcore.h"
 257              		.file 10 "../../tmk_core/tool/chibios/ChibiOS/os/common/ports/ARMCMx/chcore_v6m.h"
 258              		.file 11 "../../tmk_core/tool/chibios/ChibiOS/os/rt/include/chsem.h"
 259              		.file 12 "../../tmk_core/tool/chibios/ChibiOS/os/rt/include/chmtx.h"
 260              		.file 13 "../../tmk_core/tool/chibios/ChibiOS/os/rt/include/chregistry.h"
 261              		.file 14 "../../tmk_core/tool/chibios/ChibiOS/os/rt/include/chsys.h"
 262              		.file 15 "../../tmk_core/tool/chibios/ChibiOS-Contrib/os/hal/ports/KINETIS/LLD/hal_pal_lld.h"
 263              		.file 16 "../../tmk_core/tool/chibios/ChibiOS/os/hal/include/hal_usb.h"
 264              		.file 17 "../../tmk_core/tool/chibios/ChibiOS-Contrib/os/hal/ports/KINETIS/LLD/hal_usb_lld.h"
 265              		.file 18 "../../tmk_core/common/report.h"
 266              		.file 19 "../../tmk_core/common/action_util.h"
 267              		.file 20 "../../tmk_core/common/host.h"
 268              		.file 21 "../../tmk_core/common/mousekey.h"
 269              		.file 22 "../../tmk_core/common/matrix.h"
 270              		.file 23 "../../tmk_core/tool/chibios/ChibiOS/os/rt/include/chthreads.h"