ARM GAS  /var/folders/t8/16hdwfmd2fg_d3q6dgx6bpmw0000gn/T//ccqjcya2.s 			page 1


   1              		.cpu cortex-m0plus
   2              		.eabi_attribute 20, 1
   3              		.eabi_attribute 21, 1
   4              		.eabi_attribute 23, 3
   5              		.eabi_attribute 24, 1
   6              		.eabi_attribute 25, 1
   7              		.eabi_attribute 26, 1
   8              		.eabi_attribute 30, 2
   9              		.eabi_attribute 34, 0
  10              		.eabi_attribute 18, 4
  11              		.file	"timer.c"
  12              		.text
  13              	.Ltext0:
  14              		.cfi_sections	.debug_frame
  15              		.section	.text.timer_init,"ax",%progbits
  16              		.align	1
  17              		.p2align 4,,15
  18              		.global	timer_init
  19              		.syntax unified
  20              		.code	16
  21              		.thumb_func
  22              		.fpu softvfp
  23              		.type	timer_init, %function
  24              	timer_init:
  25              	.LFB138:
  26              		.file 1 "../../tmk_core/common/chibios/timer.c"
  27              		.loc 1 5 0
  28              		.cfi_startproc
  29              		@ args = 0, pretend = 0, frame = 0
  30              		@ frame_needed = 0, uses_anonymous_args = 0
  31              		@ link register save eliminated.
  32              		.loc 1 5 0
  33              		@ sp needed
  34 0000 7047     		bx	lr
  35              		.cfi_endproc
  36              	.LFE138:
  37              		.size	timer_init, .-timer_init
  38 0002 C046     		.section	.text.timer_clear,"ax",%progbits
  39              		.align	1
  40              		.p2align 4,,15
  41              		.global	timer_clear
  42              		.syntax unified
  43              		.code	16
  44              		.thumb_func
  45              		.fpu softvfp
  46              		.type	timer_clear, %function
  47              	timer_clear:
  48              	.LFB145:
  49              		.cfi_startproc
  50              		@ args = 0, pretend = 0, frame = 0
  51              		@ frame_needed = 0, uses_anonymous_args = 0
  52              		@ link register save eliminated.
  53              		@ sp needed
  54 0000 7047     		bx	lr
  55              		.cfi_endproc
  56              	.LFE145:
  57              		.size	timer_clear, .-timer_clear
ARM GAS  /var/folders/t8/16hdwfmd2fg_d3q6dgx6bpmw0000gn/T//ccqjcya2.s 			page 2


  58              		.global	__aeabi_uidiv
  59 0002 C046     		.section	.text.timer_read,"ax",%progbits
  60              		.align	1
  61              		.p2align 4,,15
  62              		.global	timer_read
  63              		.syntax unified
  64              		.code	16
  65              		.thumb_func
  66              		.fpu softvfp
  67              		.type	timer_read, %function
  68              	timer_read:
  69              	.LFB140:
  70              		.loc 1 10 0
  71              		.cfi_startproc
  72              		@ args = 0, pretend = 0, frame = 0
  73              		@ frame_needed = 0, uses_anonymous_args = 0
  74              		.loc 1 10 0
  75 0000 70B5     		push	{r4, r5, r6, lr}
  76              		.cfi_def_cfa_offset 16
  77              		.cfi_offset 4, -16
  78              		.cfi_offset 5, -12
  79              		.cfi_offset 6, -8
  80              		.cfi_offset 14, -4
  81              	.LBB63:
  82              	.LBB64:
  83              	.LBB65:
  84              	.LBB66:
  85              	.LBB67:
  86              	.LBB68:
  87              	.LBB69:
  88              		.file 2 "../../tmk_core/tool/chibios/ChibiOS/os/common/ext/CMSIS/include/cmsis_gcc.h"
  89              		.loc 2 71 0
  90              		.syntax divided
  91              	@ 71 "../../tmk_core/tool/chibios/ChibiOS/os/common/ext/CMSIS/include/cmsis_gcc.h" 1
  92 0002 72B6     		cpsid i
  93              	@ 0 "" 2
  94              		.thumb
  95              		.syntax unified
  96              	.LBE69:
  97              	.LBE68:
  98              	.LBE67:
  99              		.file 3 "../../tmk_core/tool/chibios/ChibiOS/os/rt/include/chsys.h"
 100              		.loc 3 378 0
 101 0004 FFF7FEFF 		bl	_dbg_check_lock
 102              	.LVL0:
 103              	.LBE66:
 104              	.LBE65:
 105              	.LBB70:
 106              	.LBB71:
 107              		.file 4 "../../tmk_core/tool/chibios/ChibiOS/os/rt/include/chvt.h"
 108              		.loc 4 231 0
 109 0008 0E4D     		ldr	r5, .L7
 110 000a AC6A     		ldr	r4, [r5, #40]
 111              	.LBE71:
 112              	.LBE70:
 113              	.LBB72:
 114              	.LBB73:
ARM GAS  /var/folders/t8/16hdwfmd2fg_d3q6dgx6bpmw0000gn/T//ccqjcya2.s 			page 3


 115              		.loc 3 388 0
 116 000c FFF7FEFF 		bl	_dbg_check_unlock
 117              	.LVL1:
 118              		.loc 3 395 0
 119 0010 2B68     		ldr	r3, [r5]
 120 0012 AB42     		cmp	r3, r5
 121 0014 04D0     		beq	.L5
 122 0016 AA69     		ldr	r2, [r5, #24]
 123 0018 9B68     		ldr	r3, [r3, #8]
 124 001a 9268     		ldr	r2, [r2, #8]
 125 001c 9A42     		cmp	r2, r3
 126 001e 0DD3     		bcc	.L6
 127              	.L5:
 128              	.LBB74:
 129              	.LBB75:
 130              	.LBB76:
 131              		.loc 2 60 0
 132              		.syntax divided
 133              	@ 60 "../../tmk_core/tool/chibios/ChibiOS/os/common/ext/CMSIS/include/cmsis_gcc.h" 1
 134 0020 62B6     		cpsie i
 135              	@ 0 "" 2
 136              		.thumb
 137              		.syntax unified
 138              	.LBE76:
 139              	.LBE75:
 140              	.LBE74:
 141              	.LBE73:
 142              	.LBE72:
 143              	.LBE64:
 144              	.LBE63:
 145              		.loc 1 11 0
 146 0022 FA21     		movs	r1, #250
 147 0024 0134     		adds	r4, r4, #1
 148 0026 6001     		lsls	r0, r4, #5
 149 0028 001B     		subs	r0, r0, r4
 150 002a 8000     		lsls	r0, r0, #2
 151 002c 0019     		adds	r0, r0, r4
 152 002e C000     		lsls	r0, r0, #3
 153 0030 8900     		lsls	r1, r1, #2
 154 0032 0138     		subs	r0, r0, #1
 155 0034 FFF7FEFF 		bl	__aeabi_uidiv
 156              	.LVL2:
 157              		.loc 1 12 0
 158              		@ sp needed
 159              		.loc 1 11 0
 160 0038 80B2     		uxth	r0, r0
 161              		.loc 1 12 0
 162 003a 70BD     		pop	{r4, r5, r6, pc}
 163              	.L6:
 164              	.LBB80:
 165              	.LBB79:
 166              	.LBB78:
 167              	.LBB77:
 168              		.loc 3 395 0
 169 003c 0248     		ldr	r0, .L7+4
 170 003e FFF7FEFF 		bl	chSysHalt
 171              	.LVL3:
ARM GAS  /var/folders/t8/16hdwfmd2fg_d3q6dgx6bpmw0000gn/T//ccqjcya2.s 			page 4


 172 0042 EDE7     		b	.L5
 173              	.L8:
 174              		.align	2
 175              	.L7:
 176 0044 00000000 		.word	ch
 177 0048 00000000 		.word	.LANCHOR0
 178              	.LBE77:
 179              	.LBE78:
 180              	.LBE79:
 181              	.LBE80:
 182              		.cfi_endproc
 183              	.LFE140:
 184              		.size	timer_read, .-timer_read
 185              		.section	.text.timer_read32,"ax",%progbits
 186              		.align	1
 187              		.p2align 4,,15
 188              		.global	timer_read32
 189              		.syntax unified
 190              		.code	16
 191              		.thumb_func
 192              		.fpu softvfp
 193              		.type	timer_read32, %function
 194              	timer_read32:
 195              	.LFB141:
 196              		.loc 1 15 0
 197              		.cfi_startproc
 198              		@ args = 0, pretend = 0, frame = 0
 199              		@ frame_needed = 0, uses_anonymous_args = 0
 200 0000 70B5     		push	{r4, r5, r6, lr}
 201              		.cfi_def_cfa_offset 16
 202              		.cfi_offset 4, -16
 203              		.cfi_offset 5, -12
 204              		.cfi_offset 6, -8
 205              		.cfi_offset 14, -4
 206              	.LBB95:
 207              	.LBB96:
 208              	.LBB97:
 209              	.LBB98:
 210              	.LBB99:
 211              	.LBB100:
 212              	.LBB101:
 213              		.loc 2 71 0
 214              		.syntax divided
 215              	@ 71 "../../tmk_core/tool/chibios/ChibiOS/os/common/ext/CMSIS/include/cmsis_gcc.h" 1
 216 0002 72B6     		cpsid i
 217              	@ 0 "" 2
 218              		.thumb
 219              		.syntax unified
 220              	.LBE101:
 221              	.LBE100:
 222              	.LBE99:
 223              		.loc 3 378 0
 224 0004 FFF7FEFF 		bl	_dbg_check_lock
 225              	.LVL4:
 226              	.LBE98:
 227              	.LBE97:
 228              	.LBB102:
ARM GAS  /var/folders/t8/16hdwfmd2fg_d3q6dgx6bpmw0000gn/T//ccqjcya2.s 			page 5


 229              	.LBB103:
 230              		.loc 4 231 0
 231 0008 0E4D     		ldr	r5, .L12
 232 000a AC6A     		ldr	r4, [r5, #40]
 233              	.LBE103:
 234              	.LBE102:
 235              	.LBB104:
 236              	.LBB105:
 237              		.loc 3 388 0
 238 000c FFF7FEFF 		bl	_dbg_check_unlock
 239              	.LVL5:
 240              		.loc 3 395 0
 241 0010 2B68     		ldr	r3, [r5]
 242 0012 AB42     		cmp	r3, r5
 243 0014 04D0     		beq	.L10
 244 0016 AA69     		ldr	r2, [r5, #24]
 245 0018 9B68     		ldr	r3, [r3, #8]
 246 001a 9268     		ldr	r2, [r2, #8]
 247 001c 9A42     		cmp	r2, r3
 248 001e 0CD3     		bcc	.L11
 249              	.L10:
 250              	.LBB106:
 251              	.LBB107:
 252              	.LBB108:
 253              		.loc 2 60 0
 254              		.syntax divided
 255              	@ 60 "../../tmk_core/tool/chibios/ChibiOS/os/common/ext/CMSIS/include/cmsis_gcc.h" 1
 256 0020 62B6     		cpsie i
 257              	@ 0 "" 2
 258              		.thumb
 259              		.syntax unified
 260              	.LBE108:
 261              	.LBE107:
 262              	.LBE106:
 263              	.LBE105:
 264              	.LBE104:
 265              	.LBE96:
 266              	.LBE95:
 267              		.loc 1 16 0
 268 0022 FA21     		movs	r1, #250
 269 0024 0134     		adds	r4, r4, #1
 270 0026 6001     		lsls	r0, r4, #5
 271 0028 001B     		subs	r0, r0, r4
 272 002a 8000     		lsls	r0, r0, #2
 273 002c 0019     		adds	r0, r0, r4
 274 002e C000     		lsls	r0, r0, #3
 275 0030 8900     		lsls	r1, r1, #2
 276 0032 0138     		subs	r0, r0, #1
 277 0034 FFF7FEFF 		bl	__aeabi_uidiv
 278              	.LVL6:
 279              		.loc 1 17 0
 280              		@ sp needed
 281 0038 70BD     		pop	{r4, r5, r6, pc}
 282              	.L11:
 283              	.LBB112:
 284              	.LBB111:
 285              	.LBB110:
ARM GAS  /var/folders/t8/16hdwfmd2fg_d3q6dgx6bpmw0000gn/T//ccqjcya2.s 			page 6


 286              	.LBB109:
 287              		.loc 3 395 0
 288 003a 0348     		ldr	r0, .L12+4
 289 003c FFF7FEFF 		bl	chSysHalt
 290              	.LVL7:
 291 0040 EEE7     		b	.L10
 292              	.L13:
 293 0042 C046     		.align	2
 294              	.L12:
 295 0044 00000000 		.word	ch
 296 0048 00000000 		.word	.LANCHOR0
 297              	.LBE109:
 298              	.LBE110:
 299              	.LBE111:
 300              	.LBE112:
 301              		.cfi_endproc
 302              	.LFE141:
 303              		.size	timer_read32, .-timer_read32
 304              		.global	__aeabi_idiv
 305              		.section	.text.timer_elapsed,"ax",%progbits
 306              		.align	1
 307              		.p2align 4,,15
 308              		.global	timer_elapsed
 309              		.syntax unified
 310              		.code	16
 311              		.thumb_func
 312              		.fpu softvfp
 313              		.type	timer_elapsed, %function
 314              	timer_elapsed:
 315              	.LFB142:
 316              		.loc 1 20 0
 317              		.cfi_startproc
 318              		@ args = 0, pretend = 0, frame = 0
 319              		@ frame_needed = 0, uses_anonymous_args = 0
 320              	.LVL8:
 321 0000 0100     		movs	r1, r0
 322              	.LBB113:
 323              	.LBB114:
 324              	.LBB115:
 325              		.loc 4 231 0
 326 0002 0E4B     		ldr	r3, .L15
 327              	.LBE115:
 328              	.LBE114:
 329              	.LBE113:
 330              		.loc 1 21 0
 331 0004 4001     		lsls	r0, r0, #5
 332              	.LVL9:
 333              		.loc 1 20 0
 334 0006 10B5     		push	{r4, lr}
 335              		.cfi_def_cfa_offset 8
 336              		.cfi_offset 4, -8
 337              		.cfi_offset 14, -4
 338              		.loc 1 21 0
 339 0008 401A     		subs	r0, r0, r1
 340              	.LBB118:
 341              	.LBB117:
 342              	.LBB116:
ARM GAS  /var/folders/t8/16hdwfmd2fg_d3q6dgx6bpmw0000gn/T//ccqjcya2.s 			page 7


 343              		.loc 4 231 0
 344 000a 9C6A     		ldr	r4, [r3, #40]
 345              	.LVL10:
 346              	.LBE116:
 347              	.LBE117:
 348              	.LBE118:
 349              		.loc 1 21 0
 350 000c 0C4B     		ldr	r3, .L15+4
 351 000e 8000     		lsls	r0, r0, #2
 352 0010 9C46     		mov	ip, r3
 353 0012 4018     		adds	r0, r0, r1
 354 0014 FA21     		movs	r1, #250
 355 0016 C000     		lsls	r0, r0, #3
 356 0018 6044     		add	r0, r0, ip
 357 001a 8900     		lsls	r1, r1, #2
 358 001c FFF7FEFF 		bl	__aeabi_uidiv
 359              	.LVL11:
 360 0020 FA21     		movs	r1, #250
 361 0022 0134     		adds	r4, r4, #1
 362 0024 241A     		subs	r4, r4, r0
 363 0026 6001     		lsls	r0, r4, #5
 364 0028 001B     		subs	r0, r0, r4
 365 002a 8000     		lsls	r0, r0, #2
 366 002c 0019     		adds	r0, r0, r4
 367 002e C000     		lsls	r0, r0, #3
 368 0030 8900     		lsls	r1, r1, #2
 369 0032 0138     		subs	r0, r0, #1
 370 0034 FFF7FEFF 		bl	__aeabi_uidiv
 371              	.LVL12:
 372              		.loc 1 22 0
 373              		@ sp needed
 374              		.loc 1 21 0
 375 0038 80B2     		uxth	r0, r0
 376              		.loc 1 22 0
 377 003a 10BD     		pop	{r4, pc}
 378              	.L16:
 379              		.align	2
 380              	.L15:
 381 003c 00000000 		.word	ch
 382 0040 E7030000 		.word	999
 383              		.cfi_endproc
 384              	.LFE142:
 385              		.size	timer_elapsed, .-timer_elapsed
 386              		.section	.text.timer_elapsed32,"ax",%progbits
 387              		.align	1
 388              		.p2align 4,,15
 389              		.global	timer_elapsed32
 390              		.syntax unified
 391              		.code	16
 392              		.thumb_func
 393              		.fpu softvfp
 394              		.type	timer_elapsed32, %function
 395              	timer_elapsed32:
 396              	.LFB143:
 397              		.loc 1 25 0
 398              		.cfi_startproc
 399              		@ args = 0, pretend = 0, frame = 0
ARM GAS  /var/folders/t8/16hdwfmd2fg_d3q6dgx6bpmw0000gn/T//ccqjcya2.s 			page 8


 400              		@ frame_needed = 0, uses_anonymous_args = 0
 401              	.LVL13:
 402 0000 0100     		movs	r1, r0
 403              	.LBB119:
 404              	.LBB120:
 405              	.LBB121:
 406              		.loc 4 231 0
 407 0002 0E4B     		ldr	r3, .L18
 408              	.LBE121:
 409              	.LBE120:
 410              	.LBE119:
 411              		.loc 1 26 0
 412 0004 4001     		lsls	r0, r0, #5
 413              	.LVL14:
 414              		.loc 1 25 0
 415 0006 10B5     		push	{r4, lr}
 416              		.cfi_def_cfa_offset 8
 417              		.cfi_offset 4, -8
 418              		.cfi_offset 14, -4
 419              		.loc 1 26 0
 420 0008 401A     		subs	r0, r0, r1
 421              	.LBB124:
 422              	.LBB123:
 423              	.LBB122:
 424              		.loc 4 231 0
 425 000a 9C6A     		ldr	r4, [r3, #40]
 426              	.LVL15:
 427              	.LBE122:
 428              	.LBE123:
 429              	.LBE124:
 430              		.loc 1 26 0
 431 000c 0C4B     		ldr	r3, .L18+4
 432 000e 8000     		lsls	r0, r0, #2
 433 0010 9C46     		mov	ip, r3
 434 0012 4018     		adds	r0, r0, r1
 435 0014 FA21     		movs	r1, #250
 436              	.LVL16:
 437 0016 C000     		lsls	r0, r0, #3
 438 0018 6044     		add	r0, r0, ip
 439 001a 8900     		lsls	r1, r1, #2
 440 001c FFF7FEFF 		bl	__aeabi_uidiv
 441              	.LVL17:
 442 0020 FA21     		movs	r1, #250
 443 0022 0134     		adds	r4, r4, #1
 444 0024 241A     		subs	r4, r4, r0
 445 0026 6001     		lsls	r0, r4, #5
 446 0028 001B     		subs	r0, r0, r4
 447 002a 8000     		lsls	r0, r0, #2
 448 002c 0019     		adds	r0, r0, r4
 449 002e C000     		lsls	r0, r0, #3
 450 0030 8900     		lsls	r1, r1, #2
 451 0032 0138     		subs	r0, r0, #1
 452 0034 FFF7FEFF 		bl	__aeabi_uidiv
 453              	.LVL18:
 454              		.loc 1 27 0
 455              		@ sp needed
 456 0038 10BD     		pop	{r4, pc}
ARM GAS  /var/folders/t8/16hdwfmd2fg_d3q6dgx6bpmw0000gn/T//ccqjcya2.s 			page 9


 457              	.L19:
 458 003a C046     		.align	2
 459              	.L18:
 460 003c 00000000 		.word	ch
 461 0040 E7030000 		.word	999
 462              		.cfi_endproc
 463              	.LFE143:
 464              		.size	timer_elapsed32, .-timer_elapsed32
 465              		.section	.rodata.__func__.5043,"a",%progbits
 466              		.align	2
 467              		.set	.LANCHOR0,. + 0
 468              		.type	__func__.5043, %object
 469              		.size	__func__.5043, 12
 470              	__func__.5043:
 471 0000 63685379 		.ascii	"chSysUnlock\000"
 471      73556E6C 
 471      6F636B00 
 472              		.text
 473              	.Letext0:
 474              		.file 5 "/usr/local/Caskroom/gcc-arm-embedded/7-2017-q4-major/gcc-arm-none-eabi-7-2017-q4-major/ar
 475              		.file 6 "/usr/local/Caskroom/gcc-arm-embedded/7-2017-q4-major/gcc-arm-none-eabi-7-2017-q4-major/ar
 476              		.file 7 "../../tmk_core/tool/chibios/ChibiOS/os/common/ports/ARMCMx/compilers/GCC/chtypes.h"
 477              		.file 8 "../../tmk_core/tool/chibios/ChibiOS/os/rt/include/chsystypes.h"
 478              		.file 9 "../../tmk_core/tool/chibios/ChibiOS/os/rt/include/chschd.h"
 479              		.file 10 "../../tmk_core/tool/chibios/ChibiOS/os/common/ports/ARMCMx/chcore.h"
 480              		.file 11 "../../tmk_core/tool/chibios/ChibiOS/os/common/ports/ARMCMx/chcore_v6m.h"
 481              		.file 12 "../../tmk_core/tool/chibios/ChibiOS/os/rt/include/chsem.h"
 482              		.file 13 "../../tmk_core/tool/chibios/ChibiOS/os/rt/include/chmtx.h"
 483              		.file 14 "../../tmk_core/tool/chibios/ChibiOS/os/rt/include/chregistry.h"
 484              		.file 15 "../../tmk_core/common/timer.h"
 485              		.file 16 "../../tmk_core/tool/chibios/ChibiOS/os/rt/include/chdebug.h"
 486              		.section	.debug_info,"",%progbits
 487              	.Ldebug_info0:
 488 0000 7D0A0000 		.4byte	0xa7d
 489 0004 0400     		.2byte	0x4
 490 0006 00000000 		.4byte	.Ldebug_abbrev0
 491 000a 04       		.byte	0x4
 492 000b 01       		.uleb128 0x1
 493 000c 19000000 		.4byte	.LASF129
 494 0010 0C       		.byte	0xc
 495 0011 02040000 		.4byte	.LASF130
 496 0015 55040000 		.4byte	.LASF131
 497 0019 90000000 		.4byte	.Ldebug_ranges0+0x90
 498 001d 00000000 		.4byte	0
 499 0021 00000000 		.4byte	.Ldebug_line0
 500 0025 02       		.uleb128 0x2
 501 0026 04       		.byte	0x4
 502 0027 07       		.byte	0x7
 503 0028 46010000 		.4byte	.LASF0
 504 002c 03       		.uleb128 0x3
 505 002d 04       		.byte	0x4
 506 002e 05       		.byte	0x5
 507 002f 696E7400 		.ascii	"int\000"
 508 0033 02       		.uleb128 0x2
 509 0034 01       		.byte	0x1
 510 0035 06       		.byte	0x6
 511 0036 39060000 		.4byte	.LASF1
ARM GAS  /var/folders/t8/16hdwfmd2fg_d3q6dgx6bpmw0000gn/T//ccqjcya2.s 			page 10


 512 003a 04       		.uleb128 0x4
 513 003b 4E050000 		.4byte	.LASF4
 514 003f 05       		.byte	0x5
 515 0040 2B       		.byte	0x2b
 516 0041 45000000 		.4byte	0x45
 517 0045 02       		.uleb128 0x2
 518 0046 01       		.byte	0x1
 519 0047 08       		.byte	0x8
 520 0048 E0050000 		.4byte	.LASF2
 521 004c 02       		.uleb128 0x2
 522 004d 02       		.byte	0x2
 523 004e 05       		.byte	0x5
 524 004f E6040000 		.4byte	.LASF3
 525 0053 04       		.uleb128 0x4
 526 0054 8D020000 		.4byte	.LASF5
 527 0058 05       		.byte	0x5
 528 0059 39       		.byte	0x39
 529 005a 5E000000 		.4byte	0x5e
 530 005e 02       		.uleb128 0x2
 531 005f 02       		.byte	0x2
 532 0060 07       		.byte	0x7
 533 0061 56060000 		.4byte	.LASF6
 534 0065 04       		.uleb128 0x4
 535 0066 82010000 		.4byte	.LASF7
 536 006a 05       		.byte	0x5
 537 006b 4D       		.byte	0x4d
 538 006c 70000000 		.4byte	0x70
 539 0070 02       		.uleb128 0x2
 540 0071 04       		.byte	0x4
 541 0072 05       		.byte	0x5
 542 0073 FE040000 		.4byte	.LASF8
 543 0077 04       		.uleb128 0x4
 544 0078 EE050000 		.4byte	.LASF9
 545 007c 05       		.byte	0x5
 546 007d 4F       		.byte	0x4f
 547 007e 82000000 		.4byte	0x82
 548 0082 02       		.uleb128 0x2
 549 0083 04       		.byte	0x4
 550 0084 07       		.byte	0x7
 551 0085 9E050000 		.4byte	.LASF10
 552 0089 02       		.uleb128 0x2
 553 008a 08       		.byte	0x8
 554 008b 05       		.byte	0x5
 555 008c DD030000 		.4byte	.LASF11
 556 0090 04       		.uleb128 0x4
 557 0091 2F030000 		.4byte	.LASF12
 558 0095 05       		.byte	0x5
 559 0096 69       		.byte	0x69
 560 0097 9B000000 		.4byte	0x9b
 561 009b 02       		.uleb128 0x2
 562 009c 08       		.byte	0x8
 563 009d 07       		.byte	0x7
 564 009e 76020000 		.4byte	.LASF13
 565 00a2 04       		.uleb128 0x4
 566 00a3 9A030000 		.4byte	.LASF14
 567 00a7 06       		.byte	0x6
 568 00a8 18       		.byte	0x18
ARM GAS  /var/folders/t8/16hdwfmd2fg_d3q6dgx6bpmw0000gn/T//ccqjcya2.s 			page 11


 569 00a9 3A000000 		.4byte	0x3a
 570 00ad 04       		.uleb128 0x4
 571 00ae C1040000 		.4byte	.LASF15
 572 00b2 06       		.byte	0x6
 573 00b3 24       		.byte	0x24
 574 00b4 53000000 		.4byte	0x53
 575 00b8 04       		.uleb128 0x4
 576 00b9 C3050000 		.4byte	.LASF16
 577 00bd 06       		.byte	0x6
 578 00be 2C       		.byte	0x2c
 579 00bf 65000000 		.4byte	0x65
 580 00c3 04       		.uleb128 0x4
 581 00c4 28020000 		.4byte	.LASF17
 582 00c8 06       		.byte	0x6
 583 00c9 30       		.byte	0x30
 584 00ca 77000000 		.4byte	0x77
 585 00ce 05       		.uleb128 0x5
 586 00cf C3000000 		.4byte	0xc3
 587 00d3 04       		.uleb128 0x4
 588 00d4 3F050000 		.4byte	.LASF18
 589 00d8 06       		.byte	0x6
 590 00d9 3C       		.byte	0x3c
 591 00da 90000000 		.4byte	0x90
 592 00de 04       		.uleb128 0x4
 593 00df A6040000 		.4byte	.LASF19
 594 00e3 07       		.byte	0x7
 595 00e4 3C       		.byte	0x3c
 596 00e5 A2000000 		.4byte	0xa2
 597 00e9 04       		.uleb128 0x4
 598 00ea 91030000 		.4byte	.LASF20
 599 00ee 07       		.byte	0x7
 600 00ef 3D       		.byte	0x3d
 601 00f0 A2000000 		.4byte	0xa2
 602 00f4 04       		.uleb128 0x4
 603 00f5 96050000 		.4byte	.LASF21
 604 00f9 07       		.byte	0x7
 605 00fa 3E       		.byte	0x3e
 606 00fb A2000000 		.4byte	0xa2
 607 00ff 04       		.uleb128 0x4
 608 0100 4B040000 		.4byte	.LASF22
 609 0104 07       		.byte	0x7
 610 0105 3F       		.byte	0x3f
 611 0106 A2000000 		.4byte	0xa2
 612 010a 04       		.uleb128 0x4
 613 010b 5D020000 		.4byte	.LASF23
 614 010f 07       		.byte	0x7
 615 0110 40       		.byte	0x40
 616 0111 C3000000 		.4byte	0xc3
 617 0115 04       		.uleb128 0x4
 618 0116 28040000 		.4byte	.LASF24
 619 011a 07       		.byte	0x7
 620 011b 41       		.byte	0x41
 621 011c B8000000 		.4byte	0xb8
 622 0120 04       		.uleb128 0x4
 623 0121 39020000 		.4byte	.LASF25
 624 0125 07       		.byte	0x7
 625 0126 43       		.byte	0x43
ARM GAS  /var/folders/t8/16hdwfmd2fg_d3q6dgx6bpmw0000gn/T//ccqjcya2.s 			page 12


 626 0127 C3000000 		.4byte	0xc3
 627 012b 04       		.uleb128 0x4
 628 012c 98020000 		.4byte	.LASF26
 629 0130 07       		.byte	0x7
 630 0131 45       		.byte	0x45
 631 0132 B8000000 		.4byte	0xb8
 632 0136 04       		.uleb128 0x4
 633 0137 2A010000 		.4byte	.LASF27
 634 013b 08       		.byte	0x8
 635 013c 33       		.byte	0x33
 636 013d C3000000 		.4byte	0xc3
 637 0141 05       		.uleb128 0x5
 638 0142 36010000 		.4byte	0x136
 639 0146 04       		.uleb128 0x4
 640 0147 E8020000 		.4byte	.LASF28
 641 014b 08       		.byte	0x8
 642 014c 3F       		.byte	0x3f
 643 014d 51010000 		.4byte	0x151
 644 0151 06       		.uleb128 0x6
 645 0152 AB030000 		.4byte	.LASF47
 646 0156 44       		.byte	0x44
 647 0157 09       		.byte	0x9
 648 0158 9A       		.byte	0x9a
 649 0159 3B020000 		.4byte	0x23b
 650 015d 07       		.uleb128 0x7
 651 015e BD050000 		.4byte	.LASF29
 652 0162 09       		.byte	0x9
 653 0163 9B       		.byte	0x9b
 654 0164 70020000 		.4byte	0x270
 655 0168 00       		.byte	0
 656 0169 07       		.uleb128 0x7
 657 016a 5B030000 		.4byte	.LASF30
 658 016e 09       		.byte	0x9
 659 016f 9C       		.byte	0x9c
 660 0170 0A010000 		.4byte	0x10a
 661 0174 08       		.byte	0x8
 662 0175 08       		.uleb128 0x8
 663 0176 63747800 		.ascii	"ctx\000"
 664 017a 09       		.byte	0x9
 665 017b 9D       		.byte	0x9d
 666 017c 6F040000 		.4byte	0x46f
 667 0180 0C       		.byte	0xc
 668 0181 07       		.uleb128 0x7
 669 0182 DA050000 		.4byte	.LASF31
 670 0186 09       		.byte	0x9
 671 0187 9F       		.byte	0x9f
 672 0188 46020000 		.4byte	0x246
 673 018c 10       		.byte	0x10
 674 018d 07       		.uleb128 0x7
 675 018e AF060000 		.4byte	.LASF32
 676 0192 09       		.byte	0x9
 677 0193 A0       		.byte	0xa0
 678 0194 46020000 		.4byte	0x246
 679 0198 14       		.byte	0x14
 680 0199 07       		.uleb128 0x7
 681 019a 68050000 		.4byte	.LASF33
 682 019e 09       		.byte	0x9
ARM GAS  /var/folders/t8/16hdwfmd2fg_d3q6dgx6bpmw0000gn/T//ccqjcya2.s 			page 13


 683 019f A7       		.byte	0xa7
 684 01a0 CA050000 		.4byte	0x5ca
 685 01a4 18       		.byte	0x18
 686 01a5 07       		.uleb128 0x7
 687 01a6 78030000 		.4byte	.LASF34
 688 01aa 09       		.byte	0x9
 689 01ab B0       		.byte	0xb0
 690 01ac E1050000 		.4byte	0x5e1
 691 01b0 1C       		.byte	0x1c
 692 01b1 07       		.uleb128 0x7
 693 01b2 17060000 		.4byte	.LASF35
 694 01b6 09       		.byte	0x9
 695 01b7 B5       		.byte	0xb5
 696 01b8 E9000000 		.4byte	0xe9
 697 01bc 20       		.byte	0x20
 698 01bd 07       		.uleb128 0x7
 699 01be 24010000 		.4byte	.LASF36
 700 01c2 09       		.byte	0x9
 701 01c3 B9       		.byte	0xb9
 702 01c4 DE000000 		.4byte	0xde
 703 01c8 21       		.byte	0x21
 704 01c9 07       		.uleb128 0x7
 705 01ca 8C010000 		.4byte	.LASF37
 706 01ce 09       		.byte	0x9
 707 01cf BE       		.byte	0xbe
 708 01d0 F4000000 		.4byte	0xf4
 709 01d4 22       		.byte	0x22
 710 01d5 07       		.uleb128 0x7
 711 01d6 13050000 		.4byte	.LASF38
 712 01da 09       		.byte	0x9
 713 01db C4       		.byte	0xc4
 714 01dc FF000000 		.4byte	0xff
 715 01e0 23       		.byte	0x23
 716 01e1 09       		.uleb128 0x9
 717 01e2 7500     		.ascii	"u\000"
 718 01e4 09       		.byte	0x9
 719 01e5 0F01     		.2byte	0x10f
 720 01e7 FF040000 		.4byte	0x4ff
 721 01eb 24       		.byte	0x24
 722 01ec 0A       		.uleb128 0xa
 723 01ed F9050000 		.4byte	.LASF39
 724 01f1 09       		.byte	0x9
 725 01f2 1401     		.2byte	0x114
 726 01f4 4C020000 		.4byte	0x24c
 727 01f8 28       		.byte	0x28
 728 01f9 0A       		.uleb128 0xa
 729 01fa A2030000 		.4byte	.LASF40
 730 01fe 09       		.byte	0x9
 731 01ff 1A01     		.2byte	0x11a
 732 0201 70020000 		.4byte	0x270
 733 0205 2C       		.byte	0x2c
 734 0206 0A       		.uleb128 0xa
 735 0207 3D010000 		.4byte	.LASF41
 736 020b 09       		.byte	0x9
 737 020c 2001     		.2byte	0x120
 738 020e 20010000 		.4byte	0x120
 739 0212 34       		.byte	0x34
ARM GAS  /var/folders/t8/16hdwfmd2fg_d3q6dgx6bpmw0000gn/T//ccqjcya2.s 			page 14


 740 0213 0A       		.uleb128 0xa
 741 0214 C9020000 		.4byte	.LASF42
 742 0218 09       		.byte	0x9
 743 0219 2701     		.2byte	0x127
 744 021b C4050000 		.4byte	0x5c4
 745 021f 38       		.byte	0x38
 746 0220 0A       		.uleb128 0xa
 747 0221 34010000 		.4byte	.LASF43
 748 0225 09       		.byte	0x9
 749 0226 2B01     		.2byte	0x12b
 750 0228 0A010000 		.4byte	0x10a
 751 022c 3C       		.byte	0x3c
 752 022d 0A       		.uleb128 0xa
 753 022e BE060000 		.4byte	.LASF44
 754 0232 09       		.byte	0x9
 755 0233 3201     		.2byte	0x132
 756 0235 23030000 		.4byte	0x323
 757 0239 40       		.byte	0x40
 758 023a 00       		.byte	0
 759 023b 04       		.uleb128 0x4
 760 023c 65030000 		.4byte	.LASF45
 761 0240 08       		.byte	0x8
 762 0241 44       		.byte	0x44
 763 0242 46020000 		.4byte	0x246
 764 0246 0B       		.uleb128 0xb
 765 0247 04       		.byte	0x4
 766 0248 46010000 		.4byte	0x146
 767 024c 04       		.uleb128 0x4
 768 024d 73010000 		.4byte	.LASF46
 769 0251 08       		.byte	0x8
 770 0252 49       		.byte	0x49
 771 0253 57020000 		.4byte	0x257
 772 0257 06       		.uleb128 0x6
 773 0258 00000000 		.4byte	.LASF48
 774 025c 04       		.byte	0x4
 775 025d 09       		.byte	0x9
 776 025e 88       		.byte	0x88
 777 025f 70020000 		.4byte	0x270
 778 0263 07       		.uleb128 0x7
 779 0264 53010000 		.4byte	.LASF49
 780 0268 09       		.byte	0x9
 781 0269 89       		.byte	0x89
 782 026a 46020000 		.4byte	0x246
 783 026e 00       		.byte	0
 784 026f 00       		.byte	0
 785 0270 04       		.uleb128 0x4
 786 0271 B9020000 		.4byte	.LASF50
 787 0275 08       		.byte	0x8
 788 0276 50       		.byte	0x50
 789 0277 7B020000 		.4byte	0x27b
 790 027b 06       		.uleb128 0x6
 791 027c DE010000 		.4byte	.LASF51
 792 0280 08       		.byte	0x8
 793 0281 09       		.byte	0x9
 794 0282 8F       		.byte	0x8f
 795 0283 A0020000 		.4byte	0x2a0
 796 0287 07       		.uleb128 0x7
ARM GAS  /var/folders/t8/16hdwfmd2fg_d3q6dgx6bpmw0000gn/T//ccqjcya2.s 			page 15


 797 0288 53010000 		.4byte	.LASF49
 798 028c 09       		.byte	0x9
 799 028d 90       		.byte	0x90
 800 028e 46020000 		.4byte	0x246
 801 0292 00       		.byte	0
 802 0293 07       		.uleb128 0x7
 803 0294 D9010000 		.4byte	.LASF52
 804 0298 09       		.byte	0x9
 805 0299 91       		.byte	0x91
 806 029a 46020000 		.4byte	0x246
 807 029e 04       		.byte	0x4
 808 029f 00       		.byte	0
 809 02a0 04       		.uleb128 0x4
 810 02a1 B0050000 		.4byte	.LASF53
 811 02a5 08       		.byte	0x8
 812 02a6 57       		.byte	0x57
 813 02a7 AB020000 		.4byte	0x2ab
 814 02ab 0C       		.uleb128 0xc
 815 02ac BF010000 		.4byte	.LASF54
 816 02b0 1C       		.byte	0x1c
 817 02b1 09       		.byte	0x9
 818 02b2 6A01     		.2byte	0x16a
 819 02b4 07030000 		.4byte	0x307
 820 02b8 0A       		.uleb128 0xa
 821 02b9 BD050000 		.4byte	.LASF29
 822 02bd 09       		.byte	0x9
 823 02be 6B01     		.2byte	0x16b
 824 02c0 70020000 		.4byte	0x270
 825 02c4 00       		.byte	0
 826 02c5 0A       		.uleb128 0xa
 827 02c6 5B030000 		.4byte	.LASF30
 828 02ca 09       		.byte	0x9
 829 02cb 6C01     		.2byte	0x16c
 830 02cd 0A010000 		.4byte	0x10a
 831 02d1 08       		.byte	0x8
 832 02d2 09       		.uleb128 0x9
 833 02d3 63747800 		.ascii	"ctx\000"
 834 02d7 09       		.byte	0x9
 835 02d8 6E01     		.2byte	0x16e
 836 02da 6F040000 		.4byte	0x46f
 837 02de 0C       		.byte	0xc
 838 02df 0A       		.uleb128 0xa
 839 02e0 DA050000 		.4byte	.LASF31
 840 02e4 09       		.byte	0x9
 841 02e5 7101     		.2byte	0x171
 842 02e7 46020000 		.4byte	0x246
 843 02eb 10       		.byte	0x10
 844 02ec 0A       		.uleb128 0xa
 845 02ed AF060000 		.4byte	.LASF32
 846 02f1 09       		.byte	0x9
 847 02f2 7201     		.2byte	0x172
 848 02f4 46020000 		.4byte	0x246
 849 02f8 14       		.byte	0x14
 850 02f9 0A       		.uleb128 0xa
 851 02fa 7D060000 		.4byte	.LASF55
 852 02fe 09       		.byte	0x9
 853 02ff 7501     		.2byte	0x175
ARM GAS  /var/folders/t8/16hdwfmd2fg_d3q6dgx6bpmw0000gn/T//ccqjcya2.s 			page 16


 854 0301 46020000 		.4byte	0x246
 855 0305 18       		.byte	0x18
 856 0306 00       		.byte	0
 857 0307 04       		.uleb128 0x4
 858 0308 F9010000 		.4byte	.LASF56
 859 030c 08       		.byte	0x8
 860 030d 5C       		.byte	0x5c
 861 030e 12030000 		.4byte	0x312
 862 0312 0B       		.uleb128 0xb
 863 0313 04       		.byte	0x4
 864 0314 18030000 		.4byte	0x318
 865 0318 0D       		.uleb128 0xd
 866 0319 23030000 		.4byte	0x323
 867 031d 0E       		.uleb128 0xe
 868 031e 23030000 		.4byte	0x323
 869 0322 00       		.byte	0
 870 0323 0F       		.uleb128 0xf
 871 0324 04       		.byte	0x4
 872 0325 04       		.uleb128 0x4
 873 0326 2E040000 		.4byte	.LASF57
 874 032a 08       		.byte	0x8
 875 032b 61       		.byte	0x61
 876 032c 30030000 		.4byte	0x330
 877 0330 0C       		.uleb128 0xc
 878 0331 65020000 		.4byte	.LASF58
 879 0335 14       		.byte	0x14
 880 0336 09       		.byte	0x9
 881 0337 4501     		.2byte	0x145
 882 0339 7F030000 		.4byte	0x37f
 883 033d 0A       		.uleb128 0xa
 884 033e 53010000 		.4byte	.LASF49
 885 0342 09       		.byte	0x9
 886 0343 4601     		.2byte	0x146
 887 0345 E7050000 		.4byte	0x5e7
 888 0349 00       		.byte	0
 889 034a 0A       		.uleb128 0xa
 890 034b D9010000 		.4byte	.LASF52
 891 034f 09       		.byte	0x9
 892 0350 4701     		.2byte	0x147
 893 0352 E7050000 		.4byte	0x5e7
 894 0356 04       		.byte	0x4
 895 0357 0A       		.uleb128 0xa
 896 0358 45060000 		.4byte	.LASF59
 897 035c 09       		.byte	0x9
 898 035d 4801     		.2byte	0x148
 899 035f 36010000 		.4byte	0x136
 900 0363 08       		.byte	0x8
 901 0364 0A       		.uleb128 0xa
 902 0365 CD010000 		.4byte	.LASF60
 903 0369 09       		.byte	0x9
 904 036a 4901     		.2byte	0x149
 905 036c 07030000 		.4byte	0x307
 906 0370 0C       		.byte	0xc
 907 0371 09       		.uleb128 0x9
 908 0372 70617200 		.ascii	"par\000"
 909 0376 09       		.byte	0x9
 910 0377 4B01     		.2byte	0x14b
ARM GAS  /var/folders/t8/16hdwfmd2fg_d3q6dgx6bpmw0000gn/T//ccqjcya2.s 			page 17


 911 0379 23030000 		.4byte	0x323
 912 037d 10       		.byte	0x10
 913 037e 00       		.byte	0
 914 037f 04       		.uleb128 0x4
 915 0380 01060000 		.4byte	.LASF61
 916 0384 08       		.byte	0x8
 917 0385 66       		.byte	0x66
 918 0386 8A030000 		.4byte	0x38a
 919 038a 0C       		.uleb128 0xc
 920 038b D1020000 		.4byte	.LASF62
 921 038f 10       		.byte	0x10
 922 0390 09       		.byte	0x9
 923 0391 5501     		.2byte	0x155
 924 0393 CC030000 		.4byte	0x3cc
 925 0397 0A       		.uleb128 0xa
 926 0398 53010000 		.4byte	.LASF49
 927 039c 09       		.byte	0x9
 928 039d 5601     		.2byte	0x156
 929 039f E7050000 		.4byte	0x5e7
 930 03a3 00       		.byte	0
 931 03a4 0A       		.uleb128 0xa
 932 03a5 D9010000 		.4byte	.LASF52
 933 03a9 09       		.byte	0x9
 934 03aa 5801     		.2byte	0x158
 935 03ac E7050000 		.4byte	0x5e7
 936 03b0 04       		.byte	0x4
 937 03b1 0A       		.uleb128 0xa
 938 03b2 45060000 		.4byte	.LASF59
 939 03b6 09       		.byte	0x9
 940 03b7 5A01     		.2byte	0x15a
 941 03b9 36010000 		.4byte	0x136
 942 03bd 08       		.byte	0x8
 943 03be 0A       		.uleb128 0xa
 944 03bf AE040000 		.4byte	.LASF63
 945 03c3 09       		.byte	0x9
 946 03c4 5C01     		.2byte	0x15c
 947 03c6 41010000 		.4byte	0x141
 948 03ca 0C       		.byte	0xc
 949 03cb 00       		.byte	0
 950 03cc 04       		.uleb128 0x4
 951 03cd BE030000 		.4byte	.LASF64
 952 03d1 08       		.byte	0x8
 953 03d2 6B       		.byte	0x6b
 954 03d3 D7030000 		.4byte	0x3d7
 955 03d7 0C       		.uleb128 0xc
 956 03d8 18020000 		.4byte	.LASF65
 957 03dc 0C       		.byte	0xc
 958 03dd 09       		.byte	0x9
 959 03de 7C01     		.2byte	0x17c
 960 03e0 0C040000 		.4byte	0x40c
 961 03e4 0A       		.uleb128 0xa
 962 03e5 9C040000 		.4byte	.LASF66
 963 03e9 09       		.byte	0x9
 964 03ea 8401     		.2byte	0x184
 965 03ec D0050000 		.4byte	0x5d0
 966 03f0 00       		.byte	0
 967 03f1 0A       		.uleb128 0xa
ARM GAS  /var/folders/t8/16hdwfmd2fg_d3q6dgx6bpmw0000gn/T//ccqjcya2.s 			page 18


 968 03f2 AB020000 		.4byte	.LASF67
 969 03f6 09       		.byte	0x9
 970 03f7 8901     		.2byte	0x189
 971 03f9 2B010000 		.4byte	0x12b
 972 03fd 04       		.byte	0x4
 973 03fe 0A       		.uleb128 0xa
 974 03ff DD040000 		.4byte	.LASF68
 975 0403 09       		.byte	0x9
 976 0404 8D01     		.2byte	0x18d
 977 0406 2B010000 		.4byte	0x12b
 978 040a 08       		.byte	0x8
 979 040b 00       		.byte	0
 980 040c 04       		.uleb128 0x4
 981 040d 27060000 		.4byte	.LASF69
 982 0411 08       		.byte	0x8
 983 0412 70       		.byte	0x70
 984 0413 17040000 		.4byte	0x417
 985 0417 0C       		.uleb128 0xc
 986 0418 28050000 		.4byte	.LASF70
 987 041c 7C       		.byte	0x7c
 988 041d 09       		.byte	0x9
 989 041e 9C01     		.2byte	0x19c
 990 0420 59040000 		.4byte	0x459
 991 0424 0A       		.uleb128 0xa
 992 0425 48050000 		.4byte	.LASF71
 993 0429 09       		.byte	0x9
 994 042a A001     		.2byte	0x1a0
 995 042c A0020000 		.4byte	0x2a0
 996 0430 00       		.byte	0
 997 0431 0A       		.uleb128 0xa
 998 0432 AB010000 		.4byte	.LASF72
 999 0436 09       		.byte	0x9
 1000 0437 A401     		.2byte	0x1a4
 1001 0439 7F030000 		.4byte	0x37f
 1002 043d 1C       		.byte	0x1c
 1003 043e 09       		.uleb128 0x9
 1004 043f 64626700 		.ascii	"dbg\000"
 1005 0443 09       		.byte	0x9
 1006 0444 A801     		.2byte	0x1a8
 1007 0446 CC030000 		.4byte	0x3cc
 1008 044a 2C       		.byte	0x2c
 1009 044b 0A       		.uleb128 0xa
 1010 044c B6040000 		.4byte	.LASF73
 1011 0450 09       		.byte	0x9
 1012 0451 AC01     		.2byte	0x1ac
 1013 0453 46010000 		.4byte	0x146
 1014 0457 38       		.byte	0x38
 1015 0458 00       		.byte	0
 1016 0459 04       		.uleb128 0x4
 1017 045a 1B010000 		.4byte	.LASF74
 1018 045e 0A       		.byte	0xa
 1019 045f 65       		.byte	0x65
 1020 0460 23030000 		.4byte	0x323
 1021 0464 04       		.uleb128 0x4
 1022 0465 69060000 		.4byte	.LASF75
 1023 0469 0A       		.byte	0xa
 1024 046a 6D       		.byte	0x6d
ARM GAS  /var/folders/t8/16hdwfmd2fg_d3q6dgx6bpmw0000gn/T//ccqjcya2.s 			page 19


 1025 046b D3000000 		.4byte	0xd3
 1026 046f 06       		.uleb128 0x6
 1027 0470 B2010000 		.4byte	.LASF76
 1028 0474 04       		.byte	0x4
 1029 0475 0A       		.byte	0xa
 1030 0476 89       		.byte	0x89
 1031 0477 87040000 		.4byte	0x487
 1032 047b 08       		.uleb128 0x8
 1033 047c 737000   		.ascii	"sp\000"
 1034 047f 0A       		.byte	0xa
 1035 0480 8A       		.byte	0x8a
 1036 0481 F9040000 		.4byte	0x4f9
 1037 0485 00       		.byte	0
 1038 0486 00       		.byte	0
 1039 0487 06       		.uleb128 0x6
 1040 0488 07050000 		.4byte	.LASF77
 1041 048c 24       		.byte	0x24
 1042 048d 0B       		.byte	0xb
 1043 048e C3       		.byte	0xc3
 1044 048f F9040000 		.4byte	0x4f9
 1045 0493 08       		.uleb128 0x8
 1046 0494 723800   		.ascii	"r8\000"
 1047 0497 0B       		.byte	0xb
 1048 0498 C4       		.byte	0xc4
 1049 0499 59040000 		.4byte	0x459
 1050 049d 00       		.byte	0
 1051 049e 08       		.uleb128 0x8
 1052 049f 723900   		.ascii	"r9\000"
 1053 04a2 0B       		.byte	0xb
 1054 04a3 C5       		.byte	0xc5
 1055 04a4 59040000 		.4byte	0x459
 1056 04a8 04       		.byte	0x4
 1057 04a9 08       		.uleb128 0x8
 1058 04aa 72313000 		.ascii	"r10\000"
 1059 04ae 0B       		.byte	0xb
 1060 04af C6       		.byte	0xc6
 1061 04b0 59040000 		.4byte	0x459
 1062 04b4 08       		.byte	0x8
 1063 04b5 08       		.uleb128 0x8
 1064 04b6 72313100 		.ascii	"r11\000"
 1065 04ba 0B       		.byte	0xb
 1066 04bb C7       		.byte	0xc7
 1067 04bc 59040000 		.4byte	0x459
 1068 04c0 0C       		.byte	0xc
 1069 04c1 08       		.uleb128 0x8
 1070 04c2 723400   		.ascii	"r4\000"
 1071 04c5 0B       		.byte	0xb
 1072 04c6 C8       		.byte	0xc8
 1073 04c7 59040000 		.4byte	0x459
 1074 04cb 10       		.byte	0x10
 1075 04cc 08       		.uleb128 0x8
 1076 04cd 723500   		.ascii	"r5\000"
 1077 04d0 0B       		.byte	0xb
 1078 04d1 C9       		.byte	0xc9
 1079 04d2 59040000 		.4byte	0x459
 1080 04d6 14       		.byte	0x14
 1081 04d7 08       		.uleb128 0x8
ARM GAS  /var/folders/t8/16hdwfmd2fg_d3q6dgx6bpmw0000gn/T//ccqjcya2.s 			page 20


 1082 04d8 723600   		.ascii	"r6\000"
 1083 04db 0B       		.byte	0xb
 1084 04dc CA       		.byte	0xca
 1085 04dd 59040000 		.4byte	0x459
 1086 04e1 18       		.byte	0x18
 1087 04e2 08       		.uleb128 0x8
 1088 04e3 723700   		.ascii	"r7\000"
 1089 04e6 0B       		.byte	0xb
 1090 04e7 CB       		.byte	0xcb
 1091 04e8 59040000 		.4byte	0x459
 1092 04ec 1C       		.byte	0x1c
 1093 04ed 08       		.uleb128 0x8
 1094 04ee 6C7200   		.ascii	"lr\000"
 1095 04f1 0B       		.byte	0xb
 1096 04f2 CC       		.byte	0xcc
 1097 04f3 59040000 		.4byte	0x459
 1098 04f7 20       		.byte	0x20
 1099 04f8 00       		.byte	0
 1100 04f9 0B       		.uleb128 0xb
 1101 04fa 04       		.byte	0x4
 1102 04fb 87040000 		.4byte	0x487
 1103 04ff 10       		.uleb128 0x10
 1104 0500 04       		.byte	0x4
 1105 0501 09       		.byte	0x9
 1106 0502 D2       		.byte	0xd2
 1107 0503 62050000 		.4byte	0x562
 1108 0507 11       		.uleb128 0x11
 1109 0508 05030000 		.4byte	.LASF78
 1110 050c 09       		.byte	0x9
 1111 050d D9       		.byte	0xd9
 1112 050e 15010000 		.4byte	0x115
 1113 0512 11       		.uleb128 0x11
 1114 0513 B5060000 		.4byte	.LASF79
 1115 0517 09       		.byte	0x9
 1116 0518 E0       		.byte	0xe0
 1117 0519 15010000 		.4byte	0x115
 1118 051d 11       		.uleb128 0x11
 1119 051e 9A010000 		.4byte	.LASF80
 1120 0522 09       		.byte	0x9
 1121 0523 E7       		.byte	0xe7
 1122 0524 23030000 		.4byte	0x323
 1123 0528 11       		.uleb128 0x11
 1124 0529 33060000 		.4byte	.LASF81
 1125 052d 09       		.byte	0x9
 1126 052e EE       		.byte	0xee
 1127 052f 62050000 		.4byte	0x562
 1128 0533 11       		.uleb128 0x11
 1129 0534 31020000 		.4byte	.LASF82
 1130 0538 09       		.byte	0x9
 1131 0539 F3       		.byte	0xf3
 1132 053a 15010000 		.4byte	0x115
 1133 053e 11       		.uleb128 0x11
 1134 053f CB050000 		.4byte	.LASF83
 1135 0543 09       		.byte	0x9
 1136 0544 FC       		.byte	0xfc
 1137 0545 8D050000 		.4byte	0x58d
 1138 0549 12       		.uleb128 0x12
ARM GAS  /var/folders/t8/16hdwfmd2fg_d3q6dgx6bpmw0000gn/T//ccqjcya2.s 			page 21


 1139 054a 02010000 		.4byte	.LASF84
 1140 054e 09       		.byte	0x9
 1141 054f 0501     		.2byte	0x105
 1142 0551 C4050000 		.4byte	0x5c4
 1143 0555 12       		.uleb128 0x12
 1144 0556 D2010000 		.4byte	.LASF85
 1145 055a 09       		.byte	0x9
 1146 055b 0D01     		.2byte	0x10d
 1147 055d 20010000 		.4byte	0x120
 1148 0561 00       		.byte	0
 1149 0562 0B       		.uleb128 0xb
 1150 0563 04       		.byte	0x4
 1151 0564 3B020000 		.4byte	0x23b
 1152 0568 06       		.uleb128 0x6
 1153 0569 50020000 		.4byte	.LASF86
 1154 056d 0C       		.byte	0xc
 1155 056e 0C       		.byte	0xc
 1156 056f 34       		.byte	0x34
 1157 0570 8D050000 		.4byte	0x58d
 1158 0574 07       		.uleb128 0x7
 1159 0575 BD050000 		.4byte	.LASF29
 1160 0579 0C       		.byte	0xc
 1161 057a 35       		.byte	0x35
 1162 057b 70020000 		.4byte	0x270
 1163 057f 00       		.byte	0
 1164 0580 08       		.uleb128 0x8
 1165 0581 636E7400 		.ascii	"cnt\000"
 1166 0585 0C       		.byte	0xc
 1167 0586 37       		.byte	0x37
 1168 0587 2B010000 		.4byte	0x12b
 1169 058b 08       		.byte	0x8
 1170 058c 00       		.byte	0
 1171 058d 0B       		.uleb128 0xb
 1172 058e 04       		.byte	0x4
 1173 058f 68050000 		.4byte	0x568
 1174 0593 06       		.uleb128 0x6
 1175 0594 26030000 		.4byte	.LASF87
 1176 0598 10       		.byte	0x10
 1177 0599 0D       		.byte	0xd
 1178 059a 39       		.byte	0x39
 1179 059b C4050000 		.4byte	0x5c4
 1180 059f 07       		.uleb128 0x7
 1181 05a0 BD050000 		.4byte	.LASF29
 1182 05a4 0D       		.byte	0xd
 1183 05a5 3A       		.byte	0x3a
 1184 05a6 70020000 		.4byte	0x270
 1185 05aa 00       		.byte	0
 1186 05ab 07       		.uleb128 0x7
 1187 05ac B3020000 		.4byte	.LASF88
 1188 05b0 0D       		.byte	0xd
 1189 05b1 3C       		.byte	0x3c
 1190 05b2 46020000 		.4byte	0x246
 1191 05b6 08       		.byte	0x8
 1192 05b7 07       		.uleb128 0x7
 1193 05b8 53010000 		.4byte	.LASF49
 1194 05bc 0D       		.byte	0xd
 1195 05bd 3E       		.byte	0x3e
ARM GAS  /var/folders/t8/16hdwfmd2fg_d3q6dgx6bpmw0000gn/T//ccqjcya2.s 			page 22


 1196 05be 26070000 		.4byte	0x726
 1197 05c2 0C       		.byte	0xc
 1198 05c3 00       		.byte	0
 1199 05c4 0B       		.uleb128 0xb
 1200 05c5 04       		.byte	0x4
 1201 05c6 93050000 		.4byte	0x593
 1202 05ca 0B       		.uleb128 0xb
 1203 05cb 04       		.byte	0x4
 1204 05cc DC050000 		.4byte	0x5dc
 1205 05d0 05       		.uleb128 0x5
 1206 05d1 CA050000 		.4byte	0x5ca
 1207 05d5 02       		.uleb128 0x2
 1208 05d6 01       		.byte	0x1
 1209 05d7 08       		.byte	0x8
 1210 05d8 60030000 		.4byte	.LASF89
 1211 05dc 13       		.uleb128 0x13
 1212 05dd D5050000 		.4byte	0x5d5
 1213 05e1 0B       		.uleb128 0xb
 1214 05e2 04       		.byte	0x4
 1215 05e3 64040000 		.4byte	0x464
 1216 05e7 0B       		.uleb128 0xb
 1217 05e8 04       		.byte	0x4
 1218 05e9 25030000 		.4byte	0x325
 1219 05ed 14       		.uleb128 0x14
 1220 05ee 636800   		.ascii	"ch\000"
 1221 05f1 09       		.byte	0x9
 1222 05f2 D201     		.2byte	0x1d2
 1223 05f4 0C040000 		.4byte	0x40c
 1224 05f8 15       		.uleb128 0x15
 1225 05f9 64040000 		.4byte	0x464
 1226 05fd 03060000 		.4byte	0x603
 1227 0601 16       		.uleb128 0x16
 1228 0602 00       		.byte	0
 1229 0603 17       		.uleb128 0x17
 1230 0604 7F030000 		.4byte	.LASF90
 1231 0608 03       		.byte	0x3
 1232 0609 2B01     		.2byte	0x12b
 1233 060b F8050000 		.4byte	0x5f8
 1234 060f 18       		.uleb128 0x18
 1235 0610 16       		.byte	0x16
 1236 0611 0E       		.byte	0xe
 1237 0612 34       		.byte	0x34
 1238 0613 F0060000 		.4byte	0x6f0
 1239 0617 07       		.uleb128 0x7
 1240 0618 73050000 		.4byte	.LASF91
 1241 061c 0E       		.byte	0xe
 1242 061d 35       		.byte	0x35
 1243 061e F0060000 		.4byte	0x6f0
 1244 0622 00       		.byte	0
 1245 0623 07       		.uleb128 0x7
 1246 0624 EB030000 		.4byte	.LASF92
 1247 0628 0E       		.byte	0xe
 1248 0629 36       		.byte	0x36
 1249 062a A2000000 		.4byte	0xa2
 1250 062e 04       		.byte	0x4
 1251 062f 07       		.uleb128 0x7
 1252 0630 3E040000 		.4byte	.LASF93
ARM GAS  /var/folders/t8/16hdwfmd2fg_d3q6dgx6bpmw0000gn/T//ccqjcya2.s 			page 23


 1253 0634 0E       		.byte	0xe
 1254 0635 37       		.byte	0x37
 1255 0636 A2000000 		.4byte	0xa2
 1256 063a 05       		.byte	0x5
 1257 063b 07       		.uleb128 0x7
 1258 063c 58010000 		.4byte	.LASF94
 1259 0640 0E       		.byte	0xe
 1260 0641 38       		.byte	0x38
 1261 0642 AD000000 		.4byte	0xad
 1262 0646 06       		.byte	0x6
 1263 0647 07       		.uleb128 0x7
 1264 0648 43040000 		.4byte	.LASF95
 1265 064c 0E       		.byte	0xe
 1266 064d 39       		.byte	0x39
 1267 064e A2000000 		.4byte	0xa2
 1268 0652 08       		.byte	0x8
 1269 0653 07       		.uleb128 0x7
 1270 0654 10000000 		.4byte	.LASF96
 1271 0658 0E       		.byte	0xe
 1272 0659 3A       		.byte	0x3a
 1273 065a A2000000 		.4byte	0xa2
 1274 065e 09       		.byte	0x9
 1275 065f 07       		.uleb128 0x7
 1276 0660 45020000 		.4byte	.LASF97
 1277 0664 0E       		.byte	0xe
 1278 0665 3B       		.byte	0x3b
 1279 0666 A2000000 		.4byte	0xa2
 1280 066a 0A       		.byte	0xa
 1281 066b 07       		.uleb128 0x7
 1282 066c D4040000 		.4byte	.LASF98
 1283 0670 0E       		.byte	0xe
 1284 0671 3C       		.byte	0x3c
 1285 0672 A2000000 		.4byte	0xa2
 1286 0676 0B       		.byte	0xb
 1287 0677 07       		.uleb128 0x7
 1288 0678 3A030000 		.4byte	.LASF99
 1289 067c 0E       		.byte	0xe
 1290 067d 3D       		.byte	0x3d
 1291 067e A2000000 		.4byte	0xa2
 1292 0682 0C       		.byte	0xc
 1293 0683 07       		.uleb128 0x7
 1294 0684 EF010000 		.4byte	.LASF100
 1295 0688 0E       		.byte	0xe
 1296 0689 3E       		.byte	0x3e
 1297 068a A2000000 		.4byte	0xa2
 1298 068e 0D       		.byte	0xd
 1299 068f 07       		.uleb128 0x7
 1300 0690 F1020000 		.4byte	.LASF101
 1301 0694 0E       		.byte	0xe
 1302 0695 3F       		.byte	0x3f
 1303 0696 A2000000 		.4byte	0xa2
 1304 069a 0E       		.byte	0xe
 1305 069b 07       		.uleb128 0x7
 1306 069c B5030000 		.4byte	.LASF102
 1307 06a0 0E       		.byte	0xe
 1308 06a1 40       		.byte	0x40
 1309 06a2 A2000000 		.4byte	0xa2
ARM GAS  /var/folders/t8/16hdwfmd2fg_d3q6dgx6bpmw0000gn/T//ccqjcya2.s 			page 24


 1310 06a6 0F       		.byte	0xf
 1311 06a7 07       		.uleb128 0x7
 1312 06a8 9E020000 		.4byte	.LASF103
 1313 06ac 0E       		.byte	0xe
 1314 06ad 41       		.byte	0x41
 1315 06ae A2000000 		.4byte	0xa2
 1316 06b2 10       		.byte	0x10
 1317 06b3 07       		.uleb128 0x7
 1318 06b4 FB020000 		.4byte	.LASF104
 1319 06b8 0E       		.byte	0xe
 1320 06b9 42       		.byte	0x42
 1321 06ba A2000000 		.4byte	0xa2
 1322 06be 11       		.byte	0x11
 1323 06bf 07       		.uleb128 0x7
 1324 06c0 51030000 		.4byte	.LASF105
 1325 06c4 0E       		.byte	0xe
 1326 06c5 43       		.byte	0x43
 1327 06c6 A2000000 		.4byte	0xa2
 1328 06ca 12       		.byte	0x12
 1329 06cb 07       		.uleb128 0x7
 1330 06cc 74060000 		.4byte	.LASF106
 1331 06d0 0E       		.byte	0xe
 1332 06d1 44       		.byte	0x44
 1333 06d2 A2000000 		.4byte	0xa2
 1334 06d6 13       		.byte	0x13
 1335 06d7 07       		.uleb128 0x7
 1336 06d8 7E050000 		.4byte	.LASF107
 1337 06dc 0E       		.byte	0xe
 1338 06dd 45       		.byte	0x45
 1339 06de A2000000 		.4byte	0xa2
 1340 06e2 14       		.byte	0x14
 1341 06e3 07       		.uleb128 0x7
 1342 06e4 91010000 		.4byte	.LASF108
 1343 06e8 0E       		.byte	0xe
 1344 06e9 46       		.byte	0x46
 1345 06ea A2000000 		.4byte	0xa2
 1346 06ee 15       		.byte	0x15
 1347 06ef 00       		.byte	0
 1348 06f0 15       		.uleb128 0x15
 1349 06f1 D5050000 		.4byte	0x5d5
 1350 06f5 00070000 		.4byte	0x700
 1351 06f9 19       		.uleb128 0x19
 1352 06fa 25000000 		.4byte	0x25
 1353 06fe 03       		.byte	0x3
 1354 06ff 00       		.byte	0
 1355 0700 04       		.uleb128 0x4
 1356 0701 CA040000 		.4byte	.LASF109
 1357 0705 0E       		.byte	0xe
 1358 0706 47       		.byte	0x47
 1359 0707 0F060000 		.4byte	0x60f
 1360 070b 13       		.uleb128 0x13
 1361 070c 00070000 		.4byte	0x700
 1362 0710 1A       		.uleb128 0x1a
 1363 0711 9A060000 		.4byte	.LASF110
 1364 0715 0E       		.byte	0xe
 1365 0716 6C       		.byte	0x6c
 1366 0717 0B070000 		.4byte	0x70b
ARM GAS  /var/folders/t8/16hdwfmd2fg_d3q6dgx6bpmw0000gn/T//ccqjcya2.s 			page 25


 1367 071b 04       		.uleb128 0x4
 1368 071c D2050000 		.4byte	.LASF111
 1369 0720 0D       		.byte	0xd
 1370 0721 34       		.byte	0x34
 1371 0722 93050000 		.4byte	0x593
 1372 0726 0B       		.uleb128 0xb
 1373 0727 04       		.byte	0x4
 1374 0728 1B070000 		.4byte	0x71b
 1375 072c 1A       		.uleb128 0x1a
 1376 072d 8E060000 		.4byte	.LASF112
 1377 0731 0F       		.byte	0xf
 1378 0732 27       		.byte	0x27
 1379 0733 CE000000 		.4byte	0xce
 1380 0737 1B       		.uleb128 0x1b
 1381 0738 58050000 		.4byte	.LASF113
 1382 073c 01       		.byte	0x1
 1383 073d 18       		.byte	0x18
 1384 073e C3000000 		.4byte	0xc3
 1385 0742 00000000 		.4byte	.LFB143
 1386 0746 44000000 		.4byte	.LFE143-.LFB143
 1387 074a 01       		.uleb128 0x1
 1388 074b 9C       		.byte	0x9c
 1389 074c 89070000 		.4byte	0x789
 1390 0750 1C       		.uleb128 0x1c
 1391 0751 42030000 		.4byte	.LASF115
 1392 0755 01       		.byte	0x1
 1393 0756 18       		.byte	0x18
 1394 0757 C3000000 		.4byte	0xc3
 1395 075b 00000000 		.4byte	.LLST2
 1396 075f 1D       		.uleb128 0x1d
 1397 0760 AE090000 		.4byte	0x9ae
 1398 0764 02000000 		.4byte	.LBB119
 1399 0768 78000000 		.4byte	.Ldebug_ranges0+0x78
 1400 076c 01       		.byte	0x1
 1401 076d 1A       		.byte	0x1a
 1402 076e 1E       		.uleb128 0x1e
 1403 076f BF090000 		.4byte	0x9bf
 1404 0773 2C000000 		.4byte	.LLST3
 1405 0777 1F       		.uleb128 0x1f
 1406 0778 E8090000 		.4byte	0x9e8
 1407 077c 02000000 		.4byte	.LBB120
 1408 0780 78000000 		.4byte	.Ldebug_ranges0+0x78
 1409 0784 04       		.byte	0x4
 1410 0785 0B01     		.2byte	0x10b
 1411 0787 00       		.byte	0
 1412 0788 00       		.byte	0
 1413 0789 1B       		.uleb128 0x1b
 1414 078a F0040000 		.4byte	.LASF114
 1415 078e 01       		.byte	0x1
 1416 078f 13       		.byte	0x13
 1417 0790 AD000000 		.4byte	0xad
 1418 0794 00000000 		.4byte	.LFB142
 1419 0798 44000000 		.4byte	.LFE142-.LFB142
 1420 079c 01       		.uleb128 0x1
 1421 079d 9C       		.byte	0x9c
 1422 079e DB070000 		.4byte	0x7db
 1423 07a2 1C       		.uleb128 0x1c
ARM GAS  /var/folders/t8/16hdwfmd2fg_d3q6dgx6bpmw0000gn/T//ccqjcya2.s 			page 26


 1424 07a3 42030000 		.4byte	.LASF115
 1425 07a7 01       		.byte	0x1
 1426 07a8 13       		.byte	0x13
 1427 07a9 AD000000 		.4byte	0xad
 1428 07ad 70000000 		.4byte	.LLST0
 1429 07b1 1D       		.uleb128 0x1d
 1430 07b2 AE090000 		.4byte	0x9ae
 1431 07b6 02000000 		.4byte	.LBB113
 1432 07ba 60000000 		.4byte	.Ldebug_ranges0+0x60
 1433 07be 01       		.byte	0x1
 1434 07bf 15       		.byte	0x15
 1435 07c0 1E       		.uleb128 0x1e
 1436 07c1 BF090000 		.4byte	0x9bf
 1437 07c5 91000000 		.4byte	.LLST1
 1438 07c9 1F       		.uleb128 0x1f
 1439 07ca E8090000 		.4byte	0x9e8
 1440 07ce 02000000 		.4byte	.LBB114
 1441 07d2 60000000 		.4byte	.Ldebug_ranges0+0x60
 1442 07d6 04       		.byte	0x4
 1443 07d7 0B01     		.2byte	0x10b
 1444 07d9 00       		.byte	0
 1445 07da 00       		.byte	0
 1446 07db 1B       		.uleb128 0x1b
 1447 07dc 32050000 		.4byte	.LASF116
 1448 07e0 01       		.byte	0x1
 1449 07e1 0E       		.byte	0xe
 1450 07e2 C3000000 		.4byte	0xc3
 1451 07e6 00000000 		.4byte	.LFB141
 1452 07ea 4C000000 		.4byte	.LFE141-.LFB141
 1453 07ee 01       		.uleb128 0x1
 1454 07ef 9C       		.byte	0x9c
 1455 07f0 BD080000 		.4byte	0x8bd
 1456 07f4 1D       		.uleb128 0x1d
 1457 07f5 CC090000 		.4byte	0x9cc
 1458 07f9 02000000 		.4byte	.LBB95
 1459 07fd 30000000 		.4byte	.Ldebug_ranges0+0x30
 1460 0801 01       		.byte	0x1
 1461 0802 10       		.byte	0x10
 1462 0803 20       		.uleb128 0x20
 1463 0804 30000000 		.4byte	.Ldebug_ranges0+0x30
 1464 0808 21       		.uleb128 0x21
 1465 0809 DC090000 		.4byte	0x9dc
 1466 080d 22       		.uleb128 0x22
 1467 080e 240A0000 		.4byte	0xa24
 1468 0812 02000000 		.4byte	.LBB97
 1469 0816 06000000 		.4byte	.LBE97-.LBB97
 1470 081a 04       		.byte	0x4
 1471 081b FA       		.byte	0xfa
 1472 081c 4F080000 		.4byte	0x84f
 1473 0820 23       		.uleb128 0x23
 1474 0821 360A0000 		.4byte	0xa36
 1475 0825 02000000 		.4byte	.LBB99
 1476 0829 02000000 		.4byte	.LBE99-.LBB99
 1477 082d 03       		.byte	0x3
 1478 082e 7801     		.2byte	0x178
 1479 0830 45080000 		.4byte	0x845
 1480 0834 24       		.uleb128 0x24
ARM GAS  /var/folders/t8/16hdwfmd2fg_d3q6dgx6bpmw0000gn/T//ccqjcya2.s 			page 27


 1481 0835 3F0A0000 		.4byte	0xa3f
 1482 0839 02000000 		.4byte	.LBB100
 1483 083d 02000000 		.4byte	.LBE100-.LBB100
 1484 0841 0B       		.byte	0xb
 1485 0842 7501     		.2byte	0x175
 1486 0844 00       		.byte	0
 1487 0845 25       		.uleb128 0x25
 1488 0846 08000000 		.4byte	.LVL4
 1489 084a 5E0A0000 		.4byte	0xa5e
 1490 084e 00       		.byte	0
 1491 084f 26       		.uleb128 0x26
 1492 0850 E8090000 		.4byte	0x9e8
 1493 0854 08000000 		.4byte	.LBB102
 1494 0858 04000000 		.4byte	.LBE102-.LBB102
 1495 085c 04       		.byte	0x4
 1496 085d FB       		.byte	0xfb
 1497 085e 1D       		.uleb128 0x1d
 1498 085f F4090000 		.4byte	0x9f4
 1499 0863 0C000000 		.4byte	.LBB104
 1500 0867 48000000 		.4byte	.Ldebug_ranges0+0x48
 1501 086b 04       		.byte	0x4
 1502 086c FC       		.byte	0xfc
 1503 086d 20       		.uleb128 0x20
 1504 086e 48000000 		.4byte	.Ldebug_ranges0+0x48
 1505 0872 21       		.uleb128 0x21
 1506 0873 010A0000 		.4byte	0xa01
 1507 0877 23       		.uleb128 0x23
 1508 0878 2D0A0000 		.4byte	0xa2d
 1509 087c 20000000 		.4byte	.LBB106
 1510 0880 02000000 		.4byte	.LBE106-.LBB106
 1511 0884 03       		.byte	0x3
 1512 0885 8F01     		.2byte	0x18f
 1513 0887 9C080000 		.4byte	0x89c
 1514 088b 24       		.uleb128 0x24
 1515 088c 470A0000 		.4byte	0xa47
 1516 0890 20000000 		.4byte	.LBB107
 1517 0894 02000000 		.4byte	.LBE107-.LBB107
 1518 0898 0B       		.byte	0xb
 1519 0899 7E01     		.2byte	0x17e
 1520 089b 00       		.byte	0
 1521 089c 25       		.uleb128 0x25
 1522 089d 10000000 		.4byte	.LVL5
 1523 08a1 690A0000 		.4byte	0xa69
 1524 08a5 27       		.uleb128 0x27
 1525 08a6 40000000 		.4byte	.LVL7
 1526 08aa 740A0000 		.4byte	0xa74
 1527 08ae 28       		.uleb128 0x28
 1528 08af 01       		.uleb128 0x1
 1529 08b0 50       		.byte	0x50
 1530 08b1 05       		.uleb128 0x5
 1531 08b2 03       		.byte	0x3
 1532 08b3 00000000 		.4byte	.LANCHOR0
 1533 08b7 00       		.byte	0
 1534 08b8 00       		.byte	0
 1535 08b9 00       		.byte	0
 1536 08ba 00       		.byte	0
 1537 08bb 00       		.byte	0
ARM GAS  /var/folders/t8/16hdwfmd2fg_d3q6dgx6bpmw0000gn/T//ccqjcya2.s 			page 28


 1538 08bc 00       		.byte	0
 1539 08bd 1B       		.uleb128 0x1b
 1540 08be C4060000 		.4byte	.LASF117
 1541 08c2 01       		.byte	0x1
 1542 08c3 09       		.byte	0x9
 1543 08c4 AD000000 		.4byte	0xad
 1544 08c8 00000000 		.4byte	.LFB140
 1545 08cc 4C000000 		.4byte	.LFE140-.LFB140
 1546 08d0 01       		.uleb128 0x1
 1547 08d1 9C       		.byte	0x9c
 1548 08d2 9F090000 		.4byte	0x99f
 1549 08d6 1D       		.uleb128 0x1d
 1550 08d7 CC090000 		.4byte	0x9cc
 1551 08db 02000000 		.4byte	.LBB63
 1552 08df 00000000 		.4byte	.Ldebug_ranges0+0
 1553 08e3 01       		.byte	0x1
 1554 08e4 0B       		.byte	0xb
 1555 08e5 20       		.uleb128 0x20
 1556 08e6 00000000 		.4byte	.Ldebug_ranges0+0
 1557 08ea 21       		.uleb128 0x21
 1558 08eb DC090000 		.4byte	0x9dc
 1559 08ef 22       		.uleb128 0x22
 1560 08f0 240A0000 		.4byte	0xa24
 1561 08f4 02000000 		.4byte	.LBB65
 1562 08f8 06000000 		.4byte	.LBE65-.LBB65
 1563 08fc 04       		.byte	0x4
 1564 08fd FA       		.byte	0xfa
 1565 08fe 31090000 		.4byte	0x931
 1566 0902 23       		.uleb128 0x23
 1567 0903 360A0000 		.4byte	0xa36
 1568 0907 02000000 		.4byte	.LBB67
 1569 090b 02000000 		.4byte	.LBE67-.LBB67
 1570 090f 03       		.byte	0x3
 1571 0910 7801     		.2byte	0x178
 1572 0912 27090000 		.4byte	0x927
 1573 0916 24       		.uleb128 0x24
 1574 0917 3F0A0000 		.4byte	0xa3f
 1575 091b 02000000 		.4byte	.LBB68
 1576 091f 02000000 		.4byte	.LBE68-.LBB68
 1577 0923 0B       		.byte	0xb
 1578 0924 7501     		.2byte	0x175
 1579 0926 00       		.byte	0
 1580 0927 25       		.uleb128 0x25
 1581 0928 08000000 		.4byte	.LVL0
 1582 092c 5E0A0000 		.4byte	0xa5e
 1583 0930 00       		.byte	0
 1584 0931 26       		.uleb128 0x26
 1585 0932 E8090000 		.4byte	0x9e8
 1586 0936 08000000 		.4byte	.LBB70
 1587 093a 04000000 		.4byte	.LBE70-.LBB70
 1588 093e 04       		.byte	0x4
 1589 093f FB       		.byte	0xfb
 1590 0940 1D       		.uleb128 0x1d
 1591 0941 F4090000 		.4byte	0x9f4
 1592 0945 0C000000 		.4byte	.LBB72
 1593 0949 18000000 		.4byte	.Ldebug_ranges0+0x18
 1594 094d 04       		.byte	0x4
ARM GAS  /var/folders/t8/16hdwfmd2fg_d3q6dgx6bpmw0000gn/T//ccqjcya2.s 			page 29


 1595 094e FC       		.byte	0xfc
 1596 094f 20       		.uleb128 0x20
 1597 0950 18000000 		.4byte	.Ldebug_ranges0+0x18
 1598 0954 21       		.uleb128 0x21
 1599 0955 010A0000 		.4byte	0xa01
 1600 0959 23       		.uleb128 0x23
 1601 095a 2D0A0000 		.4byte	0xa2d
 1602 095e 20000000 		.4byte	.LBB74
 1603 0962 02000000 		.4byte	.LBE74-.LBB74
 1604 0966 03       		.byte	0x3
 1605 0967 8F01     		.2byte	0x18f
 1606 0969 7E090000 		.4byte	0x97e
 1607 096d 24       		.uleb128 0x24
 1608 096e 470A0000 		.4byte	0xa47
 1609 0972 20000000 		.4byte	.LBB75
 1610 0976 02000000 		.4byte	.LBE75-.LBB75
 1611 097a 0B       		.byte	0xb
 1612 097b 7E01     		.2byte	0x17e
 1613 097d 00       		.byte	0
 1614 097e 25       		.uleb128 0x25
 1615 097f 10000000 		.4byte	.LVL1
 1616 0983 690A0000 		.4byte	0xa69
 1617 0987 27       		.uleb128 0x27
 1618 0988 42000000 		.4byte	.LVL3
 1619 098c 740A0000 		.4byte	0xa74
 1620 0990 28       		.uleb128 0x28
 1621 0991 01       		.uleb128 0x1
 1622 0992 50       		.byte	0x50
 1623 0993 05       		.uleb128 0x5
 1624 0994 03       		.byte	0x3
 1625 0995 00000000 		.4byte	.LANCHOR0
 1626 0999 00       		.byte	0
 1627 099a 00       		.byte	0
 1628 099b 00       		.byte	0
 1629 099c 00       		.byte	0
 1630 099d 00       		.byte	0
 1631 099e 00       		.byte	0
 1632 099f 29       		.uleb128 0x29
 1633 09a0 1A030000 		.4byte	.LASF132
 1634 09a4 01       		.byte	0x1
 1635 09a5 07       		.byte	0x7
 1636 09a6 2A       		.uleb128 0x2a
 1637 09a7 4B060000 		.4byte	.LASF133
 1638 09ab 01       		.byte	0x1
 1639 09ac 05       		.byte	0x5
 1640 09ad 01       		.byte	0x1
 1641 09ae 2B       		.uleb128 0x2b
 1642 09af 02020000 		.4byte	.LASF118
 1643 09b3 04       		.byte	0x4
 1644 09b4 0901     		.2byte	0x109
 1645 09b6 36010000 		.4byte	0x136
 1646 09ba 03       		.byte	0x3
 1647 09bb CC090000 		.4byte	0x9cc
 1648 09bf 2C       		.uleb128 0x2c
 1649 09c0 6D050000 		.4byte	.LASF134
 1650 09c4 04       		.byte	0x4
 1651 09c5 0901     		.2byte	0x109
ARM GAS  /var/folders/t8/16hdwfmd2fg_d3q6dgx6bpmw0000gn/T//ccqjcya2.s 			page 30


 1652 09c7 36010000 		.4byte	0x136
 1653 09cb 00       		.byte	0
 1654 09cc 2D       		.uleb128 0x2d
 1655 09cd F0030000 		.4byte	.LASF119
 1656 09d1 04       		.byte	0x4
 1657 09d2 F7       		.byte	0xf7
 1658 09d3 36010000 		.4byte	0x136
 1659 09d7 03       		.byte	0x3
 1660 09d8 E8090000 		.4byte	0x9e8
 1661 09dc 2E       		.uleb128 0x2e
 1662 09dd AE040000 		.4byte	.LASF63
 1663 09e1 04       		.byte	0x4
 1664 09e2 F8       		.byte	0xf8
 1665 09e3 36010000 		.4byte	0x136
 1666 09e7 00       		.byte	0
 1667 09e8 2F       		.uleb128 0x2f
 1668 09e9 60010000 		.4byte	.LASF135
 1669 09ed 04       		.byte	0x4
 1670 09ee E4       		.byte	0xe4
 1671 09ef 36010000 		.4byte	0x136
 1672 09f3 03       		.byte	0x3
 1673 09f4 30       		.uleb128 0x30
 1674 09f5 8A050000 		.4byte	.LASF136
 1675 09f9 03       		.byte	0x3
 1676 09fa 8201     		.2byte	0x182
 1677 09fc 03       		.byte	0x3
 1678 09fd 0F0A0000 		.4byte	0xa0f
 1679 0a01 31       		.uleb128 0x31
 1680 0a02 85060000 		.4byte	.LASF120
 1681 0a06 1F0A0000 		.4byte	0xa1f
 1682 0a0a 8A050000 		.4byte	.LASF136
 1683 0a0e 00       		.byte	0
 1684 0a0f 15       		.uleb128 0x15
 1685 0a10 DC050000 		.4byte	0x5dc
 1686 0a14 1F0A0000 		.4byte	0xa1f
 1687 0a18 19       		.uleb128 0x19
 1688 0a19 25000000 		.4byte	0x25
 1689 0a1d 0B       		.byte	0xb
 1690 0a1e 00       		.byte	0
 1691 0a1f 13       		.uleb128 0x13
 1692 0a20 0F0A0000 		.4byte	0xa0f
 1693 0a24 32       		.uleb128 0x32
 1694 0a25 47030000 		.4byte	.LASF121
 1695 0a29 03       		.byte	0x3
 1696 0a2a 7601     		.2byte	0x176
 1697 0a2c 03       		.byte	0x3
 1698 0a2d 32       		.uleb128 0x32
 1699 0a2e A3060000 		.4byte	.LASF122
 1700 0a32 0B       		.byte	0xb
 1701 0a33 7C01     		.2byte	0x17c
 1702 0a35 03       		.byte	0x3
 1703 0a36 32       		.uleb128 0x32
 1704 0a37 A1010000 		.4byte	.LASF123
 1705 0a3b 0B       		.byte	0xb
 1706 0a3c 7301     		.2byte	0x173
 1707 0a3e 03       		.byte	0x3
 1708 0a3f 33       		.uleb128 0x33
ARM GAS  /var/folders/t8/16hdwfmd2fg_d3q6dgx6bpmw0000gn/T//ccqjcya2.s 			page 31


 1709 0a40 0C030000 		.4byte	.LASF124
 1710 0a44 02       		.byte	0x2
 1711 0a45 45       		.byte	0x45
 1712 0a46 03       		.byte	0x3
 1713 0a47 33       		.uleb128 0x33
 1714 0a48 1B050000 		.4byte	.LASF125
 1715 0a4c 02       		.byte	0x2
 1716 0a4d 3A       		.byte	0x3a
 1717 0a4e 03       		.byte	0x3
 1718 0a4f 34       		.uleb128 0x34
 1719 0a50 A6090000 		.4byte	0x9a6
 1720 0a54 00000000 		.4byte	.LFB138
 1721 0a58 02000000 		.4byte	.LFE138-.LFB138
 1722 0a5c 01       		.uleb128 0x1
 1723 0a5d 9C       		.byte	0x9c
 1724 0a5e 35       		.uleb128 0x35
 1725 0a5f CD030000 		.4byte	.LASF126
 1726 0a63 CD030000 		.4byte	.LASF126
 1727 0a67 10       		.byte	0x10
 1728 0a68 96       		.byte	0x96
 1729 0a69 35       		.uleb128 0x35
 1730 0a6a 09010000 		.4byte	.LASF127
 1731 0a6e 09010000 		.4byte	.LASF127
 1732 0a72 10       		.byte	0x10
 1733 0a73 97       		.byte	0x97
 1734 0a74 36       		.uleb128 0x36
 1735 0a75 1D060000 		.4byte	.LASF128
 1736 0a79 1D060000 		.4byte	.LASF128
 1737 0a7d 03       		.byte	0x3
 1738 0a7e 3201     		.2byte	0x132
 1739 0a80 00       		.byte	0
 1740              		.section	.debug_abbrev,"",%progbits
 1741              	.Ldebug_abbrev0:
 1742 0000 01       		.uleb128 0x1
 1743 0001 11       		.uleb128 0x11
 1744 0002 01       		.byte	0x1
 1745 0003 25       		.uleb128 0x25
 1746 0004 0E       		.uleb128 0xe
 1747 0005 13       		.uleb128 0x13
 1748 0006 0B       		.uleb128 0xb
 1749 0007 03       		.uleb128 0x3
 1750 0008 0E       		.uleb128 0xe
 1751 0009 1B       		.uleb128 0x1b
 1752 000a 0E       		.uleb128 0xe
 1753 000b 55       		.uleb128 0x55
 1754 000c 17       		.uleb128 0x17
 1755 000d 11       		.uleb128 0x11
 1756 000e 01       		.uleb128 0x1
 1757 000f 10       		.uleb128 0x10
 1758 0010 17       		.uleb128 0x17
 1759 0011 00       		.byte	0
 1760 0012 00       		.byte	0
 1761 0013 02       		.uleb128 0x2
 1762 0014 24       		.uleb128 0x24
 1763 0015 00       		.byte	0
 1764 0016 0B       		.uleb128 0xb
 1765 0017 0B       		.uleb128 0xb
ARM GAS  /var/folders/t8/16hdwfmd2fg_d3q6dgx6bpmw0000gn/T//ccqjcya2.s 			page 32


 1766 0018 3E       		.uleb128 0x3e
 1767 0019 0B       		.uleb128 0xb
 1768 001a 03       		.uleb128 0x3
 1769 001b 0E       		.uleb128 0xe
 1770 001c 00       		.byte	0
 1771 001d 00       		.byte	0
 1772 001e 03       		.uleb128 0x3
 1773 001f 24       		.uleb128 0x24
 1774 0020 00       		.byte	0
 1775 0021 0B       		.uleb128 0xb
 1776 0022 0B       		.uleb128 0xb
 1777 0023 3E       		.uleb128 0x3e
 1778 0024 0B       		.uleb128 0xb
 1779 0025 03       		.uleb128 0x3
 1780 0026 08       		.uleb128 0x8
 1781 0027 00       		.byte	0
 1782 0028 00       		.byte	0
 1783 0029 04       		.uleb128 0x4
 1784 002a 16       		.uleb128 0x16
 1785 002b 00       		.byte	0
 1786 002c 03       		.uleb128 0x3
 1787 002d 0E       		.uleb128 0xe
 1788 002e 3A       		.uleb128 0x3a
 1789 002f 0B       		.uleb128 0xb
 1790 0030 3B       		.uleb128 0x3b
 1791 0031 0B       		.uleb128 0xb
 1792 0032 49       		.uleb128 0x49
 1793 0033 13       		.uleb128 0x13
 1794 0034 00       		.byte	0
 1795 0035 00       		.byte	0
 1796 0036 05       		.uleb128 0x5
 1797 0037 35       		.uleb128 0x35
 1798 0038 00       		.byte	0
 1799 0039 49       		.uleb128 0x49
 1800 003a 13       		.uleb128 0x13
 1801 003b 00       		.byte	0
 1802 003c 00       		.byte	0
 1803 003d 06       		.uleb128 0x6
 1804 003e 13       		.uleb128 0x13
 1805 003f 01       		.byte	0x1
 1806 0040 03       		.uleb128 0x3
 1807 0041 0E       		.uleb128 0xe
 1808 0042 0B       		.uleb128 0xb
 1809 0043 0B       		.uleb128 0xb
 1810 0044 3A       		.uleb128 0x3a
 1811 0045 0B       		.uleb128 0xb
 1812 0046 3B       		.uleb128 0x3b
 1813 0047 0B       		.uleb128 0xb
 1814 0048 01       		.uleb128 0x1
 1815 0049 13       		.uleb128 0x13
 1816 004a 00       		.byte	0
 1817 004b 00       		.byte	0
 1818 004c 07       		.uleb128 0x7
 1819 004d 0D       		.uleb128 0xd
 1820 004e 00       		.byte	0
 1821 004f 03       		.uleb128 0x3
 1822 0050 0E       		.uleb128 0xe
ARM GAS  /var/folders/t8/16hdwfmd2fg_d3q6dgx6bpmw0000gn/T//ccqjcya2.s 			page 33


 1823 0051 3A       		.uleb128 0x3a
 1824 0052 0B       		.uleb128 0xb
 1825 0053 3B       		.uleb128 0x3b
 1826 0054 0B       		.uleb128 0xb
 1827 0055 49       		.uleb128 0x49
 1828 0056 13       		.uleb128 0x13
 1829 0057 38       		.uleb128 0x38
 1830 0058 0B       		.uleb128 0xb
 1831 0059 00       		.byte	0
 1832 005a 00       		.byte	0
 1833 005b 08       		.uleb128 0x8
 1834 005c 0D       		.uleb128 0xd
 1835 005d 00       		.byte	0
 1836 005e 03       		.uleb128 0x3
 1837 005f 08       		.uleb128 0x8
 1838 0060 3A       		.uleb128 0x3a
 1839 0061 0B       		.uleb128 0xb
 1840 0062 3B       		.uleb128 0x3b
 1841 0063 0B       		.uleb128 0xb
 1842 0064 49       		.uleb128 0x49
 1843 0065 13       		.uleb128 0x13
 1844 0066 38       		.uleb128 0x38
 1845 0067 0B       		.uleb128 0xb
 1846 0068 00       		.byte	0
 1847 0069 00       		.byte	0
 1848 006a 09       		.uleb128 0x9
 1849 006b 0D       		.uleb128 0xd
 1850 006c 00       		.byte	0
 1851 006d 03       		.uleb128 0x3
 1852 006e 08       		.uleb128 0x8
 1853 006f 3A       		.uleb128 0x3a
 1854 0070 0B       		.uleb128 0xb
 1855 0071 3B       		.uleb128 0x3b
 1856 0072 05       		.uleb128 0x5
 1857 0073 49       		.uleb128 0x49
 1858 0074 13       		.uleb128 0x13
 1859 0075 38       		.uleb128 0x38
 1860 0076 0B       		.uleb128 0xb
 1861 0077 00       		.byte	0
 1862 0078 00       		.byte	0
 1863 0079 0A       		.uleb128 0xa
 1864 007a 0D       		.uleb128 0xd
 1865 007b 00       		.byte	0
 1866 007c 03       		.uleb128 0x3
 1867 007d 0E       		.uleb128 0xe
 1868 007e 3A       		.uleb128 0x3a
 1869 007f 0B       		.uleb128 0xb
 1870 0080 3B       		.uleb128 0x3b
 1871 0081 05       		.uleb128 0x5
 1872 0082 49       		.uleb128 0x49
 1873 0083 13       		.uleb128 0x13
 1874 0084 38       		.uleb128 0x38
 1875 0085 0B       		.uleb128 0xb
 1876 0086 00       		.byte	0
 1877 0087 00       		.byte	0
 1878 0088 0B       		.uleb128 0xb
 1879 0089 0F       		.uleb128 0xf
ARM GAS  /var/folders/t8/16hdwfmd2fg_d3q6dgx6bpmw0000gn/T//ccqjcya2.s 			page 34


 1880 008a 00       		.byte	0
 1881 008b 0B       		.uleb128 0xb
 1882 008c 0B       		.uleb128 0xb
 1883 008d 49       		.uleb128 0x49
 1884 008e 13       		.uleb128 0x13
 1885 008f 00       		.byte	0
 1886 0090 00       		.byte	0
 1887 0091 0C       		.uleb128 0xc
 1888 0092 13       		.uleb128 0x13
 1889 0093 01       		.byte	0x1
 1890 0094 03       		.uleb128 0x3
 1891 0095 0E       		.uleb128 0xe
 1892 0096 0B       		.uleb128 0xb
 1893 0097 0B       		.uleb128 0xb
 1894 0098 3A       		.uleb128 0x3a
 1895 0099 0B       		.uleb128 0xb
 1896 009a 3B       		.uleb128 0x3b
 1897 009b 05       		.uleb128 0x5
 1898 009c 01       		.uleb128 0x1
 1899 009d 13       		.uleb128 0x13
 1900 009e 00       		.byte	0
 1901 009f 00       		.byte	0
 1902 00a0 0D       		.uleb128 0xd
 1903 00a1 15       		.uleb128 0x15
 1904 00a2 01       		.byte	0x1
 1905 00a3 27       		.uleb128 0x27
 1906 00a4 19       		.uleb128 0x19
 1907 00a5 01       		.uleb128 0x1
 1908 00a6 13       		.uleb128 0x13
 1909 00a7 00       		.byte	0
 1910 00a8 00       		.byte	0
 1911 00a9 0E       		.uleb128 0xe
 1912 00aa 05       		.uleb128 0x5
 1913 00ab 00       		.byte	0
 1914 00ac 49       		.uleb128 0x49
 1915 00ad 13       		.uleb128 0x13
 1916 00ae 00       		.byte	0
 1917 00af 00       		.byte	0
 1918 00b0 0F       		.uleb128 0xf
 1919 00b1 0F       		.uleb128 0xf
 1920 00b2 00       		.byte	0
 1921 00b3 0B       		.uleb128 0xb
 1922 00b4 0B       		.uleb128 0xb
 1923 00b5 00       		.byte	0
 1924 00b6 00       		.byte	0
 1925 00b7 10       		.uleb128 0x10
 1926 00b8 17       		.uleb128 0x17
 1927 00b9 01       		.byte	0x1
 1928 00ba 0B       		.uleb128 0xb
 1929 00bb 0B       		.uleb128 0xb
 1930 00bc 3A       		.uleb128 0x3a
 1931 00bd 0B       		.uleb128 0xb
 1932 00be 3B       		.uleb128 0x3b
 1933 00bf 0B       		.uleb128 0xb
 1934 00c0 01       		.uleb128 0x1
 1935 00c1 13       		.uleb128 0x13
 1936 00c2 00       		.byte	0
ARM GAS  /var/folders/t8/16hdwfmd2fg_d3q6dgx6bpmw0000gn/T//ccqjcya2.s 			page 35


 1937 00c3 00       		.byte	0
 1938 00c4 11       		.uleb128 0x11
 1939 00c5 0D       		.uleb128 0xd
 1940 00c6 00       		.byte	0
 1941 00c7 03       		.uleb128 0x3
 1942 00c8 0E       		.uleb128 0xe
 1943 00c9 3A       		.uleb128 0x3a
 1944 00ca 0B       		.uleb128 0xb
 1945 00cb 3B       		.uleb128 0x3b
 1946 00cc 0B       		.uleb128 0xb
 1947 00cd 49       		.uleb128 0x49
 1948 00ce 13       		.uleb128 0x13
 1949 00cf 00       		.byte	0
 1950 00d0 00       		.byte	0
 1951 00d1 12       		.uleb128 0x12
 1952 00d2 0D       		.uleb128 0xd
 1953 00d3 00       		.byte	0
 1954 00d4 03       		.uleb128 0x3
 1955 00d5 0E       		.uleb128 0xe
 1956 00d6 3A       		.uleb128 0x3a
 1957 00d7 0B       		.uleb128 0xb
 1958 00d8 3B       		.uleb128 0x3b
 1959 00d9 05       		.uleb128 0x5
 1960 00da 49       		.uleb128 0x49
 1961 00db 13       		.uleb128 0x13
 1962 00dc 00       		.byte	0
 1963 00dd 00       		.byte	0
 1964 00de 13       		.uleb128 0x13
 1965 00df 26       		.uleb128 0x26
 1966 00e0 00       		.byte	0
 1967 00e1 49       		.uleb128 0x49
 1968 00e2 13       		.uleb128 0x13
 1969 00e3 00       		.byte	0
 1970 00e4 00       		.byte	0
 1971 00e5 14       		.uleb128 0x14
 1972 00e6 34       		.uleb128 0x34
 1973 00e7 00       		.byte	0
 1974 00e8 03       		.uleb128 0x3
 1975 00e9 08       		.uleb128 0x8
 1976 00ea 3A       		.uleb128 0x3a
 1977 00eb 0B       		.uleb128 0xb
 1978 00ec 3B       		.uleb128 0x3b
 1979 00ed 05       		.uleb128 0x5
 1980 00ee 49       		.uleb128 0x49
 1981 00ef 13       		.uleb128 0x13
 1982 00f0 3F       		.uleb128 0x3f
 1983 00f1 19       		.uleb128 0x19
 1984 00f2 3C       		.uleb128 0x3c
 1985 00f3 19       		.uleb128 0x19
 1986 00f4 00       		.byte	0
 1987 00f5 00       		.byte	0
 1988 00f6 15       		.uleb128 0x15
 1989 00f7 01       		.uleb128 0x1
 1990 00f8 01       		.byte	0x1
 1991 00f9 49       		.uleb128 0x49
 1992 00fa 13       		.uleb128 0x13
 1993 00fb 01       		.uleb128 0x1
ARM GAS  /var/folders/t8/16hdwfmd2fg_d3q6dgx6bpmw0000gn/T//ccqjcya2.s 			page 36


 1994 00fc 13       		.uleb128 0x13
 1995 00fd 00       		.byte	0
 1996 00fe 00       		.byte	0
 1997 00ff 16       		.uleb128 0x16
 1998 0100 21       		.uleb128 0x21
 1999 0101 00       		.byte	0
 2000 0102 00       		.byte	0
 2001 0103 00       		.byte	0
 2002 0104 17       		.uleb128 0x17
 2003 0105 34       		.uleb128 0x34
 2004 0106 00       		.byte	0
 2005 0107 03       		.uleb128 0x3
 2006 0108 0E       		.uleb128 0xe
 2007 0109 3A       		.uleb128 0x3a
 2008 010a 0B       		.uleb128 0xb
 2009 010b 3B       		.uleb128 0x3b
 2010 010c 05       		.uleb128 0x5
 2011 010d 49       		.uleb128 0x49
 2012 010e 13       		.uleb128 0x13
 2013 010f 3F       		.uleb128 0x3f
 2014 0110 19       		.uleb128 0x19
 2015 0111 3C       		.uleb128 0x3c
 2016 0112 19       		.uleb128 0x19
 2017 0113 00       		.byte	0
 2018 0114 00       		.byte	0
 2019 0115 18       		.uleb128 0x18
 2020 0116 13       		.uleb128 0x13
 2021 0117 01       		.byte	0x1
 2022 0118 0B       		.uleb128 0xb
 2023 0119 0B       		.uleb128 0xb
 2024 011a 3A       		.uleb128 0x3a
 2025 011b 0B       		.uleb128 0xb
 2026 011c 3B       		.uleb128 0x3b
 2027 011d 0B       		.uleb128 0xb
 2028 011e 01       		.uleb128 0x1
 2029 011f 13       		.uleb128 0x13
 2030 0120 00       		.byte	0
 2031 0121 00       		.byte	0
 2032 0122 19       		.uleb128 0x19
 2033 0123 21       		.uleb128 0x21
 2034 0124 00       		.byte	0
 2035 0125 49       		.uleb128 0x49
 2036 0126 13       		.uleb128 0x13
 2037 0127 2F       		.uleb128 0x2f
 2038 0128 0B       		.uleb128 0xb
 2039 0129 00       		.byte	0
 2040 012a 00       		.byte	0
 2041 012b 1A       		.uleb128 0x1a
 2042 012c 34       		.uleb128 0x34
 2043 012d 00       		.byte	0
 2044 012e 03       		.uleb128 0x3
 2045 012f 0E       		.uleb128 0xe
 2046 0130 3A       		.uleb128 0x3a
 2047 0131 0B       		.uleb128 0xb
 2048 0132 3B       		.uleb128 0x3b
 2049 0133 0B       		.uleb128 0xb
 2050 0134 49       		.uleb128 0x49
ARM GAS  /var/folders/t8/16hdwfmd2fg_d3q6dgx6bpmw0000gn/T//ccqjcya2.s 			page 37


 2051 0135 13       		.uleb128 0x13
 2052 0136 3F       		.uleb128 0x3f
 2053 0137 19       		.uleb128 0x19
 2054 0138 3C       		.uleb128 0x3c
 2055 0139 19       		.uleb128 0x19
 2056 013a 00       		.byte	0
 2057 013b 00       		.byte	0
 2058 013c 1B       		.uleb128 0x1b
 2059 013d 2E       		.uleb128 0x2e
 2060 013e 01       		.byte	0x1
 2061 013f 3F       		.uleb128 0x3f
 2062 0140 19       		.uleb128 0x19
 2063 0141 03       		.uleb128 0x3
 2064 0142 0E       		.uleb128 0xe
 2065 0143 3A       		.uleb128 0x3a
 2066 0144 0B       		.uleb128 0xb
 2067 0145 3B       		.uleb128 0x3b
 2068 0146 0B       		.uleb128 0xb
 2069 0147 27       		.uleb128 0x27
 2070 0148 19       		.uleb128 0x19
 2071 0149 49       		.uleb128 0x49
 2072 014a 13       		.uleb128 0x13
 2073 014b 11       		.uleb128 0x11
 2074 014c 01       		.uleb128 0x1
 2075 014d 12       		.uleb128 0x12
 2076 014e 06       		.uleb128 0x6
 2077 014f 40       		.uleb128 0x40
 2078 0150 18       		.uleb128 0x18
 2079 0151 9642     		.uleb128 0x2116
 2080 0153 19       		.uleb128 0x19
 2081 0154 01       		.uleb128 0x1
 2082 0155 13       		.uleb128 0x13
 2083 0156 00       		.byte	0
 2084 0157 00       		.byte	0
 2085 0158 1C       		.uleb128 0x1c
 2086 0159 05       		.uleb128 0x5
 2087 015a 00       		.byte	0
 2088 015b 03       		.uleb128 0x3
 2089 015c 0E       		.uleb128 0xe
 2090 015d 3A       		.uleb128 0x3a
 2091 015e 0B       		.uleb128 0xb
 2092 015f 3B       		.uleb128 0x3b
 2093 0160 0B       		.uleb128 0xb
 2094 0161 49       		.uleb128 0x49
 2095 0162 13       		.uleb128 0x13
 2096 0163 02       		.uleb128 0x2
 2097 0164 17       		.uleb128 0x17
 2098 0165 00       		.byte	0
 2099 0166 00       		.byte	0
 2100 0167 1D       		.uleb128 0x1d
 2101 0168 1D       		.uleb128 0x1d
 2102 0169 01       		.byte	0x1
 2103 016a 31       		.uleb128 0x31
 2104 016b 13       		.uleb128 0x13
 2105 016c 52       		.uleb128 0x52
 2106 016d 01       		.uleb128 0x1
 2107 016e 55       		.uleb128 0x55
ARM GAS  /var/folders/t8/16hdwfmd2fg_d3q6dgx6bpmw0000gn/T//ccqjcya2.s 			page 38


 2108 016f 17       		.uleb128 0x17
 2109 0170 58       		.uleb128 0x58
 2110 0171 0B       		.uleb128 0xb
 2111 0172 59       		.uleb128 0x59
 2112 0173 0B       		.uleb128 0xb
 2113 0174 00       		.byte	0
 2114 0175 00       		.byte	0
 2115 0176 1E       		.uleb128 0x1e
 2116 0177 05       		.uleb128 0x5
 2117 0178 00       		.byte	0
 2118 0179 31       		.uleb128 0x31
 2119 017a 13       		.uleb128 0x13
 2120 017b 02       		.uleb128 0x2
 2121 017c 17       		.uleb128 0x17
 2122 017d 00       		.byte	0
 2123 017e 00       		.byte	0
 2124 017f 1F       		.uleb128 0x1f
 2125 0180 1D       		.uleb128 0x1d
 2126 0181 00       		.byte	0
 2127 0182 31       		.uleb128 0x31
 2128 0183 13       		.uleb128 0x13
 2129 0184 52       		.uleb128 0x52
 2130 0185 01       		.uleb128 0x1
 2131 0186 55       		.uleb128 0x55
 2132 0187 17       		.uleb128 0x17
 2133 0188 58       		.uleb128 0x58
 2134 0189 0B       		.uleb128 0xb
 2135 018a 59       		.uleb128 0x59
 2136 018b 05       		.uleb128 0x5
 2137 018c 00       		.byte	0
 2138 018d 00       		.byte	0
 2139 018e 20       		.uleb128 0x20
 2140 018f 0B       		.uleb128 0xb
 2141 0190 01       		.byte	0x1
 2142 0191 55       		.uleb128 0x55
 2143 0192 17       		.uleb128 0x17
 2144 0193 00       		.byte	0
 2145 0194 00       		.byte	0
 2146 0195 21       		.uleb128 0x21
 2147 0196 34       		.uleb128 0x34
 2148 0197 00       		.byte	0
 2149 0198 31       		.uleb128 0x31
 2150 0199 13       		.uleb128 0x13
 2151 019a 00       		.byte	0
 2152 019b 00       		.byte	0
 2153 019c 22       		.uleb128 0x22
 2154 019d 1D       		.uleb128 0x1d
 2155 019e 01       		.byte	0x1
 2156 019f 31       		.uleb128 0x31
 2157 01a0 13       		.uleb128 0x13
 2158 01a1 11       		.uleb128 0x11
 2159 01a2 01       		.uleb128 0x1
 2160 01a3 12       		.uleb128 0x12
 2161 01a4 06       		.uleb128 0x6
 2162 01a5 58       		.uleb128 0x58
 2163 01a6 0B       		.uleb128 0xb
 2164 01a7 59       		.uleb128 0x59
ARM GAS  /var/folders/t8/16hdwfmd2fg_d3q6dgx6bpmw0000gn/T//ccqjcya2.s 			page 39


 2165 01a8 0B       		.uleb128 0xb
 2166 01a9 01       		.uleb128 0x1
 2167 01aa 13       		.uleb128 0x13
 2168 01ab 00       		.byte	0
 2169 01ac 00       		.byte	0
 2170 01ad 23       		.uleb128 0x23
 2171 01ae 1D       		.uleb128 0x1d
 2172 01af 01       		.byte	0x1
 2173 01b0 31       		.uleb128 0x31
 2174 01b1 13       		.uleb128 0x13
 2175 01b2 11       		.uleb128 0x11
 2176 01b3 01       		.uleb128 0x1
 2177 01b4 12       		.uleb128 0x12
 2178 01b5 06       		.uleb128 0x6
 2179 01b6 58       		.uleb128 0x58
 2180 01b7 0B       		.uleb128 0xb
 2181 01b8 59       		.uleb128 0x59
 2182 01b9 05       		.uleb128 0x5
 2183 01ba 01       		.uleb128 0x1
 2184 01bb 13       		.uleb128 0x13
 2185 01bc 00       		.byte	0
 2186 01bd 00       		.byte	0
 2187 01be 24       		.uleb128 0x24
 2188 01bf 1D       		.uleb128 0x1d
 2189 01c0 00       		.byte	0
 2190 01c1 31       		.uleb128 0x31
 2191 01c2 13       		.uleb128 0x13
 2192 01c3 11       		.uleb128 0x11
 2193 01c4 01       		.uleb128 0x1
 2194 01c5 12       		.uleb128 0x12
 2195 01c6 06       		.uleb128 0x6
 2196 01c7 58       		.uleb128 0x58
 2197 01c8 0B       		.uleb128 0xb
 2198 01c9 59       		.uleb128 0x59
 2199 01ca 05       		.uleb128 0x5
 2200 01cb 00       		.byte	0
 2201 01cc 00       		.byte	0
 2202 01cd 25       		.uleb128 0x25
 2203 01ce 898201   		.uleb128 0x4109
 2204 01d1 00       		.byte	0
 2205 01d2 11       		.uleb128 0x11
 2206 01d3 01       		.uleb128 0x1
 2207 01d4 31       		.uleb128 0x31
 2208 01d5 13       		.uleb128 0x13
 2209 01d6 00       		.byte	0
 2210 01d7 00       		.byte	0
 2211 01d8 26       		.uleb128 0x26
 2212 01d9 1D       		.uleb128 0x1d
 2213 01da 00       		.byte	0
 2214 01db 31       		.uleb128 0x31
 2215 01dc 13       		.uleb128 0x13
 2216 01dd 11       		.uleb128 0x11
 2217 01de 01       		.uleb128 0x1
 2218 01df 12       		.uleb128 0x12
 2219 01e0 06       		.uleb128 0x6
 2220 01e1 58       		.uleb128 0x58
 2221 01e2 0B       		.uleb128 0xb
ARM GAS  /var/folders/t8/16hdwfmd2fg_d3q6dgx6bpmw0000gn/T//ccqjcya2.s 			page 40


 2222 01e3 59       		.uleb128 0x59
 2223 01e4 0B       		.uleb128 0xb
 2224 01e5 00       		.byte	0
 2225 01e6 00       		.byte	0
 2226 01e7 27       		.uleb128 0x27
 2227 01e8 898201   		.uleb128 0x4109
 2228 01eb 01       		.byte	0x1
 2229 01ec 11       		.uleb128 0x11
 2230 01ed 01       		.uleb128 0x1
 2231 01ee 31       		.uleb128 0x31
 2232 01ef 13       		.uleb128 0x13
 2233 01f0 00       		.byte	0
 2234 01f1 00       		.byte	0
 2235 01f2 28       		.uleb128 0x28
 2236 01f3 8A8201   		.uleb128 0x410a
 2237 01f6 00       		.byte	0
 2238 01f7 02       		.uleb128 0x2
 2239 01f8 18       		.uleb128 0x18
 2240 01f9 9142     		.uleb128 0x2111
 2241 01fb 18       		.uleb128 0x18
 2242 01fc 00       		.byte	0
 2243 01fd 00       		.byte	0
 2244 01fe 29       		.uleb128 0x29
 2245 01ff 2E       		.uleb128 0x2e
 2246 0200 00       		.byte	0
 2247 0201 3F       		.uleb128 0x3f
 2248 0202 19       		.uleb128 0x19
 2249 0203 03       		.uleb128 0x3
 2250 0204 0E       		.uleb128 0xe
 2251 0205 3A       		.uleb128 0x3a
 2252 0206 0B       		.uleb128 0xb
 2253 0207 3B       		.uleb128 0x3b
 2254 0208 0B       		.uleb128 0xb
 2255 0209 27       		.uleb128 0x27
 2256 020a 19       		.uleb128 0x19
 2257 020b 00       		.byte	0
 2258 020c 00       		.byte	0
 2259 020d 2A       		.uleb128 0x2a
 2260 020e 2E       		.uleb128 0x2e
 2261 020f 00       		.byte	0
 2262 0210 3F       		.uleb128 0x3f
 2263 0211 19       		.uleb128 0x19
 2264 0212 03       		.uleb128 0x3
 2265 0213 0E       		.uleb128 0xe
 2266 0214 3A       		.uleb128 0x3a
 2267 0215 0B       		.uleb128 0xb
 2268 0216 3B       		.uleb128 0x3b
 2269 0217 0B       		.uleb128 0xb
 2270 0218 27       		.uleb128 0x27
 2271 0219 19       		.uleb128 0x19
 2272 021a 20       		.uleb128 0x20
 2273 021b 0B       		.uleb128 0xb
 2274 021c 00       		.byte	0
 2275 021d 00       		.byte	0
 2276 021e 2B       		.uleb128 0x2b
 2277 021f 2E       		.uleb128 0x2e
 2278 0220 01       		.byte	0x1
ARM GAS  /var/folders/t8/16hdwfmd2fg_d3q6dgx6bpmw0000gn/T//ccqjcya2.s 			page 41


 2279 0221 03       		.uleb128 0x3
 2280 0222 0E       		.uleb128 0xe
 2281 0223 3A       		.uleb128 0x3a
 2282 0224 0B       		.uleb128 0xb
 2283 0225 3B       		.uleb128 0x3b
 2284 0226 05       		.uleb128 0x5
 2285 0227 27       		.uleb128 0x27
 2286 0228 19       		.uleb128 0x19
 2287 0229 49       		.uleb128 0x49
 2288 022a 13       		.uleb128 0x13
 2289 022b 20       		.uleb128 0x20
 2290 022c 0B       		.uleb128 0xb
 2291 022d 01       		.uleb128 0x1
 2292 022e 13       		.uleb128 0x13
 2293 022f 00       		.byte	0
 2294 0230 00       		.byte	0
 2295 0231 2C       		.uleb128 0x2c
 2296 0232 05       		.uleb128 0x5
 2297 0233 00       		.byte	0
 2298 0234 03       		.uleb128 0x3
 2299 0235 0E       		.uleb128 0xe
 2300 0236 3A       		.uleb128 0x3a
 2301 0237 0B       		.uleb128 0xb
 2302 0238 3B       		.uleb128 0x3b
 2303 0239 05       		.uleb128 0x5
 2304 023a 49       		.uleb128 0x49
 2305 023b 13       		.uleb128 0x13
 2306 023c 00       		.byte	0
 2307 023d 00       		.byte	0
 2308 023e 2D       		.uleb128 0x2d
 2309 023f 2E       		.uleb128 0x2e
 2310 0240 01       		.byte	0x1
 2311 0241 03       		.uleb128 0x3
 2312 0242 0E       		.uleb128 0xe
 2313 0243 3A       		.uleb128 0x3a
 2314 0244 0B       		.uleb128 0xb
 2315 0245 3B       		.uleb128 0x3b
 2316 0246 0B       		.uleb128 0xb
 2317 0247 27       		.uleb128 0x27
 2318 0248 19       		.uleb128 0x19
 2319 0249 49       		.uleb128 0x49
 2320 024a 13       		.uleb128 0x13
 2321 024b 20       		.uleb128 0x20
 2322 024c 0B       		.uleb128 0xb
 2323 024d 01       		.uleb128 0x1
 2324 024e 13       		.uleb128 0x13
 2325 024f 00       		.byte	0
 2326 0250 00       		.byte	0
 2327 0251 2E       		.uleb128 0x2e
 2328 0252 34       		.uleb128 0x34
 2329 0253 00       		.byte	0
 2330 0254 03       		.uleb128 0x3
 2331 0255 0E       		.uleb128 0xe
 2332 0256 3A       		.uleb128 0x3a
 2333 0257 0B       		.uleb128 0xb
 2334 0258 3B       		.uleb128 0x3b
 2335 0259 0B       		.uleb128 0xb
ARM GAS  /var/folders/t8/16hdwfmd2fg_d3q6dgx6bpmw0000gn/T//ccqjcya2.s 			page 42


 2336 025a 49       		.uleb128 0x49
 2337 025b 13       		.uleb128 0x13
 2338 025c 00       		.byte	0
 2339 025d 00       		.byte	0
 2340 025e 2F       		.uleb128 0x2f
 2341 025f 2E       		.uleb128 0x2e
 2342 0260 00       		.byte	0
 2343 0261 03       		.uleb128 0x3
 2344 0262 0E       		.uleb128 0xe
 2345 0263 3A       		.uleb128 0x3a
 2346 0264 0B       		.uleb128 0xb
 2347 0265 3B       		.uleb128 0x3b
 2348 0266 0B       		.uleb128 0xb
 2349 0267 27       		.uleb128 0x27
 2350 0268 19       		.uleb128 0x19
 2351 0269 49       		.uleb128 0x49
 2352 026a 13       		.uleb128 0x13
 2353 026b 20       		.uleb128 0x20
 2354 026c 0B       		.uleb128 0xb
 2355 026d 00       		.byte	0
 2356 026e 00       		.byte	0
 2357 026f 30       		.uleb128 0x30
 2358 0270 2E       		.uleb128 0x2e
 2359 0271 01       		.byte	0x1
 2360 0272 03       		.uleb128 0x3
 2361 0273 0E       		.uleb128 0xe
 2362 0274 3A       		.uleb128 0x3a
 2363 0275 0B       		.uleb128 0xb
 2364 0276 3B       		.uleb128 0x3b
 2365 0277 05       		.uleb128 0x5
 2366 0278 27       		.uleb128 0x27
 2367 0279 19       		.uleb128 0x19
 2368 027a 20       		.uleb128 0x20
 2369 027b 0B       		.uleb128 0xb
 2370 027c 01       		.uleb128 0x1
 2371 027d 13       		.uleb128 0x13
 2372 027e 00       		.byte	0
 2373 027f 00       		.byte	0
 2374 0280 31       		.uleb128 0x31
 2375 0281 34       		.uleb128 0x34
 2376 0282 00       		.byte	0
 2377 0283 03       		.uleb128 0x3
 2378 0284 0E       		.uleb128 0xe
 2379 0285 49       		.uleb128 0x49
 2380 0286 13       		.uleb128 0x13
 2381 0287 34       		.uleb128 0x34
 2382 0288 19       		.uleb128 0x19
 2383 0289 1C       		.uleb128 0x1c
 2384 028a 0E       		.uleb128 0xe
 2385 028b 00       		.byte	0
 2386 028c 00       		.byte	0
 2387 028d 32       		.uleb128 0x32
 2388 028e 2E       		.uleb128 0x2e
 2389 028f 00       		.byte	0
 2390 0290 03       		.uleb128 0x3
 2391 0291 0E       		.uleb128 0xe
 2392 0292 3A       		.uleb128 0x3a
ARM GAS  /var/folders/t8/16hdwfmd2fg_d3q6dgx6bpmw0000gn/T//ccqjcya2.s 			page 43


 2393 0293 0B       		.uleb128 0xb
 2394 0294 3B       		.uleb128 0x3b
 2395 0295 05       		.uleb128 0x5
 2396 0296 27       		.uleb128 0x27
 2397 0297 19       		.uleb128 0x19
 2398 0298 20       		.uleb128 0x20
 2399 0299 0B       		.uleb128 0xb
 2400 029a 00       		.byte	0
 2401 029b 00       		.byte	0
 2402 029c 33       		.uleb128 0x33
 2403 029d 2E       		.uleb128 0x2e
 2404 029e 00       		.byte	0
 2405 029f 03       		.uleb128 0x3
 2406 02a0 0E       		.uleb128 0xe
 2407 02a1 3A       		.uleb128 0x3a
 2408 02a2 0B       		.uleb128 0xb
 2409 02a3 3B       		.uleb128 0x3b
 2410 02a4 0B       		.uleb128 0xb
 2411 02a5 27       		.uleb128 0x27
 2412 02a6 19       		.uleb128 0x19
 2413 02a7 20       		.uleb128 0x20
 2414 02a8 0B       		.uleb128 0xb
 2415 02a9 00       		.byte	0
 2416 02aa 00       		.byte	0
 2417 02ab 34       		.uleb128 0x34
 2418 02ac 2E       		.uleb128 0x2e
 2419 02ad 00       		.byte	0
 2420 02ae 31       		.uleb128 0x31
 2421 02af 13       		.uleb128 0x13
 2422 02b0 11       		.uleb128 0x11
 2423 02b1 01       		.uleb128 0x1
 2424 02b2 12       		.uleb128 0x12
 2425 02b3 06       		.uleb128 0x6
 2426 02b4 40       		.uleb128 0x40
 2427 02b5 18       		.uleb128 0x18
 2428 02b6 9742     		.uleb128 0x2117
 2429 02b8 19       		.uleb128 0x19
 2430 02b9 00       		.byte	0
 2431 02ba 00       		.byte	0
 2432 02bb 35       		.uleb128 0x35
 2433 02bc 2E       		.uleb128 0x2e
 2434 02bd 00       		.byte	0
 2435 02be 3F       		.uleb128 0x3f
 2436 02bf 19       		.uleb128 0x19
 2437 02c0 3C       		.uleb128 0x3c
 2438 02c1 19       		.uleb128 0x19
 2439 02c2 6E       		.uleb128 0x6e
 2440 02c3 0E       		.uleb128 0xe
 2441 02c4 03       		.uleb128 0x3
 2442 02c5 0E       		.uleb128 0xe
 2443 02c6 3A       		.uleb128 0x3a
 2444 02c7 0B       		.uleb128 0xb
 2445 02c8 3B       		.uleb128 0x3b
 2446 02c9 0B       		.uleb128 0xb
 2447 02ca 00       		.byte	0
 2448 02cb 00       		.byte	0
 2449 02cc 36       		.uleb128 0x36
ARM GAS  /var/folders/t8/16hdwfmd2fg_d3q6dgx6bpmw0000gn/T//ccqjcya2.s 			page 44


 2450 02cd 2E       		.uleb128 0x2e
 2451 02ce 00       		.byte	0
 2452 02cf 3F       		.uleb128 0x3f
 2453 02d0 19       		.uleb128 0x19
 2454 02d1 3C       		.uleb128 0x3c
 2455 02d2 19       		.uleb128 0x19
 2456 02d3 6E       		.uleb128 0x6e
 2457 02d4 0E       		.uleb128 0xe
 2458 02d5 03       		.uleb128 0x3
 2459 02d6 0E       		.uleb128 0xe
 2460 02d7 3A       		.uleb128 0x3a
 2461 02d8 0B       		.uleb128 0xb
 2462 02d9 3B       		.uleb128 0x3b
 2463 02da 05       		.uleb128 0x5
 2464 02db 00       		.byte	0
 2465 02dc 00       		.byte	0
 2466 02dd 00       		.byte	0
 2467              		.section	.debug_loc,"",%progbits
 2468              	.Ldebug_loc0:
 2469              	.LLST2:
 2470 0000 00000000 		.4byte	.LVL13
 2471 0004 06000000 		.4byte	.LVL14
 2472 0008 0100     		.2byte	0x1
 2473 000a 50       		.byte	0x50
 2474 000b 06000000 		.4byte	.LVL14
 2475 000f 16000000 		.4byte	.LVL16
 2476 0013 0100     		.2byte	0x1
 2477 0015 51       		.byte	0x51
 2478 0016 16000000 		.4byte	.LVL16
 2479 001a 44000000 		.4byte	.LFE143
 2480 001e 0400     		.2byte	0x4
 2481 0020 F3       		.byte	0xf3
 2482 0021 01       		.uleb128 0x1
 2483 0022 50       		.byte	0x50
 2484 0023 9F       		.byte	0x9f
 2485 0024 00000000 		.4byte	0
 2486 0028 00000000 		.4byte	0
 2487              	.LLST3:
 2488 002c 00000000 		.4byte	.LVL13
 2489 0030 06000000 		.4byte	.LVL14
 2490 0034 1400     		.2byte	0x14
 2491 0036 70       		.byte	0x70
 2492 0037 00       		.sleb128 0
 2493 0038 0A       		.byte	0xa
 2494 0039 E803     		.2byte	0x3e8
 2495 003b 1E       		.byte	0x1e
 2496 003c 23       		.byte	0x23
 2497 003d E707     		.uleb128 0x3e7
 2498 003f F7       		.byte	0xf7
 2499 0040 25       		.uleb128 0x25
 2500 0041 0A       		.byte	0xa
 2501 0042 E803     		.2byte	0x3e8
 2502 0044 F7       		.byte	0xf7
 2503 0045 25       		.uleb128 0x25
 2504 0046 1B       		.byte	0x1b
 2505 0047 F7       		.byte	0xf7
 2506 0048 00       		.uleb128 0
ARM GAS  /var/folders/t8/16hdwfmd2fg_d3q6dgx6bpmw0000gn/T//ccqjcya2.s 			page 45


 2507 0049 9F       		.byte	0x9f
 2508 004a 06000000 		.4byte	.LVL14
 2509 004e 0C000000 		.4byte	.LVL15
 2510 0052 1400     		.2byte	0x14
 2511 0054 71       		.byte	0x71
 2512 0055 00       		.sleb128 0
 2513 0056 0A       		.byte	0xa
 2514 0057 E803     		.2byte	0x3e8
 2515 0059 1E       		.byte	0x1e
 2516 005a 23       		.byte	0x23
 2517 005b E707     		.uleb128 0x3e7
 2518 005d F7       		.byte	0xf7
 2519 005e 25       		.uleb128 0x25
 2520 005f 0A       		.byte	0xa
 2521 0060 E803     		.2byte	0x3e8
 2522 0062 F7       		.byte	0xf7
 2523 0063 25       		.uleb128 0x25
 2524 0064 1B       		.byte	0x1b
 2525 0065 F7       		.byte	0xf7
 2526 0066 00       		.uleb128 0
 2527 0067 9F       		.byte	0x9f
 2528 0068 00000000 		.4byte	0
 2529 006c 00000000 		.4byte	0
 2530              	.LLST0:
 2531 0070 00000000 		.4byte	.LVL8
 2532 0074 06000000 		.4byte	.LVL9
 2533 0078 0100     		.2byte	0x1
 2534 007a 50       		.byte	0x50
 2535 007b 06000000 		.4byte	.LVL9
 2536 007f 44000000 		.4byte	.LFE142
 2537 0083 0400     		.2byte	0x4
 2538 0085 F3       		.byte	0xf3
 2539 0086 01       		.uleb128 0x1
 2540 0087 50       		.byte	0x50
 2541 0088 9F       		.byte	0x9f
 2542 0089 00000000 		.4byte	0
 2543 008d 00000000 		.4byte	0
 2544              	.LLST1:
 2545 0091 00000000 		.4byte	.LVL8
 2546 0095 06000000 		.4byte	.LVL9
 2547 0099 1800     		.2byte	0x18
 2548 009b 70       		.byte	0x70
 2549 009c 00       		.sleb128 0
 2550 009d 0A       		.byte	0xa
 2551 009e FFFF     		.2byte	0xffff
 2552 00a0 1A       		.byte	0x1a
 2553 00a1 0A       		.byte	0xa
 2554 00a2 E803     		.2byte	0x3e8
 2555 00a4 1E       		.byte	0x1e
 2556 00a5 23       		.byte	0x23
 2557 00a6 E707     		.uleb128 0x3e7
 2558 00a8 F7       		.byte	0xf7
 2559 00a9 25       		.uleb128 0x25
 2560 00aa 0A       		.byte	0xa
 2561 00ab E803     		.2byte	0x3e8
 2562 00ad F7       		.byte	0xf7
 2563 00ae 25       		.uleb128 0x25
ARM GAS  /var/folders/t8/16hdwfmd2fg_d3q6dgx6bpmw0000gn/T//ccqjcya2.s 			page 46


 2564 00af 1B       		.byte	0x1b
 2565 00b0 F7       		.byte	0xf7
 2566 00b1 00       		.uleb128 0
 2567 00b2 9F       		.byte	0x9f
 2568 00b3 06000000 		.4byte	.LVL9
 2569 00b7 0C000000 		.4byte	.LVL10
 2570 00bb 1900     		.2byte	0x19
 2571 00bd F3       		.byte	0xf3
 2572 00be 01       		.uleb128 0x1
 2573 00bf 50       		.byte	0x50
 2574 00c0 0A       		.byte	0xa
 2575 00c1 FFFF     		.2byte	0xffff
 2576 00c3 1A       		.byte	0x1a
 2577 00c4 0A       		.byte	0xa
 2578 00c5 E803     		.2byte	0x3e8
 2579 00c7 1E       		.byte	0x1e
 2580 00c8 23       		.byte	0x23
 2581 00c9 E707     		.uleb128 0x3e7
 2582 00cb F7       		.byte	0xf7
 2583 00cc 25       		.uleb128 0x25
 2584 00cd 0A       		.byte	0xa
 2585 00ce E803     		.2byte	0x3e8
 2586 00d0 F7       		.byte	0xf7
 2587 00d1 25       		.uleb128 0x25
 2588 00d2 1B       		.byte	0x1b
 2589 00d3 F7       		.byte	0xf7
 2590 00d4 00       		.uleb128 0
 2591 00d5 9F       		.byte	0x9f
 2592 00d6 00000000 		.4byte	0
 2593 00da 00000000 		.4byte	0
 2594              		.section	.debug_aranges,"",%progbits
 2595 0000 3C000000 		.4byte	0x3c
 2596 0004 0200     		.2byte	0x2
 2597 0006 00000000 		.4byte	.Ldebug_info0
 2598 000a 04       		.byte	0x4
 2599 000b 00       		.byte	0
 2600 000c 0000     		.2byte	0
 2601 000e 0000     		.2byte	0
 2602 0010 00000000 		.4byte	.LFB138
 2603 0014 02000000 		.4byte	.LFE138-.LFB138
 2604 0018 00000000 		.4byte	.LFB140
 2605 001c 4C000000 		.4byte	.LFE140-.LFB140
 2606 0020 00000000 		.4byte	.LFB141
 2607 0024 4C000000 		.4byte	.LFE141-.LFB141
 2608 0028 00000000 		.4byte	.LFB142
 2609 002c 44000000 		.4byte	.LFE142-.LFB142
 2610 0030 00000000 		.4byte	.LFB143
 2611 0034 44000000 		.4byte	.LFE143-.LFB143
 2612 0038 00000000 		.4byte	0
 2613 003c 00000000 		.4byte	0
 2614              		.section	.debug_ranges,"",%progbits
 2615              	.Ldebug_ranges0:
 2616 0000 02000000 		.4byte	.LBB63
 2617 0004 22000000 		.4byte	.LBE63
 2618 0008 3C000000 		.4byte	.LBB80
 2619 000c 4C000000 		.4byte	.LBE80
 2620 0010 00000000 		.4byte	0
ARM GAS  /var/folders/t8/16hdwfmd2fg_d3q6dgx6bpmw0000gn/T//ccqjcya2.s 			page 47


 2621 0014 00000000 		.4byte	0
 2622 0018 0C000000 		.4byte	.LBB72
 2623 001c 22000000 		.4byte	.LBE72
 2624 0020 3C000000 		.4byte	.LBB78
 2625 0024 4C000000 		.4byte	.LBE78
 2626 0028 00000000 		.4byte	0
 2627 002c 00000000 		.4byte	0
 2628 0030 02000000 		.4byte	.LBB95
 2629 0034 22000000 		.4byte	.LBE95
 2630 0038 3A000000 		.4byte	.LBB112
 2631 003c 4C000000 		.4byte	.LBE112
 2632 0040 00000000 		.4byte	0
 2633 0044 00000000 		.4byte	0
 2634 0048 0C000000 		.4byte	.LBB104
 2635 004c 22000000 		.4byte	.LBE104
 2636 0050 3A000000 		.4byte	.LBB110
 2637 0054 4C000000 		.4byte	.LBE110
 2638 0058 00000000 		.4byte	0
 2639 005c 00000000 		.4byte	0
 2640 0060 02000000 		.4byte	.LBB113
 2641 0064 04000000 		.4byte	.LBE113
 2642 0068 0A000000 		.4byte	.LBB118
 2643 006c 0C000000 		.4byte	.LBE118
 2644 0070 00000000 		.4byte	0
 2645 0074 00000000 		.4byte	0
 2646 0078 02000000 		.4byte	.LBB119
 2647 007c 04000000 		.4byte	.LBE119
 2648 0080 0A000000 		.4byte	.LBB124
 2649 0084 0C000000 		.4byte	.LBE124
 2650 0088 00000000 		.4byte	0
 2651 008c 00000000 		.4byte	0
 2652 0090 00000000 		.4byte	.LFB138
 2653 0094 02000000 		.4byte	.LFE138
 2654 0098 00000000 		.4byte	.LFB140
 2655 009c 4C000000 		.4byte	.LFE140
 2656 00a0 00000000 		.4byte	.LFB141
 2657 00a4 4C000000 		.4byte	.LFE141
 2658 00a8 00000000 		.4byte	.LFB142
 2659 00ac 44000000 		.4byte	.LFE142
 2660 00b0 00000000 		.4byte	.LFB143
 2661 00b4 44000000 		.4byte	.LFE143
 2662 00b8 00000000 		.4byte	0
 2663 00bc 00000000 		.4byte	0
 2664              		.section	.debug_line,"",%progbits
 2665              	.Ldebug_line0:
 2666 0000 D7030000 		.section	.debug_str,"MS",%progbits,1
 2666      0200F602 
 2666      00000201 
 2666      FB0E0D00 
 2666      01010101 
 2667              	.LASF48:
 2668 0000 63685F74 		.ascii	"ch_threads_list\000"
 2668      68726561 
 2668      64735F6C 
 2668      69737400 
 2669              	.LASF96:
 2670 0010 74696D65 		.ascii	"timesize\000"
ARM GAS  /var/folders/t8/16hdwfmd2fg_d3q6dgx6bpmw0000gn/T//ccqjcya2.s 			page 48


 2670      73697A65 
 2670      00
 2671              	.LASF129:
 2672 0019 474E5520 		.ascii	"GNU C99 7.2.1 20170904 (release) [ARM/embedded-7-br"
 2672      43393920 
 2672      372E322E 
 2672      31203230 
 2672      31373039 
 2673 004c 616E6368 		.ascii	"anch revision 255204] -mcpu=cortex-m0plus -mno-thum"
 2673      20726576 
 2673      6973696F 
 2673      6E203235 
 2673      35323034 
 2674 007f 622D696E 		.ascii	"b-interwork -mthumb -ggdb -O2 -std=gnu99 -fomit-fra"
 2674      74657277 
 2674      6F726B20 
 2674      2D6D7468 
 2674      756D6220 
 2675 00b2 6D652D70 		.ascii	"me-pointer -falign-functions=16 -ffunction-sections"
 2675      6F696E74 
 2675      6572202D 
 2675      66616C69 
 2675      676E2D66 
 2676 00e5 202D6664 		.ascii	" -fdata-sections -fno-common\000"
 2676      6174612D 
 2676      73656374 
 2676      696F6E73 
 2676      202D666E 
 2677              	.LASF84:
 2678 0102 77746D74 		.ascii	"wtmtxp\000"
 2678      787000
 2679              	.LASF127:
 2680 0109 5F646267 		.ascii	"_dbg_check_unlock\000"
 2680      5F636865 
 2680      636B5F75 
 2680      6E6C6F63 
 2680      6B00
 2681              	.LASF74:
 2682 011b 72656761 		.ascii	"regarm_t\000"
 2682      726D5F74 
 2682      00
 2683              	.LASF36:
 2684 0124 666C6167 		.ascii	"flags\000"
 2684      7300
 2685              	.LASF27:
 2686 012a 73797374 		.ascii	"systime_t\000"
 2686      696D655F 
 2686      7400
 2687              	.LASF43:
 2688 0134 7265616C 		.ascii	"realprio\000"
 2688      7072696F 
 2688      00
 2689              	.LASF41:
 2690 013d 6570656E 		.ascii	"epending\000"
 2690      64696E67 
 2690      00
 2691              	.LASF0:
ARM GAS  /var/folders/t8/16hdwfmd2fg_d3q6dgx6bpmw0000gn/T//ccqjcya2.s 			page 49


 2692 0146 756E7369 		.ascii	"unsigned int\000"
 2692      676E6564 
 2692      20696E74 
 2692      00
 2693              	.LASF49:
 2694 0153 6E657874 		.ascii	"next\000"
 2694      00
 2695              	.LASF94:
 2696 0158 76657273 		.ascii	"version\000"
 2696      696F6E00 
 2697              	.LASF135:
 2698 0160 63685654 		.ascii	"chVTGetSystemTimeX\000"
 2698      47657453 
 2698      79737465 
 2698      6D54696D 
 2698      655800
 2699              	.LASF46:
 2700 0173 74687265 		.ascii	"threads_list_t\000"
 2700      6164735F 
 2700      6C697374 
 2700      5F7400
 2701              	.LASF7:
 2702 0182 5F5F696E 		.ascii	"__int32_t\000"
 2702      7433325F 
 2702      7400
 2703              	.LASF37:
 2704 018c 72656673 		.ascii	"refs\000"
 2704      00
 2705              	.LASF108:
 2706 0191 6F66665F 		.ascii	"off_time\000"
 2706      74696D65 
 2706      00
 2707              	.LASF80:
 2708 019a 77746F62 		.ascii	"wtobjp\000"
 2708      6A7000
 2709              	.LASF123:
 2710 01a1 706F7274 		.ascii	"port_lock\000"
 2710      5F6C6F63 
 2710      6B00
 2711              	.LASF72:
 2712 01ab 76746C69 		.ascii	"vtlist\000"
 2712      737400
 2713              	.LASF76:
 2714 01b2 706F7274 		.ascii	"port_context\000"
 2714      5F636F6E 
 2714      74657874 
 2714      00
 2715              	.LASF54:
 2716 01bf 63685F72 		.ascii	"ch_ready_list\000"
 2716      65616479 
 2716      5F6C6973 
 2716      7400
 2717              	.LASF60:
 2718 01cd 66756E63 		.ascii	"func\000"
 2718      00
 2719              	.LASF85:
 2720 01d2 65776D61 		.ascii	"ewmask\000"
ARM GAS  /var/folders/t8/16hdwfmd2fg_d3q6dgx6bpmw0000gn/T//ccqjcya2.s 			page 50


 2720      736B00
 2721              	.LASF52:
 2722 01d9 70726576 		.ascii	"prev\000"
 2722      00
 2723              	.LASF51:
 2724 01de 63685F74 		.ascii	"ch_threads_queue\000"
 2724      68726561 
 2724      64735F71 
 2724      75657565 
 2724      00
 2725              	.LASF100:
 2726 01ef 6F66665F 		.ascii	"off_newer\000"
 2726      6E657765 
 2726      7200
 2727              	.LASF56:
 2728 01f9 76746675 		.ascii	"vtfunc_t\000"
 2728      6E635F74 
 2728      00
 2729              	.LASF118:
 2730 0202 63685654 		.ascii	"chVTTimeElapsedSinceX\000"
 2730      54696D65 
 2730      456C6170 
 2730      73656453 
 2730      696E6365 
 2731              	.LASF65:
 2732 0218 63685F73 		.ascii	"ch_system_debug\000"
 2732      79737465 
 2732      6D5F6465 
 2732      62756700 
 2733              	.LASF17:
 2734 0228 75696E74 		.ascii	"uint32_t\000"
 2734      33325F74 
 2734      00
 2735              	.LASF82:
 2736 0231 73656E74 		.ascii	"sentmsg\000"
 2736      6D736700 
 2737              	.LASF25:
 2738 0239 6576656E 		.ascii	"eventmask_t\000"
 2738      746D6173 
 2738      6B5F7400 
 2739              	.LASF97:
 2740 0245 74687265 		.ascii	"threadsize\000"
 2740      61647369 
 2740      7A6500
 2741              	.LASF86:
 2742 0250 63685F73 		.ascii	"ch_semaphore\000"
 2742      656D6170 
 2742      686F7265 
 2742      00
 2743              	.LASF23:
 2744 025d 74707269 		.ascii	"tprio_t\000"
 2744      6F5F7400 
 2745              	.LASF58:
 2746 0265 63685F76 		.ascii	"ch_virtual_timer\000"
 2746      69727475 
 2746      616C5F74 
 2746      696D6572 
ARM GAS  /var/folders/t8/16hdwfmd2fg_d3q6dgx6bpmw0000gn/T//ccqjcya2.s 			page 51


 2746      00
 2747              	.LASF13:
 2748 0276 6C6F6E67 		.ascii	"long long unsigned int\000"
 2748      206C6F6E 
 2748      6720756E 
 2748      7369676E 
 2748      65642069 
 2749              	.LASF5:
 2750 028d 5F5F7569 		.ascii	"__uint16_t\000"
 2750      6E743136 
 2750      5F7400
 2751              	.LASF26:
 2752 0298 636E745F 		.ascii	"cnt_t\000"
 2752      7400
 2753              	.LASF103:
 2754 029e 6F66665F 		.ascii	"off_stklimit\000"
 2754      73746B6C 
 2754      696D6974 
 2754      00
 2755              	.LASF67:
 2756 02ab 6973725F 		.ascii	"isr_cnt\000"
 2756      636E7400 
 2757              	.LASF88:
 2758 02b3 6F776E65 		.ascii	"owner\000"
 2758      7200
 2759              	.LASF50:
 2760 02b9 74687265 		.ascii	"threads_queue_t\000"
 2760      6164735F 
 2760      71756575 
 2760      655F7400 
 2761              	.LASF42:
 2762 02c9 6D74786C 		.ascii	"mtxlist\000"
 2762      69737400 
 2763              	.LASF62:
 2764 02d1 63685F76 		.ascii	"ch_virtual_timers_list\000"
 2764      69727475 
 2764      616C5F74 
 2764      696D6572 
 2764      735F6C69 
 2765              	.LASF28:
 2766 02e8 74687265 		.ascii	"thread_t\000"
 2766      61645F74 
 2766      00
 2767              	.LASF101:
 2768 02f1 6F66665F 		.ascii	"off_older\000"
 2768      6F6C6465 
 2768      7200
 2769              	.LASF104:
 2770 02fb 6F66665F 		.ascii	"off_state\000"
 2770      73746174 
 2770      6500
 2771              	.LASF78:
 2772 0305 7264796D 		.ascii	"rdymsg\000"
 2772      736700
 2773              	.LASF124:
 2774 030c 5F5F6469 		.ascii	"__disable_irq\000"
 2774      7361626C 
ARM GAS  /var/folders/t8/16hdwfmd2fg_d3q6dgx6bpmw0000gn/T//ccqjcya2.s 			page 52


 2774      655F6972 
 2774      7100
 2775              	.LASF132:
 2776 031a 74696D65 		.ascii	"timer_clear\000"
 2776      725F636C 
 2776      65617200 
 2777              	.LASF87:
 2778 0326 63685F6D 		.ascii	"ch_mutex\000"
 2778      75746578 
 2778      00
 2779              	.LASF12:
 2780 032f 5F5F7569 		.ascii	"__uint64_t\000"
 2780      6E743634 
 2780      5F7400
 2781              	.LASF99:
 2782 033a 6F66665F 		.ascii	"off_ctx\000"
 2782      63747800 
 2783              	.LASF115:
 2784 0342 6C617374 		.ascii	"last\000"
 2784      00
 2785              	.LASF121:
 2786 0347 63685379 		.ascii	"chSysLock\000"
 2786      734C6F63 
 2786      6B00
 2787              	.LASF105:
 2788 0351 6F66665F 		.ascii	"off_flags\000"
 2788      666C6167 
 2788      7300
 2789              	.LASF30:
 2790 035b 7072696F 		.ascii	"prio\000"
 2790      00
 2791              	.LASF89:
 2792 0360 63686172 		.ascii	"char\000"
 2792      00
 2793              	.LASF45:
 2794 0365 74687265 		.ascii	"thread_reference_t\000"
 2794      61645F72 
 2794      65666572 
 2794      656E6365 
 2794      5F7400
 2795              	.LASF34:
 2796 0378 77616261 		.ascii	"wabase\000"
 2796      736500
 2797              	.LASF90:
 2798 037f 63685F69 		.ascii	"ch_idle_thread_wa\000"
 2798      646C655F 
 2798      74687265 
 2798      61645F77 
 2798      6100
 2799              	.LASF20:
 2800 0391 74737461 		.ascii	"tstate_t\000"
 2800      74655F74 
 2800      00
 2801              	.LASF14:
 2802 039a 75696E74 		.ascii	"uint8_t\000"
 2802      385F7400 
 2803              	.LASF40:
ARM GAS  /var/folders/t8/16hdwfmd2fg_d3q6dgx6bpmw0000gn/T//ccqjcya2.s 			page 53


 2804 03a2 6D736771 		.ascii	"msgqueue\000"
 2804      75657565 
 2804      00
 2805              	.LASF47:
 2806 03ab 63685F74 		.ascii	"ch_thread\000"
 2806      68726561 
 2806      6400
 2807              	.LASF102:
 2808 03b5 6F66665F 		.ascii	"off_name\000"
 2808      6E616D65 
 2808      00
 2809              	.LASF64:
 2810 03be 73797374 		.ascii	"system_debug_t\000"
 2810      656D5F64 
 2810      65627567 
 2810      5F7400
 2811              	.LASF126:
 2812 03cd 5F646267 		.ascii	"_dbg_check_lock\000"
 2812      5F636865 
 2812      636B5F6C 
 2812      6F636B00 
 2813              	.LASF11:
 2814 03dd 6C6F6E67 		.ascii	"long long int\000"
 2814      206C6F6E 
 2814      6720696E 
 2814      7400
 2815              	.LASF92:
 2816 03eb 7A65726F 		.ascii	"zero\000"
 2816      00
 2817              	.LASF119:
 2818 03f0 63685654 		.ascii	"chVTGetSystemTime\000"
 2818      47657453 
 2818      79737465 
 2818      6D54696D 
 2818      6500
 2819              	.LASF130:
 2820 0402 2E2E2F2E 		.ascii	"../../tmk_core/common/chibios/timer.c\000"
 2820      2E2F746D 
 2820      6B5F636F 
 2820      72652F63 
 2820      6F6D6D6F 
 2821              	.LASF24:
 2822 0428 6D73675F 		.ascii	"msg_t\000"
 2822      7400
 2823              	.LASF57:
 2824 042e 76697274 		.ascii	"virtual_timer_t\000"
 2824      75616C5F 
 2824      74696D65 
 2824      725F7400 
 2825              	.LASF93:
 2826 043e 73697A65 		.ascii	"size\000"
 2826      00
 2827              	.LASF95:
 2828 0443 70747273 		.ascii	"ptrsize\000"
 2828      697A6500 
 2829              	.LASF22:
 2830 044b 74736C69 		.ascii	"tslices_t\000"
ARM GAS  /var/folders/t8/16hdwfmd2fg_d3q6dgx6bpmw0000gn/T//ccqjcya2.s 			page 54


 2830      6365735F 
 2830      7400
 2831              	.LASF131:
 2832 0455 2F557365 		.ascii	"/Users/jpablobr/tmp/tmk/di0ib-tmk_keyboard/keyboard"
 2832      72732F6A 
 2832      7061626C 
 2832      6F62722F 
 2832      746D702F 
 2833 0488 2F746565 		.ascii	"/teensy_lc_menelaus\000"
 2833      6E73795F 
 2833      6C635F6D 
 2833      656E656C 
 2833      61757300 
 2834              	.LASF66:
 2835 049c 70616E69 		.ascii	"panic_msg\000"
 2835      635F6D73 
 2835      6700
 2836              	.LASF19:
 2837 04a6 746D6F64 		.ascii	"tmode_t\000"
 2837      655F7400 
 2838              	.LASF63:
 2839 04ae 73797374 		.ascii	"systime\000"
 2839      696D6500 
 2840              	.LASF73:
 2841 04b6 6D61696E 		.ascii	"mainthread\000"
 2841      74687265 
 2841      616400
 2842              	.LASF15:
 2843 04c1 75696E74 		.ascii	"uint16_t\000"
 2843      31365F74 
 2843      00
 2844              	.LASF109:
 2845 04ca 63686465 		.ascii	"chdebug_t\000"
 2845      6275675F 
 2845      7400
 2846              	.LASF98:
 2847 04d4 6F66665F 		.ascii	"off_prio\000"
 2847      7072696F 
 2847      00
 2848              	.LASF68:
 2849 04dd 6C6F636B 		.ascii	"lock_cnt\000"
 2849      5F636E74 
 2849      00
 2850              	.LASF3:
 2851 04e6 73686F72 		.ascii	"short int\000"
 2851      7420696E 
 2851      7400
 2852              	.LASF114:
 2853 04f0 74696D65 		.ascii	"timer_elapsed\000"
 2853      725F656C 
 2853      61707365 
 2853      6400
 2854              	.LASF8:
 2855 04fe 6C6F6E67 		.ascii	"long int\000"
 2855      20696E74 
 2855      00
 2856              	.LASF77:
ARM GAS  /var/folders/t8/16hdwfmd2fg_d3q6dgx6bpmw0000gn/T//ccqjcya2.s 			page 55


 2857 0507 706F7274 		.ascii	"port_intctx\000"
 2857      5F696E74 
 2857      63747800 
 2858              	.LASF38:
 2859 0513 70726565 		.ascii	"preempt\000"
 2859      6D707400 
 2860              	.LASF125:
 2861 051b 5F5F656E 		.ascii	"__enable_irq\000"
 2861      61626C65 
 2861      5F697271 
 2861      00
 2862              	.LASF70:
 2863 0528 63685F73 		.ascii	"ch_system\000"
 2863      79737465 
 2863      6D00
 2864              	.LASF116:
 2865 0532 74696D65 		.ascii	"timer_read32\000"
 2865      725F7265 
 2865      61643332 
 2865      00
 2866              	.LASF18:
 2867 053f 75696E74 		.ascii	"uint64_t\000"
 2867      36345F74 
 2867      00
 2868              	.LASF71:
 2869 0548 726C6973 		.ascii	"rlist\000"
 2869      7400
 2870              	.LASF4:
 2871 054e 5F5F7569 		.ascii	"__uint8_t\000"
 2871      6E74385F 
 2871      7400
 2872              	.LASF113:
 2873 0558 74696D65 		.ascii	"timer_elapsed32\000"
 2873      725F656C 
 2873      61707365 
 2873      64333200 
 2874              	.LASF33:
 2875 0568 6E616D65 		.ascii	"name\000"
 2875      00
 2876              	.LASF134:
 2877 056d 73746172 		.ascii	"start\000"
 2877      7400
 2878              	.LASF91:
 2879 0573 6964656E 		.ascii	"identifier\000"
 2879      74696669 
 2879      657200
 2880              	.LASF107:
 2881 057e 6F66665F 		.ascii	"off_preempt\000"
 2881      70726565 
 2881      6D707400 
 2882              	.LASF136:
 2883 058a 63685379 		.ascii	"chSysUnlock\000"
 2883      73556E6C 
 2883      6F636B00 
 2884              	.LASF21:
 2885 0596 74726566 		.ascii	"trefs_t\000"
 2885      735F7400 
ARM GAS  /var/folders/t8/16hdwfmd2fg_d3q6dgx6bpmw0000gn/T//ccqjcya2.s 			page 56


 2886              	.LASF10:
 2887 059e 6C6F6E67 		.ascii	"long unsigned int\000"
 2887      20756E73 
 2887      69676E65 
 2887      6420696E 
 2887      7400
 2888              	.LASF53:
 2889 05b0 72656164 		.ascii	"ready_list_t\000"
 2889      795F6C69 
 2889      73745F74 
 2889      00
 2890              	.LASF29:
 2891 05bd 71756575 		.ascii	"queue\000"
 2891      6500
 2892              	.LASF16:
 2893 05c3 696E7433 		.ascii	"int32_t\000"
 2893      325F7400 
 2894              	.LASF83:
 2895 05cb 77747365 		.ascii	"wtsemp\000"
 2895      6D7000
 2896              	.LASF111:
 2897 05d2 6D757465 		.ascii	"mutex_t\000"
 2897      785F7400 
 2898              	.LASF31:
 2899 05da 6E657765 		.ascii	"newer\000"
 2899      7200
 2900              	.LASF2:
 2901 05e0 756E7369 		.ascii	"unsigned char\000"
 2901      676E6564 
 2901      20636861 
 2901      7200
 2902              	.LASF9:
 2903 05ee 5F5F7569 		.ascii	"__uint32_t\000"
 2903      6E743332 
 2903      5F7400
 2904              	.LASF39:
 2905 05f9 77616974 		.ascii	"waiting\000"
 2905      696E6700 
 2906              	.LASF61:
 2907 0601 76697274 		.ascii	"virtual_timers_list_t\000"
 2907      75616C5F 
 2907      74696D65 
 2907      72735F6C 
 2907      6973745F 
 2908              	.LASF35:
 2909 0617 73746174 		.ascii	"state\000"
 2909      6500
 2910              	.LASF128:
 2911 061d 63685379 		.ascii	"chSysHalt\000"
 2911      7348616C 
 2911      7400
 2912              	.LASF69:
 2913 0627 63685F73 		.ascii	"ch_system_t\000"
 2913      79737465 
 2913      6D5F7400 
 2914              	.LASF81:
 2915 0633 77747472 		.ascii	"wttrp\000"
ARM GAS  /var/folders/t8/16hdwfmd2fg_d3q6dgx6bpmw0000gn/T//ccqjcya2.s 			page 57


 2915      7000
 2916              	.LASF1:
 2917 0639 7369676E 		.ascii	"signed char\000"
 2917      65642063 
 2917      68617200 
 2918              	.LASF59:
 2919 0645 64656C74 		.ascii	"delta\000"
 2919      6100
 2920              	.LASF133:
 2921 064b 74696D65 		.ascii	"timer_init\000"
 2921      725F696E 
 2921      697400
 2922              	.LASF6:
 2923 0656 73686F72 		.ascii	"short unsigned int\000"
 2923      7420756E 
 2923      7369676E 
 2923      65642069 
 2923      6E7400
 2924              	.LASF75:
 2925 0669 73746B61 		.ascii	"stkalign_t\000"
 2925      6C69676E 
 2925      5F7400
 2926              	.LASF106:
 2927 0674 6F66665F 		.ascii	"off_refs\000"
 2927      72656673 
 2927      00
 2928              	.LASF55:
 2929 067d 63757272 		.ascii	"current\000"
 2929      656E7400 
 2930              	.LASF120:
 2931 0685 5F5F6675 		.ascii	"__func__\000"
 2931      6E635F5F 
 2931      00
 2932              	.LASF112:
 2933 068e 74696D65 		.ascii	"timer_count\000"
 2933      725F636F 
 2933      756E7400 
 2934              	.LASF110:
 2935 069a 63685F64 		.ascii	"ch_debug\000"
 2935      65627567 
 2935      00
 2936              	.LASF122:
 2937 06a3 706F7274 		.ascii	"port_unlock\000"
 2937      5F756E6C 
 2937      6F636B00 
 2938              	.LASF32:
 2939 06af 6F6C6465 		.ascii	"older\000"
 2939      7200
 2940              	.LASF79:
 2941 06b5 65786974 		.ascii	"exitcode\000"
 2941      636F6465 
 2941      00
 2942              	.LASF44:
 2943 06be 6D706F6F 		.ascii	"mpool\000"
 2943      6C00
 2944              	.LASF117:
 2945 06c4 74696D65 		.ascii	"timer_read\000"
ARM GAS  /var/folders/t8/16hdwfmd2fg_d3q6dgx6bpmw0000gn/T//ccqjcya2.s 			page 58


 2945      725F7265 
 2945      616400
 2946              		.ident	"GCC: (GNU Tools for Arm Embedded Processors 7-2017-q4-major) 7.2.1 20170904 (release) [ARM
ARM GAS  /var/folders/t8/16hdwfmd2fg_d3q6dgx6bpmw0000gn/T//ccqjcya2.s 			page 59


DEFINED SYMBOLS
                            *ABS*:0000000000000000 timer.c
/var/folders/t8/16hdwfmd2fg_d3q6dgx6bpmw0000gn/T//ccqjcya2.s:16     .text.timer_init:0000000000000000 $t
/var/folders/t8/16hdwfmd2fg_d3q6dgx6bpmw0000gn/T//ccqjcya2.s:24     .text.timer_init:0000000000000000 timer_init
/var/folders/t8/16hdwfmd2fg_d3q6dgx6bpmw0000gn/T//ccqjcya2.s:39     .text.timer_clear:0000000000000000 $t
/var/folders/t8/16hdwfmd2fg_d3q6dgx6bpmw0000gn/T//ccqjcya2.s:47     .text.timer_clear:0000000000000000 timer_clear
/var/folders/t8/16hdwfmd2fg_d3q6dgx6bpmw0000gn/T//ccqjcya2.s:60     .text.timer_read:0000000000000000 $t
/var/folders/t8/16hdwfmd2fg_d3q6dgx6bpmw0000gn/T//ccqjcya2.s:68     .text.timer_read:0000000000000000 timer_read
/var/folders/t8/16hdwfmd2fg_d3q6dgx6bpmw0000gn/T//ccqjcya2.s:176    .text.timer_read:0000000000000044 $d
/var/folders/t8/16hdwfmd2fg_d3q6dgx6bpmw0000gn/T//ccqjcya2.s:186    .text.timer_read32:0000000000000000 $t
/var/folders/t8/16hdwfmd2fg_d3q6dgx6bpmw0000gn/T//ccqjcya2.s:194    .text.timer_read32:0000000000000000 timer_read32
/var/folders/t8/16hdwfmd2fg_d3q6dgx6bpmw0000gn/T//ccqjcya2.s:295    .text.timer_read32:0000000000000044 $d
/var/folders/t8/16hdwfmd2fg_d3q6dgx6bpmw0000gn/T//ccqjcya2.s:306    .text.timer_elapsed:0000000000000000 $t
/var/folders/t8/16hdwfmd2fg_d3q6dgx6bpmw0000gn/T//ccqjcya2.s:314    .text.timer_elapsed:0000000000000000 timer_elapsed
/var/folders/t8/16hdwfmd2fg_d3q6dgx6bpmw0000gn/T//ccqjcya2.s:381    .text.timer_elapsed:000000000000003c $d
/var/folders/t8/16hdwfmd2fg_d3q6dgx6bpmw0000gn/T//ccqjcya2.s:387    .text.timer_elapsed32:0000000000000000 $t
/var/folders/t8/16hdwfmd2fg_d3q6dgx6bpmw0000gn/T//ccqjcya2.s:395    .text.timer_elapsed32:0000000000000000 timer_elapsed32
/var/folders/t8/16hdwfmd2fg_d3q6dgx6bpmw0000gn/T//ccqjcya2.s:460    .text.timer_elapsed32:000000000000003c $d
/var/folders/t8/16hdwfmd2fg_d3q6dgx6bpmw0000gn/T//ccqjcya2.s:466    .rodata.__func__.5043:0000000000000000 $d
/var/folders/t8/16hdwfmd2fg_d3q6dgx6bpmw0000gn/T//ccqjcya2.s:470    .rodata.__func__.5043:0000000000000000 __func__.5043

UNDEFINED SYMBOLS
__aeabi_uidiv
_dbg_check_lock
_dbg_check_unlock
chSysHalt
ch
__aeabi_idiv
