ARM GAS  /var/folders/t8/16hdwfmd2fg_d3q6dgx6bpmw0000gn/T//ccqjcya2.s 			page 1


   1              		.cpu cortex-m0plus
   2              		.eabi_attribute 20, 1
   3              		.eabi_attribute 21, 1
   4              		.eabi_attribute 23, 3
   5              		.eabi_attribute 24, 1
   6              		.eabi_attribute 25, 1
   7              		.eabi_attribute 26, 1
   8              		.eabi_attribute 30, 2
   9              		.eabi_attribute 34, 0
  10              		.eabi_attribute 18, 4
  11              		.file	"timer.c"
  12              		.text
  13              	.Ltext0:
  14              		.cfi_sections	.debug_frame
  15              		.section	.text.timer_init,"ax",%progbits
  16              		.align	1
  17              		.p2align 4,,15
  18              		.global	timer_init
  19              		.syntax unified
  20              		.code	16
  21              		.thumb_func
  22              		.fpu softvfp
  23              		.type	timer_init, %function
  24              	timer_init:
  25              	.LFB138:
  26              		.file 1 "../../tmk_core/common/chibios/timer.c"
  27              		.loc 1 5 0
  28              		.cfi_startproc
  29              		@ args = 0, pretend = 0, frame = 0
  30              		@ frame_needed = 0, uses_anonymous_args = 0
  31              		@ link register save eliminated.
  32              		.loc 1 5 0
  33              		@ sp needed
  34 0000 7047     		bx	lr
  35              		.cfi_endproc
  36              	.LFE138:
  37              		.size	timer_init, .-timer_init
  38 0002 C046     		.section	.text.timer_clear,"ax",%progbits
  39              		.align	1
  40              		.p2align 4,,15
  41              		.global	timer_clear
  42              		.syntax unified
  43              		.code	16
  44              		.thumb_func
  45              		.fpu softvfp
  46              		.type	timer_clear, %function
  47              	timer_clear:
  48              	.LFB145:
  49              		.cfi_startproc
  50              		@ args = 0, pretend = 0, frame = 0
  51              		@ frame_needed = 0, uses_anonymous_args = 0
  52              		@ link register save eliminated.
  53              		@ sp needed
  54 0000 7047     		bx	lr
  55              		.cfi_endproc
  56              	.LFE145:
  57              		.size	timer_clear, .-timer_clear
ARM GAS  /var/folders/t8/16hdwfmd2fg_d3q6dgx6bpmw0000gn/T//ccqjcya2.s 			page 2


  58              		.global	__aeabi_uidiv
  59 0002 C046     		.section	.text.timer_read,"ax",%progbits
  60              		.align	1
  61              		.p2align 4,,15
  62              		.global	timer_read
  63              		.syntax unified
  64              		.code	16
  65              		.thumb_func
  66              		.fpu softvfp
  67              		.type	timer_read, %function
  68              	timer_read:
  69              	.LFB140:
  70              		.loc 1 10 0
  71              		.cfi_startproc
  72              		@ args = 0, pretend = 0, frame = 0
  73              		@ frame_needed = 0, uses_anonymous_args = 0
  74              		.loc 1 10 0
  75 0000 70B5     		push	{r4, r5, r6, lr}
  76              		.cfi_def_cfa_offset 16
  77              		.cfi_offset 4, -16
  78              		.cfi_offset 5, -12
  79              		.cfi_offset 6, -8
  80              		.cfi_offset 14, -4
  81              	.LBB63:
  82              	.LBB64:
  83              	.LBB65:
  84              	.LBB66:
  85              	.LBB67:
  86              	.LBB68:
  87              	.LBB69:
  88              		.file 2 "../../tmk_core/tool/chibios/ChibiOS/os/common/ext/CMSIS/include/cmsis_gcc.h"
  89              		.loc 2 71 0
  90              		.syntax divided
  91              	@ 71 "../../tmk_core/tool/chibios/ChibiOS/os/common/ext/CMSIS/include/cmsis_gcc.h" 1
  92 0002 72B6     		cpsid i
  93              	@ 0 "" 2
  94              		.thumb
  95              		.syntax unified
  96              	.LBE69:
  97              	.LBE68:
  98              	.LBE67:
  99              		.file 3 "../../tmk_core/tool/chibios/ChibiOS/os/rt/include/chsys.h"
 100              		.loc 3 378 0
 101 0004 FFF7FEFF 		bl	_dbg_check_lock
 102              	.LVL0:
 103              	.LBE66:
 104              	.LBE65:
 105              	.LBB70:
 106              	.LBB71:
 107              		.file 4 "../../tmk_core/tool/chibios/ChibiOS/os/rt/include/chvt.h"
 108              		.loc 4 231 0
 109 0008 0E4D     		ldr	r5, .L7
 110 000a AC6A     		ldr	r4, [r5, #40]
 111              	.LBE71:
 112              	.LBE70:
 113              	.LBB72:
 114              	.LBB73:
ARM GAS  /var/folders/t8/16hdwfmd2fg_d3q6dgx6bpmw0000gn/T//ccqjcya2.s 			page 3


 115              		.loc 3 388 0
 116 000c FFF7FEFF 		bl	_dbg_check_unlock
 117              	.LVL1:
 118              		.loc 3 395 0
 119 0010 2B68     		ldr	r3, [r5]
 120 0012 AB42     		cmp	r3, r5
 121 0014 04D0     		beq	.L5
 122 0016 AA69     		ldr	r2, [r5, #24]
 123 0018 9B68     		ldr	r3, [r3, #8]
 124 001a 9268     		ldr	r2, [r2, #8]
 125 001c 9A42     		cmp	r2, r3
 126 001e 0DD3     		bcc	.L6
 127              	.L5:
 128              	.LBB74:
 129              	.LBB75:
 130              	.LBB76:
 131              		.loc 2 60 0
 132              		.syntax divided
 133              	@ 60 "../../tmk_core/tool/chibios/ChibiOS/os/common/ext/CMSIS/include/cmsis_gcc.h" 1
 134 0020 62B6     		cpsie i
 135              	@ 0 "" 2
 136              		.thumb
 137              		.syntax unified
 138              	.LBE76:
 139              	.LBE75:
 140              	.LBE74:
 141              	.LBE73:
 142              	.LBE72:
 143              	.LBE64:
 144              	.LBE63:
 145              		.loc 1 11 0
 146 0022 FA21     		movs	r1, #250
 147 0024 0134     		adds	r4, r4, #1
 148 0026 6001     		lsls	r0, r4, #5
 149 0028 001B     		subs	r0, r0, r4
 150 002a 8000     		lsls	r0, r0, #2
 151 002c 0019     		adds	r0, r0, r4
 152 002e C000     		lsls	r0, r0, #3
 153 0030 8900     		lsls	r1, r1, #2
 154 0032 0138     		subs	r0, r0, #1
 155 0034 FFF7FEFF 		bl	__aeabi_uidiv
 156              	.LVL2:
 157              		.loc 1 12 0
 158              		@ sp needed
 159              		.loc 1 11 0
 160 0038 80B2     		uxth	r0, r0
 161              		.loc 1 12 0
 162 003a 70BD     		pop	{r4, r5, r6, pc}
 163              	.L6:
 164              	.LBB80:
 165              	.LBB79:
 166              	.LBB78:
 167              	.LBB77:
 168              		.loc 3 395 0
 169 003c 0248     		ldr	r0, .L7+4
 170 003e FFF7FEFF 		bl	chSysHalt
 171              	.LVL3:
ARM GAS  /var/folders/t8/16hdwfmd2fg_d3q6dgx6bpmw0000gn/T//ccqjcya2.s 			page 4


 172 0042 EDE7     		b	.L5
 173              	.L8:
 174              		.align	2
 175              	.L7:
 176 0044 00000000 		.word	ch
 177 0048 00000000 		.word	.LANCHOR0
 178              	.LBE77:
 179              	.LBE78:
 180              	.LBE79:
 181              	.LBE80:
 182              		.cfi_endproc
 183              	.LFE140:
 184              		.size	timer_read, .-timer_read
 185              		.section	.text.timer_read32,"ax",%progbits
 186              		.align	1
 187              		.p2align 4,,15
 188              		.global	timer_read32
 189              		.syntax unified
 190              		.code	16
 191              		.thumb_func
 192              		.fpu softvfp
 193              		.type	timer_read32, %function
 194              	timer_read32:
 195              	.LFB141:
 196              		.loc 1 15 0
 197              		.cfi_startproc
 198              		@ args = 0, pretend = 0, frame = 0
 199              		@ frame_needed = 0, uses_anonymous_args = 0
 200 0000 70B5     		push	{r4, r5, r6, lr}
 201              		.cfi_def_cfa_offset 16
 202              		.cfi_offset 4, -16
 203              		.cfi_offset 5, -12
 204              		.cfi_offset 6, -8
 205              		.cfi_offset 14, -4
 206              	.LBB95:
 207              	.LBB96:
 208              	.LBB97:
 209              	.LBB98:
 210              	.LBB99:
 211              	.LBB100:
 212              	.LBB101:
 213              		.loc 2 71 0
 214              		.syntax divided
 215              	@ 71 "../../tmk_core/tool/chibios/ChibiOS/os/common/ext/CMSIS/include/cmsis_gcc.h" 1
 216 0002 72B6     		cpsid i
 217              	@ 0 "" 2
 218              		.thumb
 219              		.syntax unified
 220              	.LBE101:
 221              	.LBE100:
 222              	.LBE99:
 223              		.loc 3 378 0
 224 0004 FFF7FEFF 		bl	_dbg_check_lock
 225              	.LVL4:
 226              	.LBE98:
 227              	.LBE97:
 228              	.LBB102:
ARM GAS  /var/folders/t8/16hdwfmd2fg_d3q6dgx6bpmw0000gn/T//ccqjcya2.s 			page 5


 229              	.LBB103:
 230              		.loc 4 231 0
 231 0008 0E4D     		ldr	r5, .L12
 232 000a AC6A     		ldr	r4, [r5, #40]
 233              	.LBE103:
 234              	.LBE102:
 235              	.LBB104:
 236              	.LBB105:
 237              		.loc 3 388 0
 238 000c FFF7FEFF 		bl	_dbg_check_unlock
 239              	.LVL5:
 240              		.loc 3 395 0
 241 0010 2B68     		ldr	r3, [r5]
 242 0012 AB42     		cmp	r3, r5
 243 0014 04D0     		beq	.L10
 244 0016 AA69     		ldr	r2, [r5, #24]
 245 0018 9B68     		ldr	r3, [r3, #8]
 246 001a 9268     		ldr	r2, [r2, #8]
 247 001c 9A42     		cmp	r2, r3
 248 001e 0CD3     		bcc	.L11
 249              	.L10:
 250              	.LBB106:
 251              	.LBB107:
 252              	.LBB108:
 253              		.loc 2 60 0
 254              		.syntax divided
 255              	@ 60 "../../tmk_core/tool/chibios/ChibiOS/os/common/ext/CMSIS/include/cmsis_gcc.h" 1
 256 0020 62B6     		cpsie i
 257              	@ 0 "" 2
 258              		.thumb
 259              		.syntax unified
 260              	.LBE108:
 261              	.LBE107:
 262              	.LBE106:
 263              	.LBE105:
 264              	.LBE104:
 265              	.LBE96:
 266              	.LBE95:
 267              		.loc 1 16 0
 268 0022 FA21     		movs	r1, #250
 269 0024 0134     		adds	r4, r4, #1
 270 0026 6001     		lsls	r0, r4, #5
 271 0028 001B     		subs	r0, r0, r4
 272 002a 8000     		lsls	r0, r0, #2
 273 002c 0019     		adds	r0, r0, r4
 274 002e C000     		lsls	r0, r0, #3
 275 0030 8900     		lsls	r1, r1, #2
 276 0032 0138     		subs	r0, r0, #1
 277 0034 FFF7FEFF 		bl	__aeabi_uidiv
 278              	.LVL6:
 279              		.loc 1 17 0
 280              		@ sp needed
 281 0038 70BD     		pop	{r4, r5, r6, pc}
 282              	.L11:
 283              	.LBB112:
 284              	.LBB111:
 285              	.LBB110:
ARM GAS  /var/folders/t8/16hdwfmd2fg_d3q6dgx6bpmw0000gn/T//ccqjcya2.s 			page 6


 286              	.LBB109:
 287              		.loc 3 395 0
 288 003a 0348     		ldr	r0, .L12+4
 289 003c FFF7FEFF 		bl	chSysHalt
 290              	.LVL7:
 291 0040 EEE7     		b	.L10
 292              	.L13:
 293 0042 C046     		.align	2
 294              	.L12:
 295 0044 00000000 		.word	ch
 296 0048 00000000 		.word	.LANCHOR0
 297              	.LBE109:
 298              	.LBE110:
 299              	.LBE111:
 300              	.LBE112:
 301              		.cfi_endproc
 302              	.LFE141:
 303              		.size	timer_read32, .-timer_read32
 304              		.global	__aeabi_idiv
 305              		.section	.text.timer_elapsed,"ax",%progbits
 306              		.align	1
 307              		.p2align 4,,15
 308              		.global	timer_elapsed
 309              		.syntax unified
 310              		.code	16
 311              		.thumb_func
 312              		.fpu softvfp
 313              		.type	timer_elapsed, %function
 314              	timer_elapsed:
 315              	.LFB142:
 316              		.loc 1 20 0
 317              		.cfi_startproc
 318              		@ args = 0, pretend = 0, frame = 0
 319              		@ frame_needed = 0, uses_anonymous_args = 0
 320              	.LVL8:
 321 0000 0100     		movs	r1, r0
 322              	.LBB113:
 323              	.LBB114:
 324              	.LBB115:
 325              		.loc 4 231 0
 326 0002 0E4B     		ldr	r3, .L15
 327              	.LBE115:
 328              	.LBE114:
 329              	.LBE113:
 330              		.loc 1 21 0
 331 0004 4001     		lsls	r0, r0, #5
 332              	.LVL9:
 333              		.loc 1 20 0
 334 0006 10B5     		push	{r4, lr}
 335              		.cfi_def_cfa_offset 8
 336              		.cfi_offset 4, -8
 337              		.cfi_offset 14, -4
 338              		.loc 1 21 0
 339 0008 401A     		subs	r0, r0, r1
 340              	.LBB118:
 341              	.LBB117:
 342              	.LBB116:
ARM GAS  /var/folders/t8/16hdwfmd2fg_d3q6dgx6bpmw0000gn/T//ccqjcya2.s 			page 7


 343              		.loc 4 231 0
 344 000a 9C6A     		ldr	r4, [r3, #40]
 345              	.LVL10:
 346              	.LBE116:
 347              	.LBE117:
 348              	.LBE118:
 349              		.loc 1 21 0
 350 000c 0C4B     		ldr	r3, .L15+4
 351 000e 8000     		lsls	r0, r0, #2
 352 0010 9C46     		mov	ip, r3
 353 0012 4018     		adds	r0, r0, r1
 354 0014 FA21     		movs	r1, #250
 355 0016 C000     		lsls	r0, r0, #3
 356 0018 6044     		add	r0, r0, ip
 357 001a 8900     		lsls	r1, r1, #2
 358 001c FFF7FEFF 		bl	__aeabi_uidiv
 359              	.LVL11:
 360 0020 FA21     		movs	r1, #250
 361 0022 0134     		adds	r4, r4, #1
 362 0024 241A     		subs	r4, r4, r0
 363 0026 6001     		lsls	r0, r4, #5
 364 0028 001B     		subs	r0, r0, r4
 365 002a 8000     		lsls	r0, r0, #2
 366 002c 0019     		adds	r0, r0, r4
 367 002e C000     		lsls	r0, r0, #3
 368 0030 8900     		lsls	r1, r1, #2
 369 0032 0138     		subs	r0, r0, #1
 370 0034 FFF7FEFF 		bl	__aeabi_uidiv
 371              	.LVL12:
 372              		.loc 1 22 0
 373              		@ sp needed
 374              		.loc 1 21 0
 375 0038 80B2     		uxth	r0, r0
 376              		.loc 1 22 0
 377 003a 10BD     		pop	{r4, pc}
 378              	.L16:
 379              		.align	2
 380              	.L15:
 381 003c 00000000 		.word	ch
 382 0040 E7030000 		.word	999
 383              		.cfi_endproc
 384              	.LFE142:
 385              		.size	timer_elapsed, .-timer_elapsed
 386              		.section	.text.timer_elapsed32,"ax",%progbits
 387              		.align	1
 388              		.p2align 4,,15
 389              		.global	timer_elapsed32
 390              		.syntax unified
 391              		.code	16
 392              		.thumb_func
 393              		.fpu softvfp
 394              		.type	timer_elapsed32, %function
 395              	timer_elapsed32:
 396              	.LFB143:
 397              		.loc 1 25 0
 398              		.cfi_startproc
 399              		@ args = 0, pretend = 0, frame = 0
ARM GAS  /var/folders/t8/16hdwfmd2fg_d3q6dgx6bpmw0000gn/T//ccqjcya2.s 			page 8


 400              		@ frame_needed = 0, uses_anonymous_args = 0
 401              	.LVL13:
 402 0000 0100     		movs	r1, r0
 403              	.LBB119:
 404              	.LBB120:
 405              	.LBB121:
 406              		.loc 4 231 0
 407 0002 0E4B     		ldr	r3, .L18
 408              	.LBE121:
 409              	.LBE120:
 410              	.LBE119:
 411              		.loc 1 26 0
 412 0004 4001     		lsls	r0, r0, #5
 413              	.LVL14:
 414              		.loc 1 25 0
 415 0006 10B5     		push	{r4, lr}
 416              		.cfi_def_cfa_offset 8
 417              		.cfi_offset 4, -8
 418              		.cfi_offset 14, -4
 419              		.loc 1 26 0
 420 0008 401A     		subs	r0, r0, r1
 421              	.LBB124:
 422              	.LBB123:
 423              	.LBB122:
 424              		.loc 4 231 0
 425 000a 9C6A     		ldr	r4, [r3, #40]
 426              	.LVL15:
 427              	.LBE122:
 428              	.LBE123:
 429              	.LBE124:
 430              		.loc 1 26 0
 431 000c 0C4B     		ldr	r3, .L18+4
 432 000e 8000     		lsls	r0, r0, #2
 433 0010 9C46     		mov	ip, r3
 434 0012 4018     		adds	r0, r0, r1
 435 0014 FA21     		movs	r1, #250
 436              	.LVL16:
 437 0016 C000     		lsls	r0, r0, #3
 438 0018 6044     		add	r0, r0, ip
 439 001a 8900     		lsls	r1, r1, #2
 440 001c FFF7FEFF 		bl	__aeabi_uidiv
 441              	.LVL17:
 442 0020 FA21     		movs	r1, #250
 443 0022 0134     		adds	r4, r4, #1
 444 0024 241A     		subs	r4, r4, r0
 445 0026 6001     		lsls	r0, r4, #5
 446 0028 001B     		subs	r0, r0, r4
 447 002a 8000     		lsls	r0, r0, #2
 448 002c 0019     		adds	r0, r0, r4
 449 002e C000     		lsls	r0, r0, #3
 450 0030 8900     		lsls	r1, r1, #2
 451 0032 0138     		subs	r0, r0, #1
 452 0034 FFF7FEFF 		bl	__aeabi_uidiv
 453              	.LVL18:
 454              		.loc 1 27 0
 455              		@ sp needed
 456 0038 10BD     		pop	{r4, pc}
ARM GAS  /var/folders/t8/16hdwfmd2fg_d3q6dgx6bpmw0000gn/T//ccqjcya2.s 			page 9


 457              	.L19:
 458 003a C046     		.align	2
 459              	.L18:
 460 003c 00000000 		.word	ch
 461 0040 E7030000 		.word	999
 462              		.cfi_endproc
 463              	.LFE143:
 464              		.size	timer_elapsed32, .-timer_elapsed32
 465              		.section	.rodata.__func__.5043,"a",%progbits
 466              		.align	2
 467              		.set	.LANCHOR0,. + 0
 468              		.type	__func__.5043, %object
 469              		.size	__func__.5043, 12
 470              	__func__.5043:
 471 0000 63685379 		.ascii	"chSysUnlock\000"
 471      73556E6C 
 471      6F636B00 
 472              		.text
 473              	.Letext0:
 474              		.file 5 "/usr/local/Caskroom/gcc-arm-embedded/7-2017-q4-major/gcc-arm-none-eabi-7-2017-q4-major/ar
 475              		.file 6 "/usr/local/Caskroom/gcc-arm-embedded/7-2017-q4-major/gcc-arm-none-eabi-7-2017-q4-major/ar
 476              		.file 7 "../../tmk_core/tool/chibios/ChibiOS/os/common/ports/ARMCMx/compilers/GCC/chtypes.h"
 477              		.file 8 "../../tmk_core/tool/chibios/ChibiOS/os/rt/include/chsystypes.h"
 478              		.file 9 "../../tmk_core/tool/chibios/ChibiOS/os/rt/include/chschd.h"
 479              		.file 10 "../../tmk_core/tool/chibios/ChibiOS/os/common/ports/ARMCMx/chcore.h"
 480              		.file 11 "../../tmk_core/tool/chibios/ChibiOS/os/common/ports/ARMCMx/chcore_v6m.h"
 481              		.file 12 "../../tmk_core/tool/chibios/ChibiOS/os/rt/include/chsem.h"
 482              		.file 13 "../../tmk_core/tool/chibios/ChibiOS/os/rt/include/chmtx.h"
 483              		.file 14 "../../tmk_core/tool/chibios/ChibiOS/os/rt/include/chregistry.h"
 484              		.file 15 "../../tmk_core/common/timer.h"
 485              		.file 16 "../../tmk_core/tool/chibios/ChibiOS/os/rt/include/chdebug.h"