ARM GAS  /var/folders/t8/16hdwfmd2fg_d3q6dgx6bpmw0000gn/T//ccD4PKSw.s 			page 1


   1              		.cpu cortex-m0plus
   2              		.eabi_attribute 20, 1
   3              		.eabi_attribute 21, 1
   4              		.eabi_attribute 23, 3
   5              		.eabi_attribute 24, 1
   6              		.eabi_attribute 25, 1
   7              		.eabi_attribute 26, 1
   8              		.eabi_attribute 30, 2
   9              		.eabi_attribute 34, 0
  10              		.eabi_attribute 18, 4
  11              		.file	"util.c"
  12              		.text
  13              	.Ltext0:
  14              		.cfi_sections	.debug_frame
  15              		.section	.text.bitpop,"ax",%progbits
  16              		.align	1
  17              		.p2align 4,,15
  18              		.global	bitpop
  19              		.syntax unified
  20              		.code	16
  21              		.thumb_func
  22              		.fpu softvfp
  23              		.type	bitpop, %function
  24              	bitpop:
  25              	.LFB0:
  26              		.file 1 "../../tmk_core/common/util.c"
  27              		.loc 1 22 0
  28              		.cfi_startproc
  29              		@ args = 0, pretend = 0, frame = 0
  30              		@ frame_needed = 0, uses_anonymous_args = 0
  31              		@ link register save eliminated.
  32              	.LVL0:
  33              		.loc 1 22 0
  34 0000 0300     		movs	r3, r0
  35              	.LVL1:
  36              		.loc 1 24 0
  37 0002 0020     		movs	r0, #0
  38 0004 002B     		cmp	r3, #0
  39 0006 05D0     		beq	.L2
  40              	.LVL2:
  41              	.L3:
  42              		.loc 1 25 0 discriminator 3
  43 0008 5A1E     		subs	r2, r3, #1
  44              		.loc 1 24 0 discriminator 3
  45 000a 0130     		adds	r0, r0, #1
  46              	.LVL3:
  47              		.loc 1 25 0 discriminator 3
  48 000c 1340     		ands	r3, r2
  49              	.LVL4:
  50              		.loc 1 24 0 discriminator 3
  51 000e C0B2     		uxtb	r0, r0
  52              	.LVL5:
  53 0010 002B     		cmp	r3, #0
  54 0012 F9D1     		bne	.L3
  55              	.LVL6:
  56              	.L2:
  57              		.loc 1 31 0
ARM GAS  /var/folders/t8/16hdwfmd2fg_d3q6dgx6bpmw0000gn/T//ccD4PKSw.s 			page 2


  58              		@ sp needed
  59 0014 7047     		bx	lr
  60              		.cfi_endproc
  61              	.LFE0:
  62              		.size	bitpop, .-bitpop
  63 0016 C046     		.section	.text.bitpop16,"ax",%progbits
  64              		.align	1
  65              		.p2align 4,,15
  66              		.global	bitpop16
  67              		.syntax unified
  68              		.code	16
  69              		.thumb_func
  70              		.fpu softvfp
  71              		.type	bitpop16, %function
  72              	bitpop16:
  73              	.LFB1:
  74              		.loc 1 34 0
  75              		.cfi_startproc
  76              		@ args = 0, pretend = 0, frame = 0
  77              		@ frame_needed = 0, uses_anonymous_args = 0
  78              		@ link register save eliminated.
  79              	.LVL7:
  80              		.loc 1 34 0
  81 0000 0300     		movs	r3, r0
  82              	.LVL8:
  83              		.loc 1 36 0
  84 0002 0020     		movs	r0, #0
  85 0004 002B     		cmp	r3, #0
  86 0006 05D0     		beq	.L8
  87              	.LVL9:
  88              	.L9:
  89              		.loc 1 37 0 discriminator 3
  90 0008 5A1E     		subs	r2, r3, #1
  91              		.loc 1 36 0 discriminator 3
  92 000a 0130     		adds	r0, r0, #1
  93              	.LVL10:
  94              		.loc 1 37 0 discriminator 3
  95 000c 1340     		ands	r3, r2
  96              	.LVL11:
  97              		.loc 1 36 0 discriminator 3
  98 000e C0B2     		uxtb	r0, r0
  99              	.LVL12:
 100 0010 002B     		cmp	r3, #0
 101 0012 F9D1     		bne	.L9
 102              	.LVL13:
 103              	.L8:
 104              		.loc 1 39 0
 105              		@ sp needed
 106 0014 7047     		bx	lr
 107              		.cfi_endproc
 108              	.LFE1:
 109              		.size	bitpop16, .-bitpop16
 110 0016 C046     		.section	.text.bitpop32,"ax",%progbits
 111              		.align	1
 112              		.p2align 4,,15
 113              		.global	bitpop32
 114              		.syntax unified
ARM GAS  /var/folders/t8/16hdwfmd2fg_d3q6dgx6bpmw0000gn/T//ccD4PKSw.s 			page 3


 115              		.code	16
 116              		.thumb_func
 117              		.fpu softvfp
 118              		.type	bitpop32, %function
 119              	bitpop32:
 120              	.LFB2:
 121              		.loc 1 42 0
 122              		.cfi_startproc
 123              		@ args = 0, pretend = 0, frame = 0
 124              		@ frame_needed = 0, uses_anonymous_args = 0
 125              		@ link register save eliminated.
 126              	.LVL14:
 127              		.loc 1 42 0
 128 0000 0300     		movs	r3, r0
 129              		.loc 1 44 0
 130 0002 0020     		movs	r0, #0
 131              	.LVL15:
 132 0004 002B     		cmp	r3, #0
 133 0006 05D0     		beq	.L13
 134              	.LVL16:
 135              	.L14:
 136              		.loc 1 45 0 discriminator 3
 137 0008 5A1E     		subs	r2, r3, #1
 138              		.loc 1 44 0 discriminator 3
 139 000a 0130     		adds	r0, r0, #1
 140              	.LVL17:
 141              		.loc 1 45 0 discriminator 3
 142 000c 1340     		ands	r3, r2
 143              	.LVL18:
 144              		.loc 1 44 0 discriminator 3
 145 000e C0B2     		uxtb	r0, r0
 146              	.LVL19:
 147 0010 002B     		cmp	r3, #0
 148 0012 F9D1     		bne	.L14
 149              	.LVL20:
 150              	.L13:
 151              		.loc 1 47 0
 152              		@ sp needed
 153 0014 7047     		bx	lr
 154              		.cfi_endproc
 155              	.LFE2:
 156              		.size	bitpop32, .-bitpop32
 157 0016 C046     		.section	.text.biton,"ax",%progbits
 158              		.align	1
 159              		.p2align 4,,15
 160              		.global	biton
 161              		.syntax unified
 162              		.code	16
 163              		.thumb_func
 164              		.fpu softvfp
 165              		.type	biton, %function
 166              	biton:
 167              	.LFB3:
 168              		.loc 1 52 0
 169              		.cfi_startproc
 170              		@ args = 0, pretend = 0, frame = 0
 171              		@ frame_needed = 0, uses_anonymous_args = 0
ARM GAS  /var/folders/t8/16hdwfmd2fg_d3q6dgx6bpmw0000gn/T//ccD4PKSw.s 			page 4


 172              		@ link register save eliminated.
 173              	.LVL21:
 174              		.loc 1 52 0
 175 0000 0300     		movs	r3, r0
 176              		.loc 1 54 0
 177 0002 0209     		lsrs	r2, r0, #4
 178              		.loc 1 53 0
 179 0004 0020     		movs	r0, #0
 180              	.LVL22:
 181              		.loc 1 54 0
 182 0006 002A     		cmp	r2, #0
 183 0008 01D0     		beq	.L18
 184 000a 1300     		movs	r3, r2
 185 000c 0430     		adds	r0, r0, #4
 186              	.L18:
 187              	.LVL23:
 188              		.loc 1 55 0
 189 000e 9A08     		lsrs	r2, r3, #2
 190 0010 02D0     		beq	.L19
 191              	.LVL24:
 192              		.loc 1 55 0 is_stmt 0 discriminator 1
 193 0012 1300     		movs	r3, r2
 194 0014 0230     		adds	r0, r0, #2
 195              	.LVL25:
 196 0016 C0B2     		uxtb	r0, r0
 197              	.LVL26:
 198              	.L19:
 199              		.loc 1 56 0 is_stmt 1
 200 0018 5B08     		lsrs	r3, r3, #1
 201              	.LVL27:
 202 001a 01D0     		beq	.L20
 203              	.LVL28:
 204              		.loc 1 56 0 is_stmt 0 discriminator 1
 205 001c 0130     		adds	r0, r0, #1
 206              	.LVL29:
 207 001e C0B2     		uxtb	r0, r0
 208              	.LVL30:
 209              	.L20:
 210              		.loc 1 58 0 is_stmt 1
 211              		@ sp needed
 212 0020 7047     		bx	lr
 213              		.cfi_endproc
 214              	.LFE3:
 215              		.size	biton, .-biton
 216 0022 C046     		.section	.text.biton16,"ax",%progbits
 217              		.align	1
 218              		.p2align 4,,15
 219              		.global	biton16
 220              		.syntax unified
 221              		.code	16
 222              		.thumb_func
 223              		.fpu softvfp
 224              		.type	biton16, %function
 225              	biton16:
 226              	.LFB4:
 227              		.loc 1 61 0
 228              		.cfi_startproc
ARM GAS  /var/folders/t8/16hdwfmd2fg_d3q6dgx6bpmw0000gn/T//ccD4PKSw.s 			page 5


 229              		@ args = 0, pretend = 0, frame = 0
 230              		@ frame_needed = 0, uses_anonymous_args = 0
 231              		@ link register save eliminated.
 232              	.LVL31:
 233              		.loc 1 63 0
 234 0000 020A     		lsrs	r2, r0, #8
 235              		.loc 1 62 0
 236 0002 0023     		movs	r3, #0
 237              		.loc 1 63 0
 238 0004 002A     		cmp	r2, #0
 239 0006 01D0     		beq	.L30
 240 0008 1000     		movs	r0, r2
 241              	.LVL32:
 242 000a 0833     		adds	r3, r3, #8
 243              	.L30:
 244              	.LVL33:
 245              		.loc 1 64 0
 246 000c 0209     		lsrs	r2, r0, #4
 247 000e 02D0     		beq	.L31
 248              	.LVL34:
 249              		.loc 1 64 0 is_stmt 0 discriminator 1
 250 0010 1000     		movs	r0, r2
 251 0012 0433     		adds	r3, r3, #4
 252              	.LVL35:
 253 0014 DBB2     		uxtb	r3, r3
 254              	.LVL36:
 255              	.L31:
 256              		.loc 1 65 0 is_stmt 1
 257 0016 8208     		lsrs	r2, r0, #2
 258 0018 02D0     		beq	.L32
 259              	.LVL37:
 260              		.loc 1 65 0 is_stmt 0 discriminator 1
 261 001a 1000     		movs	r0, r2
 262 001c 0233     		adds	r3, r3, #2
 263              	.LVL38:
 264 001e DBB2     		uxtb	r3, r3
 265              	.LVL39:
 266              	.L32:
 267              		.loc 1 66 0 is_stmt 1
 268 0020 4008     		lsrs	r0, r0, #1
 269              	.LVL40:
 270 0022 01D0     		beq	.L33
 271              	.LVL41:
 272              		.loc 1 66 0 is_stmt 0 discriminator 1
 273 0024 0133     		adds	r3, r3, #1
 274              	.LVL42:
 275 0026 DBB2     		uxtb	r3, r3
 276              	.LVL43:
 277              	.L33:
 278              		.loc 1 68 0 is_stmt 1
 279 0028 1800     		movs	r0, r3
 280              		@ sp needed
 281 002a 7047     		bx	lr
 282              		.cfi_endproc
 283              	.LFE4:
 284              		.size	biton16, .-biton16
 285              		.section	.text.biton32,"ax",%progbits
ARM GAS  /var/folders/t8/16hdwfmd2fg_d3q6dgx6bpmw0000gn/T//ccD4PKSw.s 			page 6


 286              		.align	1
 287              		.p2align 4,,15
 288              		.global	biton32
 289              		.syntax unified
 290              		.code	16
 291              		.thumb_func
 292              		.fpu softvfp
 293              		.type	biton32, %function
 294              	biton32:
 295              	.LFB5:
 296              		.loc 1 71 0
 297              		.cfi_startproc
 298              		@ args = 0, pretend = 0, frame = 0
 299              		@ frame_needed = 0, uses_anonymous_args = 0
 300              		@ link register save eliminated.
 301              	.LVL44:
 302              		.loc 1 73 0
 303 0000 020C     		lsrs	r2, r0, #16
 304              		.loc 1 72 0
 305 0002 0023     		movs	r3, #0
 306              		.loc 1 73 0
 307 0004 002A     		cmp	r2, #0
 308 0006 01D0     		beq	.L46
 309 0008 1000     		movs	r0, r2
 310              	.LVL45:
 311 000a 1033     		adds	r3, r3, #16
 312              	.L46:
 313              	.LVL46:
 314              		.loc 1 74 0
 315 000c 020A     		lsrs	r2, r0, #8
 316 000e 02D0     		beq	.L47
 317              	.LVL47:
 318              		.loc 1 74 0 is_stmt 0 discriminator 1
 319 0010 1000     		movs	r0, r2
 320 0012 0833     		adds	r3, r3, #8
 321              	.LVL48:
 322 0014 DBB2     		uxtb	r3, r3
 323              	.LVL49:
 324              	.L47:
 325              		.loc 1 75 0 is_stmt 1
 326 0016 0209     		lsrs	r2, r0, #4
 327 0018 02D0     		beq	.L48
 328              	.LVL50:
 329              		.loc 1 75 0 is_stmt 0 discriminator 1
 330 001a 1000     		movs	r0, r2
 331 001c 0433     		adds	r3, r3, #4
 332              	.LVL51:
 333 001e DBB2     		uxtb	r3, r3
 334              	.LVL52:
 335              	.L48:
 336              		.loc 1 76 0 is_stmt 1
 337 0020 8208     		lsrs	r2, r0, #2
 338 0022 02D0     		beq	.L49
 339              	.LVL53:
 340              		.loc 1 76 0 is_stmt 0 discriminator 1
 341 0024 1000     		movs	r0, r2
 342 0026 0233     		adds	r3, r3, #2
ARM GAS  /var/folders/t8/16hdwfmd2fg_d3q6dgx6bpmw0000gn/T//ccD4PKSw.s 			page 7


 343              	.LVL54:
 344 0028 DBB2     		uxtb	r3, r3
 345              	.LVL55:
 346              	.L49:
 347              		.loc 1 77 0 is_stmt 1
 348 002a 4008     		lsrs	r0, r0, #1
 349              	.LVL56:
 350 002c 01D0     		beq	.L50
 351              	.LVL57:
 352              		.loc 1 77 0 is_stmt 0 discriminator 1
 353 002e 0133     		adds	r3, r3, #1
 354              	.LVL58:
 355 0030 DBB2     		uxtb	r3, r3
 356              	.LVL59:
 357              	.L50:
 358              		.loc 1 79 0 is_stmt 1
 359 0032 1800     		movs	r0, r3
 360              		@ sp needed
 361 0034 7047     		bx	lr
 362              		.cfi_endproc
 363              	.LFE5:
 364              		.size	biton32, .-biton32
 365 0036 C046     		.section	.text.bitrev,"ax",%progbits
 366              		.align	1
 367              		.p2align 4,,15
 368              		.global	bitrev
 369              		.syntax unified
 370              		.code	16
 371              		.thumb_func
 372              		.fpu softvfp
 373              		.type	bitrev, %function
 374              	bitrev:
 375              	.LFB6:
 376              		.loc 1 84 0
 377              		.cfi_startproc
 378              		@ args = 0, pretend = 0, frame = 0
 379              		@ frame_needed = 0, uses_anonymous_args = 0
 380              		@ link register save eliminated.
 381              	.LVL60:
 382              		.loc 1 86 0
 383 0000 3322     		movs	r2, #51
 384              		.loc 1 85 0
 385 0002 0301     		lsls	r3, r0, #4
 386 0004 0009     		lsrs	r0, r0, #4
 387              	.LVL61:
 388 0006 1843     		orrs	r0, r3
 389              	.LVL62:
 390              		.loc 1 86 0
 391 0008 C0B2     		uxtb	r0, r0
 392              	.LVL63:
 393 000a 8300     		lsls	r3, r0, #2
 394 000c 8010     		asrs	r0, r0, #2
 395              	.LVL64:
 396 000e 1040     		ands	r0, r2
 397 0010 9343     		bics	r3, r2
 398 0012 0343     		orrs	r3, r0
 399              		.loc 1 87 0
ARM GAS  /var/folders/t8/16hdwfmd2fg_d3q6dgx6bpmw0000gn/T//ccD4PKSw.s 			page 8


 400 0014 DBB2     		uxtb	r3, r3
 401              	.LVL65:
 402 0016 2232     		adds	r2, r2, #34
 403 0018 5800     		lsls	r0, r3, #1
 404 001a 5B10     		asrs	r3, r3, #1
 405              	.LVL66:
 406 001c 9043     		bics	r0, r2
 407 001e 1340     		ands	r3, r2
 408 0020 1843     		orrs	r0, r3
 409              		.loc 1 88 0
 410 0022 C0B2     		uxtb	r0, r0
 411              		.loc 1 89 0
 412              		@ sp needed
 413 0024 7047     		bx	lr
 414              		.cfi_endproc
 415              	.LFE6:
 416              		.size	bitrev, .-bitrev
 417 0026 C046     		.section	.text.bitrev16,"ax",%progbits
 418              		.align	1
 419              		.p2align 4,,15
 420              		.global	bitrev16
 421              		.syntax unified
 422              		.code	16
 423              		.thumb_func
 424              		.fpu softvfp
 425              		.type	bitrev16, %function
 426              	bitrev16:
 427              	.LFB7:
 428              		.loc 1 92 0
 429              		.cfi_startproc
 430              		@ args = 0, pretend = 0, frame = 0
 431              		@ frame_needed = 0, uses_anonymous_args = 0
 432              	.LVL67:
 433 0000 10B5     		push	{r4, lr}
 434              		.cfi_def_cfa_offset 8
 435              		.cfi_offset 4, -8
 436              		.cfi_offset 14, -4
 437              	.LBB6:
 438              	.LBB7:
 439              		.loc 1 86 0
 440 0002 3324     		movs	r4, #51
 441              	.LBE7:
 442              	.LBE6:
 443              		.loc 1 93 0
 444 0004 C3B2     		uxtb	r3, r0
 445              	.LVL68:
 446              	.LBB14:
 447              	.LBB8:
 448              		.loc 1 85 0
 449 0006 1901     		lsls	r1, r3, #4
 450 0008 1B09     		lsrs	r3, r3, #4
 451              	.LVL69:
 452 000a 1943     		orrs	r1, r3
 453              		.loc 1 86 0
 454 000c C9B2     		uxtb	r1, r1
 455              	.LVL70:
 456 000e 8B00     		lsls	r3, r1, #2
ARM GAS  /var/folders/t8/16hdwfmd2fg_d3q6dgx6bpmw0000gn/T//ccD4PKSw.s 			page 9


 457 0010 8910     		asrs	r1, r1, #2
 458              	.LVL71:
 459 0012 2140     		ands	r1, r4
 460 0014 A343     		bics	r3, r4
 461              	.LBE8:
 462              	.LBE14:
 463              		.loc 1 93 0
 464 0016 000A     		lsrs	r0, r0, #8
 465              	.LVL72:
 466              	.LBB15:
 467              	.LBB9:
 468              		.loc 1 86 0
 469 0018 0B43     		orrs	r3, r1
 470              	.LBE9:
 471              	.LBE15:
 472              	.LBB16:
 473              	.LBB17:
 474              		.loc 1 85 0
 475 001a 0101     		lsls	r1, r0, #4
 476 001c 0009     		lsrs	r0, r0, #4
 477 001e 0843     		orrs	r0, r1
 478              	.LBE17:
 479              	.LBE16:
 480              	.LBB22:
 481              	.LBB10:
 482              		.loc 1 87 0
 483 0020 5521     		movs	r1, #85
 484              	.LBE10:
 485              	.LBE22:
 486              	.LBB23:
 487              	.LBB18:
 488              		.loc 1 86 0
 489 0022 C0B2     		uxtb	r0, r0
 490 0024 8200     		lsls	r2, r0, #2
 491 0026 8010     		asrs	r0, r0, #2
 492 0028 2040     		ands	r0, r4
 493              	.LBE18:
 494              	.LBE23:
 495              	.LBB24:
 496              	.LBB11:
 497              		.loc 1 87 0
 498 002a DBB2     		uxtb	r3, r3
 499              	.LVL73:
 500              	.LBE11:
 501              	.LBE24:
 502              	.LBB25:
 503              	.LBB19:
 504              		.loc 1 86 0
 505 002c A243     		bics	r2, r4
 506 002e 0243     		orrs	r2, r0
 507              	.LBE19:
 508              	.LBE25:
 509              	.LBB26:
 510              	.LBB12:
 511              		.loc 1 87 0
 512 0030 5800     		lsls	r0, r3, #1
 513 0032 5B10     		asrs	r3, r3, #1
ARM GAS  /var/folders/t8/16hdwfmd2fg_d3q6dgx6bpmw0000gn/T//ccD4PKSw.s 			page 10


 514 0034 8843     		bics	r0, r1
 515              	.LBE12:
 516              	.LBE26:
 517              	.LBB27:
 518              	.LBB20:
 519 0036 D2B2     		uxtb	r2, r2
 520              	.LVL74:
 521              	.LBE20:
 522              	.LBE27:
 523              	.LBB28:
 524              	.LBB13:
 525 0038 0B40     		ands	r3, r1
 526 003a 0343     		orrs	r3, r0
 527              	.LBE13:
 528              	.LBE28:
 529              	.LBB29:
 530              	.LBB21:
 531 003c 5000     		lsls	r0, r2, #1
 532              	.LVL75:
 533 003e 5210     		asrs	r2, r2, #1
 534              	.LVL76:
 535 0040 8843     		bics	r0, r1
 536              	.LVL77:
 537 0042 0A40     		ands	r2, r1
 538 0044 1043     		orrs	r0, r2
 539              	.LBE21:
 540              	.LBE29:
 541              		.loc 1 93 0
 542 0046 DBB2     		uxtb	r3, r3
 543 0048 1B02     		lsls	r3, r3, #8
 544 004a C0B2     		uxtb	r0, r0
 545              		.loc 1 94 0
 546 004c 1843     		orrs	r0, r3
 547              		.loc 1 95 0
 548              		@ sp needed
 549 004e 10BD     		pop	{r4, pc}
 550              		.cfi_endproc
 551              	.LFE7:
 552              		.size	bitrev16, .-bitrev16
 553              		.section	.text.bitrev32,"ax",%progbits
 554              		.align	1
 555              		.p2align 4,,15
 556              		.global	bitrev32
 557              		.syntax unified
 558              		.code	16
 559              		.thumb_func
 560              		.fpu softvfp
 561              		.type	bitrev32, %function
 562              	bitrev32:
 563              	.LFB8:
 564              		.loc 1 98 0
 565              		.cfi_startproc
 566              		@ args = 0, pretend = 0, frame = 0
 567              		@ frame_needed = 0, uses_anonymous_args = 0
 568              	.LVL78:
 569 0000 70B5     		push	{r4, r5, r6, lr}
 570              		.cfi_def_cfa_offset 16
ARM GAS  /var/folders/t8/16hdwfmd2fg_d3q6dgx6bpmw0000gn/T//ccD4PKSw.s 			page 11


 571              		.cfi_offset 4, -16
 572              		.cfi_offset 5, -12
 573              		.cfi_offset 6, -8
 574              		.cfi_offset 14, -4
 575              		.loc 1 98 0
 576 0002 0500     		movs	r5, r0
 577              		.loc 1 99 0
 578 0004 80B2     		uxth	r0, r0
 579              	.LVL79:
 580 0006 FFF7FEFF 		bl	bitrev16
 581              	.LVL80:
 582 000a 0400     		movs	r4, r0
 583 000c 280C     		lsrs	r0, r5, #16
 584 000e FFF7FEFF 		bl	bitrev16
 585              	.LVL81:
 586 0012 2404     		lsls	r4, r4, #16
 587              	.LVL82:
 588 0014 2043     		orrs	r0, r4
 589              		.loc 1 101 0
 590              		@ sp needed
 591 0016 70BD     		pop	{r4, r5, r6, pc}
 592              		.cfi_endproc
 593              	.LFE8:
 594              		.size	bitrev32, .-bitrev32
 595              		.text
 596              	.Letext0:
 597              		.file 2 "/usr/local/Caskroom/gcc-arm-embedded/7-2017-q4-major/gcc-arm-none-eabi-7-2017-q4-major/ar
 598              		.file 3 "/usr/local/Caskroom/gcc-arm-embedded/7-2017-q4-major/gcc-arm-none-eabi-7-2017-q4-major/ar